ARM GAS  /tmp/ccaDZiOV.s 			page 1


   1              		.syntax unified
   2              		.cpu cortex-m3
   3              		.fpu softvfp
   4              		.eabi_attribute 20, 1
   5              		.eabi_attribute 21, 1
   6              		.eabi_attribute 23, 3
   7              		.eabi_attribute 24, 1
   8              		.eabi_attribute 25, 1
   9              		.eabi_attribute 26, 1
  10              		.eabi_attribute 30, 2
  11              		.eabi_attribute 34, 1
  12              		.eabi_attribute 18, 4
  13              		.thumb
  14              		.file	"adc.c"
  15              		.text
  16              	.Ltext0:
  17              		.cfi_sections	.debug_frame
  18              		.section	.text.adcInit,"ax",%progbits
  19              		.align	2
  20              		.global	adcInit
  21              		.thumb
  22              		.thumb_func
  23              		.type	adcInit, %function
  24              	adcInit:
  25              	.LFB63:
  26              		.file 1 "../ChibiOS_2.6.4/os/hal/src/adc.c"
  27              		.loc 1 68 0
  28              		.cfi_startproc
  29              		@ args = 0, pretend = 0, frame = 0
  30              		@ frame_needed = 0, uses_anonymous_args = 0
  31              		@ link register save eliminated.
  32              		.loc 1 70 0
  33 0000 FFF7FEBF 		b	adc_lld_init
  34              	.LVL0:
  35              		.cfi_endproc
  36              	.LFE63:
  37              		.size	adcInit, .-adcInit
  38              		.section	.text.adcObjectInit,"ax",%progbits
  39              		.align	2
  40              		.global	adcObjectInit
  41              		.thumb
  42              		.thumb_func
  43              		.type	adcObjectInit, %function
  44              	adcObjectInit:
  45              	.LFB64:
  46              		.loc 1 80 0
  47              		.cfi_startproc
  48              		@ args = 0, pretend = 0, frame = 0
  49              		@ frame_needed = 0, uses_anonymous_args = 0
  50              		@ link register save eliminated.
  51              	.LVL1:
  52              		.loc 1 83 0
  53 0000 0023     		movs	r3, #0
  54              		.loc 1 82 0
  55 0002 0122     		movs	r2, #1
  56 0004 0270     		strb	r2, [r0]
  57              		.loc 1 83 0
ARM GAS  /tmp/ccaDZiOV.s 			page 2


  58 0006 4360     		str	r3, [r0, #4]
  59              		.loc 1 84 0
  60 0008 8360     		str	r3, [r0, #8]
  61              		.loc 1 85 0
  62 000a C360     		str	r3, [r0, #12]
  63              		.loc 1 86 0
  64 000c 0361     		str	r3, [r0, #16]
  65              		.loc 1 88 0
  66 000e 4361     		str	r3, [r0, #20]
  67              		.loc 1 92 0
  68 0010 1830     		adds	r0, r0, #24
  69              	.LVL2:
  70 0012 FFF7FEBF 		b	chMtxInit
  71              	.LVL3:
  72              		.cfi_endproc
  73              	.LFE64:
  74              		.size	adcObjectInit, .-adcObjectInit
  75 0016 00BF     		.section	.text.adcStart,"ax",%progbits
  76              		.align	2
  77              		.global	adcStart
  78              		.thumb
  79              		.thumb_func
  80              		.type	adcStart, %function
  81              	adcStart:
  82              	.LFB65:
  83              		.loc 1 111 0
  84              		.cfi_startproc
  85              		@ args = 0, pretend = 0, frame = 0
  86              		@ frame_needed = 0, uses_anonymous_args = 0
  87              	.LVL4:
  88 0000 10B5     		push	{r4, lr}
  89              		.cfi_def_cfa_offset 8
  90              		.cfi_offset 4, -8
  91              		.cfi_offset 14, -4
  92              	.LBB10:
  93              		.loc 1 115 0
  94 0002 2023     		movs	r3, #32
  95              	.LBE10:
  96              		.loc 1 111 0
  97 0004 0446     		mov	r4, r0
  98              	.LBB11:
  99              		.loc 1 115 0
 100              	@ 115 "../ChibiOS_2.6.4/os/hal/src/adc.c" 1
 101 0006 83F31188 		msr     BASEPRI, r3
 102              	@ 0 "" 2
 103              		.thumb
 104              	.LBE11:
 105              		.loc 1 118 0
 106 000a 4160     		str	r1, [r0, #4]
 107              		.loc 1 119 0
 108 000c FFF7FEFF 		bl	adc_lld_start
 109              	.LVL5:
 110              		.loc 1 120 0
 111 0010 0223     		movs	r3, #2
 112 0012 2370     		strb	r3, [r4]
 113              	.LBB12:
 114              		.loc 1 121 0
ARM GAS  /tmp/ccaDZiOV.s 			page 3


 115 0014 0023     		movs	r3, #0
 116              	@ 121 "../ChibiOS_2.6.4/os/hal/src/adc.c" 1
 117 0016 83F31188 		msr     BASEPRI, r3
 118              	@ 0 "" 2
 119              		.thumb
 120 001a 10BD     		pop	{r4, pc}
 121              	.LBE12:
 122              		.cfi_endproc
 123              	.LFE65:
 124              		.size	adcStart, .-adcStart
 125              		.section	.text.adcStop,"ax",%progbits
 126              		.align	2
 127              		.global	adcStop
 128              		.thumb
 129              		.thumb_func
 130              		.type	adcStop, %function
 131              	adcStop:
 132              	.LFB66:
 133              		.loc 1 131 0
 134              		.cfi_startproc
 135              		@ args = 0, pretend = 0, frame = 0
 136              		@ frame_needed = 0, uses_anonymous_args = 0
 137              	.LVL6:
 138 0000 10B5     		push	{r4, lr}
 139              		.cfi_def_cfa_offset 8
 140              		.cfi_offset 4, -8
 141              		.cfi_offset 14, -4
 142              	.LBB13:
 143              		.loc 1 135 0
 144 0002 2023     		movs	r3, #32
 145              	.LBE13:
 146              		.loc 1 131 0
 147 0004 0446     		mov	r4, r0
 148              	.LBB14:
 149              		.loc 1 135 0
 150              	@ 135 "../ChibiOS_2.6.4/os/hal/src/adc.c" 1
 151 0006 83F31188 		msr     BASEPRI, r3
 152              	@ 0 "" 2
 153              		.thumb
 154              	.LBE14:
 155              		.loc 1 138 0
 156 000a FFF7FEFF 		bl	adc_lld_stop
 157              	.LVL7:
 158              		.loc 1 139 0
 159 000e 0123     		movs	r3, #1
 160 0010 2370     		strb	r3, [r4]
 161              	.LBB15:
 162              		.loc 1 140 0
 163 0012 0023     		movs	r3, #0
 164              	@ 140 "../ChibiOS_2.6.4/os/hal/src/adc.c" 1
 165 0014 83F31188 		msr     BASEPRI, r3
 166              	@ 0 "" 2
 167              		.thumb
 168 0018 10BD     		pop	{r4, pc}
 169              	.LBE15:
 170              		.cfi_endproc
 171              	.LFE66:
ARM GAS  /tmp/ccaDZiOV.s 			page 4


 172              		.size	adcStop, .-adcStop
 173 001a 00BF     		.section	.text.adcStartConversion,"ax",%progbits
 174              		.align	2
 175              		.global	adcStartConversion
 176              		.thumb
 177              		.thumb_func
 178              		.type	adcStartConversion, %function
 179              	adcStartConversion:
 180              	.LFB67:
 181              		.loc 1 162 0
 182              		.cfi_startproc
 183              		@ args = 0, pretend = 0, frame = 0
 184              		@ frame_needed = 0, uses_anonymous_args = 0
 185              	.LVL8:
 186 0000 10B5     		push	{r4, lr}
 187              		.cfi_def_cfa_offset 8
 188              		.cfi_offset 4, -8
 189              		.cfi_offset 14, -4
 190              		.loc 1 162 0
 191 0002 1C46     		mov	r4, r3
 192              	.LBB16:
 193              		.loc 1 164 0
 194 0004 2023     		movs	r3, #32
 195              	.LVL9:
 196              	@ 164 "../ChibiOS_2.6.4/os/hal/src/adc.c" 1
 197 0006 83F31188 		msr     BASEPRI, r3
 198              	@ 0 "" 2
 199              	.LVL10:
 200              		.thumb
 201              	.LBE16:
 202              	.LBB17:
 203              	.LBB18:
 204              		.loc 1 204 0
 205 000a 0323     		movs	r3, #3
 206 000c 0370     		strb	r3, [r0]
 207              		.loc 1 201 0
 208 000e 8260     		str	r2, [r0, #8]
 209              		.loc 1 202 0
 210 0010 C460     		str	r4, [r0, #12]
 211              		.loc 1 203 0
 212 0012 0161     		str	r1, [r0, #16]
 213              		.loc 1 205 0
 214 0014 FFF7FEFF 		bl	adc_lld_start_conversion
 215              	.LVL11:
 216              	.LBE18:
 217              	.LBE17:
 218              	.LBB19:
 219              		.loc 1 166 0
 220 0018 0023     		movs	r3, #0
 221              	@ 166 "../ChibiOS_2.6.4/os/hal/src/adc.c" 1
 222 001a 83F31188 		msr     BASEPRI, r3
 223              	@ 0 "" 2
 224              		.thumb
 225 001e 10BD     		pop	{r4, pc}
 226              	.LBE19:
 227              		.cfi_endproc
 228              	.LFE67:
ARM GAS  /tmp/ccaDZiOV.s 			page 5


 229              		.size	adcStartConversion, .-adcStartConversion
 230              		.section	.text.adcStartConversionI,"ax",%progbits
 231              		.align	2
 232              		.global	adcStartConversionI
 233              		.thumb
 234              		.thumb_func
 235              		.type	adcStartConversionI, %function
 236              	adcStartConversionI:
 237              	.LFB68:
 238              		.loc 1 190 0
 239              		.cfi_startproc
 240              		@ args = 0, pretend = 0, frame = 0
 241              		@ frame_needed = 0, uses_anonymous_args = 0
 242              		@ link register save eliminated.
 243              	.LVL12:
 244 0000 30B4     		push	{r4, r5}
 245              		.cfi_def_cfa_offset 8
 246              		.cfi_offset 4, -8
 247              		.cfi_offset 5, -4
 248              		.loc 1 204 0
 249 0002 0325     		movs	r5, #3
 250 0004 0570     		strb	r5, [r0]
 251              		.loc 1 201 0
 252 0006 8260     		str	r2, [r0, #8]
 253              		.loc 1 202 0
 254 0008 C360     		str	r3, [r0, #12]
 255              		.loc 1 203 0
 256 000a 0161     		str	r1, [r0, #16]
 257              		.loc 1 206 0
 258 000c 30BC     		pop	{r4, r5}
 259              		.loc 1 205 0
 260 000e FFF7FEBF 		b	adc_lld_start_conversion
 261              	.LVL13:
 262              		.cfi_endproc
 263              	.LFE68:
 264              		.size	adcStartConversionI, .-adcStartConversionI
 265 0012 00BF     		.section	.text.adcStopConversion,"ax",%progbits
 266              		.align	2
 267              		.global	adcStopConversion
 268              		.thumb
 269              		.thumb_func
 270              		.type	adcStopConversion, %function
 271              	adcStopConversion:
 272              	.LFB69:
 273              		.loc 1 218 0
 274              		.cfi_startproc
 275              		@ args = 0, pretend = 0, frame = 0
 276              		@ frame_needed = 0, uses_anonymous_args = 0
 277              	.LVL14:
 278 0000 10B5     		push	{r4, lr}
 279              		.cfi_def_cfa_offset 8
 280              		.cfi_offset 4, -8
 281              		.cfi_offset 14, -4
 282              	.LBB20:
 283              		.loc 1 222 0
 284 0002 2023     		movs	r3, #32
 285              	.LBE20:
ARM GAS  /tmp/ccaDZiOV.s 			page 6


 286              		.loc 1 218 0
 287 0004 0446     		mov	r4, r0
 288              	.LBB21:
 289              		.loc 1 222 0
 290              	@ 222 "../ChibiOS_2.6.4/os/hal/src/adc.c" 1
 291 0006 83F31188 		msr     BASEPRI, r3
 292              	@ 0 "" 2
 293              		.thumb
 294              	.LBE21:
 295              		.loc 1 226 0
 296 000a 0378     		ldrb	r3, [r0]	@ zero_extendqisi2
 297 000c 022B     		cmp	r3, #2
 298 000e 0CD0     		beq	.L9
 299              		.loc 1 227 0
 300 0010 FFF7FEFF 		bl	adc_lld_stop_conversion
 301              	.LVL15:
 302              		.loc 1 230 0
 303 0014 6069     		ldr	r0, [r4, #20]
 304              		.loc 1 228 0
 305 0016 0023     		movs	r3, #0
 306              		.loc 1 229 0
 307 0018 0222     		movs	r2, #2
 308              		.loc 1 228 0
 309 001a 2361     		str	r3, [r4, #16]
 310              		.loc 1 229 0
 311 001c 2270     		strb	r2, [r4]
 312              		.loc 1 230 0
 313 001e 20B1     		cbz	r0, .L9
 314              	.LVL16:
 315              	.LBB22:
 316              		.loc 1 230 0 is_stmt 0 discriminator 1
 317 0020 6361     		str	r3, [r4, #20]
 318 0022 6FF00101 		mvn	r1, #1
 319 0026 FFF7FEFF 		bl	chSchWakeupS
 320              	.LVL17:
 321              	.L9:
 322              	.LBE22:
 323              	.LBB23:
 324              		.loc 1 232 0 is_stmt 1
 325 002a 0023     		movs	r3, #0
 326              	@ 232 "../ChibiOS_2.6.4/os/hal/src/adc.c" 1
 327 002c 83F31188 		msr     BASEPRI, r3
 328              	@ 0 "" 2
 329              		.thumb
 330 0030 10BD     		pop	{r4, pc}
 331              	.LBE23:
 332              		.cfi_endproc
 333              	.LFE69:
 334              		.size	adcStopConversion, .-adcStopConversion
 335 0032 00BF     		.section	.text.adcStopConversionI,"ax",%progbits
 336              		.align	2
 337              		.global	adcStopConversionI
 338              		.thumb
 339              		.thumb_func
 340              		.type	adcStopConversionI, %function
 341              	adcStopConversionI:
 342              	.LFB70:
ARM GAS  /tmp/ccaDZiOV.s 			page 7


 343              		.loc 1 245 0
 344              		.cfi_startproc
 345              		@ args = 0, pretend = 0, frame = 0
 346              		@ frame_needed = 0, uses_anonymous_args = 0
 347              	.LVL18:
 348              		.loc 1 254 0
 349 0000 0378     		ldrb	r3, [r0]	@ zero_extendqisi2
 350              		.loc 1 245 0
 351 0002 10B5     		push	{r4, lr}
 352              		.cfi_def_cfa_offset 8
 353              		.cfi_offset 4, -8
 354              		.cfi_offset 14, -4
 355              		.loc 1 254 0
 356 0004 022B     		cmp	r3, #2
 357              		.loc 1 245 0
 358 0006 0446     		mov	r4, r0
 359              		.loc 1 254 0
 360 0008 10D0     		beq	.L15
 361              		.loc 1 255 0
 362 000a FFF7FEFF 		bl	adc_lld_stop_conversion
 363              	.LVL19:
 364              		.loc 1 258 0
 365 000e 6369     		ldr	r3, [r4, #20]
 366              		.loc 1 256 0
 367 0010 0022     		movs	r2, #0
 368              		.loc 1 257 0
 369 0012 0221     		movs	r1, #2
 370              		.loc 1 256 0
 371 0014 2261     		str	r2, [r4, #16]
 372              		.loc 1 257 0
 373 0016 2170     		strb	r1, [r4]
 374              		.loc 1 258 0
 375 0018 43B1     		cbz	r3, .L15
 376              	.LVL20:
 377              	.LBB24:
 378              		.loc 1 258 0 is_stmt 0 discriminator 1
 379 001a 6FF00101 		mvn	r1, #1
 380 001e 6261     		str	r2, [r4, #20]
 381 0020 5962     		str	r1, [r3, #36]
 382 0022 1846     		mov	r0, r3
 383              	.LBE24:
 384              		.loc 1 260 0 is_stmt 1 discriminator 1
 385 0024 BDE81040 		pop	{r4, lr}
 386              	.LVL21:
 387              	.LBB25:
 388              		.loc 1 258 0 discriminator 1
 389 0028 FFF7FEBF 		b	chSchReadyI
 390              	.LVL22:
 391              	.L15:
 392 002c 10BD     		pop	{r4, pc}
 393              	.LBE25:
 394              		.cfi_endproc
 395              	.LFE70:
 396              		.size	adcStopConversionI, .-adcStopConversionI
 397 002e 00BF     		.section	.text.adcConvert,"ax",%progbits
 398              		.align	2
 399              		.global	adcConvert
ARM GAS  /tmp/ccaDZiOV.s 			page 8


 400              		.thumb
 401              		.thumb_func
 402              		.type	adcConvert, %function
 403              	adcConvert:
 404              	.LFB71:
 405              		.loc 1 289 0
 406              		.cfi_startproc
 407              		@ args = 0, pretend = 0, frame = 0
 408              		@ frame_needed = 0, uses_anonymous_args = 0
 409              	.LVL23:
 410 0000 70B5     		push	{r4, r5, r6, lr}
 411              		.cfi_def_cfa_offset 16
 412              		.cfi_offset 4, -16
 413              		.cfi_offset 5, -12
 414              		.cfi_offset 6, -8
 415              		.cfi_offset 14, -4
 416              		.loc 1 289 0
 417 0002 1E46     		mov	r6, r3
 418 0004 0446     		mov	r4, r0
 419              	.LBB26:
 420              		.loc 1 292 0
 421 0006 2023     		movs	r3, #32
 422              	.LVL24:
 423              	@ 292 "../ChibiOS_2.6.4/os/hal/src/adc.c" 1
 424 0008 83F31188 		msr     BASEPRI, r3
 425              	@ 0 "" 2
 426              	.LVL25:
 427              		.thumb
 428              	.LBE26:
 429              	.LBB27:
 430              	.LBB28:
 431              		.loc 1 204 0
 432 000c 0323     		movs	r3, #3
 433              	.LBE28:
 434              	.LBE27:
 435              		.loc 1 295 0
 436 000e 40F20005 		movw	r5, #:lower16:rlist
 437              	.LBB31:
 438              	.LBB29:
 439              		.loc 1 201 0
 440 0012 8260     		str	r2, [r0, #8]
 441              		.loc 1 203 0
 442 0014 0161     		str	r1, [r0, #16]
 443              		.loc 1 202 0
 444 0016 C660     		str	r6, [r0, #12]
 445              		.loc 1 204 0
 446 0018 0370     		strb	r3, [r0]
 447              	.LBE29:
 448              	.LBE31:
 449              		.loc 1 295 0
 450 001a C0F20005 		movt	r5, #:upper16:rlist
 451              	.LBB32:
 452              	.LBB30:
 453              		.loc 1 205 0
 454 001e FFF7FEFF 		bl	adc_lld_start_conversion
 455              	.LVL26:
 456              	.LBE30:
ARM GAS  /tmp/ccaDZiOV.s 			page 9


 457              	.LBE32:
 458              		.loc 1 295 0
 459 0022 AB69     		ldr	r3, [r5, #24]
 460              		.loc 1 296 0
 461 0024 0220     		movs	r0, #2
 462              		.loc 1 295 0
 463 0026 6361     		str	r3, [r4, #20]
 464              		.loc 1 296 0
 465 0028 FFF7FEFF 		bl	chSchGoSleepS
 466              	.LVL27:
 467              		.loc 1 297 0
 468 002c AA69     		ldr	r2, [r5, #24]
 469              	.LBB33:
 470              		.loc 1 298 0
 471 002e 0023     		movs	r3, #0
 472              	.LBE33:
 473              		.loc 1 297 0
 474 0030 506A     		ldr	r0, [r2, #36]
 475              	.LVL28:
 476              	.LBB34:
 477              		.loc 1 298 0
 478              	@ 298 "../ChibiOS_2.6.4/os/hal/src/adc.c" 1
 479 0032 83F31188 		msr     BASEPRI, r3
 480              	@ 0 "" 2
 481              		.thumb
 482              	.LBE34:
 483              		.loc 1 300 0
 484 0036 70BD     		pop	{r4, r5, r6, pc}
 485              		.cfi_endproc
 486              	.LFE71:
 487              		.size	adcConvert, .-adcConvert
 488              		.section	.text.adcAcquireBus,"ax",%progbits
 489              		.align	2
 490              		.global	adcAcquireBus
 491              		.thumb
 492              		.thumb_func
 493              		.type	adcAcquireBus, %function
 494              	adcAcquireBus:
 495              	.LFB72:
 496              		.loc 1 315 0
 497              		.cfi_startproc
 498              		@ args = 0, pretend = 0, frame = 0
 499              		@ frame_needed = 0, uses_anonymous_args = 0
 500              		@ link register save eliminated.
 501              	.LVL29:
 502              		.loc 1 320 0
 503 0000 1830     		adds	r0, r0, #24
 504              	.LVL30:
 505 0002 FFF7FEBF 		b	chMtxLock
 506              	.LVL31:
 507              		.cfi_endproc
 508              	.LFE72:
 509              		.size	adcAcquireBus, .-adcAcquireBus
 510 0006 00BF     		.section	.text.adcReleaseBus,"ax",%progbits
 511              		.align	2
 512              		.global	adcReleaseBus
 513              		.thumb
ARM GAS  /tmp/ccaDZiOV.s 			page 10


 514              		.thumb_func
 515              		.type	adcReleaseBus, %function
 516              	adcReleaseBus:
 517              	.LFB73:
 518              		.loc 1 335 0
 519              		.cfi_startproc
 520              		@ args = 0, pretend = 0, frame = 0
 521              		@ frame_needed = 0, uses_anonymous_args = 0
 522              		@ link register save eliminated.
 523              	.LVL32:
 524              		.loc 1 341 0
 525 0000 FFF7FEBF 		b	chMtxUnlock
 526              	.LVL33:
 527              		.cfi_endproc
 528              	.LFE73:
 529              		.size	adcReleaseBus, .-adcReleaseBus
 530              		.text
 531              	.Letext0:
 532              		.file 2 "/usr/lib/gcc/arm-none-eabi/4.8.2/include/stddef.h"
 533              		.file 3 "/usr/include/newlib/machine/_default_types.h"
 534              		.file 4 "/usr/include/newlib/stdint.h"
 535              		.file 5 "../ChibiOS_2.6.4/os/ports/GCC/ARMCMx/chtypes.h"
 536              		.file 6 "../ChibiOS_2.6.4/os/kernel/include/chlists.h"
 537              		.file 7 "../ChibiOS_2.6.4/os/kernel/include/chthreads.h"
 538              		.file 8 "../ChibiOS_2.6.4/os/ports/GCC/ARMCMx/chcore_v7m.h"
 539              		.file 9 "../ChibiOS_2.6.4/os/kernel/include/chschd.h"
 540              		.file 10 "../ChibiOS_2.6.4/os/kernel/include/chmtx.h"
 541              		.file 11 "../ChibiOS_2.6.4/os/hal/platforms/STM32L1xx/stm32l1xx.h"
 542              		.file 12 "../ChibiOS_2.6.4/os/hal/platforms/STM32L1xx/stm32_dma.h"
 543              		.file 13 "../ChibiOS_2.6.4/os/hal/include/adc.h"
 544              		.file 14 "../ChibiOS_2.6.4/os/hal/platforms/STM32L1xx/adc_lld.h"
 545              		.file 15 "../ChibiOS_2.6.4/os/ports/common/ARMCMx/CMSIS/include/core_cm3.h"