ARM GAS  /tmp/ccaDZiOV.s 			page 1


   1              		.syntax unified
   2              		.cpu cortex-m3
   3              		.fpu softvfp
   4              		.eabi_attribute 20, 1
   5              		.eabi_attribute 21, 1
   6              		.eabi_attribute 23, 3
   7              		.eabi_attribute 24, 1
   8              		.eabi_attribute 25, 1
   9              		.eabi_attribute 26, 1
  10              		.eabi_attribute 30, 2
  11              		.eabi_attribute 34, 1
  12              		.eabi_attribute 18, 4
  13              		.thumb
  14              		.file	"adc.c"
  15              		.text
  16              	.Ltext0:
  17              		.cfi_sections	.debug_frame
  18              		.section	.text.adcInit,"ax",%progbits
  19              		.align	2
  20              		.global	adcInit
  21              		.thumb
  22              		.thumb_func
  23              		.type	adcInit, %function
  24              	adcInit:
  25              	.LFB63:
  26              		.file 1 "../ChibiOS_2.6.4/os/hal/src/adc.c"
  27              		.loc 1 68 0
  28              		.cfi_startproc
  29              		@ args = 0, pretend = 0, frame = 0
  30              		@ frame_needed = 0, uses_anonymous_args = 0
  31              		@ link register save eliminated.
  32              		.loc 1 70 0
  33 0000 FFF7FEBF 		b	adc_lld_init
  34              	.LVL0:
  35              		.cfi_endproc
  36              	.LFE63:
  37              		.size	adcInit, .-adcInit
  38              		.section	.text.adcObjectInit,"ax",%progbits
  39              		.align	2
  40              		.global	adcObjectInit
  41              		.thumb
  42              		.thumb_func
  43              		.type	adcObjectInit, %function
  44              	adcObjectInit:
  45              	.LFB64:
  46              		.loc 1 80 0
  47              		.cfi_startproc
  48              		@ args = 0, pretend = 0, frame = 0
  49              		@ frame_needed = 0, uses_anonymous_args = 0
  50              		@ link register save eliminated.
  51              	.LVL1:
  52              		.loc 1 83 0
  53 0000 0023     		movs	r3, #0
  54              		.loc 1 82 0
  55 0002 0122     		movs	r2, #1
  56 0004 0270     		strb	r2, [r0]
  57              		.loc 1 83 0
ARM GAS  /tmp/ccaDZiOV.s 			page 2


  58 0006 4360     		str	r3, [r0, #4]
  59              		.loc 1 84 0
  60 0008 8360     		str	r3, [r0, #8]
  61              		.loc 1 85 0
  62 000a C360     		str	r3, [r0, #12]
  63              		.loc 1 86 0
  64 000c 0361     		str	r3, [r0, #16]
  65              		.loc 1 88 0
  66 000e 4361     		str	r3, [r0, #20]
  67              		.loc 1 92 0
  68 0010 1830     		adds	r0, r0, #24
  69              	.LVL2:
  70 0012 FFF7FEBF 		b	chMtxInit
  71              	.LVL3:
  72              		.cfi_endproc
  73              	.LFE64:
  74              		.size	adcObjectInit, .-adcObjectInit
  75 0016 00BF     		.section	.text.adcStart,"ax",%progbits
  76              		.align	2
  77              		.global	adcStart
  78              		.thumb
  79              		.thumb_func
  80              		.type	adcStart, %function
  81              	adcStart:
  82              	.LFB65:
  83              		.loc 1 111 0
  84              		.cfi_startproc
  85              		@ args = 0, pretend = 0, frame = 0
  86              		@ frame_needed = 0, uses_anonymous_args = 0
  87              	.LVL4:
  88 0000 10B5     		push	{r4, lr}
  89              		.cfi_def_cfa_offset 8
  90              		.cfi_offset 4, -8
  91              		.cfi_offset 14, -4
  92              	.LBB10:
  93              		.loc 1 115 0
  94 0002 2023     		movs	r3, #32
  95              	.LBE10:
  96              		.loc 1 111 0
  97 0004 0446     		mov	r4, r0
  98              	.LBB11:
  99              		.loc 1 115 0
 100              	@ 115 "../ChibiOS_2.6.4/os/hal/src/adc.c" 1
 101 0006 83F31188 		msr     BASEPRI, r3
 102              	@ 0 "" 2
 103              		.thumb
 104              	.LBE11:
 105              		.loc 1 118 0
 106 000a 4160     		str	r1, [r0, #4]
 107              		.loc 1 119 0
 108 000c FFF7FEFF 		bl	adc_lld_start
 109              	.LVL5:
 110              		.loc 1 120 0
 111 0010 0223     		movs	r3, #2
 112 0012 2370     		strb	r3, [r4]
 113              	.LBB12:
 114              		.loc 1 121 0
ARM GAS  /tmp/ccaDZiOV.s 			page 3


 115 0014 0023     		movs	r3, #0
 116              	@ 121 "../ChibiOS_2.6.4/os/hal/src/adc.c" 1
 117 0016 83F31188 		msr     BASEPRI, r3
 118              	@ 0 "" 2
 119              		.thumb
 120 001a 10BD     		pop	{r4, pc}
 121              	.LBE12:
 122              		.cfi_endproc
 123              	.LFE65:
 124              		.size	adcStart, .-adcStart
 125              		.section	.text.adcStop,"ax",%progbits
 126              		.align	2
 127              		.global	adcStop
 128              		.thumb
 129              		.thumb_func
 130              		.type	adcStop, %function
 131              	adcStop:
 132              	.LFB66:
 133              		.loc 1 131 0
 134              		.cfi_startproc
 135              		@ args = 0, pretend = 0, frame = 0
 136              		@ frame_needed = 0, uses_anonymous_args = 0
 137              	.LVL6:
 138 0000 10B5     		push	{r4, lr}
 139              		.cfi_def_cfa_offset 8
 140              		.cfi_offset 4, -8
 141              		.cfi_offset 14, -4
 142              	.LBB13:
 143              		.loc 1 135 0
 144 0002 2023     		movs	r3, #32
 145              	.LBE13:
 146              		.loc 1 131 0
 147 0004 0446     		mov	r4, r0
 148              	.LBB14:
 149              		.loc 1 135 0
 150              	@ 135 "../ChibiOS_2.6.4/os/hal/src/adc.c" 1
 151 0006 83F31188 		msr     BASEPRI, r3
 152              	@ 0 "" 2
 153              		.thumb
 154              	.LBE14:
 155              		.loc 1 138 0
 156 000a FFF7FEFF 		bl	adc_lld_stop
 157              	.LVL7:
 158              		.loc 1 139 0
 159 000e 0123     		movs	r3, #1
 160 0010 2370     		strb	r3, [r4]
 161              	.LBB15:
 162              		.loc 1 140 0
 163 0012 0023     		movs	r3, #0
 164              	@ 140 "../ChibiOS_2.6.4/os/hal/src/adc.c" 1
 165 0014 83F31188 		msr     BASEPRI, r3
 166              	@ 0 "" 2
 167              		.thumb
 168 0018 10BD     		pop	{r4, pc}
 169              	.LBE15:
 170              		.cfi_endproc
 171              	.LFE66:
ARM GAS  /tmp/ccaDZiOV.s 			page 4


 172              		.size	adcStop, .-adcStop
 173 001a 00BF     		.section	.text.adcStartConversion,"ax",%progbits
 174              		.align	2
 175              		.global	adcStartConversion
 176              		.thumb
 177              		.thumb_func
 178              		.type	adcStartConversion, %function
 179              	adcStartConversion:
 180              	.LFB67:
 181              		.loc 1 162 0
 182              		.cfi_startproc
 183              		@ args = 0, pretend = 0, frame = 0
 184              		@ frame_needed = 0, uses_anonymous_args = 0
 185              	.LVL8:
 186 0000 10B5     		push	{r4, lr}
 187              		.cfi_def_cfa_offset 8
 188              		.cfi_offset 4, -8
 189              		.cfi_offset 14, -4
 190              		.loc 1 162 0
 191 0002 1C46     		mov	r4, r3
 192              	.LBB16:
 193              		.loc 1 164 0
 194 0004 2023     		movs	r3, #32
 195              	.LVL9:
 196              	@ 164 "../ChibiOS_2.6.4/os/hal/src/adc.c" 1
 197 0006 83F31188 		msr     BASEPRI, r3
 198              	@ 0 "" 2
 199              	.LVL10:
 200              		.thumb
 201              	.LBE16:
 202              	.LBB17:
 203              	.LBB18:
 204              		.loc 1 204 0
 205 000a 0323     		movs	r3, #3
 206 000c 0370     		strb	r3, [r0]
 207              		.loc 1 201 0
 208 000e 8260     		str	r2, [r0, #8]
 209              		.loc 1 202 0
 210 0010 C460     		str	r4, [r0, #12]
 211              		.loc 1 203 0
 212 0012 0161     		str	r1, [r0, #16]
 213              		.loc 1 205 0
 214 0014 FFF7FEFF 		bl	adc_lld_start_conversion
 215              	.LVL11:
 216              	.LBE18:
 217              	.LBE17:
 218              	.LBB19:
 219              		.loc 1 166 0
 220 0018 0023     		movs	r3, #0
 221              	@ 166 "../ChibiOS_2.6.4/os/hal/src/adc.c" 1
 222 001a 83F31188 		msr     BASEPRI, r3
 223              	@ 0 "" 2
 224              		.thumb
 225 001e 10BD     		pop	{r4, pc}
 226              	.LBE19:
 227              		.cfi_endproc
 228              	.LFE67:
ARM GAS  /tmp/ccaDZiOV.s 			page 5


 229              		.size	adcStartConversion, .-adcStartConversion
 230              		.section	.text.adcStartConversionI,"ax",%progbits
 231              		.align	2
 232              		.global	adcStartConversionI
 233              		.thumb
 234              		.thumb_func
 235              		.type	adcStartConversionI, %function
 236              	adcStartConversionI:
 237              	.LFB68:
 238              		.loc 1 190 0
 239              		.cfi_startproc
 240              		@ args = 0, pretend = 0, frame = 0
 241              		@ frame_needed = 0, uses_anonymous_args = 0
 242              		@ link register save eliminated.
 243              	.LVL12:
 244 0000 30B4     		push	{r4, r5}
 245              		.cfi_def_cfa_offset 8
 246              		.cfi_offset 4, -8
 247              		.cfi_offset 5, -4
 248              		.loc 1 204 0
 249 0002 0325     		movs	r5, #3
 250 0004 0570     		strb	r5, [r0]
 251              		.loc 1 201 0
 252 0006 8260     		str	r2, [r0, #8]
 253              		.loc 1 202 0
 254 0008 C360     		str	r3, [r0, #12]
 255              		.loc 1 203 0
 256 000a 0161     		str	r1, [r0, #16]
 257              		.loc 1 206 0
 258 000c 30BC     		pop	{r4, r5}
 259              		.loc 1 205 0
 260 000e FFF7FEBF 		b	adc_lld_start_conversion
 261              	.LVL13:
 262              		.cfi_endproc
 263              	.LFE68:
 264              		.size	adcStartConversionI, .-adcStartConversionI
 265 0012 00BF     		.section	.text.adcStopConversion,"ax",%progbits
 266              		.align	2
 267              		.global	adcStopConversion
 268              		.thumb
 269              		.thumb_func
 270              		.type	adcStopConversion, %function
 271              	adcStopConversion:
 272              	.LFB69:
 273              		.loc 1 218 0
 274              		.cfi_startproc
 275              		@ args = 0, pretend = 0, frame = 0
 276              		@ frame_needed = 0, uses_anonymous_args = 0
 277              	.LVL14:
 278 0000 10B5     		push	{r4, lr}
 279              		.cfi_def_cfa_offset 8
 280              		.cfi_offset 4, -8
 281              		.cfi_offset 14, -4
 282              	.LBB20:
 283              		.loc 1 222 0
 284 0002 2023     		movs	r3, #32
 285              	.LBE20:
ARM GAS  /tmp/ccaDZiOV.s 			page 6


 286              		.loc 1 218 0
 287 0004 0446     		mov	r4, r0
 288              	.LBB21:
 289              		.loc 1 222 0
 290              	@ 222 "../ChibiOS_2.6.4/os/hal/src/adc.c" 1
 291 0006 83F31188 		msr     BASEPRI, r3
 292              	@ 0 "" 2
 293              		.thumb
 294              	.LBE21:
 295              		.loc 1 226 0
 296 000a 0378     		ldrb	r3, [r0]	@ zero_extendqisi2
 297 000c 022B     		cmp	r3, #2
 298 000e 0CD0     		beq	.L9
 299              		.loc 1 227 0
 300 0010 FFF7FEFF 		bl	adc_lld_stop_conversion
 301              	.LVL15:
 302              		.loc 1 230 0
 303 0014 6069     		ldr	r0, [r4, #20]
 304              		.loc 1 228 0
 305 0016 0023     		movs	r3, #0
 306              		.loc 1 229 0
 307 0018 0222     		movs	r2, #2
 308              		.loc 1 228 0
 309 001a 2361     		str	r3, [r4, #16]
 310              		.loc 1 229 0
 311 001c 2270     		strb	r2, [r4]
 312              		.loc 1 230 0
 313 001e 20B1     		cbz	r0, .L9
 314              	.LVL16:
 315              	.LBB22:
 316              		.loc 1 230 0 is_stmt 0 discriminator 1
 317 0020 6361     		str	r3, [r4, #20]
 318 0022 6FF00101 		mvn	r1, #1
 319 0026 FFF7FEFF 		bl	chSchWakeupS
 320              	.LVL17:
 321              	.L9:
 322              	.LBE22:
 323              	.LBB23:
 324              		.loc 1 232 0 is_stmt 1
 325 002a 0023     		movs	r3, #0
 326              	@ 232 "../ChibiOS_2.6.4/os/hal/src/adc.c" 1
 327 002c 83F31188 		msr     BASEPRI, r3
 328              	@ 0 "" 2
 329              		.thumb
 330 0030 10BD     		pop	{r4, pc}
 331              	.LBE23:
 332              		.cfi_endproc
 333              	.LFE69:
 334              		.size	adcStopConversion, .-adcStopConversion
 335 0032 00BF     		.section	.text.adcStopConversionI,"ax",%progbits
 336              		.align	2
 337              		.global	adcStopConversionI
 338              		.thumb
 339              		.thumb_func
 340              		.type	adcStopConversionI, %function
 341              	adcStopConversionI:
 342              	.LFB70:
ARM GAS  /tmp/ccaDZiOV.s 			page 7


 343              		.loc 1 245 0
 344              		.cfi_startproc
 345              		@ args = 0, pretend = 0, frame = 0
 346              		@ frame_needed = 0, uses_anonymous_args = 0
 347              	.LVL18:
 348              		.loc 1 254 0
 349 0000 0378     		ldrb	r3, [r0]	@ zero_extendqisi2
 350              		.loc 1 245 0
 351 0002 10B5     		push	{r4, lr}
 352              		.cfi_def_cfa_offset 8
 353              		.cfi_offset 4, -8
 354              		.cfi_offset 14, -4
 355              		.loc 1 254 0
 356 0004 022B     		cmp	r3, #2
 357              		.loc 1 245 0
 358 0006 0446     		mov	r4, r0
 359              		.loc 1 254 0
 360 0008 10D0     		beq	.L15
 361              		.loc 1 255 0
 362 000a FFF7FEFF 		bl	adc_lld_stop_conversion
 363              	.LVL19:
 364              		.loc 1 258 0
 365 000e 6369     		ldr	r3, [r4, #20]
 366              		.loc 1 256 0
 367 0010 0022     		movs	r2, #0
 368              		.loc 1 257 0
 369 0012 0221     		movs	r1, #2
 370              		.loc 1 256 0
 371 0014 2261     		str	r2, [r4, #16]
 372              		.loc 1 257 0
 373 0016 2170     		strb	r1, [r4]
 374              		.loc 1 258 0
 375 0018 43B1     		cbz	r3, .L15
 376              	.LVL20:
 377              	.LBB24:
 378              		.loc 1 258 0 is_stmt 0 discriminator 1
 379 001a 6FF00101 		mvn	r1, #1
 380 001e 6261     		str	r2, [r4, #20]
 381 0020 5962     		str	r1, [r3, #36]
 382 0022 1846     		mov	r0, r3
 383              	.LBE24:
 384              		.loc 1 260 0 is_stmt 1 discriminator 1
 385 0024 BDE81040 		pop	{r4, lr}
 386              	.LVL21:
 387              	.LBB25:
 388              		.loc 1 258 0 discriminator 1
 389 0028 FFF7FEBF 		b	chSchReadyI
 390              	.LVL22:
 391              	.L15:
 392 002c 10BD     		pop	{r4, pc}
 393              	.LBE25:
 394              		.cfi_endproc
 395              	.LFE70:
 396              		.size	adcStopConversionI, .-adcStopConversionI
 397 002e 00BF     		.section	.text.adcConvert,"ax",%progbits
 398              		.align	2
 399              		.global	adcConvert
ARM GAS  /tmp/ccaDZiOV.s 			page 8


 400              		.thumb
 401              		.thumb_func
 402              		.type	adcConvert, %function
 403              	adcConvert:
 404              	.LFB71:
 405              		.loc 1 289 0
 406              		.cfi_startproc
 407              		@ args = 0, pretend = 0, frame = 0
 408              		@ frame_needed = 0, uses_anonymous_args = 0
 409              	.LVL23:
 410 0000 70B5     		push	{r4, r5, r6, lr}
 411              		.cfi_def_cfa_offset 16
 412              		.cfi_offset 4, -16
 413              		.cfi_offset 5, -12
 414              		.cfi_offset 6, -8
 415              		.cfi_offset 14, -4
 416              		.loc 1 289 0
 417 0002 1E46     		mov	r6, r3
 418 0004 0446     		mov	r4, r0
 419              	.LBB26:
 420              		.loc 1 292 0
 421 0006 2023     		movs	r3, #32
 422              	.LVL24:
 423              	@ 292 "../ChibiOS_2.6.4/os/hal/src/adc.c" 1
 424 0008 83F31188 		msr     BASEPRI, r3
 425              	@ 0 "" 2
 426              	.LVL25:
 427              		.thumb
 428              	.LBE26:
 429              	.LBB27:
 430              	.LBB28:
 431              		.loc 1 204 0
 432 000c 0323     		movs	r3, #3
 433              	.LBE28:
 434              	.LBE27:
 435              		.loc 1 295 0
 436 000e 40F20005 		movw	r5, #:lower16:rlist
 437              	.LBB31:
 438              	.LBB29:
 439              		.loc 1 201 0
 440 0012 8260     		str	r2, [r0, #8]
 441              		.loc 1 203 0
 442 0014 0161     		str	r1, [r0, #16]
 443              		.loc 1 202 0
 444 0016 C660     		str	r6, [r0, #12]
 445              		.loc 1 204 0
 446 0018 0370     		strb	r3, [r0]
 447              	.LBE29:
 448              	.LBE31:
 449              		.loc 1 295 0
 450 001a C0F20005 		movt	r5, #:upper16:rlist
 451              	.LBB32:
 452              	.LBB30:
 453              		.loc 1 205 0
 454 001e FFF7FEFF 		bl	adc_lld_start_conversion
 455              	.LVL26:
 456              	.LBE30:
ARM GAS  /tmp/ccaDZiOV.s 			page 9


 457              	.LBE32:
 458              		.loc 1 295 0
 459 0022 AB69     		ldr	r3, [r5, #24]
 460              		.loc 1 296 0
 461 0024 0220     		movs	r0, #2
 462              		.loc 1 295 0
 463 0026 6361     		str	r3, [r4, #20]
 464              		.loc 1 296 0
 465 0028 FFF7FEFF 		bl	chSchGoSleepS
 466              	.LVL27:
 467              		.loc 1 297 0
 468 002c AA69     		ldr	r2, [r5, #24]
 469              	.LBB33:
 470              		.loc 1 298 0
 471 002e 0023     		movs	r3, #0
 472              	.LBE33:
 473              		.loc 1 297 0
 474 0030 506A     		ldr	r0, [r2, #36]
 475              	.LVL28:
 476              	.LBB34:
 477              		.loc 1 298 0
 478              	@ 298 "../ChibiOS_2.6.4/os/hal/src/adc.c" 1
 479 0032 83F31188 		msr     BASEPRI, r3
 480              	@ 0 "" 2
 481              		.thumb
 482              	.LBE34:
 483              		.loc 1 300 0
 484 0036 70BD     		pop	{r4, r5, r6, pc}
 485              		.cfi_endproc
 486              	.LFE71:
 487              		.size	adcConvert, .-adcConvert
 488              		.section	.text.adcAcquireBus,"ax",%progbits
 489              		.align	2
 490              		.global	adcAcquireBus
 491              		.thumb
 492              		.thumb_func
 493              		.type	adcAcquireBus, %function
 494              	adcAcquireBus:
 495              	.LFB72:
 496              		.loc 1 315 0
 497              		.cfi_startproc
 498              		@ args = 0, pretend = 0, frame = 0
 499              		@ frame_needed = 0, uses_anonymous_args = 0
 500              		@ link register save eliminated.
 501              	.LVL29:
 502              		.loc 1 320 0
 503 0000 1830     		adds	r0, r0, #24
 504              	.LVL30:
 505 0002 FFF7FEBF 		b	chMtxLock
 506              	.LVL31:
 507              		.cfi_endproc
 508              	.LFE72:
 509              		.size	adcAcquireBus, .-adcAcquireBus
 510 0006 00BF     		.section	.text.adcReleaseBus,"ax",%progbits
 511              		.align	2
 512              		.global	adcReleaseBus
 513              		.thumb
ARM GAS  /tmp/ccaDZiOV.s 			page 10


 514              		.thumb_func
 515              		.type	adcReleaseBus, %function
 516              	adcReleaseBus:
 517              	.LFB73:
 518              		.loc 1 335 0
 519              		.cfi_startproc
 520              		@ args = 0, pretend = 0, frame = 0
 521              		@ frame_needed = 0, uses_anonymous_args = 0
 522              		@ link register save eliminated.
 523              	.LVL32:
 524              		.loc 1 341 0
 525 0000 FFF7FEBF 		b	chMtxUnlock
 526              	.LVL33:
 527              		.cfi_endproc
 528              	.LFE73:
 529              		.size	adcReleaseBus, .-adcReleaseBus
 530              		.text
 531              	.Letext0:
 532              		.file 2 "/usr/lib/gcc/arm-none-eabi/4.8.2/include/stddef.h"
 533              		.file 3 "/usr/include/newlib/machine/_default_types.h"
 534              		.file 4 "/usr/include/newlib/stdint.h"
 535              		.file 5 "../ChibiOS_2.6.4/os/ports/GCC/ARMCMx/chtypes.h"
 536              		.file 6 "../ChibiOS_2.6.4/os/kernel/include/chlists.h"
 537              		.file 7 "../ChibiOS_2.6.4/os/kernel/include/chthreads.h"
 538              		.file 8 "../ChibiOS_2.6.4/os/ports/GCC/ARMCMx/chcore_v7m.h"
 539              		.file 9 "../ChibiOS_2.6.4/os/kernel/include/chschd.h"
 540              		.file 10 "../ChibiOS_2.6.4/os/kernel/include/chmtx.h"
 541              		.file 11 "../ChibiOS_2.6.4/os/hal/platforms/STM32L1xx/stm32l1xx.h"
 542              		.file 12 "../ChibiOS_2.6.4/os/hal/platforms/STM32L1xx/stm32_dma.h"
 543              		.file 13 "../ChibiOS_2.6.4/os/hal/include/adc.h"
 544              		.file 14 "../ChibiOS_2.6.4/os/hal/platforms/STM32L1xx/adc_lld.h"
 545              		.file 15 "../ChibiOS_2.6.4/os/ports/common/ARMCMx/CMSIS/include/core_cm3.h"
 546              		.section	.debug_info,"",%progbits
 547              	.Ldebug_info0:
 548 0000 310E0000 		.4byte	0xe31
 549 0004 0400     		.2byte	0x4
 550 0006 00000000 		.4byte	.Ldebug_abbrev0
 551 000a 04       		.byte	0x4
 552 000b 01       		.uleb128 0x1
 553 000c 9D020000 		.4byte	.LASF159
 554 0010 01       		.byte	0x1
 555 0011 FF010000 		.4byte	.LASF160
 556 0015 8F030000 		.4byte	.LASF161
 557 0019 98000000 		.4byte	.Ldebug_ranges0+0x98
 558 001d 00000000 		.4byte	0
 559 0021 00000000 		.4byte	.Ldebug_line0
 560 0025 02       		.uleb128 0x2
 561 0026 04       		.byte	0x4
 562 0027 05       		.byte	0x5
 563 0028 696E7400 		.ascii	"int\000"
 564 002c 03       		.uleb128 0x3
 565 002d 00000000 		.4byte	.LASF2
 566 0031 02       		.byte	0x2
 567 0032 D4       		.byte	0xd4
 568 0033 37000000 		.4byte	0x37
 569 0037 04       		.uleb128 0x4
 570 0038 04       		.byte	0x4
ARM GAS  /tmp/ccaDZiOV.s 			page 11


 571 0039 07       		.byte	0x7
 572 003a F2010000 		.4byte	.LASF0
 573 003e 04       		.uleb128 0x4
 574 003f 01       		.byte	0x1
 575 0040 06       		.byte	0x6
 576 0041 8C000000 		.4byte	.LASF1
 577 0045 03       		.uleb128 0x3
 578 0046 21000000 		.4byte	.LASF3
 579 004a 03       		.byte	0x3
 580 004b 1C       		.byte	0x1c
 581 004c 50000000 		.4byte	0x50
 582 0050 04       		.uleb128 0x4
 583 0051 01       		.byte	0x1
 584 0052 08       		.byte	0x8
 585 0053 98040000 		.4byte	.LASF4
 586 0057 04       		.uleb128 0x4
 587 0058 02       		.byte	0x2
 588 0059 05       		.byte	0x5
 589 005a 52030000 		.4byte	.LASF5
 590 005e 03       		.uleb128 0x3
 591 005f 79050000 		.4byte	.LASF6
 592 0063 03       		.byte	0x3
 593 0064 26       		.byte	0x26
 594 0065 69000000 		.4byte	0x69
 595 0069 04       		.uleb128 0x4
 596 006a 02       		.byte	0x2
 597 006b 07       		.byte	0x7
 598 006c 69020000 		.4byte	.LASF7
 599 0070 03       		.uleb128 0x3
 600 0071 9D050000 		.4byte	.LASF8
 601 0075 03       		.byte	0x3
 602 0076 37       		.byte	0x37
 603 0077 7B000000 		.4byte	0x7b
 604 007b 04       		.uleb128 0x4
 605 007c 04       		.byte	0x4
 606 007d 05       		.byte	0x5
 607 007e DA000000 		.4byte	.LASF9
 608 0082 03       		.uleb128 0x3
 609 0083 A7050000 		.4byte	.LASF10
 610 0087 03       		.byte	0x3
 611 0088 38       		.byte	0x38
 612 0089 8D000000 		.4byte	0x8d
 613 008d 04       		.uleb128 0x4
 614 008e 04       		.byte	0x4
 615 008f 07       		.byte	0x7
 616 0090 5B050000 		.4byte	.LASF11
 617 0094 04       		.uleb128 0x4
 618 0095 08       		.byte	0x8
 619 0096 05       		.byte	0x5
 620 0097 32010000 		.4byte	.LASF12
 621 009b 04       		.uleb128 0x4
 622 009c 08       		.byte	0x8
 623 009d 07       		.byte	0x7
 624 009e 40000000 		.4byte	.LASF13
 625 00a2 03       		.uleb128 0x3
 626 00a3 2B060000 		.4byte	.LASF14
 627 00a7 04       		.byte	0x4
ARM GAS  /tmp/ccaDZiOV.s 			page 12


 628 00a8 2A       		.byte	0x2a
 629 00a9 45000000 		.4byte	0x45
 630 00ad 03       		.uleb128 0x3
 631 00ae 40010000 		.4byte	.LASF15
 632 00b2 04       		.byte	0x4
 633 00b3 36       		.byte	0x36
 634 00b4 5E000000 		.4byte	0x5e
 635 00b8 03       		.uleb128 0x3
 636 00b9 90040000 		.4byte	.LASF16
 637 00bd 04       		.byte	0x4
 638 00be 41       		.byte	0x41
 639 00bf 70000000 		.4byte	0x70
 640 00c3 03       		.uleb128 0x3
 641 00c4 32050000 		.4byte	.LASF17
 642 00c8 04       		.byte	0x4
 643 00c9 42       		.byte	0x42
 644 00ca 82000000 		.4byte	0x82
 645 00ce 03       		.uleb128 0x3
 646 00cf A0000000 		.4byte	.LASF18
 647 00d3 05       		.byte	0x5
 648 00d4 2B       		.byte	0x2b
 649 00d5 D9000000 		.4byte	0xd9
 650 00d9 04       		.uleb128 0x4
 651 00da 01       		.byte	0x1
 652 00db 02       		.byte	0x2
 653 00dc 8A040000 		.4byte	.LASF19
 654 00e0 03       		.uleb128 0x3
 655 00e1 25030000 		.4byte	.LASF20
 656 00e5 05       		.byte	0x5
 657 00e6 2C       		.byte	0x2c
 658 00e7 A2000000 		.4byte	0xa2
 659 00eb 03       		.uleb128 0x3
 660 00ec 22010000 		.4byte	.LASF21
 661 00f0 05       		.byte	0x5
 662 00f1 2D       		.byte	0x2d
 663 00f2 A2000000 		.4byte	0xa2
 664 00f6 03       		.uleb128 0x3
 665 00f7 5A040000 		.4byte	.LASF22
 666 00fb 05       		.byte	0x5
 667 00fc 2E       		.byte	0x2e
 668 00fd A2000000 		.4byte	0xa2
 669 0101 03       		.uleb128 0x3
 670 0102 E8010000 		.4byte	.LASF23
 671 0106 05       		.byte	0x5
 672 0107 2F       		.byte	0x2f
 673 0108 A2000000 		.4byte	0xa2
 674 010c 03       		.uleb128 0x3
 675 010d 7C040000 		.4byte	.LASF24
 676 0111 05       		.byte	0x5
 677 0112 30       		.byte	0x30
 678 0113 C3000000 		.4byte	0xc3
 679 0117 03       		.uleb128 0x3
 680 0118 8C020000 		.4byte	.LASF25
 681 011c 05       		.byte	0x5
 682 011d 31       		.byte	0x31
 683 011e B8000000 		.4byte	0xb8
 684 0122 03       		.uleb128 0x3
ARM GAS  /tmp/ccaDZiOV.s 			page 13


 685 0123 46030000 		.4byte	.LASF26
 686 0127 05       		.byte	0x5
 687 0128 33       		.byte	0x33
 688 0129 C3000000 		.4byte	0xc3
 689 012d 03       		.uleb128 0x3
 690 012e B7010000 		.4byte	.LASF27
 691 0132 05       		.byte	0x5
 692 0133 35       		.byte	0x35
 693 0134 C3000000 		.4byte	0xc3
 694 0138 03       		.uleb128 0x3
 695 0139 B0010000 		.4byte	.LASF28
 696 013d 06       		.byte	0x6
 697 013e 2A       		.byte	0x2a
 698 013f 43010000 		.4byte	0x143
 699 0143 05       		.uleb128 0x5
 700 0144 B0010000 		.4byte	.LASF28
 701 0148 48       		.byte	0x48
 702 0149 07       		.byte	0x7
 703 014a 5E       		.byte	0x5e
 704 014b 40020000 		.4byte	0x240
 705 014f 06       		.uleb128 0x6
 706 0150 F1040000 		.4byte	.LASF29
 707 0154 07       		.byte	0x7
 708 0155 5F       		.byte	0x5f
 709 0156 61020000 		.4byte	0x261
 710 015a 00       		.byte	0
 711 015b 06       		.uleb128 0x6
 712 015c 62040000 		.4byte	.LASF30
 713 0160 07       		.byte	0x7
 714 0161 61       		.byte	0x61
 715 0162 61020000 		.4byte	0x261
 716 0166 04       		.byte	0x4
 717 0167 06       		.uleb128 0x6
 718 0168 74000000 		.4byte	.LASF31
 719 016c 07       		.byte	0x7
 720 016d 63       		.byte	0x63
 721 016e 0C010000 		.4byte	0x10c
 722 0172 08       		.byte	0x8
 723 0173 06       		.uleb128 0x6
 724 0174 D4060000 		.4byte	.LASF32
 725 0178 07       		.byte	0x7
 726 0179 64       		.byte	0x64
 727 017a 1B030000 		.4byte	0x31b
 728 017e 0C       		.byte	0xc
 729 017f 06       		.uleb128 0x6
 730 0180 5C010000 		.4byte	.LASF33
 731 0184 07       		.byte	0x7
 732 0185 66       		.byte	0x66
 733 0186 61020000 		.4byte	0x261
 734 018a 10       		.byte	0x10
 735 018b 06       		.uleb128 0x6
 736 018c E1030000 		.4byte	.LASF34
 737 0190 07       		.byte	0x7
 738 0191 67       		.byte	0x67
 739 0192 61020000 		.4byte	0x261
 740 0196 14       		.byte	0x14
 741 0197 06       		.uleb128 0x6
ARM GAS  /tmp/ccaDZiOV.s 			page 14


 742 0198 81060000 		.4byte	.LASF35
 743 019c 07       		.byte	0x7
 744 019d 6E       		.byte	0x6e
 745 019e 20040000 		.4byte	0x420
 746 01a2 18       		.byte	0x18
 747 01a3 06       		.uleb128 0x6
 748 01a4 C8040000 		.4byte	.LASF36
 749 01a8 07       		.byte	0x7
 750 01a9 79       		.byte	0x79
 751 01aa EB000000 		.4byte	0xeb
 752 01ae 1C       		.byte	0x1c
 753 01af 06       		.uleb128 0x6
 754 01b0 F8040000 		.4byte	.LASF37
 755 01b4 07       		.byte	0x7
 756 01b5 7D       		.byte	0x7d
 757 01b6 E0000000 		.4byte	0xe0
 758 01ba 1D       		.byte	0x1d
 759 01bb 06       		.uleb128 0x6
 760 01bc 02060000 		.4byte	.LASF38
 761 01c0 07       		.byte	0x7
 762 01c1 82       		.byte	0x82
 763 01c2 F6000000 		.4byte	0xf6
 764 01c6 1E       		.byte	0x1e
 765 01c7 06       		.uleb128 0x6
 766 01c8 D0040000 		.4byte	.LASF39
 767 01cc 07       		.byte	0x7
 768 01cd 88       		.byte	0x88
 769 01ce 01010000 		.4byte	0x101
 770 01d2 1F       		.byte	0x1f
 771 01d3 06       		.uleb128 0x6
 772 01d4 49010000 		.4byte	.LASF40
 773 01d8 07       		.byte	0x7
 774 01d9 8F       		.byte	0x8f
 775 01da 48030000 		.4byte	0x348
 776 01de 20       		.byte	0x20
 777 01df 07       		.uleb128 0x7
 778 01e0 705F7500 		.ascii	"p_u\000"
 779 01e4 07       		.byte	0x7
 780 01e5 B4       		.byte	0xb4
 781 01e6 EB030000 		.4byte	0x3eb
 782 01ea 24       		.byte	0x24
 783 01eb 06       		.uleb128 0x6
 784 01ec DA060000 		.4byte	.LASF41
 785 01f0 07       		.byte	0x7
 786 01f1 B9       		.byte	0xb9
 787 01f2 87020000 		.4byte	0x287
 788 01f6 28       		.byte	0x28
 789 01f7 06       		.uleb128 0x6
 790 01f8 34020000 		.4byte	.LASF42
 791 01fc 07       		.byte	0x7
 792 01fd BF       		.byte	0xbf
 793 01fe 67020000 		.4byte	0x267
 794 0202 2C       		.byte	0x2c
 795 0203 06       		.uleb128 0x6
 796 0204 9B060000 		.4byte	.LASF43
 797 0208 07       		.byte	0x7
 798 0209 C3       		.byte	0xc3
ARM GAS  /tmp/ccaDZiOV.s 			page 15


 799 020a 17010000 		.4byte	0x117
 800 020e 34       		.byte	0x34
 801 020f 06       		.uleb128 0x6
 802 0210 22050000 		.4byte	.LASF44
 803 0214 07       		.byte	0x7
 804 0215 C9       		.byte	0xc9
 805 0216 22010000 		.4byte	0x122
 806 021a 38       		.byte	0x38
 807 021b 06       		.uleb128 0x6
 808 021c A6040000 		.4byte	.LASF45
 809 0220 07       		.byte	0x7
 810 0221 D0       		.byte	0xd0
 811 0222 32040000 		.4byte	0x432
 812 0226 3C       		.byte	0x3c
 813 0227 06       		.uleb128 0x6
 814 0228 92020000 		.4byte	.LASF46
 815 022c 07       		.byte	0x7
 816 022d D4       		.byte	0xd4
 817 022e 0C010000 		.4byte	0x10c
 818 0232 40       		.byte	0x40
 819 0233 06       		.uleb128 0x6
 820 0234 98000000 		.4byte	.LASF47
 821 0238 07       		.byte	0x7
 822 0239 DA       		.byte	0xda
 823 023a 9D020000 		.4byte	0x29d
 824 023e 44       		.byte	0x44
 825 023f 00       		.byte	0
 826 0240 08       		.uleb128 0x8
 827 0241 08       		.byte	0x8
 828 0242 06       		.byte	0x6
 829 0243 61       		.byte	0x61
 830 0244 61020000 		.4byte	0x261
 831 0248 06       		.uleb128 0x6
 832 0249 F1040000 		.4byte	.LASF29
 833 024d 06       		.byte	0x6
 834 024e 62       		.byte	0x62
 835 024f 61020000 		.4byte	0x261
 836 0253 00       		.byte	0
 837 0254 06       		.uleb128 0x6
 838 0255 62040000 		.4byte	.LASF30
 839 0259 06       		.byte	0x6
 840 025a 64       		.byte	0x64
 841 025b 61020000 		.4byte	0x261
 842 025f 04       		.byte	0x4
 843 0260 00       		.byte	0
 844 0261 09       		.uleb128 0x9
 845 0262 04       		.byte	0x4
 846 0263 38010000 		.4byte	0x138
 847 0267 03       		.uleb128 0x3
 848 0268 EF030000 		.4byte	.LASF48
 849 026c 06       		.byte	0x6
 850 026d 66       		.byte	0x66
 851 026e 40020000 		.4byte	0x240
 852 0272 08       		.uleb128 0x8
 853 0273 04       		.byte	0x4
 854 0274 06       		.byte	0x6
 855 0275 6B       		.byte	0x6b
ARM GAS  /tmp/ccaDZiOV.s 			page 16


 856 0276 87020000 		.4byte	0x287
 857 027a 06       		.uleb128 0x6
 858 027b F1040000 		.4byte	.LASF29
 859 027f 06       		.byte	0x6
 860 0280 6D       		.byte	0x6d
 861 0281 61020000 		.4byte	0x261
 862 0285 00       		.byte	0
 863 0286 00       		.byte	0
 864 0287 03       		.uleb128 0x3
 865 0288 3A030000 		.4byte	.LASF49
 866 028c 06       		.byte	0x6
 867 028d 70       		.byte	0x70
 868 028e 72020000 		.4byte	0x272
 869 0292 03       		.uleb128 0x3
 870 0293 97010000 		.4byte	.LASF50
 871 0297 08       		.byte	0x8
 872 0298 E5       		.byte	0xe5
 873 0299 9D020000 		.4byte	0x29d
 874 029d 0A       		.uleb128 0xa
 875 029e 04       		.byte	0x4
 876 029f 0B       		.uleb128 0xb
 877 02a0 CD050000 		.4byte	.LASF51
 878 02a4 24       		.byte	0x24
 879 02a5 08       		.byte	0x8
 880 02a6 0C01     		.2byte	0x10c
 881 02a8 1B030000 		.4byte	0x31b
 882 02ac 0C       		.uleb128 0xc
 883 02ad 723400   		.ascii	"r4\000"
 884 02b0 08       		.byte	0x8
 885 02b1 1F01     		.2byte	0x11f
 886 02b3 92020000 		.4byte	0x292
 887 02b7 00       		.byte	0
 888 02b8 0C       		.uleb128 0xc
 889 02b9 723500   		.ascii	"r5\000"
 890 02bc 08       		.byte	0x8
 891 02bd 2001     		.2byte	0x120
 892 02bf 92020000 		.4byte	0x292
 893 02c3 04       		.byte	0x4
 894 02c4 0C       		.uleb128 0xc
 895 02c5 723600   		.ascii	"r6\000"
 896 02c8 08       		.byte	0x8
 897 02c9 2101     		.2byte	0x121
 898 02cb 92020000 		.4byte	0x292
 899 02cf 08       		.byte	0x8
 900 02d0 0C       		.uleb128 0xc
 901 02d1 723700   		.ascii	"r7\000"
 902 02d4 08       		.byte	0x8
 903 02d5 2201     		.2byte	0x122
 904 02d7 92020000 		.4byte	0x292
 905 02db 0C       		.byte	0xc
 906 02dc 0C       		.uleb128 0xc
 907 02dd 723800   		.ascii	"r8\000"
 908 02e0 08       		.byte	0x8
 909 02e1 2301     		.2byte	0x123
 910 02e3 92020000 		.4byte	0x292
 911 02e7 10       		.byte	0x10
 912 02e8 0C       		.uleb128 0xc
ARM GAS  /tmp/ccaDZiOV.s 			page 17


 913 02e9 723900   		.ascii	"r9\000"
 914 02ec 08       		.byte	0x8
 915 02ed 2401     		.2byte	0x124
 916 02ef 92020000 		.4byte	0x292
 917 02f3 14       		.byte	0x14
 918 02f4 0C       		.uleb128 0xc
 919 02f5 72313000 		.ascii	"r10\000"
 920 02f9 08       		.byte	0x8
 921 02fa 2501     		.2byte	0x125
 922 02fc 92020000 		.4byte	0x292
 923 0300 18       		.byte	0x18
 924 0301 0C       		.uleb128 0xc
 925 0302 72313100 		.ascii	"r11\000"
 926 0306 08       		.byte	0x8
 927 0307 2601     		.2byte	0x126
 928 0309 92020000 		.4byte	0x292
 929 030d 1C       		.byte	0x1c
 930 030e 0C       		.uleb128 0xc
 931 030f 6C7200   		.ascii	"lr\000"
 932 0312 08       		.byte	0x8
 933 0313 2701     		.2byte	0x127
 934 0315 92020000 		.4byte	0x292
 935 0319 20       		.byte	0x20
 936 031a 00       		.byte	0
 937 031b 0B       		.uleb128 0xb
 938 031c B2050000 		.4byte	.LASF52
 939 0320 04       		.byte	0x4
 940 0321 08       		.byte	0x8
 941 0322 3101     		.2byte	0x131
 942 0324 36030000 		.4byte	0x336
 943 0328 0C       		.uleb128 0xc
 944 0329 72313300 		.ascii	"r13\000"
 945 032d 08       		.byte	0x8
 946 032e 3201     		.2byte	0x132
 947 0330 36030000 		.4byte	0x336
 948 0334 00       		.byte	0
 949 0335 00       		.byte	0
 950 0336 09       		.uleb128 0x9
 951 0337 04       		.byte	0x4
 952 0338 9F020000 		.4byte	0x29f
 953 033c 0D       		.uleb128 0xd
 954 033d C3000000 		.4byte	0xc3
 955 0341 04       		.uleb128 0x4
 956 0342 04       		.byte	0x4
 957 0343 07       		.byte	0x7
 958 0344 B7030000 		.4byte	.LASF53
 959 0348 0D       		.uleb128 0xd
 960 0349 2D010000 		.4byte	0x12d
 961 034d 08       		.uleb128 0x8
 962 034e 1C       		.byte	0x1c
 963 034f 09       		.byte	0x9
 964 0350 5E       		.byte	0x5e
 965 0351 9E030000 		.4byte	0x39e
 966 0355 06       		.uleb128 0x6
 967 0356 C6030000 		.4byte	.LASF54
 968 035a 09       		.byte	0x9
 969 035b 5F       		.byte	0x5f
ARM GAS  /tmp/ccaDZiOV.s 			page 18


 970 035c 67020000 		.4byte	0x267
 971 0360 00       		.byte	0
 972 0361 06       		.uleb128 0x6
 973 0362 E3040000 		.4byte	.LASF55
 974 0366 09       		.byte	0x9
 975 0367 60       		.byte	0x60
 976 0368 0C010000 		.4byte	0x10c
 977 036c 08       		.byte	0x8
 978 036d 06       		.uleb128 0x6
 979 036e E9030000 		.4byte	.LASF56
 980 0372 09       		.byte	0x9
 981 0373 62       		.byte	0x62
 982 0374 1B030000 		.4byte	0x31b
 983 0378 0C       		.byte	0xc
 984 0379 06       		.uleb128 0x6
 985 037a 85010000 		.4byte	.LASF57
 986 037e 09       		.byte	0x9
 987 037f 65       		.byte	0x65
 988 0380 61020000 		.4byte	0x261
 989 0384 10       		.byte	0x10
 990 0385 06       		.uleb128 0x6
 991 0386 25040000 		.4byte	.LASF58
 992 038a 09       		.byte	0x9
 993 038b 66       		.byte	0x66
 994 038c 61020000 		.4byte	0x261
 995 0390 14       		.byte	0x14
 996 0391 06       		.uleb128 0x6
 997 0392 1B040000 		.4byte	.LASF59
 998 0396 09       		.byte	0x9
 999 0397 69       		.byte	0x69
 1000 0398 61020000 		.4byte	0x261
 1001 039c 18       		.byte	0x18
 1002 039d 00       		.byte	0
 1003 039e 03       		.uleb128 0x3
 1004 039f 09060000 		.4byte	.LASF60
 1005 03a3 09       		.byte	0x9
 1006 03a4 6B       		.byte	0x6b
 1007 03a5 4D030000 		.4byte	0x34d
 1008 03a9 05       		.uleb128 0x5
 1009 03aa C0030000 		.4byte	.LASF61
 1010 03ae 10       		.byte	0x10
 1011 03af 0A       		.byte	0xa
 1012 03b0 2C       		.byte	0x2c
 1013 03b1 DA030000 		.4byte	0x3da
 1014 03b5 06       		.uleb128 0x6
 1015 03b6 A7000000 		.4byte	.LASF62
 1016 03ba 0A       		.byte	0xa
 1017 03bb 2D       		.byte	0x2d
 1018 03bc 67020000 		.4byte	0x267
 1019 03c0 00       		.byte	0
 1020 03c1 06       		.uleb128 0x6
 1021 03c2 BE060000 		.4byte	.LASF63
 1022 03c6 0A       		.byte	0xa
 1023 03c7 2F       		.byte	0x2f
 1024 03c8 61020000 		.4byte	0x261
 1025 03cc 08       		.byte	0x8
 1026 03cd 06       		.uleb128 0x6
ARM GAS  /tmp/ccaDZiOV.s 			page 19


 1027 03ce 14040000 		.4byte	.LASF64
 1028 03d2 0A       		.byte	0xa
 1029 03d3 31       		.byte	0x31
 1030 03d4 DA030000 		.4byte	0x3da
 1031 03d8 0C       		.byte	0xc
 1032 03d9 00       		.byte	0
 1033 03da 09       		.uleb128 0x9
 1034 03db 04       		.byte	0x4
 1035 03dc A9030000 		.4byte	0x3a9
 1036 03e0 03       		.uleb128 0x3
 1037 03e1 C0030000 		.4byte	.LASF61
 1038 03e5 0A       		.byte	0xa
 1039 03e6 33       		.byte	0x33
 1040 03e7 A9030000 		.4byte	0x3a9
 1041 03eb 0E       		.uleb128 0xe
 1042 03ec 04       		.byte	0x4
 1043 03ed 07       		.byte	0x7
 1044 03ee 96       		.byte	0x96
 1045 03ef 20040000 		.4byte	0x420
 1046 03f3 0F       		.uleb128 0xf
 1047 03f4 07000000 		.4byte	.LASF65
 1048 03f8 07       		.byte	0x7
 1049 03f9 9D       		.byte	0x9d
 1050 03fa 17010000 		.4byte	0x117
 1051 03fe 0F       		.uleb128 0xf
 1052 03ff 57000000 		.4byte	.LASF66
 1053 0403 07       		.byte	0x7
 1054 0404 A4       		.byte	0xa4
 1055 0405 17010000 		.4byte	0x117
 1056 0409 0F       		.uleb128 0xf
 1057 040a 6D060000 		.4byte	.LASF67
 1058 040e 07       		.byte	0x7
 1059 040f AB       		.byte	0xab
 1060 0410 9D020000 		.4byte	0x29d
 1061 0414 0F       		.uleb128 0xf
 1062 0415 EA040000 		.4byte	.LASF68
 1063 0419 07       		.byte	0x7
 1064 041a B2       		.byte	0xb2
 1065 041b 22010000 		.4byte	0x122
 1066 041f 00       		.byte	0
 1067 0420 09       		.uleb128 0x9
 1068 0421 04       		.byte	0x4
 1069 0422 26040000 		.4byte	0x426
 1070 0426 10       		.uleb128 0x10
 1071 0427 2B040000 		.4byte	0x42b
 1072 042b 04       		.uleb128 0x4
 1073 042c 01       		.byte	0x1
 1074 042d 08       		.byte	0x8
 1075 042e 6D050000 		.4byte	.LASF69
 1076 0432 09       		.uleb128 0x9
 1077 0433 04       		.byte	0x4
 1078 0434 E0030000 		.4byte	0x3e0
 1079 0438 11       		.uleb128 0x11
 1080 0439 60       		.byte	0x60
 1081 043a 0B       		.byte	0xb
 1082 043b 4F01     		.2byte	0x14f
 1083 043d 78050000 		.4byte	0x578
ARM GAS  /tmp/ccaDZiOV.s 			page 20


 1084 0441 0C       		.uleb128 0xc
 1085 0442 535200   		.ascii	"SR\000"
 1086 0445 0B       		.byte	0xb
 1087 0446 5101     		.2byte	0x151
 1088 0448 3C030000 		.4byte	0x33c
 1089 044c 00       		.byte	0
 1090 044d 0C       		.uleb128 0xc
 1091 044e 43523100 		.ascii	"CR1\000"
 1092 0452 0B       		.byte	0xb
 1093 0453 5201     		.2byte	0x152
 1094 0455 3C030000 		.4byte	0x33c
 1095 0459 04       		.byte	0x4
 1096 045a 0C       		.uleb128 0xc
 1097 045b 43523200 		.ascii	"CR2\000"
 1098 045f 0B       		.byte	0xb
 1099 0460 5301     		.2byte	0x153
 1100 0462 3C030000 		.4byte	0x33c
 1101 0466 08       		.byte	0x8
 1102 0467 12       		.uleb128 0x12
 1103 0468 02040000 		.4byte	.LASF70
 1104 046c 0B       		.byte	0xb
 1105 046d 5401     		.2byte	0x154
 1106 046f 3C030000 		.4byte	0x33c
 1107 0473 0C       		.byte	0xc
 1108 0474 12       		.uleb128 0x12
 1109 0475 08040000 		.4byte	.LASF71
 1110 0479 0B       		.byte	0xb
 1111 047a 5501     		.2byte	0x155
 1112 047c 3C030000 		.4byte	0x33c
 1113 0480 10       		.byte	0x10
 1114 0481 12       		.uleb128 0x12
 1115 0482 0E040000 		.4byte	.LASF72
 1116 0486 0B       		.byte	0xb
 1117 0487 5601     		.2byte	0x156
 1118 0489 3C030000 		.4byte	0x33c
 1119 048d 14       		.byte	0x14
 1120 048e 12       		.uleb128 0x12
 1121 048f 6E030000 		.4byte	.LASF73
 1122 0493 0B       		.byte	0xb
 1123 0494 5701     		.2byte	0x157
 1124 0496 3C030000 		.4byte	0x33c
 1125 049a 18       		.byte	0x18
 1126 049b 12       		.uleb128 0x12
 1127 049c 74030000 		.4byte	.LASF74
 1128 04a0 0B       		.byte	0xb
 1129 04a1 5801     		.2byte	0x158
 1130 04a3 3C030000 		.4byte	0x33c
 1131 04a7 1C       		.byte	0x1c
 1132 04a8 12       		.uleb128 0x12
 1133 04a9 00050000 		.4byte	.LASF75
 1134 04ad 0B       		.byte	0xb
 1135 04ae 5901     		.2byte	0x159
 1136 04b0 3C030000 		.4byte	0x33c
 1137 04b4 20       		.byte	0x20
 1138 04b5 12       		.uleb128 0x12
 1139 04b6 06050000 		.4byte	.LASF76
 1140 04ba 0B       		.byte	0xb
ARM GAS  /tmp/ccaDZiOV.s 			page 21


 1141 04bb 5A01     		.2byte	0x15a
 1142 04bd 3C030000 		.4byte	0x33c
 1143 04c1 24       		.byte	0x24
 1144 04c2 0C       		.uleb128 0xc
 1145 04c3 48545200 		.ascii	"HTR\000"
 1146 04c7 0B       		.byte	0xb
 1147 04c8 5B01     		.2byte	0x15b
 1148 04ca 3C030000 		.4byte	0x33c
 1149 04ce 28       		.byte	0x28
 1150 04cf 0C       		.uleb128 0xc
 1151 04d0 4C545200 		.ascii	"LTR\000"
 1152 04d4 0B       		.byte	0xb
 1153 04d5 5C01     		.2byte	0x15c
 1154 04d7 3C030000 		.4byte	0x33c
 1155 04db 2C       		.byte	0x2c
 1156 04dc 12       		.uleb128 0x12
 1157 04dd 2D040000 		.4byte	.LASF77
 1158 04e1 0B       		.byte	0xb
 1159 04e2 5D01     		.2byte	0x15d
 1160 04e4 3C030000 		.4byte	0x33c
 1161 04e8 30       		.byte	0x30
 1162 04e9 12       		.uleb128 0x12
 1163 04ea 32040000 		.4byte	.LASF78
 1164 04ee 0B       		.byte	0xb
 1165 04ef 5E01     		.2byte	0x15e
 1166 04f1 3C030000 		.4byte	0x33c
 1167 04f5 34       		.byte	0x34
 1168 04f6 12       		.uleb128 0x12
 1169 04f7 37040000 		.4byte	.LASF79
 1170 04fb 0B       		.byte	0xb
 1171 04fc 5F01     		.2byte	0x15f
 1172 04fe 3C030000 		.4byte	0x33c
 1173 0502 38       		.byte	0x38
 1174 0503 12       		.uleb128 0x12
 1175 0504 3C040000 		.4byte	.LASF80
 1176 0508 0B       		.byte	0xb
 1177 0509 6001     		.2byte	0x160
 1178 050b 3C030000 		.4byte	0x33c
 1179 050f 3C       		.byte	0x3c
 1180 0510 12       		.uleb128 0x12
 1181 0511 41040000 		.4byte	.LASF81
 1182 0515 0B       		.byte	0xb
 1183 0516 6101     		.2byte	0x161
 1184 0518 3C030000 		.4byte	0x33c
 1185 051c 40       		.byte	0x40
 1186 051d 12       		.uleb128 0x12
 1187 051e 7B000000 		.4byte	.LASF82
 1188 0522 0B       		.byte	0xb
 1189 0523 6201     		.2byte	0x162
 1190 0525 3C030000 		.4byte	0x33c
 1191 0529 44       		.byte	0x44
 1192 052a 12       		.uleb128 0x12
 1193 052b 59060000 		.4byte	.LASF83
 1194 052f 0B       		.byte	0xb
 1195 0530 6301     		.2byte	0x163
 1196 0532 3C030000 		.4byte	0x33c
 1197 0536 48       		.byte	0x48
ARM GAS  /tmp/ccaDZiOV.s 			page 22


 1198 0537 12       		.uleb128 0x12
 1199 0538 5E060000 		.4byte	.LASF84
 1200 053c 0B       		.byte	0xb
 1201 053d 6401     		.2byte	0x164
 1202 053f 3C030000 		.4byte	0x33c
 1203 0543 4C       		.byte	0x4c
 1204 0544 12       		.uleb128 0x12
 1205 0545 63060000 		.4byte	.LASF85
 1206 0549 0B       		.byte	0xb
 1207 054a 6501     		.2byte	0x165
 1208 054c 3C030000 		.4byte	0x33c
 1209 0550 50       		.byte	0x50
 1210 0551 12       		.uleb128 0x12
 1211 0552 68060000 		.4byte	.LASF86
 1212 0556 0B       		.byte	0xb
 1213 0557 6601     		.2byte	0x166
 1214 0559 3C030000 		.4byte	0x33c
 1215 055d 54       		.byte	0x54
 1216 055e 0C       		.uleb128 0xc
 1217 055f 445200   		.ascii	"DR\000"
 1218 0562 0B       		.byte	0xb
 1219 0563 6701     		.2byte	0x167
 1220 0565 3C030000 		.4byte	0x33c
 1221 0569 58       		.byte	0x58
 1222 056a 12       		.uleb128 0x12
 1223 056b FC030000 		.4byte	.LASF87
 1224 056f 0B       		.byte	0xb
 1225 0570 6801     		.2byte	0x168
 1226 0572 3C030000 		.4byte	0x33c
 1227 0576 5C       		.byte	0x5c
 1228 0577 00       		.byte	0
 1229 0578 13       		.uleb128 0x13
 1230 0579 50010000 		.4byte	.LASF88
 1231 057d 0B       		.byte	0xb
 1232 057e 6901     		.2byte	0x169
 1233 0580 38040000 		.4byte	0x438
 1234 0584 11       		.uleb128 0x11
 1235 0585 10       		.byte	0x10
 1236 0586 0B       		.byte	0xb
 1237 0587 C201     		.2byte	0x1c2
 1238 0589 C2050000 		.4byte	0x5c2
 1239 058d 0C       		.uleb128 0xc
 1240 058e 43435200 		.ascii	"CCR\000"
 1241 0592 0B       		.byte	0xb
 1242 0593 C401     		.2byte	0x1c4
 1243 0595 3C030000 		.4byte	0x33c
 1244 0599 00       		.byte	0
 1245 059a 12       		.uleb128 0x12
 1246 059b 13060000 		.4byte	.LASF89
 1247 059f 0B       		.byte	0xb
 1248 05a0 C501     		.2byte	0x1c5
 1249 05a2 3C030000 		.4byte	0x33c
 1250 05a6 04       		.byte	0x4
 1251 05a7 12       		.uleb128 0x12
 1252 05a8 2F020000 		.4byte	.LASF90
 1253 05ac 0B       		.byte	0xb
 1254 05ad C601     		.2byte	0x1c6
ARM GAS  /tmp/ccaDZiOV.s 			page 23


 1255 05af 3C030000 		.4byte	0x33c
 1256 05b3 08       		.byte	0x8
 1257 05b4 12       		.uleb128 0x12
 1258 05b5 64030000 		.4byte	.LASF91
 1259 05b9 0B       		.byte	0xb
 1260 05ba C701     		.2byte	0x1c7
 1261 05bc 3C030000 		.4byte	0x33c
 1262 05c0 0C       		.byte	0xc
 1263 05c1 00       		.byte	0
 1264 05c2 13       		.uleb128 0x13
 1265 05c3 4E020000 		.4byte	.LASF92
 1266 05c7 0B       		.byte	0xb
 1267 05c8 C801     		.2byte	0x1c8
 1268 05ca 84050000 		.4byte	0x584
 1269 05ce 08       		.uleb128 0x8
 1270 05cf 0C       		.byte	0xc
 1271 05d0 0C       		.byte	0xc
 1272 05d1 B8       		.byte	0xb8
 1273 05d2 13060000 		.4byte	0x613
 1274 05d6 06       		.uleb128 0x6
 1275 05d7 0C050000 		.4byte	.LASF93
 1276 05db 0C       		.byte	0xc
 1277 05dc B9       		.byte	0xb9
 1278 05dd 13060000 		.4byte	0x613
 1279 05e1 00       		.byte	0
 1280 05e2 06       		.uleb128 0x6
 1281 05e3 2D050000 		.4byte	.LASF94
 1282 05e7 0C       		.byte	0xc
 1283 05e8 BA       		.byte	0xba
 1284 05e9 19060000 		.4byte	0x619
 1285 05ed 04       		.byte	0x4
 1286 05ee 06       		.uleb128 0x6
 1287 05ef 62020000 		.4byte	.LASF95
 1288 05f3 0C       		.byte	0xc
 1289 05f4 BB       		.byte	0xbb
 1290 05f5 A2000000 		.4byte	0xa2
 1291 05f9 08       		.byte	0x8
 1292 05fa 06       		.uleb128 0x6
 1293 05fb A0010000 		.4byte	.LASF96
 1294 05ff 0C       		.byte	0xc
 1295 0600 BD       		.byte	0xbd
 1296 0601 A2000000 		.4byte	0xa2
 1297 0605 09       		.byte	0x9
 1298 0606 06       		.uleb128 0x6
 1299 0607 60000000 		.4byte	.LASF97
 1300 060b 0C       		.byte	0xc
 1301 060c BE       		.byte	0xbe
 1302 060d A2000000 		.4byte	0xa2
 1303 0611 0A       		.byte	0xa
 1304 0612 00       		.byte	0
 1305 0613 09       		.uleb128 0x9
 1306 0614 04       		.byte	0x4
 1307 0615 C2050000 		.4byte	0x5c2
 1308 0619 09       		.uleb128 0x9
 1309 061a 04       		.byte	0x4
 1310 061b 3C030000 		.4byte	0x33c
 1311 061f 03       		.uleb128 0x3
ARM GAS  /tmp/ccaDZiOV.s 			page 24


 1312 0620 69040000 		.4byte	.LASF98
 1313 0624 0C       		.byte	0xc
 1314 0625 BF       		.byte	0xbf
 1315 0626 CE050000 		.4byte	0x5ce
 1316 062a 14       		.uleb128 0x14
 1317 062b 01       		.byte	0x1
 1318 062c 0D       		.byte	0xd
 1319 062d 55       		.byte	0x55
 1320 062e 57060000 		.4byte	0x657
 1321 0632 15       		.uleb128 0x15
 1322 0633 C1010000 		.4byte	.LASF99
 1323 0637 00       		.sleb128 0
 1324 0638 15       		.uleb128 0x15
 1325 0639 CE030000 		.4byte	.LASF100
 1326 063d 01       		.sleb128 1
 1327 063e 15       		.uleb128 0x15
 1328 063f 7C020000 		.4byte	.LASF101
 1329 0643 02       		.sleb128 2
 1330 0644 15       		.uleb128 0x15
 1331 0645 DD010000 		.4byte	.LASF102
 1332 0649 03       		.sleb128 3
 1333 064a 15       		.uleb128 0x15
 1334 064b 74060000 		.4byte	.LASF103
 1335 064f 04       		.sleb128 4
 1336 0650 15       		.uleb128 0x15
 1337 0651 C1000000 		.4byte	.LASF104
 1338 0655 05       		.sleb128 5
 1339 0656 00       		.byte	0
 1340 0657 03       		.uleb128 0x3
 1341 0658 16000000 		.4byte	.LASF105
 1342 065c 0D       		.byte	0xd
 1343 065d 5C       		.byte	0x5c
 1344 065e 2A060000 		.4byte	0x62a
 1345 0662 03       		.uleb128 0x3
 1346 0663 79010000 		.4byte	.LASF106
 1347 0667 0E       		.byte	0xe
 1348 0668 B9       		.byte	0xb9
 1349 0669 AD000000 		.4byte	0xad
 1350 066d 03       		.uleb128 0x3
 1351 066e 88060000 		.4byte	.LASF107
 1352 0672 0E       		.byte	0xe
 1353 0673 BE       		.byte	0xbe
 1354 0674 AD000000 		.4byte	0xad
 1355 0678 14       		.uleb128 0x14
 1356 0679 01       		.byte	0x1
 1357 067a 0E       		.byte	0xe
 1358 067b C5       		.byte	0xc5
 1359 067c 8D060000 		.4byte	0x68d
 1360 0680 15       		.uleb128 0x15
 1361 0681 E3000000 		.4byte	.LASF108
 1362 0685 00       		.sleb128 0
 1363 0686 15       		.uleb128 0x15
 1364 0687 CC010000 		.4byte	.LASF109
 1365 068b 01       		.sleb128 1
 1366 068c 00       		.byte	0
 1367 068d 03       		.uleb128 0x3
 1368 068e AF000000 		.4byte	.LASF110
ARM GAS  /tmp/ccaDZiOV.s 			page 25


 1369 0692 0E       		.byte	0xe
 1370 0693 C8       		.byte	0xc8
 1371 0694 78060000 		.4byte	0x678
 1372 0698 03       		.uleb128 0x3
 1373 0699 3F020000 		.4byte	.LASF111
 1374 069d 0E       		.byte	0xe
 1375 069e CD       		.byte	0xcd
 1376 069f A3060000 		.4byte	0x6a3
 1377 06a3 0B       		.uleb128 0xb
 1378 06a4 3F020000 		.4byte	.LASF111
 1379 06a8 34       		.byte	0x34
 1380 06a9 0E       		.byte	0xe
 1381 06aa 4101     		.2byte	0x141
 1382 06ac 33070000 		.4byte	0x733
 1383 06b0 12       		.uleb128 0x12
 1384 06b1 CB000000 		.4byte	.LASF112
 1385 06b5 0E       		.byte	0xe
 1386 06b6 4501     		.2byte	0x145
 1387 06b8 57060000 		.4byte	0x657
 1388 06bc 00       		.byte	0
 1389 06bd 12       		.uleb128 0x12
 1390 06be 72050000 		.4byte	.LASF113
 1391 06c2 0E       		.byte	0xe
 1392 06c3 4901     		.2byte	0x149
 1393 06c5 70080000 		.4byte	0x870
 1394 06c9 04       		.byte	0x4
 1395 06ca 12       		.uleb128 0x12
 1396 06cb 87030000 		.4byte	.LASF114
 1397 06cf 0E       		.byte	0xe
 1398 06d0 4D01     		.2byte	0x14d
 1399 06d2 5F070000 		.4byte	0x75f
 1400 06d6 08       		.byte	0x8
 1401 06d7 12       		.uleb128 0x12
 1402 06d8 86020000 		.4byte	.LASF115
 1403 06dc 0E       		.byte	0xe
 1404 06dd 5101     		.2byte	0x151
 1405 06df 2C000000 		.4byte	0x2c
 1406 06e3 0C       		.byte	0xc
 1407 06e4 12       		.uleb128 0x12
 1408 06e5 69030000 		.4byte	.LASF116
 1409 06e9 0E       		.byte	0xe
 1410 06ea 5501     		.2byte	0x155
 1411 06ec 7B080000 		.4byte	0x87b
 1412 06f0 10       		.byte	0x10
 1413 06f1 12       		.uleb128 0x12
 1414 06f2 2B010000 		.4byte	.LASF117
 1415 06f6 0E       		.byte	0xe
 1416 06f7 5A01     		.2byte	0x15a
 1417 06f9 61020000 		.4byte	0x261
 1418 06fd 14       		.byte	0x14
 1419 06fe 12       		.uleb128 0x12
 1420 06ff 84040000 		.4byte	.LASF118
 1421 0703 0E       		.byte	0xe
 1422 0704 6101     		.2byte	0x161
 1423 0706 E0030000 		.4byte	0x3e0
 1424 070a 18       		.byte	0x18
 1425 070b 0C       		.uleb128 0xc
ARM GAS  /tmp/ccaDZiOV.s 			page 26


 1426 070c 61646300 		.ascii	"adc\000"
 1427 0710 0E       		.byte	0xe
 1428 0711 6D01     		.2byte	0x16d
 1429 0713 86080000 		.4byte	0x886
 1430 0717 28       		.byte	0x28
 1431 0718 12       		.uleb128 0x12
 1432 0719 BA000000 		.4byte	.LASF119
 1433 071d 0E       		.byte	0xe
 1434 071e 7101     		.2byte	0x171
 1435 0720 8C080000 		.4byte	0x88c
 1436 0724 2C       		.byte	0x2c
 1437 0725 12       		.uleb128 0x12
 1438 0726 0E000000 		.4byte	.LASF120
 1439 072a 0E       		.byte	0xe
 1440 072b 7501     		.2byte	0x175
 1441 072d C3000000 		.4byte	0xc3
 1442 0731 30       		.byte	0x30
 1443 0732 00       		.byte	0
 1444 0733 03       		.uleb128 0x3
 1445 0734 6B010000 		.4byte	.LASF121
 1446 0738 0E       		.byte	0xe
 1447 0739 D7       		.byte	0xd7
 1448 073a 3E070000 		.4byte	0x73e
 1449 073e 09       		.uleb128 0x9
 1450 073f 04       		.byte	0x4
 1451 0740 44070000 		.4byte	0x744
 1452 0744 16       		.uleb128 0x16
 1453 0745 59070000 		.4byte	0x759
 1454 0749 17       		.uleb128 0x17
 1455 074a 59070000 		.4byte	0x759
 1456 074e 17       		.uleb128 0x17
 1457 074f 5F070000 		.4byte	0x75f
 1458 0753 17       		.uleb128 0x17
 1459 0754 2C000000 		.4byte	0x2c
 1460 0758 00       		.byte	0
 1461 0759 09       		.uleb128 0x9
 1462 075a 04       		.byte	0x4
 1463 075b 98060000 		.4byte	0x698
 1464 075f 09       		.uleb128 0x9
 1465 0760 04       		.byte	0x4
 1466 0761 62060000 		.4byte	0x662
 1467 0765 03       		.uleb128 0x3
 1468 0766 0F010000 		.4byte	.LASF122
 1469 076a 0E       		.byte	0xe
 1470 076b E0       		.byte	0xe0
 1471 076c 70070000 		.4byte	0x770
 1472 0770 09       		.uleb128 0x9
 1473 0771 04       		.byte	0x4
 1474 0772 76070000 		.4byte	0x776
 1475 0776 16       		.uleb128 0x16
 1476 0777 86070000 		.4byte	0x786
 1477 077b 17       		.uleb128 0x17
 1478 077c 59070000 		.4byte	0x759
 1479 0780 17       		.uleb128 0x17
 1480 0781 8D060000 		.4byte	0x68d
 1481 0785 00       		.byte	0
 1482 0786 08       		.uleb128 0x8
ARM GAS  /tmp/ccaDZiOV.s 			page 27


 1483 0787 34       		.byte	0x34
 1484 0788 0E       		.byte	0xe
 1485 0789 EA       		.byte	0xea
 1486 078a 41080000 		.4byte	0x841
 1487 078e 06       		.uleb128 0x6
 1488 078f D1000000 		.4byte	.LASF123
 1489 0793 0E       		.byte	0xe
 1490 0794 EE       		.byte	0xee
 1491 0795 CE000000 		.4byte	0xce
 1492 0799 00       		.byte	0
 1493 079a 06       		.uleb128 0x6
 1494 079b 2D030000 		.4byte	.LASF124
 1495 079f 0E       		.byte	0xe
 1496 07a0 F2       		.byte	0xf2
 1497 07a1 6D060000 		.4byte	0x66d
 1498 07a5 02       		.byte	0x2
 1499 07a6 06       		.uleb128 0x6
 1500 07a7 64010000 		.4byte	.LASF125
 1501 07ab 0E       		.byte	0xe
 1502 07ac F6       		.byte	0xf6
 1503 07ad 33070000 		.4byte	0x733
 1504 07b1 04       		.byte	0x4
 1505 07b2 06       		.uleb128 0x6
 1506 07b3 DA040000 		.4byte	.LASF126
 1507 07b7 0E       		.byte	0xe
 1508 07b8 FA       		.byte	0xfa
 1509 07b9 65070000 		.4byte	0x765
 1510 07bd 08       		.byte	0x8
 1511 07be 0C       		.uleb128 0xc
 1512 07bf 63723100 		.ascii	"cr1\000"
 1513 07c3 0E       		.byte	0xe
 1514 07c4 0101     		.2byte	0x101
 1515 07c6 C3000000 		.4byte	0xc3
 1516 07ca 0C       		.byte	0xc
 1517 07cb 0C       		.uleb128 0xc
 1518 07cc 63723200 		.ascii	"cr2\000"
 1519 07d0 0E       		.byte	0xe
 1520 07d1 0801     		.2byte	0x108
 1521 07d3 C3000000 		.4byte	0xc3
 1522 07d7 10       		.byte	0x10
 1523 07d8 12       		.uleb128 0x12
 1524 07d9 55050000 		.4byte	.LASF127
 1525 07dd 0E       		.byte	0xe
 1526 07de 0E01     		.2byte	0x10e
 1527 07e0 C3000000 		.4byte	0xc3
 1528 07e4 14       		.byte	0x14
 1529 07e5 12       		.uleb128 0x12
 1530 07e6 19060000 		.4byte	.LASF128
 1531 07ea 0E       		.byte	0xe
 1532 07eb 1401     		.2byte	0x114
 1533 07ed C3000000 		.4byte	0xc3
 1534 07f1 18       		.byte	0x18
 1535 07f2 12       		.uleb128 0x12
 1536 07f3 1F060000 		.4byte	.LASF129
 1537 07f7 0E       		.byte	0xe
 1538 07f8 1A01     		.2byte	0x11a
 1539 07fa C3000000 		.4byte	0xc3
ARM GAS  /tmp/ccaDZiOV.s 			page 28


 1540 07fe 1C       		.byte	0x1c
 1541 07ff 12       		.uleb128 0x12
 1542 0800 84050000 		.4byte	.LASF130
 1543 0804 0E       		.byte	0xe
 1544 0805 1F01     		.2byte	0x11f
 1545 0807 C3000000 		.4byte	0xc3
 1546 080b 20       		.byte	0x20
 1547 080c 12       		.uleb128 0x12
 1548 080d 89050000 		.4byte	.LASF131
 1549 0811 0E       		.byte	0xe
 1550 0812 2401     		.2byte	0x124
 1551 0814 C3000000 		.4byte	0xc3
 1552 0818 24       		.byte	0x24
 1553 0819 12       		.uleb128 0x12
 1554 081a 8E050000 		.4byte	.LASF132
 1555 081e 0E       		.byte	0xe
 1556 081f 2901     		.2byte	0x129
 1557 0821 C3000000 		.4byte	0xc3
 1558 0825 28       		.byte	0x28
 1559 0826 12       		.uleb128 0x12
 1560 0827 93050000 		.4byte	.LASF133
 1561 082b 0E       		.byte	0xe
 1562 082c 2E01     		.2byte	0x12e
 1563 082e C3000000 		.4byte	0xc3
 1564 0832 2C       		.byte	0x2c
 1565 0833 12       		.uleb128 0x12
 1566 0834 98050000 		.4byte	.LASF134
 1567 0838 0E       		.byte	0xe
 1568 0839 3301     		.2byte	0x133
 1569 083b C3000000 		.4byte	0xc3
 1570 083f 30       		.byte	0x30
 1571 0840 00       		.byte	0
 1572 0841 13       		.uleb128 0x13
 1573 0842 46060000 		.4byte	.LASF135
 1574 0846 0E       		.byte	0xe
 1575 0847 3401     		.2byte	0x134
 1576 0849 86070000 		.4byte	0x786
 1577 084d 11       		.uleb128 0x11
 1578 084e 04       		.byte	0x4
 1579 084f 0E       		.byte	0xe
 1580 0850 3A01     		.2byte	0x13a
 1581 0852 64080000 		.4byte	0x864
 1582 0856 12       		.uleb128 0x12
 1583 0857 AA010000 		.4byte	.LASF136
 1584 085b 0E       		.byte	0xe
 1585 085c 3B01     		.2byte	0x13b
 1586 085e C3000000 		.4byte	0xc3
 1587 0862 00       		.byte	0
 1588 0863 00       		.byte	0
 1589 0864 13       		.uleb128 0x13
 1590 0865 8D010000 		.4byte	.LASF137
 1591 0869 0E       		.byte	0xe
 1592 086a 3C01     		.2byte	0x13c
 1593 086c 4D080000 		.4byte	0x84d
 1594 0870 09       		.uleb128 0x9
 1595 0871 04       		.byte	0x4
 1596 0872 76080000 		.4byte	0x876
ARM GAS  /tmp/ccaDZiOV.s 			page 29


 1597 0876 10       		.uleb128 0x10
 1598 0877 64080000 		.4byte	0x864
 1599 087b 09       		.uleb128 0x9
 1600 087c 04       		.byte	0x4
 1601 087d 81080000 		.4byte	0x881
 1602 0881 10       		.uleb128 0x10
 1603 0882 41080000 		.4byte	0x841
 1604 0886 09       		.uleb128 0x9
 1605 0887 04       		.byte	0x4
 1606 0888 78050000 		.4byte	0x578
 1607 088c 09       		.uleb128 0x9
 1608 088d 04       		.byte	0x4
 1609 088e 92080000 		.4byte	0x892
 1610 0892 10       		.uleb128 0x10
 1611 0893 1F060000 		.4byte	0x61f
 1612 0897 18       		.uleb128 0x18
 1613 0898 46040000 		.4byte	.LASF150
 1614 089c 01       		.byte	0x1
 1615 089d BB       		.byte	0xbb
 1616 089e 01       		.byte	0x1
 1617 089f D0080000 		.4byte	0x8d0
 1618 08a3 19       		.uleb128 0x19
 1619 08a4 49020000 		.4byte	.LASF138
 1620 08a8 01       		.byte	0x1
 1621 08a9 BB       		.byte	0xbb
 1622 08aa 59070000 		.4byte	0x759
 1623 08ae 19       		.uleb128 0x19
 1624 08af 69030000 		.4byte	.LASF116
 1625 08b3 01       		.byte	0x1
 1626 08b4 BC       		.byte	0xbc
 1627 08b5 7B080000 		.4byte	0x87b
 1628 08b9 19       		.uleb128 0x19
 1629 08ba 87030000 		.4byte	.LASF114
 1630 08be 01       		.byte	0x1
 1631 08bf BD       		.byte	0xbd
 1632 08c0 5F070000 		.4byte	0x75f
 1633 08c4 19       		.uleb128 0x19
 1634 08c5 86020000 		.4byte	.LASF115
 1635 08c9 01       		.byte	0x1
 1636 08ca BE       		.byte	0xbe
 1637 08cb 2C000000 		.4byte	0x2c
 1638 08cf 00       		.byte	0
 1639 08d0 1A       		.uleb128 0x1a
 1640 08d1 5C030000 		.4byte	.LASF139
 1641 08d5 01       		.byte	0x1
 1642 08d6 44       		.byte	0x44
 1643 08d7 00000000 		.4byte	.LFB63
 1644 08db 04000000 		.4byte	.LFE63-.LFB63
 1645 08df 01       		.uleb128 0x1
 1646 08e0 9C       		.byte	0x9c
 1647 08e1 EF080000 		.4byte	0x8ef
 1648 08e5 1B       		.uleb128 0x1b
 1649 08e6 04000000 		.4byte	.LVL0
 1650 08ea 7B0D0000 		.4byte	0xd7b
 1651 08ee 00       		.byte	0
 1652 08ef 1A       		.uleb128 0x1a
 1653 08f0 21020000 		.4byte	.LASF140
ARM GAS  /tmp/ccaDZiOV.s 			page 30


 1654 08f4 01       		.byte	0x1
 1655 08f5 50       		.byte	0x50
 1656 08f6 00000000 		.4byte	.LFB64
 1657 08fa 16000000 		.4byte	.LFE64-.LFB64
 1658 08fe 01       		.uleb128 0x1
 1659 08ff 9C       		.byte	0x9c
 1660 0900 27090000 		.4byte	0x927
 1661 0904 1C       		.uleb128 0x1c
 1662 0905 49020000 		.4byte	.LASF138
 1663 0909 01       		.byte	0x1
 1664 090a 50       		.byte	0x50
 1665 090b 59070000 		.4byte	0x759
 1666 090f 00000000 		.4byte	.LLST0
 1667 0913 1D       		.uleb128 0x1d
 1668 0914 16000000 		.4byte	.LVL3
 1669 0918 830D0000 		.4byte	0xd83
 1670 091c 1E       		.uleb128 0x1e
 1671 091d 01       		.uleb128 0x1
 1672 091e 50       		.byte	0x50
 1673 091f 05       		.uleb128 0x5
 1674 0920 F3       		.byte	0xf3
 1675 0921 01       		.uleb128 0x1
 1676 0922 50       		.byte	0x50
 1677 0923 23       		.byte	0x23
 1678 0924 18       		.uleb128 0x18
 1679 0925 00       		.byte	0
 1680 0926 00       		.byte	0
 1681 0927 1A       		.uleb128 0x1a
 1682 0928 F9050000 		.4byte	.LASF141
 1683 092c 01       		.byte	0x1
 1684 092d 6F       		.byte	0x6f
 1685 092e 00000000 		.4byte	.LFB65
 1686 0932 1C000000 		.4byte	.LFE65-.LFB65
 1687 0936 01       		.uleb128 0x1
 1688 0937 9C       		.byte	0x9c
 1689 0938 9D090000 		.4byte	0x99d
 1690 093c 1C       		.uleb128 0x1c
 1691 093d 49020000 		.4byte	.LASF138
 1692 0941 01       		.byte	0x1
 1693 0942 6F       		.byte	0x6f
 1694 0943 59070000 		.4byte	0x759
 1695 0947 2E000000 		.4byte	.LLST1
 1696 094b 1C       		.uleb128 0x1c
 1697 094c 72050000 		.4byte	.LASF113
 1698 0950 01       		.byte	0x1
 1699 0951 6F       		.byte	0x6f
 1700 0952 70080000 		.4byte	0x870
 1701 0956 4C000000 		.4byte	.LLST2
 1702 095a 1F       		.uleb128 0x1f
 1703 095b 00000000 		.4byte	.Ldebug_ranges0+0
 1704 095f 71090000 		.4byte	0x971
 1705 0963 20       		.uleb128 0x20
 1706 0964 746D7000 		.ascii	"tmp\000"
 1707 0968 01       		.byte	0x1
 1708 0969 73       		.byte	0x73
 1709 096a C3000000 		.4byte	0xc3
 1710 096e 01       		.uleb128 0x1
ARM GAS  /tmp/ccaDZiOV.s 			page 31


 1711 096f 53       		.byte	0x53
 1712 0970 00       		.byte	0
 1713 0971 21       		.uleb128 0x21
 1714 0972 14000000 		.4byte	.LBB12
 1715 0976 08000000 		.4byte	.LBE12-.LBB12
 1716 097a 8C090000 		.4byte	0x98c
 1717 097e 20       		.uleb128 0x20
 1718 097f 746D7000 		.ascii	"tmp\000"
 1719 0983 01       		.byte	0x1
 1720 0984 79       		.byte	0x79
 1721 0985 C3000000 		.4byte	0xc3
 1722 0989 01       		.uleb128 0x1
 1723 098a 53       		.byte	0x53
 1724 098b 00       		.byte	0
 1725 098c 22       		.uleb128 0x22
 1726 098d 10000000 		.4byte	.LVL5
 1727 0991 940D0000 		.4byte	0xd94
 1728 0995 1E       		.uleb128 0x1e
 1729 0996 01       		.uleb128 0x1
 1730 0997 50       		.byte	0x50
 1731 0998 02       		.uleb128 0x2
 1732 0999 74       		.byte	0x74
 1733 099a 00       		.sleb128 0
 1734 099b 00       		.byte	0
 1735 099c 00       		.byte	0
 1736 099d 1A       		.uleb128 0x1a
 1737 099e 2B000000 		.4byte	.LASF142
 1738 09a2 01       		.byte	0x1
 1739 09a3 83       		.byte	0x83
 1740 09a4 00000000 		.4byte	.LFB66
 1741 09a8 1A000000 		.4byte	.LFE66-.LFB66
 1742 09ac 01       		.uleb128 0x1
 1743 09ad 9C       		.byte	0x9c
 1744 09ae 040A0000 		.4byte	0xa04
 1745 09b2 1C       		.uleb128 0x1c
 1746 09b3 49020000 		.4byte	.LASF138
 1747 09b7 01       		.byte	0x1
 1748 09b8 83       		.byte	0x83
 1749 09b9 59070000 		.4byte	0x759
 1750 09bd 6D000000 		.4byte	.LLST3
 1751 09c1 1F       		.uleb128 0x1f
 1752 09c2 18000000 		.4byte	.Ldebug_ranges0+0x18
 1753 09c6 D8090000 		.4byte	0x9d8
 1754 09ca 20       		.uleb128 0x20
 1755 09cb 746D7000 		.ascii	"tmp\000"
 1756 09cf 01       		.byte	0x1
 1757 09d0 87       		.byte	0x87
 1758 09d1 C3000000 		.4byte	0xc3
 1759 09d5 01       		.uleb128 0x1
 1760 09d6 53       		.byte	0x53
 1761 09d7 00       		.byte	0
 1762 09d8 21       		.uleb128 0x21
 1763 09d9 12000000 		.4byte	.LBB15
 1764 09dd 08000000 		.4byte	.LBE15-.LBB15
 1765 09e1 F3090000 		.4byte	0x9f3
 1766 09e5 20       		.uleb128 0x20
 1767 09e6 746D7000 		.ascii	"tmp\000"
ARM GAS  /tmp/ccaDZiOV.s 			page 32


 1768 09ea 01       		.byte	0x1
 1769 09eb 8C       		.byte	0x8c
 1770 09ec C3000000 		.4byte	0xc3
 1771 09f0 01       		.uleb128 0x1
 1772 09f1 53       		.byte	0x53
 1773 09f2 00       		.byte	0
 1774 09f3 22       		.uleb128 0x22
 1775 09f4 0E000000 		.4byte	.LVL7
 1776 09f8 A60D0000 		.4byte	0xda6
 1777 09fc 1E       		.uleb128 0x1e
 1778 09fd 01       		.uleb128 0x1
 1779 09fe 50       		.byte	0x50
 1780 09ff 02       		.uleb128 0x2
 1781 0a00 74       		.byte	0x74
 1782 0a01 00       		.sleb128 0
 1783 0a02 00       		.byte	0
 1784 0a03 00       		.byte	0
 1785 0a04 1A       		.uleb128 0x1a
 1786 0a05 BA050000 		.4byte	.LASF143
 1787 0a09 01       		.byte	0x1
 1788 0a0a 9F       		.byte	0x9f
 1789 0a0b 00000000 		.4byte	.LFB67
 1790 0a0f 20000000 		.4byte	.LFE67-.LFB67
 1791 0a13 01       		.uleb128 0x1
 1792 0a14 9C       		.byte	0x9c
 1793 0a15 CF0A0000 		.4byte	0xacf
 1794 0a19 1C       		.uleb128 0x1c
 1795 0a1a 49020000 		.4byte	.LASF138
 1796 0a1e 01       		.byte	0x1
 1797 0a1f 9F       		.byte	0x9f
 1798 0a20 59070000 		.4byte	0x759
 1799 0a24 8B000000 		.4byte	.LLST4
 1800 0a28 1C       		.uleb128 0x1c
 1801 0a29 69030000 		.4byte	.LASF116
 1802 0a2d 01       		.byte	0x1
 1803 0a2e A0       		.byte	0xa0
 1804 0a2f 7B080000 		.4byte	0x87b
 1805 0a33 AC000000 		.4byte	.LLST5
 1806 0a37 1C       		.uleb128 0x1c
 1807 0a38 87030000 		.4byte	.LASF114
 1808 0a3c 01       		.byte	0x1
 1809 0a3d A1       		.byte	0xa1
 1810 0a3e 5F070000 		.4byte	0x75f
 1811 0a42 CD000000 		.4byte	.LLST6
 1812 0a46 1C       		.uleb128 0x1c
 1813 0a47 86020000 		.4byte	.LASF115
 1814 0a4b 01       		.byte	0x1
 1815 0a4c A2       		.byte	0xa2
 1816 0a4d 2C000000 		.4byte	0x2c
 1817 0a51 EE000000 		.4byte	.LLST7
 1818 0a55 21       		.uleb128 0x21
 1819 0a56 04000000 		.4byte	.LBB16
 1820 0a5a 06000000 		.4byte	.LBE16-.LBB16
 1821 0a5e 700A0000 		.4byte	0xa70
 1822 0a62 20       		.uleb128 0x20
 1823 0a63 746D7000 		.ascii	"tmp\000"
 1824 0a67 01       		.byte	0x1
ARM GAS  /tmp/ccaDZiOV.s 			page 33


 1825 0a68 A4       		.byte	0xa4
 1826 0a69 C3000000 		.4byte	0xc3
 1827 0a6d 01       		.uleb128 0x1
 1828 0a6e 53       		.byte	0x53
 1829 0a6f 00       		.byte	0
 1830 0a70 23       		.uleb128 0x23
 1831 0a71 97080000 		.4byte	0x897
 1832 0a75 0A000000 		.4byte	.LBB17
 1833 0a79 0E000000 		.4byte	.LBE17-.LBB17
 1834 0a7d 01       		.byte	0x1
 1835 0a7e A5       		.byte	0xa5
 1836 0a7f B70A0000 		.4byte	0xab7
 1837 0a83 24       		.uleb128 0x24
 1838 0a84 C4080000 		.4byte	0x8c4
 1839 0a88 01       		.uleb128 0x1
 1840 0a89 54       		.byte	0x54
 1841 0a8a 25       		.uleb128 0x25
 1842 0a8b B9080000 		.4byte	0x8b9
 1843 0a8f 0C010000 		.4byte	.LLST8
 1844 0a93 25       		.uleb128 0x25
 1845 0a94 AE080000 		.4byte	0x8ae
 1846 0a98 2D010000 		.4byte	.LLST9
 1847 0a9c 25       		.uleb128 0x25
 1848 0a9d A3080000 		.4byte	0x8a3
 1849 0aa1 4E010000 		.4byte	.LLST10
 1850 0aa5 22       		.uleb128 0x22
 1851 0aa6 18000000 		.4byte	.LVL11
 1852 0aaa B80D0000 		.4byte	0xdb8
 1853 0aae 1E       		.uleb128 0x1e
 1854 0aaf 01       		.uleb128 0x1
 1855 0ab0 50       		.byte	0x50
 1856 0ab1 03       		.uleb128 0x3
 1857 0ab2 F3       		.byte	0xf3
 1858 0ab3 01       		.uleb128 0x1
 1859 0ab4 50       		.byte	0x50
 1860 0ab5 00       		.byte	0
 1861 0ab6 00       		.byte	0
 1862 0ab7 26       		.uleb128 0x26
 1863 0ab8 18000000 		.4byte	.LBB19
 1864 0abc 08000000 		.4byte	.LBE19-.LBB19
 1865 0ac0 20       		.uleb128 0x20
 1866 0ac1 746D7000 		.ascii	"tmp\000"
 1867 0ac5 01       		.byte	0x1
 1868 0ac6 A6       		.byte	0xa6
 1869 0ac7 C3000000 		.4byte	0xc3
 1870 0acb 01       		.uleb128 0x1
 1871 0acc 53       		.byte	0x53
 1872 0acd 00       		.byte	0
 1873 0ace 00       		.byte	0
 1874 0acf 27       		.uleb128 0x27
 1875 0ad0 97080000 		.4byte	0x897
 1876 0ad4 00000000 		.4byte	.LFB68
 1877 0ad8 12000000 		.4byte	.LFE68-.LFB68
 1878 0adc 01       		.uleb128 0x1
 1879 0add 9C       		.byte	0x9c
 1880 0ade 180B0000 		.4byte	0xb18
 1881 0ae2 25       		.uleb128 0x25
ARM GAS  /tmp/ccaDZiOV.s 			page 34


 1882 0ae3 A3080000 		.4byte	0x8a3
 1883 0ae7 6F010000 		.4byte	.LLST11
 1884 0aeb 25       		.uleb128 0x25
 1885 0aec AE080000 		.4byte	0x8ae
 1886 0af0 90010000 		.4byte	.LLST12
 1887 0af4 25       		.uleb128 0x25
 1888 0af5 B9080000 		.4byte	0x8b9
 1889 0af9 B1010000 		.4byte	.LLST13
 1890 0afd 25       		.uleb128 0x25
 1891 0afe C4080000 		.4byte	0x8c4
 1892 0b02 D2010000 		.4byte	.LLST14
 1893 0b06 1D       		.uleb128 0x1d
 1894 0b07 12000000 		.4byte	.LVL13
 1895 0b0b B80D0000 		.4byte	0xdb8
 1896 0b0f 1E       		.uleb128 0x1e
 1897 0b10 01       		.uleb128 0x1
 1898 0b11 50       		.byte	0x50
 1899 0b12 03       		.uleb128 0x3
 1900 0b13 F3       		.byte	0xf3
 1901 0b14 01       		.uleb128 0x1
 1902 0b15 50       		.byte	0x50
 1903 0b16 00       		.byte	0
 1904 0b17 00       		.byte	0
 1905 0b18 1A       		.uleb128 0x1a
 1906 0b19 AC060000 		.4byte	.LASF144
 1907 0b1d 01       		.byte	0x1
 1908 0b1e DA       		.byte	0xda
 1909 0b1f 00000000 		.4byte	.LFB69
 1910 0b23 32000000 		.4byte	.LFE69-.LFB69
 1911 0b27 01       		.uleb128 0x1
 1912 0b28 9C       		.byte	0x9c
 1913 0b29 AB0B0000 		.4byte	0xbab
 1914 0b2d 1C       		.uleb128 0x1c
 1915 0b2e 49020000 		.4byte	.LASF138
 1916 0b32 01       		.byte	0x1
 1917 0b33 DA       		.byte	0xda
 1918 0b34 59070000 		.4byte	0x759
 1919 0b38 F3010000 		.4byte	.LLST15
 1920 0b3c 1F       		.uleb128 0x1f
 1921 0b3d 30000000 		.4byte	.Ldebug_ranges0+0x30
 1922 0b41 530B0000 		.4byte	0xb53
 1923 0b45 20       		.uleb128 0x20
 1924 0b46 746D7000 		.ascii	"tmp\000"
 1925 0b4a 01       		.byte	0x1
 1926 0b4b DE       		.byte	0xde
 1927 0b4c C3000000 		.4byte	0xc3
 1928 0b50 01       		.uleb128 0x1
 1929 0b51 53       		.byte	0x53
 1930 0b52 00       		.byte	0
 1931 0b53 21       		.uleb128 0x21
 1932 0b54 20000000 		.4byte	.LBB22
 1933 0b58 0A000000 		.4byte	.LBE22-.LBB22
 1934 0b5c 7F0B0000 		.4byte	0xb7f
 1935 0b60 28       		.uleb128 0x28
 1936 0b61 747000   		.ascii	"tp\000"
 1937 0b64 01       		.byte	0x1
 1938 0b65 E6       		.byte	0xe6
ARM GAS  /tmp/ccaDZiOV.s 			page 35


 1939 0b66 61020000 		.4byte	0x261
 1940 0b6a 11020000 		.4byte	.LLST16
 1941 0b6e 22       		.uleb128 0x22
 1942 0b6f 2A000000 		.4byte	.LVL17
 1943 0b73 CA0D0000 		.4byte	0xdca
 1944 0b77 1E       		.uleb128 0x1e
 1945 0b78 01       		.uleb128 0x1
 1946 0b79 51       		.byte	0x51
 1947 0b7a 02       		.uleb128 0x2
 1948 0b7b 09       		.byte	0x9
 1949 0b7c FE       		.byte	0xfe
 1950 0b7d 00       		.byte	0
 1951 0b7e 00       		.byte	0
 1952 0b7f 21       		.uleb128 0x21
 1953 0b80 2A000000 		.4byte	.LBB23
 1954 0b84 08000000 		.4byte	.LBE23-.LBB23
 1955 0b88 9A0B0000 		.4byte	0xb9a
 1956 0b8c 20       		.uleb128 0x20
 1957 0b8d 746D7000 		.ascii	"tmp\000"
 1958 0b91 01       		.byte	0x1
 1959 0b92 E8       		.byte	0xe8
 1960 0b93 C3000000 		.4byte	0xc3
 1961 0b97 01       		.uleb128 0x1
 1962 0b98 53       		.byte	0x53
 1963 0b99 00       		.byte	0
 1964 0b9a 22       		.uleb128 0x22
 1965 0b9b 14000000 		.4byte	.LVL15
 1966 0b9f E00D0000 		.4byte	0xde0
 1967 0ba3 1E       		.uleb128 0x1e
 1968 0ba4 01       		.uleb128 0x1
 1969 0ba5 50       		.byte	0x50
 1970 0ba6 02       		.uleb128 0x2
 1971 0ba7 74       		.byte	0x74
 1972 0ba8 00       		.sleb128 0
 1973 0ba9 00       		.byte	0
 1974 0baa 00       		.byte	0
 1975 0bab 1A       		.uleb128 0x1a
 1976 0bac 33060000 		.4byte	.LASF145
 1977 0bb0 01       		.byte	0x1
 1978 0bb1 F5       		.byte	0xf5
 1979 0bb2 00000000 		.4byte	.LFB70
 1980 0bb6 2E000000 		.4byte	.LFE70-.LFB70
 1981 0bba 01       		.uleb128 0x1
 1982 0bbb 9C       		.byte	0x9c
 1983 0bbc 020C0000 		.4byte	0xc02
 1984 0bc0 1C       		.uleb128 0x1c
 1985 0bc1 49020000 		.4byte	.LASF138
 1986 0bc5 01       		.byte	0x1
 1987 0bc6 F5       		.byte	0xf5
 1988 0bc7 59070000 		.4byte	0x759
 1989 0bcb 24020000 		.4byte	.LLST17
 1990 0bcf 1F       		.uleb128 0x1f
 1991 0bd0 48000000 		.4byte	.Ldebug_ranges0+0x48
 1992 0bd4 F10B0000 		.4byte	0xbf1
 1993 0bd8 29       		.uleb128 0x29
 1994 0bd9 747000   		.ascii	"tp\000"
 1995 0bdc 01       		.byte	0x1
ARM GAS  /tmp/ccaDZiOV.s 			page 36


 1996 0bdd 0201     		.2byte	0x102
 1997 0bdf 61020000 		.4byte	0x261
 1998 0be3 5B020000 		.4byte	.LLST18
 1999 0be7 1B       		.uleb128 0x1b
 2000 0be8 2C000000 		.4byte	.LVL22
 2001 0bec F20D0000 		.4byte	0xdf2
 2002 0bf0 00       		.byte	0
 2003 0bf1 22       		.uleb128 0x22
 2004 0bf2 0E000000 		.4byte	.LVL19
 2005 0bf6 E00D0000 		.4byte	0xde0
 2006 0bfa 1E       		.uleb128 0x1e
 2007 0bfb 01       		.uleb128 0x1
 2008 0bfc 50       		.byte	0x50
 2009 0bfd 02       		.uleb128 0x2
 2010 0bfe 74       		.byte	0x74
 2011 0bff 00       		.sleb128 0
 2012 0c00 00       		.byte	0
 2013 0c01 00       		.byte	0
 2014 0c02 2A       		.uleb128 0x2a
 2015 0c03 A1060000 		.4byte	.LASF162
 2016 0c07 01       		.byte	0x1
 2017 0c08 1E01     		.2byte	0x11e
 2018 0c0a 17010000 		.4byte	0x117
 2019 0c0e 00000000 		.4byte	.LFB71
 2020 0c12 38000000 		.4byte	.LFE71-.LFB71
 2021 0c16 01       		.uleb128 0x1
 2022 0c17 9C       		.byte	0x9c
 2023 0c18 F50C0000 		.4byte	0xcf5
 2024 0c1c 2B       		.uleb128 0x2b
 2025 0c1d 49020000 		.4byte	.LASF138
 2026 0c21 01       		.byte	0x1
 2027 0c22 1E01     		.2byte	0x11e
 2028 0c24 59070000 		.4byte	0x759
 2029 0c28 6E020000 		.4byte	.LLST19
 2030 0c2c 2B       		.uleb128 0x2b
 2031 0c2d 69030000 		.4byte	.LASF116
 2032 0c31 01       		.byte	0x1
 2033 0c32 1F01     		.2byte	0x11f
 2034 0c34 7B080000 		.4byte	0x87b
 2035 0c38 8C020000 		.4byte	.LLST20
 2036 0c3c 2B       		.uleb128 0x2b
 2037 0c3d 87030000 		.4byte	.LASF114
 2038 0c41 01       		.byte	0x1
 2039 0c42 2001     		.2byte	0x120
 2040 0c44 5F070000 		.4byte	0x75f
 2041 0c48 AD020000 		.4byte	.LLST21
 2042 0c4c 2B       		.uleb128 0x2b
 2043 0c4d 86020000 		.4byte	.LASF115
 2044 0c51 01       		.byte	0x1
 2045 0c52 2101     		.2byte	0x121
 2046 0c54 2C000000 		.4byte	0x2c
 2047 0c58 CE020000 		.4byte	.LLST22
 2048 0c5c 2C       		.uleb128 0x2c
 2049 0c5d 6D736700 		.ascii	"msg\000"
 2050 0c61 01       		.byte	0x1
 2051 0c62 2201     		.2byte	0x122
 2052 0c64 17010000 		.4byte	0x117
ARM GAS  /tmp/ccaDZiOV.s 			page 37


 2053 0c68 01       		.uleb128 0x1
 2054 0c69 50       		.byte	0x50
 2055 0c6a 21       		.uleb128 0x21
 2056 0c6b 06000000 		.4byte	.LBB26
 2057 0c6f 06000000 		.4byte	.LBE26-.LBB26
 2058 0c73 860C0000 		.4byte	0xc86
 2059 0c77 2C       		.uleb128 0x2c
 2060 0c78 746D7000 		.ascii	"tmp\000"
 2061 0c7c 01       		.byte	0x1
 2062 0c7d 2401     		.2byte	0x124
 2063 0c7f C3000000 		.4byte	0xc3
 2064 0c83 01       		.uleb128 0x1
 2065 0c84 53       		.byte	0x53
 2066 0c85 00       		.byte	0
 2067 0c86 2D       		.uleb128 0x2d
 2068 0c87 97080000 		.4byte	0x897
 2069 0c8b 0C000000 		.4byte	.LBB27
 2070 0c8f 60000000 		.4byte	.Ldebug_ranges0+0x60
 2071 0c93 01       		.byte	0x1
 2072 0c94 2601     		.2byte	0x126
 2073 0c96 CD0C0000 		.4byte	0xccd
 2074 0c9a 24       		.uleb128 0x24
 2075 0c9b C4080000 		.4byte	0x8c4
 2076 0c9f 01       		.uleb128 0x1
 2077 0ca0 56       		.byte	0x56
 2078 0ca1 25       		.uleb128 0x25
 2079 0ca2 B9080000 		.4byte	0x8b9
 2080 0ca6 EC020000 		.4byte	.LLST23
 2081 0caa 25       		.uleb128 0x25
 2082 0cab AE080000 		.4byte	0x8ae
 2083 0caf 0D030000 		.4byte	.LLST24
 2084 0cb3 25       		.uleb128 0x25
 2085 0cb4 A3080000 		.4byte	0x8a3
 2086 0cb8 2E030000 		.4byte	.LLST25
 2087 0cbc 22       		.uleb128 0x22
 2088 0cbd 22000000 		.4byte	.LVL26
 2089 0cc1 B80D0000 		.4byte	0xdb8
 2090 0cc5 1E       		.uleb128 0x1e
 2091 0cc6 01       		.uleb128 0x1
 2092 0cc7 50       		.byte	0x50
 2093 0cc8 02       		.uleb128 0x2
 2094 0cc9 74       		.byte	0x74
 2095 0cca 00       		.sleb128 0
 2096 0ccb 00       		.byte	0
 2097 0ccc 00       		.byte	0
 2098 0ccd 1F       		.uleb128 0x1f
 2099 0cce 80000000 		.4byte	.Ldebug_ranges0+0x80
 2100 0cd2 E50C0000 		.4byte	0xce5
 2101 0cd6 2C       		.uleb128 0x2c
 2102 0cd7 746D7000 		.ascii	"tmp\000"
 2103 0cdb 01       		.byte	0x1
 2104 0cdc 2A01     		.2byte	0x12a
 2105 0cde C3000000 		.4byte	0xc3
 2106 0ce2 01       		.uleb128 0x1
 2107 0ce3 53       		.byte	0x53
 2108 0ce4 00       		.byte	0
 2109 0ce5 22       		.uleb128 0x22
ARM GAS  /tmp/ccaDZiOV.s 			page 38


 2110 0ce6 2C000000 		.4byte	.LVL27
 2111 0cea 070E0000 		.4byte	0xe07
 2112 0cee 1E       		.uleb128 0x1e
 2113 0cef 01       		.uleb128 0x1
 2114 0cf0 50       		.byte	0x50
 2115 0cf1 01       		.uleb128 0x1
 2116 0cf2 32       		.byte	0x32
 2117 0cf3 00       		.byte	0
 2118 0cf4 00       		.byte	0
 2119 0cf5 2E       		.uleb128 0x2e
 2120 0cf6 C6060000 		.4byte	.LASF146
 2121 0cfa 01       		.byte	0x1
 2122 0cfb 3B01     		.2byte	0x13b
 2123 0cfd 00000000 		.4byte	.LFB72
 2124 0d01 06000000 		.4byte	.LFE72-.LFB72
 2125 0d05 01       		.uleb128 0x1
 2126 0d06 9C       		.byte	0x9c
 2127 0d07 2F0D0000 		.4byte	0xd2f
 2128 0d0b 2B       		.uleb128 0x2b
 2129 0d0c 49020000 		.4byte	.LASF138
 2130 0d10 01       		.byte	0x1
 2131 0d11 3B01     		.2byte	0x13b
 2132 0d13 59070000 		.4byte	0x759
 2133 0d17 4C030000 		.4byte	.LLST26
 2134 0d1b 1D       		.uleb128 0x1d
 2135 0d1c 06000000 		.4byte	.LVL31
 2136 0d20 180E0000 		.4byte	0xe18
 2137 0d24 1E       		.uleb128 0x1e
 2138 0d25 01       		.uleb128 0x1
 2139 0d26 50       		.byte	0x50
 2140 0d27 05       		.uleb128 0x5
 2141 0d28 F3       		.byte	0xf3
 2142 0d29 01       		.uleb128 0x1
 2143 0d2a 50       		.byte	0x50
 2144 0d2b 23       		.byte	0x23
 2145 0d2c 18       		.uleb128 0x18
 2146 0d2d 00       		.byte	0
 2147 0d2e 00       		.byte	0
 2148 0d2f 2E       		.uleb128 0x2e
 2149 0d30 3B050000 		.4byte	.LASF147
 2150 0d34 01       		.byte	0x1
 2151 0d35 4F01     		.2byte	0x14f
 2152 0d37 00000000 		.4byte	.LFB73
 2153 0d3b 04000000 		.4byte	.LFE73-.LFB73
 2154 0d3f 01       		.uleb128 0x1
 2155 0d40 9C       		.byte	0x9c
 2156 0d41 5F0D0000 		.4byte	0xd5f
 2157 0d45 2B       		.uleb128 0x2b
 2158 0d46 49020000 		.4byte	.LASF138
 2159 0d4a 01       		.byte	0x1
 2160 0d4b 4F01     		.2byte	0x14f
 2161 0d4d 59070000 		.4byte	0x759
 2162 0d51 7A030000 		.4byte	.LLST27
 2163 0d55 1B       		.uleb128 0x1b
 2164 0d56 04000000 		.4byte	.LVL33
 2165 0d5a 290E0000 		.4byte	0xe29
 2166 0d5e 00       		.byte	0
ARM GAS  /tmp/ccaDZiOV.s 			page 39


 2167 0d5f 2F       		.uleb128 0x2f
 2168 0d60 25060000 		.4byte	.LASF148
 2169 0d64 09       		.byte	0x9
 2170 0d65 6F       		.byte	0x6f
 2171 0d66 9E030000 		.4byte	0x39e
 2172 0d6a 30       		.uleb128 0x30
 2173 0d6b 67000000 		.4byte	.LASF149
 2174 0d6f 0F       		.byte	0xf
 2175 0d70 0706     		.2byte	0x607
 2176 0d72 760D0000 		.4byte	0xd76
 2177 0d76 0D       		.uleb128 0xd
 2178 0d77 B8000000 		.4byte	0xb8
 2179 0d7b 31       		.uleb128 0x31
 2180 0d7c 7A030000 		.4byte	.LASF163
 2181 0d80 0E       		.byte	0xe
 2182 0d81 D501     		.2byte	0x1d5
 2183 0d83 32       		.uleb128 0x32
 2184 0d84 EF050000 		.4byte	.LASF151
 2185 0d88 0A       		.byte	0xa
 2186 0d89 38       		.byte	0x38
 2187 0d8a 940D0000 		.4byte	0xd94
 2188 0d8e 17       		.uleb128 0x17
 2189 0d8f 32040000 		.4byte	0x432
 2190 0d93 00       		.byte	0
 2191 0d94 33       		.uleb128 0x33
 2192 0d95 D4050000 		.4byte	.LASF152
 2193 0d99 0E       		.byte	0xe
 2194 0d9a D601     		.2byte	0x1d6
 2195 0d9c A60D0000 		.4byte	0xda6
 2196 0da0 17       		.uleb128 0x17
 2197 0da1 59070000 		.4byte	0x759
 2198 0da5 00       		.byte	0
 2199 0da6 33       		.uleb128 0x33
 2200 0da7 33000000 		.4byte	.LASF153
 2201 0dab 0E       		.byte	0xe
 2202 0dac D701     		.2byte	0x1d7
 2203 0dae B80D0000 		.4byte	0xdb8
 2204 0db2 17       		.uleb128 0x17
 2205 0db3 59070000 		.4byte	0x759
 2206 0db7 00       		.byte	0
 2207 0db8 33       		.uleb128 0x33
 2208 0db9 F6000000 		.4byte	.LASF154
 2209 0dbd 0E       		.byte	0xe
 2210 0dbe D801     		.2byte	0x1d8
 2211 0dc0 CA0D0000 		.4byte	0xdca
 2212 0dc4 17       		.uleb128 0x17
 2213 0dc5 59070000 		.4byte	0x759
 2214 0dc9 00       		.byte	0
 2215 0dca 32       		.uleb128 0x32
 2216 0dcb E2050000 		.4byte	.LASF155
 2217 0dcf 09       		.byte	0x9
 2218 0dd0 99       		.byte	0x99
 2219 0dd1 E00D0000 		.4byte	0xde0
 2220 0dd5 17       		.uleb128 0x17
 2221 0dd6 61020000 		.4byte	0x261
 2222 0dda 17       		.uleb128 0x17
 2223 0ddb 17010000 		.4byte	0x117
ARM GAS  /tmp/ccaDZiOV.s 			page 40


 2224 0ddf 00       		.byte	0
 2225 0de0 33       		.uleb128 0x33
 2226 0de1 B0040000 		.4byte	.LASF156
 2227 0de5 0E       		.byte	0xe
 2228 0de6 D901     		.2byte	0x1d9
 2229 0de8 F20D0000 		.4byte	0xdf2
 2230 0dec 17       		.uleb128 0x17
 2231 0ded 59070000 		.4byte	0x759
 2232 0df1 00       		.byte	0
 2233 0df2 34       		.uleb128 0x34
 2234 0df3 49050000 		.4byte	.LASF164
 2235 0df7 09       		.byte	0x9
 2236 0df8 90       		.byte	0x90
 2237 0df9 61020000 		.4byte	0x261
 2238 0dfd 070E0000 		.4byte	0xe07
 2239 0e01 17       		.uleb128 0x17
 2240 0e02 61020000 		.4byte	0x261
 2241 0e06 00       		.byte	0
 2242 0e07 32       		.uleb128 0x32
 2243 0e08 14050000 		.4byte	.LASF157
 2244 0e0c 09       		.byte	0x9
 2245 0e0d 93       		.byte	0x93
 2246 0e0e 180E0000 		.4byte	0xe18
 2247 0e12 17       		.uleb128 0x17
 2248 0e13 EB000000 		.4byte	0xeb
 2249 0e17 00       		.byte	0
 2250 0e18 32       		.uleb128 0x32
 2251 0e19 D7030000 		.4byte	.LASF158
 2252 0e1d 0A       		.byte	0xa
 2253 0e1e 39       		.byte	0x39
 2254 0e1f 290E0000 		.4byte	0xe29
 2255 0e23 17       		.uleb128 0x17
 2256 0e24 32040000 		.4byte	0x432
 2257 0e28 00       		.byte	0
 2258 0e29 35       		.uleb128 0x35
 2259 0e2a 80000000 		.4byte	.LASF165
 2260 0e2e 0A       		.byte	0xa
 2261 0e2f 3D       		.byte	0x3d
 2262 0e30 32040000 		.4byte	0x432
 2263 0e34 00       		.byte	0
 2264              		.section	.debug_abbrev,"",%progbits
 2265              	.Ldebug_abbrev0:
 2266 0000 01       		.uleb128 0x1
 2267 0001 11       		.uleb128 0x11
 2268 0002 01       		.byte	0x1
 2269 0003 25       		.uleb128 0x25
 2270 0004 0E       		.uleb128 0xe
 2271 0005 13       		.uleb128 0x13
 2272 0006 0B       		.uleb128 0xb
 2273 0007 03       		.uleb128 0x3
 2274 0008 0E       		.uleb128 0xe
 2275 0009 1B       		.uleb128 0x1b
 2276 000a 0E       		.uleb128 0xe
 2277 000b 55       		.uleb128 0x55
 2278 000c 17       		.uleb128 0x17
 2279 000d 11       		.uleb128 0x11
 2280 000e 01       		.uleb128 0x1
ARM GAS  /tmp/ccaDZiOV.s 			page 41


 2281 000f 10       		.uleb128 0x10
 2282 0010 17       		.uleb128 0x17
 2283 0011 00       		.byte	0
 2284 0012 00       		.byte	0
 2285 0013 02       		.uleb128 0x2
 2286 0014 24       		.uleb128 0x24
 2287 0015 00       		.byte	0
 2288 0016 0B       		.uleb128 0xb
 2289 0017 0B       		.uleb128 0xb
 2290 0018 3E       		.uleb128 0x3e
 2291 0019 0B       		.uleb128 0xb
 2292 001a 03       		.uleb128 0x3
 2293 001b 08       		.uleb128 0x8
 2294 001c 00       		.byte	0
 2295 001d 00       		.byte	0
 2296 001e 03       		.uleb128 0x3
 2297 001f 16       		.uleb128 0x16
 2298 0020 00       		.byte	0
 2299 0021 03       		.uleb128 0x3
 2300 0022 0E       		.uleb128 0xe
 2301 0023 3A       		.uleb128 0x3a
 2302 0024 0B       		.uleb128 0xb
 2303 0025 3B       		.uleb128 0x3b
 2304 0026 0B       		.uleb128 0xb
 2305 0027 49       		.uleb128 0x49
 2306 0028 13       		.uleb128 0x13
 2307 0029 00       		.byte	0
 2308 002a 00       		.byte	0
 2309 002b 04       		.uleb128 0x4
 2310 002c 24       		.uleb128 0x24
 2311 002d 00       		.byte	0
 2312 002e 0B       		.uleb128 0xb
 2313 002f 0B       		.uleb128 0xb
 2314 0030 3E       		.uleb128 0x3e
 2315 0031 0B       		.uleb128 0xb
 2316 0032 03       		.uleb128 0x3
 2317 0033 0E       		.uleb128 0xe
 2318 0034 00       		.byte	0
 2319 0035 00       		.byte	0
 2320 0036 05       		.uleb128 0x5
 2321 0037 13       		.uleb128 0x13
 2322 0038 01       		.byte	0x1
 2323 0039 03       		.uleb128 0x3
 2324 003a 0E       		.uleb128 0xe
 2325 003b 0B       		.uleb128 0xb
 2326 003c 0B       		.uleb128 0xb
 2327 003d 3A       		.uleb128 0x3a
 2328 003e 0B       		.uleb128 0xb
 2329 003f 3B       		.uleb128 0x3b
 2330 0040 0B       		.uleb128 0xb
 2331 0041 01       		.uleb128 0x1
 2332 0042 13       		.uleb128 0x13
 2333 0043 00       		.byte	0
 2334 0044 00       		.byte	0
 2335 0045 06       		.uleb128 0x6
 2336 0046 0D       		.uleb128 0xd
 2337 0047 00       		.byte	0
ARM GAS  /tmp/ccaDZiOV.s 			page 42


 2338 0048 03       		.uleb128 0x3
 2339 0049 0E       		.uleb128 0xe
 2340 004a 3A       		.uleb128 0x3a
 2341 004b 0B       		.uleb128 0xb
 2342 004c 3B       		.uleb128 0x3b
 2343 004d 0B       		.uleb128 0xb
 2344 004e 49       		.uleb128 0x49
 2345 004f 13       		.uleb128 0x13
 2346 0050 38       		.uleb128 0x38
 2347 0051 0B       		.uleb128 0xb
 2348 0052 00       		.byte	0
 2349 0053 00       		.byte	0
 2350 0054 07       		.uleb128 0x7
 2351 0055 0D       		.uleb128 0xd
 2352 0056 00       		.byte	0
 2353 0057 03       		.uleb128 0x3
 2354 0058 08       		.uleb128 0x8
 2355 0059 3A       		.uleb128 0x3a
 2356 005a 0B       		.uleb128 0xb
 2357 005b 3B       		.uleb128 0x3b
 2358 005c 0B       		.uleb128 0xb
 2359 005d 49       		.uleb128 0x49
 2360 005e 13       		.uleb128 0x13
 2361 005f 38       		.uleb128 0x38
 2362 0060 0B       		.uleb128 0xb
 2363 0061 00       		.byte	0
 2364 0062 00       		.byte	0
 2365 0063 08       		.uleb128 0x8
 2366 0064 13       		.uleb128 0x13
 2367 0065 01       		.byte	0x1
 2368 0066 0B       		.uleb128 0xb
 2369 0067 0B       		.uleb128 0xb
 2370 0068 3A       		.uleb128 0x3a
 2371 0069 0B       		.uleb128 0xb
 2372 006a 3B       		.uleb128 0x3b
 2373 006b 0B       		.uleb128 0xb
 2374 006c 01       		.uleb128 0x1
 2375 006d 13       		.uleb128 0x13
 2376 006e 00       		.byte	0
 2377 006f 00       		.byte	0
 2378 0070 09       		.uleb128 0x9
 2379 0071 0F       		.uleb128 0xf
 2380 0072 00       		.byte	0
 2381 0073 0B       		.uleb128 0xb
 2382 0074 0B       		.uleb128 0xb
 2383 0075 49       		.uleb128 0x49
 2384 0076 13       		.uleb128 0x13
 2385 0077 00       		.byte	0
 2386 0078 00       		.byte	0
 2387 0079 0A       		.uleb128 0xa
 2388 007a 0F       		.uleb128 0xf
 2389 007b 00       		.byte	0
 2390 007c 0B       		.uleb128 0xb
 2391 007d 0B       		.uleb128 0xb
 2392 007e 00       		.byte	0
 2393 007f 00       		.byte	0
 2394 0080 0B       		.uleb128 0xb
ARM GAS  /tmp/ccaDZiOV.s 			page 43


 2395 0081 13       		.uleb128 0x13
 2396 0082 01       		.byte	0x1
 2397 0083 03       		.uleb128 0x3
 2398 0084 0E       		.uleb128 0xe
 2399 0085 0B       		.uleb128 0xb
 2400 0086 0B       		.uleb128 0xb
 2401 0087 3A       		.uleb128 0x3a
 2402 0088 0B       		.uleb128 0xb
 2403 0089 3B       		.uleb128 0x3b
 2404 008a 05       		.uleb128 0x5
 2405 008b 01       		.uleb128 0x1
 2406 008c 13       		.uleb128 0x13
 2407 008d 00       		.byte	0
 2408 008e 00       		.byte	0
 2409 008f 0C       		.uleb128 0xc
 2410 0090 0D       		.uleb128 0xd
 2411 0091 00       		.byte	0
 2412 0092 03       		.uleb128 0x3
 2413 0093 08       		.uleb128 0x8
 2414 0094 3A       		.uleb128 0x3a
 2415 0095 0B       		.uleb128 0xb
 2416 0096 3B       		.uleb128 0x3b
 2417 0097 05       		.uleb128 0x5
 2418 0098 49       		.uleb128 0x49
 2419 0099 13       		.uleb128 0x13
 2420 009a 38       		.uleb128 0x38
 2421 009b 0B       		.uleb128 0xb
 2422 009c 00       		.byte	0
 2423 009d 00       		.byte	0
 2424 009e 0D       		.uleb128 0xd
 2425 009f 35       		.uleb128 0x35
 2426 00a0 00       		.byte	0
 2427 00a1 49       		.uleb128 0x49
 2428 00a2 13       		.uleb128 0x13
 2429 00a3 00       		.byte	0
 2430 00a4 00       		.byte	0
 2431 00a5 0E       		.uleb128 0xe
 2432 00a6 17       		.uleb128 0x17
 2433 00a7 01       		.byte	0x1
 2434 00a8 0B       		.uleb128 0xb
 2435 00a9 0B       		.uleb128 0xb
 2436 00aa 3A       		.uleb128 0x3a
 2437 00ab 0B       		.uleb128 0xb
 2438 00ac 3B       		.uleb128 0x3b
 2439 00ad 0B       		.uleb128 0xb
 2440 00ae 01       		.uleb128 0x1
 2441 00af 13       		.uleb128 0x13
 2442 00b0 00       		.byte	0
 2443 00b1 00       		.byte	0
 2444 00b2 0F       		.uleb128 0xf
 2445 00b3 0D       		.uleb128 0xd
 2446 00b4 00       		.byte	0
 2447 00b5 03       		.uleb128 0x3
 2448 00b6 0E       		.uleb128 0xe
 2449 00b7 3A       		.uleb128 0x3a
 2450 00b8 0B       		.uleb128 0xb
 2451 00b9 3B       		.uleb128 0x3b
ARM GAS  /tmp/ccaDZiOV.s 			page 44


 2452 00ba 0B       		.uleb128 0xb
 2453 00bb 49       		.uleb128 0x49
 2454 00bc 13       		.uleb128 0x13
 2455 00bd 00       		.byte	0
 2456 00be 00       		.byte	0
 2457 00bf 10       		.uleb128 0x10
 2458 00c0 26       		.uleb128 0x26
 2459 00c1 00       		.byte	0
 2460 00c2 49       		.uleb128 0x49
 2461 00c3 13       		.uleb128 0x13
 2462 00c4 00       		.byte	0
 2463 00c5 00       		.byte	0
 2464 00c6 11       		.uleb128 0x11
 2465 00c7 13       		.uleb128 0x13
 2466 00c8 01       		.byte	0x1
 2467 00c9 0B       		.uleb128 0xb
 2468 00ca 0B       		.uleb128 0xb
 2469 00cb 3A       		.uleb128 0x3a
 2470 00cc 0B       		.uleb128 0xb
 2471 00cd 3B       		.uleb128 0x3b
 2472 00ce 05       		.uleb128 0x5
 2473 00cf 01       		.uleb128 0x1
 2474 00d0 13       		.uleb128 0x13
 2475 00d1 00       		.byte	0
 2476 00d2 00       		.byte	0
 2477 00d3 12       		.uleb128 0x12
 2478 00d4 0D       		.uleb128 0xd
 2479 00d5 00       		.byte	0
 2480 00d6 03       		.uleb128 0x3
 2481 00d7 0E       		.uleb128 0xe
 2482 00d8 3A       		.uleb128 0x3a
 2483 00d9 0B       		.uleb128 0xb
 2484 00da 3B       		.uleb128 0x3b
 2485 00db 05       		.uleb128 0x5
 2486 00dc 49       		.uleb128 0x49
 2487 00dd 13       		.uleb128 0x13
 2488 00de 38       		.uleb128 0x38
 2489 00df 0B       		.uleb128 0xb
 2490 00e0 00       		.byte	0
 2491 00e1 00       		.byte	0
 2492 00e2 13       		.uleb128 0x13
 2493 00e3 16       		.uleb128 0x16
 2494 00e4 00       		.byte	0
 2495 00e5 03       		.uleb128 0x3
 2496 00e6 0E       		.uleb128 0xe
 2497 00e7 3A       		.uleb128 0x3a
 2498 00e8 0B       		.uleb128 0xb
 2499 00e9 3B       		.uleb128 0x3b
 2500 00ea 05       		.uleb128 0x5
 2501 00eb 49       		.uleb128 0x49
 2502 00ec 13       		.uleb128 0x13
 2503 00ed 00       		.byte	0
 2504 00ee 00       		.byte	0
 2505 00ef 14       		.uleb128 0x14
 2506 00f0 04       		.uleb128 0x4
 2507 00f1 01       		.byte	0x1
 2508 00f2 0B       		.uleb128 0xb
ARM GAS  /tmp/ccaDZiOV.s 			page 45


 2509 00f3 0B       		.uleb128 0xb
 2510 00f4 3A       		.uleb128 0x3a
 2511 00f5 0B       		.uleb128 0xb
 2512 00f6 3B       		.uleb128 0x3b
 2513 00f7 0B       		.uleb128 0xb
 2514 00f8 01       		.uleb128 0x1
 2515 00f9 13       		.uleb128 0x13
 2516 00fa 00       		.byte	0
 2517 00fb 00       		.byte	0
 2518 00fc 15       		.uleb128 0x15
 2519 00fd 28       		.uleb128 0x28
 2520 00fe 00       		.byte	0
 2521 00ff 03       		.uleb128 0x3
 2522 0100 0E       		.uleb128 0xe
 2523 0101 1C       		.uleb128 0x1c
 2524 0102 0D       		.uleb128 0xd
 2525 0103 00       		.byte	0
 2526 0104 00       		.byte	0
 2527 0105 16       		.uleb128 0x16
 2528 0106 15       		.uleb128 0x15
 2529 0107 01       		.byte	0x1
 2530 0108 27       		.uleb128 0x27
 2531 0109 19       		.uleb128 0x19
 2532 010a 01       		.uleb128 0x1
 2533 010b 13       		.uleb128 0x13
 2534 010c 00       		.byte	0
 2535 010d 00       		.byte	0
 2536 010e 17       		.uleb128 0x17
 2537 010f 05       		.uleb128 0x5
 2538 0110 00       		.byte	0
 2539 0111 49       		.uleb128 0x49
 2540 0112 13       		.uleb128 0x13
 2541 0113 00       		.byte	0
 2542 0114 00       		.byte	0
 2543 0115 18       		.uleb128 0x18
 2544 0116 2E       		.uleb128 0x2e
 2545 0117 01       		.byte	0x1
 2546 0118 3F       		.uleb128 0x3f
 2547 0119 19       		.uleb128 0x19
 2548 011a 03       		.uleb128 0x3
 2549 011b 0E       		.uleb128 0xe
 2550 011c 3A       		.uleb128 0x3a
 2551 011d 0B       		.uleb128 0xb
 2552 011e 3B       		.uleb128 0x3b
 2553 011f 0B       		.uleb128 0xb
 2554 0120 27       		.uleb128 0x27
 2555 0121 19       		.uleb128 0x19
 2556 0122 20       		.uleb128 0x20
 2557 0123 0B       		.uleb128 0xb
 2558 0124 01       		.uleb128 0x1
 2559 0125 13       		.uleb128 0x13
 2560 0126 00       		.byte	0
 2561 0127 00       		.byte	0
 2562 0128 19       		.uleb128 0x19
 2563 0129 05       		.uleb128 0x5
 2564 012a 00       		.byte	0
 2565 012b 03       		.uleb128 0x3
ARM GAS  /tmp/ccaDZiOV.s 			page 46


 2566 012c 0E       		.uleb128 0xe
 2567 012d 3A       		.uleb128 0x3a
 2568 012e 0B       		.uleb128 0xb
 2569 012f 3B       		.uleb128 0x3b
 2570 0130 0B       		.uleb128 0xb
 2571 0131 49       		.uleb128 0x49
 2572 0132 13       		.uleb128 0x13
 2573 0133 00       		.byte	0
 2574 0134 00       		.byte	0
 2575 0135 1A       		.uleb128 0x1a
 2576 0136 2E       		.uleb128 0x2e
 2577 0137 01       		.byte	0x1
 2578 0138 3F       		.uleb128 0x3f
 2579 0139 19       		.uleb128 0x19
 2580 013a 03       		.uleb128 0x3
 2581 013b 0E       		.uleb128 0xe
 2582 013c 3A       		.uleb128 0x3a
 2583 013d 0B       		.uleb128 0xb
 2584 013e 3B       		.uleb128 0x3b
 2585 013f 0B       		.uleb128 0xb
 2586 0140 27       		.uleb128 0x27
 2587 0141 19       		.uleb128 0x19
 2588 0142 11       		.uleb128 0x11
 2589 0143 01       		.uleb128 0x1
 2590 0144 12       		.uleb128 0x12
 2591 0145 06       		.uleb128 0x6
 2592 0146 40       		.uleb128 0x40
 2593 0147 18       		.uleb128 0x18
 2594 0148 9742     		.uleb128 0x2117
 2595 014a 19       		.uleb128 0x19
 2596 014b 01       		.uleb128 0x1
 2597 014c 13       		.uleb128 0x13
 2598 014d 00       		.byte	0
 2599 014e 00       		.byte	0
 2600 014f 1B       		.uleb128 0x1b
 2601 0150 898201   		.uleb128 0x4109
 2602 0153 00       		.byte	0
 2603 0154 11       		.uleb128 0x11
 2604 0155 01       		.uleb128 0x1
 2605 0156 9542     		.uleb128 0x2115
 2606 0158 19       		.uleb128 0x19
 2607 0159 31       		.uleb128 0x31
 2608 015a 13       		.uleb128 0x13
 2609 015b 00       		.byte	0
 2610 015c 00       		.byte	0
 2611 015d 1C       		.uleb128 0x1c
 2612 015e 05       		.uleb128 0x5
 2613 015f 00       		.byte	0
 2614 0160 03       		.uleb128 0x3
 2615 0161 0E       		.uleb128 0xe
 2616 0162 3A       		.uleb128 0x3a
 2617 0163 0B       		.uleb128 0xb
 2618 0164 3B       		.uleb128 0x3b
 2619 0165 0B       		.uleb128 0xb
 2620 0166 49       		.uleb128 0x49
 2621 0167 13       		.uleb128 0x13
 2622 0168 02       		.uleb128 0x2
ARM GAS  /tmp/ccaDZiOV.s 			page 47


 2623 0169 17       		.uleb128 0x17
 2624 016a 00       		.byte	0
 2625 016b 00       		.byte	0
 2626 016c 1D       		.uleb128 0x1d
 2627 016d 898201   		.uleb128 0x4109
 2628 0170 01       		.byte	0x1
 2629 0171 11       		.uleb128 0x11
 2630 0172 01       		.uleb128 0x1
 2631 0173 9542     		.uleb128 0x2115
 2632 0175 19       		.uleb128 0x19
 2633 0176 31       		.uleb128 0x31
 2634 0177 13       		.uleb128 0x13
 2635 0178 00       		.byte	0
 2636 0179 00       		.byte	0
 2637 017a 1E       		.uleb128 0x1e
 2638 017b 8A8201   		.uleb128 0x410a
 2639 017e 00       		.byte	0
 2640 017f 02       		.uleb128 0x2
 2641 0180 18       		.uleb128 0x18
 2642 0181 9142     		.uleb128 0x2111
 2643 0183 18       		.uleb128 0x18
 2644 0184 00       		.byte	0
 2645 0185 00       		.byte	0
 2646 0186 1F       		.uleb128 0x1f
 2647 0187 0B       		.uleb128 0xb
 2648 0188 01       		.byte	0x1
 2649 0189 55       		.uleb128 0x55
 2650 018a 17       		.uleb128 0x17
 2651 018b 01       		.uleb128 0x1
 2652 018c 13       		.uleb128 0x13
 2653 018d 00       		.byte	0
 2654 018e 00       		.byte	0
 2655 018f 20       		.uleb128 0x20
 2656 0190 34       		.uleb128 0x34
 2657 0191 00       		.byte	0
 2658 0192 03       		.uleb128 0x3
 2659 0193 08       		.uleb128 0x8
 2660 0194 3A       		.uleb128 0x3a
 2661 0195 0B       		.uleb128 0xb
 2662 0196 3B       		.uleb128 0x3b
 2663 0197 0B       		.uleb128 0xb
 2664 0198 49       		.uleb128 0x49
 2665 0199 13       		.uleb128 0x13
 2666 019a 02       		.uleb128 0x2
 2667 019b 18       		.uleb128 0x18
 2668 019c 00       		.byte	0
 2669 019d 00       		.byte	0
 2670 019e 21       		.uleb128 0x21
 2671 019f 0B       		.uleb128 0xb
 2672 01a0 01       		.byte	0x1
 2673 01a1 11       		.uleb128 0x11
 2674 01a2 01       		.uleb128 0x1
 2675 01a3 12       		.uleb128 0x12
 2676 01a4 06       		.uleb128 0x6
 2677 01a5 01       		.uleb128 0x1
 2678 01a6 13       		.uleb128 0x13
 2679 01a7 00       		.byte	0
ARM GAS  /tmp/ccaDZiOV.s 			page 48


 2680 01a8 00       		.byte	0
 2681 01a9 22       		.uleb128 0x22
 2682 01aa 898201   		.uleb128 0x4109
 2683 01ad 01       		.byte	0x1
 2684 01ae 11       		.uleb128 0x11
 2685 01af 01       		.uleb128 0x1
 2686 01b0 31       		.uleb128 0x31
 2687 01b1 13       		.uleb128 0x13
 2688 01b2 00       		.byte	0
 2689 01b3 00       		.byte	0
 2690 01b4 23       		.uleb128 0x23
 2691 01b5 1D       		.uleb128 0x1d
 2692 01b6 01       		.byte	0x1
 2693 01b7 31       		.uleb128 0x31
 2694 01b8 13       		.uleb128 0x13
 2695 01b9 11       		.uleb128 0x11
 2696 01ba 01       		.uleb128 0x1
 2697 01bb 12       		.uleb128 0x12
 2698 01bc 06       		.uleb128 0x6
 2699 01bd 58       		.uleb128 0x58
 2700 01be 0B       		.uleb128 0xb
 2701 01bf 59       		.uleb128 0x59
 2702 01c0 0B       		.uleb128 0xb
 2703 01c1 01       		.uleb128 0x1
 2704 01c2 13       		.uleb128 0x13
 2705 01c3 00       		.byte	0
 2706 01c4 00       		.byte	0
 2707 01c5 24       		.uleb128 0x24
 2708 01c6 05       		.uleb128 0x5
 2709 01c7 00       		.byte	0
 2710 01c8 31       		.uleb128 0x31
 2711 01c9 13       		.uleb128 0x13
 2712 01ca 02       		.uleb128 0x2
 2713 01cb 18       		.uleb128 0x18
 2714 01cc 00       		.byte	0
 2715 01cd 00       		.byte	0
 2716 01ce 25       		.uleb128 0x25
 2717 01cf 05       		.uleb128 0x5
 2718 01d0 00       		.byte	0
 2719 01d1 31       		.uleb128 0x31
 2720 01d2 13       		.uleb128 0x13
 2721 01d3 02       		.uleb128 0x2
 2722 01d4 17       		.uleb128 0x17
 2723 01d5 00       		.byte	0
 2724 01d6 00       		.byte	0
 2725 01d7 26       		.uleb128 0x26
 2726 01d8 0B       		.uleb128 0xb
 2727 01d9 01       		.byte	0x1
 2728 01da 11       		.uleb128 0x11
 2729 01db 01       		.uleb128 0x1
 2730 01dc 12       		.uleb128 0x12
 2731 01dd 06       		.uleb128 0x6
 2732 01de 00       		.byte	0
 2733 01df 00       		.byte	0
 2734 01e0 27       		.uleb128 0x27
 2735 01e1 2E       		.uleb128 0x2e
 2736 01e2 01       		.byte	0x1
ARM GAS  /tmp/ccaDZiOV.s 			page 49


 2737 01e3 31       		.uleb128 0x31
 2738 01e4 13       		.uleb128 0x13
 2739 01e5 11       		.uleb128 0x11
 2740 01e6 01       		.uleb128 0x1
 2741 01e7 12       		.uleb128 0x12
 2742 01e8 06       		.uleb128 0x6
 2743 01e9 40       		.uleb128 0x40
 2744 01ea 18       		.uleb128 0x18
 2745 01eb 9742     		.uleb128 0x2117
 2746 01ed 19       		.uleb128 0x19
 2747 01ee 01       		.uleb128 0x1
 2748 01ef 13       		.uleb128 0x13
 2749 01f0 00       		.byte	0
 2750 01f1 00       		.byte	0
 2751 01f2 28       		.uleb128 0x28
 2752 01f3 34       		.uleb128 0x34
 2753 01f4 00       		.byte	0
 2754 01f5 03       		.uleb128 0x3
 2755 01f6 08       		.uleb128 0x8
 2756 01f7 3A       		.uleb128 0x3a
 2757 01f8 0B       		.uleb128 0xb
 2758 01f9 3B       		.uleb128 0x3b
 2759 01fa 0B       		.uleb128 0xb
 2760 01fb 49       		.uleb128 0x49
 2761 01fc 13       		.uleb128 0x13
 2762 01fd 02       		.uleb128 0x2
 2763 01fe 17       		.uleb128 0x17
 2764 01ff 00       		.byte	0
 2765 0200 00       		.byte	0
 2766 0201 29       		.uleb128 0x29
 2767 0202 34       		.uleb128 0x34
 2768 0203 00       		.byte	0
 2769 0204 03       		.uleb128 0x3
 2770 0205 08       		.uleb128 0x8
 2771 0206 3A       		.uleb128 0x3a
 2772 0207 0B       		.uleb128 0xb
 2773 0208 3B       		.uleb128 0x3b
 2774 0209 05       		.uleb128 0x5
 2775 020a 49       		.uleb128 0x49
 2776 020b 13       		.uleb128 0x13
 2777 020c 02       		.uleb128 0x2
 2778 020d 17       		.uleb128 0x17
 2779 020e 00       		.byte	0
 2780 020f 00       		.byte	0
 2781 0210 2A       		.uleb128 0x2a
 2782 0211 2E       		.uleb128 0x2e
 2783 0212 01       		.byte	0x1
 2784 0213 3F       		.uleb128 0x3f
 2785 0214 19       		.uleb128 0x19
 2786 0215 03       		.uleb128 0x3
 2787 0216 0E       		.uleb128 0xe
 2788 0217 3A       		.uleb128 0x3a
 2789 0218 0B       		.uleb128 0xb
 2790 0219 3B       		.uleb128 0x3b
 2791 021a 05       		.uleb128 0x5
 2792 021b 27       		.uleb128 0x27
 2793 021c 19       		.uleb128 0x19
ARM GAS  /tmp/ccaDZiOV.s 			page 50


 2794 021d 49       		.uleb128 0x49
 2795 021e 13       		.uleb128 0x13
 2796 021f 11       		.uleb128 0x11
 2797 0220 01       		.uleb128 0x1
 2798 0221 12       		.uleb128 0x12
 2799 0222 06       		.uleb128 0x6
 2800 0223 40       		.uleb128 0x40
 2801 0224 18       		.uleb128 0x18
 2802 0225 9742     		.uleb128 0x2117
 2803 0227 19       		.uleb128 0x19
 2804 0228 01       		.uleb128 0x1
 2805 0229 13       		.uleb128 0x13
 2806 022a 00       		.byte	0
 2807 022b 00       		.byte	0
 2808 022c 2B       		.uleb128 0x2b
 2809 022d 05       		.uleb128 0x5
 2810 022e 00       		.byte	0
 2811 022f 03       		.uleb128 0x3
 2812 0230 0E       		.uleb128 0xe
 2813 0231 3A       		.uleb128 0x3a
 2814 0232 0B       		.uleb128 0xb
 2815 0233 3B       		.uleb128 0x3b
 2816 0234 05       		.uleb128 0x5
 2817 0235 49       		.uleb128 0x49
 2818 0236 13       		.uleb128 0x13
 2819 0237 02       		.uleb128 0x2
 2820 0238 17       		.uleb128 0x17
 2821 0239 00       		.byte	0
 2822 023a 00       		.byte	0
 2823 023b 2C       		.uleb128 0x2c
 2824 023c 34       		.uleb128 0x34
 2825 023d 00       		.byte	0
 2826 023e 03       		.uleb128 0x3
 2827 023f 08       		.uleb128 0x8
 2828 0240 3A       		.uleb128 0x3a
 2829 0241 0B       		.uleb128 0xb
 2830 0242 3B       		.uleb128 0x3b
 2831 0243 05       		.uleb128 0x5
 2832 0244 49       		.uleb128 0x49
 2833 0245 13       		.uleb128 0x13
 2834 0246 02       		.uleb128 0x2
 2835 0247 18       		.uleb128 0x18
 2836 0248 00       		.byte	0
 2837 0249 00       		.byte	0
 2838 024a 2D       		.uleb128 0x2d
 2839 024b 1D       		.uleb128 0x1d
 2840 024c 01       		.byte	0x1
 2841 024d 31       		.uleb128 0x31
 2842 024e 13       		.uleb128 0x13
 2843 024f 52       		.uleb128 0x52
 2844 0250 01       		.uleb128 0x1
 2845 0251 55       		.uleb128 0x55
 2846 0252 17       		.uleb128 0x17
 2847 0253 58       		.uleb128 0x58
 2848 0254 0B       		.uleb128 0xb
 2849 0255 59       		.uleb128 0x59
 2850 0256 05       		.uleb128 0x5
ARM GAS  /tmp/ccaDZiOV.s 			page 51


 2851 0257 01       		.uleb128 0x1
 2852 0258 13       		.uleb128 0x13
 2853 0259 00       		.byte	0
 2854 025a 00       		.byte	0
 2855 025b 2E       		.uleb128 0x2e
 2856 025c 2E       		.uleb128 0x2e
 2857 025d 01       		.byte	0x1
 2858 025e 3F       		.uleb128 0x3f
 2859 025f 19       		.uleb128 0x19
 2860 0260 03       		.uleb128 0x3
 2861 0261 0E       		.uleb128 0xe
 2862 0262 3A       		.uleb128 0x3a
 2863 0263 0B       		.uleb128 0xb
 2864 0264 3B       		.uleb128 0x3b
 2865 0265 05       		.uleb128 0x5
 2866 0266 27       		.uleb128 0x27
 2867 0267 19       		.uleb128 0x19
 2868 0268 11       		.uleb128 0x11
 2869 0269 01       		.uleb128 0x1
 2870 026a 12       		.uleb128 0x12
 2871 026b 06       		.uleb128 0x6
 2872 026c 40       		.uleb128 0x40
 2873 026d 18       		.uleb128 0x18
 2874 026e 9742     		.uleb128 0x2117
 2875 0270 19       		.uleb128 0x19
 2876 0271 01       		.uleb128 0x1
 2877 0272 13       		.uleb128 0x13
 2878 0273 00       		.byte	0
 2879 0274 00       		.byte	0
 2880 0275 2F       		.uleb128 0x2f
 2881 0276 34       		.uleb128 0x34
 2882 0277 00       		.byte	0
 2883 0278 03       		.uleb128 0x3
 2884 0279 0E       		.uleb128 0xe
 2885 027a 3A       		.uleb128 0x3a
 2886 027b 0B       		.uleb128 0xb
 2887 027c 3B       		.uleb128 0x3b
 2888 027d 0B       		.uleb128 0xb
 2889 027e 49       		.uleb128 0x49
 2890 027f 13       		.uleb128 0x13
 2891 0280 3F       		.uleb128 0x3f
 2892 0281 19       		.uleb128 0x19
 2893 0282 3C       		.uleb128 0x3c
 2894 0283 19       		.uleb128 0x19
 2895 0284 00       		.byte	0
 2896 0285 00       		.byte	0
 2897 0286 30       		.uleb128 0x30
 2898 0287 34       		.uleb128 0x34
 2899 0288 00       		.byte	0
 2900 0289 03       		.uleb128 0x3
 2901 028a 0E       		.uleb128 0xe
 2902 028b 3A       		.uleb128 0x3a
 2903 028c 0B       		.uleb128 0xb
 2904 028d 3B       		.uleb128 0x3b
 2905 028e 05       		.uleb128 0x5
 2906 028f 49       		.uleb128 0x49
 2907 0290 13       		.uleb128 0x13
ARM GAS  /tmp/ccaDZiOV.s 			page 52


 2908 0291 3F       		.uleb128 0x3f
 2909 0292 19       		.uleb128 0x19
 2910 0293 3C       		.uleb128 0x3c
 2911 0294 19       		.uleb128 0x19
 2912 0295 00       		.byte	0
 2913 0296 00       		.byte	0
 2914 0297 31       		.uleb128 0x31
 2915 0298 2E       		.uleb128 0x2e
 2916 0299 00       		.byte	0
 2917 029a 3F       		.uleb128 0x3f
 2918 029b 19       		.uleb128 0x19
 2919 029c 03       		.uleb128 0x3
 2920 029d 0E       		.uleb128 0xe
 2921 029e 3A       		.uleb128 0x3a
 2922 029f 0B       		.uleb128 0xb
 2923 02a0 3B       		.uleb128 0x3b
 2924 02a1 05       		.uleb128 0x5
 2925 02a2 27       		.uleb128 0x27
 2926 02a3 19       		.uleb128 0x19
 2927 02a4 3C       		.uleb128 0x3c
 2928 02a5 19       		.uleb128 0x19
 2929 02a6 00       		.byte	0
 2930 02a7 00       		.byte	0
 2931 02a8 32       		.uleb128 0x32
 2932 02a9 2E       		.uleb128 0x2e
 2933 02aa 01       		.byte	0x1
 2934 02ab 3F       		.uleb128 0x3f
 2935 02ac 19       		.uleb128 0x19
 2936 02ad 03       		.uleb128 0x3
 2937 02ae 0E       		.uleb128 0xe
 2938 02af 3A       		.uleb128 0x3a
 2939 02b0 0B       		.uleb128 0xb
 2940 02b1 3B       		.uleb128 0x3b
 2941 02b2 0B       		.uleb128 0xb
 2942 02b3 27       		.uleb128 0x27
 2943 02b4 19       		.uleb128 0x19
 2944 02b5 3C       		.uleb128 0x3c
 2945 02b6 19       		.uleb128 0x19
 2946 02b7 01       		.uleb128 0x1
 2947 02b8 13       		.uleb128 0x13
 2948 02b9 00       		.byte	0
 2949 02ba 00       		.byte	0
 2950 02bb 33       		.uleb128 0x33
 2951 02bc 2E       		.uleb128 0x2e
 2952 02bd 01       		.byte	0x1
 2953 02be 3F       		.uleb128 0x3f
 2954 02bf 19       		.uleb128 0x19
 2955 02c0 03       		.uleb128 0x3
 2956 02c1 0E       		.uleb128 0xe
 2957 02c2 3A       		.uleb128 0x3a
 2958 02c3 0B       		.uleb128 0xb
 2959 02c4 3B       		.uleb128 0x3b
 2960 02c5 05       		.uleb128 0x5
 2961 02c6 27       		.uleb128 0x27
 2962 02c7 19       		.uleb128 0x19
 2963 02c8 3C       		.uleb128 0x3c
 2964 02c9 19       		.uleb128 0x19
ARM GAS  /tmp/ccaDZiOV.s 			page 53


 2965 02ca 01       		.uleb128 0x1
 2966 02cb 13       		.uleb128 0x13
 2967 02cc 00       		.byte	0
 2968 02cd 00       		.byte	0
 2969 02ce 34       		.uleb128 0x34
 2970 02cf 2E       		.uleb128 0x2e
 2971 02d0 01       		.byte	0x1
 2972 02d1 3F       		.uleb128 0x3f
 2973 02d2 19       		.uleb128 0x19
 2974 02d3 03       		.uleb128 0x3
 2975 02d4 0E       		.uleb128 0xe
 2976 02d5 3A       		.uleb128 0x3a
 2977 02d6 0B       		.uleb128 0xb
 2978 02d7 3B       		.uleb128 0x3b
 2979 02d8 0B       		.uleb128 0xb
 2980 02d9 27       		.uleb128 0x27
 2981 02da 19       		.uleb128 0x19
 2982 02db 49       		.uleb128 0x49
 2983 02dc 13       		.uleb128 0x13
 2984 02dd 3C       		.uleb128 0x3c
 2985 02de 19       		.uleb128 0x19
 2986 02df 01       		.uleb128 0x1
 2987 02e0 13       		.uleb128 0x13
 2988 02e1 00       		.byte	0
 2989 02e2 00       		.byte	0
 2990 02e3 35       		.uleb128 0x35
 2991 02e4 2E       		.uleb128 0x2e
 2992 02e5 00       		.byte	0
 2993 02e6 3F       		.uleb128 0x3f
 2994 02e7 19       		.uleb128 0x19
 2995 02e8 03       		.uleb128 0x3
 2996 02e9 0E       		.uleb128 0xe
 2997 02ea 3A       		.uleb128 0x3a
 2998 02eb 0B       		.uleb128 0xb
 2999 02ec 3B       		.uleb128 0x3b
 3000 02ed 0B       		.uleb128 0xb
 3001 02ee 27       		.uleb128 0x27
 3002 02ef 19       		.uleb128 0x19
 3003 02f0 49       		.uleb128 0x49
 3004 02f1 13       		.uleb128 0x13
 3005 02f2 3C       		.uleb128 0x3c
 3006 02f3 19       		.uleb128 0x19
 3007 02f4 00       		.byte	0
 3008 02f5 00       		.byte	0
 3009 02f6 00       		.byte	0
 3010              		.section	.debug_loc,"",%progbits
 3011              	.Ldebug_loc0:
 3012              	.LLST0:
 3013 0000 00000000 		.4byte	.LVL1
 3014 0004 12000000 		.4byte	.LVL2
 3015 0008 0100     		.2byte	0x1
 3016 000a 50       		.byte	0x50
 3017 000b 12000000 		.4byte	.LVL2
 3018 000f 15000000 		.4byte	.LVL3-1
 3019 0013 0300     		.2byte	0x3
 3020 0015 70       		.byte	0x70
 3021 0016 68       		.sleb128 -24
ARM GAS  /tmp/ccaDZiOV.s 			page 54


 3022 0017 9F       		.byte	0x9f
 3023 0018 15000000 		.4byte	.LVL3-1
 3024 001c 16000000 		.4byte	.LFE64
 3025 0020 0400     		.2byte	0x4
 3026 0022 F3       		.byte	0xf3
 3027 0023 01       		.uleb128 0x1
 3028 0024 50       		.byte	0x50
 3029 0025 9F       		.byte	0x9f
 3030 0026 00000000 		.4byte	0
 3031 002a 00000000 		.4byte	0
 3032              	.LLST1:
 3033 002e 00000000 		.4byte	.LVL4
 3034 0032 0F000000 		.4byte	.LVL5-1
 3035 0036 0100     		.2byte	0x1
 3036 0038 50       		.byte	0x50
 3037 0039 0F000000 		.4byte	.LVL5-1
 3038 003d 1C000000 		.4byte	.LFE65
 3039 0041 0100     		.2byte	0x1
 3040 0043 54       		.byte	0x54
 3041 0044 00000000 		.4byte	0
 3042 0048 00000000 		.4byte	0
 3043              	.LLST2:
 3044 004c 00000000 		.4byte	.LVL4
 3045 0050 0F000000 		.4byte	.LVL5-1
 3046 0054 0100     		.2byte	0x1
 3047 0056 51       		.byte	0x51
 3048 0057 0F000000 		.4byte	.LVL5-1
 3049 005b 1C000000 		.4byte	.LFE65
 3050 005f 0400     		.2byte	0x4
 3051 0061 F3       		.byte	0xf3
 3052 0062 01       		.uleb128 0x1
 3053 0063 51       		.byte	0x51
 3054 0064 9F       		.byte	0x9f
 3055 0065 00000000 		.4byte	0
 3056 0069 00000000 		.4byte	0
 3057              	.LLST3:
 3058 006d 00000000 		.4byte	.LVL6
 3059 0071 0D000000 		.4byte	.LVL7-1
 3060 0075 0100     		.2byte	0x1
 3061 0077 50       		.byte	0x50
 3062 0078 0D000000 		.4byte	.LVL7-1
 3063 007c 1A000000 		.4byte	.LFE66
 3064 0080 0100     		.2byte	0x1
 3065 0082 54       		.byte	0x54
 3066 0083 00000000 		.4byte	0
 3067 0087 00000000 		.4byte	0
 3068              	.LLST4:
 3069 008b 00000000 		.4byte	.LVL8
 3070 008f 17000000 		.4byte	.LVL11-1
 3071 0093 0100     		.2byte	0x1
 3072 0095 50       		.byte	0x50
 3073 0096 17000000 		.4byte	.LVL11-1
 3074 009a 20000000 		.4byte	.LFE67
 3075 009e 0400     		.2byte	0x4
 3076 00a0 F3       		.byte	0xf3
 3077 00a1 01       		.uleb128 0x1
 3078 00a2 50       		.byte	0x50
ARM GAS  /tmp/ccaDZiOV.s 			page 55


 3079 00a3 9F       		.byte	0x9f
 3080 00a4 00000000 		.4byte	0
 3081 00a8 00000000 		.4byte	0
 3082              	.LLST5:
 3083 00ac 00000000 		.4byte	.LVL8
 3084 00b0 17000000 		.4byte	.LVL11-1
 3085 00b4 0100     		.2byte	0x1
 3086 00b6 51       		.byte	0x51
 3087 00b7 17000000 		.4byte	.LVL11-1
 3088 00bb 20000000 		.4byte	.LFE67
 3089 00bf 0400     		.2byte	0x4
 3090 00c1 F3       		.byte	0xf3
 3091 00c2 01       		.uleb128 0x1
 3092 00c3 51       		.byte	0x51
 3093 00c4 9F       		.byte	0x9f
 3094 00c5 00000000 		.4byte	0
 3095 00c9 00000000 		.4byte	0
 3096              	.LLST6:
 3097 00cd 00000000 		.4byte	.LVL8
 3098 00d1 17000000 		.4byte	.LVL11-1
 3099 00d5 0100     		.2byte	0x1
 3100 00d7 52       		.byte	0x52
 3101 00d8 17000000 		.4byte	.LVL11-1
 3102 00dc 20000000 		.4byte	.LFE67
 3103 00e0 0400     		.2byte	0x4
 3104 00e2 F3       		.byte	0xf3
 3105 00e3 01       		.uleb128 0x1
 3106 00e4 52       		.byte	0x52
 3107 00e5 9F       		.byte	0x9f
 3108 00e6 00000000 		.4byte	0
 3109 00ea 00000000 		.4byte	0
 3110              	.LLST7:
 3111 00ee 00000000 		.4byte	.LVL8
 3112 00f2 06000000 		.4byte	.LVL9
 3113 00f6 0100     		.2byte	0x1
 3114 00f8 53       		.byte	0x53
 3115 00f9 06000000 		.4byte	.LVL9
 3116 00fd 20000000 		.4byte	.LFE67
 3117 0101 0100     		.2byte	0x1
 3118 0103 54       		.byte	0x54
 3119 0104 00000000 		.4byte	0
 3120 0108 00000000 		.4byte	0
 3121              	.LLST8:
 3122 010c 0A000000 		.4byte	.LVL10
 3123 0110 17000000 		.4byte	.LVL11-1
 3124 0114 0100     		.2byte	0x1
 3125 0116 52       		.byte	0x52
 3126 0117 17000000 		.4byte	.LVL11-1
 3127 011b 20000000 		.4byte	.LFE67
 3128 011f 0400     		.2byte	0x4
 3129 0121 F3       		.byte	0xf3
 3130 0122 01       		.uleb128 0x1
 3131 0123 52       		.byte	0x52
 3132 0124 9F       		.byte	0x9f
 3133 0125 00000000 		.4byte	0
 3134 0129 00000000 		.4byte	0
 3135              	.LLST9:
ARM GAS  /tmp/ccaDZiOV.s 			page 56


 3136 012d 0A000000 		.4byte	.LVL10
 3137 0131 17000000 		.4byte	.LVL11-1
 3138 0135 0100     		.2byte	0x1
 3139 0137 51       		.byte	0x51
 3140 0138 17000000 		.4byte	.LVL11-1
 3141 013c 20000000 		.4byte	.LFE67
 3142 0140 0400     		.2byte	0x4
 3143 0142 F3       		.byte	0xf3
 3144 0143 01       		.uleb128 0x1
 3145 0144 51       		.byte	0x51
 3146 0145 9F       		.byte	0x9f
 3147 0146 00000000 		.4byte	0
 3148 014a 00000000 		.4byte	0
 3149              	.LLST10:
 3150 014e 0A000000 		.4byte	.LVL10
 3151 0152 17000000 		.4byte	.LVL11-1
 3152 0156 0100     		.2byte	0x1
 3153 0158 50       		.byte	0x50
 3154 0159 17000000 		.4byte	.LVL11-1
 3155 015d 20000000 		.4byte	.LFE67
 3156 0161 0400     		.2byte	0x4
 3157 0163 F3       		.byte	0xf3
 3158 0164 01       		.uleb128 0x1
 3159 0165 50       		.byte	0x50
 3160 0166 9F       		.byte	0x9f
 3161 0167 00000000 		.4byte	0
 3162 016b 00000000 		.4byte	0
 3163              	.LLST11:
 3164 016f 00000000 		.4byte	.LVL12
 3165 0173 11000000 		.4byte	.LVL13-1
 3166 0177 0100     		.2byte	0x1
 3167 0179 50       		.byte	0x50
 3168 017a 11000000 		.4byte	.LVL13-1
 3169 017e 12000000 		.4byte	.LFE68
 3170 0182 0400     		.2byte	0x4
 3171 0184 F3       		.byte	0xf3
 3172 0185 01       		.uleb128 0x1
 3173 0186 50       		.byte	0x50
 3174 0187 9F       		.byte	0x9f
 3175 0188 00000000 		.4byte	0
 3176 018c 00000000 		.4byte	0
 3177              	.LLST12:
 3178 0190 00000000 		.4byte	.LVL12
 3179 0194 11000000 		.4byte	.LVL13-1
 3180 0198 0100     		.2byte	0x1
 3181 019a 51       		.byte	0x51
 3182 019b 11000000 		.4byte	.LVL13-1
 3183 019f 12000000 		.4byte	.LFE68
 3184 01a3 0400     		.2byte	0x4
 3185 01a5 F3       		.byte	0xf3
 3186 01a6 01       		.uleb128 0x1
 3187 01a7 51       		.byte	0x51
 3188 01a8 9F       		.byte	0x9f
 3189 01a9 00000000 		.4byte	0
 3190 01ad 00000000 		.4byte	0
 3191              	.LLST13:
 3192 01b1 00000000 		.4byte	.LVL12
ARM GAS  /tmp/ccaDZiOV.s 			page 57


 3193 01b5 11000000 		.4byte	.LVL13-1
 3194 01b9 0100     		.2byte	0x1
 3195 01bb 52       		.byte	0x52
 3196 01bc 11000000 		.4byte	.LVL13-1
 3197 01c0 12000000 		.4byte	.LFE68
 3198 01c4 0400     		.2byte	0x4
 3199 01c6 F3       		.byte	0xf3
 3200 01c7 01       		.uleb128 0x1
 3201 01c8 52       		.byte	0x52
 3202 01c9 9F       		.byte	0x9f
 3203 01ca 00000000 		.4byte	0
 3204 01ce 00000000 		.4byte	0
 3205              	.LLST14:
 3206 01d2 00000000 		.4byte	.LVL12
 3207 01d6 11000000 		.4byte	.LVL13-1
 3208 01da 0100     		.2byte	0x1
 3209 01dc 53       		.byte	0x53
 3210 01dd 11000000 		.4byte	.LVL13-1
 3211 01e1 12000000 		.4byte	.LFE68
 3212 01e5 0400     		.2byte	0x4
 3213 01e7 F3       		.byte	0xf3
 3214 01e8 01       		.uleb128 0x1
 3215 01e9 53       		.byte	0x53
 3216 01ea 9F       		.byte	0x9f
 3217 01eb 00000000 		.4byte	0
 3218 01ef 00000000 		.4byte	0
 3219              	.LLST15:
 3220 01f3 00000000 		.4byte	.LVL14
 3221 01f7 13000000 		.4byte	.LVL15-1
 3222 01fb 0100     		.2byte	0x1
 3223 01fd 50       		.byte	0x50
 3224 01fe 13000000 		.4byte	.LVL15-1
 3225 0202 32000000 		.4byte	.LFE69
 3226 0206 0100     		.2byte	0x1
 3227 0208 54       		.byte	0x54
 3228 0209 00000000 		.4byte	0
 3229 020d 00000000 		.4byte	0
 3230              	.LLST16:
 3231 0211 20000000 		.4byte	.LVL16
 3232 0215 29000000 		.4byte	.LVL17-1
 3233 0219 0100     		.2byte	0x1
 3234 021b 50       		.byte	0x50
 3235 021c 00000000 		.4byte	0
 3236 0220 00000000 		.4byte	0
 3237              	.LLST17:
 3238 0224 00000000 		.4byte	.LVL18
 3239 0228 0D000000 		.4byte	.LVL19-1
 3240 022c 0100     		.2byte	0x1
 3241 022e 50       		.byte	0x50
 3242 022f 0D000000 		.4byte	.LVL19-1
 3243 0233 28000000 		.4byte	.LVL21
 3244 0237 0100     		.2byte	0x1
 3245 0239 54       		.byte	0x54
 3246 023a 28000000 		.4byte	.LVL21
 3247 023e 2C000000 		.4byte	.LVL22
 3248 0242 0400     		.2byte	0x4
 3249 0244 F3       		.byte	0xf3
ARM GAS  /tmp/ccaDZiOV.s 			page 58


 3250 0245 01       		.uleb128 0x1
 3251 0246 50       		.byte	0x50
 3252 0247 9F       		.byte	0x9f
 3253 0248 2C000000 		.4byte	.LVL22
 3254 024c 2E000000 		.4byte	.LFE70
 3255 0250 0100     		.2byte	0x1
 3256 0252 54       		.byte	0x54
 3257 0253 00000000 		.4byte	0
 3258 0257 00000000 		.4byte	0
 3259              	.LLST18:
 3260 025b 1A000000 		.4byte	.LVL20
 3261 025f 2B000000 		.4byte	.LVL22-1
 3262 0263 0100     		.2byte	0x1
 3263 0265 53       		.byte	0x53
 3264 0266 00000000 		.4byte	0
 3265 026a 00000000 		.4byte	0
 3266              	.LLST19:
 3267 026e 00000000 		.4byte	.LVL23
 3268 0272 21000000 		.4byte	.LVL26-1
 3269 0276 0100     		.2byte	0x1
 3270 0278 50       		.byte	0x50
 3271 0279 21000000 		.4byte	.LVL26-1
 3272 027d 38000000 		.4byte	.LFE71
 3273 0281 0100     		.2byte	0x1
 3274 0283 54       		.byte	0x54
 3275 0284 00000000 		.4byte	0
 3276 0288 00000000 		.4byte	0
 3277              	.LLST20:
 3278 028c 00000000 		.4byte	.LVL23
 3279 0290 21000000 		.4byte	.LVL26-1
 3280 0294 0100     		.2byte	0x1
 3281 0296 51       		.byte	0x51
 3282 0297 21000000 		.4byte	.LVL26-1
 3283 029b 38000000 		.4byte	.LFE71
 3284 029f 0400     		.2byte	0x4
 3285 02a1 F3       		.byte	0xf3
 3286 02a2 01       		.uleb128 0x1
 3287 02a3 51       		.byte	0x51
 3288 02a4 9F       		.byte	0x9f
 3289 02a5 00000000 		.4byte	0
 3290 02a9 00000000 		.4byte	0
 3291              	.LLST21:
 3292 02ad 00000000 		.4byte	.LVL23
 3293 02b1 21000000 		.4byte	.LVL26-1
 3294 02b5 0100     		.2byte	0x1
 3295 02b7 52       		.byte	0x52
 3296 02b8 21000000 		.4byte	.LVL26-1
 3297 02bc 38000000 		.4byte	.LFE71
 3298 02c0 0400     		.2byte	0x4
 3299 02c2 F3       		.byte	0xf3
 3300 02c3 01       		.uleb128 0x1
 3301 02c4 52       		.byte	0x52
 3302 02c5 9F       		.byte	0x9f
 3303 02c6 00000000 		.4byte	0
 3304 02ca 00000000 		.4byte	0
 3305              	.LLST22:
 3306 02ce 00000000 		.4byte	.LVL23
ARM GAS  /tmp/ccaDZiOV.s 			page 59


 3307 02d2 08000000 		.4byte	.LVL24
 3308 02d6 0100     		.2byte	0x1
 3309 02d8 53       		.byte	0x53
 3310 02d9 08000000 		.4byte	.LVL24
 3311 02dd 38000000 		.4byte	.LFE71
 3312 02e1 0100     		.2byte	0x1
 3313 02e3 56       		.byte	0x56
 3314 02e4 00000000 		.4byte	0
 3315 02e8 00000000 		.4byte	0
 3316              	.LLST23:
 3317 02ec 0C000000 		.4byte	.LVL25
 3318 02f0 21000000 		.4byte	.LVL26-1
 3319 02f4 0100     		.2byte	0x1
 3320 02f6 52       		.byte	0x52
 3321 02f7 21000000 		.4byte	.LVL26-1
 3322 02fb 38000000 		.4byte	.LFE71
 3323 02ff 0400     		.2byte	0x4
 3324 0301 F3       		.byte	0xf3
 3325 0302 01       		.uleb128 0x1
 3326 0303 52       		.byte	0x52
 3327 0304 9F       		.byte	0x9f
 3328 0305 00000000 		.4byte	0
 3329 0309 00000000 		.4byte	0
 3330              	.LLST24:
 3331 030d 0C000000 		.4byte	.LVL25
 3332 0311 21000000 		.4byte	.LVL26-1
 3333 0315 0100     		.2byte	0x1
 3334 0317 51       		.byte	0x51
 3335 0318 21000000 		.4byte	.LVL26-1
 3336 031c 38000000 		.4byte	.LFE71
 3337 0320 0400     		.2byte	0x4
 3338 0322 F3       		.byte	0xf3
 3339 0323 01       		.uleb128 0x1
 3340 0324 51       		.byte	0x51
 3341 0325 9F       		.byte	0x9f
 3342 0326 00000000 		.4byte	0
 3343 032a 00000000 		.4byte	0
 3344              	.LLST25:
 3345 032e 0C000000 		.4byte	.LVL25
 3346 0332 21000000 		.4byte	.LVL26-1
 3347 0336 0100     		.2byte	0x1
 3348 0338 50       		.byte	0x50
 3349 0339 21000000 		.4byte	.LVL26-1
 3350 033d 38000000 		.4byte	.LFE71
 3351 0341 0100     		.2byte	0x1
 3352 0343 54       		.byte	0x54
 3353 0344 00000000 		.4byte	0
 3354 0348 00000000 		.4byte	0
 3355              	.LLST26:
 3356 034c 00000000 		.4byte	.LVL29
 3357 0350 02000000 		.4byte	.LVL30
 3358 0354 0100     		.2byte	0x1
 3359 0356 50       		.byte	0x50
 3360 0357 02000000 		.4byte	.LVL30
 3361 035b 05000000 		.4byte	.LVL31-1
 3362 035f 0300     		.2byte	0x3
 3363 0361 70       		.byte	0x70
ARM GAS  /tmp/ccaDZiOV.s 			page 60


 3364 0362 68       		.sleb128 -24
 3365 0363 9F       		.byte	0x9f
 3366 0364 05000000 		.4byte	.LVL31-1
 3367 0368 06000000 		.4byte	.LFE72
 3368 036c 0400     		.2byte	0x4
 3369 036e F3       		.byte	0xf3
 3370 036f 01       		.uleb128 0x1
 3371 0370 50       		.byte	0x50
 3372 0371 9F       		.byte	0x9f
 3373 0372 00000000 		.4byte	0
 3374 0376 00000000 		.4byte	0
 3375              	.LLST27:
 3376 037a 00000000 		.4byte	.LVL32
 3377 037e 03000000 		.4byte	.LVL33-1
 3378 0382 0100     		.2byte	0x1
 3379 0384 50       		.byte	0x50
 3380 0385 03000000 		.4byte	.LVL33-1
 3381 0389 04000000 		.4byte	.LFE73
 3382 038d 0400     		.2byte	0x4
 3383 038f F3       		.byte	0xf3
 3384 0390 01       		.uleb128 0x1
 3385 0391 50       		.byte	0x50
 3386 0392 9F       		.byte	0x9f
 3387 0393 00000000 		.4byte	0
 3388 0397 00000000 		.4byte	0
 3389              		.section	.debug_aranges,"",%progbits
 3390 0000 6C000000 		.4byte	0x6c
 3391 0004 0200     		.2byte	0x2
 3392 0006 00000000 		.4byte	.Ldebug_info0
 3393 000a 04       		.byte	0x4
 3394 000b 00       		.byte	0
 3395 000c 0000     		.2byte	0
 3396 000e 0000     		.2byte	0
 3397 0010 00000000 		.4byte	.LFB63
 3398 0014 04000000 		.4byte	.LFE63-.LFB63
 3399 0018 00000000 		.4byte	.LFB64
 3400 001c 16000000 		.4byte	.LFE64-.LFB64
 3401 0020 00000000 		.4byte	.LFB65
 3402 0024 1C000000 		.4byte	.LFE65-.LFB65
 3403 0028 00000000 		.4byte	.LFB66
 3404 002c 1A000000 		.4byte	.LFE66-.LFB66
 3405 0030 00000000 		.4byte	.LFB67
 3406 0034 20000000 		.4byte	.LFE67-.LFB67
 3407 0038 00000000 		.4byte	.LFB68
 3408 003c 12000000 		.4byte	.LFE68-.LFB68
 3409 0040 00000000 		.4byte	.LFB69
 3410 0044 32000000 		.4byte	.LFE69-.LFB69
 3411 0048 00000000 		.4byte	.LFB70
 3412 004c 2E000000 		.4byte	.LFE70-.LFB70
 3413 0050 00000000 		.4byte	.LFB71
 3414 0054 38000000 		.4byte	.LFE71-.LFB71
 3415 0058 00000000 		.4byte	.LFB72
 3416 005c 06000000 		.4byte	.LFE72-.LFB72
 3417 0060 00000000 		.4byte	.LFB73
 3418 0064 04000000 		.4byte	.LFE73-.LFB73
 3419 0068 00000000 		.4byte	0
 3420 006c 00000000 		.4byte	0
ARM GAS  /tmp/ccaDZiOV.s 			page 61


 3421              		.section	.debug_ranges,"",%progbits
 3422              	.Ldebug_ranges0:
 3423 0000 02000000 		.4byte	.LBB10
 3424 0004 04000000 		.4byte	.LBE10
 3425 0008 06000000 		.4byte	.LBB11
 3426 000c 0A000000 		.4byte	.LBE11
 3427 0010 00000000 		.4byte	0
 3428 0014 00000000 		.4byte	0
 3429 0018 02000000 		.4byte	.LBB13
 3430 001c 04000000 		.4byte	.LBE13
 3431 0020 06000000 		.4byte	.LBB14
 3432 0024 0A000000 		.4byte	.LBE14
 3433 0028 00000000 		.4byte	0
 3434 002c 00000000 		.4byte	0
 3435 0030 02000000 		.4byte	.LBB20
 3436 0034 04000000 		.4byte	.LBE20
 3437 0038 06000000 		.4byte	.LBB21
 3438 003c 0A000000 		.4byte	.LBE21
 3439 0040 00000000 		.4byte	0
 3440 0044 00000000 		.4byte	0
 3441 0048 1A000000 		.4byte	.LBB24
 3442 004c 24000000 		.4byte	.LBE24
 3443 0050 28000000 		.4byte	.LBB25
 3444 0054 2E000000 		.4byte	.LBE25
 3445 0058 00000000 		.4byte	0
 3446 005c 00000000 		.4byte	0
 3447 0060 0C000000 		.4byte	.LBB27
 3448 0064 0E000000 		.4byte	.LBE27
 3449 0068 12000000 		.4byte	.LBB31
 3450 006c 1A000000 		.4byte	.LBE31
 3451 0070 1E000000 		.4byte	.LBB32
 3452 0074 22000000 		.4byte	.LBE32
 3453 0078 00000000 		.4byte	0
 3454 007c 00000000 		.4byte	0
 3455 0080 2E000000 		.4byte	.LBB33
 3456 0084 30000000 		.4byte	.LBE33
 3457 0088 32000000 		.4byte	.LBB34
 3458 008c 36000000 		.4byte	.LBE34
 3459 0090 00000000 		.4byte	0
 3460 0094 00000000 		.4byte	0
 3461 0098 00000000 		.4byte	.LFB63
 3462 009c 04000000 		.4byte	.LFE63
 3463 00a0 00000000 		.4byte	.LFB64
 3464 00a4 16000000 		.4byte	.LFE64
 3465 00a8 00000000 		.4byte	.LFB65
 3466 00ac 1C000000 		.4byte	.LFE65
 3467 00b0 00000000 		.4byte	.LFB66
 3468 00b4 1A000000 		.4byte	.LFE66
 3469 00b8 00000000 		.4byte	.LFB67
 3470 00bc 20000000 		.4byte	.LFE67
 3471 00c0 00000000 		.4byte	.LFB68
 3472 00c4 12000000 		.4byte	.LFE68
 3473 00c8 00000000 		.4byte	.LFB69
 3474 00cc 32000000 		.4byte	.LFE69
 3475 00d0 00000000 		.4byte	.LFB70
 3476 00d4 2E000000 		.4byte	.LFE70
 3477 00d8 00000000 		.4byte	.LFB71
ARM GAS  /tmp/ccaDZiOV.s 			page 62


 3478 00dc 38000000 		.4byte	.LFE71
 3479 00e0 00000000 		.4byte	.LFB72
 3480 00e4 06000000 		.4byte	.LFE72
 3481 00e8 00000000 		.4byte	.LFB73
 3482 00ec 04000000 		.4byte	.LFE73
 3483 00f0 00000000 		.4byte	0
 3484 00f4 00000000 		.4byte	0
 3485              		.section	.debug_line,"",%progbits
 3486              	.Ldebug_line0:
 3487 0000 5A030000 		.section	.debug_str,"MS",%progbits,1
 3487      02001902 
 3487      00000201 
 3487      FB0E0D00 
 3487      01010101 
 3488              	.LASF2:
 3489 0000 73697A65 		.ascii	"size_t\000"
 3489      5F7400
 3490              	.LASF65:
 3491 0007 7264796D 		.ascii	"rdymsg\000"
 3491      736700
 3492              	.LASF120:
 3493 000e 646D616D 		.ascii	"dmamode\000"
 3493      6F646500 
 3494              	.LASF105:
 3495 0016 61646373 		.ascii	"adcstate_t\000"
 3495      74617465 
 3495      5F7400
 3496              	.LASF3:
 3497 0021 5F5F7569 		.ascii	"__uint8_t\000"
 3497      6E74385F 
 3497      7400
 3498              	.LASF142:
 3499 002b 61646353 		.ascii	"adcStop\000"
 3499      746F7000 
 3500              	.LASF153:
 3501 0033 6164635F 		.ascii	"adc_lld_stop\000"
 3501      6C6C645F 
 3501      73746F70 
 3501      00
 3502              	.LASF13:
 3503 0040 6C6F6E67 		.ascii	"long long unsigned int\000"
 3503      206C6F6E 
 3503      6720756E 
 3503      7369676E 
 3503      65642069 
 3504              	.LASF66:
 3505 0057 65786974 		.ascii	"exitcode\000"
 3505      636F6465 
 3505      00
 3506              	.LASF97:
 3507 0060 76656374 		.ascii	"vector\000"
 3507      6F7200
 3508              	.LASF149:
 3509 0067 49544D5F 		.ascii	"ITM_RxBuffer\000"
 3509      52784275 
 3509      66666572 
 3509      00
ARM GAS  /tmp/ccaDZiOV.s 			page 63


 3510              	.LASF31:
 3511 0074 705F7072 		.ascii	"p_prio\000"
 3511      696F00
 3512              	.LASF82:
 3513 007b 4A535152 		.ascii	"JSQR\000"
 3513      00
 3514              	.LASF165:
 3515 0080 63684D74 		.ascii	"chMtxUnlock\000"
 3515      78556E6C 
 3515      6F636B00 
 3516              	.LASF1:
 3517 008c 7369676E 		.ascii	"signed char\000"
 3517      65642063 
 3517      68617200 
 3518              	.LASF47:
 3519 0098 705F6D70 		.ascii	"p_mpool\000"
 3519      6F6F6C00 
 3520              	.LASF18:
 3521 00a0 626F6F6C 		.ascii	"bool_t\000"
 3521      5F7400
 3522              	.LASF62:
 3523 00a7 6D5F7175 		.ascii	"m_queue\000"
 3523      65756500 
 3524              	.LASF110:
 3525 00af 61646365 		.ascii	"adcerror_t\000"
 3525      72726F72 
 3525      5F7400
 3526              	.LASF119:
 3527 00ba 646D6173 		.ascii	"dmastp\000"
 3527      747000
 3528              	.LASF104:
 3529 00c1 4144435F 		.ascii	"ADC_ERROR\000"
 3529      4552524F 
 3529      5200
 3530              	.LASF112:
 3531 00cb 73746174 		.ascii	"state\000"
 3531      6500
 3532              	.LASF123:
 3533 00d1 63697263 		.ascii	"circular\000"
 3533      756C6172 
 3533      00
 3534              	.LASF9:
 3535 00da 6C6F6E67 		.ascii	"long int\000"
 3535      20696E74 
 3535      00
 3536              	.LASF108:
 3537 00e3 4144435F 		.ascii	"ADC_ERR_DMAFAILURE\000"
 3537      4552525F 
 3537      444D4146 
 3537      41494C55 
 3537      524500
 3538              	.LASF154:
 3539 00f6 6164635F 		.ascii	"adc_lld_start_conversion\000"
 3539      6C6C645F 
 3539      73746172 
 3539      745F636F 
 3539      6E766572 
ARM GAS  /tmp/ccaDZiOV.s 			page 64


 3540              	.LASF122:
 3541 010f 61646365 		.ascii	"adcerrorcallback_t\000"
 3541      72726F72 
 3541      63616C6C 
 3541      6261636B 
 3541      5F7400
 3542              	.LASF21:
 3543 0122 74737461 		.ascii	"tstate_t\000"
 3543      74655F74 
 3543      00
 3544              	.LASF117:
 3545 012b 74687265 		.ascii	"thread\000"
 3545      616400
 3546              	.LASF12:
 3547 0132 6C6F6E67 		.ascii	"long long int\000"
 3547      206C6F6E 
 3547      6720696E 
 3547      7400
 3548              	.LASF15:
 3549 0140 75696E74 		.ascii	"uint16_t\000"
 3549      31365F74 
 3549      00
 3550              	.LASF40:
 3551 0149 705F7469 		.ascii	"p_time\000"
 3551      6D6500
 3552              	.LASF88:
 3553 0150 4144435F 		.ascii	"ADC_TypeDef\000"
 3553      54797065 
 3553      44656600 
 3554              	.LASF33:
 3555 015c 705F6E65 		.ascii	"p_newer\000"
 3555      77657200 
 3556              	.LASF125:
 3557 0164 656E645F 		.ascii	"end_cb\000"
 3557      636200
 3558              	.LASF121:
 3559 016b 61646363 		.ascii	"adccallback_t\000"
 3559      616C6C62 
 3559      61636B5F 
 3559      7400
 3560              	.LASF106:
 3561 0179 61646373 		.ascii	"adcsample_t\000"
 3561      616D706C 
 3561      655F7400 
 3562              	.LASF57:
 3563 0185 725F6E65 		.ascii	"r_newer\000"
 3563      77657200 
 3564              	.LASF137:
 3565 018d 41444343 		.ascii	"ADCConfig\000"
 3565      6F6E6669 
 3565      6700
 3566              	.LASF50:
 3567 0197 72656761 		.ascii	"regarm_t\000"
 3567      726D5F74 
 3567      00
 3568              	.LASF96:
 3569 01a0 73656C66 		.ascii	"selfindex\000"
ARM GAS  /tmp/ccaDZiOV.s 			page 65


 3569      696E6465 
 3569      7800
 3570              	.LASF136:
 3571 01aa 64756D6D 		.ascii	"dummy\000"
 3571      7900
 3572              	.LASF28:
 3573 01b0 54687265 		.ascii	"Thread\000"
 3573      616400
 3574              	.LASF27:
 3575 01b7 73797374 		.ascii	"systime_t\000"
 3575      696D655F 
 3575      7400
 3576              	.LASF99:
 3577 01c1 4144435F 		.ascii	"ADC_UNINIT\000"
 3577      554E494E 
 3577      495400
 3578              	.LASF109:
 3579 01cc 4144435F 		.ascii	"ADC_ERR_OVERFLOW\000"
 3579      4552525F 
 3579      4F564552 
 3579      464C4F57 
 3579      00
 3580              	.LASF102:
 3581 01dd 4144435F 		.ascii	"ADC_ACTIVE\000"
 3581      41435449 
 3581      564500
 3582              	.LASF23:
 3583 01e8 74736C69 		.ascii	"tslices_t\000"
 3583      6365735F 
 3583      7400
 3584              	.LASF0:
 3585 01f2 756E7369 		.ascii	"unsigned int\000"
 3585      676E6564 
 3585      20696E74 
 3585      00
 3586              	.LASF160:
 3587 01ff 2E2E2F43 		.ascii	"../ChibiOS_2.6.4/os/hal/src/adc.c\000"
 3587      68696269 
 3587      4F535F32 
 3587      2E362E34 
 3587      2F6F732F 
 3588              	.LASF140:
 3589 0221 6164634F 		.ascii	"adcObjectInit\000"
 3589      626A6563 
 3589      74496E69 
 3589      7400
 3590              	.LASF90:
 3591 022f 43504152 		.ascii	"CPAR\000"
 3591      00
 3592              	.LASF42:
 3593 0234 705F6D73 		.ascii	"p_msgqueue\000"
 3593      67717565 
 3593      756500
 3594              	.LASF111:
 3595 023f 41444344 		.ascii	"ADCDriver\000"
 3595      72697665 
 3595      7200
ARM GAS  /tmp/ccaDZiOV.s 			page 66


 3596              	.LASF138:
 3597 0249 61646370 		.ascii	"adcp\000"
 3597      00
 3598              	.LASF92:
 3599 024e 444D415F 		.ascii	"DMA_Channel_TypeDef\000"
 3599      4368616E 
 3599      6E656C5F 
 3599      54797065 
 3599      44656600 
 3600              	.LASF95:
 3601 0262 69736869 		.ascii	"ishift\000"
 3601      667400
 3602              	.LASF7:
 3603 0269 73686F72 		.ascii	"short unsigned int\000"
 3603      7420756E 
 3603      7369676E 
 3603      65642069 
 3603      6E7400
 3604              	.LASF101:
 3605 027c 4144435F 		.ascii	"ADC_READY\000"
 3605      52454144 
 3605      5900
 3606              	.LASF115:
 3607 0286 64657074 		.ascii	"depth\000"
 3607      6800
 3608              	.LASF25:
 3609 028c 6D73675F 		.ascii	"msg_t\000"
 3609      7400
 3610              	.LASF46:
 3611 0292 705F7265 		.ascii	"p_realprio\000"
 3611      616C7072 
 3611      696F00
 3612              	.LASF159:
 3613 029d 474E5520 		.ascii	"GNU C 4.8.2 -mcpu=cortex-m3 -mno-thumb-interwork -m"
 3613      4320342E 
 3613      382E3220 
 3613      2D6D6370 
 3613      753D636F 
 3614 02d0 7468756D 		.ascii	"thumb -ggdb -O2 -fomit-frame-pointer -ffunction-sec"
 3614      62202D67 
 3614      67646220 
 3614      2D4F3220 
 3614      2D666F6D 
 3615 0303 74696F6E 		.ascii	"tions -fdata-sections -fno-common\000"
 3615      73202D66 
 3615      64617461 
 3615      2D736563 
 3615      74696F6E 
 3616              	.LASF20:
 3617 0325 746D6F64 		.ascii	"tmode_t\000"
 3617      655F7400 
 3618              	.LASF124:
 3619 032d 6E756D5F 		.ascii	"num_channels\000"
 3619      6368616E 
 3619      6E656C73 
 3619      00
 3620              	.LASF49:
ARM GAS  /tmp/ccaDZiOV.s 			page 67


 3621 033a 54687265 		.ascii	"ThreadsList\000"
 3621      6164734C 
 3621      69737400 
 3622              	.LASF26:
 3623 0346 6576656E 		.ascii	"eventmask_t\000"
 3623      746D6173 
 3623      6B5F7400 
 3624              	.LASF5:
 3625 0352 73686F72 		.ascii	"short int\000"
 3625      7420696E 
 3625      7400
 3626              	.LASF139:
 3627 035c 61646349 		.ascii	"adcInit\000"
 3627      6E697400 
 3628              	.LASF91:
 3629 0364 434D4152 		.ascii	"CMAR\000"
 3629      00
 3630              	.LASF116:
 3631 0369 67727070 		.ascii	"grpp\000"
 3631      00
 3632              	.LASF73:
 3633 036e 4A4F4652 		.ascii	"JOFR1\000"
 3633      3100
 3634              	.LASF74:
 3635 0374 4A4F4652 		.ascii	"JOFR2\000"
 3635      3200
 3636              	.LASF163:
 3637 037a 6164635F 		.ascii	"adc_lld_init\000"
 3637      6C6C645F 
 3637      696E6974 
 3637      00
 3638              	.LASF114:
 3639 0387 73616D70 		.ascii	"samples\000"
 3639      6C657300 
 3640              	.LASF161:
 3641 038f 2F686F6D 		.ascii	"/home/caroline/Documents/PAF/elfes/Code\000"
 3641      652F6361 
 3641      726F6C69 
 3641      6E652F44 
 3641      6F63756D 
 3642              	.LASF53:
 3643 03b7 73697A65 		.ascii	"sizetype\000"
 3643      74797065 
 3643      00
 3644              	.LASF61:
 3645 03c0 4D757465 		.ascii	"Mutex\000"
 3645      7800
 3646              	.LASF54:
 3647 03c6 725F7175 		.ascii	"r_queue\000"
 3647      65756500 
 3648              	.LASF100:
 3649 03ce 4144435F 		.ascii	"ADC_STOP\000"
 3649      53544F50 
 3649      00
 3650              	.LASF158:
 3651 03d7 63684D74 		.ascii	"chMtxLock\000"
 3651      784C6F63 
ARM GAS  /tmp/ccaDZiOV.s 			page 68


 3651      6B00
 3652              	.LASF34:
 3653 03e1 705F6F6C 		.ascii	"p_older\000"
 3653      64657200 
 3654              	.LASF56:
 3655 03e9 725F6374 		.ascii	"r_ctx\000"
 3655      7800
 3656              	.LASF48:
 3657 03ef 54687265 		.ascii	"ThreadsQueue\000"
 3657      61647351 
 3657      75657565 
 3657      00
 3658              	.LASF87:
 3659 03fc 534D5052 		.ascii	"SMPR0\000"
 3659      3000
 3660              	.LASF70:
 3661 0402 534D5052 		.ascii	"SMPR1\000"
 3661      3100
 3662              	.LASF71:
 3663 0408 534D5052 		.ascii	"SMPR2\000"
 3663      3200
 3664              	.LASF72:
 3665 040e 534D5052 		.ascii	"SMPR3\000"
 3665      3300
 3666              	.LASF64:
 3667 0414 6D5F6E65 		.ascii	"m_next\000"
 3667      787400
 3668              	.LASF59:
 3669 041b 725F6375 		.ascii	"r_current\000"
 3669      7272656E 
 3669      7400
 3670              	.LASF58:
 3671 0425 725F6F6C 		.ascii	"r_older\000"
 3671      64657200 
 3672              	.LASF77:
 3673 042d 53515231 		.ascii	"SQR1\000"
 3673      00
 3674              	.LASF78:
 3675 0432 53515232 		.ascii	"SQR2\000"
 3675      00
 3676              	.LASF79:
 3677 0437 53515233 		.ascii	"SQR3\000"
 3677      00
 3678              	.LASF80:
 3679 043c 53515234 		.ascii	"SQR4\000"
 3679      00
 3680              	.LASF81:
 3681 0441 53515235 		.ascii	"SQR5\000"
 3681      00
 3682              	.LASF150:
 3683 0446 61646353 		.ascii	"adcStartConversionI\000"
 3683      74617274 
 3683      436F6E76 
 3683      65727369 
 3683      6F6E4900 
 3684              	.LASF22:
 3685 045a 74726566 		.ascii	"trefs_t\000"
ARM GAS  /tmp/ccaDZiOV.s 			page 69


 3685      735F7400 
 3686              	.LASF30:
 3687 0462 705F7072 		.ascii	"p_prev\000"
 3687      657600
 3688              	.LASF98:
 3689 0469 73746D33 		.ascii	"stm32_dma_stream_t\000"
 3689      325F646D 
 3689      615F7374 
 3689      7265616D 
 3689      5F7400
 3690              	.LASF24:
 3691 047c 74707269 		.ascii	"tprio_t\000"
 3691      6F5F7400 
 3692              	.LASF118:
 3693 0484 6D757465 		.ascii	"mutex\000"
 3693      7800
 3694              	.LASF19:
 3695 048a 5F426F6F 		.ascii	"_Bool\000"
 3695      6C00
 3696              	.LASF16:
 3697 0490 696E7433 		.ascii	"int32_t\000"
 3697      325F7400 
 3698              	.LASF4:
 3699 0498 756E7369 		.ascii	"unsigned char\000"
 3699      676E6564 
 3699      20636861 
 3699      7200
 3700              	.LASF45:
 3701 04a6 705F6D74 		.ascii	"p_mtxlist\000"
 3701      786C6973 
 3701      7400
 3702              	.LASF156:
 3703 04b0 6164635F 		.ascii	"adc_lld_stop_conversion\000"
 3703      6C6C645F 
 3703      73746F70 
 3703      5F636F6E 
 3703      76657273 
 3704              	.LASF36:
 3705 04c8 705F7374 		.ascii	"p_state\000"
 3705      61746500 
 3706              	.LASF39:
 3707 04d0 705F7072 		.ascii	"p_preempt\000"
 3707      65656D70 
 3707      7400
 3708              	.LASF126:
 3709 04da 6572726F 		.ascii	"error_cb\000"
 3709      725F6362 
 3709      00
 3710              	.LASF55:
 3711 04e3 725F7072 		.ascii	"r_prio\000"
 3711      696F00
 3712              	.LASF68:
 3713 04ea 65776D61 		.ascii	"ewmask\000"
 3713      736B00
 3714              	.LASF29:
 3715 04f1 705F6E65 		.ascii	"p_next\000"
 3715      787400
ARM GAS  /tmp/ccaDZiOV.s 			page 70


 3716              	.LASF37:
 3717 04f8 705F666C 		.ascii	"p_flags\000"
 3717      61677300 
 3718              	.LASF75:
 3719 0500 4A4F4652 		.ascii	"JOFR3\000"
 3719      3300
 3720              	.LASF76:
 3721 0506 4A4F4652 		.ascii	"JOFR4\000"
 3721      3400
 3722              	.LASF93:
 3723 050c 6368616E 		.ascii	"channel\000"
 3723      6E656C00 
 3724              	.LASF157:
 3725 0514 63685363 		.ascii	"chSchGoSleepS\000"
 3725      68476F53 
 3725      6C656570 
 3725      5300
 3726              	.LASF44:
 3727 0522 705F6570 		.ascii	"p_epending\000"
 3727      656E6469 
 3727      6E6700
 3728              	.LASF94:
 3729 052d 69666372 		.ascii	"ifcr\000"
 3729      00
 3730              	.LASF17:
 3731 0532 75696E74 		.ascii	"uint32_t\000"
 3731      33325F74 
 3731      00
 3732              	.LASF147:
 3733 053b 61646352 		.ascii	"adcReleaseBus\000"
 3733      656C6561 
 3733      73654275 
 3733      7300
 3734              	.LASF164:
 3735 0549 63685363 		.ascii	"chSchReadyI\000"
 3735      68526561 
 3735      64794900 
 3736              	.LASF127:
 3737 0555 736D7072 		.ascii	"smpr1\000"
 3737      3100
 3738              	.LASF11:
 3739 055b 6C6F6E67 		.ascii	"long unsigned int\000"
 3739      20756E73 
 3739      69676E65 
 3739      6420696E 
 3739      7400
 3740              	.LASF69:
 3741 056d 63686172 		.ascii	"char\000"
 3741      00
 3742              	.LASF113:
 3743 0572 636F6E66 		.ascii	"config\000"
 3743      696700
 3744              	.LASF6:
 3745 0579 5F5F7569 		.ascii	"__uint16_t\000"
 3745      6E743136 
 3745      5F7400
 3746              	.LASF130:
ARM GAS  /tmp/ccaDZiOV.s 			page 71


 3747 0584 73717231 		.ascii	"sqr1\000"
 3747      00
 3748              	.LASF131:
 3749 0589 73717232 		.ascii	"sqr2\000"
 3749      00
 3750              	.LASF132:
 3751 058e 73717233 		.ascii	"sqr3\000"
 3751      00
 3752              	.LASF133:
 3753 0593 73717234 		.ascii	"sqr4\000"
 3753      00
 3754              	.LASF134:
 3755 0598 73717235 		.ascii	"sqr5\000"
 3755      00
 3756              	.LASF8:
 3757 059d 5F5F696E 		.ascii	"__int32_t\000"
 3757      7433325F 
 3757      7400
 3758              	.LASF10:
 3759 05a7 5F5F7569 		.ascii	"__uint32_t\000"
 3759      6E743332 
 3759      5F7400
 3760              	.LASF52:
 3761 05b2 636F6E74 		.ascii	"context\000"
 3761      65787400 
 3762              	.LASF143:
 3763 05ba 61646353 		.ascii	"adcStartConversion\000"
 3763      74617274 
 3763      436F6E76 
 3763      65727369 
 3763      6F6E00
 3764              	.LASF51:
 3765 05cd 696E7463 		.ascii	"intctx\000"
 3765      747800
 3766              	.LASF152:
 3767 05d4 6164635F 		.ascii	"adc_lld_start\000"
 3767      6C6C645F 
 3767      73746172 
 3767      7400
 3768              	.LASF155:
 3769 05e2 63685363 		.ascii	"chSchWakeupS\000"
 3769      6857616B 
 3769      65757053 
 3769      00
 3770              	.LASF151:
 3771 05ef 63684D74 		.ascii	"chMtxInit\000"
 3771      78496E69 
 3771      7400
 3772              	.LASF141:
 3773 05f9 61646353 		.ascii	"adcStart\000"
 3773      74617274 
 3773      00
 3774              	.LASF38:
 3775 0602 705F7265 		.ascii	"p_refs\000"
 3775      667300
 3776              	.LASF60:
 3777 0609 52656164 		.ascii	"ReadyList\000"
ARM GAS  /tmp/ccaDZiOV.s 			page 72


 3777      794C6973 
 3777      7400
 3778              	.LASF89:
 3779 0613 434E4454 		.ascii	"CNDTR\000"
 3779      5200
 3780              	.LASF128:
 3781 0619 736D7072 		.ascii	"smpr2\000"
 3781      3200
 3782              	.LASF129:
 3783 061f 736D7072 		.ascii	"smpr3\000"
 3783      3300
 3784              	.LASF148:
 3785 0625 726C6973 		.ascii	"rlist\000"
 3785      7400
 3786              	.LASF14:
 3787 062b 75696E74 		.ascii	"uint8_t\000"
 3787      385F7400 
 3788              	.LASF145:
 3789 0633 61646353 		.ascii	"adcStopConversionI\000"
 3789      746F7043 
 3789      6F6E7665 
 3789      7273696F 
 3789      6E4900
 3790              	.LASF135:
 3791 0646 41444343 		.ascii	"ADCConversionGroup\000"
 3791      6F6E7665 
 3791      7273696F 
 3791      6E47726F 
 3791      757000
 3792              	.LASF83:
 3793 0659 4A445231 		.ascii	"JDR1\000"
 3793      00
 3794              	.LASF84:
 3795 065e 4A445232 		.ascii	"JDR2\000"
 3795      00
 3796              	.LASF85:
 3797 0663 4A445233 		.ascii	"JDR3\000"
 3797      00
 3798              	.LASF86:
 3799 0668 4A445234 		.ascii	"JDR4\000"
 3799      00
 3800              	.LASF67:
 3801 066d 77746F62 		.ascii	"wtobjp\000"
 3801      6A7000
 3802              	.LASF103:
 3803 0674 4144435F 		.ascii	"ADC_COMPLETE\000"
 3803      434F4D50 
 3803      4C455445 
 3803      00
 3804              	.LASF35:
 3805 0681 705F6E61 		.ascii	"p_name\000"
 3805      6D6500
 3806              	.LASF107:
 3807 0688 6164635F 		.ascii	"adc_channels_num_t\000"
 3807      6368616E 
 3807      6E656C73 
 3807      5F6E756D 
ARM GAS  /tmp/ccaDZiOV.s 			page 73


 3807      5F7400
 3808              	.LASF43:
 3809 069b 705F6D73 		.ascii	"p_msg\000"
 3809      6700
 3810              	.LASF162:
 3811 06a1 61646343 		.ascii	"adcConvert\000"
 3811      6F6E7665 
 3811      727400
 3812              	.LASF144:
 3813 06ac 61646353 		.ascii	"adcStopConversion\000"
 3813      746F7043 
 3813      6F6E7665 
 3813      7273696F 
 3813      6E00
 3814              	.LASF63:
 3815 06be 6D5F6F77 		.ascii	"m_owner\000"
 3815      6E657200 
 3816              	.LASF146:
 3817 06c6 61646341 		.ascii	"adcAcquireBus\000"
 3817      63717569 
 3817      72654275 
 3817      7300
 3818              	.LASF32:
 3819 06d4 705F6374 		.ascii	"p_ctx\000"
 3819      7800
 3820              	.LASF41:
 3821 06da 705F7761 		.ascii	"p_waiting\000"
 3821      6974696E 
 3821      6700
 3822              		.ident	"GCC: (4.8.2-14ubuntu1+6) 4.8.2"
ARM GAS  /tmp/ccaDZiOV.s 			page 74


DEFINED SYMBOLS
                            *ABS*:0000000000000000 adc.c
     /tmp/ccaDZiOV.s:19     .text.adcInit:0000000000000000 $t
     /tmp/ccaDZiOV.s:24     .text.adcInit:0000000000000000 adcInit
     /tmp/ccaDZiOV.s:39     .text.adcObjectInit:0000000000000000 $t
     /tmp/ccaDZiOV.s:44     .text.adcObjectInit:0000000000000000 adcObjectInit
     /tmp/ccaDZiOV.s:76     .text.adcStart:0000000000000000 $t
     /tmp/ccaDZiOV.s:81     .text.adcStart:0000000000000000 adcStart
     /tmp/ccaDZiOV.s:126    .text.adcStop:0000000000000000 $t
     /tmp/ccaDZiOV.s:131    .text.adcStop:0000000000000000 adcStop
     /tmp/ccaDZiOV.s:174    .text.adcStartConversion:0000000000000000 $t
     /tmp/ccaDZiOV.s:179    .text.adcStartConversion:0000000000000000 adcStartConversion
     /tmp/ccaDZiOV.s:231    .text.adcStartConversionI:0000000000000000 $t
     /tmp/ccaDZiOV.s:236    .text.adcStartConversionI:0000000000000000 adcStartConversionI
     /tmp/ccaDZiOV.s:266    .text.adcStopConversion:0000000000000000 $t
     /tmp/ccaDZiOV.s:271    .text.adcStopConversion:0000000000000000 adcStopConversion
     /tmp/ccaDZiOV.s:336    .text.adcStopConversionI:0000000000000000 $t
     /tmp/ccaDZiOV.s:341    .text.adcStopConversionI:0000000000000000 adcStopConversionI
     /tmp/ccaDZiOV.s:398    .text.adcConvert:0000000000000000 $t
     /tmp/ccaDZiOV.s:403    .text.adcConvert:0000000000000000 adcConvert
     /tmp/ccaDZiOV.s:489    .text.adcAcquireBus:0000000000000000 $t
     /tmp/ccaDZiOV.s:494    .text.adcAcquireBus:0000000000000000 adcAcquireBus
     /tmp/ccaDZiOV.s:511    .text.adcReleaseBus:0000000000000000 $t
     /tmp/ccaDZiOV.s:516    .text.adcReleaseBus:0000000000000000 adcReleaseBus
                     .debug_frame:0000000000000010 $d

UNDEFINED SYMBOLS
adc_lld_init
chMtxInit
adc_lld_start
adc_lld_stop
adc_lld_start_conversion
adc_lld_stop_conversion
chSchWakeupS
chSchReadyI
rlist
chSchGoSleepS
chMtxLock
chMtxUnlock
