ARM GAS  /tmp/ccl2msbI.s 			page 1


   1              		.syntax unified
   2              		.cpu cortex-m3
   3              		.fpu softvfp
   4              		.eabi_attribute 20, 1
   5              		.eabi_attribute 21, 1
   6              		.eabi_attribute 23, 3
   7              		.eabi_attribute 24, 1
   8              		.eabi_attribute 25, 1
   9              		.eabi_attribute 26, 1
  10              		.eabi_attribute 30, 2
  11              		.eabi_attribute 34, 1
  12              		.eabi_attribute 18, 4
  13              		.thumb
  14              		.file	"adc_lld.c"
  15              		.text
  16              	.Ltext0:
  17              		.cfi_sections	.debug_frame
  18              		.section	.text.adc_lld_serve_rx_interrupt,"ax",%progbits
  19              		.align	2
  20              		.thumb
  21              		.thumb_func
  22              		.type	adc_lld_serve_rx_interrupt, %function
  23              	adc_lld_serve_rx_interrupt:
  24              	.LFB63:
  25              		.file 1 "../ChibiOS_2.6.4/os/hal/platforms/STM32L1xx/adc_lld.c"
  26              		.loc 1 57 0
  27              		.cfi_startproc
  28              		@ args = 0, pretend = 0, frame = 0
  29              		@ frame_needed = 0, uses_anonymous_args = 0
  30              	.LVL0:
  31 0000 F8B5     		push	{r3, r4, r5, r6, r7, lr}
  32              		.cfi_def_cfa_offset 24
  33              		.cfi_offset 3, -24
  34              		.cfi_offset 4, -20
  35              		.cfi_offset 5, -16
  36              		.cfi_offset 6, -12
  37              		.cfi_offset 7, -8
  38              		.cfi_offset 14, -4
  39              		.loc 1 60 0
  40 0002 0E07     		lsls	r6, r1, #28
  41              		.loc 1 57 0
  42 0004 0446     		mov	r4, r0
  43              		.loc 1 60 0
  44 0006 2ED5     		bpl	.L2
  45              	.LVL1:
  46              	.LBB18:
  47              	.LBB19:
  48              		.loc 1 252 0
  49 0008 C36A     		ldr	r3, [r0, #44]
  50              	.LBE19:
  51              	.LBE18:
  52              		.loc 1 63 0
  53 000a 0169     		ldr	r1, [r0, #16]
  54              	.LVL2:
  55              	.LBB22:
  56              	.LBB20:
  57              		.loc 1 252 0
ARM GAS  /tmp/ccl2msbI.s 			page 2


  58 000c 1A68     		ldr	r2, [r3]
  59 000e 5E68     		ldr	r6, [r3, #4]
  60 0010 1568     		ldr	r5, [r2]
  61 0012 0F27     		movs	r7, #15
  62 0014 25F00F05 		bic	r5, r5, #15
  63 0018 1560     		str	r5, [r2]
  64 001a 1A7A     		ldrb	r2, [r3, #8]	@ zero_extendqisi2
  65              		.loc 1 253 0
  66 001c 836A     		ldr	r3, [r0, #40]
  67              		.loc 1 252 0
  68 001e 9740     		lsls	r7, r7, r2
  69              	.LBE20:
  70              	.LBE22:
  71              		.loc 1 63 0
  72 0020 8A68     		ldr	r2, [r1, #8]
  73              	.LBB23:
  74              	.LBB21:
  75              		.loc 1 255 0
  76 0022 0125     		movs	r5, #1
  77              		.loc 1 253 0
  78 0024 0021     		movs	r1, #0
  79              		.loc 1 252 0
  80 0026 3760     		str	r7, [r6]
  81              		.loc 1 253 0
  82 0028 5960     		str	r1, [r3, #4]
  83              		.loc 1 254 0
  84 002a 9960     		str	r1, [r3, #8]
  85              		.loc 1 255 0
  86 002c 9D60     		str	r5, [r3, #8]
  87              	.LBE21:
  88              	.LBE23:
  89              		.loc 1 63 0
  90 002e 3AB1     		cbz	r2, .L4
  91              		.loc 1 63 0 is_stmt 0 discriminator 1
  92 0030 0523     		movs	r3, #5
  93 0032 0370     		strb	r3, [r0]
  94 0034 9047     		blx	r2
  95              	.LVL3:
  96 0036 2378     		ldrb	r3, [r4]	@ zero_extendqisi2
  97 0038 052B     		cmp	r3, #5
  98 003a 04BF     		itt	eq
  99 003c 0223     		moveq	r3, #2
 100 003e 2370     		strbeq	r3, [r4]
 101              	.L4:
 102              		.loc 1 63 0 discriminator 2
 103 0040 0023     		movs	r3, #0
 104 0042 2361     		str	r3, [r4, #16]
 105              	.LBB24:
 106 0044 2023     		movs	r3, #32
 107              	@ 63 "../ChibiOS_2.6.4/os/hal/platforms/STM32L1xx/adc_lld.c" 1
 108 0046 83F31188 		msr     BASEPRI, r3
 109              	@ 0 "" 2
 110              		.thumb
 111              	.LBE24:
 112 004a 6369     		ldr	r3, [r4, #20]
 113 004c 3BB1     		cbz	r3, .L13
 114              	.LVL4:
ARM GAS  /tmp/ccl2msbI.s 			page 3


 115              	.LBB25:
 116              		.loc 1 63 0 discriminator 1
 117 004e 0021     		movs	r1, #0
 118 0050 4FF0FF32 		mov	r2, #-1
 119 0054 6161     		str	r1, [r4, #20]
 120 0056 1846     		mov	r0, r3
 121 0058 5A62     		str	r2, [r3, #36]
 122 005a FFF7FEFF 		bl	chSchReadyI
 123              	.LVL5:
 124              	.L13:
 125              	.LBE25:
 126              	.LBB26:
 127              		.loc 1 71 0 is_stmt 1 discriminator 2
 128 005e 0023     		movs	r3, #0
 129              	@ 71 "../ChibiOS_2.6.4/os/hal/platforms/STM32L1xx/adc_lld.c" 1
 130 0060 83F31188 		msr     BASEPRI, r3
 131              	@ 0 "" 2
 132              		.thumb
 133 0064 F8BD     		pop	{r3, r4, r5, r6, r7, pc}
 134              	.LVL6:
 135              	.L2:
 136              	.LBE26:
 137              		.loc 1 68 0
 138 0066 0369     		ldr	r3, [r0, #16]
 139 0068 002B     		cmp	r3, #0
 140 006a 39D0     		beq	.L1
 141              		.loc 1 69 0
 142 006c 8D07     		lsls	r5, r1, #30
 143 006e 2FD5     		bpl	.L8
 144              		.loc 1 71 0
 145 0070 1D78     		ldrb	r5, [r3]	@ zero_extendqisi2
 146 0072 002D     		cmp	r5, #0
 147 0074 35D1     		bne	.L33
 148              	.LVL7:
 149              	.LBB27:
 150              	.LBB28:
 151              		.loc 1 252 0
 152 0076 C26A     		ldr	r2, [r0, #44]
 153              	.LBE28:
 154              	.LBE27:
 155              		.loc 1 71 0
 156 0078 5E68     		ldr	r6, [r3, #4]
 157              	.LBB30:
 158              	.LBB29:
 159              		.loc 1 252 0
 160 007a 1168     		ldr	r1, [r2]
 161              	.LVL8:
 162 007c 5768     		ldr	r7, [r2, #4]
 163 007e 0B68     		ldr	r3, [r1]
 164 0080 4FF00F0C 		mov	ip, #15
 165 0084 23F00F03 		bic	r3, r3, #15
 166 0088 0B60     		str	r3, [r1]
 167 008a 127A     		ldrb	r2, [r2, #8]	@ zero_extendqisi2
 168              		.loc 1 253 0
 169 008c 836A     		ldr	r3, [r0, #40]
 170              		.loc 1 252 0
 171 008e 0CFA02F1 		lsl	r1, ip, r2
ARM GAS  /tmp/ccl2msbI.s 			page 4


 172              		.loc 1 255 0
 173 0092 0122     		movs	r2, #1
 174              		.loc 1 252 0
 175 0094 3960     		str	r1, [r7]
 176              		.loc 1 253 0
 177 0096 5D60     		str	r5, [r3, #4]
 178              		.loc 1 254 0
 179 0098 9D60     		str	r5, [r3, #8]
 180              		.loc 1 255 0
 181 009a 9A60     		str	r2, [r3, #8]
 182              	.LBE29:
 183              	.LBE30:
 184              		.loc 1 71 0
 185 009c 002E     		cmp	r6, #0
 186 009e 30D0     		beq	.L11
 187              		.loc 1 71 0 is_stmt 0 discriminator 1
 188 00a0 0423     		movs	r3, #4
 189 00a2 0370     		strb	r3, [r0]
 190 00a4 8168     		ldr	r1, [r0, #8]
 191 00a6 C268     		ldr	r2, [r0, #12]
 192 00a8 B047     		blx	r6
 193              	.LVL9:
 194 00aa 2378     		ldrb	r3, [r4]	@ zero_extendqisi2
 195 00ac 042B     		cmp	r3, #4
 196 00ae 02BF     		ittt	eq
 197 00b0 0223     		moveq	r3, #2
 198 00b2 2561     		streq	r5, [r4, #16]
 199 00b4 2370     		strbeq	r3, [r4]
 200              	.L12:
 201              	.LBB31:
 202 00b6 2023     		movs	r3, #32
 203              	@ 71 "../ChibiOS_2.6.4/os/hal/platforms/STM32L1xx/adc_lld.c" 1
 204 00b8 83F31188 		msr     BASEPRI, r3
 205              	@ 0 "" 2
 206              		.thumb
 207              	.LBE31:
 208 00bc 6369     		ldr	r3, [r4, #20]
 209 00be 002B     		cmp	r3, #0
 210 00c0 CDD0     		beq	.L13
 211              	.LVL10:
 212              	.LBB32:
 213 00c2 0022     		movs	r2, #0
 214 00c4 6261     		str	r2, [r4, #20]
 215 00c6 1846     		mov	r0, r3
 216 00c8 5A62     		str	r2, [r3, #36]
 217 00ca FFF7FEFF 		bl	chSchReadyI
 218              	.LVL11:
 219 00ce C6E7     		b	.L13
 220              	.LVL12:
 221              	.L8:
 222              	.LBE32:
 223              		.loc 1 73 0 is_stmt 1
 224 00d0 4A07     		lsls	r2, r1, #29
 225 00d2 05D5     		bpl	.L1
 226              		.loc 1 75 0
 227 00d4 5B68     		ldr	r3, [r3, #4]
 228 00d6 1BB1     		cbz	r3, .L1
ARM GAS  /tmp/ccl2msbI.s 			page 5


 229              		.loc 1 75 0 is_stmt 0 discriminator 1
 230 00d8 C268     		ldr	r2, [r0, #12]
 231 00da 8168     		ldr	r1, [r0, #8]
 232              	.LVL13:
 233 00dc 5208     		lsrs	r2, r2, #1
 234 00de 9847     		blx	r3
 235              	.LVL14:
 236              	.L1:
 237 00e0 F8BD     		pop	{r3, r4, r5, r6, r7, pc}
 238              	.LVL15:
 239              	.L33:
 240              		.loc 1 71 0 is_stmt 1 discriminator 1
 241 00e2 5D68     		ldr	r5, [r3, #4]
 242 00e4 002D     		cmp	r5, #0
 243 00e6 FBD0     		beq	.L1
 244 00e8 C268     		ldr	r2, [r0, #12]
 245 00ea 012A     		cmp	r2, #1
 246              	.LBB33:
 247 00ec 81BF     		itttt	hi
 248 00ee 5988     		ldrhhi	r1, [r3, #2]
 249              	.LVL16:
 250 00f0 5208     		lsrhi	r2, r2, #1
 251              	.LVL17:
 252 00f2 5143     		mulhi	r1, r1, r2
 253 00f4 8368     		ldrhi	r3, [r0, #8]
 254              	.LVL18:
 255              	.LBE33:
 256 00f6 94BF     		ite	ls
 257 00f8 8168     		ldrls	r1, [r0, #8]
 258              	.LBB34:
 259 00fa 03EB4101 		addhi	r1, r3, r1, lsl #1
 260              	.LBE34:
 261 00fe A847     		blx	r5
 262              	.LVL19:
 263 0100 F8BD     		pop	{r3, r4, r5, r6, r7, pc}
 264              	.LVL20:
 265              	.L11:
 266              		.loc 1 71 0 is_stmt 0 discriminator 2
 267 0102 0223     		movs	r3, #2
 268 0104 0661     		str	r6, [r0, #16]
 269 0106 0370     		strb	r3, [r0]
 270 0108 D5E7     		b	.L12
 271              		.cfi_endproc
 272              	.LFE63:
 273              		.size	adc_lld_serve_rx_interrupt, .-adc_lld_serve_rx_interrupt
 274              		.section	.text.Vector88,"ax",%progbits
 275              		.align	2
 276              		.global	Vector88
 277              		.thumb
 278              		.thumb_func
 279              		.type	Vector88, %function
 280              	Vector88:
 281              	.LFB64:
 282              		.loc 1 91 0 is_stmt 1
 283              		.cfi_startproc
 284              		@ args = 0, pretend = 0, frame = 0
 285              		@ frame_needed = 0, uses_anonymous_args = 0
ARM GAS  /tmp/ccl2msbI.s 			page 6


 286              		.loc 1 96 0
 287 0000 4FF41053 		mov	r3, #9216
 288 0004 C4F20103 		movt	r3, 16385
 289 0008 1968     		ldr	r1, [r3]
 290              	.LVL21:
 291              		.loc 1 97 0
 292 000a 0022     		movs	r2, #0
 293              		.loc 1 91 0
 294 000c 70B5     		push	{r4, r5, r6, lr}
 295              		.cfi_def_cfa_offset 16
 296              		.cfi_offset 4, -16
 297              		.cfi_offset 5, -12
 298              		.cfi_offset 6, -8
 299              		.cfi_offset 14, -4
 300              		.loc 1 97 0
 301 000e 1A60     		str	r2, [r3]
 302              		.loc 1 100 0
 303 0010 8B06     		lsls	r3, r1, #26
 304 0012 39D5     		bpl	.L35
 305              		.loc 1 100 0 is_stmt 0 discriminator 1
 306 0014 40F20004 		movw	r4, #:lower16:.LANCHOR0
 307 0018 C0F20004 		movt	r4, #:upper16:.LANCHOR0
 308 001c E36A     		ldr	r3, [r4, #44]
 309 001e 1968     		ldr	r1, [r3]
 310              	.LVL22:
 311 0020 4868     		ldr	r0, [r1, #4]
 312 0022 0028     		cmp	r0, #0
 313 0024 30D0     		beq	.L35
 314              		.loc 1 103 0 is_stmt 1
 315 0026 2069     		ldr	r0, [r4, #16]
 316 0028 0028     		cmp	r0, #0
 317 002a 2DD0     		beq	.L35
 318              	.LVL23:
 319              	.LBB35:
 320              	.LBB36:
 321              		.loc 1 252 0
 322 002c 0D68     		ldr	r5, [r1]
 323 002e 0F26     		movs	r6, #15
 324 0030 25F00F05 		bic	r5, r5, #15
 325 0034 0D60     		str	r5, [r1]
 326 0036 197A     		ldrb	r1, [r3, #8]	@ zero_extendqisi2
 327              	.LBE36:
 328              	.LBE35:
 329              		.loc 1 104 0
 330 0038 8568     		ldr	r5, [r0, #8]
 331              	.LBB38:
 332              	.LBB37:
 333              		.loc 1 252 0
 334 003a 8E40     		lsls	r6, r6, r1
 335 003c 5868     		ldr	r0, [r3, #4]
 336              		.loc 1 253 0
 337 003e A36A     		ldr	r3, [r4, #40]
 338              		.loc 1 255 0
 339 0040 0121     		movs	r1, #1
 340              		.loc 1 252 0
 341 0042 0660     		str	r6, [r0]
 342              		.loc 1 253 0
ARM GAS  /tmp/ccl2msbI.s 			page 7


 343 0044 5A60     		str	r2, [r3, #4]
 344              		.loc 1 254 0
 345 0046 9A60     		str	r2, [r3, #8]
 346              		.loc 1 255 0
 347 0048 9960     		str	r1, [r3, #8]
 348              	.LBE37:
 349              	.LBE38:
 350              		.loc 1 104 0
 351 004a 45B1     		cbz	r5, .L37
 352              		.loc 1 104 0 is_stmt 0 discriminator 1
 353 004c 0523     		movs	r3, #5
 354 004e 2370     		strb	r3, [r4]
 355 0050 2046     		mov	r0, r4
 356 0052 A847     		blx	r5
 357              	.LVL24:
 358 0054 2378     		ldrb	r3, [r4]	@ zero_extendqisi2
 359 0056 052B     		cmp	r3, #5
 360 0058 04BF     		itt	eq
 361 005a 0223     		moveq	r3, #2
 362 005c 2370     		strbeq	r3, [r4]
 363              	.L37:
 364              		.loc 1 104 0 discriminator 2
 365 005e 0023     		movs	r3, #0
 366 0060 2361     		str	r3, [r4, #16]
 367              	.LBB39:
 368 0062 2023     		movs	r3, #32
 369              	@ 104 "../ChibiOS_2.6.4/os/hal/platforms/STM32L1xx/adc_lld.c" 1
 370 0064 83F31188 		msr     BASEPRI, r3
 371              	@ 0 "" 2
 372              		.thumb
 373              	.LBE39:
 374 0068 40F20003 		movw	r3, #:lower16:.LANCHOR0
 375 006c C0F20003 		movt	r3, #:upper16:.LANCHOR0
 376 0070 5869     		ldr	r0, [r3, #20]
 377 0072 30B1     		cbz	r0, .L39
 378              	.LVL25:
 379              	.LBB40:
 380              		.loc 1 104 0 discriminator 1
 381 0074 4FF0FF32 		mov	r2, #-1
 382 0078 4262     		str	r2, [r0, #36]
 383 007a 0022     		movs	r2, #0
 384 007c 5A61     		str	r2, [r3, #20]
 385 007e FFF7FEFF 		bl	chSchReadyI
 386              	.LVL26:
 387              	.L39:
 388              	.LBE40:
 389              	.LBB41:
 390              		.loc 1 104 0 discriminator 2
 391 0082 0023     		movs	r3, #0
 392              	@ 104 "../ChibiOS_2.6.4/os/hal/platforms/STM32L1xx/adc_lld.c" 1
 393 0084 83F31188 		msr     BASEPRI, r3
 394              	@ 0 "" 2
 395              	.LVL27:
 396              		.thumb
 397              	.L35:
 398              	.LBE41:
 399              		.loc 1 109 0 is_stmt 1
ARM GAS  /tmp/ccl2msbI.s 			page 8


 400 0088 BDE87040 		pop	{r4, r5, r6, lr}
 401              		.loc 1 108 0
 402 008c FFF7FEBF 		b	_port_irq_epilogue
 403              	.LVL28:
 404              		.cfi_endproc
 405              	.LFE64:
 406              		.size	Vector88, .-Vector88
 407              		.section	.text.adc_lld_init,"ax",%progbits
 408              		.align	2
 409              		.global	adc_lld_init
 410              		.thumb
 411              		.thumb_func
 412              		.type	adc_lld_init, %function
 413              	adc_lld_init:
 414              	.LFB65:
 415              		.loc 1 121 0
 416              		.cfi_startproc
 417              		@ args = 0, pretend = 0, frame = 0
 418              		@ frame_needed = 0, uses_anonymous_args = 0
 419 0000 38B5     		push	{r3, r4, r5, lr}
 420              		.cfi_def_cfa_offset 16
 421              		.cfi_offset 3, -16
 422              		.cfi_offset 4, -12
 423              		.cfi_offset 5, -8
 424              		.cfi_offset 14, -4
 425              		.loc 1 125 0
 426 0002 40F20004 		movw	r4, #:lower16:.LANCHOR0
 427 0006 C0F20004 		movt	r4, #:upper16:.LANCHOR0
 428 000a 2046     		mov	r0, r4
 429 000c FFF7FEFF 		bl	adcObjectInit
 430              	.LVL29:
 431              		.loc 1 126 0
 432 0010 4FF41052 		mov	r2, #9216
 433              		.loc 1 127 0
 434 0014 40F20003 		movw	r3, #:lower16:_stm32_dma_streams
 435 0018 C0F20003 		movt	r3, #:upper16:_stm32_dma_streams
 436              		.loc 1 128 0
 437 001c 42F28A55 		movw	r5, #9610
 438              		.loc 1 126 0
 439 0020 C4F20102 		movt	r2, 16385
 440 0024 A262     		str	r2, [r4, #40]
 441              		.loc 1 127 0
 442 0026 E362     		str	r3, [r4, #44]
 443              		.loc 1 128 0
 444 0028 2563     		str	r5, [r4, #48]
 445              		.loc 1 137 0
 446 002a 1220     		movs	r0, #18
 447 002c 6021     		movs	r1, #96
 448              		.loc 1 138 0
 449 002e BDE83840 		pop	{r3, r4, r5, lr}
 450              		.loc 1 137 0
 451 0032 FFF7FEBF 		b	nvicEnableVector
 452              	.LVL30:
 453              		.cfi_endproc
 454              	.LFE65:
 455              		.size	adc_lld_init, .-adc_lld_init
 456 0036 00BF     		.section	.text.adc_lld_start,"ax",%progbits
ARM GAS  /tmp/ccl2msbI.s 			page 9


 457              		.align	2
 458              		.global	adc_lld_start
 459              		.thumb
 460              		.thumb_func
 461              		.type	adc_lld_start, %function
 462              	adc_lld_start:
 463              	.LFB66:
 464              		.loc 1 147 0
 465              		.cfi_startproc
 466              		@ args = 0, pretend = 0, frame = 0
 467              		@ frame_needed = 0, uses_anonymous_args = 0
 468              	.LVL31:
 469              		.loc 1 150 0
 470 0000 0378     		ldrb	r3, [r0]	@ zero_extendqisi2
 471              		.loc 1 147 0
 472 0002 10B5     		push	{r4, lr}
 473              		.cfi_def_cfa_offset 8
 474              		.cfi_offset 4, -8
 475              		.cfi_offset 14, -4
 476              		.loc 1 150 0
 477 0004 012B     		cmp	r3, #1
 478              		.loc 1 147 0
 479 0006 0446     		mov	r4, r0
 480              		.loc 1 150 0
 481 0008 00D0     		beq	.L56
 482 000a 10BD     		pop	{r4, pc}
 483              	.L56:
 484              		.loc 1 152 0
 485 000c 40F20003 		movw	r3, #:lower16:.LANCHOR0
 486 0010 C0F20003 		movt	r3, #:upper16:.LANCHOR0
 487 0014 9842     		cmp	r0, r3
 488 0016 06D0     		beq	.L57
 489              	.LVL32:
 490              	.L55:
 491              		.loc 1 166 0
 492 0018 A36A     		ldr	r3, [r4, #40]
 493 001a 0022     		movs	r2, #0
 494              		.loc 1 168 0
 495 001c 0121     		movs	r1, #1
 496              		.loc 1 166 0
 497 001e 5A60     		str	r2, [r3, #4]
 498              		.loc 1 167 0
 499 0020 9A60     		str	r2, [r3, #8]
 500              		.loc 1 168 0
 501 0022 9960     		str	r1, [r3, #8]
 502 0024 10BD     		pop	{r4, pc}
 503              	.LVL33:
 504              	.L57:
 505              	.LBB42:
 506              		.loc 1 154 0
 507 0026 40F20002 		movw	r2, #:lower16:adc_lld_serve_rx_interrupt
 508 002a C0F20002 		movt	r2, #:upper16:adc_lld_serve_rx_interrupt
 509 002e 0621     		movs	r1, #6
 510 0030 2346     		mov	r3, r4
 511 0032 C06A     		ldr	r0, [r0, #44]
 512              	.LVL34:
 513 0034 FFF7FEFF 		bl	dmaStreamAllocate
ARM GAS  /tmp/ccl2msbI.s 			page 10


 514              	.LVL35:
 515              		.loc 1 159 0
 516 0038 E36A     		ldr	r3, [r4, #44]
 517 003a 42F25842 		movw	r2, #9304
 518 003e 1968     		ldr	r1, [r3]
 519 0040 C4F20102 		movt	r2, 16385
 520              		.loc 1 160 0
 521 0044 4FF46053 		mov	r3, #14336
 522              		.loc 1 159 0
 523 0048 8A60     		str	r2, [r1, #8]
 524              		.loc 1 160 0
 525 004a C4F20203 		movt	r3, 16386
 526 004e 1A6A     		ldr	r2, [r3, #32]
 527 0050 42F40072 		orr	r2, r2, #512
 528 0054 1A62     		str	r2, [r3, #32]
 529 0056 DFE7     		b	.L55
 530              	.LBE42:
 531              		.cfi_endproc
 532              	.LFE66:
 533              		.size	adc_lld_start, .-adc_lld_start
 534              		.section	.text.adc_lld_stop,"ax",%progbits
 535              		.align	2
 536              		.global	adc_lld_stop
 537              		.thumb
 538              		.thumb_func
 539              		.type	adc_lld_stop, %function
 540              	adc_lld_stop:
 541              	.LFB67:
 542              		.loc 1 179 0
 543              		.cfi_startproc
 544              		@ args = 0, pretend = 0, frame = 0
 545              		@ frame_needed = 0, uses_anonymous_args = 0
 546              	.LVL36:
 547              		.loc 1 182 0
 548 0000 0378     		ldrb	r3, [r0]	@ zero_extendqisi2
 549              		.loc 1 179 0
 550 0002 10B5     		push	{r4, lr}
 551              		.cfi_def_cfa_offset 8
 552              		.cfi_offset 4, -8
 553              		.cfi_offset 14, -4
 554              		.loc 1 182 0
 555 0004 022B     		cmp	r3, #2
 556              		.loc 1 179 0
 557 0006 0446     		mov	r4, r0
 558              		.loc 1 182 0
 559 0008 00D0     		beq	.L62
 560 000a 10BD     		pop	{r4, pc}
 561              	.L62:
 562              		.loc 1 183 0
 563 000c C06A     		ldr	r0, [r0, #44]
 564              	.LVL37:
 565 000e FFF7FEFF 		bl	dmaStreamRelease
 566              	.LVL38:
 567              		.loc 1 188 0
 568 0012 40F20003 		movw	r3, #:lower16:.LANCHOR0
 569 0016 C0F20003 		movt	r3, #:upper16:.LANCHOR0
 570              		.loc 1 184 0
ARM GAS  /tmp/ccl2msbI.s 			page 11


 571 001a A26A     		ldr	r2, [r4, #40]
 572              		.loc 1 188 0
 573 001c 9C42     		cmp	r4, r3
 574              		.loc 1 189 0
 575 001e 08BF     		it	eq
 576 0020 4FF46053 		moveq	r3, #14336
 577              		.loc 1 184 0
 578 0024 4FF00001 		mov	r1, #0
 579 0028 5160     		str	r1, [r2, #4]
 580              		.loc 1 189 0
 581 002a 08BF     		it	eq
 582 002c C4F20203 		movteq	r3, 16386
 583              		.loc 1 185 0
 584 0030 9160     		str	r1, [r2, #8]
 585              		.loc 1 189 0
 586 0032 02BF     		ittt	eq
 587 0034 1A6A     		ldreq	r2, [r3, #32]
 588 0036 22F40072 		biceq	r2, r2, #512
 589 003a 1A62     		streq	r2, [r3, #32]
 590 003c 10BD     		pop	{r4, pc}
 591              		.cfi_endproc
 592              	.LFE67:
 593              		.size	adc_lld_stop, .-adc_lld_stop
 594 003e 00BF     		.section	.text.adc_lld_start_conversion,"ax",%progbits
 595              		.align	2
 596              		.global	adc_lld_start_conversion
 597              		.thumb
 598              		.thumb_func
 599              		.type	adc_lld_start_conversion, %function
 600              	adc_lld_start_conversion:
 601              	.LFB68:
 602              		.loc 1 201 0
 603              		.cfi_startproc
 604              		@ args = 0, pretend = 0, frame = 0
 605              		@ frame_needed = 0, uses_anonymous_args = 0
 606              		@ link register save eliminated.
 607              	.LVL39:
 608              		.loc 1 203 0
 609 0000 0369     		ldr	r3, [r0, #16]
 610              	.LVL40:
 611              		.loc 1 201 0
 612 0002 2DE9F00F 		push	{r4, r5, r6, r7, r8, r9, r10, fp}
 613              		.cfi_def_cfa_offset 32
 614              		.cfi_offset 4, -32
 615              		.cfi_offset 5, -28
 616              		.cfi_offset 6, -24
 617              		.cfi_offset 7, -20
 618              		.cfi_offset 8, -16
 619              		.cfi_offset 9, -12
 620              		.cfi_offset 10, -8
 621              		.cfi_offset 11, -4
 622              		.loc 1 207 0
 623 0006 1978     		ldrb	r1, [r3]	@ zero_extendqisi2
 624              		.loc 1 206 0
 625 0008 026B     		ldr	r2, [r0, #48]
 626              	.LVL41:
 627              		.loc 1 209 0
ARM GAS  /tmp/ccl2msbI.s 			page 12


 628 000a C568     		ldr	r5, [r0, #12]
 629              		.loc 1 207 0
 630 000c 29B1     		cbz	r1, .L65
 631              	.LVL42:
 632              		.loc 1 209 0
 633 000e 012D     		cmp	r5, #1
 634              		.loc 1 208 0
 635 0010 94BF     		ite	ls
 636 0012 42F02002 		orrls	r2, r2, #32
 637              	.LVL43:
 638              		.loc 1 212 0
 639 0016 42F02402 		orrhi	r2, r2, #36
 640              	.LVL44:
 641              	.L65:
 642              		.loc 1 216 0
 643 001a 5C88     		ldrh	r4, [r3, #2]
 644              		.loc 1 215 0
 645 001c C16A     		ldr	r1, [r0, #44]
 646              		.loc 1 216 0
 647 001e 04FB05F5 		mul	r5, r4, r5
 648              		.loc 1 215 0
 649 0022 0968     		ldr	r1, [r1]
 650 0024 8468     		ldr	r4, [r0, #8]
 651              		.loc 1 234 0
 652 0026 D3F80CB0 		ldr	fp, [r3, #12]
 653              		.loc 1 215 0
 654 002a CC60     		str	r4, [r1, #12]
 655              		.loc 1 216 0
 656 002c 4D60     		str	r5, [r1, #4]
 657              		.loc 1 218 0
 658 002e 0A60     		str	r2, [r1]
 659              		.loc 1 219 0
 660 0030 D1F800A0 		ldr	r10, [r1]
 661              		.loc 1 223 0
 662 0034 D3F81490 		ldr	r9, [r3, #20]
 663              		.loc 1 224 0
 664 0038 D3F81880 		ldr	r8, [r3, #24]
 665              		.loc 1 226 0
 666 003c 1F6A     		ldr	r7, [r3, #32]
 667              		.loc 1 227 0
 668 003e 5E6A     		ldr	r6, [r3, #36]
 669              		.loc 1 228 0
 670 0040 9D6A     		ldr	r5, [r3, #40]
 671              		.loc 1 229 0
 672 0042 DC6A     		ldr	r4, [r3, #44]
 673              		.loc 1 222 0
 674 0044 826A     		ldr	r2, [r0, #40]
 675              	.LVL45:
 676              		.loc 1 225 0
 677 0046 D3F81CC0 		ldr	ip, [r3, #28]
 678              		.loc 1 230 0
 679 004a 186B     		ldr	r0, [r3, #48]
 680              	.LVL46:
 681              		.loc 1 235 0
 682 004c 1B69     		ldr	r3, [r3, #16]
 683              	.LVL47:
 684              		.loc 1 219 0
ARM GAS  /tmp/ccl2msbI.s 			page 13


 685 004e 4AF0010A 		orr	r10, r10, #1
 686              		.loc 1 235 0
 687 0052 13F0804F 		tst	r3, #1073741824
 688              		.loc 1 234 0
 689 0056 4BF0806B 		orr	fp, fp, #67108864
 690              		.loc 1 237 0
 691 005a 43F44073 		orr	r3, r3, #768
 692              		.loc 1 219 0
 693 005e C1F800A0 		str	r10, [r1]
 694              	.LVL48:
 695              		.loc 1 234 0
 696 0062 4BF4807B 		orr	fp, fp, #256
 697              		.loc 1 222 0
 698 0066 4FF00001 		mov	r1, #0
 699              		.loc 1 237 0
 700 006a 14BF     		ite	ne
 701 006c 43F00303 		orrne	r3, r3, #3
 702              		.loc 1 240 0
 703 0070 43F00103 		orreq	r3, r3, #1
 704              		.loc 1 222 0
 705 0074 1160     		str	r1, [r2]
 706              		.loc 1 223 0
 707 0076 C2F80C90 		str	r9, [r2, #12]
 708              		.loc 1 224 0
 709 007a C2F81080 		str	r8, [r2, #16]
 710              		.loc 1 225 0
 711 007e C2F814C0 		str	ip, [r2, #20]
 712              		.loc 1 226 0
 713 0082 1763     		str	r7, [r2, #48]
 714              		.loc 1 227 0
 715 0084 5663     		str	r6, [r2, #52]
 716              		.loc 1 228 0
 717 0086 9563     		str	r5, [r2, #56]
 718              		.loc 1 229 0
 719 0088 D463     		str	r4, [r2, #60]
 720              		.loc 1 230 0
 721 008a 1064     		str	r0, [r2, #64]
 722              		.loc 1 234 0
 723 008c C2F804B0 		str	fp, [r2, #4]
 724              		.loc 1 239 0
 725 0090 9360     		str	r3, [r2, #8]
 726              		.loc 1 241 0
 727 0092 BDE8F00F 		pop	{r4, r5, r6, r7, r8, r9, r10, fp}
 728 0096 7047     		bx	lr
 729              		.cfi_endproc
 730              	.LFE68:
 731              		.size	adc_lld_start_conversion, .-adc_lld_start_conversion
 732              		.section	.text.adc_lld_stop_conversion,"ax",%progbits
 733              		.align	2
 734              		.global	adc_lld_stop_conversion
 735              		.thumb
 736              		.thumb_func
 737              		.type	adc_lld_stop_conversion, %function
 738              	adc_lld_stop_conversion:
 739              	.LFB69:
 740              		.loc 1 250 0
 741              		.cfi_startproc
ARM GAS  /tmp/ccl2msbI.s 			page 14


 742              		@ args = 0, pretend = 0, frame = 0
 743              		@ frame_needed = 0, uses_anonymous_args = 0
 744              		@ link register save eliminated.
 745              	.LVL49:
 746              		.loc 1 252 0
 747 0000 C26A     		ldr	r2, [r0, #44]
 748              		.loc 1 250 0
 749 0002 30B4     		push	{r4, r5}
 750              		.cfi_def_cfa_offset 8
 751              		.cfi_offset 4, -8
 752              		.cfi_offset 5, -4
 753              		.loc 1 252 0
 754 0004 1168     		ldr	r1, [r2]
 755              		.loc 1 253 0
 756 0006 836A     		ldr	r3, [r0, #40]
 757              		.loc 1 252 0
 758 0008 0D68     		ldr	r5, [r1]
 759 000a 5068     		ldr	r0, [r2, #4]
 760              	.LVL50:
 761 000c 25F00F05 		bic	r5, r5, #15
 762 0010 0D60     		str	r5, [r1]
 763 0012 117A     		ldrb	r1, [r2, #8]	@ zero_extendqisi2
 764 0014 0F24     		movs	r4, #15
 765 0016 8C40     		lsls	r4, r4, r1
 766              		.loc 1 253 0
 767 0018 0022     		movs	r2, #0
 768              		.loc 1 255 0
 769 001a 0121     		movs	r1, #1
 770              		.loc 1 252 0
 771 001c 0460     		str	r4, [r0]
 772              		.loc 1 253 0
 773 001e 5A60     		str	r2, [r3, #4]
 774              		.loc 1 256 0
 775 0020 30BC     		pop	{r4, r5}
 776              		.loc 1 254 0
 777 0022 9A60     		str	r2, [r3, #8]
 778              		.loc 1 255 0
 779 0024 9960     		str	r1, [r3, #8]
 780              		.loc 1 256 0
 781 0026 7047     		bx	lr
 782              		.cfi_endproc
 783              	.LFE69:
 784              		.size	adc_lld_stop_conversion, .-adc_lld_stop_conversion
 785              		.section	.text.adcSTM32EnableTSVREFE,"ax",%progbits
 786              		.align	2
 787              		.global	adcSTM32EnableTSVREFE
 788              		.thumb
 789              		.thumb_func
 790              		.type	adcSTM32EnableTSVREFE, %function
 791              	adcSTM32EnableTSVREFE:
 792              	.LFB70:
 793              		.loc 1 264 0
 794              		.cfi_startproc
 795              		@ args = 0, pretend = 0, frame = 0
 796              		@ frame_needed = 0, uses_anonymous_args = 0
 797              		@ link register save eliminated.
 798              		.loc 1 266 0
ARM GAS  /tmp/ccl2msbI.s 			page 15


 799 0000 4FF41C53 		mov	r3, #9984
 800 0004 C4F20103 		movt	r3, 16385
 801 0008 5A68     		ldr	r2, [r3, #4]
 802 000a 42F40002 		orr	r2, r2, #8388608
 803 000e 5A60     		str	r2, [r3, #4]
 804 0010 7047     		bx	lr
 805              		.cfi_endproc
 806              	.LFE70:
 807              		.size	adcSTM32EnableTSVREFE, .-adcSTM32EnableTSVREFE
 808 0012 00BF     		.section	.text.adcSTM32DisableTSVREFE,"ax",%progbits
 809              		.align	2
 810              		.global	adcSTM32DisableTSVREFE
 811              		.thumb
 812              		.thumb_func
 813              		.type	adcSTM32DisableTSVREFE, %function
 814              	adcSTM32DisableTSVREFE:
 815              	.LFB71:
 816              		.loc 1 275 0
 817              		.cfi_startproc
 818              		@ args = 0, pretend = 0, frame = 0
 819              		@ frame_needed = 0, uses_anonymous_args = 0
 820              		@ link register save eliminated.
 821              		.loc 1 277 0
 822 0000 4FF41C53 		mov	r3, #9984
 823 0004 C4F20103 		movt	r3, 16385
 824 0008 5A68     		ldr	r2, [r3, #4]
 825 000a 22F40002 		bic	r2, r2, #8388608
 826 000e 5A60     		str	r2, [r3, #4]
 827 0010 7047     		bx	lr
 828              		.cfi_endproc
 829              	.LFE71:
 830              		.size	adcSTM32DisableTSVREFE, .-adcSTM32DisableTSVREFE
 831              		.global	ADCD1
 832 0012 00BF     		.section	.bss.ADCD1,"aw",%nobits
 833              		.align	2
 834              		.set	.LANCHOR0,. + 0
 835              		.type	ADCD1, %object
 836              		.size	ADCD1, 52
 837              	ADCD1:
 838 0000 00000000 		.space	52
 838      00000000 
 838      00000000 
 838      00000000 
 838      00000000 
 839              		.text
 840              	.Letext0:
 841              		.file 2 "/usr/lib/gcc/arm-none-eabi/4.8.2/include/stddef.h"
 842              		.file 3 "/usr/include/newlib/machine/_default_types.h"
 843              		.file 4 "/usr/include/newlib/stdint.h"
 844              		.file 5 "../ChibiOS_2.6.4/os/ports/GCC/ARMCMx/chtypes.h"
 845              		.file 6 "../ChibiOS_2.6.4/os/kernel/include/chlists.h"
 846              		.file 7 "../ChibiOS_2.6.4/os/kernel/include/chthreads.h"
 847              		.file 8 "../ChibiOS_2.6.4/os/ports/GCC/ARMCMx/chcore_v7m.h"
 848              		.file 9 "../ChibiOS_2.6.4/os/kernel/include/chmtx.h"
 849              		.file 10 "../ChibiOS_2.6.4/os/hal/platforms/STM32L1xx/stm32l1xx.h"
 850              		.file 11 "../ChibiOS_2.6.4/os/hal/platforms/STM32L1xx/stm32_dma.h"
 851              		.file 12 "../ChibiOS_2.6.4/os/hal/include/adc.h"
ARM GAS  /tmp/ccl2msbI.s 			page 16


 852              		.file 13 "../ChibiOS_2.6.4/os/hal/platforms/STM32L1xx/adc_lld.h"
 853              		.file 14 "../ChibiOS_2.6.4/os/ports/common/ARMCMx/CMSIS/include/core_cm3.h"
 854              		.file 15 "../ChibiOS_2.6.4/os/ports/common/ARMCMx/nvic.h"
 855              		.file 16 "../ChibiOS_2.6.4/os/kernel/include/chschd.h"