ARM GAS  /tmp/ccl2msbI.s 			page 1


   1              		.syntax unified
   2              		.cpu cortex-m3
   3              		.fpu softvfp
   4              		.eabi_attribute 20, 1
   5              		.eabi_attribute 21, 1
   6              		.eabi_attribute 23, 3
   7              		.eabi_attribute 24, 1
   8              		.eabi_attribute 25, 1
   9              		.eabi_attribute 26, 1
  10              		.eabi_attribute 30, 2
  11              		.eabi_attribute 34, 1
  12              		.eabi_attribute 18, 4
  13              		.thumb
  14              		.file	"adc_lld.c"
  15              		.text
  16              	.Ltext0:
  17              		.cfi_sections	.debug_frame
  18              		.section	.text.adc_lld_serve_rx_interrupt,"ax",%progbits
  19              		.align	2
  20              		.thumb
  21              		.thumb_func
  22              		.type	adc_lld_serve_rx_interrupt, %function
  23              	adc_lld_serve_rx_interrupt:
  24              	.LFB63:
  25              		.file 1 "../ChibiOS_2.6.4/os/hal/platforms/STM32L1xx/adc_lld.c"
  26              		.loc 1 57 0
  27              		.cfi_startproc
  28              		@ args = 0, pretend = 0, frame = 0
  29              		@ frame_needed = 0, uses_anonymous_args = 0
  30              	.LVL0:
  31 0000 F8B5     		push	{r3, r4, r5, r6, r7, lr}
  32              		.cfi_def_cfa_offset 24
  33              		.cfi_offset 3, -24
  34              		.cfi_offset 4, -20
  35              		.cfi_offset 5, -16
  36              		.cfi_offset 6, -12
  37              		.cfi_offset 7, -8
  38              		.cfi_offset 14, -4
  39              		.loc 1 60 0
  40 0002 0E07     		lsls	r6, r1, #28
  41              		.loc 1 57 0
  42 0004 0446     		mov	r4, r0
  43              		.loc 1 60 0
  44 0006 2ED5     		bpl	.L2
  45              	.LVL1:
  46              	.LBB18:
  47              	.LBB19:
  48              		.loc 1 252 0
  49 0008 C36A     		ldr	r3, [r0, #44]
  50              	.LBE19:
  51              	.LBE18:
  52              		.loc 1 63 0
  53 000a 0169     		ldr	r1, [r0, #16]
  54              	.LVL2:
  55              	.LBB22:
  56              	.LBB20:
  57              		.loc 1 252 0
ARM GAS  /tmp/ccl2msbI.s 			page 2


  58 000c 1A68     		ldr	r2, [r3]
  59 000e 5E68     		ldr	r6, [r3, #4]
  60 0010 1568     		ldr	r5, [r2]
  61 0012 0F27     		movs	r7, #15
  62 0014 25F00F05 		bic	r5, r5, #15
  63 0018 1560     		str	r5, [r2]
  64 001a 1A7A     		ldrb	r2, [r3, #8]	@ zero_extendqisi2
  65              		.loc 1 253 0
  66 001c 836A     		ldr	r3, [r0, #40]
  67              		.loc 1 252 0
  68 001e 9740     		lsls	r7, r7, r2
  69              	.LBE20:
  70              	.LBE22:
  71              		.loc 1 63 0
  72 0020 8A68     		ldr	r2, [r1, #8]
  73              	.LBB23:
  74              	.LBB21:
  75              		.loc 1 255 0
  76 0022 0125     		movs	r5, #1
  77              		.loc 1 253 0
  78 0024 0021     		movs	r1, #0
  79              		.loc 1 252 0
  80 0026 3760     		str	r7, [r6]
  81              		.loc 1 253 0
  82 0028 5960     		str	r1, [r3, #4]
  83              		.loc 1 254 0
  84 002a 9960     		str	r1, [r3, #8]
  85              		.loc 1 255 0
  86 002c 9D60     		str	r5, [r3, #8]
  87              	.LBE21:
  88              	.LBE23:
  89              		.loc 1 63 0
  90 002e 3AB1     		cbz	r2, .L4
  91              		.loc 1 63 0 is_stmt 0 discriminator 1
  92 0030 0523     		movs	r3, #5
  93 0032 0370     		strb	r3, [r0]
  94 0034 9047     		blx	r2
  95              	.LVL3:
  96 0036 2378     		ldrb	r3, [r4]	@ zero_extendqisi2
  97 0038 052B     		cmp	r3, #5
  98 003a 04BF     		itt	eq
  99 003c 0223     		moveq	r3, #2
 100 003e 2370     		strbeq	r3, [r4]
 101              	.L4:
 102              		.loc 1 63 0 discriminator 2
 103 0040 0023     		movs	r3, #0
 104 0042 2361     		str	r3, [r4, #16]
 105              	.LBB24:
 106 0044 2023     		movs	r3, #32
 107              	@ 63 "../ChibiOS_2.6.4/os/hal/platforms/STM32L1xx/adc_lld.c" 1
 108 0046 83F31188 		msr     BASEPRI, r3
 109              	@ 0 "" 2
 110              		.thumb
 111              	.LBE24:
 112 004a 6369     		ldr	r3, [r4, #20]
 113 004c 3BB1     		cbz	r3, .L13
 114              	.LVL4:
ARM GAS  /tmp/ccl2msbI.s 			page 3


 115              	.LBB25:
 116              		.loc 1 63 0 discriminator 1
 117 004e 0021     		movs	r1, #0
 118 0050 4FF0FF32 		mov	r2, #-1
 119 0054 6161     		str	r1, [r4, #20]
 120 0056 1846     		mov	r0, r3
 121 0058 5A62     		str	r2, [r3, #36]
 122 005a FFF7FEFF 		bl	chSchReadyI
 123              	.LVL5:
 124              	.L13:
 125              	.LBE25:
 126              	.LBB26:
 127              		.loc 1 71 0 is_stmt 1 discriminator 2
 128 005e 0023     		movs	r3, #0
 129              	@ 71 "../ChibiOS_2.6.4/os/hal/platforms/STM32L1xx/adc_lld.c" 1
 130 0060 83F31188 		msr     BASEPRI, r3
 131              	@ 0 "" 2
 132              		.thumb
 133 0064 F8BD     		pop	{r3, r4, r5, r6, r7, pc}
 134              	.LVL6:
 135              	.L2:
 136              	.LBE26:
 137              		.loc 1 68 0
 138 0066 0369     		ldr	r3, [r0, #16]
 139 0068 002B     		cmp	r3, #0
 140 006a 39D0     		beq	.L1
 141              		.loc 1 69 0
 142 006c 8D07     		lsls	r5, r1, #30
 143 006e 2FD5     		bpl	.L8
 144              		.loc 1 71 0
 145 0070 1D78     		ldrb	r5, [r3]	@ zero_extendqisi2
 146 0072 002D     		cmp	r5, #0
 147 0074 35D1     		bne	.L33
 148              	.LVL7:
 149              	.LBB27:
 150              	.LBB28:
 151              		.loc 1 252 0
 152 0076 C26A     		ldr	r2, [r0, #44]
 153              	.LBE28:
 154              	.LBE27:
 155              		.loc 1 71 0
 156 0078 5E68     		ldr	r6, [r3, #4]
 157              	.LBB30:
 158              	.LBB29:
 159              		.loc 1 252 0
 160 007a 1168     		ldr	r1, [r2]
 161              	.LVL8:
 162 007c 5768     		ldr	r7, [r2, #4]
 163 007e 0B68     		ldr	r3, [r1]
 164 0080 4FF00F0C 		mov	ip, #15
 165 0084 23F00F03 		bic	r3, r3, #15
 166 0088 0B60     		str	r3, [r1]
 167 008a 127A     		ldrb	r2, [r2, #8]	@ zero_extendqisi2
 168              		.loc 1 253 0
 169 008c 836A     		ldr	r3, [r0, #40]
 170              		.loc 1 252 0
 171 008e 0CFA02F1 		lsl	r1, ip, r2
ARM GAS  /tmp/ccl2msbI.s 			page 4


 172              		.loc 1 255 0
 173 0092 0122     		movs	r2, #1
 174              		.loc 1 252 0
 175 0094 3960     		str	r1, [r7]
 176              		.loc 1 253 0
 177 0096 5D60     		str	r5, [r3, #4]
 178              		.loc 1 254 0
 179 0098 9D60     		str	r5, [r3, #8]
 180              		.loc 1 255 0
 181 009a 9A60     		str	r2, [r3, #8]
 182              	.LBE29:
 183              	.LBE30:
 184              		.loc 1 71 0
 185 009c 002E     		cmp	r6, #0
 186 009e 30D0     		beq	.L11
 187              		.loc 1 71 0 is_stmt 0 discriminator 1
 188 00a0 0423     		movs	r3, #4
 189 00a2 0370     		strb	r3, [r0]
 190 00a4 8168     		ldr	r1, [r0, #8]
 191 00a6 C268     		ldr	r2, [r0, #12]
 192 00a8 B047     		blx	r6
 193              	.LVL9:
 194 00aa 2378     		ldrb	r3, [r4]	@ zero_extendqisi2
 195 00ac 042B     		cmp	r3, #4
 196 00ae 02BF     		ittt	eq
 197 00b0 0223     		moveq	r3, #2
 198 00b2 2561     		streq	r5, [r4, #16]
 199 00b4 2370     		strbeq	r3, [r4]
 200              	.L12:
 201              	.LBB31:
 202 00b6 2023     		movs	r3, #32
 203              	@ 71 "../ChibiOS_2.6.4/os/hal/platforms/STM32L1xx/adc_lld.c" 1
 204 00b8 83F31188 		msr     BASEPRI, r3
 205              	@ 0 "" 2
 206              		.thumb
 207              	.LBE31:
 208 00bc 6369     		ldr	r3, [r4, #20]
 209 00be 002B     		cmp	r3, #0
 210 00c0 CDD0     		beq	.L13
 211              	.LVL10:
 212              	.LBB32:
 213 00c2 0022     		movs	r2, #0
 214 00c4 6261     		str	r2, [r4, #20]
 215 00c6 1846     		mov	r0, r3
 216 00c8 5A62     		str	r2, [r3, #36]
 217 00ca FFF7FEFF 		bl	chSchReadyI
 218              	.LVL11:
 219 00ce C6E7     		b	.L13
 220              	.LVL12:
 221              	.L8:
 222              	.LBE32:
 223              		.loc 1 73 0 is_stmt 1
 224 00d0 4A07     		lsls	r2, r1, #29
 225 00d2 05D5     		bpl	.L1
 226              		.loc 1 75 0
 227 00d4 5B68     		ldr	r3, [r3, #4]
 228 00d6 1BB1     		cbz	r3, .L1
ARM GAS  /tmp/ccl2msbI.s 			page 5


 229              		.loc 1 75 0 is_stmt 0 discriminator 1
 230 00d8 C268     		ldr	r2, [r0, #12]
 231 00da 8168     		ldr	r1, [r0, #8]
 232              	.LVL13:
 233 00dc 5208     		lsrs	r2, r2, #1
 234 00de 9847     		blx	r3
 235              	.LVL14:
 236              	.L1:
 237 00e0 F8BD     		pop	{r3, r4, r5, r6, r7, pc}
 238              	.LVL15:
 239              	.L33:
 240              		.loc 1 71 0 is_stmt 1 discriminator 1
 241 00e2 5D68     		ldr	r5, [r3, #4]
 242 00e4 002D     		cmp	r5, #0
 243 00e6 FBD0     		beq	.L1
 244 00e8 C268     		ldr	r2, [r0, #12]
 245 00ea 012A     		cmp	r2, #1
 246              	.LBB33:
 247 00ec 81BF     		itttt	hi
 248 00ee 5988     		ldrhhi	r1, [r3, #2]
 249              	.LVL16:
 250 00f0 5208     		lsrhi	r2, r2, #1
 251              	.LVL17:
 252 00f2 5143     		mulhi	r1, r1, r2
 253 00f4 8368     		ldrhi	r3, [r0, #8]
 254              	.LVL18:
 255              	.LBE33:
 256 00f6 94BF     		ite	ls
 257 00f8 8168     		ldrls	r1, [r0, #8]
 258              	.LBB34:
 259 00fa 03EB4101 		addhi	r1, r3, r1, lsl #1
 260              	.LBE34:
 261 00fe A847     		blx	r5
 262              	.LVL19:
 263 0100 F8BD     		pop	{r3, r4, r5, r6, r7, pc}
 264              	.LVL20:
 265              	.L11:
 266              		.loc 1 71 0 is_stmt 0 discriminator 2
 267 0102 0223     		movs	r3, #2
 268 0104 0661     		str	r6, [r0, #16]
 269 0106 0370     		strb	r3, [r0]
 270 0108 D5E7     		b	.L12
 271              		.cfi_endproc
 272              	.LFE63:
 273              		.size	adc_lld_serve_rx_interrupt, .-adc_lld_serve_rx_interrupt
 274              		.section	.text.Vector88,"ax",%progbits
 275              		.align	2
 276              		.global	Vector88
 277              		.thumb
 278              		.thumb_func
 279              		.type	Vector88, %function
 280              	Vector88:
 281              	.LFB64:
 282              		.loc 1 91 0 is_stmt 1
 283              		.cfi_startproc
 284              		@ args = 0, pretend = 0, frame = 0
 285              		@ frame_needed = 0, uses_anonymous_args = 0
ARM GAS  /tmp/ccl2msbI.s 			page 6


 286              		.loc 1 96 0
 287 0000 4FF41053 		mov	r3, #9216
 288 0004 C4F20103 		movt	r3, 16385
 289 0008 1968     		ldr	r1, [r3]
 290              	.LVL21:
 291              		.loc 1 97 0
 292 000a 0022     		movs	r2, #0
 293              		.loc 1 91 0
 294 000c 70B5     		push	{r4, r5, r6, lr}
 295              		.cfi_def_cfa_offset 16
 296              		.cfi_offset 4, -16
 297              		.cfi_offset 5, -12
 298              		.cfi_offset 6, -8
 299              		.cfi_offset 14, -4
 300              		.loc 1 97 0
 301 000e 1A60     		str	r2, [r3]
 302              		.loc 1 100 0
 303 0010 8B06     		lsls	r3, r1, #26
 304 0012 39D5     		bpl	.L35
 305              		.loc 1 100 0 is_stmt 0 discriminator 1
 306 0014 40F20004 		movw	r4, #:lower16:.LANCHOR0
 307 0018 C0F20004 		movt	r4, #:upper16:.LANCHOR0
 308 001c E36A     		ldr	r3, [r4, #44]
 309 001e 1968     		ldr	r1, [r3]
 310              	.LVL22:
 311 0020 4868     		ldr	r0, [r1, #4]
 312 0022 0028     		cmp	r0, #0
 313 0024 30D0     		beq	.L35
 314              		.loc 1 103 0 is_stmt 1
 315 0026 2069     		ldr	r0, [r4, #16]
 316 0028 0028     		cmp	r0, #0
 317 002a 2DD0     		beq	.L35
 318              	.LVL23:
 319              	.LBB35:
 320              	.LBB36:
 321              		.loc 1 252 0
 322 002c 0D68     		ldr	r5, [r1]
 323 002e 0F26     		movs	r6, #15
 324 0030 25F00F05 		bic	r5, r5, #15
 325 0034 0D60     		str	r5, [r1]
 326 0036 197A     		ldrb	r1, [r3, #8]	@ zero_extendqisi2
 327              	.LBE36:
 328              	.LBE35:
 329              		.loc 1 104 0
 330 0038 8568     		ldr	r5, [r0, #8]
 331              	.LBB38:
 332              	.LBB37:
 333              		.loc 1 252 0
 334 003a 8E40     		lsls	r6, r6, r1
 335 003c 5868     		ldr	r0, [r3, #4]
 336              		.loc 1 253 0
 337 003e A36A     		ldr	r3, [r4, #40]
 338              		.loc 1 255 0
 339 0040 0121     		movs	r1, #1
 340              		.loc 1 252 0
 341 0042 0660     		str	r6, [r0]
 342              		.loc 1 253 0
ARM GAS  /tmp/ccl2msbI.s 			page 7


 343 0044 5A60     		str	r2, [r3, #4]
 344              		.loc 1 254 0
 345 0046 9A60     		str	r2, [r3, #8]
 346              		.loc 1 255 0
 347 0048 9960     		str	r1, [r3, #8]
 348              	.LBE37:
 349              	.LBE38:
 350              		.loc 1 104 0
 351 004a 45B1     		cbz	r5, .L37
 352              		.loc 1 104 0 is_stmt 0 discriminator 1
 353 004c 0523     		movs	r3, #5
 354 004e 2370     		strb	r3, [r4]
 355 0050 2046     		mov	r0, r4
 356 0052 A847     		blx	r5
 357              	.LVL24:
 358 0054 2378     		ldrb	r3, [r4]	@ zero_extendqisi2
 359 0056 052B     		cmp	r3, #5
 360 0058 04BF     		itt	eq
 361 005a 0223     		moveq	r3, #2
 362 005c 2370     		strbeq	r3, [r4]
 363              	.L37:
 364              		.loc 1 104 0 discriminator 2
 365 005e 0023     		movs	r3, #0
 366 0060 2361     		str	r3, [r4, #16]
 367              	.LBB39:
 368 0062 2023     		movs	r3, #32
 369              	@ 104 "../ChibiOS_2.6.4/os/hal/platforms/STM32L1xx/adc_lld.c" 1
 370 0064 83F31188 		msr     BASEPRI, r3
 371              	@ 0 "" 2
 372              		.thumb
 373              	.LBE39:
 374 0068 40F20003 		movw	r3, #:lower16:.LANCHOR0
 375 006c C0F20003 		movt	r3, #:upper16:.LANCHOR0
 376 0070 5869     		ldr	r0, [r3, #20]
 377 0072 30B1     		cbz	r0, .L39
 378              	.LVL25:
 379              	.LBB40:
 380              		.loc 1 104 0 discriminator 1
 381 0074 4FF0FF32 		mov	r2, #-1
 382 0078 4262     		str	r2, [r0, #36]
 383 007a 0022     		movs	r2, #0
 384 007c 5A61     		str	r2, [r3, #20]
 385 007e FFF7FEFF 		bl	chSchReadyI
 386              	.LVL26:
 387              	.L39:
 388              	.LBE40:
 389              	.LBB41:
 390              		.loc 1 104 0 discriminator 2
 391 0082 0023     		movs	r3, #0
 392              	@ 104 "../ChibiOS_2.6.4/os/hal/platforms/STM32L1xx/adc_lld.c" 1
 393 0084 83F31188 		msr     BASEPRI, r3
 394              	@ 0 "" 2
 395              	.LVL27:
 396              		.thumb
 397              	.L35:
 398              	.LBE41:
 399              		.loc 1 109 0 is_stmt 1
ARM GAS  /tmp/ccl2msbI.s 			page 8


 400 0088 BDE87040 		pop	{r4, r5, r6, lr}
 401              		.loc 1 108 0
 402 008c FFF7FEBF 		b	_port_irq_epilogue
 403              	.LVL28:
 404              		.cfi_endproc
 405              	.LFE64:
 406              		.size	Vector88, .-Vector88
 407              		.section	.text.adc_lld_init,"ax",%progbits
 408              		.align	2
 409              		.global	adc_lld_init
 410              		.thumb
 411              		.thumb_func
 412              		.type	adc_lld_init, %function
 413              	adc_lld_init:
 414              	.LFB65:
 415              		.loc 1 121 0
 416              		.cfi_startproc
 417              		@ args = 0, pretend = 0, frame = 0
 418              		@ frame_needed = 0, uses_anonymous_args = 0
 419 0000 38B5     		push	{r3, r4, r5, lr}
 420              		.cfi_def_cfa_offset 16
 421              		.cfi_offset 3, -16
 422              		.cfi_offset 4, -12
 423              		.cfi_offset 5, -8
 424              		.cfi_offset 14, -4
 425              		.loc 1 125 0
 426 0002 40F20004 		movw	r4, #:lower16:.LANCHOR0
 427 0006 C0F20004 		movt	r4, #:upper16:.LANCHOR0
 428 000a 2046     		mov	r0, r4
 429 000c FFF7FEFF 		bl	adcObjectInit
 430              	.LVL29:
 431              		.loc 1 126 0
 432 0010 4FF41052 		mov	r2, #9216
 433              		.loc 1 127 0
 434 0014 40F20003 		movw	r3, #:lower16:_stm32_dma_streams
 435 0018 C0F20003 		movt	r3, #:upper16:_stm32_dma_streams
 436              		.loc 1 128 0
 437 001c 42F28A55 		movw	r5, #9610
 438              		.loc 1 126 0
 439 0020 C4F20102 		movt	r2, 16385
 440 0024 A262     		str	r2, [r4, #40]
 441              		.loc 1 127 0
 442 0026 E362     		str	r3, [r4, #44]
 443              		.loc 1 128 0
 444 0028 2563     		str	r5, [r4, #48]
 445              		.loc 1 137 0
 446 002a 1220     		movs	r0, #18
 447 002c 6021     		movs	r1, #96
 448              		.loc 1 138 0
 449 002e BDE83840 		pop	{r3, r4, r5, lr}
 450              		.loc 1 137 0
 451 0032 FFF7FEBF 		b	nvicEnableVector
 452              	.LVL30:
 453              		.cfi_endproc
 454              	.LFE65:
 455              		.size	adc_lld_init, .-adc_lld_init
 456 0036 00BF     		.section	.text.adc_lld_start,"ax",%progbits
ARM GAS  /tmp/ccl2msbI.s 			page 9


 457              		.align	2
 458              		.global	adc_lld_start
 459              		.thumb
 460              		.thumb_func
 461              		.type	adc_lld_start, %function
 462              	adc_lld_start:
 463              	.LFB66:
 464              		.loc 1 147 0
 465              		.cfi_startproc
 466              		@ args = 0, pretend = 0, frame = 0
 467              		@ frame_needed = 0, uses_anonymous_args = 0
 468              	.LVL31:
 469              		.loc 1 150 0
 470 0000 0378     		ldrb	r3, [r0]	@ zero_extendqisi2
 471              		.loc 1 147 0
 472 0002 10B5     		push	{r4, lr}
 473              		.cfi_def_cfa_offset 8
 474              		.cfi_offset 4, -8
 475              		.cfi_offset 14, -4
 476              		.loc 1 150 0
 477 0004 012B     		cmp	r3, #1
 478              		.loc 1 147 0
 479 0006 0446     		mov	r4, r0
 480              		.loc 1 150 0
 481 0008 00D0     		beq	.L56
 482 000a 10BD     		pop	{r4, pc}
 483              	.L56:
 484              		.loc 1 152 0
 485 000c 40F20003 		movw	r3, #:lower16:.LANCHOR0
 486 0010 C0F20003 		movt	r3, #:upper16:.LANCHOR0
 487 0014 9842     		cmp	r0, r3
 488 0016 06D0     		beq	.L57
 489              	.LVL32:
 490              	.L55:
 491              		.loc 1 166 0
 492 0018 A36A     		ldr	r3, [r4, #40]
 493 001a 0022     		movs	r2, #0
 494              		.loc 1 168 0
 495 001c 0121     		movs	r1, #1
 496              		.loc 1 166 0
 497 001e 5A60     		str	r2, [r3, #4]
 498              		.loc 1 167 0
 499 0020 9A60     		str	r2, [r3, #8]
 500              		.loc 1 168 0
 501 0022 9960     		str	r1, [r3, #8]
 502 0024 10BD     		pop	{r4, pc}
 503              	.LVL33:
 504              	.L57:
 505              	.LBB42:
 506              		.loc 1 154 0
 507 0026 40F20002 		movw	r2, #:lower16:adc_lld_serve_rx_interrupt
 508 002a C0F20002 		movt	r2, #:upper16:adc_lld_serve_rx_interrupt
 509 002e 0621     		movs	r1, #6
 510 0030 2346     		mov	r3, r4
 511 0032 C06A     		ldr	r0, [r0, #44]
 512              	.LVL34:
 513 0034 FFF7FEFF 		bl	dmaStreamAllocate
ARM GAS  /tmp/ccl2msbI.s 			page 10


 514              	.LVL35:
 515              		.loc 1 159 0
 516 0038 E36A     		ldr	r3, [r4, #44]
 517 003a 42F25842 		movw	r2, #9304
 518 003e 1968     		ldr	r1, [r3]
 519 0040 C4F20102 		movt	r2, 16385
 520              		.loc 1 160 0
 521 0044 4FF46053 		mov	r3, #14336
 522              		.loc 1 159 0
 523 0048 8A60     		str	r2, [r1, #8]
 524              		.loc 1 160 0
 525 004a C4F20203 		movt	r3, 16386
 526 004e 1A6A     		ldr	r2, [r3, #32]
 527 0050 42F40072 		orr	r2, r2, #512
 528 0054 1A62     		str	r2, [r3, #32]
 529 0056 DFE7     		b	.L55
 530              	.LBE42:
 531              		.cfi_endproc
 532              	.LFE66:
 533              		.size	adc_lld_start, .-adc_lld_start
 534              		.section	.text.adc_lld_stop,"ax",%progbits
 535              		.align	2
 536              		.global	adc_lld_stop
 537              		.thumb
 538              		.thumb_func
 539              		.type	adc_lld_stop, %function
 540              	adc_lld_stop:
 541              	.LFB67:
 542              		.loc 1 179 0
 543              		.cfi_startproc
 544              		@ args = 0, pretend = 0, frame = 0
 545              		@ frame_needed = 0, uses_anonymous_args = 0
 546              	.LVL36:
 547              		.loc 1 182 0
 548 0000 0378     		ldrb	r3, [r0]	@ zero_extendqisi2
 549              		.loc 1 179 0
 550 0002 10B5     		push	{r4, lr}
 551              		.cfi_def_cfa_offset 8
 552              		.cfi_offset 4, -8
 553              		.cfi_offset 14, -4
 554              		.loc 1 182 0
 555 0004 022B     		cmp	r3, #2
 556              		.loc 1 179 0
 557 0006 0446     		mov	r4, r0
 558              		.loc 1 182 0
 559 0008 00D0     		beq	.L62
 560 000a 10BD     		pop	{r4, pc}
 561              	.L62:
 562              		.loc 1 183 0
 563 000c C06A     		ldr	r0, [r0, #44]
 564              	.LVL37:
 565 000e FFF7FEFF 		bl	dmaStreamRelease
 566              	.LVL38:
 567              		.loc 1 188 0
 568 0012 40F20003 		movw	r3, #:lower16:.LANCHOR0
 569 0016 C0F20003 		movt	r3, #:upper16:.LANCHOR0
 570              		.loc 1 184 0
ARM GAS  /tmp/ccl2msbI.s 			page 11


 571 001a A26A     		ldr	r2, [r4, #40]
 572              		.loc 1 188 0
 573 001c 9C42     		cmp	r4, r3
 574              		.loc 1 189 0
 575 001e 08BF     		it	eq
 576 0020 4FF46053 		moveq	r3, #14336
 577              		.loc 1 184 0
 578 0024 4FF00001 		mov	r1, #0
 579 0028 5160     		str	r1, [r2, #4]
 580              		.loc 1 189 0
 581 002a 08BF     		it	eq
 582 002c C4F20203 		movteq	r3, 16386
 583              		.loc 1 185 0
 584 0030 9160     		str	r1, [r2, #8]
 585              		.loc 1 189 0
 586 0032 02BF     		ittt	eq
 587 0034 1A6A     		ldreq	r2, [r3, #32]
 588 0036 22F40072 		biceq	r2, r2, #512
 589 003a 1A62     		streq	r2, [r3, #32]
 590 003c 10BD     		pop	{r4, pc}
 591              		.cfi_endproc
 592              	.LFE67:
 593              		.size	adc_lld_stop, .-adc_lld_stop
 594 003e 00BF     		.section	.text.adc_lld_start_conversion,"ax",%progbits
 595              		.align	2
 596              		.global	adc_lld_start_conversion
 597              		.thumb
 598              		.thumb_func
 599              		.type	adc_lld_start_conversion, %function
 600              	adc_lld_start_conversion:
 601              	.LFB68:
 602              		.loc 1 201 0
 603              		.cfi_startproc
 604              		@ args = 0, pretend = 0, frame = 0
 605              		@ frame_needed = 0, uses_anonymous_args = 0
 606              		@ link register save eliminated.
 607              	.LVL39:
 608              		.loc 1 203 0
 609 0000 0369     		ldr	r3, [r0, #16]
 610              	.LVL40:
 611              		.loc 1 201 0
 612 0002 2DE9F00F 		push	{r4, r5, r6, r7, r8, r9, r10, fp}
 613              		.cfi_def_cfa_offset 32
 614              		.cfi_offset 4, -32
 615              		.cfi_offset 5, -28
 616              		.cfi_offset 6, -24
 617              		.cfi_offset 7, -20
 618              		.cfi_offset 8, -16
 619              		.cfi_offset 9, -12
 620              		.cfi_offset 10, -8
 621              		.cfi_offset 11, -4
 622              		.loc 1 207 0
 623 0006 1978     		ldrb	r1, [r3]	@ zero_extendqisi2
 624              		.loc 1 206 0
 625 0008 026B     		ldr	r2, [r0, #48]
 626              	.LVL41:
 627              		.loc 1 209 0
ARM GAS  /tmp/ccl2msbI.s 			page 12


 628 000a C568     		ldr	r5, [r0, #12]
 629              		.loc 1 207 0
 630 000c 29B1     		cbz	r1, .L65
 631              	.LVL42:
 632              		.loc 1 209 0
 633 000e 012D     		cmp	r5, #1
 634              		.loc 1 208 0
 635 0010 94BF     		ite	ls
 636 0012 42F02002 		orrls	r2, r2, #32
 637              	.LVL43:
 638              		.loc 1 212 0
 639 0016 42F02402 		orrhi	r2, r2, #36
 640              	.LVL44:
 641              	.L65:
 642              		.loc 1 216 0
 643 001a 5C88     		ldrh	r4, [r3, #2]
 644              		.loc 1 215 0
 645 001c C16A     		ldr	r1, [r0, #44]
 646              		.loc 1 216 0
 647 001e 04FB05F5 		mul	r5, r4, r5
 648              		.loc 1 215 0
 649 0022 0968     		ldr	r1, [r1]
 650 0024 8468     		ldr	r4, [r0, #8]
 651              		.loc 1 234 0
 652 0026 D3F80CB0 		ldr	fp, [r3, #12]
 653              		.loc 1 215 0
 654 002a CC60     		str	r4, [r1, #12]
 655              		.loc 1 216 0
 656 002c 4D60     		str	r5, [r1, #4]
 657              		.loc 1 218 0
 658 002e 0A60     		str	r2, [r1]
 659              		.loc 1 219 0
 660 0030 D1F800A0 		ldr	r10, [r1]
 661              		.loc 1 223 0
 662 0034 D3F81490 		ldr	r9, [r3, #20]
 663              		.loc 1 224 0
 664 0038 D3F81880 		ldr	r8, [r3, #24]
 665              		.loc 1 226 0
 666 003c 1F6A     		ldr	r7, [r3, #32]
 667              		.loc 1 227 0
 668 003e 5E6A     		ldr	r6, [r3, #36]
 669              		.loc 1 228 0
 670 0040 9D6A     		ldr	r5, [r3, #40]
 671              		.loc 1 229 0
 672 0042 DC6A     		ldr	r4, [r3, #44]
 673              		.loc 1 222 0
 674 0044 826A     		ldr	r2, [r0, #40]
 675              	.LVL45:
 676              		.loc 1 225 0
 677 0046 D3F81CC0 		ldr	ip, [r3, #28]
 678              		.loc 1 230 0
 679 004a 186B     		ldr	r0, [r3, #48]
 680              	.LVL46:
 681              		.loc 1 235 0
 682 004c 1B69     		ldr	r3, [r3, #16]
 683              	.LVL47:
 684              		.loc 1 219 0
ARM GAS  /tmp/ccl2msbI.s 			page 13


 685 004e 4AF0010A 		orr	r10, r10, #1
 686              		.loc 1 235 0
 687 0052 13F0804F 		tst	r3, #1073741824
 688              		.loc 1 234 0
 689 0056 4BF0806B 		orr	fp, fp, #67108864
 690              		.loc 1 237 0
 691 005a 43F44073 		orr	r3, r3, #768
 692              		.loc 1 219 0
 693 005e C1F800A0 		str	r10, [r1]
 694              	.LVL48:
 695              		.loc 1 234 0
 696 0062 4BF4807B 		orr	fp, fp, #256
 697              		.loc 1 222 0
 698 0066 4FF00001 		mov	r1, #0
 699              		.loc 1 237 0
 700 006a 14BF     		ite	ne
 701 006c 43F00303 		orrne	r3, r3, #3
 702              		.loc 1 240 0
 703 0070 43F00103 		orreq	r3, r3, #1
 704              		.loc 1 222 0
 705 0074 1160     		str	r1, [r2]
 706              		.loc 1 223 0
 707 0076 C2F80C90 		str	r9, [r2, #12]
 708              		.loc 1 224 0
 709 007a C2F81080 		str	r8, [r2, #16]
 710              		.loc 1 225 0
 711 007e C2F814C0 		str	ip, [r2, #20]
 712              		.loc 1 226 0
 713 0082 1763     		str	r7, [r2, #48]
 714              		.loc 1 227 0
 715 0084 5663     		str	r6, [r2, #52]
 716              		.loc 1 228 0
 717 0086 9563     		str	r5, [r2, #56]
 718              		.loc 1 229 0
 719 0088 D463     		str	r4, [r2, #60]
 720              		.loc 1 230 0
 721 008a 1064     		str	r0, [r2, #64]
 722              		.loc 1 234 0
 723 008c C2F804B0 		str	fp, [r2, #4]
 724              		.loc 1 239 0
 725 0090 9360     		str	r3, [r2, #8]
 726              		.loc 1 241 0
 727 0092 BDE8F00F 		pop	{r4, r5, r6, r7, r8, r9, r10, fp}
 728 0096 7047     		bx	lr
 729              		.cfi_endproc
 730              	.LFE68:
 731              		.size	adc_lld_start_conversion, .-adc_lld_start_conversion
 732              		.section	.text.adc_lld_stop_conversion,"ax",%progbits
 733              		.align	2
 734              		.global	adc_lld_stop_conversion
 735              		.thumb
 736              		.thumb_func
 737              		.type	adc_lld_stop_conversion, %function
 738              	adc_lld_stop_conversion:
 739              	.LFB69:
 740              		.loc 1 250 0
 741              		.cfi_startproc
ARM GAS  /tmp/ccl2msbI.s 			page 14


 742              		@ args = 0, pretend = 0, frame = 0
 743              		@ frame_needed = 0, uses_anonymous_args = 0
 744              		@ link register save eliminated.
 745              	.LVL49:
 746              		.loc 1 252 0
 747 0000 C26A     		ldr	r2, [r0, #44]
 748              		.loc 1 250 0
 749 0002 30B4     		push	{r4, r5}
 750              		.cfi_def_cfa_offset 8
 751              		.cfi_offset 4, -8
 752              		.cfi_offset 5, -4
 753              		.loc 1 252 0
 754 0004 1168     		ldr	r1, [r2]
 755              		.loc 1 253 0
 756 0006 836A     		ldr	r3, [r0, #40]
 757              		.loc 1 252 0
 758 0008 0D68     		ldr	r5, [r1]
 759 000a 5068     		ldr	r0, [r2, #4]
 760              	.LVL50:
 761 000c 25F00F05 		bic	r5, r5, #15
 762 0010 0D60     		str	r5, [r1]
 763 0012 117A     		ldrb	r1, [r2, #8]	@ zero_extendqisi2
 764 0014 0F24     		movs	r4, #15
 765 0016 8C40     		lsls	r4, r4, r1
 766              		.loc 1 253 0
 767 0018 0022     		movs	r2, #0
 768              		.loc 1 255 0
 769 001a 0121     		movs	r1, #1
 770              		.loc 1 252 0
 771 001c 0460     		str	r4, [r0]
 772              		.loc 1 253 0
 773 001e 5A60     		str	r2, [r3, #4]
 774              		.loc 1 256 0
 775 0020 30BC     		pop	{r4, r5}
 776              		.loc 1 254 0
 777 0022 9A60     		str	r2, [r3, #8]
 778              		.loc 1 255 0
 779 0024 9960     		str	r1, [r3, #8]
 780              		.loc 1 256 0
 781 0026 7047     		bx	lr
 782              		.cfi_endproc
 783              	.LFE69:
 784              		.size	adc_lld_stop_conversion, .-adc_lld_stop_conversion
 785              		.section	.text.adcSTM32EnableTSVREFE,"ax",%progbits
 786              		.align	2
 787              		.global	adcSTM32EnableTSVREFE
 788              		.thumb
 789              		.thumb_func
 790              		.type	adcSTM32EnableTSVREFE, %function
 791              	adcSTM32EnableTSVREFE:
 792              	.LFB70:
 793              		.loc 1 264 0
 794              		.cfi_startproc
 795              		@ args = 0, pretend = 0, frame = 0
 796              		@ frame_needed = 0, uses_anonymous_args = 0
 797              		@ link register save eliminated.
 798              		.loc 1 266 0
ARM GAS  /tmp/ccl2msbI.s 			page 15


 799 0000 4FF41C53 		mov	r3, #9984
 800 0004 C4F20103 		movt	r3, 16385
 801 0008 5A68     		ldr	r2, [r3, #4]
 802 000a 42F40002 		orr	r2, r2, #8388608
 803 000e 5A60     		str	r2, [r3, #4]
 804 0010 7047     		bx	lr
 805              		.cfi_endproc
 806              	.LFE70:
 807              		.size	adcSTM32EnableTSVREFE, .-adcSTM32EnableTSVREFE
 808 0012 00BF     		.section	.text.adcSTM32DisableTSVREFE,"ax",%progbits
 809              		.align	2
 810              		.global	adcSTM32DisableTSVREFE
 811              		.thumb
 812              		.thumb_func
 813              		.type	adcSTM32DisableTSVREFE, %function
 814              	adcSTM32DisableTSVREFE:
 815              	.LFB71:
 816              		.loc 1 275 0
 817              		.cfi_startproc
 818              		@ args = 0, pretend = 0, frame = 0
 819              		@ frame_needed = 0, uses_anonymous_args = 0
 820              		@ link register save eliminated.
 821              		.loc 1 277 0
 822 0000 4FF41C53 		mov	r3, #9984
 823 0004 C4F20103 		movt	r3, 16385
 824 0008 5A68     		ldr	r2, [r3, #4]
 825 000a 22F40002 		bic	r2, r2, #8388608
 826 000e 5A60     		str	r2, [r3, #4]
 827 0010 7047     		bx	lr
 828              		.cfi_endproc
 829              	.LFE71:
 830              		.size	adcSTM32DisableTSVREFE, .-adcSTM32DisableTSVREFE
 831              		.global	ADCD1
 832 0012 00BF     		.section	.bss.ADCD1,"aw",%nobits
 833              		.align	2
 834              		.set	.LANCHOR0,. + 0
 835              		.type	ADCD1, %object
 836              		.size	ADCD1, 52
 837              	ADCD1:
 838 0000 00000000 		.space	52
 838      00000000 
 838      00000000 
 838      00000000 
 838      00000000 
 839              		.text
 840              	.Letext0:
 841              		.file 2 "/usr/lib/gcc/arm-none-eabi/4.8.2/include/stddef.h"
 842              		.file 3 "/usr/include/newlib/machine/_default_types.h"
 843              		.file 4 "/usr/include/newlib/stdint.h"
 844              		.file 5 "../ChibiOS_2.6.4/os/ports/GCC/ARMCMx/chtypes.h"
 845              		.file 6 "../ChibiOS_2.6.4/os/kernel/include/chlists.h"
 846              		.file 7 "../ChibiOS_2.6.4/os/kernel/include/chthreads.h"
 847              		.file 8 "../ChibiOS_2.6.4/os/ports/GCC/ARMCMx/chcore_v7m.h"
 848              		.file 9 "../ChibiOS_2.6.4/os/kernel/include/chmtx.h"
 849              		.file 10 "../ChibiOS_2.6.4/os/hal/platforms/STM32L1xx/stm32l1xx.h"
 850              		.file 11 "../ChibiOS_2.6.4/os/hal/platforms/STM32L1xx/stm32_dma.h"
 851              		.file 12 "../ChibiOS_2.6.4/os/hal/include/adc.h"
ARM GAS  /tmp/ccl2msbI.s 			page 16


 852              		.file 13 "../ChibiOS_2.6.4/os/hal/platforms/STM32L1xx/adc_lld.h"
 853              		.file 14 "../ChibiOS_2.6.4/os/ports/common/ARMCMx/CMSIS/include/core_cm3.h"
 854              		.file 15 "../ChibiOS_2.6.4/os/ports/common/ARMCMx/nvic.h"
 855              		.file 16 "../ChibiOS_2.6.4/os/kernel/include/chschd.h"
 856              		.section	.debug_info,"",%progbits
 857              	.Ldebug_info0:
 858 0000 EF0E0000 		.4byte	0xeef
 859 0004 0400     		.2byte	0x4
 860 0006 00000000 		.4byte	.Ldebug_abbrev0
 861 000a 04       		.byte	0x4
 862 000b 01       		.uleb128 0x1
 863 000c 02040000 		.4byte	.LASF218
 864 0010 01       		.byte	0x1
 865 0011 91000000 		.4byte	.LASF219
 866 0015 4C050000 		.4byte	.LASF220
 867 0019 68000000 		.4byte	.Ldebug_ranges0+0x68
 868 001d 00000000 		.4byte	0
 869 0021 00000000 		.4byte	.Ldebug_line0
 870 0025 02       		.uleb128 0x2
 871 0026 04       		.byte	0x4
 872 0027 05       		.byte	0x5
 873 0028 696E7400 		.ascii	"int\000"
 874 002c 03       		.uleb128 0x3
 875 002d 09000000 		.4byte	.LASF2
 876 0031 02       		.byte	0x2
 877 0032 D4       		.byte	0xd4
 878 0033 37000000 		.4byte	0x37
 879 0037 04       		.uleb128 0x4
 880 0038 04       		.byte	0x4
 881 0039 07       		.byte	0x7
 882 003a 16020000 		.4byte	.LASF0
 883 003e 04       		.uleb128 0x4
 884 003f 01       		.byte	0x1
 885 0040 06       		.byte	0x6
 886 0041 67010000 		.4byte	.LASF1
 887 0045 03       		.uleb128 0x3
 888 0046 4E000000 		.4byte	.LASF3
 889 004a 03       		.byte	0x3
 890 004b 1C       		.byte	0x1c
 891 004c 50000000 		.4byte	0x50
 892 0050 04       		.uleb128 0x4
 893 0051 01       		.byte	0x1
 894 0052 08       		.byte	0x8
 895 0053 95060000 		.4byte	.LASF4
 896 0057 04       		.uleb128 0x4
 897 0058 02       		.byte	0x2
 898 0059 05       		.byte	0x5
 899 005a CB040000 		.4byte	.LASF5
 900 005e 03       		.uleb128 0x3
 901 005f ED070000 		.4byte	.LASF6
 902 0063 03       		.byte	0x3
 903 0064 26       		.byte	0x26
 904 0065 69000000 		.4byte	0x69
 905 0069 04       		.uleb128 0x4
 906 006a 02       		.byte	0x2
 907 006b 07       		.byte	0x7
 908 006c 9E030000 		.4byte	.LASF7
ARM GAS  /tmp/ccl2msbI.s 			page 17


 909 0070 03       		.uleb128 0x3
 910 0071 21080000 		.4byte	.LASF8
 911 0075 03       		.byte	0x3
 912 0076 37       		.byte	0x37
 913 0077 7B000000 		.4byte	0x7b
 914 007b 04       		.uleb128 0x4
 915 007c 04       		.byte	0x4
 916 007d 05       		.byte	0x5
 917 007e C5010000 		.4byte	.LASF9
 918 0082 03       		.uleb128 0x3
 919 0083 AD020000 		.4byte	.LASF10
 920 0087 03       		.byte	0x3
 921 0088 38       		.byte	0x38
 922 0089 8D000000 		.4byte	0x8d
 923 008d 04       		.uleb128 0x4
 924 008e 04       		.byte	0x4
 925 008f 07       		.byte	0x7
 926 0090 73010000 		.4byte	.LASF11
 927 0094 04       		.uleb128 0x4
 928 0095 08       		.byte	0x8
 929 0096 05       		.byte	0x5
 930 0097 59010000 		.4byte	.LASF12
 931 009b 04       		.uleb128 0x4
 932 009c 08       		.byte	0x8
 933 009d 07       		.byte	0x7
 934 009e C7000000 		.4byte	.LASF13
 935 00a2 03       		.uleb128 0x3
 936 00a3 FE080000 		.4byte	.LASF14
 937 00a7 04       		.byte	0x4
 938 00a8 2A       		.byte	0x2a
 939 00a9 45000000 		.4byte	0x45
 940 00ad 03       		.uleb128 0x3
 941 00ae 51020000 		.4byte	.LASF15
 942 00b2 04       		.byte	0x4
 943 00b3 36       		.byte	0x36
 944 00b4 5E000000 		.4byte	0x5e
 945 00b8 03       		.uleb128 0x3
 946 00b9 8D060000 		.4byte	.LASF16
 947 00bd 04       		.byte	0x4
 948 00be 41       		.byte	0x41
 949 00bf 70000000 		.4byte	0x70
 950 00c3 03       		.uleb128 0x3
 951 00c4 77070000 		.4byte	.LASF17
 952 00c8 04       		.byte	0x4
 953 00c9 42       		.byte	0x42
 954 00ca 82000000 		.4byte	0x82
 955 00ce 03       		.uleb128 0x3
 956 00cf 95010000 		.4byte	.LASF18
 957 00d3 05       		.byte	0x5
 958 00d4 2B       		.byte	0x2b
 959 00d5 D9000000 		.4byte	0xd9
 960 00d9 04       		.uleb128 0x4
 961 00da 01       		.byte	0x1
 962 00db 02       		.byte	0x2
 963 00dc 87060000 		.4byte	.LASF19
 964 00e0 03       		.uleb128 0x3
 965 00e1 94040000 		.4byte	.LASF20
ARM GAS  /tmp/ccl2msbI.s 			page 18


 966 00e5 05       		.byte	0x5
 967 00e6 2C       		.byte	0x2c
 968 00e7 A2000000 		.4byte	0xa2
 969 00eb 03       		.uleb128 0x3
 970 00ec 0D020000 		.4byte	.LASF21
 971 00f0 05       		.byte	0x5
 972 00f1 2D       		.byte	0x2d
 973 00f2 A2000000 		.4byte	0xa2
 974 00f6 03       		.uleb128 0x3
 975 00f7 4B060000 		.4byte	.LASF22
 976 00fb 05       		.byte	0x5
 977 00fc 2E       		.byte	0x2e
 978 00fd A2000000 		.4byte	0xa2
 979 0101 03       		.uleb128 0x3
 980 0102 14030000 		.4byte	.LASF23
 981 0106 05       		.byte	0x5
 982 0107 2F       		.byte	0x2f
 983 0108 A2000000 		.4byte	0xa2
 984 010c 03       		.uleb128 0x3
 985 010d 79060000 		.4byte	.LASF24
 986 0111 05       		.byte	0x5
 987 0112 30       		.byte	0x30
 988 0113 C3000000 		.4byte	0xc3
 989 0117 03       		.uleb128 0x3
 990 0118 E2030000 		.4byte	.LASF25
 991 011c 05       		.byte	0x5
 992 011d 31       		.byte	0x31
 993 011e B8000000 		.4byte	0xb8
 994 0122 03       		.uleb128 0x3
 995 0123 BF040000 		.4byte	.LASF26
 996 0127 05       		.byte	0x5
 997 0128 33       		.byte	0x33
 998 0129 C3000000 		.4byte	0xc3
 999 012d 03       		.uleb128 0x3
 1000 012e EE020000 		.4byte	.LASF27
 1001 0132 05       		.byte	0x5
 1002 0133 35       		.byte	0x35
 1003 0134 C3000000 		.4byte	0xc3
 1004 0138 03       		.uleb128 0x3
 1005 0139 E7020000 		.4byte	.LASF28
 1006 013d 06       		.byte	0x6
 1007 013e 2A       		.byte	0x2a
 1008 013f 43010000 		.4byte	0x143
 1009 0143 05       		.uleb128 0x5
 1010 0144 E7020000 		.4byte	.LASF28
 1011 0148 48       		.byte	0x48
 1012 0149 07       		.byte	0x7
 1013 014a 5E       		.byte	0x5e
 1014 014b 40020000 		.4byte	0x240
 1015 014f 06       		.uleb128 0x6
 1016 0150 83050000 		.4byte	.LASF29
 1017 0154 07       		.byte	0x7
 1018 0155 5F       		.byte	0x5f
 1019 0156 61020000 		.4byte	0x261
 1020 015a 00       		.byte	0
 1021 015b 06       		.uleb128 0x6
 1022 015c 5F060000 		.4byte	.LASF30
ARM GAS  /tmp/ccl2msbI.s 			page 19


 1023 0160 07       		.byte	0x7
 1024 0161 61       		.byte	0x61
 1025 0162 61020000 		.4byte	0x261
 1026 0166 04       		.byte	0x4
 1027 0167 06       		.uleb128 0x6
 1028 0168 3C010000 		.4byte	.LASF31
 1029 016c 07       		.byte	0x7
 1030 016d 63       		.byte	0x63
 1031 016e 0C010000 		.4byte	0x10c
 1032 0172 08       		.byte	0x8
 1033 0173 06       		.uleb128 0x6
 1034 0174 E1090000 		.4byte	.LASF32
 1035 0178 07       		.byte	0x7
 1036 0179 64       		.byte	0x64
 1037 017a 1B030000 		.4byte	0x31b
 1038 017e 0C       		.byte	0xc
 1039 017f 06       		.uleb128 0x6
 1040 0180 78020000 		.4byte	.LASF33
 1041 0184 07       		.byte	0x7
 1042 0185 66       		.byte	0x66
 1043 0186 61020000 		.4byte	0x261
 1044 018a 10       		.byte	0x10
 1045 018b 06       		.uleb128 0x6
 1046 018c 2B080000 		.4byte	.LASF34
 1047 0190 07       		.byte	0x7
 1048 0191 67       		.byte	0x67
 1049 0192 61020000 		.4byte	0x261
 1050 0196 14       		.byte	0x14
 1051 0197 06       		.uleb128 0x6
 1052 0198 52090000 		.4byte	.LASF35
 1053 019c 07       		.byte	0x7
 1054 019d 6E       		.byte	0x6e
 1055 019e C4030000 		.4byte	0x3c4
 1056 01a2 18       		.byte	0x18
 1057 01a3 06       		.uleb128 0x6
 1058 01a4 85010000 		.4byte	.LASF36
 1059 01a8 07       		.byte	0x7
 1060 01a9 79       		.byte	0x79
 1061 01aa EB000000 		.4byte	0xeb
 1062 01ae 1C       		.byte	0x1c
 1063 01af 06       		.uleb128 0x6
 1064 01b0 2D070000 		.4byte	.LASF37
 1065 01b4 07       		.byte	0x7
 1066 01b5 7D       		.byte	0x7d
 1067 01b6 E0000000 		.4byte	0xe0
 1068 01ba 1D       		.byte	0x1d
 1069 01bb 06       		.uleb128 0x6
 1070 01bc 33020000 		.4byte	.LASF38
 1071 01c0 07       		.byte	0x7
 1072 01c1 82       		.byte	0x82
 1073 01c2 F6000000 		.4byte	0xf6
 1074 01c6 1E       		.byte	0x1e
 1075 01c7 06       		.uleb128 0x6
 1076 01c8 F5060000 		.4byte	.LASF39
 1077 01cc 07       		.byte	0x7
 1078 01cd 88       		.byte	0x88
 1079 01ce 01010000 		.4byte	0x101
ARM GAS  /tmp/ccl2msbI.s 			page 20


 1080 01d2 1F       		.byte	0x1f
 1081 01d3 06       		.uleb128 0x6
 1082 01d4 5A020000 		.4byte	.LASF40
 1083 01d8 07       		.byte	0x7
 1084 01d9 8F       		.byte	0x8f
 1085 01da 48030000 		.4byte	0x348
 1086 01de 20       		.byte	0x20
 1087 01df 07       		.uleb128 0x7
 1088 01e0 705F7500 		.ascii	"p_u\000"
 1089 01e4 07       		.byte	0x7
 1090 01e5 B4       		.byte	0xb4
 1091 01e6 8F030000 		.4byte	0x38f
 1092 01ea 24       		.byte	0x24
 1093 01eb 06       		.uleb128 0x6
 1094 01ec E7090000 		.4byte	.LASF41
 1095 01f0 07       		.byte	0x7
 1096 01f1 B9       		.byte	0xb9
 1097 01f2 87020000 		.4byte	0x287
 1098 01f6 28       		.byte	0x28
 1099 01f7 06       		.uleb128 0x6
 1100 01f8 4A030000 		.4byte	.LASF42
 1101 01fc 07       		.byte	0x7
 1102 01fd BF       		.byte	0xbf
 1103 01fe 67020000 		.4byte	0x267
 1104 0202 2C       		.byte	0x2c
 1105 0203 06       		.uleb128 0x6
 1106 0204 84090000 		.4byte	.LASF43
 1107 0208 07       		.byte	0x7
 1108 0209 C3       		.byte	0xc3
 1109 020a 17010000 		.4byte	0x117
 1110 020e 34       		.byte	0x34
 1111 020f 06       		.uleb128 0x6
 1112 0210 67070000 		.4byte	.LASF44
 1113 0214 07       		.byte	0x7
 1114 0215 C9       		.byte	0xc9
 1115 0216 22010000 		.4byte	0x122
 1116 021a 38       		.byte	0x38
 1117 021b 06       		.uleb128 0x6
 1118 021c C8060000 		.4byte	.LASF45
 1119 0220 07       		.byte	0x7
 1120 0221 D0       		.byte	0xd0
 1121 0222 D6030000 		.4byte	0x3d6
 1122 0226 3C       		.byte	0x3c
 1123 0227 06       		.uleb128 0x6
 1124 0228 E8030000 		.4byte	.LASF46
 1125 022c 07       		.byte	0x7
 1126 022d D4       		.byte	0xd4
 1127 022e 0C010000 		.4byte	0x10c
 1128 0232 40       		.byte	0x40
 1129 0233 06       		.uleb128 0x6
 1130 0234 8D010000 		.4byte	.LASF47
 1131 0238 07       		.byte	0x7
 1132 0239 DA       		.byte	0xda
 1133 023a 9D020000 		.4byte	0x29d
 1134 023e 44       		.byte	0x44
 1135 023f 00       		.byte	0
 1136 0240 08       		.uleb128 0x8
ARM GAS  /tmp/ccl2msbI.s 			page 21


 1137 0241 08       		.byte	0x8
 1138 0242 06       		.byte	0x6
 1139 0243 61       		.byte	0x61
 1140 0244 61020000 		.4byte	0x261
 1141 0248 06       		.uleb128 0x6
 1142 0249 83050000 		.4byte	.LASF29
 1143 024d 06       		.byte	0x6
 1144 024e 62       		.byte	0x62
 1145 024f 61020000 		.4byte	0x261
 1146 0253 00       		.byte	0
 1147 0254 06       		.uleb128 0x6
 1148 0255 5F060000 		.4byte	.LASF30
 1149 0259 06       		.byte	0x6
 1150 025a 64       		.byte	0x64
 1151 025b 61020000 		.4byte	0x261
 1152 025f 04       		.byte	0x4
 1153 0260 00       		.byte	0
 1154 0261 09       		.uleb128 0x9
 1155 0262 04       		.byte	0x4
 1156 0263 38010000 		.4byte	0x138
 1157 0267 03       		.uleb128 0x3
 1158 0268 C2050000 		.4byte	.LASF48
 1159 026c 06       		.byte	0x6
 1160 026d 66       		.byte	0x66
 1161 026e 40020000 		.4byte	0x240
 1162 0272 08       		.uleb128 0x8
 1163 0273 04       		.byte	0x4
 1164 0274 06       		.byte	0x6
 1165 0275 6B       		.byte	0x6b
 1166 0276 87020000 		.4byte	0x287
 1167 027a 06       		.uleb128 0x6
 1168 027b 83050000 		.4byte	.LASF29
 1169 027f 06       		.byte	0x6
 1170 0280 6D       		.byte	0x6d
 1171 0281 61020000 		.4byte	0x261
 1172 0285 00       		.byte	0
 1173 0286 00       		.byte	0
 1174 0287 03       		.uleb128 0x3
 1175 0288 B3040000 		.4byte	.LASF49
 1176 028c 06       		.byte	0x6
 1177 028d 70       		.byte	0x70
 1178 028e 72020000 		.4byte	0x272
 1179 0292 03       		.uleb128 0x3
 1180 0293 C2020000 		.4byte	.LASF50
 1181 0297 08       		.byte	0x8
 1182 0298 E5       		.byte	0xe5
 1183 0299 9D020000 		.4byte	0x29d
 1184 029d 0A       		.uleb128 0xa
 1185 029e 04       		.byte	0x4
 1186 029f 0B       		.uleb128 0xb
 1187 02a0 62080000 		.4byte	.LASF51
 1188 02a4 24       		.byte	0x24
 1189 02a5 08       		.byte	0x8
 1190 02a6 0C01     		.2byte	0x10c
 1191 02a8 1B030000 		.4byte	0x31b
 1192 02ac 0C       		.uleb128 0xc
 1193 02ad 723400   		.ascii	"r4\000"
ARM GAS  /tmp/ccl2msbI.s 			page 22


 1194 02b0 08       		.byte	0x8
 1195 02b1 1F01     		.2byte	0x11f
 1196 02b3 92020000 		.4byte	0x292
 1197 02b7 00       		.byte	0
 1198 02b8 0C       		.uleb128 0xc
 1199 02b9 723500   		.ascii	"r5\000"
 1200 02bc 08       		.byte	0x8
 1201 02bd 2001     		.2byte	0x120
 1202 02bf 92020000 		.4byte	0x292
 1203 02c3 04       		.byte	0x4
 1204 02c4 0C       		.uleb128 0xc
 1205 02c5 723600   		.ascii	"r6\000"
 1206 02c8 08       		.byte	0x8
 1207 02c9 2101     		.2byte	0x121
 1208 02cb 92020000 		.4byte	0x292
 1209 02cf 08       		.byte	0x8
 1210 02d0 0C       		.uleb128 0xc
 1211 02d1 723700   		.ascii	"r7\000"
 1212 02d4 08       		.byte	0x8
 1213 02d5 2201     		.2byte	0x122
 1214 02d7 92020000 		.4byte	0x292
 1215 02db 0C       		.byte	0xc
 1216 02dc 0C       		.uleb128 0xc
 1217 02dd 723800   		.ascii	"r8\000"
 1218 02e0 08       		.byte	0x8
 1219 02e1 2301     		.2byte	0x123
 1220 02e3 92020000 		.4byte	0x292
 1221 02e7 10       		.byte	0x10
 1222 02e8 0C       		.uleb128 0xc
 1223 02e9 723900   		.ascii	"r9\000"
 1224 02ec 08       		.byte	0x8
 1225 02ed 2401     		.2byte	0x124
 1226 02ef 92020000 		.4byte	0x292
 1227 02f3 14       		.byte	0x14
 1228 02f4 0C       		.uleb128 0xc
 1229 02f5 72313000 		.ascii	"r10\000"
 1230 02f9 08       		.byte	0x8
 1231 02fa 2501     		.2byte	0x125
 1232 02fc 92020000 		.4byte	0x292
 1233 0300 18       		.byte	0x18
 1234 0301 0C       		.uleb128 0xc
 1235 0302 72313100 		.ascii	"r11\000"
 1236 0306 08       		.byte	0x8
 1237 0307 2601     		.2byte	0x126
 1238 0309 92020000 		.4byte	0x292
 1239 030d 1C       		.byte	0x1c
 1240 030e 0C       		.uleb128 0xc
 1241 030f 6C7200   		.ascii	"lr\000"
 1242 0312 08       		.byte	0x8
 1243 0313 2701     		.2byte	0x127
 1244 0315 92020000 		.4byte	0x292
 1245 0319 20       		.byte	0x20
 1246 031a 00       		.byte	0
 1247 031b 0B       		.uleb128 0xb
 1248 031c 5A080000 		.4byte	.LASF52
 1249 0320 04       		.byte	0x4
 1250 0321 08       		.byte	0x8
ARM GAS  /tmp/ccl2msbI.s 			page 23


 1251 0322 3101     		.2byte	0x131
 1252 0324 36030000 		.4byte	0x336
 1253 0328 0C       		.uleb128 0xc
 1254 0329 72313300 		.ascii	"r13\000"
 1255 032d 08       		.byte	0x8
 1256 032e 3201     		.2byte	0x132
 1257 0330 36030000 		.4byte	0x336
 1258 0334 00       		.byte	0
 1259 0335 00       		.byte	0
 1260 0336 09       		.uleb128 0x9
 1261 0337 04       		.byte	0x4
 1262 0338 9F020000 		.4byte	0x29f
 1263 033c 0D       		.uleb128 0xd
 1264 033d C3000000 		.4byte	0xc3
 1265 0341 04       		.uleb128 0x4
 1266 0342 04       		.byte	0x4
 1267 0343 07       		.byte	0x7
 1268 0344 74050000 		.4byte	.LASF53
 1269 0348 0D       		.uleb128 0xd
 1270 0349 2D010000 		.4byte	0x12d
 1271 034d 05       		.uleb128 0x5
 1272 034e 7D050000 		.4byte	.LASF54
 1273 0352 10       		.byte	0x10
 1274 0353 09       		.byte	0x9
 1275 0354 2C       		.byte	0x2c
 1276 0355 7E030000 		.4byte	0x37e
 1277 0359 06       		.uleb128 0x6
 1278 035a 9C010000 		.4byte	.LASF55
 1279 035e 09       		.byte	0x9
 1280 035f 2D       		.byte	0x2d
 1281 0360 67020000 		.4byte	0x267
 1282 0364 00       		.byte	0
 1283 0365 06       		.uleb128 0x6
 1284 0366 B3090000 		.4byte	.LASF56
 1285 036a 09       		.byte	0x9
 1286 036b 2F       		.byte	0x2f
 1287 036c 61020000 		.4byte	0x261
 1288 0370 08       		.byte	0x8
 1289 0371 06       		.uleb128 0x6
 1290 0372 C1080000 		.4byte	.LASF57
 1291 0376 09       		.byte	0x9
 1292 0377 31       		.byte	0x31
 1293 0378 7E030000 		.4byte	0x37e
 1294 037c 0C       		.byte	0xc
 1295 037d 00       		.byte	0
 1296 037e 09       		.uleb128 0x9
 1297 037f 04       		.byte	0x4
 1298 0380 4D030000 		.4byte	0x34d
 1299 0384 03       		.uleb128 0x3
 1300 0385 7D050000 		.4byte	.LASF54
 1301 0389 09       		.byte	0x9
 1302 038a 33       		.byte	0x33
 1303 038b 4D030000 		.4byte	0x34d
 1304 038f 0E       		.uleb128 0xe
 1305 0390 04       		.byte	0x4
 1306 0391 07       		.byte	0x7
 1307 0392 96       		.byte	0x96
ARM GAS  /tmp/ccl2msbI.s 			page 24


 1308 0393 C4030000 		.4byte	0x3c4
 1309 0397 0F       		.uleb128 0xf
 1310 0398 1D000000 		.4byte	.LASF58
 1311 039c 07       		.byte	0x7
 1312 039d 9D       		.byte	0x9d
 1313 039e 17010000 		.4byte	0x117
 1314 03a2 0F       		.uleb128 0xf
 1315 03a3 DE000000 		.4byte	.LASF59
 1316 03a7 07       		.byte	0x7
 1317 03a8 A4       		.byte	0xa4
 1318 03a9 17010000 		.4byte	0x117
 1319 03ad 0F       		.uleb128 0xf
 1320 03ae 3E090000 		.4byte	.LASF60
 1321 03b2 07       		.byte	0x7
 1322 03b3 AB       		.byte	0xab
 1323 03b4 9D020000 		.4byte	0x29d
 1324 03b8 0F       		.uleb128 0xf
 1325 03b9 26070000 		.4byte	.LASF61
 1326 03bd 07       		.byte	0x7
 1327 03be B2       		.byte	0xb2
 1328 03bf 22010000 		.4byte	0x122
 1329 03c3 00       		.byte	0
 1330 03c4 09       		.uleb128 0x9
 1331 03c5 04       		.byte	0x4
 1332 03c6 CA030000 		.4byte	0x3ca
 1333 03ca 10       		.uleb128 0x10
 1334 03cb CF030000 		.4byte	0x3cf
 1335 03cf 04       		.uleb128 0x4
 1336 03d0 01       		.byte	0x1
 1337 03d1 08       		.byte	0x8
 1338 03d2 B8070000 		.4byte	.LASF62
 1339 03d6 09       		.uleb128 0x9
 1340 03d7 04       		.byte	0x4
 1341 03d8 84030000 		.4byte	0x384
 1342 03dc 11       		.uleb128 0x11
 1343 03dd 14050000 		.4byte	.LASF221
 1344 03e1 01       		.byte	0x1
 1345 03e2 0A       		.byte	0xa
 1346 03e3 AB       		.byte	0xab
 1347 03e4 27050000 		.4byte	0x527
 1348 03e8 12       		.uleb128 0x12
 1349 03e9 A4070000 		.4byte	.LASF63
 1350 03ed 72       		.sleb128 -14
 1351 03ee 12       		.uleb128 0x12
 1352 03ef 35060000 		.4byte	.LASF64
 1353 03f3 74       		.sleb128 -12
 1354 03f4 12       		.uleb128 0x12
 1355 03f5 D3070000 		.4byte	.LASF65
 1356 03f9 75       		.sleb128 -11
 1357 03fa 12       		.uleb128 0x12
 1358 03fb FA040000 		.4byte	.LASF66
 1359 03ff 76       		.sleb128 -10
 1360 0400 12       		.uleb128 0x12
 1361 0401 F8090000 		.4byte	.LASF67
 1362 0405 7B       		.sleb128 -5
 1363 0406 12       		.uleb128 0x12
 1364 0407 A6050000 		.4byte	.LASF68
ARM GAS  /tmp/ccl2msbI.s 			page 25


 1365 040b 7C       		.sleb128 -4
 1366 040c 12       		.uleb128 0x12
 1367 040d 95020000 		.4byte	.LASF69
 1368 0411 7E       		.sleb128 -2
 1369 0412 12       		.uleb128 0x12
 1370 0413 ED040000 		.4byte	.LASF70
 1371 0417 7F       		.sleb128 -1
 1372 0418 12       		.uleb128 0x12
 1373 0419 32010000 		.4byte	.LASF71
 1374 041d 00       		.sleb128 0
 1375 041e 12       		.uleb128 0x12
 1376 041f 00000000 		.4byte	.LASF72
 1377 0423 01       		.sleb128 1
 1378 0424 12       		.uleb128 0x12
 1379 0425 97090000 		.4byte	.LASF73
 1380 0429 02       		.sleb128 2
 1381 042a 12       		.uleb128 0x12
 1382 042b B1030000 		.4byte	.LASF74
 1383 042f 03       		.sleb128 3
 1384 0430 12       		.uleb128 0x12
 1385 0431 5C070000 		.4byte	.LASF75
 1386 0435 04       		.sleb128 4
 1387 0436 12       		.uleb128 0x12
 1388 0437 D8090000 		.4byte	.LASF76
 1389 043b 05       		.sleb128 5
 1390 043c 12       		.uleb128 0x12
 1391 043d AD080000 		.4byte	.LASF77
 1392 0441 06       		.sleb128 6
 1393 0442 12       		.uleb128 0x12
 1394 0443 33090000 		.4byte	.LASF78
 1395 0447 07       		.sleb128 7
 1396 0448 12       		.uleb128 0x12
 1397 0449 41070000 		.4byte	.LASF79
 1398 044d 08       		.sleb128 8
 1399 044e 12       		.uleb128 0x12
 1400 044f DA080000 		.4byte	.LASF80
 1401 0453 09       		.sleb128 9
 1402 0454 12       		.uleb128 0x12
 1403 0455 FF060000 		.4byte	.LASF81
 1404 0459 0A       		.sleb128 10
 1405 045a 12       		.uleb128 0x12
 1406 045b 22060000 		.4byte	.LASF82
 1407 045f 0B       		.sleb128 11
 1408 0460 12       		.uleb128 0x12
 1409 0461 39050000 		.4byte	.LASF83
 1410 0465 0C       		.sleb128 12
 1411 0466 12       		.uleb128 0x12
 1412 0467 13070000 		.4byte	.LASF84
 1413 046b 0D       		.sleb128 13
 1414 046c 12       		.uleb128 0x12
 1415 046d DA040000 		.4byte	.LASF85
 1416 0471 0E       		.sleb128 14
 1417 0472 12       		.uleb128 0x12
 1418 0473 8B030000 		.4byte	.LASF86
 1419 0477 0F       		.sleb128 15
 1420 0478 12       		.uleb128 0x12
 1421 0479 33080000 		.4byte	.LASF87
ARM GAS  /tmp/ccl2msbI.s 			page 26


 1422 047d 10       		.sleb128 16
 1423 047e 12       		.uleb128 0x12
 1424 047f 59090000 		.4byte	.LASF88
 1425 0483 11       		.sleb128 17
 1426 0484 12       		.uleb128 0x12
 1427 0485 0A050000 		.4byte	.LASF89
 1428 0489 12       		.sleb128 18
 1429 048a 12       		.uleb128 0x12
 1430 048b D5020000 		.4byte	.LASF90
 1431 048f 13       		.sleb128 19
 1432 0490 12       		.uleb128 0x12
 1433 0491 4E080000 		.4byte	.LASF91
 1434 0495 14       		.sleb128 20
 1435 0496 12       		.uleb128 0x12
 1436 0497 29010000 		.4byte	.LASF92
 1437 049b 15       		.sleb128 21
 1438 049c 12       		.uleb128 0x12
 1439 049d 24000000 		.4byte	.LASF93
 1440 04a1 16       		.sleb128 22
 1441 04a2 12       		.uleb128 0x12
 1442 04a3 10000000 		.4byte	.LASF94
 1443 04a7 17       		.sleb128 23
 1444 04a8 12       		.uleb128 0x12
 1445 04a9 69080000 		.4byte	.LASF95
 1446 04ad 18       		.sleb128 24
 1447 04ae 12       		.uleb128 0x12
 1448 04af 1E030000 		.4byte	.LASF96
 1449 04b3 19       		.sleb128 25
 1450 04b4 12       		.uleb128 0x12
 1451 04b5 6D020000 		.4byte	.LASF97
 1452 04b9 1A       		.sleb128 26
 1453 04ba 12       		.uleb128 0x12
 1454 04bb EA060000 		.4byte	.LASF98
 1455 04bf 1B       		.sleb128 27
 1456 04c0 12       		.uleb128 0x12
 1457 04c1 A3080000 		.4byte	.LASF99
 1458 04c5 1C       		.sleb128 28
 1459 04c6 12       		.uleb128 0x12
 1460 04c7 A9090000 		.4byte	.LASF100
 1461 04cb 1D       		.sleb128 29
 1462 04cc 12       		.uleb128 0x12
 1463 04cd 12010000 		.4byte	.LASF101
 1464 04d1 1E       		.sleb128 30
 1465 04d2 12       		.uleb128 0x12
 1466 04d3 41000000 		.4byte	.LASF102
 1467 04d7 1F       		.sleb128 31
 1468 04d8 12       		.uleb128 0x12
 1469 04d9 8A090000 		.4byte	.LASF103
 1470 04dd 20       		.sleb128 32
 1471 04de 12       		.uleb128 0x12
 1472 04df 8A080000 		.4byte	.LASF104
 1473 04e3 21       		.sleb128 33
 1474 04e4 12       		.uleb128 0x12
 1475 04e5 05010000 		.4byte	.LASF105
 1476 04e9 22       		.sleb128 34
 1477 04ea 12       		.uleb128 0x12
 1478 04eb 8A040000 		.4byte	.LASF106
ARM GAS  /tmp/ccl2msbI.s 			page 27


 1479 04ef 23       		.sleb128 35
 1480 04f0 12       		.uleb128 0x12
 1481 04f1 B8050000 		.4byte	.LASF107
 1482 04f5 24       		.sleb128 36
 1483 04f6 12       		.uleb128 0x12
 1484 04f7 53060000 		.4byte	.LASF108
 1485 04fb 25       		.sleb128 37
 1486 04fc 12       		.uleb128 0x12
 1487 04fd 86070000 		.4byte	.LASF109
 1488 0501 26       		.sleb128 38
 1489 0502 12       		.uleb128 0x12
 1490 0503 97080000 		.4byte	.LASF110
 1491 0507 27       		.sleb128 39
 1492 0508 12       		.uleb128 0x12
 1493 0509 F3030000 		.4byte	.LASF111
 1494 050d 28       		.sleb128 40
 1495 050e 12       		.uleb128 0x12
 1496 050f 58000000 		.4byte	.LASF112
 1497 0513 29       		.sleb128 41
 1498 0514 12       		.uleb128 0x12
 1499 0515 EF050000 		.4byte	.LASF113
 1500 0519 2A       		.sleb128 42
 1501 051a 12       		.uleb128 0x12
 1502 051b A3060000 		.4byte	.LASF114
 1503 051f 2B       		.sleb128 43
 1504 0520 12       		.uleb128 0x12
 1505 0521 F8070000 		.4byte	.LASF115
 1506 0525 2C       		.sleb128 44
 1507 0526 00       		.byte	0
 1508 0527 13       		.uleb128 0x13
 1509 0528 60       		.byte	0x60
 1510 0529 0A       		.byte	0xa
 1511 052a 4F01     		.2byte	0x14f
 1512 052c 67060000 		.4byte	0x667
 1513 0530 0C       		.uleb128 0xc
 1514 0531 535200   		.ascii	"SR\000"
 1515 0534 0A       		.byte	0xa
 1516 0535 5101     		.2byte	0x151
 1517 0537 3C030000 		.4byte	0x33c
 1518 053b 00       		.byte	0
 1519 053c 0C       		.uleb128 0xc
 1520 053d 43523100 		.ascii	"CR1\000"
 1521 0541 0A       		.byte	0xa
 1522 0542 5201     		.2byte	0x152
 1523 0544 3C030000 		.4byte	0x33c
 1524 0548 04       		.byte	0x4
 1525 0549 0C       		.uleb128 0xc
 1526 054a 43523200 		.ascii	"CR2\000"
 1527 054e 0A       		.byte	0xa
 1528 054f 5301     		.2byte	0x153
 1529 0551 3C030000 		.4byte	0x33c
 1530 0555 08       		.byte	0x8
 1531 0556 14       		.uleb128 0x14
 1532 0557 D5050000 		.4byte	.LASF116
 1533 055b 0A       		.byte	0xa
 1534 055c 5401     		.2byte	0x154
 1535 055e 3C030000 		.4byte	0x33c
ARM GAS  /tmp/ccl2msbI.s 			page 28


 1536 0562 0C       		.byte	0xc
 1537 0563 14       		.uleb128 0x14
 1538 0564 DB050000 		.4byte	.LASF117
 1539 0568 0A       		.byte	0xa
 1540 0569 5501     		.2byte	0x155
 1541 056b 3C030000 		.4byte	0x33c
 1542 056f 10       		.byte	0x10
 1543 0570 14       		.uleb128 0x14
 1544 0571 E1050000 		.4byte	.LASF118
 1545 0575 0A       		.byte	0xa
 1546 0576 5601     		.2byte	0x156
 1547 0578 3C030000 		.4byte	0x33c
 1548 057c 14       		.byte	0x14
 1549 057d 14       		.uleb128 0x14
 1550 057e 19050000 		.4byte	.LASF119
 1551 0582 0A       		.byte	0xa
 1552 0583 5701     		.2byte	0x157
 1553 0585 3C030000 		.4byte	0x33c
 1554 0589 18       		.byte	0x18
 1555 058a 14       		.uleb128 0x14
 1556 058b F8080000 		.4byte	.LASF120
 1557 058f 0A       		.byte	0xa
 1558 0590 5801     		.2byte	0x158
 1559 0592 3C030000 		.4byte	0x33c
 1560 0596 1C       		.byte	0x1c
 1561 0597 14       		.uleb128 0x14
 1562 0598 35070000 		.4byte	.LASF121
 1563 059c 0A       		.byte	0xa
 1564 059d 5901     		.2byte	0x159
 1565 059f 3C030000 		.4byte	0x33c
 1566 05a3 20       		.byte	0x20
 1567 05a4 14       		.uleb128 0x14
 1568 05a5 3B070000 		.4byte	.LASF122
 1569 05a9 0A       		.byte	0xa
 1570 05aa 5A01     		.2byte	0x15a
 1571 05ac 3C030000 		.4byte	0x33c
 1572 05b0 24       		.byte	0x24
 1573 05b1 0C       		.uleb128 0xc
 1574 05b2 48545200 		.ascii	"HTR\000"
 1575 05b6 0A       		.byte	0xa
 1576 05b7 5B01     		.2byte	0x15b
 1577 05b9 3C030000 		.4byte	0x33c
 1578 05bd 28       		.byte	0x28
 1579 05be 0C       		.uleb128 0xc
 1580 05bf 4C545200 		.ascii	"LTR\000"
 1581 05c3 0A       		.byte	0xa
 1582 05c4 5C01     		.2byte	0x15c
 1583 05c6 3C030000 		.4byte	0x33c
 1584 05ca 2C       		.byte	0x2c
 1585 05cb 14       		.uleb128 0x14
 1586 05cc 09060000 		.4byte	.LASF123
 1587 05d0 0A       		.byte	0xa
 1588 05d1 5D01     		.2byte	0x15d
 1589 05d3 3C030000 		.4byte	0x33c
 1590 05d7 30       		.byte	0x30
 1591 05d8 14       		.uleb128 0x14
 1592 05d9 0E060000 		.4byte	.LASF124
ARM GAS  /tmp/ccl2msbI.s 			page 29


 1593 05dd 0A       		.byte	0xa
 1594 05de 5E01     		.2byte	0x15e
 1595 05e0 3C030000 		.4byte	0x33c
 1596 05e4 34       		.byte	0x34
 1597 05e5 14       		.uleb128 0x14
 1598 05e6 13060000 		.4byte	.LASF125
 1599 05ea 0A       		.byte	0xa
 1600 05eb 5F01     		.2byte	0x15f
 1601 05ed 3C030000 		.4byte	0x33c
 1602 05f1 38       		.byte	0x38
 1603 05f2 14       		.uleb128 0x14
 1604 05f3 18060000 		.4byte	.LASF126
 1605 05f7 0A       		.byte	0xa
 1606 05f8 6001     		.2byte	0x160
 1607 05fa 3C030000 		.4byte	0x33c
 1608 05fe 3C       		.byte	0x3c
 1609 05ff 14       		.uleb128 0x14
 1610 0600 1D060000 		.4byte	.LASF127
 1611 0604 0A       		.byte	0xa
 1612 0605 6101     		.2byte	0x161
 1613 0607 3C030000 		.4byte	0x33c
 1614 060b 40       		.byte	0x40
 1615 060c 14       		.uleb128 0x14
 1616 060d 54010000 		.4byte	.LASF128
 1617 0611 0A       		.byte	0xa
 1618 0612 6201     		.2byte	0x162
 1619 0614 3C030000 		.4byte	0x33c
 1620 0618 44       		.byte	0x44
 1621 0619 14       		.uleb128 0x14
 1622 061a 1F090000 		.4byte	.LASF129
 1623 061e 0A       		.byte	0xa
 1624 061f 6301     		.2byte	0x163
 1625 0621 3C030000 		.4byte	0x33c
 1626 0625 48       		.byte	0x48
 1627 0626 14       		.uleb128 0x14
 1628 0627 24090000 		.4byte	.LASF130
 1629 062b 0A       		.byte	0xa
 1630 062c 6401     		.2byte	0x164
 1631 062e 3C030000 		.4byte	0x33c
 1632 0632 4C       		.byte	0x4c
 1633 0633 14       		.uleb128 0x14
 1634 0634 29090000 		.4byte	.LASF131
 1635 0638 0A       		.byte	0xa
 1636 0639 6501     		.2byte	0x165
 1637 063b 3C030000 		.4byte	0x33c
 1638 063f 50       		.byte	0x50
 1639 0640 14       		.uleb128 0x14
 1640 0641 2E090000 		.4byte	.LASF132
 1641 0645 0A       		.byte	0xa
 1642 0646 6601     		.2byte	0x166
 1643 0648 3C030000 		.4byte	0x33c
 1644 064c 54       		.byte	0x54
 1645 064d 0C       		.uleb128 0xc
 1646 064e 445200   		.ascii	"DR\000"
 1647 0651 0A       		.byte	0xa
 1648 0652 6701     		.2byte	0x167
 1649 0654 3C030000 		.4byte	0x33c
ARM GAS  /tmp/ccl2msbI.s 			page 30


 1650 0658 58       		.byte	0x58
 1651 0659 14       		.uleb128 0x14
 1652 065a CF050000 		.4byte	.LASF133
 1653 065e 0A       		.byte	0xa
 1654 065f 6801     		.2byte	0x168
 1655 0661 3C030000 		.4byte	0x33c
 1656 0665 5C       		.byte	0x5c
 1657 0666 00       		.byte	0
 1658 0667 15       		.uleb128 0x15
 1659 0668 61020000 		.4byte	.LASF134
 1660 066c 0A       		.byte	0xa
 1661 066d 6901     		.2byte	0x169
 1662 066f 27050000 		.4byte	0x527
 1663 0673 13       		.uleb128 0x13
 1664 0674 08       		.byte	0x8
 1665 0675 0A       		.byte	0xa
 1666 0676 6B01     		.2byte	0x16b
 1667 0678 97060000 		.4byte	0x697
 1668 067c 0C       		.uleb128 0xc
 1669 067d 43535200 		.ascii	"CSR\000"
 1670 0681 0A       		.byte	0xa
 1671 0682 6D01     		.2byte	0x16d
 1672 0684 3C030000 		.4byte	0x33c
 1673 0688 00       		.byte	0
 1674 0689 0C       		.uleb128 0xc
 1675 068a 43435200 		.ascii	"CCR\000"
 1676 068e 0A       		.byte	0xa
 1677 068f 6E01     		.2byte	0x16e
 1678 0691 3C030000 		.4byte	0x33c
 1679 0695 04       		.byte	0x4
 1680 0696 00       		.byte	0
 1681 0697 15       		.uleb128 0x15
 1682 0698 93050000 		.4byte	.LASF135
 1683 069c 0A       		.byte	0xa
 1684 069d 6F01     		.2byte	0x16f
 1685 069f 73060000 		.4byte	0x673
 1686 06a3 13       		.uleb128 0x13
 1687 06a4 10       		.byte	0x10
 1688 06a5 0A       		.byte	0xa
 1689 06a6 C201     		.2byte	0x1c2
 1690 06a8 E1060000 		.4byte	0x6e1
 1691 06ac 0C       		.uleb128 0xc
 1692 06ad 43435200 		.ascii	"CCR\000"
 1693 06b1 0A       		.byte	0xa
 1694 06b2 C401     		.2byte	0x1c4
 1695 06b4 3C030000 		.4byte	0x33c
 1696 06b8 00       		.byte	0
 1697 06b9 14       		.uleb128 0x14
 1698 06ba C8080000 		.4byte	.LASF136
 1699 06be 0A       		.byte	0xa
 1700 06bf C501     		.2byte	0x1c5
 1701 06c1 3C030000 		.4byte	0x33c
 1702 06c5 04       		.byte	0x4
 1703 06c6 14       		.uleb128 0x14
 1704 06c7 36030000 		.4byte	.LASF137
 1705 06cb 0A       		.byte	0xa
 1706 06cc C601     		.2byte	0x1c6
ARM GAS  /tmp/ccl2msbI.s 			page 31


 1707 06ce 3C030000 		.4byte	0x33c
 1708 06d2 08       		.byte	0x8
 1709 06d3 14       		.uleb128 0x14
 1710 06d4 E8070000 		.4byte	.LASF138
 1711 06d8 0A       		.byte	0xa
 1712 06d9 C701     		.2byte	0x1c7
 1713 06db 3C030000 		.4byte	0x33c
 1714 06df 0C       		.byte	0xc
 1715 06e0 00       		.byte	0
 1716 06e1 15       		.uleb128 0x15
 1717 06e2 70030000 		.4byte	.LASF139
 1718 06e6 0A       		.byte	0xa
 1719 06e7 C801     		.2byte	0x1c8
 1720 06e9 A3060000 		.4byte	0x6a3
 1721 06ed 13       		.uleb128 0x13
 1722 06ee 38       		.byte	0x38
 1723 06ef 0A       		.byte	0xa
 1724 06f0 8602     		.2byte	0x286
 1725 06f2 AC070000 		.4byte	0x7ac
 1726 06f6 0C       		.uleb128 0xc
 1727 06f7 435200   		.ascii	"CR\000"
 1728 06fa 0A       		.byte	0xa
 1729 06fb 8802     		.2byte	0x288
 1730 06fd 3C030000 		.4byte	0x33c
 1731 0701 00       		.byte	0
 1732 0702 14       		.uleb128 0x14
 1733 0703 02080000 		.4byte	.LASF140
 1734 0707 0A       		.byte	0xa
 1735 0708 8902     		.2byte	0x289
 1736 070a 3C030000 		.4byte	0x33c
 1737 070e 04       		.byte	0x4
 1738 070f 14       		.uleb128 0x14
 1739 0710 7F090000 		.4byte	.LASF141
 1740 0714 0A       		.byte	0xa
 1741 0715 8A02     		.2byte	0x28a
 1742 0717 3C030000 		.4byte	0x33c
 1743 071b 08       		.byte	0x8
 1744 071c 0C       		.uleb128 0xc
 1745 071d 43495200 		.ascii	"CIR\000"
 1746 0721 0A       		.byte	0xa
 1747 0722 8B02     		.2byte	0x28b
 1748 0724 3C030000 		.4byte	0x33c
 1749 0728 0C       		.byte	0xc
 1750 0729 14       		.uleb128 0x14
 1751 072a E7050000 		.4byte	.LASF142
 1752 072e 0A       		.byte	0xa
 1753 072f 8C02     		.2byte	0x28c
 1754 0731 3C030000 		.4byte	0x33c
 1755 0735 10       		.byte	0x10
 1756 0736 14       		.uleb128 0x14
 1757 0737 D3030000 		.4byte	.LASF143
 1758 073b 0A       		.byte	0xa
 1759 073c 8D02     		.2byte	0x28d
 1760 073e 3C030000 		.4byte	0x33c
 1761 0742 14       		.byte	0x14
 1762 0743 14       		.uleb128 0x14
 1763 0744 00060000 		.4byte	.LASF144
ARM GAS  /tmp/ccl2msbI.s 			page 32


 1764 0748 0A       		.byte	0xa
 1765 0749 8E02     		.2byte	0x28e
 1766 074b 3C030000 		.4byte	0x33c
 1767 074f 18       		.byte	0x18
 1768 0750 14       		.uleb128 0x14
 1769 0751 F1090000 		.4byte	.LASF145
 1770 0755 0A       		.byte	0xa
 1771 0756 8F02     		.2byte	0x28f
 1772 0758 3C030000 		.4byte	0x33c
 1773 075c 1C       		.byte	0x1c
 1774 075d 14       		.uleb128 0x14
 1775 075e 4C070000 		.4byte	.LASF146
 1776 0762 0A       		.byte	0xa
 1777 0763 9002     		.2byte	0x290
 1778 0765 3C030000 		.4byte	0x33c
 1779 0769 20       		.byte	0x20
 1780 076a 14       		.uleb128 0x14
 1781 076b 46080000 		.4byte	.LASF147
 1782 076f 0A       		.byte	0xa
 1783 0770 9102     		.2byte	0x291
 1784 0772 3C030000 		.4byte	0x33c
 1785 0776 24       		.byte	0x24
 1786 0777 14       		.uleb128 0x14
 1787 0778 23020000 		.4byte	.LASF148
 1788 077c 0A       		.byte	0xa
 1789 077d 9202     		.2byte	0x292
 1790 077f 3C030000 		.4byte	0x33c
 1791 0783 28       		.byte	0x28
 1792 0784 14       		.uleb128 0x14
 1793 0785 A9040000 		.4byte	.LASF149
 1794 0789 0A       		.byte	0xa
 1795 078a 9302     		.2byte	0x293
 1796 078c 3C030000 		.4byte	0x33c
 1797 0790 2C       		.byte	0x2c
 1798 0791 14       		.uleb128 0x14
 1799 0792 BF030000 		.4byte	.LASF150
 1800 0796 0A       		.byte	0xa
 1801 0797 9402     		.2byte	0x294
 1802 0799 3C030000 		.4byte	0x33c
 1803 079d 30       		.byte	0x30
 1804 079e 0C       		.uleb128 0xc
 1805 079f 43535200 		.ascii	"CSR\000"
 1806 07a3 0A       		.byte	0xa
 1807 07a4 9502     		.2byte	0x295
 1808 07a6 3C030000 		.4byte	0x33c
 1809 07aa 34       		.byte	0x34
 1810 07ab 00       		.byte	0
 1811 07ac 15       		.uleb128 0x15
 1812 07ad 5F030000 		.4byte	.LASF151
 1813 07b1 0A       		.byte	0xa
 1814 07b2 9602     		.2byte	0x296
 1815 07b4 ED060000 		.4byte	0x6ed
 1816 07b8 08       		.uleb128 0x8
 1817 07b9 0C       		.byte	0xc
 1818 07ba 0B       		.byte	0xb
 1819 07bb B8       		.byte	0xb8
 1820 07bc FD070000 		.4byte	0x7fd
ARM GAS  /tmp/ccl2msbI.s 			page 33


 1821 07c0 06       		.uleb128 0x6
 1822 07c1 54070000 		.4byte	.LASF152
 1823 07c5 0B       		.byte	0xb
 1824 07c6 B9       		.byte	0xb9
 1825 07c7 FD070000 		.4byte	0x7fd
 1826 07cb 00       		.byte	0
 1827 07cc 06       		.uleb128 0x6
 1828 07cd 72070000 		.4byte	.LASF153
 1829 07d1 0B       		.byte	0xb
 1830 07d2 BA       		.byte	0xba
 1831 07d3 03080000 		.4byte	0x803
 1832 07d7 04       		.byte	0x4
 1833 07d8 06       		.uleb128 0x6
 1834 07d9 84030000 		.4byte	.LASF154
 1835 07dd 0B       		.byte	0xb
 1836 07de BB       		.byte	0xbb
 1837 07df A2000000 		.4byte	0xa2
 1838 07e3 08       		.byte	0x8
 1839 07e4 06       		.uleb128 0x6
 1840 07e5 CB020000 		.4byte	.LASF155
 1841 07e9 0B       		.byte	0xb
 1842 07ea BD       		.byte	0xbd
 1843 07eb A2000000 		.4byte	0xa2
 1844 07ef 09       		.byte	0x9
 1845 07f0 06       		.uleb128 0x6
 1846 07f1 7D000000 		.4byte	.LASF156
 1847 07f5 0B       		.byte	0xb
 1848 07f6 BE       		.byte	0xbe
 1849 07f7 A2000000 		.4byte	0xa2
 1850 07fb 0A       		.byte	0xa
 1851 07fc 00       		.byte	0
 1852 07fd 09       		.uleb128 0x9
 1853 07fe 04       		.byte	0x4
 1854 07ff E1060000 		.4byte	0x6e1
 1855 0803 09       		.uleb128 0x9
 1856 0804 04       		.byte	0x4
 1857 0805 3C030000 		.4byte	0x33c
 1858 0809 03       		.uleb128 0x3
 1859 080a 66060000 		.4byte	.LASF157
 1860 080e 0B       		.byte	0xb
 1861 080f BF       		.byte	0xbf
 1862 0810 B8070000 		.4byte	0x7b8
 1863 0814 03       		.uleb128 0x3
 1864 0815 3B030000 		.4byte	.LASF158
 1865 0819 0B       		.byte	0xb
 1866 081a C8       		.byte	0xc8
 1867 081b 1F080000 		.4byte	0x81f
 1868 081f 09       		.uleb128 0x9
 1869 0820 04       		.byte	0x4
 1870 0821 25080000 		.4byte	0x825
 1871 0825 16       		.uleb128 0x16
 1872 0826 35080000 		.4byte	0x835
 1873 082a 17       		.uleb128 0x17
 1874 082b 9D020000 		.4byte	0x29d
 1875 082f 17       		.uleb128 0x17
 1876 0830 C3000000 		.4byte	0xc3
 1877 0834 00       		.byte	0
ARM GAS  /tmp/ccl2msbI.s 			page 34


 1878 0835 18       		.uleb128 0x18
 1879 0836 01       		.byte	0x1
 1880 0837 0C       		.byte	0xc
 1881 0838 55       		.byte	0x55
 1882 0839 62080000 		.4byte	0x862
 1883 083d 12       		.uleb128 0x12
 1884 083e E7000000 		.4byte	.LASF159
 1885 0842 00       		.sleb128 0
 1886 0843 12       		.uleb128 0x12
 1887 0844 8A050000 		.4byte	.LASF160
 1888 0848 01       		.sleb128 1
 1889 0849 12       		.uleb128 0x12
 1890 084a C9030000 		.4byte	.LASF161
 1891 084e 02       		.sleb128 2
 1892 084f 12       		.uleb128 0x12
 1893 0850 09030000 		.4byte	.LASF162
 1894 0854 03       		.sleb128 3
 1895 0855 12       		.uleb128 0x12
 1896 0856 45090000 		.4byte	.LASF163
 1897 085a 04       		.sleb128 4
 1898 085b 12       		.uleb128 0x12
 1899 085c 80080000 		.4byte	.LASF164
 1900 0860 05       		.sleb128 5
 1901 0861 00       		.byte	0
 1902 0862 03       		.uleb128 0x3
 1903 0863 36000000 		.4byte	.LASF165
 1904 0867 0C       		.byte	0xc
 1905 0868 5C       		.byte	0x5c
 1906 0869 35080000 		.4byte	0x835
 1907 086d 03       		.uleb128 0x3
 1908 086e A1020000 		.4byte	.LASF166
 1909 0872 0D       		.byte	0xd
 1910 0873 B9       		.byte	0xb9
 1911 0874 AD000000 		.4byte	0xad
 1912 0878 03       		.uleb128 0x3
 1913 0879 6C090000 		.4byte	.LASF167
 1914 087d 0D       		.byte	0xd
 1915 087e BE       		.byte	0xbe
 1916 087f AD000000 		.4byte	0xad
 1917 0883 18       		.uleb128 0x18
 1918 0884 01       		.byte	0x1
 1919 0885 0D       		.byte	0xd
 1920 0886 C5       		.byte	0xc5
 1921 0887 98080000 		.4byte	0x898
 1922 088b 12       		.uleb128 0x12
 1923 088c CE010000 		.4byte	.LASF168
 1924 0890 00       		.sleb128 0
 1925 0891 12       		.uleb128 0x12
 1926 0892 F8020000 		.4byte	.LASF169
 1927 0896 01       		.sleb128 1
 1928 0897 00       		.byte	0
 1929 0898 03       		.uleb128 0x3
 1930 0899 A4010000 		.4byte	.LASF170
 1931 089d 0D       		.byte	0xd
 1932 089e C8       		.byte	0xc8
 1933 089f 83080000 		.4byte	0x883
 1934 08a3 03       		.uleb128 0x3
ARM GAS  /tmp/ccl2msbI.s 			page 35


 1935 08a4 55030000 		.4byte	.LASF171
 1936 08a8 0D       		.byte	0xd
 1937 08a9 CD       		.byte	0xcd
 1938 08aa AE080000 		.4byte	0x8ae
 1939 08ae 0B       		.uleb128 0xb
 1940 08af 55030000 		.4byte	.LASF171
 1941 08b3 34       		.byte	0x34
 1942 08b4 0D       		.byte	0xd
 1943 08b5 4101     		.2byte	0x141
 1944 08b7 3E090000 		.4byte	0x93e
 1945 08bb 14       		.uleb128 0x14
 1946 08bc B6010000 		.4byte	.LASF172
 1947 08c0 0D       		.byte	0xd
 1948 08c1 4501     		.2byte	0x145
 1949 08c3 62080000 		.4byte	0x862
 1950 08c7 00       		.byte	0
 1951 08c8 14       		.uleb128 0x14
 1952 08c9 E1070000 		.4byte	.LASF173
 1953 08cd 0D       		.byte	0xd
 1954 08ce 4901     		.2byte	0x149
 1955 08d0 7B0A0000 		.4byte	0xa7b
 1956 08d4 04       		.byte	0x4
 1957 08d5 14       		.uleb128 0x14
 1958 08d6 31050000 		.4byte	.LASF174
 1959 08da 0D       		.byte	0xd
 1960 08db 4D01     		.2byte	0x14d
 1961 08dd 6A090000 		.4byte	0x96a
 1962 08e1 08       		.byte	0x8
 1963 08e2 14       		.uleb128 0x14
 1964 08e3 DC030000 		.4byte	.LASF175
 1965 08e7 0D       		.byte	0xd
 1966 08e8 5101     		.2byte	0x151
 1967 08ea 2C000000 		.4byte	0x2c
 1968 08ee 0C       		.byte	0xc
 1969 08ef 14       		.uleb128 0x14
 1970 08f0 1F050000 		.4byte	.LASF176
 1971 08f4 0D       		.byte	0xd
 1972 08f5 5501     		.2byte	0x155
 1973 08f7 860A0000 		.4byte	0xa86
 1974 08fb 10       		.byte	0x10
 1975 08fc 14       		.uleb128 0x14
 1976 08fd 2C020000 		.4byte	.LASF177
 1977 0901 0D       		.byte	0xd
 1978 0902 5A01     		.2byte	0x15a
 1979 0904 61020000 		.4byte	0x261
 1980 0908 14       		.byte	0x14
 1981 0909 14       		.uleb128 0x14
 1982 090a 81060000 		.4byte	.LASF178
 1983 090e 0D       		.byte	0xd
 1984 090f 6101     		.2byte	0x161
 1985 0911 84030000 		.4byte	0x384
 1986 0915 18       		.byte	0x18
 1987 0916 0C       		.uleb128 0xc
 1988 0917 61646300 		.ascii	"adc\000"
 1989 091b 0D       		.byte	0xd
 1990 091c 6D01     		.2byte	0x16d
 1991 091e 910A0000 		.4byte	0xa91
ARM GAS  /tmp/ccl2msbI.s 			page 36


 1992 0922 28       		.byte	0x28
 1993 0923 14       		.uleb128 0x14
 1994 0924 AF010000 		.4byte	.LASF179
 1995 0928 0D       		.byte	0xd
 1996 0929 7101     		.2byte	0x171
 1997 092b 970A0000 		.4byte	0xa97
 1998 092f 2C       		.byte	0x2c
 1999 0930 14       		.uleb128 0x14
 2000 0931 2E000000 		.4byte	.LASF180
 2001 0935 0D       		.byte	0xd
 2002 0936 7501     		.2byte	0x175
 2003 0938 C3000000 		.4byte	0xc3
 2004 093c 30       		.byte	0x30
 2005 093d 00       		.byte	0
 2006 093e 03       		.uleb128 0x3
 2007 093f 87020000 		.4byte	.LASF181
 2008 0943 0D       		.byte	0xd
 2009 0944 D7       		.byte	0xd7
 2010 0945 49090000 		.4byte	0x949
 2011 0949 09       		.uleb128 0x9
 2012 094a 04       		.byte	0x4
 2013 094b 4F090000 		.4byte	0x94f
 2014 094f 16       		.uleb128 0x16
 2015 0950 64090000 		.4byte	0x964
 2016 0954 17       		.uleb128 0x17
 2017 0955 64090000 		.4byte	0x964
 2018 0959 17       		.uleb128 0x17
 2019 095a 6A090000 		.4byte	0x96a
 2020 095e 17       		.uleb128 0x17
 2021 095f 2C000000 		.4byte	0x2c
 2022 0963 00       		.byte	0
 2023 0964 09       		.uleb128 0x9
 2024 0965 04       		.byte	0x4
 2025 0966 A3080000 		.4byte	0x8a3
 2026 096a 09       		.uleb128 0x9
 2027 096b 04       		.byte	0x4
 2028 096c 6D080000 		.4byte	0x86d
 2029 0970 03       		.uleb128 0x3
 2030 0971 FA010000 		.4byte	.LASF182
 2031 0975 0D       		.byte	0xd
 2032 0976 E0       		.byte	0xe0
 2033 0977 7B090000 		.4byte	0x97b
 2034 097b 09       		.uleb128 0x9
 2035 097c 04       		.byte	0x4
 2036 097d 81090000 		.4byte	0x981
 2037 0981 16       		.uleb128 0x16
 2038 0982 91090000 		.4byte	0x991
 2039 0986 17       		.uleb128 0x17
 2040 0987 64090000 		.4byte	0x964
 2041 098b 17       		.uleb128 0x17
 2042 098c 98080000 		.4byte	0x898
 2043 0990 00       		.byte	0
 2044 0991 08       		.uleb128 0x8
 2045 0992 34       		.byte	0x34
 2046 0993 0D       		.byte	0xd
 2047 0994 EA       		.byte	0xea
 2048 0995 4C0A0000 		.4byte	0xa4c
ARM GAS  /tmp/ccl2msbI.s 			page 37


 2049 0999 06       		.uleb128 0x6
 2050 099a BC010000 		.4byte	.LASF183
 2051 099e 0D       		.byte	0xd
 2052 099f EE       		.byte	0xee
 2053 09a0 CE000000 		.4byte	0xce
 2054 09a4 00       		.byte	0
 2055 09a5 06       		.uleb128 0x6
 2056 09a6 9C040000 		.4byte	.LASF184
 2057 09aa 0D       		.byte	0xd
 2058 09ab F2       		.byte	0xf2
 2059 09ac 78080000 		.4byte	0x878
 2060 09b0 02       		.byte	0x2
 2061 09b1 06       		.uleb128 0x6
 2062 09b2 80020000 		.4byte	.LASF185
 2063 09b6 0D       		.byte	0xd
 2064 09b7 F6       		.byte	0xf6
 2065 09b8 3E090000 		.4byte	0x93e
 2066 09bc 04       		.byte	0x4
 2067 09bd 06       		.uleb128 0x6
 2068 09be 0A070000 		.4byte	.LASF186
 2069 09c2 0D       		.byte	0xd
 2070 09c3 FA       		.byte	0xfa
 2071 09c4 70090000 		.4byte	0x970
 2072 09c8 08       		.byte	0x8
 2073 09c9 0C       		.uleb128 0xc
 2074 09ca 63723100 		.ascii	"cr1\000"
 2075 09ce 0D       		.byte	0xd
 2076 09cf 0101     		.2byte	0x101
 2077 09d1 C3000000 		.4byte	0xc3
 2078 09d5 0C       		.byte	0xc
 2079 09d6 0C       		.uleb128 0xc
 2080 09d7 63723200 		.ascii	"cr2\000"
 2081 09db 0D       		.byte	0xd
 2082 09dc 0801     		.2byte	0x108
 2083 09de C3000000 		.4byte	0xc3
 2084 09e2 10       		.byte	0x10
 2085 09e3 14       		.uleb128 0x14
 2086 09e4 9E070000 		.4byte	.LASF187
 2087 09e8 0D       		.byte	0xd
 2088 09e9 0E01     		.2byte	0x10e
 2089 09eb C3000000 		.4byte	0xc3
 2090 09ef 14       		.byte	0x14
 2091 09f0 14       		.uleb128 0x14
 2092 09f1 CE080000 		.4byte	.LASF188
 2093 09f5 0D       		.byte	0xd
 2094 09f6 1401     		.2byte	0x114
 2095 09f8 C3000000 		.4byte	0xc3
 2096 09fc 18       		.byte	0x18
 2097 09fd 14       		.uleb128 0x14
 2098 09fe D4080000 		.4byte	.LASF189
 2099 0a02 0D       		.byte	0xd
 2100 0a03 1A01     		.2byte	0x11a
 2101 0a05 C3000000 		.4byte	0xc3
 2102 0a09 1C       		.byte	0x1c
 2103 0a0a 14       		.uleb128 0x14
 2104 0a0b 08080000 		.4byte	.LASF190
 2105 0a0f 0D       		.byte	0xd
ARM GAS  /tmp/ccl2msbI.s 			page 38


 2106 0a10 1F01     		.2byte	0x11f
 2107 0a12 C3000000 		.4byte	0xc3
 2108 0a16 20       		.byte	0x20
 2109 0a17 14       		.uleb128 0x14
 2110 0a18 0D080000 		.4byte	.LASF191
 2111 0a1c 0D       		.byte	0xd
 2112 0a1d 2401     		.2byte	0x124
 2113 0a1f C3000000 		.4byte	0xc3
 2114 0a23 24       		.byte	0x24
 2115 0a24 14       		.uleb128 0x14
 2116 0a25 12080000 		.4byte	.LASF192
 2117 0a29 0D       		.byte	0xd
 2118 0a2a 2901     		.2byte	0x129
 2119 0a2c C3000000 		.4byte	0xc3
 2120 0a30 28       		.byte	0x28
 2121 0a31 14       		.uleb128 0x14
 2122 0a32 17080000 		.4byte	.LASF193
 2123 0a36 0D       		.byte	0xd
 2124 0a37 2E01     		.2byte	0x12e
 2125 0a39 C3000000 		.4byte	0xc3
 2126 0a3d 2C       		.byte	0x2c
 2127 0a3e 14       		.uleb128 0x14
 2128 0a3f 1C080000 		.4byte	.LASF194
 2129 0a43 0D       		.byte	0xd
 2130 0a44 3301     		.2byte	0x133
 2131 0a46 C3000000 		.4byte	0xc3
 2132 0a4a 30       		.byte	0x30
 2133 0a4b 00       		.byte	0
 2134 0a4c 15       		.uleb128 0x15
 2135 0a4d 06090000 		.4byte	.LASF195
 2136 0a51 0D       		.byte	0xd
 2137 0a52 3401     		.2byte	0x134
 2138 0a54 91090000 		.4byte	0x991
 2139 0a58 13       		.uleb128 0x13
 2140 0a59 04       		.byte	0x4
 2141 0a5a 0D       		.byte	0xd
 2142 0a5b 3A01     		.2byte	0x13a
 2143 0a5d 6F0A0000 		.4byte	0xa6f
 2144 0a61 14       		.uleb128 0x14
 2145 0a62 E1020000 		.4byte	.LASF196
 2146 0a66 0D       		.byte	0xd
 2147 0a67 3B01     		.2byte	0x13b
 2148 0a69 C3000000 		.4byte	0xc3
 2149 0a6d 00       		.byte	0
 2150 0a6e 00       		.byte	0
 2151 0a6f 15       		.uleb128 0x15
 2152 0a70 B8020000 		.4byte	.LASF197
 2153 0a74 0D       		.byte	0xd
 2154 0a75 3C01     		.2byte	0x13c
 2155 0a77 580A0000 		.4byte	0xa58
 2156 0a7b 09       		.uleb128 0x9
 2157 0a7c 04       		.byte	0x4
 2158 0a7d 810A0000 		.4byte	0xa81
 2159 0a81 10       		.uleb128 0x10
 2160 0a82 6F0A0000 		.4byte	0xa6f
 2161 0a86 09       		.uleb128 0x9
 2162 0a87 04       		.byte	0x4
ARM GAS  /tmp/ccl2msbI.s 			page 39


 2163 0a88 8C0A0000 		.4byte	0xa8c
 2164 0a8c 10       		.uleb128 0x10
 2165 0a8d 4C0A0000 		.4byte	0xa4c
 2166 0a91 09       		.uleb128 0x9
 2167 0a92 04       		.byte	0x4
 2168 0a93 67060000 		.4byte	0x667
 2169 0a97 09       		.uleb128 0x9
 2170 0a98 04       		.byte	0x4
 2171 0a99 9D0A0000 		.4byte	0xa9d
 2172 0a9d 10       		.uleb128 0x10
 2173 0a9e 09080000 		.4byte	0x809
 2174 0aa2 19       		.uleb128 0x19
 2175 0aa3 D2060000 		.4byte	.LASF213
 2176 0aa7 01       		.byte	0x1
 2177 0aa8 FA       		.byte	0xfa
 2178 0aa9 01       		.byte	0x1
 2179 0aaa BA0A0000 		.4byte	0xaba
 2180 0aae 1A       		.uleb128 0x1a
 2181 0aaf 6B030000 		.4byte	.LASF198
 2182 0ab3 01       		.byte	0x1
 2183 0ab4 FA       		.byte	0xfa
 2184 0ab5 64090000 		.4byte	0x964
 2185 0ab9 00       		.byte	0
 2186 0aba 1B       		.uleb128 0x1b
 2187 0abb AD060000 		.4byte	.LASF222
 2188 0abf 01       		.byte	0x1
 2189 0ac0 39       		.byte	0x39
 2190 0ac1 00000000 		.4byte	.LFB63
 2191 0ac5 0A010000 		.4byte	.LFE63-.LFB63
 2192 0ac9 01       		.uleb128 0x1
 2193 0aca 9C       		.byte	0x9c
 2194 0acb 320C0000 		.4byte	0xc32
 2195 0acf 1C       		.uleb128 0x1c
 2196 0ad0 6B030000 		.4byte	.LASF198
 2197 0ad4 01       		.byte	0x1
 2198 0ad5 39       		.byte	0x39
 2199 0ad6 64090000 		.4byte	0x964
 2200 0ada 00000000 		.4byte	.LLST0
 2201 0ade 1C       		.uleb128 0x1c
 2202 0adf 19090000 		.4byte	.LASF199
 2203 0ae3 01       		.byte	0x1
 2204 0ae4 39       		.byte	0x39
 2205 0ae5 C3000000 		.4byte	0xc3
 2206 0ae9 6B000000 		.4byte	.LLST1
 2207 0aed 1D       		.uleb128 0x1d
 2208 0aee A20A0000 		.4byte	0xaa2
 2209 0af2 08000000 		.4byte	.LBB18
 2210 0af6 00000000 		.4byte	.Ldebug_ranges0+0
 2211 0afa 01       		.byte	0x1
 2212 0afb 3F       		.byte	0x3f
 2213 0afc 0A0B0000 		.4byte	0xb0a
 2214 0b00 1E       		.uleb128 0x1e
 2215 0b01 AE0A0000 		.4byte	0xaae
 2216 0b05 D7000000 		.4byte	.LLST2
 2217 0b09 00       		.byte	0
 2218 0b0a 1F       		.uleb128 0x1f
 2219 0b0b 44000000 		.4byte	.LBB24
ARM GAS  /tmp/ccl2msbI.s 			page 40


 2220 0b0f 06000000 		.4byte	.LBE24-.LBB24
 2221 0b13 250B0000 		.4byte	0xb25
 2222 0b17 20       		.uleb128 0x20
 2223 0b18 746D7000 		.ascii	"tmp\000"
 2224 0b1c 01       		.byte	0x1
 2225 0b1d 3F       		.byte	0x3f
 2226 0b1e C3000000 		.4byte	0xc3
 2227 0b22 01       		.uleb128 0x1
 2228 0b23 53       		.byte	0x53
 2229 0b24 00       		.byte	0
 2230 0b25 1F       		.uleb128 0x1f
 2231 0b26 4E000000 		.4byte	.LBB25
 2232 0b2a 10000000 		.4byte	.LBE25-.LBB25
 2233 0b2e 4A0B0000 		.4byte	0xb4a
 2234 0b32 21       		.uleb128 0x21
 2235 0b33 747000   		.ascii	"tp\000"
 2236 0b36 01       		.byte	0x1
 2237 0b37 3F       		.byte	0x3f
 2238 0b38 61020000 		.4byte	0x261
 2239 0b3c F5000000 		.4byte	.LLST3
 2240 0b40 22       		.uleb128 0x22
 2241 0b41 5E000000 		.4byte	.LVL5
 2242 0b45 790E0000 		.4byte	0xe79
 2243 0b49 00       		.byte	0
 2244 0b4a 1F       		.uleb128 0x1f
 2245 0b4b 5E000000 		.4byte	.LBB26
 2246 0b4f 08000000 		.4byte	.LBE26-.LBB26
 2247 0b53 650B0000 		.4byte	0xb65
 2248 0b57 20       		.uleb128 0x20
 2249 0b58 746D7000 		.ascii	"tmp\000"
 2250 0b5c 01       		.byte	0x1
 2251 0b5d 47       		.byte	0x47
 2252 0b5e C3000000 		.4byte	0xc3
 2253 0b62 01       		.uleb128 0x1
 2254 0b63 53       		.byte	0x53
 2255 0b64 00       		.byte	0
 2256 0b65 1D       		.uleb128 0x1d
 2257 0b66 A20A0000 		.4byte	0xaa2
 2258 0b6a 76000000 		.4byte	.LBB27
 2259 0b6e 20000000 		.4byte	.Ldebug_ranges0+0x20
 2260 0b72 01       		.byte	0x1
 2261 0b73 47       		.byte	0x47
 2262 0b74 820B0000 		.4byte	0xb82
 2263 0b78 1E       		.uleb128 0x1e
 2264 0b79 AE0A0000 		.4byte	0xaae
 2265 0b7d 08010000 		.4byte	.LLST4
 2266 0b81 00       		.byte	0
 2267 0b82 1F       		.uleb128 0x1f
 2268 0b83 B6000000 		.4byte	.LBB31
 2269 0b87 06000000 		.4byte	.LBE31-.LBB31
 2270 0b8b 9D0B0000 		.4byte	0xb9d
 2271 0b8f 20       		.uleb128 0x20
 2272 0b90 746D7000 		.ascii	"tmp\000"
 2273 0b94 01       		.byte	0x1
 2274 0b95 47       		.byte	0x47
 2275 0b96 C3000000 		.4byte	0xc3
 2276 0b9a 01       		.uleb128 0x1
ARM GAS  /tmp/ccl2msbI.s 			page 41


 2277 0b9b 53       		.byte	0x53
 2278 0b9c 00       		.byte	0
 2279 0b9d 1F       		.uleb128 0x1f
 2280 0b9e C2000000 		.4byte	.LBB32
 2281 0ba2 0E000000 		.4byte	.LBE32-.LBB32
 2282 0ba6 C20B0000 		.4byte	0xbc2
 2283 0baa 21       		.uleb128 0x21
 2284 0bab 747000   		.ascii	"tp\000"
 2285 0bae 01       		.byte	0x1
 2286 0baf 47       		.byte	0x47
 2287 0bb0 61020000 		.4byte	0x261
 2288 0bb4 31010000 		.4byte	.LLST5
 2289 0bb8 22       		.uleb128 0x22
 2290 0bb9 CE000000 		.4byte	.LVL11
 2291 0bbd 790E0000 		.4byte	0xe79
 2292 0bc1 00       		.byte	0
 2293 0bc2 23       		.uleb128 0x23
 2294 0bc3 38000000 		.4byte	.Ldebug_ranges0+0x38
 2295 0bc7 EA0B0000 		.4byte	0xbea
 2296 0bcb 24       		.uleb128 0x24
 2297 0bcc D5040000 		.4byte	.LASF200
 2298 0bd0 01       		.byte	0x1
 2299 0bd1 47       		.byte	0x47
 2300 0bd2 2C000000 		.4byte	0x2c
 2301 0bd6 44010000 		.4byte	.LLST6
 2302 0bda 24       		.uleb128 0x24
 2303 0bdb CD090000 		.4byte	.LASF201
 2304 0bdf 01       		.byte	0x1
 2305 0be0 47       		.byte	0x47
 2306 0be1 2C000000 		.4byte	0x2c
 2307 0be5 57010000 		.4byte	.LLST7
 2308 0be9 00       		.byte	0
 2309 0bea 25       		.uleb128 0x25
 2310 0beb 36000000 		.4byte	.LVL3
 2311 0bef FF0B0000 		.4byte	0xbff
 2312 0bf3 26       		.uleb128 0x26
 2313 0bf4 01       		.uleb128 0x1
 2314 0bf5 51       		.byte	0x51
 2315 0bf6 01       		.uleb128 0x1
 2316 0bf7 30       		.byte	0x30
 2317 0bf8 26       		.uleb128 0x26
 2318 0bf9 01       		.uleb128 0x1
 2319 0bfa 50       		.byte	0x50
 2320 0bfb 02       		.uleb128 0x2
 2321 0bfc 74       		.byte	0x74
 2322 0bfd 00       		.sleb128 0
 2323 0bfe 00       		.byte	0
 2324 0bff 27       		.uleb128 0x27
 2325 0c00 AA000000 		.4byte	.LVL9
 2326 0c04 02       		.uleb128 0x2
 2327 0c05 76       		.byte	0x76
 2328 0c06 00       		.sleb128 0
 2329 0c07 120C0000 		.4byte	0xc12
 2330 0c0b 26       		.uleb128 0x26
 2331 0c0c 01       		.uleb128 0x1
 2332 0c0d 50       		.byte	0x50
 2333 0c0e 02       		.uleb128 0x2
ARM GAS  /tmp/ccl2msbI.s 			page 42


 2334 0c0f 74       		.byte	0x74
 2335 0c10 00       		.sleb128 0
 2336 0c11 00       		.byte	0
 2337 0c12 25       		.uleb128 0x25
 2338 0c13 E0000000 		.4byte	.LVL14
 2339 0c17 220C0000 		.4byte	0xc22
 2340 0c1b 26       		.uleb128 0x26
 2341 0c1c 01       		.uleb128 0x1
 2342 0c1d 50       		.byte	0x50
 2343 0c1e 02       		.uleb128 0x2
 2344 0c1f 74       		.byte	0x74
 2345 0c20 00       		.sleb128 0
 2346 0c21 00       		.byte	0
 2347 0c22 28       		.uleb128 0x28
 2348 0c23 00010000 		.4byte	.LVL19
 2349 0c27 02       		.uleb128 0x2
 2350 0c28 75       		.byte	0x75
 2351 0c29 00       		.sleb128 0
 2352 0c2a 26       		.uleb128 0x26
 2353 0c2b 01       		.uleb128 0x1
 2354 0c2c 50       		.byte	0x50
 2355 0c2d 02       		.uleb128 0x2
 2356 0c2e 74       		.byte	0x74
 2357 0c2f 00       		.sleb128 0
 2358 0c30 00       		.byte	0
 2359 0c31 00       		.byte	0
 2360 0c32 29       		.uleb128 0x29
 2361 0c33 B8080000 		.4byte	.LASF202
 2362 0c37 01       		.byte	0x1
 2363 0c38 5B       		.byte	0x5b
 2364 0c39 00000000 		.4byte	.LFB64
 2365 0c3d 90000000 		.4byte	.LFE64-.LFB64
 2366 0c41 01       		.uleb128 0x1
 2367 0c42 9C       		.byte	0x9c
 2368 0c43 EF0C0000 		.4byte	0xcef
 2369 0c47 21       		.uleb128 0x21
 2370 0c48 737200   		.ascii	"sr\000"
 2371 0c4b 01       		.byte	0x1
 2372 0c4c 5C       		.byte	0x5c
 2373 0c4d C3000000 		.4byte	0xc3
 2374 0c51 8E010000 		.4byte	.LLST8
 2375 0c55 1D       		.uleb128 0x1d
 2376 0c56 A20A0000 		.4byte	0xaa2
 2377 0c5a 2C000000 		.4byte	.LBB35
 2378 0c5e 50000000 		.4byte	.Ldebug_ranges0+0x50
 2379 0c62 01       		.byte	0x1
 2380 0c63 68       		.byte	0x68
 2381 0c64 720C0000 		.4byte	0xc72
 2382 0c68 1E       		.uleb128 0x1e
 2383 0c69 AE0A0000 		.4byte	0xaae
 2384 0c6d A1010000 		.4byte	.LLST9
 2385 0c71 00       		.byte	0
 2386 0c72 1F       		.uleb128 0x1f
 2387 0c73 62000000 		.4byte	.LBB39
 2388 0c77 06000000 		.4byte	.LBE39-.LBB39
 2389 0c7b 8D0C0000 		.4byte	0xc8d
 2390 0c7f 20       		.uleb128 0x20
ARM GAS  /tmp/ccl2msbI.s 			page 43


 2391 0c80 746D7000 		.ascii	"tmp\000"
 2392 0c84 01       		.byte	0x1
 2393 0c85 68       		.byte	0x68
 2394 0c86 C3000000 		.4byte	0xc3
 2395 0c8a 01       		.uleb128 0x1
 2396 0c8b 53       		.byte	0x53
 2397 0c8c 00       		.byte	0
 2398 0c8d 1F       		.uleb128 0x1f
 2399 0c8e 74000000 		.4byte	.LBB40
 2400 0c92 0E000000 		.4byte	.LBE40-.LBB40
 2401 0c96 B20C0000 		.4byte	0xcb2
 2402 0c9a 21       		.uleb128 0x21
 2403 0c9b 747000   		.ascii	"tp\000"
 2404 0c9e 01       		.byte	0x1
 2405 0c9f 68       		.byte	0x68
 2406 0ca0 61020000 		.4byte	0x261
 2407 0ca4 B9010000 		.4byte	.LLST10
 2408 0ca8 22       		.uleb128 0x22
 2409 0ca9 82000000 		.4byte	.LVL26
 2410 0cad 790E0000 		.4byte	0xe79
 2411 0cb1 00       		.byte	0
 2412 0cb2 1F       		.uleb128 0x1f
 2413 0cb3 82000000 		.4byte	.LBB41
 2414 0cb7 06000000 		.4byte	.LBE41-.LBB41
 2415 0cbb CD0C0000 		.4byte	0xccd
 2416 0cbf 20       		.uleb128 0x20
 2417 0cc0 746D7000 		.ascii	"tmp\000"
 2418 0cc4 01       		.byte	0x1
 2419 0cc5 68       		.byte	0x68
 2420 0cc6 C3000000 		.4byte	0xc3
 2421 0cca 01       		.uleb128 0x1
 2422 0ccb 53       		.byte	0x53
 2423 0ccc 00       		.byte	0
 2424 0ccd 27       		.uleb128 0x27
 2425 0cce 54000000 		.4byte	.LVL24
 2426 0cd2 02       		.uleb128 0x2
 2427 0cd3 75       		.byte	0x75
 2428 0cd4 00       		.sleb128 0
 2429 0cd5 E50C0000 		.4byte	0xce5
 2430 0cd9 26       		.uleb128 0x26
 2431 0cda 01       		.uleb128 0x1
 2432 0cdb 51       		.byte	0x51
 2433 0cdc 01       		.uleb128 0x1
 2434 0cdd 31       		.byte	0x31
 2435 0cde 26       		.uleb128 0x26
 2436 0cdf 01       		.uleb128 0x1
 2437 0ce0 50       		.byte	0x50
 2438 0ce1 02       		.uleb128 0x2
 2439 0ce2 74       		.byte	0x74
 2440 0ce3 00       		.sleb128 0
 2441 0ce4 00       		.byte	0
 2442 0ce5 2A       		.uleb128 0x2a
 2443 0ce6 90000000 		.4byte	.LVL28
 2444 0cea 8E0E0000 		.4byte	0xe8e
 2445 0cee 00       		.byte	0
 2446 0cef 29       		.uleb128 0x29
 2447 0cf0 24050000 		.4byte	.LASF203
ARM GAS  /tmp/ccl2msbI.s 			page 44


 2448 0cf4 01       		.byte	0x1
 2449 0cf5 79       		.byte	0x79
 2450 0cf6 00000000 		.4byte	.LFB65
 2451 0cfa 36000000 		.4byte	.LFE65-.LFB65
 2452 0cfe 01       		.uleb128 0x1
 2453 0cff 9C       		.byte	0x9c
 2454 0d00 2E0D0000 		.4byte	0xd2e
 2455 0d04 2B       		.uleb128 0x2b
 2456 0d05 10000000 		.4byte	.LVL29
 2457 0d09 960E0000 		.4byte	0xe96
 2458 0d0d 180D0000 		.4byte	0xd18
 2459 0d11 26       		.uleb128 0x26
 2460 0d12 01       		.uleb128 0x1
 2461 0d13 50       		.byte	0x50
 2462 0d14 02       		.uleb128 0x2
 2463 0d15 74       		.byte	0x74
 2464 0d16 00       		.sleb128 0
 2465 0d17 00       		.byte	0
 2466 0d18 2C       		.uleb128 0x2c
 2467 0d19 36000000 		.4byte	.LVL30
 2468 0d1d A80E0000 		.4byte	0xea8
 2469 0d21 26       		.uleb128 0x26
 2470 0d22 01       		.uleb128 0x1
 2471 0d23 51       		.byte	0x51
 2472 0d24 02       		.uleb128 0x2
 2473 0d25 08       		.byte	0x8
 2474 0d26 60       		.byte	0x60
 2475 0d27 26       		.uleb128 0x26
 2476 0d28 01       		.uleb128 0x1
 2477 0d29 50       		.byte	0x50
 2478 0d2a 01       		.uleb128 0x1
 2479 0d2b 42       		.byte	0x42
 2480 0d2c 00       		.byte	0
 2481 0d2d 00       		.byte	0
 2482 0d2e 29       		.uleb128 0x29
 2483 0d2f 72080000 		.4byte	.LASF204
 2484 0d33 01       		.byte	0x1
 2485 0d34 93       		.byte	0x93
 2486 0d35 00000000 		.4byte	.LFB66
 2487 0d39 58000000 		.4byte	.LFE66-.LFB66
 2488 0d3d 01       		.uleb128 0x1
 2489 0d3e 9C       		.byte	0x9c
 2490 0d3f 840D0000 		.4byte	0xd84
 2491 0d43 1C       		.uleb128 0x1c
 2492 0d44 6B030000 		.4byte	.LASF198
 2493 0d48 01       		.byte	0x1
 2494 0d49 93       		.byte	0x93
 2495 0d4a 64090000 		.4byte	0x964
 2496 0d4e CC010000 		.4byte	.LLST11
 2497 0d52 2D       		.uleb128 0x2d
 2498 0d53 26000000 		.4byte	.LBB42
 2499 0d57 32000000 		.4byte	.LBE42-.LBB42
 2500 0d5b 2E       		.uleb128 0x2e
 2501 0d5c 6200     		.ascii	"b\000"
 2502 0d5e 01       		.byte	0x1
 2503 0d5f 99       		.byte	0x99
 2504 0d60 CE000000 		.4byte	0xce
ARM GAS  /tmp/ccl2msbI.s 			page 45


 2505 0d64 2F       		.uleb128 0x2f
 2506 0d65 38000000 		.4byte	.LVL35
 2507 0d69 BF0E0000 		.4byte	0xebf
 2508 0d6d 26       		.uleb128 0x26
 2509 0d6e 01       		.uleb128 0x1
 2510 0d6f 53       		.byte	0x53
 2511 0d70 02       		.uleb128 0x2
 2512 0d71 74       		.byte	0x74
 2513 0d72 00       		.sleb128 0
 2514 0d73 26       		.uleb128 0x26
 2515 0d74 01       		.uleb128 0x1
 2516 0d75 52       		.byte	0x52
 2517 0d76 05       		.uleb128 0x5
 2518 0d77 03       		.byte	0x3
 2519 0d78 00000000 		.4byte	adc_lld_serve_rx_interrupt
 2520 0d7c 26       		.uleb128 0x26
 2521 0d7d 01       		.uleb128 0x1
 2522 0d7e 51       		.byte	0x51
 2523 0d7f 01       		.uleb128 0x1
 2524 0d80 36       		.byte	0x36
 2525 0d81 00       		.byte	0
 2526 0d82 00       		.byte	0
 2527 0d83 00       		.byte	0
 2528 0d84 29       		.uleb128 0x29
 2529 0d85 84000000 		.4byte	.LASF205
 2530 0d89 01       		.byte	0x1
 2531 0d8a B3       		.byte	0xb3
 2532 0d8b 00000000 		.4byte	.LFB67
 2533 0d8f 3E000000 		.4byte	.LFE67-.LFB67
 2534 0d93 01       		.uleb128 0x1
 2535 0d94 9C       		.byte	0x9c
 2536 0d95 B20D0000 		.4byte	0xdb2
 2537 0d99 1C       		.uleb128 0x1c
 2538 0d9a 6B030000 		.4byte	.LASF198
 2539 0d9e 01       		.byte	0x1
 2540 0d9f B3       		.byte	0xb3
 2541 0da0 64090000 		.4byte	0x964
 2542 0da4 00020000 		.4byte	.LLST12
 2543 0da8 22       		.uleb128 0x22
 2544 0da9 12000000 		.4byte	.LVL38
 2545 0dad E40E0000 		.4byte	0xee4
 2546 0db1 00       		.byte	0
 2547 0db2 29       		.uleb128 0x29
 2548 0db3 E1010000 		.4byte	.LASF206
 2549 0db7 01       		.byte	0x1
 2550 0db8 C9       		.byte	0xc9
 2551 0db9 00000000 		.4byte	.LFB68
 2552 0dbd 98000000 		.4byte	.LFE68-.LFB68
 2553 0dc1 01       		.uleb128 0x1
 2554 0dc2 9C       		.byte	0x9c
 2555 0dc3 F50D0000 		.4byte	0xdf5
 2556 0dc7 1C       		.uleb128 0x1c
 2557 0dc8 6B030000 		.4byte	.LASF198
 2558 0dcc 01       		.byte	0x1
 2559 0dcd C9       		.byte	0xc9
 2560 0dce 64090000 		.4byte	0x964
 2561 0dd2 1E020000 		.4byte	.LLST13
ARM GAS  /tmp/ccl2msbI.s 			page 46


 2562 0dd6 24       		.uleb128 0x24
 2563 0dd7 CE070000 		.4byte	.LASF207
 2564 0ddb 01       		.byte	0x1
 2565 0ddc CA       		.byte	0xca
 2566 0ddd C3000000 		.4byte	0xc3
 2567 0de1 3F020000 		.4byte	.LLST14
 2568 0de5 24       		.uleb128 0x24
 2569 0de6 1F050000 		.4byte	.LASF176
 2570 0dea 01       		.byte	0x1
 2571 0deb CB       		.byte	0xcb
 2572 0dec 860A0000 		.4byte	0xa86
 2573 0df0 8A020000 		.4byte	.LLST15
 2574 0df4 00       		.byte	0
 2575 0df5 30       		.uleb128 0x30
 2576 0df6 A20A0000 		.4byte	0xaa2
 2577 0dfa 00000000 		.4byte	.LFB69
 2578 0dfe 28000000 		.4byte	.LFE69-.LFB69
 2579 0e02 01       		.uleb128 0x1
 2580 0e03 9C       		.byte	0x9c
 2581 0e04 120E0000 		.4byte	0xe12
 2582 0e08 1E       		.uleb128 0x1e
 2583 0e09 AE0A0000 		.4byte	0xaae
 2584 0e0d AC020000 		.4byte	.LLST16
 2585 0e11 00       		.byte	0
 2586 0e12 31       		.uleb128 0x31
 2587 0e13 67000000 		.4byte	.LASF208
 2588 0e17 01       		.byte	0x1
 2589 0e18 0801     		.2byte	0x108
 2590 0e1a 00000000 		.4byte	.LFB70
 2591 0e1e 12000000 		.4byte	.LFE70-.LFB70
 2592 0e22 01       		.uleb128 0x1
 2593 0e23 9C       		.byte	0x9c
 2594 0e24 31       		.uleb128 0x31
 2595 0e25 3A020000 		.4byte	.LASF209
 2596 0e29 01       		.byte	0x1
 2597 0e2a 1301     		.2byte	0x113
 2598 0e2c 00000000 		.4byte	.LFB71
 2599 0e30 12000000 		.4byte	.LFE71-.LFB71
 2600 0e34 01       		.uleb128 0x1
 2601 0e35 9C       		.byte	0x9c
 2602 0e36 32       		.uleb128 0x32
 2603 0e37 1C010000 		.4byte	.LASF210
 2604 0e3b 0E       		.byte	0xe
 2605 0e3c 0706     		.2byte	0x607
 2606 0e3e 420E0000 		.4byte	0xe42
 2607 0e42 0D       		.uleb128 0xd
 2608 0e43 B8000000 		.4byte	0xb8
 2609 0e47 33       		.uleb128 0x33
 2610 0e48 09080000 		.4byte	0x809
 2611 0e4c 570E0000 		.4byte	0xe57
 2612 0e50 34       		.uleb128 0x34
 2613 0e51 41030000 		.4byte	0x341
 2614 0e55 06       		.byte	0x6
 2615 0e56 00       		.byte	0
 2616 0e57 32       		.uleb128 0x32
 2617 0e58 F2000000 		.4byte	.LASF211
 2618 0e5c 0B       		.byte	0xb
ARM GAS  /tmp/ccl2msbI.s 			page 47


 2619 0e5d 7A01     		.2byte	0x17a
 2620 0e5f 630E0000 		.4byte	0xe63
 2621 0e63 10       		.uleb128 0x10
 2622 0e64 470E0000 		.4byte	0xe47
 2623 0e68 35       		.uleb128 0x35
 2624 0e69 80070000 		.4byte	.LASF212
 2625 0e6d 01       		.byte	0x1
 2626 0e6e 28       		.byte	0x28
 2627 0e6f A3080000 		.4byte	0x8a3
 2628 0e73 05       		.uleb128 0x5
 2629 0e74 03       		.byte	0x3
 2630 0e75 00000000 		.4byte	ADCD1
 2631 0e79 36       		.uleb128 0x36
 2632 0e7a 92070000 		.4byte	.LASF216
 2633 0e7e 10       		.byte	0x10
 2634 0e7f 90       		.byte	0x90
 2635 0e80 61020000 		.4byte	0x261
 2636 0e84 8E0E0000 		.4byte	0xe8e
 2637 0e88 17       		.uleb128 0x17
 2638 0e89 61020000 		.4byte	0x261
 2639 0e8d 00       		.byte	0
 2640 0e8e 37       		.uleb128 0x37
 2641 0e8f E5080000 		.4byte	.LASF223
 2642 0e93 08       		.byte	0x8
 2643 0e94 0302     		.2byte	0x203
 2644 0e96 38       		.uleb128 0x38
 2645 0e97 28030000 		.4byte	.LASF214
 2646 0e9b 0C       		.byte	0xc
 2647 0e9c 1D01     		.2byte	0x11d
 2648 0e9e A80E0000 		.4byte	0xea8
 2649 0ea2 17       		.uleb128 0x17
 2650 0ea3 64090000 		.4byte	0x964
 2651 0ea7 00       		.byte	0
 2652 0ea8 38       		.uleb128 0x38
 2653 0ea9 43010000 		.4byte	.LASF215
 2654 0ead 0F       		.byte	0xf
 2655 0eae 2301     		.2byte	0x123
 2656 0eb0 BF0E0000 		.4byte	0xebf
 2657 0eb4 17       		.uleb128 0x17
 2658 0eb5 C3000000 		.4byte	0xc3
 2659 0eb9 17       		.uleb128 0x17
 2660 0eba C3000000 		.4byte	0xc3
 2661 0ebe 00       		.byte	0
 2662 0ebf 39       		.uleb128 0x39
 2663 0ec0 BB090000 		.4byte	.LASF217
 2664 0ec4 0B       		.byte	0xb
 2665 0ec5 8101     		.2byte	0x181
 2666 0ec7 CE000000 		.4byte	0xce
 2667 0ecb E40E0000 		.4byte	0xee4
 2668 0ecf 17       		.uleb128 0x17
 2669 0ed0 970A0000 		.4byte	0xa97
 2670 0ed4 17       		.uleb128 0x17
 2671 0ed5 C3000000 		.4byte	0xc3
 2672 0ed9 17       		.uleb128 0x17
 2673 0eda 14080000 		.4byte	0x814
 2674 0ede 17       		.uleb128 0x17
 2675 0edf 9D020000 		.4byte	0x29d
ARM GAS  /tmp/ccl2msbI.s 			page 48


 2676 0ee3 00       		.byte	0
 2677 0ee4 3A       		.uleb128 0x3a
 2678 0ee5 BD070000 		.4byte	.LASF224
 2679 0ee9 0B       		.byte	0xb
 2680 0eea 8501     		.2byte	0x185
 2681 0eec 17       		.uleb128 0x17
 2682 0eed 970A0000 		.4byte	0xa97
 2683 0ef1 00       		.byte	0
 2684 0ef2 00       		.byte	0
 2685              		.section	.debug_abbrev,"",%progbits
 2686              	.Ldebug_abbrev0:
 2687 0000 01       		.uleb128 0x1
 2688 0001 11       		.uleb128 0x11
 2689 0002 01       		.byte	0x1
 2690 0003 25       		.uleb128 0x25
 2691 0004 0E       		.uleb128 0xe
 2692 0005 13       		.uleb128 0x13
 2693 0006 0B       		.uleb128 0xb
 2694 0007 03       		.uleb128 0x3
 2695 0008 0E       		.uleb128 0xe
 2696 0009 1B       		.uleb128 0x1b
 2697 000a 0E       		.uleb128 0xe
 2698 000b 55       		.uleb128 0x55
 2699 000c 17       		.uleb128 0x17
 2700 000d 11       		.uleb128 0x11
 2701 000e 01       		.uleb128 0x1
 2702 000f 10       		.uleb128 0x10
 2703 0010 17       		.uleb128 0x17
 2704 0011 00       		.byte	0
 2705 0012 00       		.byte	0
 2706 0013 02       		.uleb128 0x2
 2707 0014 24       		.uleb128 0x24
 2708 0015 00       		.byte	0
 2709 0016 0B       		.uleb128 0xb
 2710 0017 0B       		.uleb128 0xb
 2711 0018 3E       		.uleb128 0x3e
 2712 0019 0B       		.uleb128 0xb
 2713 001a 03       		.uleb128 0x3
 2714 001b 08       		.uleb128 0x8
 2715 001c 00       		.byte	0
 2716 001d 00       		.byte	0
 2717 001e 03       		.uleb128 0x3
 2718 001f 16       		.uleb128 0x16
 2719 0020 00       		.byte	0
 2720 0021 03       		.uleb128 0x3
 2721 0022 0E       		.uleb128 0xe
 2722 0023 3A       		.uleb128 0x3a
 2723 0024 0B       		.uleb128 0xb
 2724 0025 3B       		.uleb128 0x3b
 2725 0026 0B       		.uleb128 0xb
 2726 0027 49       		.uleb128 0x49
 2727 0028 13       		.uleb128 0x13
 2728 0029 00       		.byte	0
 2729 002a 00       		.byte	0
 2730 002b 04       		.uleb128 0x4
 2731 002c 24       		.uleb128 0x24
 2732 002d 00       		.byte	0
ARM GAS  /tmp/ccl2msbI.s 			page 49


 2733 002e 0B       		.uleb128 0xb
 2734 002f 0B       		.uleb128 0xb
 2735 0030 3E       		.uleb128 0x3e
 2736 0031 0B       		.uleb128 0xb
 2737 0032 03       		.uleb128 0x3
 2738 0033 0E       		.uleb128 0xe
 2739 0034 00       		.byte	0
 2740 0035 00       		.byte	0
 2741 0036 05       		.uleb128 0x5
 2742 0037 13       		.uleb128 0x13
 2743 0038 01       		.byte	0x1
 2744 0039 03       		.uleb128 0x3
 2745 003a 0E       		.uleb128 0xe
 2746 003b 0B       		.uleb128 0xb
 2747 003c 0B       		.uleb128 0xb
 2748 003d 3A       		.uleb128 0x3a
 2749 003e 0B       		.uleb128 0xb
 2750 003f 3B       		.uleb128 0x3b
 2751 0040 0B       		.uleb128 0xb
 2752 0041 01       		.uleb128 0x1
 2753 0042 13       		.uleb128 0x13
 2754 0043 00       		.byte	0
 2755 0044 00       		.byte	0
 2756 0045 06       		.uleb128 0x6
 2757 0046 0D       		.uleb128 0xd
 2758 0047 00       		.byte	0
 2759 0048 03       		.uleb128 0x3
 2760 0049 0E       		.uleb128 0xe
 2761 004a 3A       		.uleb128 0x3a
 2762 004b 0B       		.uleb128 0xb
 2763 004c 3B       		.uleb128 0x3b
 2764 004d 0B       		.uleb128 0xb
 2765 004e 49       		.uleb128 0x49
 2766 004f 13       		.uleb128 0x13
 2767 0050 38       		.uleb128 0x38
 2768 0051 0B       		.uleb128 0xb
 2769 0052 00       		.byte	0
 2770 0053 00       		.byte	0
 2771 0054 07       		.uleb128 0x7
 2772 0055 0D       		.uleb128 0xd
 2773 0056 00       		.byte	0
 2774 0057 03       		.uleb128 0x3
 2775 0058 08       		.uleb128 0x8
 2776 0059 3A       		.uleb128 0x3a
 2777 005a 0B       		.uleb128 0xb
 2778 005b 3B       		.uleb128 0x3b
 2779 005c 0B       		.uleb128 0xb
 2780 005d 49       		.uleb128 0x49
 2781 005e 13       		.uleb128 0x13
 2782 005f 38       		.uleb128 0x38
 2783 0060 0B       		.uleb128 0xb
 2784 0061 00       		.byte	0
 2785 0062 00       		.byte	0
 2786 0063 08       		.uleb128 0x8
 2787 0064 13       		.uleb128 0x13
 2788 0065 01       		.byte	0x1
 2789 0066 0B       		.uleb128 0xb
ARM GAS  /tmp/ccl2msbI.s 			page 50


 2790 0067 0B       		.uleb128 0xb
 2791 0068 3A       		.uleb128 0x3a
 2792 0069 0B       		.uleb128 0xb
 2793 006a 3B       		.uleb128 0x3b
 2794 006b 0B       		.uleb128 0xb
 2795 006c 01       		.uleb128 0x1
 2796 006d 13       		.uleb128 0x13
 2797 006e 00       		.byte	0
 2798 006f 00       		.byte	0
 2799 0070 09       		.uleb128 0x9
 2800 0071 0F       		.uleb128 0xf
 2801 0072 00       		.byte	0
 2802 0073 0B       		.uleb128 0xb
 2803 0074 0B       		.uleb128 0xb
 2804 0075 49       		.uleb128 0x49
 2805 0076 13       		.uleb128 0x13
 2806 0077 00       		.byte	0
 2807 0078 00       		.byte	0
 2808 0079 0A       		.uleb128 0xa
 2809 007a 0F       		.uleb128 0xf
 2810 007b 00       		.byte	0
 2811 007c 0B       		.uleb128 0xb
 2812 007d 0B       		.uleb128 0xb
 2813 007e 00       		.byte	0
 2814 007f 00       		.byte	0
 2815 0080 0B       		.uleb128 0xb
 2816 0081 13       		.uleb128 0x13
 2817 0082 01       		.byte	0x1
 2818 0083 03       		.uleb128 0x3
 2819 0084 0E       		.uleb128 0xe
 2820 0085 0B       		.uleb128 0xb
 2821 0086 0B       		.uleb128 0xb
 2822 0087 3A       		.uleb128 0x3a
 2823 0088 0B       		.uleb128 0xb
 2824 0089 3B       		.uleb128 0x3b
 2825 008a 05       		.uleb128 0x5
 2826 008b 01       		.uleb128 0x1
 2827 008c 13       		.uleb128 0x13
 2828 008d 00       		.byte	0
 2829 008e 00       		.byte	0
 2830 008f 0C       		.uleb128 0xc
 2831 0090 0D       		.uleb128 0xd
 2832 0091 00       		.byte	0
 2833 0092 03       		.uleb128 0x3
 2834 0093 08       		.uleb128 0x8
 2835 0094 3A       		.uleb128 0x3a
 2836 0095 0B       		.uleb128 0xb
 2837 0096 3B       		.uleb128 0x3b
 2838 0097 05       		.uleb128 0x5
 2839 0098 49       		.uleb128 0x49
 2840 0099 13       		.uleb128 0x13
 2841 009a 38       		.uleb128 0x38
 2842 009b 0B       		.uleb128 0xb
 2843 009c 00       		.byte	0
 2844 009d 00       		.byte	0
 2845 009e 0D       		.uleb128 0xd
 2846 009f 35       		.uleb128 0x35
ARM GAS  /tmp/ccl2msbI.s 			page 51


 2847 00a0 00       		.byte	0
 2848 00a1 49       		.uleb128 0x49
 2849 00a2 13       		.uleb128 0x13
 2850 00a3 00       		.byte	0
 2851 00a4 00       		.byte	0
 2852 00a5 0E       		.uleb128 0xe
 2853 00a6 17       		.uleb128 0x17
 2854 00a7 01       		.byte	0x1
 2855 00a8 0B       		.uleb128 0xb
 2856 00a9 0B       		.uleb128 0xb
 2857 00aa 3A       		.uleb128 0x3a
 2858 00ab 0B       		.uleb128 0xb
 2859 00ac 3B       		.uleb128 0x3b
 2860 00ad 0B       		.uleb128 0xb
 2861 00ae 01       		.uleb128 0x1
 2862 00af 13       		.uleb128 0x13
 2863 00b0 00       		.byte	0
 2864 00b1 00       		.byte	0
 2865 00b2 0F       		.uleb128 0xf
 2866 00b3 0D       		.uleb128 0xd
 2867 00b4 00       		.byte	0
 2868 00b5 03       		.uleb128 0x3
 2869 00b6 0E       		.uleb128 0xe
 2870 00b7 3A       		.uleb128 0x3a
 2871 00b8 0B       		.uleb128 0xb
 2872 00b9 3B       		.uleb128 0x3b
 2873 00ba 0B       		.uleb128 0xb
 2874 00bb 49       		.uleb128 0x49
 2875 00bc 13       		.uleb128 0x13
 2876 00bd 00       		.byte	0
 2877 00be 00       		.byte	0
 2878 00bf 10       		.uleb128 0x10
 2879 00c0 26       		.uleb128 0x26
 2880 00c1 00       		.byte	0
 2881 00c2 49       		.uleb128 0x49
 2882 00c3 13       		.uleb128 0x13
 2883 00c4 00       		.byte	0
 2884 00c5 00       		.byte	0
 2885 00c6 11       		.uleb128 0x11
 2886 00c7 04       		.uleb128 0x4
 2887 00c8 01       		.byte	0x1
 2888 00c9 03       		.uleb128 0x3
 2889 00ca 0E       		.uleb128 0xe
 2890 00cb 0B       		.uleb128 0xb
 2891 00cc 0B       		.uleb128 0xb
 2892 00cd 3A       		.uleb128 0x3a
 2893 00ce 0B       		.uleb128 0xb
 2894 00cf 3B       		.uleb128 0x3b
 2895 00d0 0B       		.uleb128 0xb
 2896 00d1 01       		.uleb128 0x1
 2897 00d2 13       		.uleb128 0x13
 2898 00d3 00       		.byte	0
 2899 00d4 00       		.byte	0
 2900 00d5 12       		.uleb128 0x12
 2901 00d6 28       		.uleb128 0x28
 2902 00d7 00       		.byte	0
 2903 00d8 03       		.uleb128 0x3
ARM GAS  /tmp/ccl2msbI.s 			page 52


 2904 00d9 0E       		.uleb128 0xe
 2905 00da 1C       		.uleb128 0x1c
 2906 00db 0D       		.uleb128 0xd
 2907 00dc 00       		.byte	0
 2908 00dd 00       		.byte	0
 2909 00de 13       		.uleb128 0x13
 2910 00df 13       		.uleb128 0x13
 2911 00e0 01       		.byte	0x1
 2912 00e1 0B       		.uleb128 0xb
 2913 00e2 0B       		.uleb128 0xb
 2914 00e3 3A       		.uleb128 0x3a
 2915 00e4 0B       		.uleb128 0xb
 2916 00e5 3B       		.uleb128 0x3b
 2917 00e6 05       		.uleb128 0x5
 2918 00e7 01       		.uleb128 0x1
 2919 00e8 13       		.uleb128 0x13
 2920 00e9 00       		.byte	0
 2921 00ea 00       		.byte	0
 2922 00eb 14       		.uleb128 0x14
 2923 00ec 0D       		.uleb128 0xd
 2924 00ed 00       		.byte	0
 2925 00ee 03       		.uleb128 0x3
 2926 00ef 0E       		.uleb128 0xe
 2927 00f0 3A       		.uleb128 0x3a
 2928 00f1 0B       		.uleb128 0xb
 2929 00f2 3B       		.uleb128 0x3b
 2930 00f3 05       		.uleb128 0x5
 2931 00f4 49       		.uleb128 0x49
 2932 00f5 13       		.uleb128 0x13
 2933 00f6 38       		.uleb128 0x38
 2934 00f7 0B       		.uleb128 0xb
 2935 00f8 00       		.byte	0
 2936 00f9 00       		.byte	0
 2937 00fa 15       		.uleb128 0x15
 2938 00fb 16       		.uleb128 0x16
 2939 00fc 00       		.byte	0
 2940 00fd 03       		.uleb128 0x3
 2941 00fe 0E       		.uleb128 0xe
 2942 00ff 3A       		.uleb128 0x3a
 2943 0100 0B       		.uleb128 0xb
 2944 0101 3B       		.uleb128 0x3b
 2945 0102 05       		.uleb128 0x5
 2946 0103 49       		.uleb128 0x49
 2947 0104 13       		.uleb128 0x13
 2948 0105 00       		.byte	0
 2949 0106 00       		.byte	0
 2950 0107 16       		.uleb128 0x16
 2951 0108 15       		.uleb128 0x15
 2952 0109 01       		.byte	0x1
 2953 010a 27       		.uleb128 0x27
 2954 010b 19       		.uleb128 0x19
 2955 010c 01       		.uleb128 0x1
 2956 010d 13       		.uleb128 0x13
 2957 010e 00       		.byte	0
 2958 010f 00       		.byte	0
 2959 0110 17       		.uleb128 0x17
 2960 0111 05       		.uleb128 0x5
ARM GAS  /tmp/ccl2msbI.s 			page 53


 2961 0112 00       		.byte	0
 2962 0113 49       		.uleb128 0x49
 2963 0114 13       		.uleb128 0x13
 2964 0115 00       		.byte	0
 2965 0116 00       		.byte	0
 2966 0117 18       		.uleb128 0x18
 2967 0118 04       		.uleb128 0x4
 2968 0119 01       		.byte	0x1
 2969 011a 0B       		.uleb128 0xb
 2970 011b 0B       		.uleb128 0xb
 2971 011c 3A       		.uleb128 0x3a
 2972 011d 0B       		.uleb128 0xb
 2973 011e 3B       		.uleb128 0x3b
 2974 011f 0B       		.uleb128 0xb
 2975 0120 01       		.uleb128 0x1
 2976 0121 13       		.uleb128 0x13
 2977 0122 00       		.byte	0
 2978 0123 00       		.byte	0
 2979 0124 19       		.uleb128 0x19
 2980 0125 2E       		.uleb128 0x2e
 2981 0126 01       		.byte	0x1
 2982 0127 3F       		.uleb128 0x3f
 2983 0128 19       		.uleb128 0x19
 2984 0129 03       		.uleb128 0x3
 2985 012a 0E       		.uleb128 0xe
 2986 012b 3A       		.uleb128 0x3a
 2987 012c 0B       		.uleb128 0xb
 2988 012d 3B       		.uleb128 0x3b
 2989 012e 0B       		.uleb128 0xb
 2990 012f 27       		.uleb128 0x27
 2991 0130 19       		.uleb128 0x19
 2992 0131 20       		.uleb128 0x20
 2993 0132 0B       		.uleb128 0xb
 2994 0133 01       		.uleb128 0x1
 2995 0134 13       		.uleb128 0x13
 2996 0135 00       		.byte	0
 2997 0136 00       		.byte	0
 2998 0137 1A       		.uleb128 0x1a
 2999 0138 05       		.uleb128 0x5
 3000 0139 00       		.byte	0
 3001 013a 03       		.uleb128 0x3
 3002 013b 0E       		.uleb128 0xe
 3003 013c 3A       		.uleb128 0x3a
 3004 013d 0B       		.uleb128 0xb
 3005 013e 3B       		.uleb128 0x3b
 3006 013f 0B       		.uleb128 0xb
 3007 0140 49       		.uleb128 0x49
 3008 0141 13       		.uleb128 0x13
 3009 0142 00       		.byte	0
 3010 0143 00       		.byte	0
 3011 0144 1B       		.uleb128 0x1b
 3012 0145 2E       		.uleb128 0x2e
 3013 0146 01       		.byte	0x1
 3014 0147 03       		.uleb128 0x3
 3015 0148 0E       		.uleb128 0xe
 3016 0149 3A       		.uleb128 0x3a
 3017 014a 0B       		.uleb128 0xb
ARM GAS  /tmp/ccl2msbI.s 			page 54


 3018 014b 3B       		.uleb128 0x3b
 3019 014c 0B       		.uleb128 0xb
 3020 014d 27       		.uleb128 0x27
 3021 014e 19       		.uleb128 0x19
 3022 014f 11       		.uleb128 0x11
 3023 0150 01       		.uleb128 0x1
 3024 0151 12       		.uleb128 0x12
 3025 0152 06       		.uleb128 0x6
 3026 0153 40       		.uleb128 0x40
 3027 0154 18       		.uleb128 0x18
 3028 0155 9742     		.uleb128 0x2117
 3029 0157 19       		.uleb128 0x19
 3030 0158 01       		.uleb128 0x1
 3031 0159 13       		.uleb128 0x13
 3032 015a 00       		.byte	0
 3033 015b 00       		.byte	0
 3034 015c 1C       		.uleb128 0x1c
 3035 015d 05       		.uleb128 0x5
 3036 015e 00       		.byte	0
 3037 015f 03       		.uleb128 0x3
 3038 0160 0E       		.uleb128 0xe
 3039 0161 3A       		.uleb128 0x3a
 3040 0162 0B       		.uleb128 0xb
 3041 0163 3B       		.uleb128 0x3b
 3042 0164 0B       		.uleb128 0xb
 3043 0165 49       		.uleb128 0x49
 3044 0166 13       		.uleb128 0x13
 3045 0167 02       		.uleb128 0x2
 3046 0168 17       		.uleb128 0x17
 3047 0169 00       		.byte	0
 3048 016a 00       		.byte	0
 3049 016b 1D       		.uleb128 0x1d
 3050 016c 1D       		.uleb128 0x1d
 3051 016d 01       		.byte	0x1
 3052 016e 31       		.uleb128 0x31
 3053 016f 13       		.uleb128 0x13
 3054 0170 52       		.uleb128 0x52
 3055 0171 01       		.uleb128 0x1
 3056 0172 55       		.uleb128 0x55
 3057 0173 17       		.uleb128 0x17
 3058 0174 58       		.uleb128 0x58
 3059 0175 0B       		.uleb128 0xb
 3060 0176 59       		.uleb128 0x59
 3061 0177 0B       		.uleb128 0xb
 3062 0178 01       		.uleb128 0x1
 3063 0179 13       		.uleb128 0x13
 3064 017a 00       		.byte	0
 3065 017b 00       		.byte	0
 3066 017c 1E       		.uleb128 0x1e
 3067 017d 05       		.uleb128 0x5
 3068 017e 00       		.byte	0
 3069 017f 31       		.uleb128 0x31
 3070 0180 13       		.uleb128 0x13
 3071 0181 02       		.uleb128 0x2
 3072 0182 17       		.uleb128 0x17
 3073 0183 00       		.byte	0
 3074 0184 00       		.byte	0
ARM GAS  /tmp/ccl2msbI.s 			page 55


 3075 0185 1F       		.uleb128 0x1f
 3076 0186 0B       		.uleb128 0xb
 3077 0187 01       		.byte	0x1
 3078 0188 11       		.uleb128 0x11
 3079 0189 01       		.uleb128 0x1
 3080 018a 12       		.uleb128 0x12
 3081 018b 06       		.uleb128 0x6
 3082 018c 01       		.uleb128 0x1
 3083 018d 13       		.uleb128 0x13
 3084 018e 00       		.byte	0
 3085 018f 00       		.byte	0
 3086 0190 20       		.uleb128 0x20
 3087 0191 34       		.uleb128 0x34
 3088 0192 00       		.byte	0
 3089 0193 03       		.uleb128 0x3
 3090 0194 08       		.uleb128 0x8
 3091 0195 3A       		.uleb128 0x3a
 3092 0196 0B       		.uleb128 0xb
 3093 0197 3B       		.uleb128 0x3b
 3094 0198 0B       		.uleb128 0xb
 3095 0199 49       		.uleb128 0x49
 3096 019a 13       		.uleb128 0x13
 3097 019b 02       		.uleb128 0x2
 3098 019c 18       		.uleb128 0x18
 3099 019d 00       		.byte	0
 3100 019e 00       		.byte	0
 3101 019f 21       		.uleb128 0x21
 3102 01a0 34       		.uleb128 0x34
 3103 01a1 00       		.byte	0
 3104 01a2 03       		.uleb128 0x3
 3105 01a3 08       		.uleb128 0x8
 3106 01a4 3A       		.uleb128 0x3a
 3107 01a5 0B       		.uleb128 0xb
 3108 01a6 3B       		.uleb128 0x3b
 3109 01a7 0B       		.uleb128 0xb
 3110 01a8 49       		.uleb128 0x49
 3111 01a9 13       		.uleb128 0x13
 3112 01aa 02       		.uleb128 0x2
 3113 01ab 17       		.uleb128 0x17
 3114 01ac 00       		.byte	0
 3115 01ad 00       		.byte	0
 3116 01ae 22       		.uleb128 0x22
 3117 01af 898201   		.uleb128 0x4109
 3118 01b2 00       		.byte	0
 3119 01b3 11       		.uleb128 0x11
 3120 01b4 01       		.uleb128 0x1
 3121 01b5 31       		.uleb128 0x31
 3122 01b6 13       		.uleb128 0x13
 3123 01b7 00       		.byte	0
 3124 01b8 00       		.byte	0
 3125 01b9 23       		.uleb128 0x23
 3126 01ba 0B       		.uleb128 0xb
 3127 01bb 01       		.byte	0x1
 3128 01bc 55       		.uleb128 0x55
 3129 01bd 17       		.uleb128 0x17
 3130 01be 01       		.uleb128 0x1
 3131 01bf 13       		.uleb128 0x13
ARM GAS  /tmp/ccl2msbI.s 			page 56


 3132 01c0 00       		.byte	0
 3133 01c1 00       		.byte	0
 3134 01c2 24       		.uleb128 0x24
 3135 01c3 34       		.uleb128 0x34
 3136 01c4 00       		.byte	0
 3137 01c5 03       		.uleb128 0x3
 3138 01c6 0E       		.uleb128 0xe
 3139 01c7 3A       		.uleb128 0x3a
 3140 01c8 0B       		.uleb128 0xb
 3141 01c9 3B       		.uleb128 0x3b
 3142 01ca 0B       		.uleb128 0xb
 3143 01cb 49       		.uleb128 0x49
 3144 01cc 13       		.uleb128 0x13
 3145 01cd 02       		.uleb128 0x2
 3146 01ce 17       		.uleb128 0x17
 3147 01cf 00       		.byte	0
 3148 01d0 00       		.byte	0
 3149 01d1 25       		.uleb128 0x25
 3150 01d2 898201   		.uleb128 0x4109
 3151 01d5 01       		.byte	0x1
 3152 01d6 11       		.uleb128 0x11
 3153 01d7 01       		.uleb128 0x1
 3154 01d8 01       		.uleb128 0x1
 3155 01d9 13       		.uleb128 0x13
 3156 01da 00       		.byte	0
 3157 01db 00       		.byte	0
 3158 01dc 26       		.uleb128 0x26
 3159 01dd 8A8201   		.uleb128 0x410a
 3160 01e0 00       		.byte	0
 3161 01e1 02       		.uleb128 0x2
 3162 01e2 18       		.uleb128 0x18
 3163 01e3 9142     		.uleb128 0x2111
 3164 01e5 18       		.uleb128 0x18
 3165 01e6 00       		.byte	0
 3166 01e7 00       		.byte	0
 3167 01e8 27       		.uleb128 0x27
 3168 01e9 898201   		.uleb128 0x4109
 3169 01ec 01       		.byte	0x1
 3170 01ed 11       		.uleb128 0x11
 3171 01ee 01       		.uleb128 0x1
 3172 01ef 9342     		.uleb128 0x2113
 3173 01f1 18       		.uleb128 0x18
 3174 01f2 01       		.uleb128 0x1
 3175 01f3 13       		.uleb128 0x13
 3176 01f4 00       		.byte	0
 3177 01f5 00       		.byte	0
 3178 01f6 28       		.uleb128 0x28
 3179 01f7 898201   		.uleb128 0x4109
 3180 01fa 01       		.byte	0x1
 3181 01fb 11       		.uleb128 0x11
 3182 01fc 01       		.uleb128 0x1
 3183 01fd 9342     		.uleb128 0x2113
 3184 01ff 18       		.uleb128 0x18
 3185 0200 00       		.byte	0
 3186 0201 00       		.byte	0
 3187 0202 29       		.uleb128 0x29
 3188 0203 2E       		.uleb128 0x2e
ARM GAS  /tmp/ccl2msbI.s 			page 57


 3189 0204 01       		.byte	0x1
 3190 0205 3F       		.uleb128 0x3f
 3191 0206 19       		.uleb128 0x19
 3192 0207 03       		.uleb128 0x3
 3193 0208 0E       		.uleb128 0xe
 3194 0209 3A       		.uleb128 0x3a
 3195 020a 0B       		.uleb128 0xb
 3196 020b 3B       		.uleb128 0x3b
 3197 020c 0B       		.uleb128 0xb
 3198 020d 27       		.uleb128 0x27
 3199 020e 19       		.uleb128 0x19
 3200 020f 11       		.uleb128 0x11
 3201 0210 01       		.uleb128 0x1
 3202 0211 12       		.uleb128 0x12
 3203 0212 06       		.uleb128 0x6
 3204 0213 40       		.uleb128 0x40
 3205 0214 18       		.uleb128 0x18
 3206 0215 9742     		.uleb128 0x2117
 3207 0217 19       		.uleb128 0x19
 3208 0218 01       		.uleb128 0x1
 3209 0219 13       		.uleb128 0x13
 3210 021a 00       		.byte	0
 3211 021b 00       		.byte	0
 3212 021c 2A       		.uleb128 0x2a
 3213 021d 898201   		.uleb128 0x4109
 3214 0220 00       		.byte	0
 3215 0221 11       		.uleb128 0x11
 3216 0222 01       		.uleb128 0x1
 3217 0223 9542     		.uleb128 0x2115
 3218 0225 19       		.uleb128 0x19
 3219 0226 31       		.uleb128 0x31
 3220 0227 13       		.uleb128 0x13
 3221 0228 00       		.byte	0
 3222 0229 00       		.byte	0
 3223 022a 2B       		.uleb128 0x2b
 3224 022b 898201   		.uleb128 0x4109
 3225 022e 01       		.byte	0x1
 3226 022f 11       		.uleb128 0x11
 3227 0230 01       		.uleb128 0x1
 3228 0231 31       		.uleb128 0x31
 3229 0232 13       		.uleb128 0x13
 3230 0233 01       		.uleb128 0x1
 3231 0234 13       		.uleb128 0x13
 3232 0235 00       		.byte	0
 3233 0236 00       		.byte	0
 3234 0237 2C       		.uleb128 0x2c
 3235 0238 898201   		.uleb128 0x4109
 3236 023b 01       		.byte	0x1
 3237 023c 11       		.uleb128 0x11
 3238 023d 01       		.uleb128 0x1
 3239 023e 9542     		.uleb128 0x2115
 3240 0240 19       		.uleb128 0x19
 3241 0241 31       		.uleb128 0x31
 3242 0242 13       		.uleb128 0x13
 3243 0243 00       		.byte	0
 3244 0244 00       		.byte	0
 3245 0245 2D       		.uleb128 0x2d
ARM GAS  /tmp/ccl2msbI.s 			page 58


 3246 0246 0B       		.uleb128 0xb
 3247 0247 01       		.byte	0x1
 3248 0248 11       		.uleb128 0x11
 3249 0249 01       		.uleb128 0x1
 3250 024a 12       		.uleb128 0x12
 3251 024b 06       		.uleb128 0x6
 3252 024c 00       		.byte	0
 3253 024d 00       		.byte	0
 3254 024e 2E       		.uleb128 0x2e
 3255 024f 34       		.uleb128 0x34
 3256 0250 00       		.byte	0
 3257 0251 03       		.uleb128 0x3
 3258 0252 08       		.uleb128 0x8
 3259 0253 3A       		.uleb128 0x3a
 3260 0254 0B       		.uleb128 0xb
 3261 0255 3B       		.uleb128 0x3b
 3262 0256 0B       		.uleb128 0xb
 3263 0257 49       		.uleb128 0x49
 3264 0258 13       		.uleb128 0x13
 3265 0259 00       		.byte	0
 3266 025a 00       		.byte	0
 3267 025b 2F       		.uleb128 0x2f
 3268 025c 898201   		.uleb128 0x4109
 3269 025f 01       		.byte	0x1
 3270 0260 11       		.uleb128 0x11
 3271 0261 01       		.uleb128 0x1
 3272 0262 31       		.uleb128 0x31
 3273 0263 13       		.uleb128 0x13
 3274 0264 00       		.byte	0
 3275 0265 00       		.byte	0
 3276 0266 30       		.uleb128 0x30
 3277 0267 2E       		.uleb128 0x2e
 3278 0268 01       		.byte	0x1
 3279 0269 31       		.uleb128 0x31
 3280 026a 13       		.uleb128 0x13
 3281 026b 11       		.uleb128 0x11
 3282 026c 01       		.uleb128 0x1
 3283 026d 12       		.uleb128 0x12
 3284 026e 06       		.uleb128 0x6
 3285 026f 40       		.uleb128 0x40
 3286 0270 18       		.uleb128 0x18
 3287 0271 9742     		.uleb128 0x2117
 3288 0273 19       		.uleb128 0x19
 3289 0274 01       		.uleb128 0x1
 3290 0275 13       		.uleb128 0x13
 3291 0276 00       		.byte	0
 3292 0277 00       		.byte	0
 3293 0278 31       		.uleb128 0x31
 3294 0279 2E       		.uleb128 0x2e
 3295 027a 00       		.byte	0
 3296 027b 3F       		.uleb128 0x3f
 3297 027c 19       		.uleb128 0x19
 3298 027d 03       		.uleb128 0x3
 3299 027e 0E       		.uleb128 0xe
 3300 027f 3A       		.uleb128 0x3a
 3301 0280 0B       		.uleb128 0xb
 3302 0281 3B       		.uleb128 0x3b
ARM GAS  /tmp/ccl2msbI.s 			page 59


 3303 0282 05       		.uleb128 0x5
 3304 0283 27       		.uleb128 0x27
 3305 0284 19       		.uleb128 0x19
 3306 0285 11       		.uleb128 0x11
 3307 0286 01       		.uleb128 0x1
 3308 0287 12       		.uleb128 0x12
 3309 0288 06       		.uleb128 0x6
 3310 0289 40       		.uleb128 0x40
 3311 028a 18       		.uleb128 0x18
 3312 028b 9742     		.uleb128 0x2117
 3313 028d 19       		.uleb128 0x19
 3314 028e 00       		.byte	0
 3315 028f 00       		.byte	0
 3316 0290 32       		.uleb128 0x32
 3317 0291 34       		.uleb128 0x34
 3318 0292 00       		.byte	0
 3319 0293 03       		.uleb128 0x3
 3320 0294 0E       		.uleb128 0xe
 3321 0295 3A       		.uleb128 0x3a
 3322 0296 0B       		.uleb128 0xb
 3323 0297 3B       		.uleb128 0x3b
 3324 0298 05       		.uleb128 0x5
 3325 0299 49       		.uleb128 0x49
 3326 029a 13       		.uleb128 0x13
 3327 029b 3F       		.uleb128 0x3f
 3328 029c 19       		.uleb128 0x19
 3329 029d 3C       		.uleb128 0x3c
 3330 029e 19       		.uleb128 0x19
 3331 029f 00       		.byte	0
 3332 02a0 00       		.byte	0
 3333 02a1 33       		.uleb128 0x33
 3334 02a2 01       		.uleb128 0x1
 3335 02a3 01       		.byte	0x1
 3336 02a4 49       		.uleb128 0x49
 3337 02a5 13       		.uleb128 0x13
 3338 02a6 01       		.uleb128 0x1
 3339 02a7 13       		.uleb128 0x13
 3340 02a8 00       		.byte	0
 3341 02a9 00       		.byte	0
 3342 02aa 34       		.uleb128 0x34
 3343 02ab 21       		.uleb128 0x21
 3344 02ac 00       		.byte	0
 3345 02ad 49       		.uleb128 0x49
 3346 02ae 13       		.uleb128 0x13
 3347 02af 2F       		.uleb128 0x2f
 3348 02b0 0B       		.uleb128 0xb
 3349 02b1 00       		.byte	0
 3350 02b2 00       		.byte	0
 3351 02b3 35       		.uleb128 0x35
 3352 02b4 34       		.uleb128 0x34
 3353 02b5 00       		.byte	0
 3354 02b6 03       		.uleb128 0x3
 3355 02b7 0E       		.uleb128 0xe
 3356 02b8 3A       		.uleb128 0x3a
 3357 02b9 0B       		.uleb128 0xb
 3358 02ba 3B       		.uleb128 0x3b
 3359 02bb 0B       		.uleb128 0xb
ARM GAS  /tmp/ccl2msbI.s 			page 60


 3360 02bc 49       		.uleb128 0x49
 3361 02bd 13       		.uleb128 0x13
 3362 02be 3F       		.uleb128 0x3f
 3363 02bf 19       		.uleb128 0x19
 3364 02c0 02       		.uleb128 0x2
 3365 02c1 18       		.uleb128 0x18
 3366 02c2 00       		.byte	0
 3367 02c3 00       		.byte	0
 3368 02c4 36       		.uleb128 0x36
 3369 02c5 2E       		.uleb128 0x2e
 3370 02c6 01       		.byte	0x1
 3371 02c7 3F       		.uleb128 0x3f
 3372 02c8 19       		.uleb128 0x19
 3373 02c9 03       		.uleb128 0x3
 3374 02ca 0E       		.uleb128 0xe
 3375 02cb 3A       		.uleb128 0x3a
 3376 02cc 0B       		.uleb128 0xb
 3377 02cd 3B       		.uleb128 0x3b
 3378 02ce 0B       		.uleb128 0xb
 3379 02cf 27       		.uleb128 0x27
 3380 02d0 19       		.uleb128 0x19
 3381 02d1 49       		.uleb128 0x49
 3382 02d2 13       		.uleb128 0x13
 3383 02d3 3C       		.uleb128 0x3c
 3384 02d4 19       		.uleb128 0x19
 3385 02d5 01       		.uleb128 0x1
 3386 02d6 13       		.uleb128 0x13
 3387 02d7 00       		.byte	0
 3388 02d8 00       		.byte	0
 3389 02d9 37       		.uleb128 0x37
 3390 02da 2E       		.uleb128 0x2e
 3391 02db 00       		.byte	0
 3392 02dc 3F       		.uleb128 0x3f
 3393 02dd 19       		.uleb128 0x19
 3394 02de 03       		.uleb128 0x3
 3395 02df 0E       		.uleb128 0xe
 3396 02e0 3A       		.uleb128 0x3a
 3397 02e1 0B       		.uleb128 0xb
 3398 02e2 3B       		.uleb128 0x3b
 3399 02e3 05       		.uleb128 0x5
 3400 02e4 27       		.uleb128 0x27
 3401 02e5 19       		.uleb128 0x19
 3402 02e6 3C       		.uleb128 0x3c
 3403 02e7 19       		.uleb128 0x19
 3404 02e8 00       		.byte	0
 3405 02e9 00       		.byte	0
 3406 02ea 38       		.uleb128 0x38
 3407 02eb 2E       		.uleb128 0x2e
 3408 02ec 01       		.byte	0x1
 3409 02ed 3F       		.uleb128 0x3f
 3410 02ee 19       		.uleb128 0x19
 3411 02ef 03       		.uleb128 0x3
 3412 02f0 0E       		.uleb128 0xe
 3413 02f1 3A       		.uleb128 0x3a
 3414 02f2 0B       		.uleb128 0xb
 3415 02f3 3B       		.uleb128 0x3b
 3416 02f4 05       		.uleb128 0x5
ARM GAS  /tmp/ccl2msbI.s 			page 61


 3417 02f5 27       		.uleb128 0x27
 3418 02f6 19       		.uleb128 0x19
 3419 02f7 3C       		.uleb128 0x3c
 3420 02f8 19       		.uleb128 0x19
 3421 02f9 01       		.uleb128 0x1
 3422 02fa 13       		.uleb128 0x13
 3423 02fb 00       		.byte	0
 3424 02fc 00       		.byte	0
 3425 02fd 39       		.uleb128 0x39
 3426 02fe 2E       		.uleb128 0x2e
 3427 02ff 01       		.byte	0x1
 3428 0300 3F       		.uleb128 0x3f
 3429 0301 19       		.uleb128 0x19
 3430 0302 03       		.uleb128 0x3
 3431 0303 0E       		.uleb128 0xe
 3432 0304 3A       		.uleb128 0x3a
 3433 0305 0B       		.uleb128 0xb
 3434 0306 3B       		.uleb128 0x3b
 3435 0307 05       		.uleb128 0x5
 3436 0308 27       		.uleb128 0x27
 3437 0309 19       		.uleb128 0x19
 3438 030a 49       		.uleb128 0x49
 3439 030b 13       		.uleb128 0x13
 3440 030c 3C       		.uleb128 0x3c
 3441 030d 19       		.uleb128 0x19
 3442 030e 01       		.uleb128 0x1
 3443 030f 13       		.uleb128 0x13
 3444 0310 00       		.byte	0
 3445 0311 00       		.byte	0
 3446 0312 3A       		.uleb128 0x3a
 3447 0313 2E       		.uleb128 0x2e
 3448 0314 01       		.byte	0x1
 3449 0315 3F       		.uleb128 0x3f
 3450 0316 19       		.uleb128 0x19
 3451 0317 03       		.uleb128 0x3
 3452 0318 0E       		.uleb128 0xe
 3453 0319 3A       		.uleb128 0x3a
 3454 031a 0B       		.uleb128 0xb
 3455 031b 3B       		.uleb128 0x3b
 3456 031c 05       		.uleb128 0x5
 3457 031d 27       		.uleb128 0x27
 3458 031e 19       		.uleb128 0x19
 3459 031f 3C       		.uleb128 0x3c
 3460 0320 19       		.uleb128 0x19
 3461 0321 00       		.byte	0
 3462 0322 00       		.byte	0
 3463 0323 00       		.byte	0
 3464              		.section	.debug_loc,"",%progbits
 3465              	.Ldebug_loc0:
 3466              	.LLST0:
 3467 0000 00000000 		.4byte	.LVL0
 3468 0004 35000000 		.4byte	.LVL3-1
 3469 0008 0100     		.2byte	0x1
 3470 000a 50       		.byte	0x50
 3471 000b 35000000 		.4byte	.LVL3-1
 3472 000f 66000000 		.4byte	.LVL6
 3473 0013 0100     		.2byte	0x1
ARM GAS  /tmp/ccl2msbI.s 			page 62


 3474 0015 54       		.byte	0x54
 3475 0016 66000000 		.4byte	.LVL6
 3476 001a A9000000 		.4byte	.LVL9-1
 3477 001e 0100     		.2byte	0x1
 3478 0020 50       		.byte	0x50
 3479 0021 A9000000 		.4byte	.LVL9-1
 3480 0025 D0000000 		.4byte	.LVL12
 3481 0029 0100     		.2byte	0x1
 3482 002b 54       		.byte	0x54
 3483 002c D0000000 		.4byte	.LVL12
 3484 0030 DF000000 		.4byte	.LVL14-1
 3485 0034 0100     		.2byte	0x1
 3486 0036 50       		.byte	0x50
 3487 0037 DF000000 		.4byte	.LVL14-1
 3488 003b E2000000 		.4byte	.LVL15
 3489 003f 0100     		.2byte	0x1
 3490 0041 54       		.byte	0x54
 3491 0042 E2000000 		.4byte	.LVL15
 3492 0046 FF000000 		.4byte	.LVL19-1
 3493 004a 0100     		.2byte	0x1
 3494 004c 50       		.byte	0x50
 3495 004d FF000000 		.4byte	.LVL19-1
 3496 0051 02010000 		.4byte	.LVL20
 3497 0055 0100     		.2byte	0x1
 3498 0057 54       		.byte	0x54
 3499 0058 02010000 		.4byte	.LVL20
 3500 005c 0A010000 		.4byte	.LFE63
 3501 0060 0100     		.2byte	0x1
 3502 0062 50       		.byte	0x50
 3503 0063 00000000 		.4byte	0
 3504 0067 00000000 		.4byte	0
 3505              	.LLST1:
 3506 006b 00000000 		.4byte	.LVL0
 3507 006f 0C000000 		.4byte	.LVL2
 3508 0073 0100     		.2byte	0x1
 3509 0075 51       		.byte	0x51
 3510 0076 0C000000 		.4byte	.LVL2
 3511 007a 66000000 		.4byte	.LVL6
 3512 007e 0400     		.2byte	0x4
 3513 0080 F3       		.byte	0xf3
 3514 0081 01       		.uleb128 0x1
 3515 0082 51       		.byte	0x51
 3516 0083 9F       		.byte	0x9f
 3517 0084 66000000 		.4byte	.LVL6
 3518 0088 7C000000 		.4byte	.LVL8
 3519 008c 0100     		.2byte	0x1
 3520 008e 51       		.byte	0x51
 3521 008f 7C000000 		.4byte	.LVL8
 3522 0093 D0000000 		.4byte	.LVL12
 3523 0097 0400     		.2byte	0x4
 3524 0099 F3       		.byte	0xf3
 3525 009a 01       		.uleb128 0x1
 3526 009b 51       		.byte	0x51
 3527 009c 9F       		.byte	0x9f
 3528 009d D0000000 		.4byte	.LVL12
 3529 00a1 DC000000 		.4byte	.LVL13
 3530 00a5 0100     		.2byte	0x1
ARM GAS  /tmp/ccl2msbI.s 			page 63


 3531 00a7 51       		.byte	0x51
 3532 00a8 DC000000 		.4byte	.LVL13
 3533 00ac E2000000 		.4byte	.LVL15
 3534 00b0 0400     		.2byte	0x4
 3535 00b2 F3       		.byte	0xf3
 3536 00b3 01       		.uleb128 0x1
 3537 00b4 51       		.byte	0x51
 3538 00b5 9F       		.byte	0x9f
 3539 00b6 E2000000 		.4byte	.LVL15
 3540 00ba F0000000 		.4byte	.LVL16
 3541 00be 0100     		.2byte	0x1
 3542 00c0 51       		.byte	0x51
 3543 00c1 F0000000 		.4byte	.LVL16
 3544 00c5 0A010000 		.4byte	.LFE63
 3545 00c9 0400     		.2byte	0x4
 3546 00cb F3       		.byte	0xf3
 3547 00cc 01       		.uleb128 0x1
 3548 00cd 51       		.byte	0x51
 3549 00ce 9F       		.byte	0x9f
 3550 00cf 00000000 		.4byte	0
 3551 00d3 00000000 		.4byte	0
 3552              	.LLST2:
 3553 00d7 08000000 		.4byte	.LVL1
 3554 00db 35000000 		.4byte	.LVL3-1
 3555 00df 0100     		.2byte	0x1
 3556 00e1 50       		.byte	0x50
 3557 00e2 35000000 		.4byte	.LVL3-1
 3558 00e6 5E000000 		.4byte	.LVL5
 3559 00ea 0100     		.2byte	0x1
 3560 00ec 54       		.byte	0x54
 3561 00ed 00000000 		.4byte	0
 3562 00f1 00000000 		.4byte	0
 3563              	.LLST3:
 3564 00f5 4E000000 		.4byte	.LVL4
 3565 00f9 5D000000 		.4byte	.LVL5-1
 3566 00fd 0100     		.2byte	0x1
 3567 00ff 53       		.byte	0x53
 3568 0100 00000000 		.4byte	0
 3569 0104 00000000 		.4byte	0
 3570              	.LLST4:
 3571 0108 76000000 		.4byte	.LVL7
 3572 010c A9000000 		.4byte	.LVL9-1
 3573 0110 0100     		.2byte	0x1
 3574 0112 50       		.byte	0x50
 3575 0113 A9000000 		.4byte	.LVL9-1
 3576 0117 D0000000 		.4byte	.LVL12
 3577 011b 0100     		.2byte	0x1
 3578 011d 54       		.byte	0x54
 3579 011e 02010000 		.4byte	.LVL20
 3580 0122 0A010000 		.4byte	.LFE63
 3581 0126 0100     		.2byte	0x1
 3582 0128 50       		.byte	0x50
 3583 0129 00000000 		.4byte	0
 3584 012d 00000000 		.4byte	0
 3585              	.LLST5:
 3586 0131 C2000000 		.4byte	.LVL10
 3587 0135 CD000000 		.4byte	.LVL11-1
ARM GAS  /tmp/ccl2msbI.s 			page 64


 3588 0139 0100     		.2byte	0x1
 3589 013b 53       		.byte	0x53
 3590 013c 00000000 		.4byte	0
 3591 0140 00000000 		.4byte	0
 3592              	.LLST6:
 3593 0144 F2000000 		.4byte	.LVL17
 3594 0148 FF000000 		.4byte	.LVL19-1
 3595 014c 0100     		.2byte	0x1
 3596 014e 52       		.byte	0x52
 3597 014f 00000000 		.4byte	0
 3598 0153 00000000 		.4byte	0
 3599              	.LLST7:
 3600 0157 F2000000 		.4byte	.LVL17
 3601 015b F6000000 		.4byte	.LVL18
 3602 015f 0C00     		.2byte	0xc
 3603 0161 73       		.byte	0x73
 3604 0162 02       		.sleb128 2
 3605 0163 94       		.byte	0x94
 3606 0164 02       		.byte	0x2
 3607 0165 0A       		.byte	0xa
 3608 0166 FFFF     		.2byte	0xffff
 3609 0168 1A       		.byte	0x1a
 3610 0169 72       		.byte	0x72
 3611 016a 00       		.sleb128 0
 3612 016b 1E       		.byte	0x1e
 3613 016c 9F       		.byte	0x9f
 3614 016d F6000000 		.4byte	.LVL18
 3615 0171 FF000000 		.4byte	.LVL19-1
 3616 0175 0F00     		.2byte	0xf
 3617 0177 70       		.byte	0x70
 3618 0178 10       		.sleb128 16
 3619 0179 06       		.byte	0x6
 3620 017a 23       		.byte	0x23
 3621 017b 02       		.uleb128 0x2
 3622 017c 94       		.byte	0x94
 3623 017d 02       		.byte	0x2
 3624 017e 0A       		.byte	0xa
 3625 017f FFFF     		.2byte	0xffff
 3626 0181 1A       		.byte	0x1a
 3627 0182 72       		.byte	0x72
 3628 0183 00       		.sleb128 0
 3629 0184 1E       		.byte	0x1e
 3630 0185 9F       		.byte	0x9f
 3631 0186 00000000 		.4byte	0
 3632 018a 00000000 		.4byte	0
 3633              	.LLST8:
 3634 018e 0A000000 		.4byte	.LVL21
 3635 0192 20000000 		.4byte	.LVL22
 3636 0196 0100     		.2byte	0x1
 3637 0198 51       		.byte	0x51
 3638 0199 00000000 		.4byte	0
 3639 019d 00000000 		.4byte	0
 3640              	.LLST9:
 3641 01a1 2C000000 		.4byte	.LVL23
 3642 01a5 88000000 		.4byte	.LVL27
 3643 01a9 0600     		.2byte	0x6
 3644 01ab 03       		.byte	0x3
ARM GAS  /tmp/ccl2msbI.s 			page 65


 3645 01ac 00000000 		.4byte	ADCD1
 3646 01b0 9F       		.byte	0x9f
 3647 01b1 00000000 		.4byte	0
 3648 01b5 00000000 		.4byte	0
 3649              	.LLST10:
 3650 01b9 74000000 		.4byte	.LVL25
 3651 01bd 81000000 		.4byte	.LVL26-1
 3652 01c1 0100     		.2byte	0x1
 3653 01c3 50       		.byte	0x50
 3654 01c4 00000000 		.4byte	0
 3655 01c8 00000000 		.4byte	0
 3656              	.LLST11:
 3657 01cc 00000000 		.4byte	.LVL31
 3658 01d0 18000000 		.4byte	.LVL32
 3659 01d4 0100     		.2byte	0x1
 3660 01d6 50       		.byte	0x50
 3661 01d7 18000000 		.4byte	.LVL32
 3662 01db 26000000 		.4byte	.LVL33
 3663 01df 0100     		.2byte	0x1
 3664 01e1 54       		.byte	0x54
 3665 01e2 26000000 		.4byte	.LVL33
 3666 01e6 34000000 		.4byte	.LVL34
 3667 01ea 0100     		.2byte	0x1
 3668 01ec 50       		.byte	0x50
 3669 01ed 34000000 		.4byte	.LVL34
 3670 01f1 58000000 		.4byte	.LFE66
 3671 01f5 0100     		.2byte	0x1
 3672 01f7 54       		.byte	0x54
 3673 01f8 00000000 		.4byte	0
 3674 01fc 00000000 		.4byte	0
 3675              	.LLST12:
 3676 0200 00000000 		.4byte	.LVL36
 3677 0204 0E000000 		.4byte	.LVL37
 3678 0208 0100     		.2byte	0x1
 3679 020a 50       		.byte	0x50
 3680 020b 0E000000 		.4byte	.LVL37
 3681 020f 3E000000 		.4byte	.LFE67
 3682 0213 0100     		.2byte	0x1
 3683 0215 54       		.byte	0x54
 3684 0216 00000000 		.4byte	0
 3685 021a 00000000 		.4byte	0
 3686              	.LLST13:
 3687 021e 00000000 		.4byte	.LVL39
 3688 0222 4C000000 		.4byte	.LVL46
 3689 0226 0100     		.2byte	0x1
 3690 0228 50       		.byte	0x50
 3691 0229 4C000000 		.4byte	.LVL46
 3692 022d 98000000 		.4byte	.LFE68
 3693 0231 0400     		.2byte	0x4
 3694 0233 F3       		.byte	0xf3
 3695 0234 01       		.uleb128 0x1
 3696 0235 50       		.byte	0x50
 3697 0236 9F       		.byte	0x9f
 3698 0237 00000000 		.4byte	0
 3699 023b 00000000 		.4byte	0
 3700              	.LLST14:
 3701 023f 0A000000 		.4byte	.LVL41
ARM GAS  /tmp/ccl2msbI.s 			page 66


 3702 0243 0E000000 		.4byte	.LVL42
 3703 0247 0100     		.2byte	0x1
 3704 0249 52       		.byte	0x52
 3705 024a 0E000000 		.4byte	.LVL42
 3706 024e 16000000 		.4byte	.LVL43
 3707 0252 0600     		.2byte	0x6
 3708 0254 72       		.byte	0x72
 3709 0255 00       		.sleb128 0
 3710 0256 08       		.byte	0x8
 3711 0257 20       		.byte	0x20
 3712 0258 21       		.byte	0x21
 3713 0259 9F       		.byte	0x9f
 3714 025a 16000000 		.4byte	.LVL43
 3715 025e 1A000000 		.4byte	.LVL44
 3716 0262 0700     		.2byte	0x7
 3717 0264 70       		.byte	0x70
 3718 0265 30       		.sleb128 48
 3719 0266 06       		.byte	0x6
 3720 0267 08       		.byte	0x8
 3721 0268 20       		.byte	0x20
 3722 0269 21       		.byte	0x21
 3723 026a 9F       		.byte	0x9f
 3724 026b 1A000000 		.4byte	.LVL44
 3725 026f 46000000 		.4byte	.LVL45
 3726 0273 0100     		.2byte	0x1
 3727 0275 52       		.byte	0x52
 3728 0276 46000000 		.4byte	.LVL45
 3729 027a 62000000 		.4byte	.LVL48
 3730 027e 0200     		.2byte	0x2
 3731 0280 71       		.byte	0x71
 3732 0281 00       		.sleb128 0
 3733 0282 00000000 		.4byte	0
 3734 0286 00000000 		.4byte	0
 3735              	.LLST15:
 3736 028a 02000000 		.4byte	.LVL40
 3737 028e 4E000000 		.4byte	.LVL47
 3738 0292 0100     		.2byte	0x1
 3739 0294 53       		.byte	0x53
 3740 0295 4E000000 		.4byte	.LVL47
 3741 0299 98000000 		.4byte	.LFE68
 3742 029d 0500     		.2byte	0x5
 3743 029f F3       		.byte	0xf3
 3744 02a0 01       		.uleb128 0x1
 3745 02a1 50       		.byte	0x50
 3746 02a2 23       		.byte	0x23
 3747 02a3 10       		.uleb128 0x10
 3748 02a4 00000000 		.4byte	0
 3749 02a8 00000000 		.4byte	0
 3750              	.LLST16:
 3751 02ac 00000000 		.4byte	.LVL49
 3752 02b0 0C000000 		.4byte	.LVL50
 3753 02b4 0100     		.2byte	0x1
 3754 02b6 50       		.byte	0x50
 3755 02b7 0C000000 		.4byte	.LVL50
 3756 02bb 28000000 		.4byte	.LFE69
 3757 02bf 0400     		.2byte	0x4
 3758 02c1 F3       		.byte	0xf3
ARM GAS  /tmp/ccl2msbI.s 			page 67


 3759 02c2 01       		.uleb128 0x1
 3760 02c3 50       		.byte	0x50
 3761 02c4 9F       		.byte	0x9f
 3762 02c5 00000000 		.4byte	0
 3763 02c9 00000000 		.4byte	0
 3764              		.section	.debug_aranges,"",%progbits
 3765 0000 5C000000 		.4byte	0x5c
 3766 0004 0200     		.2byte	0x2
 3767 0006 00000000 		.4byte	.Ldebug_info0
 3768 000a 04       		.byte	0x4
 3769 000b 00       		.byte	0
 3770 000c 0000     		.2byte	0
 3771 000e 0000     		.2byte	0
 3772 0010 00000000 		.4byte	.LFB63
 3773 0014 0A010000 		.4byte	.LFE63-.LFB63
 3774 0018 00000000 		.4byte	.LFB64
 3775 001c 90000000 		.4byte	.LFE64-.LFB64
 3776 0020 00000000 		.4byte	.LFB65
 3777 0024 36000000 		.4byte	.LFE65-.LFB65
 3778 0028 00000000 		.4byte	.LFB66
 3779 002c 58000000 		.4byte	.LFE66-.LFB66
 3780 0030 00000000 		.4byte	.LFB67
 3781 0034 3E000000 		.4byte	.LFE67-.LFB67
 3782 0038 00000000 		.4byte	.LFB68
 3783 003c 98000000 		.4byte	.LFE68-.LFB68
 3784 0040 00000000 		.4byte	.LFB69
 3785 0044 28000000 		.4byte	.LFE69-.LFB69
 3786 0048 00000000 		.4byte	.LFB70
 3787 004c 12000000 		.4byte	.LFE70-.LFB70
 3788 0050 00000000 		.4byte	.LFB71
 3789 0054 12000000 		.4byte	.LFE71-.LFB71
 3790 0058 00000000 		.4byte	0
 3791 005c 00000000 		.4byte	0
 3792              		.section	.debug_ranges,"",%progbits
 3793              	.Ldebug_ranges0:
 3794 0000 08000000 		.4byte	.LBB18
 3795 0004 0A000000 		.4byte	.LBE18
 3796 0008 0C000000 		.4byte	.LBB22
 3797 000c 20000000 		.4byte	.LBE22
 3798 0010 22000000 		.4byte	.LBB23
 3799 0014 2E000000 		.4byte	.LBE23
 3800 0018 00000000 		.4byte	0
 3801 001c 00000000 		.4byte	0
 3802 0020 76000000 		.4byte	.LBB27
 3803 0024 78000000 		.4byte	.LBE27
 3804 0028 7A000000 		.4byte	.LBB30
 3805 002c 9C000000 		.4byte	.LBE30
 3806 0030 00000000 		.4byte	0
 3807 0034 00000000 		.4byte	0
 3808 0038 EC000000 		.4byte	.LBB33
 3809 003c F6000000 		.4byte	.LBE33
 3810 0040 FA000000 		.4byte	.LBB34
 3811 0044 FE000000 		.4byte	.LBE34
 3812 0048 00000000 		.4byte	0
 3813 004c 00000000 		.4byte	0
 3814 0050 2C000000 		.4byte	.LBB35
 3815 0054 38000000 		.4byte	.LBE35
ARM GAS  /tmp/ccl2msbI.s 			page 68


 3816 0058 3A000000 		.4byte	.LBB38
 3817 005c 4A000000 		.4byte	.LBE38
 3818 0060 00000000 		.4byte	0
 3819 0064 00000000 		.4byte	0
 3820 0068 00000000 		.4byte	.LFB63
 3821 006c 0A010000 		.4byte	.LFE63
 3822 0070 00000000 		.4byte	.LFB64
 3823 0074 90000000 		.4byte	.LFE64
 3824 0078 00000000 		.4byte	.LFB65
 3825 007c 36000000 		.4byte	.LFE65
 3826 0080 00000000 		.4byte	.LFB66
 3827 0084 58000000 		.4byte	.LFE66
 3828 0088 00000000 		.4byte	.LFB67
 3829 008c 3E000000 		.4byte	.LFE67
 3830 0090 00000000 		.4byte	.LFB68
 3831 0094 98000000 		.4byte	.LFE68
 3832 0098 00000000 		.4byte	.LFB69
 3833 009c 28000000 		.4byte	.LFE69
 3834 00a0 00000000 		.4byte	.LFB70
 3835 00a4 12000000 		.4byte	.LFE70
 3836 00a8 00000000 		.4byte	.LFB71
 3837 00ac 12000000 		.4byte	.LFE71
 3838 00b0 00000000 		.4byte	0
 3839 00b4 00000000 		.4byte	0
 3840              		.section	.debug_line,"",%progbits
 3841              	.Ldebug_line0:
 3842 0000 F5030000 		.section	.debug_str,"MS",%progbits,1
 3842      02003302 
 3842      00000201 
 3842      FB0E0D00 
 3842      01010101 
 3843              	.LASF72:
 3844 0000 5056445F 		.ascii	"PVD_IRQn\000"
 3844      4952516E 
 3844      00
 3845              	.LASF2:
 3846 0009 73697A65 		.ascii	"size_t\000"
 3846      5F7400
 3847              	.LASF94:
 3848 0010 45585449 		.ascii	"EXTI9_5_IRQn\000"
 3848      395F355F 
 3848      4952516E 
 3848      00
 3849              	.LASF58:
 3850 001d 7264796D 		.ascii	"rdymsg\000"
 3850      736700
 3851              	.LASF93:
 3852 0024 434F4D50 		.ascii	"COMP_IRQn\000"
 3852      5F495251 
 3852      6E00
 3853              	.LASF180:
 3854 002e 646D616D 		.ascii	"dmamode\000"
 3854      6F646500 
 3855              	.LASF165:
 3856 0036 61646373 		.ascii	"adcstate_t\000"
 3856      74617465 
 3856      5F7400
ARM GAS  /tmp/ccl2msbI.s 			page 69


 3857              	.LASF102:
 3858 0041 49324331 		.ascii	"I2C1_EV_IRQn\000"
 3858      5F45565F 
 3858      4952516E 
 3858      00
 3859              	.LASF3:
 3860 004e 5F5F7569 		.ascii	"__uint8_t\000"
 3860      6E74385F 
 3860      7400
 3861              	.LASF112:
 3862 0058 5254435F 		.ascii	"RTC_Alarm_IRQn\000"
 3862      416C6172 
 3862      6D5F4952 
 3862      516E00
 3863              	.LASF208:
 3864 0067 61646353 		.ascii	"adcSTM32EnableTSVREFE\000"
 3864      544D3332 
 3864      456E6162 
 3864      6C655453 
 3864      56524546 
 3865              	.LASF156:
 3866 007d 76656374 		.ascii	"vector\000"
 3866      6F7200
 3867              	.LASF205:
 3868 0084 6164635F 		.ascii	"adc_lld_stop\000"
 3868      6C6C645F 
 3868      73746F70 
 3868      00
 3869              	.LASF219:
 3870 0091 2E2E2F43 		.ascii	"../ChibiOS_2.6.4/os/hal/platforms/STM32L1xx/adc_lld"
 3870      68696269 
 3870      4F535F32 
 3870      2E362E34 
 3870      2F6F732F 
 3871 00c4 2E6300   		.ascii	".c\000"
 3872              	.LASF13:
 3873 00c7 6C6F6E67 		.ascii	"long long unsigned int\000"
 3873      206C6F6E 
 3873      6720756E 
 3873      7369676E 
 3873      65642069 
 3874              	.LASF59:
 3875 00de 65786974 		.ascii	"exitcode\000"
 3875      636F6465 
 3875      00
 3876              	.LASF159:
 3877 00e7 4144435F 		.ascii	"ADC_UNINIT\000"
 3877      554E494E 
 3877      495400
 3878              	.LASF211:
 3879 00f2 5F73746D 		.ascii	"_stm32_dma_streams\000"
 3879      33325F64 
 3879      6D615F73 
 3879      74726561 
 3879      6D7300
 3880              	.LASF105:
 3881 0105 49324332 		.ascii	"I2C2_ER_IRQn\000"
ARM GAS  /tmp/ccl2msbI.s 			page 70


 3881      5F45525F 
 3881      4952516E 
 3881      00
 3882              	.LASF101:
 3883 0112 54494D34 		.ascii	"TIM4_IRQn\000"
 3883      5F495251 
 3883      6E00
 3884              	.LASF210:
 3885 011c 49544D5F 		.ascii	"ITM_RxBuffer\000"
 3885      52784275 
 3885      66666572 
 3885      00
 3886              	.LASF92:
 3887 0129 4441435F 		.ascii	"DAC_IRQn\000"
 3887      4952516E 
 3887      00
 3888              	.LASF71:
 3889 0132 57574447 		.ascii	"WWDG_IRQn\000"
 3889      5F495251 
 3889      6E00
 3890              	.LASF31:
 3891 013c 705F7072 		.ascii	"p_prio\000"
 3891      696F00
 3892              	.LASF215:
 3893 0143 6E766963 		.ascii	"nvicEnableVector\000"
 3893      456E6162 
 3893      6C655665 
 3893      63746F72 
 3893      00
 3894              	.LASF128:
 3895 0154 4A535152 		.ascii	"JSQR\000"
 3895      00
 3896              	.LASF12:
 3897 0159 6C6F6E67 		.ascii	"long long int\000"
 3897      206C6F6E 
 3897      6720696E 
 3897      7400
 3898              	.LASF1:
 3899 0167 7369676E 		.ascii	"signed char\000"
 3899      65642063 
 3899      68617200 
 3900              	.LASF11:
 3901 0173 6C6F6E67 		.ascii	"long unsigned int\000"
 3901      20756E73 
 3901      69676E65 
 3901      6420696E 
 3901      7400
 3902              	.LASF36:
 3903 0185 705F7374 		.ascii	"p_state\000"
 3903      61746500 
 3904              	.LASF47:
 3905 018d 705F6D70 		.ascii	"p_mpool\000"
 3905      6F6F6C00 
 3906              	.LASF18:
 3907 0195 626F6F6C 		.ascii	"bool_t\000"
 3907      5F7400
 3908              	.LASF55:
ARM GAS  /tmp/ccl2msbI.s 			page 71


 3909 019c 6D5F7175 		.ascii	"m_queue\000"
 3909      65756500 
 3910              	.LASF170:
 3911 01a4 61646365 		.ascii	"adcerror_t\000"
 3911      72726F72 
 3911      5F7400
 3912              	.LASF179:
 3913 01af 646D6173 		.ascii	"dmastp\000"
 3913      747000
 3914              	.LASF172:
 3915 01b6 73746174 		.ascii	"state\000"
 3915      6500
 3916              	.LASF183:
 3917 01bc 63697263 		.ascii	"circular\000"
 3917      756C6172 
 3917      00
 3918              	.LASF9:
 3919 01c5 6C6F6E67 		.ascii	"long int\000"
 3919      20696E74 
 3919      00
 3920              	.LASF168:
 3921 01ce 4144435F 		.ascii	"ADC_ERR_DMAFAILURE\000"
 3921      4552525F 
 3921      444D4146 
 3921      41494C55 
 3921      524500
 3922              	.LASF206:
 3923 01e1 6164635F 		.ascii	"adc_lld_start_conversion\000"
 3923      6C6C645F 
 3923      73746172 
 3923      745F636F 
 3923      6E766572 
 3924              	.LASF182:
 3925 01fa 61646365 		.ascii	"adcerrorcallback_t\000"
 3925      72726F72 
 3925      63616C6C 
 3925      6261636B 
 3925      5F7400
 3926              	.LASF21:
 3927 020d 74737461 		.ascii	"tstate_t\000"
 3927      74655F74 
 3927      00
 3928              	.LASF0:
 3929 0216 756E7369 		.ascii	"unsigned int\000"
 3929      676E6564 
 3929      20696E74 
 3929      00
 3930              	.LASF148:
 3931 0223 4148424C 		.ascii	"AHBLPENR\000"
 3931      50454E52 
 3931      00
 3932              	.LASF177:
 3933 022c 74687265 		.ascii	"thread\000"
 3933      616400
 3934              	.LASF38:
 3935 0233 705F7265 		.ascii	"p_refs\000"
 3935      667300
ARM GAS  /tmp/ccl2msbI.s 			page 72


 3936              	.LASF209:
 3937 023a 61646353 		.ascii	"adcSTM32DisableTSVREFE\000"
 3937      544D3332 
 3937      44697361 
 3937      626C6554 
 3937      53565245 
 3938              	.LASF15:
 3939 0251 75696E74 		.ascii	"uint16_t\000"
 3939      31365F74 
 3939      00
 3940              	.LASF40:
 3941 025a 705F7469 		.ascii	"p_time\000"
 3941      6D6500
 3942              	.LASF134:
 3943 0261 4144435F 		.ascii	"ADC_TypeDef\000"
 3943      54797065 
 3943      44656600 
 3944              	.LASF97:
 3945 026d 54494D31 		.ascii	"TIM10_IRQn\000"
 3945      305F4952 
 3945      516E00
 3946              	.LASF33:
 3947 0278 705F6E65 		.ascii	"p_newer\000"
 3947      77657200 
 3948              	.LASF185:
 3949 0280 656E645F 		.ascii	"end_cb\000"
 3949      636200
 3950              	.LASF181:
 3951 0287 61646363 		.ascii	"adccallback_t\000"
 3951      616C6C62 
 3951      61636B5F 
 3951      7400
 3952              	.LASF69:
 3953 0295 50656E64 		.ascii	"PendSV_IRQn\000"
 3953      53565F49 
 3953      52516E00 
 3954              	.LASF166:
 3955 02a1 61646373 		.ascii	"adcsample_t\000"
 3955      616D706C 
 3955      655F7400 
 3956              	.LASF10:
 3957 02ad 5F5F7569 		.ascii	"__uint32_t\000"
 3957      6E743332 
 3957      5F7400
 3958              	.LASF197:
 3959 02b8 41444343 		.ascii	"ADCConfig\000"
 3959      6F6E6669 
 3959      6700
 3960              	.LASF50:
 3961 02c2 72656761 		.ascii	"regarm_t\000"
 3961      726D5F74 
 3961      00
 3962              	.LASF155:
 3963 02cb 73656C66 		.ascii	"selfindex\000"
 3963      696E6465 
 3963      7800
 3964              	.LASF90:
ARM GAS  /tmp/ccl2msbI.s 			page 73


 3965 02d5 5553425F 		.ascii	"USB_HP_IRQn\000"
 3965      48505F49 
 3965      52516E00 
 3966              	.LASF196:
 3967 02e1 64756D6D 		.ascii	"dummy\000"
 3967      7900
 3968              	.LASF28:
 3969 02e7 54687265 		.ascii	"Thread\000"
 3969      616400
 3970              	.LASF27:
 3971 02ee 73797374 		.ascii	"systime_t\000"
 3971      696D655F 
 3971      7400
 3972              	.LASF169:
 3973 02f8 4144435F 		.ascii	"ADC_ERR_OVERFLOW\000"
 3973      4552525F 
 3973      4F564552 
 3973      464C4F57 
 3973      00
 3974              	.LASF162:
 3975 0309 4144435F 		.ascii	"ADC_ACTIVE\000"
 3975      41435449 
 3975      564500
 3976              	.LASF23:
 3977 0314 74736C69 		.ascii	"tslices_t\000"
 3977      6365735F 
 3977      7400
 3978              	.LASF96:
 3979 031e 54494D39 		.ascii	"TIM9_IRQn\000"
 3979      5F495251 
 3979      6E00
 3980              	.LASF214:
 3981 0328 6164634F 		.ascii	"adcObjectInit\000"
 3981      626A6563 
 3981      74496E69 
 3981      7400
 3982              	.LASF137:
 3983 0336 43504152 		.ascii	"CPAR\000"
 3983      00
 3984              	.LASF158:
 3985 033b 73746D33 		.ascii	"stm32_dmaisr_t\000"
 3985      325F646D 
 3985      61697372 
 3985      5F7400
 3986              	.LASF42:
 3987 034a 705F6D73 		.ascii	"p_msgqueue\000"
 3987      67717565 
 3987      756500
 3988              	.LASF171:
 3989 0355 41444344 		.ascii	"ADCDriver\000"
 3989      72697665 
 3989      7200
 3990              	.LASF151:
 3991 035f 5243435F 		.ascii	"RCC_TypeDef\000"
 3991      54797065 
 3991      44656600 
 3992              	.LASF198:
ARM GAS  /tmp/ccl2msbI.s 			page 74


 3993 036b 61646370 		.ascii	"adcp\000"
 3993      00
 3994              	.LASF139:
 3995 0370 444D415F 		.ascii	"DMA_Channel_TypeDef\000"
 3995      4368616E 
 3995      6E656C5F 
 3995      54797065 
 3995      44656600 
 3996              	.LASF154:
 3997 0384 69736869 		.ascii	"ishift\000"
 3997      667400
 3998              	.LASF86:
 3999 038b 444D4131 		.ascii	"DMA1_Channel5_IRQn\000"
 3999      5F436861 
 3999      6E6E656C 
 3999      355F4952 
 3999      516E00
 4000              	.LASF7:
 4001 039e 73686F72 		.ascii	"short unsigned int\000"
 4001      7420756E 
 4001      7369676E 
 4001      65642069 
 4001      6E7400
 4002              	.LASF74:
 4003 03b1 5254435F 		.ascii	"RTC_WKUP_IRQn\000"
 4003      574B5550 
 4003      5F495251 
 4003      6E00
 4004              	.LASF150:
 4005 03bf 41504231 		.ascii	"APB1LPENR\000"
 4005      4C50454E 
 4005      5200
 4006              	.LASF161:
 4007 03c9 4144435F 		.ascii	"ADC_READY\000"
 4007      52454144 
 4007      5900
 4008              	.LASF143:
 4009 03d3 41504232 		.ascii	"APB2RSTR\000"
 4009      52535452 
 4009      00
 4010              	.LASF175:
 4011 03dc 64657074 		.ascii	"depth\000"
 4011      6800
 4012              	.LASF25:
 4013 03e2 6D73675F 		.ascii	"msg_t\000"
 4013      7400
 4014              	.LASF46:
 4015 03e8 705F7265 		.ascii	"p_realprio\000"
 4015      616C7072 
 4015      696F00
 4016              	.LASF111:
 4017 03f3 45585449 		.ascii	"EXTI15_10_IRQn\000"
 4017      31355F31 
 4017      305F4952 
 4017      516E00
 4018              	.LASF218:
 4019 0402 474E5520 		.ascii	"GNU C 4.8.2 -mcpu=cortex-m3 -mno-thumb-interwork -m"
ARM GAS  /tmp/ccl2msbI.s 			page 75


 4019      4320342E 
 4019      382E3220 
 4019      2D6D6370 
 4019      753D636F 
 4020 0435 7468756D 		.ascii	"thumb -ggdb -O2 -fomit-frame-pointer -ffunction-sec"
 4020      62202D67 
 4020      67646220 
 4020      2D4F3220 
 4020      2D666F6D 
 4021 0468 74696F6E 		.ascii	"tions -fdata-sections -fno-common\000"
 4021      73202D66 
 4021      64617461 
 4021      2D736563 
 4021      74696F6E 
 4022              	.LASF106:
 4023 048a 53504931 		.ascii	"SPI1_IRQn\000"
 4023      5F495251 
 4023      6E00
 4024              	.LASF20:
 4025 0494 746D6F64 		.ascii	"tmode_t\000"
 4025      655F7400 
 4026              	.LASF184:
 4027 049c 6E756D5F 		.ascii	"num_channels\000"
 4027      6368616E 
 4027      6E656C73 
 4027      00
 4028              	.LASF149:
 4029 04a9 41504232 		.ascii	"APB2LPENR\000"
 4029      4C50454E 
 4029      5200
 4030              	.LASF49:
 4031 04b3 54687265 		.ascii	"ThreadsList\000"
 4031      6164734C 
 4031      69737400 
 4032              	.LASF26:
 4033 04bf 6576656E 		.ascii	"eventmask_t\000"
 4033      746D6173 
 4033      6B5F7400 
 4034              	.LASF5:
 4035 04cb 73686F72 		.ascii	"short int\000"
 4035      7420696E 
 4035      7400
 4036              	.LASF200:
 4037 04d5 68616C66 		.ascii	"half\000"
 4037      00
 4038              	.LASF85:
 4039 04da 444D4131 		.ascii	"DMA1_Channel4_IRQn\000"
 4039      5F436861 
 4039      6E6E656C 
 4039      345F4952 
 4039      516E00
 4040              	.LASF70:
 4041 04ed 53797354 		.ascii	"SysTick_IRQn\000"
 4041      69636B5F 
 4041      4952516E 
 4041      00
 4042              	.LASF66:
ARM GAS  /tmp/ccl2msbI.s 			page 76


 4043 04fa 55736167 		.ascii	"UsageFault_IRQn\000"
 4043      65466175 
 4043      6C745F49 
 4043      52516E00 
 4044              	.LASF89:
 4045 050a 41444331 		.ascii	"ADC1_IRQn\000"
 4045      5F495251 
 4045      6E00
 4046              	.LASF221:
 4047 0514 4952516E 		.ascii	"IRQn\000"
 4047      00
 4048              	.LASF119:
 4049 0519 4A4F4652 		.ascii	"JOFR1\000"
 4049      3100
 4050              	.LASF176:
 4051 051f 67727070 		.ascii	"grpp\000"
 4051      00
 4052              	.LASF203:
 4053 0524 6164635F 		.ascii	"adc_lld_init\000"
 4053      6C6C645F 
 4053      696E6974 
 4053      00
 4054              	.LASF174:
 4055 0531 73616D70 		.ascii	"samples\000"
 4055      6C657300 
 4056              	.LASF83:
 4057 0539 444D4131 		.ascii	"DMA1_Channel2_IRQn\000"
 4057      5F436861 
 4057      6E6E656C 
 4057      325F4952 
 4057      516E00
 4058              	.LASF220:
 4059 054c 2F686F6D 		.ascii	"/home/caroline/Documents/PAF/elfes/Code\000"
 4059      652F6361 
 4059      726F6C69 
 4059      6E652F44 
 4059      6F63756D 
 4060              	.LASF53:
 4061 0574 73697A65 		.ascii	"sizetype\000"
 4061      74797065 
 4061      00
 4062              	.LASF54:
 4063 057d 4D757465 		.ascii	"Mutex\000"
 4063      7800
 4064              	.LASF29:
 4065 0583 705F6E65 		.ascii	"p_next\000"
 4065      787400
 4066              	.LASF160:
 4067 058a 4144435F 		.ascii	"ADC_STOP\000"
 4067      53544F50 
 4067      00
 4068              	.LASF135:
 4069 0593 4144435F 		.ascii	"ADC_Common_TypeDef\000"
 4069      436F6D6D 
 4069      6F6E5F54 
 4069      79706544 
 4069      656600
ARM GAS  /tmp/ccl2msbI.s 			page 77


 4070              	.LASF68:
 4071 05a6 44656275 		.ascii	"DebugMonitor_IRQn\000"
 4071      674D6F6E 
 4071      69746F72 
 4071      5F495251 
 4071      6E00
 4072              	.LASF107:
 4073 05b8 53504932 		.ascii	"SPI2_IRQn\000"
 4073      5F495251 
 4073      6E00
 4074              	.LASF48:
 4075 05c2 54687265 		.ascii	"ThreadsQueue\000"
 4075      61647351 
 4075      75657565 
 4075      00
 4076              	.LASF133:
 4077 05cf 534D5052 		.ascii	"SMPR0\000"
 4077      3000
 4078              	.LASF116:
 4079 05d5 534D5052 		.ascii	"SMPR1\000"
 4079      3100
 4080              	.LASF117:
 4081 05db 534D5052 		.ascii	"SMPR2\000"
 4081      3200
 4082              	.LASF118:
 4083 05e1 534D5052 		.ascii	"SMPR3\000"
 4083      3300
 4084              	.LASF142:
 4085 05e7 41484252 		.ascii	"AHBRSTR\000"
 4085      53545200 
 4086              	.LASF113:
 4087 05ef 5553425F 		.ascii	"USB_FS_WKUP_IRQn\000"
 4087      46535F57 
 4087      4B55505F 
 4087      4952516E 
 4087      00
 4088              	.LASF144:
 4089 0600 41504231 		.ascii	"APB1RSTR\000"
 4089      52535452 
 4089      00
 4090              	.LASF123:
 4091 0609 53515231 		.ascii	"SQR1\000"
 4091      00
 4092              	.LASF124:
 4093 060e 53515232 		.ascii	"SQR2\000"
 4093      00
 4094              	.LASF125:
 4095 0613 53515233 		.ascii	"SQR3\000"
 4095      00
 4096              	.LASF126:
 4097 0618 53515234 		.ascii	"SQR4\000"
 4097      00
 4098              	.LASF127:
 4099 061d 53515235 		.ascii	"SQR5\000"
 4099      00
 4100              	.LASF82:
 4101 0622 444D4131 		.ascii	"DMA1_Channel1_IRQn\000"
ARM GAS  /tmp/ccl2msbI.s 			page 78


 4101      5F436861 
 4101      6E6E656C 
 4101      315F4952 
 4101      516E00
 4102              	.LASF64:
 4103 0635 4D656D6F 		.ascii	"MemoryManagement_IRQn\000"
 4103      72794D61 
 4103      6E616765 
 4103      6D656E74 
 4103      5F495251 
 4104              	.LASF22:
 4105 064b 74726566 		.ascii	"trefs_t\000"
 4105      735F7400 
 4106              	.LASF108:
 4107 0653 55534152 		.ascii	"USART1_IRQn\000"
 4107      54315F49 
 4107      52516E00 
 4108              	.LASF30:
 4109 065f 705F7072 		.ascii	"p_prev\000"
 4109      657600
 4110              	.LASF157:
 4111 0666 73746D33 		.ascii	"stm32_dma_stream_t\000"
 4111      325F646D 
 4111      615F7374 
 4111      7265616D 
 4111      5F7400
 4112              	.LASF24:
 4113 0679 74707269 		.ascii	"tprio_t\000"
 4113      6F5F7400 
 4114              	.LASF178:
 4115 0681 6D757465 		.ascii	"mutex\000"
 4115      7800
 4116              	.LASF19:
 4117 0687 5F426F6F 		.ascii	"_Bool\000"
 4117      6C00
 4118              	.LASF16:
 4119 068d 696E7433 		.ascii	"int32_t\000"
 4119      325F7400 
 4120              	.LASF4:
 4121 0695 756E7369 		.ascii	"unsigned char\000"
 4121      676E6564 
 4121      20636861 
 4121      7200
 4122              	.LASF114:
 4123 06a3 54494D36 		.ascii	"TIM6_IRQn\000"
 4123      5F495251 
 4123      6E00
 4124              	.LASF222:
 4125 06ad 6164635F 		.ascii	"adc_lld_serve_rx_interrupt\000"
 4125      6C6C645F 
 4125      73657276 
 4125      655F7278 
 4125      5F696E74 
 4126              	.LASF45:
 4127 06c8 705F6D74 		.ascii	"p_mtxlist\000"
 4127      786C6973 
 4127      7400
ARM GAS  /tmp/ccl2msbI.s 			page 79


 4128              	.LASF213:
 4129 06d2 6164635F 		.ascii	"adc_lld_stop_conversion\000"
 4129      6C6C645F 
 4129      73746F70 
 4129      5F636F6E 
 4129      76657273 
 4130              	.LASF98:
 4131 06ea 54494D31 		.ascii	"TIM11_IRQn\000"
 4131      315F4952 
 4131      516E00
 4132              	.LASF39:
 4133 06f5 705F7072 		.ascii	"p_preempt\000"
 4133      65656D70 
 4133      7400
 4134              	.LASF81:
 4135 06ff 45585449 		.ascii	"EXTI4_IRQn\000"
 4135      345F4952 
 4135      516E00
 4136              	.LASF186:
 4137 070a 6572726F 		.ascii	"error_cb\000"
 4137      725F6362 
 4137      00
 4138              	.LASF84:
 4139 0713 444D4131 		.ascii	"DMA1_Channel3_IRQn\000"
 4139      5F436861 
 4139      6E6E656C 
 4139      335F4952 
 4139      516E00
 4140              	.LASF61:
 4141 0726 65776D61 		.ascii	"ewmask\000"
 4141      736B00
 4142              	.LASF37:
 4143 072d 705F666C 		.ascii	"p_flags\000"
 4143      61677300 
 4144              	.LASF121:
 4145 0735 4A4F4652 		.ascii	"JOFR3\000"
 4145      3300
 4146              	.LASF122:
 4147 073b 4A4F4652 		.ascii	"JOFR4\000"
 4147      3400
 4148              	.LASF79:
 4149 0741 45585449 		.ascii	"EXTI2_IRQn\000"
 4149      325F4952 
 4149      516E00
 4150              	.LASF146:
 4151 074c 41504232 		.ascii	"APB2ENR\000"
 4151      454E5200 
 4152              	.LASF152:
 4153 0754 6368616E 		.ascii	"channel\000"
 4153      6E656C00 
 4154              	.LASF75:
 4155 075c 464C4153 		.ascii	"FLASH_IRQn\000"
 4155      485F4952 
 4155      516E00
 4156              	.LASF44:
 4157 0767 705F6570 		.ascii	"p_epending\000"
 4157      656E6469 
ARM GAS  /tmp/ccl2msbI.s 			page 80


 4157      6E6700
 4158              	.LASF153:
 4159 0772 69666372 		.ascii	"ifcr\000"
 4159      00
 4160              	.LASF17:
 4161 0777 75696E74 		.ascii	"uint32_t\000"
 4161      33325F74 
 4161      00
 4162              	.LASF212:
 4163 0780 41444344 		.ascii	"ADCD1\000"
 4163      3100
 4164              	.LASF109:
 4165 0786 55534152 		.ascii	"USART2_IRQn\000"
 4165      54325F49 
 4165      52516E00 
 4166              	.LASF216:
 4167 0792 63685363 		.ascii	"chSchReadyI\000"
 4167      68526561 
 4167      64794900 
 4168              	.LASF187:
 4169 079e 736D7072 		.ascii	"smpr1\000"
 4169      3100
 4170              	.LASF63:
 4171 07a4 4E6F6E4D 		.ascii	"NonMaskableInt_IRQn\000"
 4171      61736B61 
 4171      626C6549 
 4171      6E745F49 
 4171      52516E00 
 4172              	.LASF62:
 4173 07b8 63686172 		.ascii	"char\000"
 4173      00
 4174              	.LASF224:
 4175 07bd 646D6153 		.ascii	"dmaStreamRelease\000"
 4175      74726561 
 4175      6D52656C 
 4175      65617365 
 4175      00
 4176              	.LASF207:
 4177 07ce 6D6F6465 		.ascii	"mode\000"
 4177      00
 4178              	.LASF65:
 4179 07d3 42757346 		.ascii	"BusFault_IRQn\000"
 4179      61756C74 
 4179      5F495251 
 4179      6E00
 4180              	.LASF173:
 4181 07e1 636F6E66 		.ascii	"config\000"
 4181      696700
 4182              	.LASF138:
 4183 07e8 434D4152 		.ascii	"CMAR\000"
 4183      00
 4184              	.LASF6:
 4185 07ed 5F5F7569 		.ascii	"__uint16_t\000"
 4185      6E743136 
 4185      5F7400
 4186              	.LASF115:
 4187 07f8 54494D37 		.ascii	"TIM7_IRQn\000"
ARM GAS  /tmp/ccl2msbI.s 			page 81


 4187      5F495251 
 4187      6E00
 4188              	.LASF140:
 4189 0802 49435343 		.ascii	"ICSCR\000"
 4189      5200
 4190              	.LASF190:
 4191 0808 73717231 		.ascii	"sqr1\000"
 4191      00
 4192              	.LASF191:
 4193 080d 73717232 		.ascii	"sqr2\000"
 4193      00
 4194              	.LASF192:
 4195 0812 73717233 		.ascii	"sqr3\000"
 4195      00
 4196              	.LASF193:
 4197 0817 73717234 		.ascii	"sqr4\000"
 4197      00
 4198              	.LASF194:
 4199 081c 73717235 		.ascii	"sqr5\000"
 4199      00
 4200              	.LASF8:
 4201 0821 5F5F696E 		.ascii	"__int32_t\000"
 4201      7433325F 
 4201      7400
 4202              	.LASF34:
 4203 082b 705F6F6C 		.ascii	"p_older\000"
 4203      64657200 
 4204              	.LASF87:
 4205 0833 444D4131 		.ascii	"DMA1_Channel6_IRQn\000"
 4205      5F436861 
 4205      6E6E656C 
 4205      365F4952 
 4205      516E00
 4206              	.LASF147:
 4207 0846 41504231 		.ascii	"APB1ENR\000"
 4207      454E5200 
 4208              	.LASF91:
 4209 084e 5553425F 		.ascii	"USB_LP_IRQn\000"
 4209      4C505F49 
 4209      52516E00 
 4210              	.LASF52:
 4211 085a 636F6E74 		.ascii	"context\000"
 4211      65787400 
 4212              	.LASF51:
 4213 0862 696E7463 		.ascii	"intctx\000"
 4213      747800
 4214              	.LASF95:
 4215 0869 4C43445F 		.ascii	"LCD_IRQn\000"
 4215      4952516E 
 4215      00
 4216              	.LASF204:
 4217 0872 6164635F 		.ascii	"adc_lld_start\000"
 4217      6C6C645F 
 4217      73746172 
 4217      7400
 4218              	.LASF164:
 4219 0880 4144435F 		.ascii	"ADC_ERROR\000"
ARM GAS  /tmp/ccl2msbI.s 			page 82


 4219      4552524F 
 4219      5200
 4220              	.LASF104:
 4221 088a 49324332 		.ascii	"I2C2_EV_IRQn\000"
 4221      5F45565F 
 4221      4952516E 
 4221      00
 4222              	.LASF110:
 4223 0897 55534152 		.ascii	"USART3_IRQn\000"
 4223      54335F49 
 4223      52516E00 
 4224              	.LASF99:
 4225 08a3 54494D32 		.ascii	"TIM2_IRQn\000"
 4225      5F495251 
 4225      6E00
 4226              	.LASF77:
 4227 08ad 45585449 		.ascii	"EXTI0_IRQn\000"
 4227      305F4952 
 4227      516E00
 4228              	.LASF202:
 4229 08b8 56656374 		.ascii	"Vector88\000"
 4229      6F723838 
 4229      00
 4230              	.LASF57:
 4231 08c1 6D5F6E65 		.ascii	"m_next\000"
 4231      787400
 4232              	.LASF136:
 4233 08c8 434E4454 		.ascii	"CNDTR\000"
 4233      5200
 4234              	.LASF188:
 4235 08ce 736D7072 		.ascii	"smpr2\000"
 4235      3200
 4236              	.LASF189:
 4237 08d4 736D7072 		.ascii	"smpr3\000"
 4237      3300
 4238              	.LASF80:
 4239 08da 45585449 		.ascii	"EXTI3_IRQn\000"
 4239      335F4952 
 4239      516E00
 4240              	.LASF223:
 4241 08e5 5F706F72 		.ascii	"_port_irq_epilogue\000"
 4241      745F6972 
 4241      715F6570 
 4241      696C6F67 
 4241      756500
 4242              	.LASF120:
 4243 08f8 4A4F4652 		.ascii	"JOFR2\000"
 4243      3200
 4244              	.LASF14:
 4245 08fe 75696E74 		.ascii	"uint8_t\000"
 4245      385F7400 
 4246              	.LASF195:
 4247 0906 41444343 		.ascii	"ADCConversionGroup\000"
 4247      6F6E7665 
 4247      7273696F 
 4247      6E47726F 
 4247      757000
ARM GAS  /tmp/ccl2msbI.s 			page 83


 4248              	.LASF199:
 4249 0919 666C6167 		.ascii	"flags\000"
 4249      7300
 4250              	.LASF129:
 4251 091f 4A445231 		.ascii	"JDR1\000"
 4251      00
 4252              	.LASF130:
 4253 0924 4A445232 		.ascii	"JDR2\000"
 4253      00
 4254              	.LASF131:
 4255 0929 4A445233 		.ascii	"JDR3\000"
 4255      00
 4256              	.LASF132:
 4257 092e 4A445234 		.ascii	"JDR4\000"
 4257      00
 4258              	.LASF78:
 4259 0933 45585449 		.ascii	"EXTI1_IRQn\000"
 4259      315F4952 
 4259      516E00
 4260              	.LASF60:
 4261 093e 77746F62 		.ascii	"wtobjp\000"
 4261      6A7000
 4262              	.LASF163:
 4263 0945 4144435F 		.ascii	"ADC_COMPLETE\000"
 4263      434F4D50 
 4263      4C455445 
 4263      00
 4264              	.LASF35:
 4265 0952 705F6E61 		.ascii	"p_name\000"
 4265      6D6500
 4266              	.LASF88:
 4267 0959 444D4131 		.ascii	"DMA1_Channel7_IRQn\000"
 4267      5F436861 
 4267      6E6E656C 
 4267      375F4952 
 4267      516E00
 4268              	.LASF167:
 4269 096c 6164635F 		.ascii	"adc_channels_num_t\000"
 4269      6368616E 
 4269      6E656C73 
 4269      5F6E756D 
 4269      5F7400
 4270              	.LASF141:
 4271 097f 43464752 		.ascii	"CFGR\000"
 4271      00
 4272              	.LASF43:
 4273 0984 705F6D73 		.ascii	"p_msg\000"
 4273      6700
 4274              	.LASF103:
 4275 098a 49324331 		.ascii	"I2C1_ER_IRQn\000"
 4275      5F45525F 
 4275      4952516E 
 4275      00
 4276              	.LASF73:
 4277 0997 54414D50 		.ascii	"TAMPER_STAMP_IRQn\000"
 4277      45525F53 
 4277      54414D50 
ARM GAS  /tmp/ccl2msbI.s 			page 84


 4277      5F495251 
 4277      6E00
 4278              	.LASF100:
 4279 09a9 54494D33 		.ascii	"TIM3_IRQn\000"
 4279      5F495251 
 4279      6E00
 4280              	.LASF56:
 4281 09b3 6D5F6F77 		.ascii	"m_owner\000"
 4281      6E657200 
 4282              	.LASF217:
 4283 09bb 646D6153 		.ascii	"dmaStreamAllocate\000"
 4283      74726561 
 4283      6D416C6C 
 4283      6F636174 
 4283      6500
 4284              	.LASF201:
 4285 09cd 68616C66 		.ascii	"half_index\000"
 4285      5F696E64 
 4285      657800
 4286              	.LASF76:
 4287 09d8 5243435F 		.ascii	"RCC_IRQn\000"
 4287      4952516E 
 4287      00
 4288              	.LASF32:
 4289 09e1 705F6374 		.ascii	"p_ctx\000"
 4289      7800
 4290              	.LASF41:
 4291 09e7 705F7761 		.ascii	"p_waiting\000"
 4291      6974696E 
 4291      6700
 4292              	.LASF145:
 4293 09f1 41484245 		.ascii	"AHBENR\000"
 4293      4E5200
 4294              	.LASF67:
 4295 09f8 5356435F 		.ascii	"SVC_IRQn\000"
 4295      4952516E 
 4295      00
 4296              		.ident	"GCC: (4.8.2-14ubuntu1+6) 4.8.2"
ARM GAS  /tmp/ccl2msbI.s 			page 85


DEFINED SYMBOLS
                            *ABS*:0000000000000000 adc_lld.c
     /tmp/ccl2msbI.s:19     .text.adc_lld_serve_rx_interrupt:0000000000000000 $t
     /tmp/ccl2msbI.s:23     .text.adc_lld_serve_rx_interrupt:0000000000000000 adc_lld_serve_rx_interrupt
     /tmp/ccl2msbI.s:275    .text.Vector88:0000000000000000 $t
     /tmp/ccl2msbI.s:280    .text.Vector88:0000000000000000 Vector88
     /tmp/ccl2msbI.s:834    .bss.ADCD1:0000000000000000 .LANCHOR0
     /tmp/ccl2msbI.s:408    .text.adc_lld_init:0000000000000000 $t
     /tmp/ccl2msbI.s:413    .text.adc_lld_init:0000000000000000 adc_lld_init
     /tmp/ccl2msbI.s:457    .text.adc_lld_start:0000000000000000 $t
     /tmp/ccl2msbI.s:462    .text.adc_lld_start:0000000000000000 adc_lld_start
     /tmp/ccl2msbI.s:535    .text.adc_lld_stop:0000000000000000 $t
     /tmp/ccl2msbI.s:540    .text.adc_lld_stop:0000000000000000 adc_lld_stop
     /tmp/ccl2msbI.s:595    .text.adc_lld_start_conversion:0000000000000000 $t
     /tmp/ccl2msbI.s:600    .text.adc_lld_start_conversion:0000000000000000 adc_lld_start_conversion
     /tmp/ccl2msbI.s:733    .text.adc_lld_stop_conversion:0000000000000000 $t
     /tmp/ccl2msbI.s:738    .text.adc_lld_stop_conversion:0000000000000000 adc_lld_stop_conversion
     /tmp/ccl2msbI.s:786    .text.adcSTM32EnableTSVREFE:0000000000000000 $t
     /tmp/ccl2msbI.s:791    .text.adcSTM32EnableTSVREFE:0000000000000000 adcSTM32EnableTSVREFE
     /tmp/ccl2msbI.s:809    .text.adcSTM32DisableTSVREFE:0000000000000000 $t
     /tmp/ccl2msbI.s:814    .text.adcSTM32DisableTSVREFE:0000000000000000 adcSTM32DisableTSVREFE
     /tmp/ccl2msbI.s:837    .bss.ADCD1:0000000000000000 ADCD1
     /tmp/ccl2msbI.s:833    .bss.ADCD1:0000000000000000 $d
                     .debug_frame:0000000000000010 $d

UNDEFINED SYMBOLS
chSchReadyI
_port_irq_epilogue
adcObjectInit
_stm32_dma_streams
nvicEnableVector
dmaStreamAllocate
dmaStreamRelease
