ARM GAS  /tmp/ccIgVMD4.s 			page 1


   1              		.syntax unified
   2              		.cpu cortex-m3
   3              		.fpu softvfp
   4              		.eabi_attribute 20, 1
   5              		.eabi_attribute 21, 1
   6              		.eabi_attribute 23, 3
   7              		.eabi_attribute 24, 1
   8              		.eabi_attribute 25, 1
   9              		.eabi_attribute 26, 1
  10              		.eabi_attribute 30, 2
  11              		.eabi_attribute 34, 1
  12              		.eabi_attribute 18, 4
  13              		.thumb
  14              		.file	"chcore_v7m.c"
  15              		.text
  16              	.Ltext0:
  17              		.cfi_sections	.debug_frame
  18              		.section	.text._port_switch_from_isr,"ax",%progbits
  19              		.align	2
  20              		.global	_port_switch_from_isr
  21              		.thumb
  22              		.thumb_func
  23              		.type	_port_switch_from_isr, %function
  24              	_port_switch_from_isr:
  25              	.LFB11:
  26              		.file 1 "../ChibiOS_2.6.4/os/ports/GCC/ARMCMx/chcore_v7m.c"
  27              		.loc 1 207 0
  28              		.cfi_startproc
  29              		@ Naked Function: prologue and epilogue provided by programmer.
  30              		@ args = 0, pretend = 0, frame = 0
  31              		@ frame_needed = 0, uses_anonymous_args = 0
  32              		.loc 1 210 0
  33 0000 FFF7FEFF 		bl	chSchDoReschedule
  34              	.LVL0:
  35              		.loc 1 212 0
  36              	@ 212 "../ChibiOS_2.6.4/os/ports/GCC/ARMCMx/chcore_v7m.c" 1
  37              		_port_exit_from_isr:
  38              	@ 0 "" 2
  39              		.loc 1 214 0
  40              	@ 214 "../ChibiOS_2.6.4/os/ports/GCC/ARMCMx/chcore_v7m.c" 1
  41 0004 00DF     		svc     #0
  42              	@ 0 "" 2
  43              		.loc 1 221 0
  44              		.thumb
  45              		.cfi_endproc
  46              	.LFE11:
  47              		.size	_port_switch_from_isr, .-_port_switch_from_isr
  48 0006 00BF     		.section	.text.SVCallVector,"ax",%progbits
  49              		.align	2
  50              		.global	SVCallVector
  51              		.thumb
  52              		.thumb_func
  53              		.type	SVCallVector, %function
  54              	SVCallVector:
  55              	.LFB8:
  56              		.loc 1 65 0
  57              		.cfi_startproc
ARM GAS  /tmp/ccIgVMD4.s 			page 2


  58              		@ args = 0, pretend = 0, frame = 0
  59              		@ frame_needed = 0, uses_anonymous_args = 0
  60              		@ link register save eliminated.
  61              		.loc 1 69 0
  62              	@ 69 "../ChibiOS_2.6.4/os/ports/GCC/ARMCMx/chcore_v7m.c" 1
  63 0000 EFF30983 		mrs     r3, PSP
  64              	@ 0 "" 2
  65              	.LVL1:
  66              		.loc 1 73 0
  67              		.thumb
  68 0004 2033     		adds	r3, r3, #32
  69              	.LVL2:
  70              		.loc 1 80 0
  71              	@ 80 "../ChibiOS_2.6.4/os/ports/GCC/ARMCMx/chcore_v7m.c" 1
  72 0006 83F30988 		msr     PSP, r3
  73              	@ 0 "" 2
  74              		.thumb
  75              	.LBB2:
  76              		.loc 1 81 0
  77 000a 0023     		movs	r3, #0
  78              	.LVL3:
  79              	@ 81 "../ChibiOS_2.6.4/os/ports/GCC/ARMCMx/chcore_v7m.c" 1
  80 000c 83F31188 		msr     BASEPRI, r3
  81              	@ 0 "" 2
  82              		.thumb
  83 0010 7047     		bx	lr
  84              	.LBE2:
  85              		.cfi_endproc
  86              	.LFE8:
  87              		.size	SVCallVector, .-SVCallVector
  88 0012 00BF     		.section	.text._port_init,"ax",%progbits
  89              		.align	2
  90              		.global	_port_init
  91              		.thumb
  92              		.thumb_func
  93              		.type	_port_init, %function
  94              	_port_init:
  95              	.LFB9:
  96              		.loc 1 118 0
  97              		.cfi_startproc
  98              		@ args = 0, pretend = 0, frame = 0
  99              		@ frame_needed = 0, uses_anonymous_args = 0
 100 0000 08B5     		push	{r3, lr}
 101              		.cfi_def_cfa_offset 8
 102              		.cfi_offset 3, -8
 103              		.cfi_offset 14, -4
 104              		.loc 1 122 0
 105 0002 4FF44072 		mov	r2, #768
 106              		.loc 1 121 0
 107 0006 4FF46D43 		mov	r3, #60672
 108 000a CEF20003 		movt	r3, 57344
 109              		.loc 1 122 0
 110 000e C0F2FA52 		movt	r2, 1530
 111              		.loc 1 121 0
 112 0012 0021     		movs	r1, #0
 113 0014 9960     		str	r1, [r3, #8]
 114              		.loc 1 125 0
ARM GAS  /tmp/ccIgVMD4.s 			page 3


 115 0016 0720     		movs	r0, #7
 116              		.loc 1 122 0
 117 0018 DA60     		str	r2, [r3, #12]
 118              		.loc 1 125 0
 119 001a 1021     		movs	r1, #16
 120 001c FFF7FEFF 		bl	nvicSetSystemHandlerPriority
 121              	.LVL4:
 122              		.loc 1 127 0
 123 0020 0A20     		movs	r0, #10
 124 0022 2021     		movs	r1, #32
 125 0024 FFF7FEFF 		bl	nvicSetSystemHandlerPriority
 126              	.LVL5:
 127              		.loc 1 131 0
 128 0028 BDE80840 		pop	{r3, lr}
 129              		.loc 1 129 0
 130 002c 0B20     		movs	r0, #11
 131 002e 8021     		movs	r1, #128
 132 0030 FFF7FEBF 		b	nvicSetSystemHandlerPriority
 133              	.LVL6:
 134              		.cfi_endproc
 135              	.LFE9:
 136              		.size	_port_init, .-_port_init
 137              		.section	.text._port_irq_epilogue,"ax",%progbits
 138              		.align	2
 139              		.global	_port_irq_epilogue
 140              		.thumb
 141              		.thumb_func
 142              		.type	_port_irq_epilogue, %function
 143              	_port_irq_epilogue:
 144              	.LFB10:
 145              		.loc 1 148 0
 146              		.cfi_startproc
 147              		@ args = 0, pretend = 0, frame = 0
 148              		@ frame_needed = 0, uses_anonymous_args = 0
 149              		@ link register save eliminated.
 150              	.LBB3:
 151              		.loc 1 150 0
 152 0000 2023     		movs	r3, #32
 153              	@ 150 "../ChibiOS_2.6.4/os/ports/GCC/ARMCMx/chcore_v7m.c" 1
 154 0002 83F31188 		msr     BASEPRI, r3
 155              	@ 0 "" 2
 156              		.thumb
 157              	.LBE3:
 158              		.loc 1 151 0
 159 0006 4FF46D43 		mov	r3, #60672
 160 000a CEF20003 		movt	r3, 57344
 161 000e 5B68     		ldr	r3, [r3, #4]
 162 0010 13F40063 		ands	r3, r3, #2048
 163 0014 1FD0     		beq	.L5
 164              	.LBB4:
 165              		.loc 1 155 0
 166              	@ 155 "../ChibiOS_2.6.4/os/ports/GCC/ARMCMx/chcore_v7m.c" 1
 167 0016 EFF30982 		mrs     r2, PSP
 168              	@ 0 "" 2
 169              	.LVL7:
 170              		.loc 1 159 0
 171              		.thumb
ARM GAS  /tmp/ccIgVMD4.s 			page 4


 172 001a A2F12003 		sub	r3, r2, #32
 173              	.LVL8:
 174              		.loc 1 160 0
 175              	@ 160 "../ChibiOS_2.6.4/os/ports/GCC/ARMCMx/chcore_v7m.c" 1
 176 001e 83F30988 		msr     PSP, r3
 177              	@ 0 "" 2
 178              		.loc 1 165 0
 179              		.thumb
 180 0022 40F20003 		movw	r3, #:lower16:rlist
 181              	.LVL9:
 182 0026 C0F20003 		movt	r3, #:upper16:rlist
 183              		.loc 1 161 0
 184 002a 4FF08070 		mov	r0, #16777216
 185              		.loc 1 165 0
 186 002e 9969     		ldr	r1, [r3, #24]
 187              		.loc 1 161 0
 188 0030 42F8040C 		str	r0, [r2, #-4]
 189              		.loc 1 165 0
 190 0034 C87F     		ldrb	r0, [r1, #31]	@ zero_extendqisi2
 191 0036 88B1     		cbz	r0, .L6
 192              		.loc 1 165 0 is_stmt 0 discriminator 1
 193 0038 1868     		ldr	r0, [r3]
 194 003a 8B68     		ldr	r3, [r1, #8]
 195 003c 8168     		ldr	r1, [r0, #8]
 196 003e 9942     		cmp	r1, r3
 197 0040 94BF     		ite	ls
 198 0042 0023     		movls	r3, #0
 199 0044 0123     		movhi	r3, #1
 200 0046 93B1     		cbz	r3, .L8
 201              	.L11:
 202              		.loc 1 167 0 is_stmt 1
 203 0048 40F20003 		movw	r3, #:lower16:_port_switch_from_isr
 204 004c C0F20003 		movt	r3, #:upper16:_port_switch_from_isr
 205 0050 42F8083C 		str	r3, [r2, #-8]
 206 0054 7047     		bx	lr
 207              	.LVL10:
 208              	.L5:
 209              	.LBE4:
 210              	.LBB5:
 211              		.loc 1 197 0
 212              	@ 197 "../ChibiOS_2.6.4/os/ports/GCC/ARMCMx/chcore_v7m.c" 1
 213 0056 83F31188 		msr     BASEPRI, r3
 214              	@ 0 "" 2
 215              		.thumb
 216 005a 7047     		bx	lr
 217              	.LVL11:
 218              	.L6:
 219              	.LBE5:
 220              	.LBB6:
 221              		.loc 1 165 0 discriminator 2
 222 005c 1868     		ldr	r0, [r3]
 223 005e 8B68     		ldr	r3, [r1, #8]
 224 0060 8168     		ldr	r1, [r0, #8]
 225 0062 9942     		cmp	r1, r3
 226 0064 34BF     		ite	cc
 227 0066 0023     		movcc	r3, #0
 228 0068 0123     		movcs	r3, #1
ARM GAS  /tmp/ccIgVMD4.s 			page 5


 229 006a 002B     		cmp	r3, #0
 230 006c ECD1     		bne	.L11
 231              	.L8:
 232              		.loc 1 176 0
 233 006e 40F20003 		movw	r3, #:lower16:_port_exit_from_isr
 234 0072 C0F20003 		movt	r3, #:upper16:_port_exit_from_isr
 235 0076 42F8083C 		str	r3, [r2, #-8]
 236 007a 7047     		bx	lr
 237              	.LBE6:
 238              		.cfi_endproc
 239              	.LFE10:
 240              		.size	_port_irq_epilogue, .-_port_irq_epilogue
 241              		.section	.text.SysTickVector,"ax",%progbits
 242              		.align	2
 243              		.global	SysTickVector
 244              		.thumb
 245              		.thumb_func
 246              		.type	SysTickVector, %function
 247              	SysTickVector:
 248              	.LFB7:
 249              		.loc 1 47 0
 250              		.cfi_startproc
 251              		@ args = 0, pretend = 0, frame = 0
 252              		@ frame_needed = 0, uses_anonymous_args = 0
 253 0000 08B5     		push	{r3, lr}
 254              		.cfi_def_cfa_offset 8
 255              		.cfi_offset 3, -8
 256              		.cfi_offset 14, -4
 257              	.LBB7:
 258              		.loc 1 51 0
 259 0002 2023     		movs	r3, #32
 260              	@ 51 "../ChibiOS_2.6.4/os/ports/GCC/ARMCMx/chcore_v7m.c" 1
 261 0004 83F31188 		msr     BASEPRI, r3
 262              	@ 0 "" 2
 263              		.thumb
 264              	.LBE7:
 265              		.loc 1 52 0
 266 0008 FFF7FEFF 		bl	chSysTimerHandlerI
 267              	.LVL12:
 268              	.LBB8:
 269              		.loc 1 53 0
 270 000c 0023     		movs	r3, #0
 271              	@ 53 "../ChibiOS_2.6.4/os/ports/GCC/ARMCMx/chcore_v7m.c" 1
 272 000e 83F31188 		msr     BASEPRI, r3
 273              	@ 0 "" 2
 274              		.thumb
 275              	.LBE8:
 276              		.loc 1 56 0
 277 0012 BDE80840 		pop	{r3, lr}
 278              		.loc 1 55 0
 279 0016 FFF7FEBF 		b	_port_irq_epilogue
 280              	.LVL13:
 281              		.cfi_endproc
 282              	.LFE7:
 283              		.size	SysTickVector, .-SysTickVector
 284 001a 00BF     		.section	.text._port_switch,"ax",%progbits
 285              		.align	2
ARM GAS  /tmp/ccIgVMD4.s 			page 6


 286              		.global	_port_switch
 287              		.thumb
 288              		.thumb_func
 289              		.type	_port_switch, %function
 290              	_port_switch:
 291              	.LFB12:
 292              		.loc 1 236 0
 293              		.cfi_startproc
 294              		@ Naked Function: prologue and epilogue provided by programmer.
 295              		@ args = 0, pretend = 0, frame = 0
 296              		@ frame_needed = 0, uses_anonymous_args = 0
 297              	.LVL14:
 298              		.loc 1 238 0
 299              	@ 238 "../ChibiOS_2.6.4/os/ports/GCC/ARMCMx/chcore_v7m.c" 1
 300 0000 2DE9F04F 		push    {r4, r5, r6, r7, r8, r9, r10, r11, lr}
 301              	@ 0 "" 2
 302              		.loc 1 244 0
 303              	@ 244 "../ChibiOS_2.6.4/os/ports/GCC/ARMCMx/chcore_v7m.c" 1
 304 0004 C1F80CD0 		str     sp, [r1, #12]                          
 305 0008 D0F80CD0 		ldr     sp, [r0, #12]
 306              	@ 0 "" 2
 307              		.loc 1 250 0
 308              	@ 250 "../ChibiOS_2.6.4/os/ports/GCC/ARMCMx/chcore_v7m.c" 1
 309 000c BDE8F08F 		pop     {r4, r5, r6, r7, r8, r9, r10, r11, pc}
 310              	@ 0 "" 2
 311              		.loc 1 252 0
 312              		.thumb
 313              		.cfi_endproc
 314              	.LFE12:
 315              		.size	_port_switch, .-_port_switch
 316              		.section	.text._port_thread_start,"ax",%progbits
 317              		.align	2
 318              		.global	_port_thread_start
 319              		.thumb
 320              		.thumb_func
 321              		.type	_port_thread_start, %function
 322              	_port_thread_start:
 323              	.LFB13:
 324              		.loc 1 259 0
 325              		.cfi_startproc
 326              		@ args = 0, pretend = 0, frame = 0
 327              		@ frame_needed = 0, uses_anonymous_args = 0
 328              		@ link register save eliminated.
 329              	.LBB9:
 330              		.loc 1 261 0
 331 0000 0023     		movs	r3, #0
 332              	@ 261 "../ChibiOS_2.6.4/os/ports/GCC/ARMCMx/chcore_v7m.c" 1
 333 0002 83F31188 		msr     BASEPRI, r3
 334              	@ 0 "" 2
 335              		.thumb
 336              	.LBE9:
 337              		.loc 1 262 0
 338              	@ 262 "../ChibiOS_2.6.4/os/ports/GCC/ARMCMx/chcore_v7m.c" 1
 339 0006 2846     		mov     r0, r5                                 
 340 0008 A047     		blx     r4                                     
 341 000a FFF7FEFF 		bl      chThdExit
 342              	@ 0 "" 2
ARM GAS  /tmp/ccIgVMD4.s 			page 7


 343              		.thumb
 344 000e 7047     		bx	lr
 345              		.cfi_endproc
 346              	.LFE13:
 347              		.size	_port_thread_start, .-_port_thread_start
 348              		.text
 349              	.Letext0:
 350              		.file 2 "/usr/include/newlib/machine/_default_types.h"
 351              		.file 3 "/usr/include/newlib/stdint.h"
 352              		.file 4 "../ChibiOS_2.6.4/os/ports/GCC/ARMCMx/chtypes.h"
 353              		.file 5 "../ChibiOS_2.6.4/os/kernel/include/chlists.h"
 354              		.file 6 "../ChibiOS_2.6.4/os/kernel/include/chthreads.h"
 355              		.file 7 "../ChibiOS_2.6.4/os/ports/GCC/ARMCMx/chcore_v7m.h"
 356              		.file 8 "../ChibiOS_2.6.4/os/ports/common/ARMCMx/nvic.h"
 357              		.file 9 "../ChibiOS_2.6.4/os/kernel/include/chschd.h"
 358              		.file 10 "../ChibiOS_2.6.4/os/kernel/include/chmtx.h"
 359              		.file 11 "../ChibiOS_2.6.4/os/kernel/include/chsys.h"
 360              		.section	.debug_info,"",%progbits
 361              	.Ldebug_info0:
 362 0000 F0070000 		.4byte	0x7f0
 363 0004 0400     		.2byte	0x4
 364 0006 00000000 		.4byte	.Ldebug_abbrev0
 365 000a 04       		.byte	0x4
 366 000b 01       		.uleb128 0x1
 367 000c A9010000 		.4byte	.LASF96
 368 0010 01       		.byte	0x1
 369 0011 C9020000 		.4byte	.LASF97
 370 0015 70020000 		.4byte	.LASF98
 371 0019 18000000 		.4byte	.Ldebug_ranges0+0x18
 372 001d 00000000 		.4byte	0
 373 0021 00000000 		.4byte	.Ldebug_line0
 374 0025 02       		.uleb128 0x2
 375 0026 04       		.byte	0x4
 376 0027 05       		.byte	0x5
 377 0028 696E7400 		.ascii	"int\000"
 378 002c 03       		.uleb128 0x3
 379 002d 04       		.byte	0x4
 380 002e 07       		.byte	0x7
 381 002f 23010000 		.4byte	.LASF0
 382 0033 03       		.uleb128 0x3
 383 0034 01       		.byte	0x1
 384 0035 06       		.byte	0x6
 385 0036 7B000000 		.4byte	.LASF1
 386 003a 04       		.uleb128 0x4
 387 003b 0D000000 		.4byte	.LASF5
 388 003f 02       		.byte	0x2
 389 0040 1C       		.byte	0x1c
 390 0041 45000000 		.4byte	0x45
 391 0045 03       		.uleb128 0x3
 392 0046 01       		.byte	0x1
 393 0047 08       		.byte	0x8
 394 0048 2D030000 		.4byte	.LASF2
 395 004c 03       		.uleb128 0x3
 396 004d 02       		.byte	0x2
 397 004e 05       		.byte	0x5
 398 004f 4B030000 		.4byte	.LASF3
 399 0053 03       		.uleb128 0x3
ARM GAS  /tmp/ccIgVMD4.s 			page 8


 400 0054 02       		.byte	0x2
 401 0055 07       		.byte	0x7
 402 0056 80010000 		.4byte	.LASF4
 403 005a 04       		.uleb128 0x4
 404 005b EC030000 		.4byte	.LASF6
 405 005f 02       		.byte	0x2
 406 0060 37       		.byte	0x37
 407 0061 65000000 		.4byte	0x65
 408 0065 03       		.uleb128 0x3
 409 0066 04       		.byte	0x4
 410 0067 05       		.byte	0x5
 411 0068 A1000000 		.4byte	.LASF7
 412 006c 04       		.uleb128 0x4
 413 006d E0000000 		.4byte	.LASF8
 414 0071 02       		.byte	0x2
 415 0072 38       		.byte	0x38
 416 0073 77000000 		.4byte	0x77
 417 0077 03       		.uleb128 0x3
 418 0078 04       		.byte	0x4
 419 0079 07       		.byte	0x7
 420 007a 4B010000 		.4byte	.LASF9
 421 007e 03       		.uleb128 0x3
 422 007f 08       		.byte	0x8
 423 0080 05       		.byte	0x5
 424 0081 6D000000 		.4byte	.LASF10
 425 0085 03       		.uleb128 0x3
 426 0086 08       		.byte	0x8
 427 0087 07       		.byte	0x7
 428 0088 40000000 		.4byte	.LASF11
 429 008c 04       		.uleb128 0x4
 430 008d 30040000 		.4byte	.LASF12
 431 0091 03       		.byte	0x3
 432 0092 2A       		.byte	0x2a
 433 0093 3A000000 		.4byte	0x3a
 434 0097 04       		.uleb128 0x4
 435 0098 25030000 		.4byte	.LASF13
 436 009c 03       		.byte	0x3
 437 009d 41       		.byte	0x41
 438 009e 5A000000 		.4byte	0x5a
 439 00a2 04       		.uleb128 0x4
 440 00a3 9B030000 		.4byte	.LASF14
 441 00a7 03       		.byte	0x3
 442 00a8 42       		.byte	0x42
 443 00a9 6C000000 		.4byte	0x6c
 444 00ad 03       		.uleb128 0x3
 445 00ae 01       		.byte	0x1
 446 00af 02       		.byte	0x2
 447 00b0 1F030000 		.4byte	.LASF15
 448 00b4 04       		.uleb128 0x4
 449 00b5 4A020000 		.4byte	.LASF16
 450 00b9 04       		.byte	0x4
 451 00ba 2C       		.byte	0x2c
 452 00bb 8C000000 		.4byte	0x8c
 453 00bf 04       		.uleb128 0x4
 454 00c0 B7000000 		.4byte	.LASF17
 455 00c4 04       		.byte	0x4
 456 00c5 2D       		.byte	0x2d
ARM GAS  /tmp/ccIgVMD4.s 			page 9


 457 00c6 8C000000 		.4byte	0x8c
 458 00ca 04       		.uleb128 0x4
 459 00cb 03030000 		.4byte	.LASF18
 460 00cf 04       		.byte	0x4
 461 00d0 2E       		.byte	0x2e
 462 00d1 8C000000 		.4byte	0x8c
 463 00d5 04       		.uleb128 0x4
 464 00d6 97000000 		.4byte	.LASF19
 465 00da 04       		.byte	0x4
 466 00db 2F       		.byte	0x2f
 467 00dc 8C000000 		.4byte	0x8c
 468 00e0 04       		.uleb128 0x4
 469 00e1 17030000 		.4byte	.LASF20
 470 00e5 04       		.byte	0x4
 471 00e6 30       		.byte	0x30
 472 00e7 A2000000 		.4byte	0xa2
 473 00eb 04       		.uleb128 0x4
 474 00ec 98010000 		.4byte	.LASF21
 475 00f0 04       		.byte	0x4
 476 00f1 31       		.byte	0x31
 477 00f2 97000000 		.4byte	0x97
 478 00f6 04       		.uleb128 0x4
 479 00f7 5E020000 		.4byte	.LASF22
 480 00fb 04       		.byte	0x4
 481 00fc 33       		.byte	0x33
 482 00fd A2000000 		.4byte	0xa2
 483 0101 04       		.uleb128 0x4
 484 0102 D7030000 		.4byte	.LASF23
 485 0106 04       		.byte	0x4
 486 0107 35       		.byte	0x35
 487 0108 A2000000 		.4byte	0xa2
 488 010c 04       		.uleb128 0x4
 489 010d 89030000 		.4byte	.LASF24
 490 0111 05       		.byte	0x5
 491 0112 2A       		.byte	0x2a
 492 0113 17010000 		.4byte	0x117
 493 0117 05       		.uleb128 0x5
 494 0118 89030000 		.4byte	.LASF24
 495 011c 48       		.byte	0x48
 496 011d 06       		.byte	0x6
 497 011e 5E       		.byte	0x5e
 498 011f 14020000 		.4byte	0x214
 499 0123 06       		.uleb128 0x6
 500 0124 7A030000 		.4byte	.LASF25
 501 0128 06       		.byte	0x6
 502 0129 5F       		.byte	0x5f
 503 012a 35020000 		.4byte	0x235
 504 012e 00       		.byte	0
 505 012f 06       		.uleb128 0x6
 506 0130 10030000 		.4byte	.LASF26
 507 0134 06       		.byte	0x6
 508 0135 61       		.byte	0x61
 509 0136 35020000 		.4byte	0x235
 510 013a 04       		.byte	0x4
 511 013b 06       		.uleb128 0x6
 512 013c 66000000 		.4byte	.LASF27
 513 0140 06       		.byte	0x6
ARM GAS  /tmp/ccIgVMD4.s 			page 10


 514 0141 63       		.byte	0x63
 515 0142 E0000000 		.4byte	0xe0
 516 0146 08       		.byte	0x8
 517 0147 06       		.uleb128 0x6
 518 0148 64040000 		.4byte	.LASF28
 519 014c 06       		.byte	0x6
 520 014d 64       		.byte	0x64
 521 014e 57030000 		.4byte	0x357
 522 0152 0C       		.byte	0xc
 523 0153 06       		.uleb128 0x6
 524 0154 D3000000 		.4byte	.LASF29
 525 0158 06       		.byte	0x6
 526 0159 66       		.byte	0x66
 527 015a 35020000 		.4byte	0x235
 528 015e 10       		.byte	0x10
 529 015f 06       		.uleb128 0x6
 530 0160 A6020000 		.4byte	.LASF30
 531 0164 06       		.byte	0x6
 532 0165 67       		.byte	0x67
 533 0166 35020000 		.4byte	0x235
 534 016a 14       		.byte	0x14
 535 016b 06       		.uleb128 0x6
 536 016c 4A040000 		.4byte	.LASF31
 537 0170 06       		.byte	0x6
 538 0171 6E       		.byte	0x6e
 539 0172 D0050000 		.4byte	0x5d0
 540 0176 18       		.byte	0x18
 541 0177 06       		.uleb128 0x6
 542 0178 55030000 		.4byte	.LASF32
 543 017c 06       		.byte	0x6
 544 017d 79       		.byte	0x79
 545 017e BF000000 		.4byte	0xbf
 546 0182 1C       		.byte	0x1c
 547 0183 06       		.uleb128 0x6
 548 0184 81030000 		.4byte	.LASF33
 549 0188 06       		.byte	0x6
 550 0189 7D       		.byte	0x7d
 551 018a B4000000 		.4byte	0xb4
 552 018e 1D       		.byte	0x1d
 553 018f 06       		.uleb128 0x6
 554 0190 14040000 		.4byte	.LASF34
 555 0194 06       		.byte	0x6
 556 0195 82       		.byte	0x82
 557 0196 CA000000 		.4byte	0xca
 558 019a 1E       		.byte	0x1e
 559 019b 06       		.uleb128 0x6
 560 019c 5D030000 		.4byte	.LASF35
 561 01a0 06       		.byte	0x6
 562 01a1 88       		.byte	0x88
 563 01a2 D5000000 		.4byte	0xd5
 564 01a6 1F       		.byte	0x1f
 565 01a7 06       		.uleb128 0x6
 566 01a8 F6030000 		.4byte	.LASF36
 567 01ac 06       		.byte	0x6
 568 01ad 8F       		.byte	0x8f
 569 01ae F8040000 		.4byte	0x4f8
 570 01b2 20       		.byte	0x20
ARM GAS  /tmp/ccIgVMD4.s 			page 11


 571 01b3 07       		.uleb128 0x7
 572 01b4 705F7500 		.ascii	"p_u\000"
 573 01b8 06       		.byte	0x6
 574 01b9 B4       		.byte	0xb4
 575 01ba 9B050000 		.4byte	0x59b
 576 01be 24       		.byte	0x24
 577 01bf 06       		.uleb128 0x6
 578 01c0 6A040000 		.4byte	.LASF37
 579 01c4 06       		.byte	0x6
 580 01c5 B9       		.byte	0xb9
 581 01c6 5B020000 		.4byte	0x25b
 582 01ca 28       		.byte	0x28
 583 01cb 06       		.uleb128 0x6
 584 01cc 09040000 		.4byte	.LASF38
 585 01d0 06       		.byte	0x6
 586 01d1 BF       		.byte	0xbf
 587 01d2 3B020000 		.4byte	0x23b
 588 01d6 2C       		.byte	0x2c
 589 01d7 06       		.uleb128 0x6
 590 01d8 00000000 		.4byte	.LASF39
 591 01dc 06       		.byte	0x6
 592 01dd C3       		.byte	0xc3
 593 01de EB000000 		.4byte	0xeb
 594 01e2 34       		.byte	0x34
 595 01e3 06       		.uleb128 0x6
 596 01e4 90030000 		.4byte	.LASF40
 597 01e8 06       		.byte	0x6
 598 01e9 C9       		.byte	0xc9
 599 01ea F6000000 		.4byte	0xf6
 600 01ee 38       		.byte	0x38
 601 01ef 06       		.uleb128 0x6
 602 01f0 41030000 		.4byte	.LASF41
 603 01f4 06       		.byte	0x6
 604 01f5 D0       		.byte	0xd0
 605 01f6 E2050000 		.4byte	0x5e2
 606 01fa 3C       		.byte	0x3c
 607 01fb 06       		.uleb128 0x6
 608 01fc E1030000 		.4byte	.LASF42
 609 0200 06       		.byte	0x6
 610 0201 D4       		.byte	0xd4
 611 0202 E0000000 		.4byte	0xe0
 612 0206 40       		.byte	0x40
 613 0207 06       		.uleb128 0x6
 614 0208 87000000 		.4byte	.LASF43
 615 020c 06       		.byte	0x6
 616 020d DA       		.byte	0xda
 617 020e 71020000 		.4byte	0x271
 618 0212 44       		.byte	0x44
 619 0213 00       		.byte	0
 620 0214 08       		.uleb128 0x8
 621 0215 08       		.byte	0x8
 622 0216 05       		.byte	0x5
 623 0217 61       		.byte	0x61
 624 0218 35020000 		.4byte	0x235
 625 021c 06       		.uleb128 0x6
 626 021d 7A030000 		.4byte	.LASF25
 627 0221 05       		.byte	0x5
ARM GAS  /tmp/ccIgVMD4.s 			page 12


 628 0222 62       		.byte	0x62
 629 0223 35020000 		.4byte	0x235
 630 0227 00       		.byte	0
 631 0228 06       		.uleb128 0x6
 632 0229 10030000 		.4byte	.LASF26
 633 022d 05       		.byte	0x5
 634 022e 64       		.byte	0x64
 635 022f 35020000 		.4byte	0x235
 636 0233 04       		.byte	0x4
 637 0234 00       		.byte	0
 638 0235 09       		.uleb128 0x9
 639 0236 04       		.byte	0x4
 640 0237 0C010000 		.4byte	0x10c
 641 023b 04       		.uleb128 0x4
 642 023c BC020000 		.4byte	.LASF44
 643 0240 05       		.byte	0x5
 644 0241 66       		.byte	0x66
 645 0242 14020000 		.4byte	0x214
 646 0246 08       		.uleb128 0x8
 647 0247 04       		.byte	0x4
 648 0248 05       		.byte	0x5
 649 0249 6B       		.byte	0x6b
 650 024a 5B020000 		.4byte	0x25b
 651 024e 06       		.uleb128 0x6
 652 024f 7A030000 		.4byte	.LASF25
 653 0253 05       		.byte	0x5
 654 0254 6D       		.byte	0x6d
 655 0255 35020000 		.4byte	0x235
 656 0259 00       		.byte	0
 657 025a 00       		.byte	0
 658 025b 04       		.uleb128 0x4
 659 025c 52020000 		.4byte	.LASF45
 660 0260 05       		.byte	0x5
 661 0261 70       		.byte	0x70
 662 0262 46020000 		.4byte	0x246
 663 0266 04       		.uleb128 0x4
 664 0267 08010000 		.4byte	.LASF46
 665 026b 07       		.byte	0x7
 666 026c E5       		.byte	0xe5
 667 026d 71020000 		.4byte	0x271
 668 0271 0A       		.uleb128 0xa
 669 0272 04       		.byte	0x4
 670 0273 05       		.uleb128 0x5
 671 0274 37010000 		.4byte	.LASF47
 672 0278 20       		.byte	0x20
 673 0279 07       		.byte	0x7
 674 027a ED       		.byte	0xed
 675 027b DB020000 		.4byte	0x2db
 676 027f 07       		.uleb128 0x7
 677 0280 723000   		.ascii	"r0\000"
 678 0283 07       		.byte	0x7
 679 0284 EE       		.byte	0xee
 680 0285 66020000 		.4byte	0x266
 681 0289 00       		.byte	0
 682 028a 07       		.uleb128 0x7
 683 028b 723100   		.ascii	"r1\000"
 684 028e 07       		.byte	0x7
ARM GAS  /tmp/ccIgVMD4.s 			page 13


 685 028f EF       		.byte	0xef
 686 0290 66020000 		.4byte	0x266
 687 0294 04       		.byte	0x4
 688 0295 07       		.uleb128 0x7
 689 0296 723200   		.ascii	"r2\000"
 690 0299 07       		.byte	0x7
 691 029a F0       		.byte	0xf0
 692 029b 66020000 		.4byte	0x266
 693 029f 08       		.byte	0x8
 694 02a0 07       		.uleb128 0x7
 695 02a1 723300   		.ascii	"r3\000"
 696 02a4 07       		.byte	0x7
 697 02a5 F1       		.byte	0xf1
 698 02a6 66020000 		.4byte	0x266
 699 02aa 0C       		.byte	0xc
 700 02ab 07       		.uleb128 0x7
 701 02ac 72313200 		.ascii	"r12\000"
 702 02b0 07       		.byte	0x7
 703 02b1 F2       		.byte	0xf2
 704 02b2 66020000 		.4byte	0x266
 705 02b6 10       		.byte	0x10
 706 02b7 06       		.uleb128 0x6
 707 02b8 30010000 		.4byte	.LASF48
 708 02bc 07       		.byte	0x7
 709 02bd F3       		.byte	0xf3
 710 02be 66020000 		.4byte	0x266
 711 02c2 14       		.byte	0x14
 712 02c3 07       		.uleb128 0x7
 713 02c4 706300   		.ascii	"pc\000"
 714 02c7 07       		.byte	0x7
 715 02c8 F4       		.byte	0xf4
 716 02c9 66020000 		.4byte	0x266
 717 02cd 18       		.byte	0x18
 718 02ce 06       		.uleb128 0x6
 719 02cf 67030000 		.4byte	.LASF49
 720 02d3 07       		.byte	0x7
 721 02d4 F5       		.byte	0xf5
 722 02d5 66020000 		.4byte	0x266
 723 02d9 1C       		.byte	0x1c
 724 02da 00       		.byte	0
 725 02db 0B       		.uleb128 0xb
 726 02dc 02040000 		.4byte	.LASF50
 727 02e0 24       		.byte	0x24
 728 02e1 07       		.byte	0x7
 729 02e2 0C01     		.2byte	0x10c
 730 02e4 57030000 		.4byte	0x357
 731 02e8 0C       		.uleb128 0xc
 732 02e9 723400   		.ascii	"r4\000"
 733 02ec 07       		.byte	0x7
 734 02ed 1F01     		.2byte	0x11f
 735 02ef 66020000 		.4byte	0x266
 736 02f3 00       		.byte	0
 737 02f4 0C       		.uleb128 0xc
 738 02f5 723500   		.ascii	"r5\000"
 739 02f8 07       		.byte	0x7
 740 02f9 2001     		.2byte	0x120
 741 02fb 66020000 		.4byte	0x266
ARM GAS  /tmp/ccIgVMD4.s 			page 14


 742 02ff 04       		.byte	0x4
 743 0300 0C       		.uleb128 0xc
 744 0301 723600   		.ascii	"r6\000"
 745 0304 07       		.byte	0x7
 746 0305 2101     		.2byte	0x121
 747 0307 66020000 		.4byte	0x266
 748 030b 08       		.byte	0x8
 749 030c 0C       		.uleb128 0xc
 750 030d 723700   		.ascii	"r7\000"
 751 0310 07       		.byte	0x7
 752 0311 2201     		.2byte	0x122
 753 0313 66020000 		.4byte	0x266
 754 0317 0C       		.byte	0xc
 755 0318 0C       		.uleb128 0xc
 756 0319 723800   		.ascii	"r8\000"
 757 031c 07       		.byte	0x7
 758 031d 2301     		.2byte	0x123
 759 031f 66020000 		.4byte	0x266
 760 0323 10       		.byte	0x10
 761 0324 0C       		.uleb128 0xc
 762 0325 723900   		.ascii	"r9\000"
 763 0328 07       		.byte	0x7
 764 0329 2401     		.2byte	0x124
 765 032b 66020000 		.4byte	0x266
 766 032f 14       		.byte	0x14
 767 0330 0C       		.uleb128 0xc
 768 0331 72313000 		.ascii	"r10\000"
 769 0335 07       		.byte	0x7
 770 0336 2501     		.2byte	0x125
 771 0338 66020000 		.4byte	0x266
 772 033c 18       		.byte	0x18
 773 033d 0C       		.uleb128 0xc
 774 033e 72313100 		.ascii	"r11\000"
 775 0342 07       		.byte	0x7
 776 0343 2601     		.2byte	0x126
 777 0345 66020000 		.4byte	0x266
 778 0349 1C       		.byte	0x1c
 779 034a 0C       		.uleb128 0xc
 780 034b 6C7200   		.ascii	"lr\000"
 781 034e 07       		.byte	0x7
 782 034f 2701     		.2byte	0x127
 783 0351 66020000 		.4byte	0x266
 784 0355 20       		.byte	0x20
 785 0356 00       		.byte	0
 786 0357 0B       		.uleb128 0xb
 787 0358 78010000 		.4byte	.LASF51
 788 035c 04       		.byte	0x4
 789 035d 07       		.byte	0x7
 790 035e 3101     		.2byte	0x131
 791 0360 72030000 		.4byte	0x372
 792 0364 0C       		.uleb128 0xc
 793 0365 72313300 		.ascii	"r13\000"
 794 0369 07       		.byte	0x7
 795 036a 3201     		.2byte	0x132
 796 036c 72030000 		.4byte	0x372
 797 0370 00       		.byte	0
 798 0371 00       		.byte	0
ARM GAS  /tmp/ccIgVMD4.s 			page 15


 799 0372 09       		.uleb128 0x9
 800 0373 04       		.byte	0x4
 801 0374 DB020000 		.4byte	0x2db
 802 0378 04       		.uleb128 0x4
 803 0379 C8030000 		.4byte	.LASF52
 804 037d 08       		.byte	0x8
 805 037e 3A       		.byte	0x3a
 806 037f 83030000 		.4byte	0x383
 807 0383 0D       		.uleb128 0xd
 808 0384 A2000000 		.4byte	0xa2
 809 0388 03       		.uleb128 0x3
 810 0389 04       		.byte	0x4
 811 038a 07       		.byte	0x7
 812 038b 98020000 		.4byte	.LASF53
 813 038f 08       		.uleb128 0x8
 814 0390 8C       		.byte	0x8c
 815 0391 08       		.byte	0x8
 816 0392 89       		.byte	0x89
 817 0393 94040000 		.4byte	0x494
 818 0397 06       		.uleb128 0x6
 819 0398 60000000 		.4byte	.LASF54
 820 039c 08       		.byte	0x8
 821 039d 8A       		.byte	0x8a
 822 039e 78030000 		.4byte	0x378
 823 03a2 00       		.byte	0
 824 03a3 06       		.uleb128 0x6
 825 03a4 93010000 		.4byte	.LASF55
 826 03a8 08       		.byte	0x8
 827 03a9 8B       		.byte	0x8b
 828 03aa 78030000 		.4byte	0x378
 829 03ae 04       		.byte	0x4
 830 03af 06       		.uleb128 0x6
 831 03b0 5D010000 		.4byte	.LASF56
 832 03b4 08       		.byte	0x8
 833 03b5 8C       		.byte	0x8c
 834 03b6 78030000 		.4byte	0x378
 835 03ba 08       		.byte	0x8
 836 03bb 06       		.uleb128 0x6
 837 03bc 9E010000 		.4byte	.LASF57
 838 03c0 08       		.byte	0x8
 839 03c1 8D       		.byte	0x8d
 840 03c2 78030000 		.4byte	0x378
 841 03c6 0C       		.byte	0xc
 842 03c7 07       		.uleb128 0x7
 843 03c8 53435200 		.ascii	"SCR\000"
 844 03cc 08       		.byte	0x8
 845 03cd 8E       		.byte	0x8e
 846 03ce 78030000 		.4byte	0x378
 847 03d2 10       		.byte	0x10
 848 03d3 07       		.uleb128 0x7
 849 03d4 43435200 		.ascii	"CCR\000"
 850 03d8 08       		.byte	0x8
 851 03d9 8F       		.byte	0x8f
 852 03da 78030000 		.4byte	0x378
 853 03de 14       		.byte	0x14
 854 03df 06       		.uleb128 0x6
 855 03e0 FD030000 		.4byte	.LASF58
ARM GAS  /tmp/ccIgVMD4.s 			page 16


 856 03e4 08       		.byte	0x8
 857 03e5 90       		.byte	0x90
 858 03e6 A4040000 		.4byte	0x4a4
 859 03ea 18       		.byte	0x18
 860 03eb 06       		.uleb128 0x6
 861 03ec 3B030000 		.4byte	.LASF59
 862 03f0 08       		.byte	0x8
 863 03f1 91       		.byte	0x91
 864 03f2 78030000 		.4byte	0x378
 865 03f6 24       		.byte	0x24
 866 03f7 06       		.uleb128 0x6
 867 03f8 A1020000 		.4byte	.LASF60
 868 03fc 08       		.byte	0x8
 869 03fd 92       		.byte	0x92
 870 03fe 78030000 		.4byte	0x378
 871 0402 28       		.byte	0x28
 872 0403 06       		.uleb128 0x6
 873 0404 57040000 		.4byte	.LASF61
 874 0408 08       		.byte	0x8
 875 0409 93       		.byte	0x93
 876 040a 78030000 		.4byte	0x378
 877 040e 2C       		.byte	0x2c
 878 040f 06       		.uleb128 0x6
 879 0410 A4010000 		.4byte	.LASF62
 880 0414 08       		.byte	0x8
 881 0415 94       		.byte	0x94
 882 0416 78030000 		.4byte	0x378
 883 041a 30       		.byte	0x30
 884 041b 06       		.uleb128 0x6
 885 041c 31020000 		.4byte	.LASF63
 886 0420 08       		.byte	0x8
 887 0421 95       		.byte	0x95
 888 0422 78030000 		.4byte	0x378
 889 0426 34       		.byte	0x34
 890 0427 06       		.uleb128 0x6
 891 0428 DB000000 		.4byte	.LASF64
 892 042c 08       		.byte	0x8
 893 042d 96       		.byte	0x96
 894 042e 78030000 		.4byte	0x378
 895 0432 38       		.byte	0x38
 896 0433 06       		.uleb128 0x6
 897 0434 AC030000 		.4byte	.LASF65
 898 0438 08       		.byte	0x8
 899 0439 97       		.byte	0x97
 900 043a 78030000 		.4byte	0x378
 901 043e 3C       		.byte	0x3c
 902 043f 07       		.uleb128 0x7
 903 0440 50465200 		.ascii	"PFR\000"
 904 0444 08       		.byte	0x8
 905 0445 98       		.byte	0x98
 906 0446 B9040000 		.4byte	0x4b9
 907 044a 40       		.byte	0x40
 908 044b 07       		.uleb128 0x7
 909 044c 44465200 		.ascii	"DFR\000"
 910 0450 08       		.byte	0x8
 911 0451 99       		.byte	0x99
 912 0452 78030000 		.4byte	0x378
ARM GAS  /tmp/ccIgVMD4.s 			page 17


 913 0456 48       		.byte	0x48
 914 0457 07       		.uleb128 0x7
 915 0458 41445200 		.ascii	"ADR\000"
 916 045c 08       		.byte	0x8
 917 045d 9A       		.byte	0x9a
 918 045e 78030000 		.4byte	0x378
 919 0462 4C       		.byte	0x4c
 920 0463 06       		.uleb128 0x6
 921 0464 25040000 		.4byte	.LASF66
 922 0468 08       		.byte	0x8
 923 0469 9B       		.byte	0x9b
 924 046a CE040000 		.4byte	0x4ce
 925 046e 50       		.byte	0x50
 926 046f 07       		.uleb128 0x7
 927 0470 53415200 		.ascii	"SAR\000"
 928 0474 08       		.byte	0x8
 929 0475 9C       		.byte	0x9c
 930 0476 E3040000 		.4byte	0x4e3
 931 047a 60       		.byte	0x60
 932 047b 06       		.uleb128 0x6
 933 047c B1030000 		.4byte	.LASF67
 934 0480 08       		.byte	0x8
 935 0481 9D       		.byte	0x9d
 936 0482 E8040000 		.4byte	0x4e8
 937 0486 74       		.byte	0x74
 938 0487 06       		.uleb128 0x6
 939 0488 51040000 		.4byte	.LASF68
 940 048c 08       		.byte	0x8
 941 048d 9E       		.byte	0x9e
 942 048e 78030000 		.4byte	0x378
 943 0492 88       		.byte	0x88
 944 0493 00       		.byte	0
 945 0494 0E       		.uleb128 0xe
 946 0495 78030000 		.4byte	0x378
 947 0499 A4040000 		.4byte	0x4a4
 948 049d 0F       		.uleb128 0xf
 949 049e 88030000 		.4byte	0x388
 950 04a2 02       		.byte	0x2
 951 04a3 00       		.byte	0
 952 04a4 0D       		.uleb128 0xd
 953 04a5 94040000 		.4byte	0x494
 954 04a9 0E       		.uleb128 0xe
 955 04aa 78030000 		.4byte	0x378
 956 04ae B9040000 		.4byte	0x4b9
 957 04b2 0F       		.uleb128 0xf
 958 04b3 88030000 		.4byte	0x388
 959 04b7 01       		.byte	0x1
 960 04b8 00       		.byte	0
 961 04b9 0D       		.uleb128 0xd
 962 04ba A9040000 		.4byte	0x4a9
 963 04be 0E       		.uleb128 0xe
 964 04bf 78030000 		.4byte	0x378
 965 04c3 CE040000 		.4byte	0x4ce
 966 04c7 0F       		.uleb128 0xf
 967 04c8 88030000 		.4byte	0x388
 968 04cc 03       		.byte	0x3
 969 04cd 00       		.byte	0
ARM GAS  /tmp/ccIgVMD4.s 			page 18


 970 04ce 0D       		.uleb128 0xd
 971 04cf BE040000 		.4byte	0x4be
 972 04d3 0E       		.uleb128 0xe
 973 04d4 78030000 		.4byte	0x378
 974 04d8 E3040000 		.4byte	0x4e3
 975 04dc 0F       		.uleb128 0xf
 976 04dd 88030000 		.4byte	0x388
 977 04e1 04       		.byte	0x4
 978 04e2 00       		.byte	0
 979 04e3 0D       		.uleb128 0xd
 980 04e4 D3040000 		.4byte	0x4d3
 981 04e8 0D       		.uleb128 0xd
 982 04e9 D3040000 		.4byte	0x4d3
 983 04ed 04       		.uleb128 0x4
 984 04ee 17000000 		.4byte	.LASF69
 985 04f2 08       		.byte	0x8
 986 04f3 9F       		.byte	0x9f
 987 04f4 8F030000 		.4byte	0x38f
 988 04f8 0D       		.uleb128 0xd
 989 04f9 01010000 		.4byte	0x101
 990 04fd 08       		.uleb128 0x8
 991 04fe 1C       		.byte	0x1c
 992 04ff 09       		.byte	0x9
 993 0500 5E       		.byte	0x5e
 994 0501 4E050000 		.4byte	0x54e
 995 0505 06       		.uleb128 0x6
 996 0506 A4030000 		.4byte	.LASF70
 997 050a 09       		.byte	0x9
 998 050b 5F       		.byte	0x5f
 999 050c 3B020000 		.4byte	0x23b
 1000 0510 00       		.byte	0
 1001 0511 06       		.uleb128 0x6
 1002 0512 6C030000 		.4byte	.LASF71
 1003 0516 09       		.byte	0x9
 1004 0517 60       		.byte	0x60
 1005 0518 E0000000 		.4byte	0xe0
 1006 051c 08       		.byte	0x8
 1007 051d 06       		.uleb128 0x6
 1008 051e AE020000 		.4byte	.LASF72
 1009 0522 09       		.byte	0x9
 1010 0523 62       		.byte	0x62
 1011 0524 57030000 		.4byte	0x357
 1012 0528 0C       		.byte	0xc
 1013 0529 06       		.uleb128 0x6
 1014 052a B4020000 		.4byte	.LASF73
 1015 052e 09       		.byte	0x9
 1016 052f 65       		.byte	0x65
 1017 0530 35020000 		.4byte	0x235
 1018 0534 10       		.byte	0x10
 1019 0535 06       		.uleb128 0x6
 1020 0536 FB020000 		.4byte	.LASF74
 1021 053a 09       		.byte	0x9
 1022 053b 66       		.byte	0x66
 1023 053c 35020000 		.4byte	0x235
 1024 0540 14       		.byte	0x14
 1025 0541 06       		.uleb128 0x6
 1026 0542 B9030000 		.4byte	.LASF75
ARM GAS  /tmp/ccIgVMD4.s 			page 19


 1027 0546 09       		.byte	0x9
 1028 0547 69       		.byte	0x69
 1029 0548 35020000 		.4byte	0x235
 1030 054c 18       		.byte	0x18
 1031 054d 00       		.byte	0
 1032 054e 04       		.uleb128 0x4
 1033 054f 1B040000 		.4byte	.LASF76
 1034 0553 09       		.byte	0x9
 1035 0554 6B       		.byte	0x6b
 1036 0555 FD040000 		.4byte	0x4fd
 1037 0559 05       		.uleb128 0x5
 1038 055a 6A020000 		.4byte	.LASF77
 1039 055e 10       		.byte	0x10
 1040 055f 0A       		.byte	0xa
 1041 0560 2C       		.byte	0x2c
 1042 0561 8A050000 		.4byte	0x58a
 1043 0565 06       		.uleb128 0x6
 1044 0566 8F000000 		.4byte	.LASF78
 1045 056a 0A       		.byte	0xa
 1046 056b 2D       		.byte	0x2d
 1047 056c 3B020000 		.4byte	0x23b
 1048 0570 00       		.byte	0
 1049 0571 06       		.uleb128 0x6
 1050 0572 5C040000 		.4byte	.LASF79
 1051 0576 0A       		.byte	0xa
 1052 0577 2F       		.byte	0x2f
 1053 0578 35020000 		.4byte	0x235
 1054 057c 08       		.byte	0x8
 1055 057d 06       		.uleb128 0x6
 1056 057e D0030000 		.4byte	.LASF80
 1057 0582 0A       		.byte	0xa
 1058 0583 31       		.byte	0x31
 1059 0584 8A050000 		.4byte	0x58a
 1060 0588 0C       		.byte	0xc
 1061 0589 00       		.byte	0
 1062 058a 09       		.uleb128 0x9
 1063 058b 04       		.byte	0x4
 1064 058c 59050000 		.4byte	0x559
 1065 0590 04       		.uleb128 0x4
 1066 0591 6A020000 		.4byte	.LASF77
 1067 0595 0A       		.byte	0xa
 1068 0596 33       		.byte	0x33
 1069 0597 59050000 		.4byte	0x559
 1070 059b 10       		.uleb128 0x10
 1071 059c 04       		.byte	0x4
 1072 059d 06       		.byte	0x6
 1073 059e 96       		.byte	0x96
 1074 059f D0050000 		.4byte	0x5d0
 1075 05a3 11       		.uleb128 0x11
 1076 05a4 06000000 		.4byte	.LASF81
 1077 05a8 06       		.byte	0x6
 1078 05a9 9D       		.byte	0x9d
 1079 05aa EB000000 		.4byte	0xeb
 1080 05ae 11       		.uleb128 0x11
 1081 05af 57000000 		.4byte	.LASF82
 1082 05b3 06       		.byte	0x6
 1083 05b4 A4       		.byte	0xa4
ARM GAS  /tmp/ccIgVMD4.s 			page 20


 1084 05b5 EB000000 		.4byte	0xeb
 1085 05b9 11       		.uleb128 0x11
 1086 05ba 43040000 		.4byte	.LASF83
 1087 05be 06       		.byte	0x6
 1088 05bf AB       		.byte	0xab
 1089 05c0 71020000 		.4byte	0x271
 1090 05c4 11       		.uleb128 0x11
 1091 05c5 73030000 		.4byte	.LASF84
 1092 05c9 06       		.byte	0x6
 1093 05ca B2       		.byte	0xb2
 1094 05cb F6000000 		.4byte	0xf6
 1095 05cf 00       		.byte	0
 1096 05d0 09       		.uleb128 0x9
 1097 05d1 04       		.byte	0x4
 1098 05d2 D6050000 		.4byte	0x5d6
 1099 05d6 12       		.uleb128 0x12
 1100 05d7 DB050000 		.4byte	0x5db
 1101 05db 03       		.uleb128 0x3
 1102 05dc 01       		.byte	0x1
 1103 05dd 08       		.byte	0x8
 1104 05de C3030000 		.4byte	.LASF85
 1105 05e2 09       		.uleb128 0x9
 1106 05e3 04       		.byte	0x4
 1107 05e4 90050000 		.4byte	0x590
 1108 05e8 13       		.uleb128 0x13
 1109 05e9 62010000 		.4byte	.LASF86
 1110 05ed 01       		.byte	0x1
 1111 05ee CF       		.byte	0xcf
 1112 05ef 00000000 		.4byte	.LFB11
 1113 05f3 06000000 		.4byte	.LFE11-.LFB11
 1114 05f7 01       		.uleb128 0x1
 1115 05f8 9C       		.byte	0x9c
 1116 05f9 07060000 		.4byte	0x607
 1117 05fd 14       		.uleb128 0x14
 1118 05fe 04000000 		.4byte	.LVL0
 1119 0602 CE070000 		.4byte	0x7ce
 1120 0606 00       		.byte	0
 1121 0607 13       		.uleb128 0x13
 1122 0608 AA000000 		.4byte	.LASF87
 1123 060c 01       		.byte	0x1
 1124 060d 41       		.byte	0x41
 1125 060e 00000000 		.4byte	.LFB8
 1126 0612 12000000 		.4byte	.LFE8-.LFB8
 1127 0616 01       		.uleb128 0x1
 1128 0617 9C       		.byte	0x9c
 1129 0618 43060000 		.4byte	0x643
 1130 061c 15       		.uleb128 0x15
 1131 061d 0B030000 		.4byte	.LASF88
 1132 0621 01       		.byte	0x1
 1133 0622 42       		.byte	0x42
 1134 0623 43060000 		.4byte	0x643
 1135 0627 00000000 		.4byte	.LLST0
 1136 062b 16       		.uleb128 0x16
 1137 062c 0A000000 		.4byte	.LBB2
 1138 0630 08000000 		.4byte	.LBE2-.LBB2
 1139 0634 17       		.uleb128 0x17
 1140 0635 746D7000 		.ascii	"tmp\000"
ARM GAS  /tmp/ccIgVMD4.s 			page 21


 1141 0639 01       		.byte	0x1
 1142 063a 51       		.byte	0x51
 1143 063b A2000000 		.4byte	0xa2
 1144 063f 01       		.uleb128 0x1
 1145 0640 53       		.byte	0x53
 1146 0641 00       		.byte	0
 1147 0642 00       		.byte	0
 1148 0643 09       		.uleb128 0x9
 1149 0644 04       		.byte	0x4
 1150 0645 73020000 		.4byte	0x273
 1151 0649 13       		.uleb128 0x13
 1152 064a 38040000 		.4byte	.LASF89
 1153 064e 01       		.byte	0x1
 1154 064f 76       		.byte	0x76
 1155 0650 00000000 		.4byte	.LFB9
 1156 0654 34000000 		.4byte	.LFE9-.LFB9
 1157 0658 01       		.uleb128 0x1
 1158 0659 9C       		.byte	0x9c
 1159 065a A5060000 		.4byte	0x6a5
 1160 065e 18       		.uleb128 0x18
 1161 065f 20000000 		.4byte	.LVL4
 1162 0663 D5070000 		.4byte	0x7d5
 1163 0667 76060000 		.4byte	0x676
 1164 066b 19       		.uleb128 0x19
 1165 066c 01       		.uleb128 0x1
 1166 066d 51       		.byte	0x51
 1167 066e 01       		.uleb128 0x1
 1168 066f 40       		.byte	0x40
 1169 0670 19       		.uleb128 0x19
 1170 0671 01       		.uleb128 0x1
 1171 0672 50       		.byte	0x50
 1172 0673 01       		.uleb128 0x1
 1173 0674 37       		.byte	0x37
 1174 0675 00       		.byte	0
 1175 0676 18       		.uleb128 0x18
 1176 0677 28000000 		.4byte	.LVL5
 1177 067b D5070000 		.4byte	0x7d5
 1178 067f 8F060000 		.4byte	0x68f
 1179 0683 19       		.uleb128 0x19
 1180 0684 01       		.uleb128 0x1
 1181 0685 51       		.byte	0x51
 1182 0686 02       		.uleb128 0x2
 1183 0687 08       		.byte	0x8
 1184 0688 20       		.byte	0x20
 1185 0689 19       		.uleb128 0x19
 1186 068a 01       		.uleb128 0x1
 1187 068b 50       		.byte	0x50
 1188 068c 01       		.uleb128 0x1
 1189 068d 3A       		.byte	0x3a
 1190 068e 00       		.byte	0
 1191 068f 1A       		.uleb128 0x1a
 1192 0690 34000000 		.4byte	.LVL6
 1193 0694 D5070000 		.4byte	0x7d5
 1194 0698 19       		.uleb128 0x19
 1195 0699 01       		.uleb128 0x1
 1196 069a 51       		.byte	0x51
 1197 069b 02       		.uleb128 0x2
ARM GAS  /tmp/ccIgVMD4.s 			page 22


 1198 069c 08       		.byte	0x8
 1199 069d 80       		.byte	0x80
 1200 069e 19       		.uleb128 0x19
 1201 069f 01       		.uleb128 0x1
 1202 06a0 50       		.byte	0x50
 1203 06a1 01       		.uleb128 0x1
 1204 06a2 3B       		.byte	0x3b
 1205 06a3 00       		.byte	0
 1206 06a4 00       		.byte	0
 1207 06a5 13       		.uleb128 0x13
 1208 06a6 37020000 		.4byte	.LASF90
 1209 06aa 01       		.byte	0x1
 1210 06ab 94       		.byte	0x94
 1211 06ac 00000000 		.4byte	.LFB10
 1212 06b0 7C000000 		.4byte	.LFE10-.LFB10
 1213 06b4 01       		.uleb128 0x1
 1214 06b5 9C       		.byte	0x9c
 1215 06b6 06070000 		.4byte	0x706
 1216 06ba 1B       		.uleb128 0x1b
 1217 06bb 00000000 		.4byte	.LBB3
 1218 06bf 06000000 		.4byte	.LBE3-.LBB3
 1219 06c3 D5060000 		.4byte	0x6d5
 1220 06c7 17       		.uleb128 0x17
 1221 06c8 746D7000 		.ascii	"tmp\000"
 1222 06cc 01       		.byte	0x1
 1223 06cd 96       		.byte	0x96
 1224 06ce A2000000 		.4byte	0xa2
 1225 06d2 01       		.uleb128 0x1
 1226 06d3 53       		.byte	0x53
 1227 06d4 00       		.byte	0
 1228 06d5 1C       		.uleb128 0x1c
 1229 06d6 00000000 		.4byte	.Ldebug_ranges0+0
 1230 06da EE060000 		.4byte	0x6ee
 1231 06de 15       		.uleb128 0x15
 1232 06df 0B030000 		.4byte	.LASF88
 1233 06e3 01       		.byte	0x1
 1234 06e4 98       		.byte	0x98
 1235 06e5 43060000 		.4byte	0x643
 1236 06e9 20000000 		.4byte	.LLST1
 1237 06ed 00       		.byte	0
 1238 06ee 16       		.uleb128 0x16
 1239 06ef 56000000 		.4byte	.LBB5
 1240 06f3 06000000 		.4byte	.LBE5-.LBB5
 1241 06f7 17       		.uleb128 0x17
 1242 06f8 746D7000 		.ascii	"tmp\000"
 1243 06fc 01       		.byte	0x1
 1244 06fd C5       		.byte	0xc5
 1245 06fe A2000000 		.4byte	0xa2
 1246 0702 01       		.uleb128 0x1
 1247 0703 53       		.byte	0x53
 1248 0704 00       		.byte	0
 1249 0705 00       		.byte	0
 1250 0706 13       		.uleb128 0x13
 1251 0707 32000000 		.4byte	.LASF91
 1252 070b 01       		.byte	0x1
 1253 070c 2F       		.byte	0x2f
 1254 070d 00000000 		.4byte	.LFB7
ARM GAS  /tmp/ccIgVMD4.s 			page 23


 1255 0711 1A000000 		.4byte	.LFE7-.LFB7
 1256 0715 01       		.uleb128 0x1
 1257 0716 9C       		.byte	0x9c
 1258 0717 64070000 		.4byte	0x764
 1259 071b 1B       		.uleb128 0x1b
 1260 071c 02000000 		.4byte	.LBB7
 1261 0720 06000000 		.4byte	.LBE7-.LBB7
 1262 0724 36070000 		.4byte	0x736
 1263 0728 17       		.uleb128 0x17
 1264 0729 746D7000 		.ascii	"tmp\000"
 1265 072d 01       		.byte	0x1
 1266 072e 33       		.byte	0x33
 1267 072f A2000000 		.4byte	0xa2
 1268 0733 01       		.uleb128 0x1
 1269 0734 53       		.byte	0x53
 1270 0735 00       		.byte	0
 1271 0736 1B       		.uleb128 0x1b
 1272 0737 0C000000 		.4byte	.LBB8
 1273 073b 06000000 		.4byte	.LBE8-.LBB8
 1274 073f 51070000 		.4byte	0x751
 1275 0743 17       		.uleb128 0x17
 1276 0744 746D7000 		.ascii	"tmp\000"
 1277 0748 01       		.byte	0x1
 1278 0749 35       		.byte	0x35
 1279 074a A2000000 		.4byte	0xa2
 1280 074e 01       		.uleb128 0x1
 1281 074f 53       		.byte	0x53
 1282 0750 00       		.byte	0
 1283 0751 14       		.uleb128 0x14
 1284 0752 0C000000 		.4byte	.LVL12
 1285 0756 EC070000 		.4byte	0x7ec
 1286 075a 1D       		.uleb128 0x1d
 1287 075b 1A000000 		.4byte	.LVL13
 1288 075f A5060000 		.4byte	0x6a5
 1289 0763 00       		.byte	0
 1290 0764 13       		.uleb128 0x13
 1291 0765 3E010000 		.4byte	.LASF92
 1292 0769 01       		.byte	0x1
 1293 076a EC       		.byte	0xec
 1294 076b 00000000 		.4byte	.LFB12
 1295 076f 10000000 		.4byte	.LFE12-.LFB12
 1296 0773 01       		.uleb128 0x1
 1297 0774 9C       		.byte	0x9c
 1298 0775 94070000 		.4byte	0x794
 1299 0779 1E       		.uleb128 0x1e
 1300 077a 6E747000 		.ascii	"ntp\000"
 1301 077e 01       		.byte	0x1
 1302 077f EC       		.byte	0xec
 1303 0780 35020000 		.4byte	0x235
 1304 0784 01       		.uleb128 0x1
 1305 0785 50       		.byte	0x50
 1306 0786 1E       		.uleb128 0x1e
 1307 0787 6F747000 		.ascii	"otp\000"
 1308 078b 01       		.byte	0x1
 1309 078c EC       		.byte	0xec
 1310 078d 35020000 		.4byte	0x235
 1311 0791 01       		.uleb128 0x1
ARM GAS  /tmp/ccIgVMD4.s 			page 24


 1312 0792 51       		.byte	0x51
 1313 0793 00       		.byte	0
 1314 0794 1F       		.uleb128 0x1f
 1315 0795 C0000000 		.4byte	.LASF93
 1316 0799 01       		.byte	0x1
 1317 079a 0301     		.2byte	0x103
 1318 079c 00000000 		.4byte	.LFB13
 1319 07a0 10000000 		.4byte	.LFE13-.LFB13
 1320 07a4 01       		.uleb128 0x1
 1321 07a5 9C       		.byte	0x9c
 1322 07a6 C3070000 		.4byte	0x7c3
 1323 07aa 16       		.uleb128 0x16
 1324 07ab 00000000 		.4byte	.LBB9
 1325 07af 06000000 		.4byte	.LBE9-.LBB9
 1326 07b3 20       		.uleb128 0x20
 1327 07b4 746D7000 		.ascii	"tmp\000"
 1328 07b8 01       		.byte	0x1
 1329 07b9 0501     		.2byte	0x105
 1330 07bb A2000000 		.4byte	0xa2
 1331 07bf 01       		.uleb128 0x1
 1332 07c0 53       		.byte	0x53
 1333 07c1 00       		.byte	0
 1334 07c2 00       		.byte	0
 1335 07c3 21       		.uleb128 0x21
 1336 07c4 2A040000 		.4byte	.LASF99
 1337 07c8 09       		.byte	0x9
 1338 07c9 6F       		.byte	0x6f
 1339 07ca 4E050000 		.4byte	0x54e
 1340 07ce 22       		.uleb128 0x22
 1341 07cf 11010000 		.4byte	.LASF94
 1342 07d3 09       		.byte	0x9
 1343 07d4 A8       		.byte	0xa8
 1344 07d5 23       		.uleb128 0x23
 1345 07d6 EB000000 		.4byte	.LASF100
 1346 07da 08       		.byte	0x8
 1347 07db 2501     		.2byte	0x125
 1348 07dd EC070000 		.4byte	0x7ec
 1349 07e1 24       		.uleb128 0x24
 1350 07e2 A2000000 		.4byte	0xa2
 1351 07e6 24       		.uleb128 0x24
 1352 07e7 A2000000 		.4byte	0xa2
 1353 07eb 00       		.byte	0
 1354 07ec 22       		.uleb128 0x22
 1355 07ed 1F000000 		.4byte	.LASF95
 1356 07f1 0B       		.byte	0xb
 1357 07f2 F7       		.byte	0xf7
 1358 07f3 00       		.byte	0
 1359              		.section	.debug_abbrev,"",%progbits
 1360              	.Ldebug_abbrev0:
 1361 0000 01       		.uleb128 0x1
 1362 0001 11       		.uleb128 0x11
 1363 0002 01       		.byte	0x1
 1364 0003 25       		.uleb128 0x25
 1365 0004 0E       		.uleb128 0xe
 1366 0005 13       		.uleb128 0x13
 1367 0006 0B       		.uleb128 0xb
 1368 0007 03       		.uleb128 0x3
ARM GAS  /tmp/ccIgVMD4.s 			page 25


 1369 0008 0E       		.uleb128 0xe
 1370 0009 1B       		.uleb128 0x1b
 1371 000a 0E       		.uleb128 0xe
 1372 000b 55       		.uleb128 0x55
 1373 000c 17       		.uleb128 0x17
 1374 000d 11       		.uleb128 0x11
 1375 000e 01       		.uleb128 0x1
 1376 000f 10       		.uleb128 0x10
 1377 0010 17       		.uleb128 0x17
 1378 0011 00       		.byte	0
 1379 0012 00       		.byte	0
 1380 0013 02       		.uleb128 0x2
 1381 0014 24       		.uleb128 0x24
 1382 0015 00       		.byte	0
 1383 0016 0B       		.uleb128 0xb
 1384 0017 0B       		.uleb128 0xb
 1385 0018 3E       		.uleb128 0x3e
 1386 0019 0B       		.uleb128 0xb
 1387 001a 03       		.uleb128 0x3
 1388 001b 08       		.uleb128 0x8
 1389 001c 00       		.byte	0
 1390 001d 00       		.byte	0
 1391 001e 03       		.uleb128 0x3
 1392 001f 24       		.uleb128 0x24
 1393 0020 00       		.byte	0
 1394 0021 0B       		.uleb128 0xb
 1395 0022 0B       		.uleb128 0xb
 1396 0023 3E       		.uleb128 0x3e
 1397 0024 0B       		.uleb128 0xb
 1398 0025 03       		.uleb128 0x3
 1399 0026 0E       		.uleb128 0xe
 1400 0027 00       		.byte	0
 1401 0028 00       		.byte	0
 1402 0029 04       		.uleb128 0x4
 1403 002a 16       		.uleb128 0x16
 1404 002b 00       		.byte	0
 1405 002c 03       		.uleb128 0x3
 1406 002d 0E       		.uleb128 0xe
 1407 002e 3A       		.uleb128 0x3a
 1408 002f 0B       		.uleb128 0xb
 1409 0030 3B       		.uleb128 0x3b
 1410 0031 0B       		.uleb128 0xb
 1411 0032 49       		.uleb128 0x49
 1412 0033 13       		.uleb128 0x13
 1413 0034 00       		.byte	0
 1414 0035 00       		.byte	0
 1415 0036 05       		.uleb128 0x5
 1416 0037 13       		.uleb128 0x13
 1417 0038 01       		.byte	0x1
 1418 0039 03       		.uleb128 0x3
 1419 003a 0E       		.uleb128 0xe
 1420 003b 0B       		.uleb128 0xb
 1421 003c 0B       		.uleb128 0xb
 1422 003d 3A       		.uleb128 0x3a
 1423 003e 0B       		.uleb128 0xb
 1424 003f 3B       		.uleb128 0x3b
 1425 0040 0B       		.uleb128 0xb
ARM GAS  /tmp/ccIgVMD4.s 			page 26


 1426 0041 01       		.uleb128 0x1
 1427 0042 13       		.uleb128 0x13
 1428 0043 00       		.byte	0
 1429 0044 00       		.byte	0
 1430 0045 06       		.uleb128 0x6
 1431 0046 0D       		.uleb128 0xd
 1432 0047 00       		.byte	0
 1433 0048 03       		.uleb128 0x3
 1434 0049 0E       		.uleb128 0xe
 1435 004a 3A       		.uleb128 0x3a
 1436 004b 0B       		.uleb128 0xb
 1437 004c 3B       		.uleb128 0x3b
 1438 004d 0B       		.uleb128 0xb
 1439 004e 49       		.uleb128 0x49
 1440 004f 13       		.uleb128 0x13
 1441 0050 38       		.uleb128 0x38
 1442 0051 0B       		.uleb128 0xb
 1443 0052 00       		.byte	0
 1444 0053 00       		.byte	0
 1445 0054 07       		.uleb128 0x7
 1446 0055 0D       		.uleb128 0xd
 1447 0056 00       		.byte	0
 1448 0057 03       		.uleb128 0x3
 1449 0058 08       		.uleb128 0x8
 1450 0059 3A       		.uleb128 0x3a
 1451 005a 0B       		.uleb128 0xb
 1452 005b 3B       		.uleb128 0x3b
 1453 005c 0B       		.uleb128 0xb
 1454 005d 49       		.uleb128 0x49
 1455 005e 13       		.uleb128 0x13
 1456 005f 38       		.uleb128 0x38
 1457 0060 0B       		.uleb128 0xb
 1458 0061 00       		.byte	0
 1459 0062 00       		.byte	0
 1460 0063 08       		.uleb128 0x8
 1461 0064 13       		.uleb128 0x13
 1462 0065 01       		.byte	0x1
 1463 0066 0B       		.uleb128 0xb
 1464 0067 0B       		.uleb128 0xb
 1465 0068 3A       		.uleb128 0x3a
 1466 0069 0B       		.uleb128 0xb
 1467 006a 3B       		.uleb128 0x3b
 1468 006b 0B       		.uleb128 0xb
 1469 006c 01       		.uleb128 0x1
 1470 006d 13       		.uleb128 0x13
 1471 006e 00       		.byte	0
 1472 006f 00       		.byte	0
 1473 0070 09       		.uleb128 0x9
 1474 0071 0F       		.uleb128 0xf
 1475 0072 00       		.byte	0
 1476 0073 0B       		.uleb128 0xb
 1477 0074 0B       		.uleb128 0xb
 1478 0075 49       		.uleb128 0x49
 1479 0076 13       		.uleb128 0x13
 1480 0077 00       		.byte	0
 1481 0078 00       		.byte	0
 1482 0079 0A       		.uleb128 0xa
ARM GAS  /tmp/ccIgVMD4.s 			page 27


 1483 007a 0F       		.uleb128 0xf
 1484 007b 00       		.byte	0
 1485 007c 0B       		.uleb128 0xb
 1486 007d 0B       		.uleb128 0xb
 1487 007e 00       		.byte	0
 1488 007f 00       		.byte	0
 1489 0080 0B       		.uleb128 0xb
 1490 0081 13       		.uleb128 0x13
 1491 0082 01       		.byte	0x1
 1492 0083 03       		.uleb128 0x3
 1493 0084 0E       		.uleb128 0xe
 1494 0085 0B       		.uleb128 0xb
 1495 0086 0B       		.uleb128 0xb
 1496 0087 3A       		.uleb128 0x3a
 1497 0088 0B       		.uleb128 0xb
 1498 0089 3B       		.uleb128 0x3b
 1499 008a 05       		.uleb128 0x5
 1500 008b 01       		.uleb128 0x1
 1501 008c 13       		.uleb128 0x13
 1502 008d 00       		.byte	0
 1503 008e 00       		.byte	0
 1504 008f 0C       		.uleb128 0xc
 1505 0090 0D       		.uleb128 0xd
 1506 0091 00       		.byte	0
 1507 0092 03       		.uleb128 0x3
 1508 0093 08       		.uleb128 0x8
 1509 0094 3A       		.uleb128 0x3a
 1510 0095 0B       		.uleb128 0xb
 1511 0096 3B       		.uleb128 0x3b
 1512 0097 05       		.uleb128 0x5
 1513 0098 49       		.uleb128 0x49
 1514 0099 13       		.uleb128 0x13
 1515 009a 38       		.uleb128 0x38
 1516 009b 0B       		.uleb128 0xb
 1517 009c 00       		.byte	0
 1518 009d 00       		.byte	0
 1519 009e 0D       		.uleb128 0xd
 1520 009f 35       		.uleb128 0x35
 1521 00a0 00       		.byte	0
 1522 00a1 49       		.uleb128 0x49
 1523 00a2 13       		.uleb128 0x13
 1524 00a3 00       		.byte	0
 1525 00a4 00       		.byte	0
 1526 00a5 0E       		.uleb128 0xe
 1527 00a6 01       		.uleb128 0x1
 1528 00a7 01       		.byte	0x1
 1529 00a8 49       		.uleb128 0x49
 1530 00a9 13       		.uleb128 0x13
 1531 00aa 01       		.uleb128 0x1
 1532 00ab 13       		.uleb128 0x13
 1533 00ac 00       		.byte	0
 1534 00ad 00       		.byte	0
 1535 00ae 0F       		.uleb128 0xf
 1536 00af 21       		.uleb128 0x21
 1537 00b0 00       		.byte	0
 1538 00b1 49       		.uleb128 0x49
 1539 00b2 13       		.uleb128 0x13
ARM GAS  /tmp/ccIgVMD4.s 			page 28


 1540 00b3 2F       		.uleb128 0x2f
 1541 00b4 0B       		.uleb128 0xb
 1542 00b5 00       		.byte	0
 1543 00b6 00       		.byte	0
 1544 00b7 10       		.uleb128 0x10
 1545 00b8 17       		.uleb128 0x17
 1546 00b9 01       		.byte	0x1
 1547 00ba 0B       		.uleb128 0xb
 1548 00bb 0B       		.uleb128 0xb
 1549 00bc 3A       		.uleb128 0x3a
 1550 00bd 0B       		.uleb128 0xb
 1551 00be 3B       		.uleb128 0x3b
 1552 00bf 0B       		.uleb128 0xb
 1553 00c0 01       		.uleb128 0x1
 1554 00c1 13       		.uleb128 0x13
 1555 00c2 00       		.byte	0
 1556 00c3 00       		.byte	0
 1557 00c4 11       		.uleb128 0x11
 1558 00c5 0D       		.uleb128 0xd
 1559 00c6 00       		.byte	0
 1560 00c7 03       		.uleb128 0x3
 1561 00c8 0E       		.uleb128 0xe
 1562 00c9 3A       		.uleb128 0x3a
 1563 00ca 0B       		.uleb128 0xb
 1564 00cb 3B       		.uleb128 0x3b
 1565 00cc 0B       		.uleb128 0xb
 1566 00cd 49       		.uleb128 0x49
 1567 00ce 13       		.uleb128 0x13
 1568 00cf 00       		.byte	0
 1569 00d0 00       		.byte	0
 1570 00d1 12       		.uleb128 0x12
 1571 00d2 26       		.uleb128 0x26
 1572 00d3 00       		.byte	0
 1573 00d4 49       		.uleb128 0x49
 1574 00d5 13       		.uleb128 0x13
 1575 00d6 00       		.byte	0
 1576 00d7 00       		.byte	0
 1577 00d8 13       		.uleb128 0x13
 1578 00d9 2E       		.uleb128 0x2e
 1579 00da 01       		.byte	0x1
 1580 00db 3F       		.uleb128 0x3f
 1581 00dc 19       		.uleb128 0x19
 1582 00dd 03       		.uleb128 0x3
 1583 00de 0E       		.uleb128 0xe
 1584 00df 3A       		.uleb128 0x3a
 1585 00e0 0B       		.uleb128 0xb
 1586 00e1 3B       		.uleb128 0x3b
 1587 00e2 0B       		.uleb128 0xb
 1588 00e3 27       		.uleb128 0x27
 1589 00e4 19       		.uleb128 0x19
 1590 00e5 11       		.uleb128 0x11
 1591 00e6 01       		.uleb128 0x1
 1592 00e7 12       		.uleb128 0x12
 1593 00e8 06       		.uleb128 0x6
 1594 00e9 40       		.uleb128 0x40
 1595 00ea 18       		.uleb128 0x18
 1596 00eb 9742     		.uleb128 0x2117
ARM GAS  /tmp/ccIgVMD4.s 			page 29


 1597 00ed 19       		.uleb128 0x19
 1598 00ee 01       		.uleb128 0x1
 1599 00ef 13       		.uleb128 0x13
 1600 00f0 00       		.byte	0
 1601 00f1 00       		.byte	0
 1602 00f2 14       		.uleb128 0x14
 1603 00f3 898201   		.uleb128 0x4109
 1604 00f6 00       		.byte	0
 1605 00f7 11       		.uleb128 0x11
 1606 00f8 01       		.uleb128 0x1
 1607 00f9 31       		.uleb128 0x31
 1608 00fa 13       		.uleb128 0x13
 1609 00fb 00       		.byte	0
 1610 00fc 00       		.byte	0
 1611 00fd 15       		.uleb128 0x15
 1612 00fe 34       		.uleb128 0x34
 1613 00ff 00       		.byte	0
 1614 0100 03       		.uleb128 0x3
 1615 0101 0E       		.uleb128 0xe
 1616 0102 3A       		.uleb128 0x3a
 1617 0103 0B       		.uleb128 0xb
 1618 0104 3B       		.uleb128 0x3b
 1619 0105 0B       		.uleb128 0xb
 1620 0106 49       		.uleb128 0x49
 1621 0107 13       		.uleb128 0x13
 1622 0108 02       		.uleb128 0x2
 1623 0109 17       		.uleb128 0x17
 1624 010a 00       		.byte	0
 1625 010b 00       		.byte	0
 1626 010c 16       		.uleb128 0x16
 1627 010d 0B       		.uleb128 0xb
 1628 010e 01       		.byte	0x1
 1629 010f 11       		.uleb128 0x11
 1630 0110 01       		.uleb128 0x1
 1631 0111 12       		.uleb128 0x12
 1632 0112 06       		.uleb128 0x6
 1633 0113 00       		.byte	0
 1634 0114 00       		.byte	0
 1635 0115 17       		.uleb128 0x17
 1636 0116 34       		.uleb128 0x34
 1637 0117 00       		.byte	0
 1638 0118 03       		.uleb128 0x3
 1639 0119 08       		.uleb128 0x8
 1640 011a 3A       		.uleb128 0x3a
 1641 011b 0B       		.uleb128 0xb
 1642 011c 3B       		.uleb128 0x3b
 1643 011d 0B       		.uleb128 0xb
 1644 011e 49       		.uleb128 0x49
 1645 011f 13       		.uleb128 0x13
 1646 0120 02       		.uleb128 0x2
 1647 0121 18       		.uleb128 0x18
 1648 0122 00       		.byte	0
 1649 0123 00       		.byte	0
 1650 0124 18       		.uleb128 0x18
 1651 0125 898201   		.uleb128 0x4109
 1652 0128 01       		.byte	0x1
 1653 0129 11       		.uleb128 0x11
ARM GAS  /tmp/ccIgVMD4.s 			page 30


 1654 012a 01       		.uleb128 0x1
 1655 012b 31       		.uleb128 0x31
 1656 012c 13       		.uleb128 0x13
 1657 012d 01       		.uleb128 0x1
 1658 012e 13       		.uleb128 0x13
 1659 012f 00       		.byte	0
 1660 0130 00       		.byte	0
 1661 0131 19       		.uleb128 0x19
 1662 0132 8A8201   		.uleb128 0x410a
 1663 0135 00       		.byte	0
 1664 0136 02       		.uleb128 0x2
 1665 0137 18       		.uleb128 0x18
 1666 0138 9142     		.uleb128 0x2111
 1667 013a 18       		.uleb128 0x18
 1668 013b 00       		.byte	0
 1669 013c 00       		.byte	0
 1670 013d 1A       		.uleb128 0x1a
 1671 013e 898201   		.uleb128 0x4109
 1672 0141 01       		.byte	0x1
 1673 0142 11       		.uleb128 0x11
 1674 0143 01       		.uleb128 0x1
 1675 0144 9542     		.uleb128 0x2115
 1676 0146 19       		.uleb128 0x19
 1677 0147 31       		.uleb128 0x31
 1678 0148 13       		.uleb128 0x13
 1679 0149 00       		.byte	0
 1680 014a 00       		.byte	0
 1681 014b 1B       		.uleb128 0x1b
 1682 014c 0B       		.uleb128 0xb
 1683 014d 01       		.byte	0x1
 1684 014e 11       		.uleb128 0x11
 1685 014f 01       		.uleb128 0x1
 1686 0150 12       		.uleb128 0x12
 1687 0151 06       		.uleb128 0x6
 1688 0152 01       		.uleb128 0x1
 1689 0153 13       		.uleb128 0x13
 1690 0154 00       		.byte	0
 1691 0155 00       		.byte	0
 1692 0156 1C       		.uleb128 0x1c
 1693 0157 0B       		.uleb128 0xb
 1694 0158 01       		.byte	0x1
 1695 0159 55       		.uleb128 0x55
 1696 015a 17       		.uleb128 0x17
 1697 015b 01       		.uleb128 0x1
 1698 015c 13       		.uleb128 0x13
 1699 015d 00       		.byte	0
 1700 015e 00       		.byte	0
 1701 015f 1D       		.uleb128 0x1d
 1702 0160 898201   		.uleb128 0x4109
 1703 0163 00       		.byte	0
 1704 0164 11       		.uleb128 0x11
 1705 0165 01       		.uleb128 0x1
 1706 0166 9542     		.uleb128 0x2115
 1707 0168 19       		.uleb128 0x19
 1708 0169 31       		.uleb128 0x31
 1709 016a 13       		.uleb128 0x13
 1710 016b 00       		.byte	0
ARM GAS  /tmp/ccIgVMD4.s 			page 31


 1711 016c 00       		.byte	0
 1712 016d 1E       		.uleb128 0x1e
 1713 016e 05       		.uleb128 0x5
 1714 016f 00       		.byte	0
 1715 0170 03       		.uleb128 0x3
 1716 0171 08       		.uleb128 0x8
 1717 0172 3A       		.uleb128 0x3a
 1718 0173 0B       		.uleb128 0xb
 1719 0174 3B       		.uleb128 0x3b
 1720 0175 0B       		.uleb128 0xb
 1721 0176 49       		.uleb128 0x49
 1722 0177 13       		.uleb128 0x13
 1723 0178 02       		.uleb128 0x2
 1724 0179 18       		.uleb128 0x18
 1725 017a 00       		.byte	0
 1726 017b 00       		.byte	0
 1727 017c 1F       		.uleb128 0x1f
 1728 017d 2E       		.uleb128 0x2e
 1729 017e 01       		.byte	0x1
 1730 017f 3F       		.uleb128 0x3f
 1731 0180 19       		.uleb128 0x19
 1732 0181 03       		.uleb128 0x3
 1733 0182 0E       		.uleb128 0xe
 1734 0183 3A       		.uleb128 0x3a
 1735 0184 0B       		.uleb128 0xb
 1736 0185 3B       		.uleb128 0x3b
 1737 0186 05       		.uleb128 0x5
 1738 0187 27       		.uleb128 0x27
 1739 0188 19       		.uleb128 0x19
 1740 0189 11       		.uleb128 0x11
 1741 018a 01       		.uleb128 0x1
 1742 018b 12       		.uleb128 0x12
 1743 018c 06       		.uleb128 0x6
 1744 018d 40       		.uleb128 0x40
 1745 018e 18       		.uleb128 0x18
 1746 018f 9742     		.uleb128 0x2117
 1747 0191 19       		.uleb128 0x19
 1748 0192 01       		.uleb128 0x1
 1749 0193 13       		.uleb128 0x13
 1750 0194 00       		.byte	0
 1751 0195 00       		.byte	0
 1752 0196 20       		.uleb128 0x20
 1753 0197 34       		.uleb128 0x34
 1754 0198 00       		.byte	0
 1755 0199 03       		.uleb128 0x3
 1756 019a 08       		.uleb128 0x8
 1757 019b 3A       		.uleb128 0x3a
 1758 019c 0B       		.uleb128 0xb
 1759 019d 3B       		.uleb128 0x3b
 1760 019e 05       		.uleb128 0x5
 1761 019f 49       		.uleb128 0x49
 1762 01a0 13       		.uleb128 0x13
 1763 01a1 02       		.uleb128 0x2
 1764 01a2 18       		.uleb128 0x18
 1765 01a3 00       		.byte	0
 1766 01a4 00       		.byte	0
 1767 01a5 21       		.uleb128 0x21
ARM GAS  /tmp/ccIgVMD4.s 			page 32


 1768 01a6 34       		.uleb128 0x34
 1769 01a7 00       		.byte	0
 1770 01a8 03       		.uleb128 0x3
 1771 01a9 0E       		.uleb128 0xe
 1772 01aa 3A       		.uleb128 0x3a
 1773 01ab 0B       		.uleb128 0xb
 1774 01ac 3B       		.uleb128 0x3b
 1775 01ad 0B       		.uleb128 0xb
 1776 01ae 49       		.uleb128 0x49
 1777 01af 13       		.uleb128 0x13
 1778 01b0 3F       		.uleb128 0x3f
 1779 01b1 19       		.uleb128 0x19
 1780 01b2 3C       		.uleb128 0x3c
 1781 01b3 19       		.uleb128 0x19
 1782 01b4 00       		.byte	0
 1783 01b5 00       		.byte	0
 1784 01b6 22       		.uleb128 0x22
 1785 01b7 2E       		.uleb128 0x2e
 1786 01b8 00       		.byte	0
 1787 01b9 3F       		.uleb128 0x3f
 1788 01ba 19       		.uleb128 0x19
 1789 01bb 03       		.uleb128 0x3
 1790 01bc 0E       		.uleb128 0xe
 1791 01bd 3A       		.uleb128 0x3a
 1792 01be 0B       		.uleb128 0xb
 1793 01bf 3B       		.uleb128 0x3b
 1794 01c0 0B       		.uleb128 0xb
 1795 01c1 27       		.uleb128 0x27
 1796 01c2 19       		.uleb128 0x19
 1797 01c3 3C       		.uleb128 0x3c
 1798 01c4 19       		.uleb128 0x19
 1799 01c5 00       		.byte	0
 1800 01c6 00       		.byte	0
 1801 01c7 23       		.uleb128 0x23
 1802 01c8 2E       		.uleb128 0x2e
 1803 01c9 01       		.byte	0x1
 1804 01ca 3F       		.uleb128 0x3f
 1805 01cb 19       		.uleb128 0x19
 1806 01cc 03       		.uleb128 0x3
 1807 01cd 0E       		.uleb128 0xe
 1808 01ce 3A       		.uleb128 0x3a
 1809 01cf 0B       		.uleb128 0xb
 1810 01d0 3B       		.uleb128 0x3b
 1811 01d1 05       		.uleb128 0x5
 1812 01d2 27       		.uleb128 0x27
 1813 01d3 19       		.uleb128 0x19
 1814 01d4 3C       		.uleb128 0x3c
 1815 01d5 19       		.uleb128 0x19
 1816 01d6 01       		.uleb128 0x1
 1817 01d7 13       		.uleb128 0x13
 1818 01d8 00       		.byte	0
 1819 01d9 00       		.byte	0
 1820 01da 24       		.uleb128 0x24
 1821 01db 05       		.uleb128 0x5
 1822 01dc 00       		.byte	0
 1823 01dd 49       		.uleb128 0x49
 1824 01de 13       		.uleb128 0x13
ARM GAS  /tmp/ccIgVMD4.s 			page 33


 1825 01df 00       		.byte	0
 1826 01e0 00       		.byte	0
 1827 01e1 00       		.byte	0
 1828              		.section	.debug_loc,"",%progbits
 1829              	.Ldebug_loc0:
 1830              	.LLST0:
 1831 0000 04000000 		.4byte	.LVL1
 1832 0004 06000000 		.4byte	.LVL2
 1833 0008 0300     		.2byte	0x3
 1834 000a 73       		.byte	0x73
 1835 000b 20       		.sleb128 32
 1836 000c 9F       		.byte	0x9f
 1837 000d 06000000 		.4byte	.LVL2
 1838 0011 0C000000 		.4byte	.LVL3
 1839 0015 0100     		.2byte	0x1
 1840 0017 53       		.byte	0x53
 1841 0018 00000000 		.4byte	0
 1842 001c 00000000 		.4byte	0
 1843              	.LLST1:
 1844 0020 1A000000 		.4byte	.LVL7
 1845 0024 1E000000 		.4byte	.LVL8
 1846 0028 0300     		.2byte	0x3
 1847 002a 72       		.byte	0x72
 1848 002b 60       		.sleb128 -32
 1849 002c 9F       		.byte	0x9f
 1850 002d 1E000000 		.4byte	.LVL8
 1851 0031 26000000 		.4byte	.LVL9
 1852 0035 0100     		.2byte	0x1
 1853 0037 53       		.byte	0x53
 1854 0038 26000000 		.4byte	.LVL9
 1855 003c 56000000 		.4byte	.LVL10
 1856 0040 0300     		.2byte	0x3
 1857 0042 72       		.byte	0x72
 1858 0043 60       		.sleb128 -32
 1859 0044 9F       		.byte	0x9f
 1860 0045 5C000000 		.4byte	.LVL11
 1861 0049 7C000000 		.4byte	.LFE10
 1862 004d 0300     		.2byte	0x3
 1863 004f 72       		.byte	0x72
 1864 0050 60       		.sleb128 -32
 1865 0051 9F       		.byte	0x9f
 1866 0052 00000000 		.4byte	0
 1867 0056 00000000 		.4byte	0
 1868              		.section	.debug_aranges,"",%progbits
 1869 0000 4C000000 		.4byte	0x4c
 1870 0004 0200     		.2byte	0x2
 1871 0006 00000000 		.4byte	.Ldebug_info0
 1872 000a 04       		.byte	0x4
 1873 000b 00       		.byte	0
 1874 000c 0000     		.2byte	0
 1875 000e 0000     		.2byte	0
 1876 0010 00000000 		.4byte	.LFB11
 1877 0014 06000000 		.4byte	.LFE11-.LFB11
 1878 0018 00000000 		.4byte	.LFB8
 1879 001c 12000000 		.4byte	.LFE8-.LFB8
 1880 0020 00000000 		.4byte	.LFB9
 1881 0024 34000000 		.4byte	.LFE9-.LFB9
ARM GAS  /tmp/ccIgVMD4.s 			page 34


 1882 0028 00000000 		.4byte	.LFB10
 1883 002c 7C000000 		.4byte	.LFE10-.LFB10
 1884 0030 00000000 		.4byte	.LFB7
 1885 0034 1A000000 		.4byte	.LFE7-.LFB7
 1886 0038 00000000 		.4byte	.LFB12
 1887 003c 10000000 		.4byte	.LFE12-.LFB12
 1888 0040 00000000 		.4byte	.LFB13
 1889 0044 10000000 		.4byte	.LFE13-.LFB13
 1890 0048 00000000 		.4byte	0
 1891 004c 00000000 		.4byte	0
 1892              		.section	.debug_ranges,"",%progbits
 1893              	.Ldebug_ranges0:
 1894 0000 16000000 		.4byte	.LBB4
 1895 0004 56000000 		.4byte	.LBE4
 1896 0008 5C000000 		.4byte	.LBB6
 1897 000c 7C000000 		.4byte	.LBE6
 1898 0010 00000000 		.4byte	0
 1899 0014 00000000 		.4byte	0
 1900 0018 00000000 		.4byte	.LFB11
 1901 001c 06000000 		.4byte	.LFE11
 1902 0020 00000000 		.4byte	.LFB8
 1903 0024 12000000 		.4byte	.LFE8
 1904 0028 00000000 		.4byte	.LFB9
 1905 002c 34000000 		.4byte	.LFE9
 1906 0030 00000000 		.4byte	.LFB10
 1907 0034 7C000000 		.4byte	.LFE10
 1908 0038 00000000 		.4byte	.LFB7
 1909 003c 1A000000 		.4byte	.LFE7
 1910 0040 00000000 		.4byte	.LFB12
 1911 0044 10000000 		.4byte	.LFE12
 1912 0048 00000000 		.4byte	.LFB13
 1913 004c 10000000 		.4byte	.LFE13
 1914 0050 00000000 		.4byte	0
 1915 0054 00000000 		.4byte	0
 1916              		.section	.debug_line,"",%progbits
 1917              	.Ldebug_line0:
 1918 0000 FC010000 		.section	.debug_str,"MS",%progbits,1
 1918      02004801 
 1918      00000201 
 1918      FB0E0D00 
 1918      01010101 
 1919              	.LASF39:
 1920 0000 705F6D73 		.ascii	"p_msg\000"
 1920      6700
 1921              	.LASF81:
 1922 0006 7264796D 		.ascii	"rdymsg\000"
 1922      736700
 1923              	.LASF5:
 1924 000d 5F5F7569 		.ascii	"__uint8_t\000"
 1924      6E74385F 
 1924      7400
 1925              	.LASF69:
 1926 0017 434D785F 		.ascii	"CMx_SCB\000"
 1926      53434200 
 1927              	.LASF95:
 1928 001f 63685379 		.ascii	"chSysTimerHandlerI\000"
 1928      7354696D 
ARM GAS  /tmp/ccIgVMD4.s 			page 35


 1928      65724861 
 1928      6E646C65 
 1928      724900
 1929              	.LASF91:
 1930 0032 53797354 		.ascii	"SysTickVector\000"
 1930      69636B56 
 1930      6563746F 
 1930      7200
 1931              	.LASF11:
 1932 0040 6C6F6E67 		.ascii	"long long unsigned int\000"
 1932      206C6F6E 
 1932      6720756E 
 1932      7369676E 
 1932      65642069 
 1933              	.LASF82:
 1934 0057 65786974 		.ascii	"exitcode\000"
 1934      636F6465 
 1934      00
 1935              	.LASF54:
 1936 0060 43505549 		.ascii	"CPUID\000"
 1936      4400
 1937              	.LASF27:
 1938 0066 705F7072 		.ascii	"p_prio\000"
 1938      696F00
 1939              	.LASF10:
 1940 006d 6C6F6E67 		.ascii	"long long int\000"
 1940      206C6F6E 
 1940      6720696E 
 1940      7400
 1941              	.LASF1:
 1942 007b 7369676E 		.ascii	"signed char\000"
 1942      65642063 
 1942      68617200 
 1943              	.LASF43:
 1944 0087 705F6D70 		.ascii	"p_mpool\000"
 1944      6F6F6C00 
 1945              	.LASF78:
 1946 008f 6D5F7175 		.ascii	"m_queue\000"
 1946      65756500 
 1947              	.LASF19:
 1948 0097 74736C69 		.ascii	"tslices_t\000"
 1948      6365735F 
 1948      7400
 1949              	.LASF7:
 1950 00a1 6C6F6E67 		.ascii	"long int\000"
 1950      20696E74 
 1950      00
 1951              	.LASF87:
 1952 00aa 53564361 		.ascii	"SVCallVector\000"
 1952      6C6C5665 
 1952      63746F72 
 1952      00
 1953              	.LASF17:
 1954 00b7 74737461 		.ascii	"tstate_t\000"
 1954      74655F74 
 1954      00
 1955              	.LASF93:
ARM GAS  /tmp/ccIgVMD4.s 			page 36


 1956 00c0 5F706F72 		.ascii	"_port_thread_start\000"
 1956      745F7468 
 1956      72656164 
 1956      5F737461 
 1956      727400
 1957              	.LASF29:
 1958 00d3 705F6E65 		.ascii	"p_newer\000"
 1958      77657200 
 1959              	.LASF64:
 1960 00db 42464152 		.ascii	"BFAR\000"
 1960      00
 1961              	.LASF8:
 1962 00e0 5F5F7569 		.ascii	"__uint32_t\000"
 1962      6E743332 
 1962      5F7400
 1963              	.LASF100:
 1964 00eb 6E766963 		.ascii	"nvicSetSystemHandlerPriority\000"
 1964      53657453 
 1964      79737465 
 1964      6D48616E 
 1964      646C6572 
 1965              	.LASF46:
 1966 0108 72656761 		.ascii	"regarm_t\000"
 1966      726D5F74 
 1966      00
 1967              	.LASF94:
 1968 0111 63685363 		.ascii	"chSchDoReschedule\000"
 1968      68446F52 
 1968      65736368 
 1968      6564756C 
 1968      6500
 1969              	.LASF0:
 1970 0123 756E7369 		.ascii	"unsigned int\000"
 1970      676E6564 
 1970      20696E74 
 1970      00
 1971              	.LASF48:
 1972 0130 6C725F74 		.ascii	"lr_thd\000"
 1972      686400
 1973              	.LASF47:
 1974 0137 65787463 		.ascii	"extctx\000"
 1974      747800
 1975              	.LASF92:
 1976 013e 5F706F72 		.ascii	"_port_switch\000"
 1976      745F7377 
 1976      69746368 
 1976      00
 1977              	.LASF9:
 1978 014b 6C6F6E67 		.ascii	"long unsigned int\000"
 1978      20756E73 
 1978      69676E65 
 1978      6420696E 
 1978      7400
 1979              	.LASF56:
 1980 015d 56544F52 		.ascii	"VTOR\000"
 1980      00
 1981              	.LASF86:
ARM GAS  /tmp/ccIgVMD4.s 			page 37


 1982 0162 5F706F72 		.ascii	"_port_switch_from_isr\000"
 1982      745F7377 
 1982      69746368 
 1982      5F66726F 
 1982      6D5F6973 
 1983              	.LASF51:
 1984 0178 636F6E74 		.ascii	"context\000"
 1984      65787400 
 1985              	.LASF4:
 1986 0180 73686F72 		.ascii	"short unsigned int\000"
 1986      7420756E 
 1986      7369676E 
 1986      65642069 
 1986      6E7400
 1987              	.LASF55:
 1988 0193 49435352 		.ascii	"ICSR\000"
 1988      00
 1989              	.LASF21:
 1990 0198 6D73675F 		.ascii	"msg_t\000"
 1990      7400
 1991              	.LASF57:
 1992 019e 41495243 		.ascii	"AIRCR\000"
 1992      5200
 1993              	.LASF62:
 1994 01a4 44465352 		.ascii	"DFSR\000"
 1994      00
 1995              	.LASF96:
 1996 01a9 474E5520 		.ascii	"GNU C 4.8.2 -mcpu=cortex-m3 -mno-thumb-interwork -m"
 1996      4320342E 
 1996      382E3220 
 1996      2D6D6370 
 1996      753D636F 
 1997 01dc 7468756D 		.ascii	"thumb -ggdb -O2 -fomit-frame-pointer -ffunction-sec"
 1997      62202D67 
 1997      67646220 
 1997      2D4F3220 
 1997      2D666F6D 
 1998 020f 74696F6E 		.ascii	"tions -fdata-sections -fno-common\000"
 1998      73202D66 
 1998      64617461 
 1998      2D736563 
 1998      74696F6E 
 1999              	.LASF63:
 2000 0231 4D4D4641 		.ascii	"MMFAR\000"
 2000      5200
 2001              	.LASF90:
 2002 0237 5F706F72 		.ascii	"_port_irq_epilogue\000"
 2002      745F6972 
 2002      715F6570 
 2002      696C6F67 
 2002      756500
 2003              	.LASF16:
 2004 024a 746D6F64 		.ascii	"tmode_t\000"
 2004      655F7400 
 2005              	.LASF45:
 2006 0252 54687265 		.ascii	"ThreadsList\000"
 2006      6164734C 
ARM GAS  /tmp/ccIgVMD4.s 			page 38


 2006      69737400 
 2007              	.LASF22:
 2008 025e 6576656E 		.ascii	"eventmask_t\000"
 2008      746D6173 
 2008      6B5F7400 
 2009              	.LASF77:
 2010 026a 4D757465 		.ascii	"Mutex\000"
 2010      7800
 2011              	.LASF98:
 2012 0270 2F686F6D 		.ascii	"/home/caroline/Documents/PAF/elfes/Code\000"
 2012      652F6361 
 2012      726F6C69 
 2012      6E652F44 
 2012      6F63756D 
 2013              	.LASF53:
 2014 0298 73697A65 		.ascii	"sizetype\000"
 2014      74797065 
 2014      00
 2015              	.LASF60:
 2016 02a1 43465352 		.ascii	"CFSR\000"
 2016      00
 2017              	.LASF30:
 2018 02a6 705F6F6C 		.ascii	"p_older\000"
 2018      64657200 
 2019              	.LASF72:
 2020 02ae 725F6374 		.ascii	"r_ctx\000"
 2020      7800
 2021              	.LASF73:
 2022 02b4 725F6E65 		.ascii	"r_newer\000"
 2022      77657200 
 2023              	.LASF44:
 2024 02bc 54687265 		.ascii	"ThreadsQueue\000"
 2024      61647351 
 2024      75657565 
 2024      00
 2025              	.LASF97:
 2026 02c9 2E2E2F43 		.ascii	"../ChibiOS_2.6.4/os/ports/GCC/ARMCMx/chcore_v7m.c\000"
 2026      68696269 
 2026      4F535F32 
 2026      2E362E34 
 2026      2F6F732F 
 2027              	.LASF74:
 2028 02fb 725F6F6C 		.ascii	"r_older\000"
 2028      64657200 
 2029              	.LASF18:
 2030 0303 74726566 		.ascii	"trefs_t\000"
 2030      735F7400 
 2031              	.LASF88:
 2032 030b 63747870 		.ascii	"ctxp\000"
 2032      00
 2033              	.LASF26:
 2034 0310 705F7072 		.ascii	"p_prev\000"
 2034      657600
 2035              	.LASF20:
 2036 0317 74707269 		.ascii	"tprio_t\000"
 2036      6F5F7400 
 2037              	.LASF15:
ARM GAS  /tmp/ccIgVMD4.s 			page 39


 2038 031f 5F426F6F 		.ascii	"_Bool\000"
 2038      6C00
 2039              	.LASF13:
 2040 0325 696E7433 		.ascii	"int32_t\000"
 2040      325F7400 
 2041              	.LASF2:
 2042 032d 756E7369 		.ascii	"unsigned char\000"
 2042      676E6564 
 2042      20636861 
 2042      7200
 2043              	.LASF59:
 2044 033b 53484353 		.ascii	"SHCSR\000"
 2044      5200
 2045              	.LASF41:
 2046 0341 705F6D74 		.ascii	"p_mtxlist\000"
 2046      786C6973 
 2046      7400
 2047              	.LASF3:
 2048 034b 73686F72 		.ascii	"short int\000"
 2048      7420696E 
 2048      7400
 2049              	.LASF32:
 2050 0355 705F7374 		.ascii	"p_state\000"
 2050      61746500 
 2051              	.LASF35:
 2052 035d 705F7072 		.ascii	"p_preempt\000"
 2052      65656D70 
 2052      7400
 2053              	.LASF49:
 2054 0367 78707372 		.ascii	"xpsr\000"
 2054      00
 2055              	.LASF71:
 2056 036c 725F7072 		.ascii	"r_prio\000"
 2056      696F00
 2057              	.LASF84:
 2058 0373 65776D61 		.ascii	"ewmask\000"
 2058      736B00
 2059              	.LASF25:
 2060 037a 705F6E65 		.ascii	"p_next\000"
 2060      787400
 2061              	.LASF33:
 2062 0381 705F666C 		.ascii	"p_flags\000"
 2062      61677300 
 2063              	.LASF24:
 2064 0389 54687265 		.ascii	"Thread\000"
 2064      616400
 2065              	.LASF40:
 2066 0390 705F6570 		.ascii	"p_epending\000"
 2066      656E6469 
 2066      6E6700
 2067              	.LASF14:
 2068 039b 75696E74 		.ascii	"uint32_t\000"
 2068      33325F74 
 2068      00
 2069              	.LASF70:
 2070 03a4 725F7175 		.ascii	"r_queue\000"
 2070      65756500 
ARM GAS  /tmp/ccIgVMD4.s 			page 40


 2071              	.LASF65:
 2072 03ac 41465352 		.ascii	"AFSR\000"
 2072      00
 2073              	.LASF67:
 2074 03b1 756E7573 		.ascii	"unused1\000"
 2074      65643100 
 2075              	.LASF75:
 2076 03b9 725F6375 		.ascii	"r_current\000"
 2076      7272656E 
 2076      7400
 2077              	.LASF85:
 2078 03c3 63686172 		.ascii	"char\000"
 2078      00
 2079              	.LASF52:
 2080 03c8 494F5245 		.ascii	"IOREG32\000"
 2080      47333200 
 2081              	.LASF80:
 2082 03d0 6D5F6E65 		.ascii	"m_next\000"
 2082      787400
 2083              	.LASF23:
 2084 03d7 73797374 		.ascii	"systime_t\000"
 2084      696D655F 
 2084      7400
 2085              	.LASF42:
 2086 03e1 705F7265 		.ascii	"p_realprio\000"
 2086      616C7072 
 2086      696F00
 2087              	.LASF6:
 2088 03ec 5F5F696E 		.ascii	"__int32_t\000"
 2088      7433325F 
 2088      7400
 2089              	.LASF36:
 2090 03f6 705F7469 		.ascii	"p_time\000"
 2090      6D6500
 2091              	.LASF58:
 2092 03fd 53485052 		.ascii	"SHPR\000"
 2092      00
 2093              	.LASF50:
 2094 0402 696E7463 		.ascii	"intctx\000"
 2094      747800
 2095              	.LASF38:
 2096 0409 705F6D73 		.ascii	"p_msgqueue\000"
 2096      67717565 
 2096      756500
 2097              	.LASF34:
 2098 0414 705F7265 		.ascii	"p_refs\000"
 2098      667300
 2099              	.LASF76:
 2100 041b 52656164 		.ascii	"ReadyList\000"
 2100      794C6973 
 2100      7400
 2101              	.LASF66:
 2102 0425 4D4D4652 		.ascii	"MMFR\000"
 2102      00
 2103              	.LASF99:
 2104 042a 726C6973 		.ascii	"rlist\000"
 2104      7400
ARM GAS  /tmp/ccIgVMD4.s 			page 41


 2105              	.LASF12:
 2106 0430 75696E74 		.ascii	"uint8_t\000"
 2106      385F7400 
 2107              	.LASF89:
 2108 0438 5F706F72 		.ascii	"_port_init\000"
 2108      745F696E 
 2108      697400
 2109              	.LASF83:
 2110 0443 77746F62 		.ascii	"wtobjp\000"
 2110      6A7000
 2111              	.LASF31:
 2112 044a 705F6E61 		.ascii	"p_name\000"
 2112      6D6500
 2113              	.LASF68:
 2114 0451 43504143 		.ascii	"CPACR\000"
 2114      5200
 2115              	.LASF61:
 2116 0457 48465352 		.ascii	"HFSR\000"
 2116      00
 2117              	.LASF79:
 2118 045c 6D5F6F77 		.ascii	"m_owner\000"
 2118      6E657200 
 2119              	.LASF28:
 2120 0464 705F6374 		.ascii	"p_ctx\000"
 2120      7800
 2121              	.LASF37:
 2122 046a 705F7761 		.ascii	"p_waiting\000"
 2122      6974696E 
 2122      6700
 2123              		.ident	"GCC: (4.8.2-14ubuntu1+6) 4.8.2"
ARM GAS  /tmp/ccIgVMD4.s 			page 42


DEFINED SYMBOLS
                            *ABS*:0000000000000000 chcore_v7m.c
     /tmp/ccIgVMD4.s:19     .text._port_switch_from_isr:0000000000000000 $t
     /tmp/ccIgVMD4.s:24     .text._port_switch_from_isr:0000000000000000 _port_switch_from_isr
     /tmp/ccIgVMD4.s:37     .text._port_switch_from_isr:0000000000000004 _port_exit_from_isr
     /tmp/ccIgVMD4.s:49     .text.SVCallVector:0000000000000000 $t
     /tmp/ccIgVMD4.s:54     .text.SVCallVector:0000000000000000 SVCallVector
     /tmp/ccIgVMD4.s:89     .text._port_init:0000000000000000 $t
     /tmp/ccIgVMD4.s:94     .text._port_init:0000000000000000 _port_init
     /tmp/ccIgVMD4.s:138    .text._port_irq_epilogue:0000000000000000 $t
     /tmp/ccIgVMD4.s:143    .text._port_irq_epilogue:0000000000000000 _port_irq_epilogue
     /tmp/ccIgVMD4.s:242    .text.SysTickVector:0000000000000000 $t
     /tmp/ccIgVMD4.s:247    .text.SysTickVector:0000000000000000 SysTickVector
     /tmp/ccIgVMD4.s:285    .text._port_switch:0000000000000000 $t
     /tmp/ccIgVMD4.s:290    .text._port_switch:0000000000000000 _port_switch
     /tmp/ccIgVMD4.s:317    .text._port_thread_start:0000000000000000 $t
     /tmp/ccIgVMD4.s:322    .text._port_thread_start:0000000000000000 _port_thread_start
                     .debug_frame:0000000000000010 $d

UNDEFINED SYMBOLS
chSchDoReschedule
nvicSetSystemHandlerPriority
rlist
chSysTimerHandlerI
chThdExit
