ARM GAS  /tmp/ccIgVMD4.s 			page 1


   1              		.syntax unified
   2              		.cpu cortex-m3
   3              		.fpu softvfp
   4              		.eabi_attribute 20, 1
   5              		.eabi_attribute 21, 1
   6              		.eabi_attribute 23, 3
   7              		.eabi_attribute 24, 1
   8              		.eabi_attribute 25, 1
   9              		.eabi_attribute 26, 1
  10              		.eabi_attribute 30, 2
  11              		.eabi_attribute 34, 1
  12              		.eabi_attribute 18, 4
  13              		.thumb
  14              		.file	"chcore_v7m.c"
  15              		.text
  16              	.Ltext0:
  17              		.cfi_sections	.debug_frame
  18              		.section	.text._port_switch_from_isr,"ax",%progbits
  19              		.align	2
  20              		.global	_port_switch_from_isr
  21              		.thumb
  22              		.thumb_func
  23              		.type	_port_switch_from_isr, %function
  24              	_port_switch_from_isr:
  25              	.LFB11:
  26              		.file 1 "../ChibiOS_2.6.4/os/ports/GCC/ARMCMx/chcore_v7m.c"
  27              		.loc 1 207 0
  28              		.cfi_startproc
  29              		@ Naked Function: prologue and epilogue provided by programmer.
  30              		@ args = 0, pretend = 0, frame = 0
  31              		@ frame_needed = 0, uses_anonymous_args = 0
  32              		.loc 1 210 0
  33 0000 FFF7FEFF 		bl	chSchDoReschedule
  34              	.LVL0:
  35              		.loc 1 212 0
  36              	@ 212 "../ChibiOS_2.6.4/os/ports/GCC/ARMCMx/chcore_v7m.c" 1
  37              		_port_exit_from_isr:
  38              	@ 0 "" 2
  39              		.loc 1 214 0
  40              	@ 214 "../ChibiOS_2.6.4/os/ports/GCC/ARMCMx/chcore_v7m.c" 1
  41 0004 00DF     		svc     #0
  42              	@ 0 "" 2
  43              		.loc 1 221 0
  44              		.thumb
  45              		.cfi_endproc
  46              	.LFE11:
  47              		.size	_port_switch_from_isr, .-_port_switch_from_isr
  48 0006 00BF     		.section	.text.SVCallVector,"ax",%progbits
  49              		.align	2
  50              		.global	SVCallVector
  51              		.thumb
  52              		.thumb_func
  53              		.type	SVCallVector, %function
  54              	SVCallVector:
  55              	.LFB8:
  56              		.loc 1 65 0
  57              		.cfi_startproc
ARM GAS  /tmp/ccIgVMD4.s 			page 2


  58              		@ args = 0, pretend = 0, frame = 0
  59              		@ frame_needed = 0, uses_anonymous_args = 0
  60              		@ link register save eliminated.
  61              		.loc 1 69 0
  62              	@ 69 "../ChibiOS_2.6.4/os/ports/GCC/ARMCMx/chcore_v7m.c" 1
  63 0000 EFF30983 		mrs     r3, PSP
  64              	@ 0 "" 2
  65              	.LVL1:
  66              		.loc 1 73 0
  67              		.thumb
  68 0004 2033     		adds	r3, r3, #32
  69              	.LVL2:
  70              		.loc 1 80 0
  71              	@ 80 "../ChibiOS_2.6.4/os/ports/GCC/ARMCMx/chcore_v7m.c" 1
  72 0006 83F30988 		msr     PSP, r3
  73              	@ 0 "" 2
  74              		.thumb
  75              	.LBB2:
  76              		.loc 1 81 0
  77 000a 0023     		movs	r3, #0
  78              	.LVL3:
  79              	@ 81 "../ChibiOS_2.6.4/os/ports/GCC/ARMCMx/chcore_v7m.c" 1
  80 000c 83F31188 		msr     BASEPRI, r3
  81              	@ 0 "" 2
  82              		.thumb
  83 0010 7047     		bx	lr
  84              	.LBE2:
  85              		.cfi_endproc
  86              	.LFE8:
  87              		.size	SVCallVector, .-SVCallVector
  88 0012 00BF     		.section	.text._port_init,"ax",%progbits
  89              		.align	2
  90              		.global	_port_init
  91              		.thumb
  92              		.thumb_func
  93              		.type	_port_init, %function
  94              	_port_init:
  95              	.LFB9:
  96              		.loc 1 118 0
  97              		.cfi_startproc
  98              		@ args = 0, pretend = 0, frame = 0
  99              		@ frame_needed = 0, uses_anonymous_args = 0
 100 0000 08B5     		push	{r3, lr}
 101              		.cfi_def_cfa_offset 8
 102              		.cfi_offset 3, -8
 103              		.cfi_offset 14, -4
 104              		.loc 1 122 0
 105 0002 4FF44072 		mov	r2, #768
 106              		.loc 1 121 0
 107 0006 4FF46D43 		mov	r3, #60672
 108 000a CEF20003 		movt	r3, 57344
 109              		.loc 1 122 0
 110 000e C0F2FA52 		movt	r2, 1530
 111              		.loc 1 121 0
 112 0012 0021     		movs	r1, #0
 113 0014 9960     		str	r1, [r3, #8]
 114              		.loc 1 125 0
ARM GAS  /tmp/ccIgVMD4.s 			page 3


 115 0016 0720     		movs	r0, #7
 116              		.loc 1 122 0
 117 0018 DA60     		str	r2, [r3, #12]
 118              		.loc 1 125 0
 119 001a 1021     		movs	r1, #16
 120 001c FFF7FEFF 		bl	nvicSetSystemHandlerPriority
 121              	.LVL4:
 122              		.loc 1 127 0
 123 0020 0A20     		movs	r0, #10
 124 0022 2021     		movs	r1, #32
 125 0024 FFF7FEFF 		bl	nvicSetSystemHandlerPriority
 126              	.LVL5:
 127              		.loc 1 131 0
 128 0028 BDE80840 		pop	{r3, lr}
 129              		.loc 1 129 0
 130 002c 0B20     		movs	r0, #11
 131 002e 8021     		movs	r1, #128
 132 0030 FFF7FEBF 		b	nvicSetSystemHandlerPriority
 133              	.LVL6:
 134              		.cfi_endproc
 135              	.LFE9:
 136              		.size	_port_init, .-_port_init
 137              		.section	.text._port_irq_epilogue,"ax",%progbits
 138              		.align	2
 139              		.global	_port_irq_epilogue
 140              		.thumb
 141              		.thumb_func
 142              		.type	_port_irq_epilogue, %function
 143              	_port_irq_epilogue:
 144              	.LFB10:
 145              		.loc 1 148 0
 146              		.cfi_startproc
 147              		@ args = 0, pretend = 0, frame = 0
 148              		@ frame_needed = 0, uses_anonymous_args = 0
 149              		@ link register save eliminated.
 150              	.LBB3:
 151              		.loc 1 150 0
 152 0000 2023     		movs	r3, #32
 153              	@ 150 "../ChibiOS_2.6.4/os/ports/GCC/ARMCMx/chcore_v7m.c" 1
 154 0002 83F31188 		msr     BASEPRI, r3
 155              	@ 0 "" 2
 156              		.thumb
 157              	.LBE3:
 158              		.loc 1 151 0
 159 0006 4FF46D43 		mov	r3, #60672
 160 000a CEF20003 		movt	r3, 57344
 161 000e 5B68     		ldr	r3, [r3, #4]
 162 0010 13F40063 		ands	r3, r3, #2048
 163 0014 1FD0     		beq	.L5
 164              	.LBB4:
 165              		.loc 1 155 0
 166              	@ 155 "../ChibiOS_2.6.4/os/ports/GCC/ARMCMx/chcore_v7m.c" 1
 167 0016 EFF30982 		mrs     r2, PSP
 168              	@ 0 "" 2
 169              	.LVL7:
 170              		.loc 1 159 0
 171              		.thumb
ARM GAS  /tmp/ccIgVMD4.s 			page 4


 172 001a A2F12003 		sub	r3, r2, #32
 173              	.LVL8:
 174              		.loc 1 160 0
 175              	@ 160 "../ChibiOS_2.6.4/os/ports/GCC/ARMCMx/chcore_v7m.c" 1
 176 001e 83F30988 		msr     PSP, r3
 177              	@ 0 "" 2
 178              		.loc 1 165 0
 179              		.thumb
 180 0022 40F20003 		movw	r3, #:lower16:rlist
 181              	.LVL9:
 182 0026 C0F20003 		movt	r3, #:upper16:rlist
 183              		.loc 1 161 0
 184 002a 4FF08070 		mov	r0, #16777216
 185              		.loc 1 165 0
 186 002e 9969     		ldr	r1, [r3, #24]
 187              		.loc 1 161 0
 188 0030 42F8040C 		str	r0, [r2, #-4]
 189              		.loc 1 165 0
 190 0034 C87F     		ldrb	r0, [r1, #31]	@ zero_extendqisi2
 191 0036 88B1     		cbz	r0, .L6
 192              		.loc 1 165 0 is_stmt 0 discriminator 1
 193 0038 1868     		ldr	r0, [r3]
 194 003a 8B68     		ldr	r3, [r1, #8]
 195 003c 8168     		ldr	r1, [r0, #8]
 196 003e 9942     		cmp	r1, r3
 197 0040 94BF     		ite	ls
 198 0042 0023     		movls	r3, #0
 199 0044 0123     		movhi	r3, #1
 200 0046 93B1     		cbz	r3, .L8
 201              	.L11:
 202              		.loc 1 167 0 is_stmt 1
 203 0048 40F20003 		movw	r3, #:lower16:_port_switch_from_isr
 204 004c C0F20003 		movt	r3, #:upper16:_port_switch_from_isr
 205 0050 42F8083C 		str	r3, [r2, #-8]
 206 0054 7047     		bx	lr
 207              	.LVL10:
 208              	.L5:
 209              	.LBE4:
 210              	.LBB5:
 211              		.loc 1 197 0
 212              	@ 197 "../ChibiOS_2.6.4/os/ports/GCC/ARMCMx/chcore_v7m.c" 1
 213 0056 83F31188 		msr     BASEPRI, r3
 214              	@ 0 "" 2
 215              		.thumb
 216 005a 7047     		bx	lr
 217              	.LVL11:
 218              	.L6:
 219              	.LBE5:
 220              	.LBB6:
 221              		.loc 1 165 0 discriminator 2
 222 005c 1868     		ldr	r0, [r3]
 223 005e 8B68     		ldr	r3, [r1, #8]
 224 0060 8168     		ldr	r1, [r0, #8]
 225 0062 9942     		cmp	r1, r3
 226 0064 34BF     		ite	cc
 227 0066 0023     		movcc	r3, #0
 228 0068 0123     		movcs	r3, #1
ARM GAS  /tmp/ccIgVMD4.s 			page 5


 229 006a 002B     		cmp	r3, #0
 230 006c ECD1     		bne	.L11
 231              	.L8:
 232              		.loc 1 176 0
 233 006e 40F20003 		movw	r3, #:lower16:_port_exit_from_isr
 234 0072 C0F20003 		movt	r3, #:upper16:_port_exit_from_isr
 235 0076 42F8083C 		str	r3, [r2, #-8]
 236 007a 7047     		bx	lr
 237              	.LBE6:
 238              		.cfi_endproc
 239              	.LFE10:
 240              		.size	_port_irq_epilogue, .-_port_irq_epilogue
 241              		.section	.text.SysTickVector,"ax",%progbits
 242              		.align	2
 243              		.global	SysTickVector
 244              		.thumb
 245              		.thumb_func
 246              		.type	SysTickVector, %function
 247              	SysTickVector:
 248              	.LFB7:
 249              		.loc 1 47 0
 250              		.cfi_startproc
 251              		@ args = 0, pretend = 0, frame = 0
 252              		@ frame_needed = 0, uses_anonymous_args = 0
 253 0000 08B5     		push	{r3, lr}
 254              		.cfi_def_cfa_offset 8
 255              		.cfi_offset 3, -8
 256              		.cfi_offset 14, -4
 257              	.LBB7:
 258              		.loc 1 51 0
 259 0002 2023     		movs	r3, #32
 260              	@ 51 "../ChibiOS_2.6.4/os/ports/GCC/ARMCMx/chcore_v7m.c" 1
 261 0004 83F31188 		msr     BASEPRI, r3
 262              	@ 0 "" 2
 263              		.thumb
 264              	.LBE7:
 265              		.loc 1 52 0
 266 0008 FFF7FEFF 		bl	chSysTimerHandlerI
 267              	.LVL12:
 268              	.LBB8:
 269              		.loc 1 53 0
 270 000c 0023     		movs	r3, #0
 271              	@ 53 "../ChibiOS_2.6.4/os/ports/GCC/ARMCMx/chcore_v7m.c" 1
 272 000e 83F31188 		msr     BASEPRI, r3
 273              	@ 0 "" 2
 274              		.thumb
 275              	.LBE8:
 276              		.loc 1 56 0
 277 0012 BDE80840 		pop	{r3, lr}
 278              		.loc 1 55 0
 279 0016 FFF7FEBF 		b	_port_irq_epilogue
 280              	.LVL13:
 281              		.cfi_endproc
 282              	.LFE7:
 283              		.size	SysTickVector, .-SysTickVector
 284 001a 00BF     		.section	.text._port_switch,"ax",%progbits
 285              		.align	2
ARM GAS  /tmp/ccIgVMD4.s 			page 6


 286              		.global	_port_switch
 287              		.thumb
 288              		.thumb_func
 289              		.type	_port_switch, %function
 290              	_port_switch:
 291              	.LFB12:
 292              		.loc 1 236 0
 293              		.cfi_startproc
 294              		@ Naked Function: prologue and epilogue provided by programmer.
 295              		@ args = 0, pretend = 0, frame = 0
 296              		@ frame_needed = 0, uses_anonymous_args = 0
 297              	.LVL14:
 298              		.loc 1 238 0
 299              	@ 238 "../ChibiOS_2.6.4/os/ports/GCC/ARMCMx/chcore_v7m.c" 1
 300 0000 2DE9F04F 		push    {r4, r5, r6, r7, r8, r9, r10, r11, lr}
 301              	@ 0 "" 2
 302              		.loc 1 244 0
 303              	@ 244 "../ChibiOS_2.6.4/os/ports/GCC/ARMCMx/chcore_v7m.c" 1
 304 0004 C1F80CD0 		str     sp, [r1, #12]                          
 305 0008 D0F80CD0 		ldr     sp, [r0, #12]
 306              	@ 0 "" 2
 307              		.loc 1 250 0
 308              	@ 250 "../ChibiOS_2.6.4/os/ports/GCC/ARMCMx/chcore_v7m.c" 1
 309 000c BDE8F08F 		pop     {r4, r5, r6, r7, r8, r9, r10, r11, pc}
 310              	@ 0 "" 2
 311              		.loc 1 252 0
 312              		.thumb
 313              		.cfi_endproc
 314              	.LFE12:
 315              		.size	_port_switch, .-_port_switch
 316              		.section	.text._port_thread_start,"ax",%progbits
 317              		.align	2
 318              		.global	_port_thread_start
 319              		.thumb
 320              		.thumb_func
 321              		.type	_port_thread_start, %function
 322              	_port_thread_start:
 323              	.LFB13:
 324              		.loc 1 259 0
 325              		.cfi_startproc
 326              		@ args = 0, pretend = 0, frame = 0
 327              		@ frame_needed = 0, uses_anonymous_args = 0
 328              		@ link register save eliminated.
 329              	.LBB9:
 330              		.loc 1 261 0
 331 0000 0023     		movs	r3, #0
 332              	@ 261 "../ChibiOS_2.6.4/os/ports/GCC/ARMCMx/chcore_v7m.c" 1
 333 0002 83F31188 		msr     BASEPRI, r3
 334              	@ 0 "" 2
 335              		.thumb
 336              	.LBE9:
 337              		.loc 1 262 0
 338              	@ 262 "../ChibiOS_2.6.4/os/ports/GCC/ARMCMx/chcore_v7m.c" 1
 339 0006 2846     		mov     r0, r5                                 
 340 0008 A047     		blx     r4                                     
 341 000a FFF7FEFF 		bl      chThdExit
 342              	@ 0 "" 2
ARM GAS  /tmp/ccIgVMD4.s 			page 7


 343              		.thumb
 344 000e 7047     		bx	lr
 345              		.cfi_endproc
 346              	.LFE13:
 347              		.size	_port_thread_start, .-_port_thread_start
 348              		.text
 349              	.Letext0:
 350              		.file 2 "/usr/include/newlib/machine/_default_types.h"
 351              		.file 3 "/usr/include/newlib/stdint.h"
 352              		.file 4 "../ChibiOS_2.6.4/os/ports/GCC/ARMCMx/chtypes.h"
 353              		.file 5 "../ChibiOS_2.6.4/os/kernel/include/chlists.h"
 354              		.file 6 "../ChibiOS_2.6.4/os/kernel/include/chthreads.h"
 355              		.file 7 "../ChibiOS_2.6.4/os/ports/GCC/ARMCMx/chcore_v7m.h"
 356              		.file 8 "../ChibiOS_2.6.4/os/ports/common/ARMCMx/nvic.h"
 357              		.file 9 "../ChibiOS_2.6.4/os/kernel/include/chschd.h"
 358              		.file 10 "../ChibiOS_2.6.4/os/kernel/include/chmtx.h"
 359              		.file 11 "../ChibiOS_2.6.4/os/kernel/include/chsys.h"