ARM GAS  /tmp/ccSAZNqD.s 			page 1


   1              		.syntax unified
   2              		.cpu cortex-m3
   3              		.fpu softvfp
   4              		.eabi_attribute 20, 1
   5              		.eabi_attribute 21, 1
   6              		.eabi_attribute 23, 3
   7              		.eabi_attribute 24, 1
   8              		.eabi_attribute 25, 1
   9              		.eabi_attribute 26, 1
  10              		.eabi_attribute 30, 2
  11              		.eabi_attribute 34, 1
  12              		.eabi_attribute 18, 4
  13              		.thumb
  14              		.file	"chthreads.c"
  15              		.text
  16              	.Ltext0:
  17              		.cfi_sections	.debug_frame
  18              		.section	.text._thread_init,"ax",%progbits
  19              		.align	2
  20              		.global	_thread_init
  21              		.thumb
  22              		.thumb_func
  23              		.type	_thread_init, %function
  24              	_thread_init:
  25              	.LFB7:
  26              		.file 1 "../ChibiOS_2.6.4/os/kernel/src/chthreads.c"
  27              		.loc 1 76 0
  28              		.cfi_startproc
  29              		@ args = 0, pretend = 0, frame = 0
  30              		@ frame_needed = 0, uses_anonymous_args = 0
  31              		@ link register save eliminated.
  32              	.LVL0:
  33 0000 2DE9F003 		push	{r4, r5, r6, r7, r8, r9}
  34              		.cfi_def_cfa_offset 24
  35              		.cfi_offset 4, -24
  36              		.cfi_offset 5, -20
  37              		.cfi_offset 6, -16
  38              		.cfi_offset 7, -12
  39              		.cfi_offset 8, -8
  40              		.cfi_offset 9, -4
  41              		.loc 1 99 0
  42 0004 40F20002 		movw	r2, #:lower16:rlist
  43 0008 C0F20002 		movt	r2, #:upper16:rlist
  44 000c 5569     		ldr	r5, [r2, #20]
  45              		.loc 1 80 0
  46 000e 0024     		movs	r4, #0
  47              		.loc 1 105 0
  48 0010 00F12C06 		add	r6, r0, #44
  49              		.loc 1 79 0
  50 0014 4FF00209 		mov	r9, #2
  51              		.loc 1 82 0
  52 0018 4FF01408 		mov	r8, #20
  53              		.loc 1 102 0
  54 001c 00F12807 		add	r7, r0, #40
  55              		.loc 1 95 0
  56 0020 4FF0010C 		mov	ip, #1
  57              		.loc 1 99 0
ARM GAS  /tmp/ccSAZNqD.s 			page 2


  58 0024 4561     		str	r5, [r0, #20]
  59 0026 0261     		str	r2, [r0, #16]
  60              		.loc 1 78 0
  61 0028 8160     		str	r1, [r0, #8]
  62              		.loc 1 79 0
  63 002a 80F81C90 		strb	r9, [r0, #28]
  64              		.loc 1 82 0
  65 002e 80F81F80 		strb	r8, [r0, #31]
  66              		.loc 1 80 0
  67 0032 4477     		strb	r4, [r0, #29]
  68              		.loc 1 86 0
  69 0034 C463     		str	r4, [r0, #60]
  70              		.loc 1 89 0
  71 0036 8463     		str	r4, [r0, #56]
  72              		.loc 1 92 0
  73 0038 0462     		str	r4, [r0, #32]
  74              		.loc 1 98 0
  75 003a 8461     		str	r4, [r0, #24]
  76              		.loc 1 85 0
  77 003c 0164     		str	r1, [r0, #64]
  78              		.loc 1 99 0
  79 003e 5061     		str	r0, [r2, #20]
  80              		.loc 1 95 0
  81 0040 80F81EC0 		strb	ip, [r0, #30]
  82              		.loc 1 99 0
  83 0044 2861     		str	r0, [r5, #16]
  84              		.loc 1 102 0
  85 0046 8762     		str	r7, [r0, #40]
  86              		.loc 1 105 0
  87 0048 0663     		str	r6, [r0, #48]
  88 004a C662     		str	r6, [r0, #44]
  89              		.loc 1 114 0
  90 004c BDE8F003 		pop	{r4, r5, r6, r7, r8, r9}
  91 0050 7047     		bx	lr
  92              		.cfi_endproc
  93              	.LFE7:
  94              		.size	_thread_init, .-_thread_init
  95 0052 00BF     		.section	.text.chThdCreateI,"ax",%progbits
  96              		.align	2
  97              		.global	chThdCreateI
  98              		.thumb
  99              		.thumb_func
 100              		.type	chThdCreateI, %function
 101              	chThdCreateI:
 102              	.LFB8:
 103              		.loc 1 158 0
 104              		.cfi_startproc
 105              		@ args = 4, pretend = 0, frame = 8
 106              		@ frame_needed = 0, uses_anonymous_args = 0
 107              		@ link register save eliminated.
 108              	.LVL1:
 109 0000 2DE9F00F 		push	{r4, r5, r6, r7, r8, r9, r10, fp}
 110              		.cfi_def_cfa_offset 32
 111              		.cfi_offset 4, -32
 112              		.cfi_offset 5, -28
 113              		.cfi_offset 6, -24
 114              		.cfi_offset 7, -20
ARM GAS  /tmp/ccSAZNqD.s 			page 3


 115              		.cfi_offset 8, -16
 116              		.cfi_offset 9, -12
 117              		.cfi_offset 10, -8
 118              		.cfi_offset 11, -4
 119              	.LBB16:
 120              	.LBB17:
 121              		.loc 1 99 0
 122 0004 40F20005 		movw	r5, #:lower16:rlist
 123 0008 C0F20005 		movt	r5, #:upper16:rlist
 124              	.LBE17:
 125              	.LBE16:
 126              		.loc 1 167 0
 127 000c A1F1240C 		sub	ip, r1, #36
 128              	.LVL2:
 129              	.LBB23:
 130              	.LBB18:
 131              		.loc 1 99 0
 132 0010 6969     		ldr	r1, [r5, #20]
 133              	.LVL3:
 134              	.LBE18:
 135              	.LBE23:
 136              		.loc 1 158 0
 137 0012 82B0     		sub	sp, sp, #8
 138              		.cfi_def_cfa_offset 40
 139              	.LBB24:
 140              	.LBB19:
 141              		.loc 1 99 0
 142 0014 0191     		str	r1, [sp, #4]
 143              	.LBE19:
 144              	.LBE24:
 145              		.loc 1 167 0
 146 0016 0A99     		ldr	r1, [sp, #40]
 147 0018 00EB0C07 		add	r7, r0, ip
 148 001c C760     		str	r7, [r0, #12]
 149 001e 40F20006 		movw	r6, #:lower16:_port_thread_start
 150 0022 40F80C30 		str	r3, [r0, ip]
 151 0026 7960     		str	r1, [r7, #4]
 152              	.LBB25:
 153              	.LBB20:
 154              		.loc 1 99 0
 155 0028 0199     		ldr	r1, [sp, #4]
 156              		.loc 1 80 0
 157 002a 0023     		movs	r3, #0
 158              	.LVL4:
 159              		.loc 1 105 0
 160 002c 00F12C0B 		add	fp, r0, #44
 161              	.LBE20:
 162              	.LBE25:
 163              		.loc 1 167 0
 164 0030 C0F20006 		movt	r6, #:upper16:_port_thread_start
 165              	.LBB26:
 166              	.LBB21:
 167              		.loc 1 79 0
 168 0034 4FF0020A 		mov	r10, #2
 169              		.loc 1 82 0
 170 0038 4FF01409 		mov	r9, #20
 171              		.loc 1 95 0
ARM GAS  /tmp/ccSAZNqD.s 			page 4


 172 003c 4FF00108 		mov	r8, #1
 173              		.loc 1 102 0
 174 0040 00F1280C 		add	ip, r0, #40
 175              	.LVL5:
 176              	.LBE21:
 177              	.LBE26:
 178              		.loc 1 167 0
 179 0044 3E62     		str	r6, [r7, #32]
 180              	.LVL6:
 181              	.LBB27:
 182              	.LBB22:
 183              		.loc 1 78 0
 184 0046 8260     		str	r2, [r0, #8]
 185              		.loc 1 99 0
 186 0048 0561     		str	r5, [r0, #16]
 187 004a 4161     		str	r1, [r0, #20]
 188              		.loc 1 85 0
 189 004c 0264     		str	r2, [r0, #64]
 190              		.loc 1 79 0
 191 004e 80F81CA0 		strb	r10, [r0, #28]
 192              	.LVL7:
 193              		.loc 1 82 0
 194 0052 80F81F90 		strb	r9, [r0, #31]
 195              		.loc 1 95 0
 196 0056 80F81E80 		strb	r8, [r0, #30]
 197              		.loc 1 80 0
 198 005a 4377     		strb	r3, [r0, #29]
 199              		.loc 1 99 0
 200 005c 6861     		str	r0, [r5, #20]
 201              		.loc 1 86 0
 202 005e C363     		str	r3, [r0, #60]
 203              		.loc 1 89 0
 204 0060 8363     		str	r3, [r0, #56]
 205              		.loc 1 92 0
 206 0062 0362     		str	r3, [r0, #32]
 207              		.loc 1 98 0
 208 0064 8361     		str	r3, [r0, #24]
 209              		.loc 1 99 0
 210 0066 0861     		str	r0, [r1, #16]
 211              		.loc 1 102 0
 212 0068 C0F828C0 		str	ip, [r0, #40]
 213              		.loc 1 105 0
 214 006c C0F830B0 		str	fp, [r0, #48]
 215 0070 C0F82CB0 		str	fp, [r0, #44]
 216              	.LBE22:
 217              	.LBE27:
 218              		.loc 1 169 0
 219 0074 02B0     		add	sp, sp, #8
 220              		@ sp needed
 221 0076 BDE8F00F 		pop	{r4, r5, r6, r7, r8, r9, r10, fp}
 222              	.LVL8:
 223 007a 7047     		bx	lr
 224              		.cfi_endproc
 225              	.LFE8:
 226              		.size	chThdCreateI, .-chThdCreateI
 227              		.section	.text.chThdCreateStatic,"ax",%progbits
 228              		.align	2
ARM GAS  /tmp/ccSAZNqD.s 			page 5


 229              		.global	chThdCreateStatic
 230              		.thumb
 231              		.thumb_func
 232              		.type	chThdCreateStatic, %function
 233              	chThdCreateStatic:
 234              	.LFB9:
 235              		.loc 1 188 0
 236              		.cfi_startproc
 237              		@ args = 4, pretend = 0, frame = 0
 238              		@ frame_needed = 0, uses_anonymous_args = 0
 239              	.LVL9:
 240 0000 2DE9F047 		push	{r4, r5, r6, r7, r8, r9, r10, lr}
 241              		.cfi_def_cfa_offset 32
 242              		.cfi_offset 4, -32
 243              		.cfi_offset 5, -28
 244              		.cfi_offset 6, -24
 245              		.cfi_offset 7, -20
 246              		.cfi_offset 8, -16
 247              		.cfi_offset 9, -12
 248              		.cfi_offset 10, -8
 249              		.cfi_offset 14, -4
 250              		.loc 1 188 0
 251 0004 9E46     		mov	lr, r3
 252 0006 0446     		mov	r4, r0
 253              	.LBB28:
 254              		.loc 1 199 0
 255 0008 2023     		movs	r3, #32
 256              	.LVL10:
 257              	@ 199 "../ChibiOS_2.6.4/os/kernel/src/chthreads.c" 1
 258 000a 83F31188 		msr     BASEPRI, r3
 259              	@ 0 "" 2
 260              	.LVL11:
 261              		.thumb
 262              	.LBE28:
 263              	.LBB29:
 264              	.LBB30:
 265              	.LBB31:
 266              	.LBB32:
 267              		.loc 1 99 0
 268 000e 40F20006 		movw	r6, #:lower16:rlist
 269              	.LBE32:
 270              	.LBE31:
 271              		.loc 1 167 0
 272 0012 A1F12403 		sub	r3, r1, #36
 273 0016 1844     		add	r0, r0, r3
 274              	.LVL12:
 275              	.LBB39:
 276              	.LBB33:
 277              		.loc 1 99 0
 278 0018 C0F20006 		movt	r6, #:upper16:rlist
 279 001c 7769     		ldr	r7, [r6, #20]
 280              	.LBE33:
 281              	.LBE39:
 282              		.loc 1 167 0
 283 001e 40F20001 		movw	r1, #:lower16:_port_thread_start
 284              	.LVL13:
 285 0022 E060     		str	r0, [r4, #12]
ARM GAS  /tmp/ccSAZNqD.s 			page 6


 286 0024 44F803E0 		str	lr, [r4, r3]
 287 0028 089B     		ldr	r3, [sp, #32]
 288              	.LVL14:
 289              	.LBB40:
 290              	.LBB34:
 291              		.loc 1 80 0
 292 002a 0025     		movs	r5, #0
 293              		.loc 1 105 0
 294 002c 04F12C0E 		add	lr, r4, #44
 295              	.LVL15:
 296              		.loc 1 102 0
 297 0030 04F1280C 		add	ip, r4, #40
 298              	.LBE34:
 299              	.LBE40:
 300              		.loc 1 167 0
 301 0034 C0F20001 		movt	r1, #:upper16:_port_thread_start
 302              	.LBB41:
 303              	.LBB35:
 304              		.loc 1 79 0
 305 0038 4FF0020A 		mov	r10, #2
 306              		.loc 1 82 0
 307 003c 4FF01409 		mov	r9, #20
 308              		.loc 1 95 0
 309 0040 4FF00108 		mov	r8, #1
 310              	.LBE35:
 311              	.LBE41:
 312              		.loc 1 167 0
 313 0044 4360     		str	r3, [r0, #4]
 314 0046 0162     		str	r1, [r0, #32]
 315              	.LVL16:
 316              	.LBB42:
 317              	.LBB36:
 318              		.loc 1 78 0
 319 0048 A260     		str	r2, [r4, #8]
 320              		.loc 1 99 0
 321 004a 2661     		str	r6, [r4, #16]
 322 004c 6761     		str	r7, [r4, #20]
 323              		.loc 1 85 0
 324 004e 2264     		str	r2, [r4, #64]
 325              		.loc 1 79 0
 326 0050 84F81CA0 		strb	r10, [r4, #28]
 327              	.LVL17:
 328              		.loc 1 82 0
 329 0054 84F81F90 		strb	r9, [r4, #31]
 330              		.loc 1 95 0
 331 0058 84F81E80 		strb	r8, [r4, #30]
 332              		.loc 1 80 0
 333 005c 6577     		strb	r5, [r4, #29]
 334              		.loc 1 99 0
 335 005e 7461     		str	r4, [r6, #20]
 336              		.loc 1 86 0
 337 0060 E563     		str	r5, [r4, #60]
 338              		.loc 1 89 0
 339 0062 A563     		str	r5, [r4, #56]
 340              		.loc 1 92 0
 341 0064 2562     		str	r5, [r4, #32]
 342              		.loc 1 98 0
ARM GAS  /tmp/ccSAZNqD.s 			page 7


 343 0066 A561     		str	r5, [r4, #24]
 344              	.LBE36:
 345              	.LBE42:
 346              	.LBE30:
 347              	.LBE29:
 348              		.loc 1 200 0
 349 0068 2046     		mov	r0, r4
 350              	.LBB47:
 351              	.LBB45:
 352              	.LBB43:
 353              	.LBB37:
 354              		.loc 1 99 0
 355 006a 3C61     		str	r4, [r7, #16]
 356              	.LBE37:
 357              	.LBE43:
 358              	.LBE45:
 359              	.LBE47:
 360              		.loc 1 200 0
 361 006c 2946     		mov	r1, r5
 362              	.LBB48:
 363              	.LBB46:
 364              	.LBB44:
 365              	.LBB38:
 366              		.loc 1 102 0
 367 006e C4F828C0 		str	ip, [r4, #40]
 368              		.loc 1 105 0
 369 0072 C4F830E0 		str	lr, [r4, #48]
 370 0076 C4F82CE0 		str	lr, [r4, #44]
 371              	.LBE38:
 372              	.LBE44:
 373              	.LBE46:
 374              	.LBE48:
 375              		.loc 1 200 0
 376 007a FFF7FEFF 		bl	chSchWakeupS
 377              	.LVL18:
 378              	.LBB49:
 379              		.loc 1 201 0
 380 007e 2B46     		mov	r3, r5
 381              	@ 201 "../ChibiOS_2.6.4/os/kernel/src/chthreads.c" 1
 382 0080 83F31188 		msr     BASEPRI, r3
 383              	@ 0 "" 2
 384              		.thumb
 385              	.LBE49:
 386              		.loc 1 203 0
 387 0084 2046     		mov	r0, r4
 388 0086 BDE8F087 		pop	{r4, r5, r6, r7, r8, r9, r10, pc}
 389              		.cfi_endproc
 390              	.LFE9:
 391              		.size	chThdCreateStatic, .-chThdCreateStatic
 392 008a 00BF     		.section	.text.chThdSetPriority,"ax",%progbits
 393              		.align	2
 394              		.global	chThdSetPriority
 395              		.thumb
 396              		.thumb_func
 397              		.type	chThdSetPriority, %function
 398              	chThdSetPriority:
 399              	.LFB10:
ARM GAS  /tmp/ccSAZNqD.s 			page 8


 400              		.loc 1 217 0
 401              		.cfi_startproc
 402              		@ args = 0, pretend = 0, frame = 0
 403              		@ frame_needed = 0, uses_anonymous_args = 0
 404              	.LVL19:
 405 0000 10B5     		push	{r4, lr}
 406              		.cfi_def_cfa_offset 8
 407              		.cfi_offset 4, -8
 408              		.cfi_offset 14, -4
 409              	.LBB50:
 410              		.loc 1 222 0
 411 0002 2023     		movs	r3, #32
 412              	@ 222 "../ChibiOS_2.6.4/os/kernel/src/chthreads.c" 1
 413 0004 83F31188 		msr     BASEPRI, r3
 414              	@ 0 "" 2
 415              		.thumb
 416              	.LBE50:
 417              		.loc 1 224 0
 418 0008 40F20003 		movw	r3, #:lower16:rlist
 419 000c C0F20003 		movt	r3, #:upper16:rlist
 420 0010 9B69     		ldr	r3, [r3, #24]
 421 0012 1C6C     		ldr	r4, [r3, #64]
 422              	.LVL20:
 423              		.loc 1 225 0
 424 0014 9968     		ldr	r1, [r3, #8]
 425 0016 8C42     		cmp	r4, r1
 426 0018 01D0     		beq	.L5
 427              		.loc 1 225 0 is_stmt 0 discriminator 1
 428 001a 8142     		cmp	r1, r0
 429 001c 00D2     		bcs	.L6
 430              	.L5:
 431              		.loc 1 226 0 is_stmt 1
 432 001e 9860     		str	r0, [r3, #8]
 433              	.L6:
 434              		.loc 1 227 0
 435 0020 1864     		str	r0, [r3, #64]
 436              		.loc 1 232 0
 437 0022 FFF7FEFF 		bl	chSchRescheduleS
 438              	.LVL21:
 439              	.LBB51:
 440              		.loc 1 233 0
 441 0026 0023     		movs	r3, #0
 442              	@ 233 "../ChibiOS_2.6.4/os/kernel/src/chthreads.c" 1
 443 0028 83F31188 		msr     BASEPRI, r3
 444              	@ 0 "" 2
 445              		.thumb
 446              	.LBE51:
 447              		.loc 1 235 0
 448 002c 2046     		mov	r0, r4
 449 002e 10BD     		pop	{r4, pc}
 450              		.cfi_endproc
 451              	.LFE10:
 452              		.size	chThdSetPriority, .-chThdSetPriority
 453              		.section	.text.chThdResume,"ax",%progbits
 454              		.align	2
 455              		.global	chThdResume
 456              		.thumb
ARM GAS  /tmp/ccSAZNqD.s 			page 9


 457              		.thumb_func
 458              		.type	chThdResume, %function
 459              	chThdResume:
 460              	.LFB11:
 461              		.loc 1 250 0
 462              		.cfi_startproc
 463              		@ args = 0, pretend = 0, frame = 0
 464              		@ frame_needed = 0, uses_anonymous_args = 0
 465              	.LVL22:
 466 0000 10B5     		push	{r4, lr}
 467              		.cfi_def_cfa_offset 8
 468              		.cfi_offset 4, -8
 469              		.cfi_offset 14, -4
 470              	.LBB52:
 471              		.loc 1 252 0
 472 0002 2023     		movs	r3, #32
 473              	.LBE52:
 474              		.loc 1 250 0
 475 0004 0446     		mov	r4, r0
 476              	.LBB53:
 477              		.loc 1 252 0
 478              	@ 252 "../ChibiOS_2.6.4/os/kernel/src/chthreads.c" 1
 479 0006 83F31188 		msr     BASEPRI, r3
 480              	@ 0 "" 2
 481              		.thumb
 482              	.LBE53:
 483              		.loc 1 256 0
 484 000a 0021     		movs	r1, #0
 485 000c FFF7FEFF 		bl	chSchWakeupS
 486              	.LVL23:
 487              	.LBB54:
 488              		.loc 1 257 0
 489 0010 0023     		movs	r3, #0
 490              	@ 257 "../ChibiOS_2.6.4/os/kernel/src/chthreads.c" 1
 491 0012 83F31188 		msr     BASEPRI, r3
 492              	@ 0 "" 2
 493              		.thumb
 494              	.LBE54:
 495              		.loc 1 259 0
 496 0016 2046     		mov	r0, r4
 497 0018 10BD     		pop	{r4, pc}
 498              		.cfi_endproc
 499              	.LFE11:
 500              		.size	chThdResume, .-chThdResume
 501 001a 00BF     		.section	.text.chThdTerminate,"ax",%progbits
 502              		.align	2
 503              		.global	chThdTerminate
 504              		.thumb
 505              		.thumb_func
 506              		.type	chThdTerminate, %function
 507              	chThdTerminate:
 508              	.LFB12:
 509              		.loc 1 273 0
 510              		.cfi_startproc
 511              		@ args = 0, pretend = 0, frame = 0
 512              		@ frame_needed = 0, uses_anonymous_args = 0
 513              		@ link register save eliminated.
ARM GAS  /tmp/ccSAZNqD.s 			page 10


 514              	.LVL24:
 515              	.LBB55:
 516              		.loc 1 275 0
 517 0000 2023     		movs	r3, #32
 518              	@ 275 "../ChibiOS_2.6.4/os/kernel/src/chthreads.c" 1
 519 0002 83F31188 		msr     BASEPRI, r3
 520              	@ 0 "" 2
 521              		.thumb
 522              	.LBE55:
 523              		.loc 1 276 0
 524 0006 427F     		ldrb	r2, [r0, #29]	@ zero_extendqisi2
 525              	.LBB56:
 526              		.loc 1 277 0
 527 0008 0023     		movs	r3, #0
 528              	.LBE56:
 529              		.loc 1 276 0
 530 000a 42F00402 		orr	r2, r2, #4
 531 000e 4277     		strb	r2, [r0, #29]
 532              	.LBB57:
 533              		.loc 1 277 0
 534              	@ 277 "../ChibiOS_2.6.4/os/kernel/src/chthreads.c" 1
 535 0010 83F31188 		msr     BASEPRI, r3
 536              	@ 0 "" 2
 537              		.thumb
 538 0014 7047     		bx	lr
 539              	.LBE57:
 540              		.cfi_endproc
 541              	.LFE12:
 542              		.size	chThdTerminate, .-chThdTerminate
 543 0016 00BF     		.section	.text.chThdSleep,"ax",%progbits
 544              		.align	2
 545              		.global	chThdSleep
 546              		.thumb
 547              		.thumb_func
 548              		.type	chThdSleep, %function
 549              	chThdSleep:
 550              	.LFB13:
 551              		.loc 1 292 0
 552              		.cfi_startproc
 553              		@ args = 0, pretend = 0, frame = 0
 554              		@ frame_needed = 0, uses_anonymous_args = 0
 555              	.LVL25:
 556 0000 08B5     		push	{r3, lr}
 557              		.cfi_def_cfa_offset 8
 558              		.cfi_offset 3, -8
 559              		.cfi_offset 14, -4
 560              		.loc 1 292 0
 561 0002 0146     		mov	r1, r0
 562              	.LBB58:
 563              		.loc 1 296 0
 564 0004 2023     		movs	r3, #32
 565              	@ 296 "../ChibiOS_2.6.4/os/kernel/src/chthreads.c" 1
 566 0006 83F31188 		msr     BASEPRI, r3
 567              	@ 0 "" 2
 568              		.thumb
 569              	.LBE58:
 570              		.loc 1 297 0
ARM GAS  /tmp/ccSAZNqD.s 			page 11


 571 000a 0620     		movs	r0, #6
 572              	.LVL26:
 573 000c FFF7FEFF 		bl	chSchGoSleepTimeoutS
 574              	.LVL27:
 575              	.LBB59:
 576              		.loc 1 298 0
 577 0010 0023     		movs	r3, #0
 578              	@ 298 "../ChibiOS_2.6.4/os/kernel/src/chthreads.c" 1
 579 0012 83F31188 		msr     BASEPRI, r3
 580              	@ 0 "" 2
 581              		.thumb
 582 0016 08BD     		pop	{r3, pc}
 583              	.LBE59:
 584              		.cfi_endproc
 585              	.LFE13:
 586              		.size	chThdSleep, .-chThdSleep
 587              		.section	.text.chThdSleepUntil,"ax",%progbits
 588              		.align	2
 589              		.global	chThdSleepUntil
 590              		.thumb
 591              		.thumb_func
 592              		.type	chThdSleepUntil, %function
 593              	chThdSleepUntil:
 594              	.LFB14:
 595              		.loc 1 309 0
 596              		.cfi_startproc
 597              		@ args = 0, pretend = 0, frame = 0
 598              		@ frame_needed = 0, uses_anonymous_args = 0
 599              	.LVL28:
 600 0000 08B5     		push	{r3, lr}
 601              		.cfi_def_cfa_offset 8
 602              		.cfi_offset 3, -8
 603              		.cfi_offset 14, -4
 604              	.LBB60:
 605              		.loc 1 311 0
 606 0002 2023     		movs	r3, #32
 607              	@ 311 "../ChibiOS_2.6.4/os/kernel/src/chthreads.c" 1
 608 0004 83F31188 		msr     BASEPRI, r3
 609              	@ 0 "" 2
 610              		.thumb
 611              	.LBE60:
 612              		.loc 1 312 0
 613 0008 40F20003 		movw	r3, #:lower16:vtlist
 614 000c C0F20003 		movt	r3, #:upper16:vtlist
 615 0010 D968     		ldr	r1, [r3, #12]
 616              	.LVL29:
 617 0012 411A     		subs	r1, r0, r1
 618              	.LVL30:
 619 0014 02D0     		beq	.L12
 620              		.loc 1 313 0
 621 0016 0620     		movs	r0, #6
 622 0018 FFF7FEFF 		bl	chSchGoSleepTimeoutS
 623              	.LVL31:
 624              	.L12:
 625              	.LBB61:
 626              		.loc 1 314 0
 627 001c 0023     		movs	r3, #0
ARM GAS  /tmp/ccSAZNqD.s 			page 12


 628              	@ 314 "../ChibiOS_2.6.4/os/kernel/src/chthreads.c" 1
 629 001e 83F31188 		msr     BASEPRI, r3
 630              	@ 0 "" 2
 631              		.thumb
 632 0022 08BD     		pop	{r3, pc}
 633              	.LBE61:
 634              		.cfi_endproc
 635              	.LFE14:
 636              		.size	chThdSleepUntil, .-chThdSleepUntil
 637              		.section	.text.chThdYield,"ax",%progbits
 638              		.align	2
 639              		.global	chThdYield
 640              		.thumb
 641              		.thumb_func
 642              		.type	chThdYield, %function
 643              	chThdYield:
 644              	.LFB15:
 645              		.loc 1 324 0
 646              		.cfi_startproc
 647              		@ args = 0, pretend = 0, frame = 0
 648              		@ frame_needed = 0, uses_anonymous_args = 0
 649 0000 08B5     		push	{r3, lr}
 650              		.cfi_def_cfa_offset 8
 651              		.cfi_offset 3, -8
 652              		.cfi_offset 14, -4
 653              	.LBB62:
 654              		.loc 1 326 0
 655 0002 2023     		movs	r3, #32
 656              	@ 326 "../ChibiOS_2.6.4/os/kernel/src/chthreads.c" 1
 657 0004 83F31188 		msr     BASEPRI, r3
 658              	@ 0 "" 2
 659              		.thumb
 660              	.LBE62:
 661              		.loc 1 327 0
 662 0008 40F20003 		movw	r3, #:lower16:rlist
 663 000c C0F20003 		movt	r3, #:upper16:rlist
 664 0010 1A68     		ldr	r2, [r3]
 665 0012 9B69     		ldr	r3, [r3, #24]
 666 0014 9268     		ldr	r2, [r2, #8]
 667 0016 9B68     		ldr	r3, [r3, #8]
 668 0018 9A42     		cmp	r2, r3
 669 001a 01D3     		bcc	.L17
 670              		.loc 1 327 0 is_stmt 0 discriminator 1
 671 001c FFF7FEFF 		bl	chSchDoRescheduleBehind
 672              	.LVL32:
 673              	.L17:
 674              	.LBB63:
 675              		.loc 1 328 0 is_stmt 1
 676 0020 0023     		movs	r3, #0
 677              	@ 328 "../ChibiOS_2.6.4/os/kernel/src/chthreads.c" 1
 678 0022 83F31188 		msr     BASEPRI, r3
 679              	@ 0 "" 2
 680              		.thumb
 681 0026 08BD     		pop	{r3, pc}
 682              	.LBE63:
 683              		.cfi_endproc
 684              	.LFE15:
ARM GAS  /tmp/ccSAZNqD.s 			page 13


 685              		.size	chThdYield, .-chThdYield
 686              		.section	.text.chThdExitS,"ax",%progbits
 687              		.align	2
 688              		.global	chThdExitS
 689              		.thumb
 690              		.thumb_func
 691              		.type	chThdExitS, %function
 692              	chThdExitS:
 693              	.LFB17:
 694              		.loc 1 366 0
 695              		.cfi_startproc
 696              		@ args = 0, pretend = 0, frame = 0
 697              		@ frame_needed = 0, uses_anonymous_args = 0
 698              	.LVL33:
 699 0000 38B5     		push	{r3, r4, r5, lr}
 700              		.cfi_def_cfa_offset 16
 701              		.cfi_offset 3, -16
 702              		.cfi_offset 4, -12
 703              		.cfi_offset 5, -8
 704              		.cfi_offset 14, -4
 705              		.loc 1 367 0
 706 0002 40F20003 		movw	r3, #:lower16:rlist
 707 0006 C0F20003 		movt	r3, #:upper16:rlist
 708 000a 9C69     		ldr	r4, [r3, #24]
 709              	.LVL34:
 710              		.loc 1 374 0
 711 000c 2546     		mov	r5, r4
 712 000e 55F8283F 		ldr	r3, [r5, #40]!
 713              		.loc 1 369 0
 714 0012 6062     		str	r0, [r4, #36]
 715              		.loc 1 374 0
 716 0014 AB42     		cmp	r3, r5
 717 0016 07D0     		beq	.L22
 718              	.LVL35:
 719              	.L23:
 720              	.LBB64:
 721              	.LBB65:
 722              		.file 2 "../ChibiOS_2.6.4/os/kernel/include/chinline.h"
 723              		.loc 2 89 0
 724 0018 1A68     		ldr	r2, [r3]
 725              	.LBE65:
 726              	.LBE64:
 727              		.loc 1 375 0
 728 001a 1846     		mov	r0, r3
 729              	.LBB67:
 730              	.LBB66:
 731              		.loc 2 89 0
 732 001c A262     		str	r2, [r4, #40]
 733              	.LBE66:
 734              	.LBE67:
 735              		.loc 1 375 0
 736 001e FFF7FEFF 		bl	chSchReadyI
 737              	.LVL36:
 738              		.loc 1 374 0
 739 0022 A36A     		ldr	r3, [r4, #40]
 740 0024 AB42     		cmp	r3, r5
 741 0026 F7D1     		bne	.L23
ARM GAS  /tmp/ccSAZNqD.s 			page 14


 742              	.LVL37:
 743              	.L22:
 744              		.loc 1 380 0
 745 0028 637F     		ldrb	r3, [r4, #29]	@ zero_extendqisi2
 746 002a 9B07     		lsls	r3, r3, #30
 747 002c 04D1     		bne	.L21
 748              		.loc 1 381 0
 749 002e 2269     		ldr	r2, [r4, #16]
 750 0030 6369     		ldr	r3, [r4, #20]
 751 0032 1A61     		str	r2, [r3, #16]
 752 0034 2269     		ldr	r2, [r4, #16]
 753 0036 5361     		str	r3, [r2, #20]
 754              	.L21:
 755              		.loc 1 383 0
 756 0038 0E20     		movs	r0, #14
 757              		.loc 1 386 0
 758 003a BDE83840 		pop	{r3, r4, r5, lr}
 759              	.LVL38:
 760              		.loc 1 383 0
 761 003e FFF7FEBF 		b	chSchGoSleepS
 762              	.LVL39:
 763              		.cfi_endproc
 764              	.LFE17:
 765              		.size	chThdExitS, .-chThdExitS
 766 0042 00BF     		.section	.text.chThdExit,"ax",%progbits
 767              		.align	2
 768              		.global	chThdExit
 769              		.thumb
 770              		.thumb_func
 771              		.type	chThdExit, %function
 772              	chThdExit:
 773              	.LFB16:
 774              		.loc 1 345 0
 775              		.cfi_startproc
 776              		@ args = 0, pretend = 0, frame = 0
 777              		@ frame_needed = 0, uses_anonymous_args = 0
 778              		@ link register save eliminated.
 779              	.LVL40:
 780              	.LBB68:
 781              		.loc 1 347 0
 782 0000 2023     		movs	r3, #32
 783              	@ 347 "../ChibiOS_2.6.4/os/kernel/src/chthreads.c" 1
 784 0002 83F31188 		msr     BASEPRI, r3
 785              	@ 0 "" 2
 786              		.thumb
 787              	.LBE68:
 788              		.loc 1 348 0
 789 0006 FFF7FEBF 		b	chThdExitS
 790              	.LVL41:
 791              		.cfi_endproc
 792              	.LFE16:
 793              		.size	chThdExit, .-chThdExit
 794 000a 00BF     		.section	.text.chThdWait,"ax",%progbits
 795              		.align	2
 796              		.global	chThdWait
 797              		.thumb
 798              		.thumb_func
ARM GAS  /tmp/ccSAZNqD.s 			page 15


 799              		.type	chThdWait, %function
 800              	chThdWait:
 801              	.LFB18:
 802              		.loc 1 420 0
 803              		.cfi_startproc
 804              		@ args = 0, pretend = 0, frame = 0
 805              		@ frame_needed = 0, uses_anonymous_args = 0
 806              	.LVL42:
 807 0000 38B5     		push	{r3, r4, r5, lr}
 808              		.cfi_def_cfa_offset 16
 809              		.cfi_offset 3, -16
 810              		.cfi_offset 4, -12
 811              		.cfi_offset 5, -8
 812              		.cfi_offset 14, -4
 813              		.loc 1 420 0
 814 0002 0446     		mov	r4, r0
 815              	.LBB69:
 816              		.loc 1 425 0
 817 0004 2023     		movs	r3, #32
 818              	@ 425 "../ChibiOS_2.6.4/os/kernel/src/chthreads.c" 1
 819 0006 83F31188 		msr     BASEPRI, r3
 820              	@ 0 "" 2
 821              		.thumb
 822              	.LBE69:
 823              		.loc 1 430 0
 824 000a 037F     		ldrb	r3, [r0, #28]	@ zero_extendqisi2
 825 000c 0E2B     		cmp	r3, #14
 826 000e 0AD0     		beq	.L26
 827              		.loc 1 431 0
 828 0010 40F20003 		movw	r3, #:lower16:rlist
 829 0014 C0F20003 		movt	r3, #:upper16:rlist
 830              	.LBB70:
 831              	.LBB71:
 832              		.loc 2 82 0
 833 0018 826A     		ldr	r2, [r0, #40]
 834              	.LBE71:
 835              	.LBE70:
 836              		.loc 1 431 0
 837 001a 9B69     		ldr	r3, [r3, #24]
 838              	.LVL43:
 839              		.loc 1 432 0
 840 001c 0720     		movs	r0, #7
 841              	.LVL44:
 842              	.LBB73:
 843              	.LBB72:
 844              		.loc 2 82 0
 845 001e 1A60     		str	r2, [r3]
 846              		.loc 2 83 0
 847 0020 A362     		str	r3, [r4, #40]
 848              	.LBE72:
 849              	.LBE73:
 850              		.loc 1 432 0
 851 0022 FFF7FEFF 		bl	chSchGoSleepS
 852              	.LVL45:
 853              	.L26:
 854              		.loc 1 434 0
 855 0026 656A     		ldr	r5, [r4, #36]
ARM GAS  /tmp/ccSAZNqD.s 			page 16


 856              	.LVL46:
 857              	.LBB74:
 858              		.loc 1 435 0
 859 0028 0023     		movs	r3, #0
 860              	@ 435 "../ChibiOS_2.6.4/os/kernel/src/chthreads.c" 1
 861 002a 83F31188 		msr     BASEPRI, r3
 862              	@ 0 "" 2
 863              		.thumb
 864              	.LBE74:
 865              		.loc 1 437 0
 866 002e 2046     		mov	r0, r4
 867 0030 FFF7FEFF 		bl	chThdRelease
 868              	.LVL47:
 869              		.loc 1 440 0
 870 0034 2846     		mov	r0, r5
 871 0036 38BD     		pop	{r3, r4, r5, pc}
 872              		.cfi_endproc
 873              	.LFE18:
 874              		.size	chThdWait, .-chThdWait
 875              		.text
 876              	.Letext0:
 877              		.file 3 "/usr/lib/gcc/arm-none-eabi/4.8.2/include/stddef.h"
 878              		.file 4 "/usr/include/newlib/machine/_default_types.h"
 879              		.file 5 "/usr/include/newlib/stdint.h"
 880              		.file 6 "../ChibiOS_2.6.4/os/ports/GCC/ARMCMx/chtypes.h"
 881              		.file 7 "../ChibiOS_2.6.4/os/kernel/include/chlists.h"
 882              		.file 8 "../ChibiOS_2.6.4/os/kernel/include/chthreads.h"
 883              		.file 9 "../ChibiOS_2.6.4/os/ports/GCC/ARMCMx/chcore_v7m.h"
 884              		.file 10 "../ChibiOS_2.6.4/os/kernel/include/chvt.h"
 885              		.file 11 "../ChibiOS_2.6.4/os/kernel/include/chschd.h"
 886              		.file 12 "../ChibiOS_2.6.4/os/kernel/include/chmtx.h"
 887              		.file 13 "../ChibiOS_2.6.4/os/kernel/include/chdynamic.h"