ARM GAS  /tmp/cc9l7OP2.s 			page 1


   1              		.syntax unified
   2              		.cpu cortex-m3
   3              		.fpu softvfp
   4              		.eabi_attribute 20, 1
   5              		.eabi_attribute 21, 1
   6              		.eabi_attribute 23, 3
   7              		.eabi_attribute 24, 1
   8              		.eabi_attribute 25, 1
   9              		.eabi_attribute 26, 1
  10              		.eabi_attribute 30, 2
  11              		.eabi_attribute 34, 1
  12              		.eabi_attribute 18, 4
  13              		.thumb
  14              		.file	"evtimer.c"
  15              		.text
  16              	.Ltext0:
  17              		.cfi_sections	.debug_frame
  18              		.section	.text.tmrcb,"ax",%progbits
  19              		.align	2
  20              		.thumb
  21              		.thumb_func
  22              		.type	tmrcb, %function
  23              	tmrcb:
  24              	.LFB7:
  25              		.file 1 "../ChibiOS_2.6.4/os/various/evtimer.c"
  26              		.loc 1 28 0
  27              		.cfi_startproc
  28              		@ args = 0, pretend = 0, frame = 0
  29              		@ frame_needed = 0, uses_anonymous_args = 0
  30              	.LVL0:
  31 0000 10B5     		push	{r4, lr}
  32              		.cfi_def_cfa_offset 8
  33              		.cfi_offset 4, -8
  34              		.cfi_offset 14, -4
  35              	.LBB2:
  36              		.loc 1 31 0
  37 0002 2023     		movs	r3, #32
  38              	.LBE2:
  39              		.loc 1 28 0
  40 0004 0446     		mov	r4, r0
  41              	.LVL1:
  42              	.LBB3:
  43              		.loc 1 31 0
  44              	@ 31 "../ChibiOS_2.6.4/os/various/evtimer.c" 1
  45 0006 83F31188 		msr     BASEPRI, r3
  46              	@ 0 "" 2
  47              		.thumb
  48              	.LBE3:
  49              		.loc 1 32 0
  50 000a 0021     		movs	r1, #0
  51 000c 1430     		adds	r0, r0, #20
  52              	.LVL2:
  53 000e FFF7FEFF 		bl	chEvtBroadcastFlagsI
  54              	.LVL3:
  55              		.loc 1 33 0
  56 0012 40F20002 		movw	r2, #:lower16:tmrcb
  57 0016 2346     		mov	r3, r4
ARM GAS  /tmp/cc9l7OP2.s 			page 2


  58 0018 2046     		mov	r0, r4
  59 001a A169     		ldr	r1, [r4, #24]
  60 001c C0F20002 		movt	r2, #:upper16:tmrcb
  61 0020 FFF7FEFF 		bl	chVTSetI
  62              	.LVL4:
  63              	.LBB4:
  64              		.loc 1 34 0
  65 0024 0023     		movs	r3, #0
  66              	@ 34 "../ChibiOS_2.6.4/os/various/evtimer.c" 1
  67 0026 83F31188 		msr     BASEPRI, r3
  68              	@ 0 "" 2
  69              		.thumb
  70 002a 10BD     		pop	{r4, pc}
  71              	.LBE4:
  72              		.cfi_endproc
  73              	.LFE7:
  74              		.size	tmrcb, .-tmrcb
  75              		.section	.text.evtStart,"ax",%progbits
  76              		.align	2
  77              		.global	evtStart
  78              		.thumb
  79              		.thumb_func
  80              		.type	evtStart, %function
  81              	evtStart:
  82              	.LFB8:
  83              		.loc 1 43 0
  84              		.cfi_startproc
  85              		@ args = 0, pretend = 0, frame = 0
  86              		@ frame_needed = 0, uses_anonymous_args = 0
  87              	.LVL5:
  88 0000 08B5     		push	{r3, lr}
  89              		.cfi_def_cfa_offset 8
  90              		.cfi_offset 3, -8
  91              		.cfi_offset 14, -4
  92              	.LBB5:
  93              		.loc 1 45 0
  94 0002 2023     		movs	r3, #32
  95              	@ 45 "../ChibiOS_2.6.4/os/various/evtimer.c" 1
  96 0004 83F31188 		msr     BASEPRI, r3
  97              	@ 0 "" 2
  98              		.thumb
  99              	.LBE5:
 100              		.loc 1 47 0
 101 0008 C368     		ldr	r3, [r0, #12]
 102 000a 1BB1     		cbz	r3, .L5
 103              	.LBB6:
 104              		.loc 1 50 0
 105 000c 0023     		movs	r3, #0
 106              	@ 50 "../ChibiOS_2.6.4/os/various/evtimer.c" 1
 107 000e 83F31188 		msr     BASEPRI, r3
 108              	@ 0 "" 2
 109              		.thumb
 110 0012 08BD     		pop	{r3, pc}
 111              	.L5:
 112              	.LBE6:
 113              		.loc 1 48 0
 114 0014 40F20002 		movw	r2, #:lower16:tmrcb
ARM GAS  /tmp/cc9l7OP2.s 			page 3


 115 0018 0346     		mov	r3, r0
 116 001a 8169     		ldr	r1, [r0, #24]
 117 001c C0F20002 		movt	r2, #:upper16:tmrcb
 118 0020 FFF7FEFF 		bl	chVTSetI
 119              	.LVL6:
 120              	.LBB7:
 121              		.loc 1 50 0
 122 0024 0023     		movs	r3, #0
 123              	@ 50 "../ChibiOS_2.6.4/os/various/evtimer.c" 1
 124 0026 83F31188 		msr     BASEPRI, r3
 125              	@ 0 "" 2
 126              		.thumb
 127 002a 08BD     		pop	{r3, pc}
 128              	.LBE7:
 129              		.cfi_endproc
 130              	.LFE8:
 131              		.size	evtStart, .-evtStart
 132              		.section	.text.evtStop,"ax",%progbits
 133              		.align	2
 134              		.global	evtStop
 135              		.thumb
 136              		.thumb_func
 137              		.type	evtStop, %function
 138              	evtStop:
 139              	.LFB9:
 140              		.loc 1 59 0
 141              		.cfi_startproc
 142              		@ args = 0, pretend = 0, frame = 0
 143              		@ frame_needed = 0, uses_anonymous_args = 0
 144              	.LVL7:
 145 0000 08B5     		push	{r3, lr}
 146              		.cfi_def_cfa_offset 8
 147              		.cfi_offset 3, -8
 148              		.cfi_offset 14, -4
 149              	.LBB8:
 150              		.loc 1 61 0
 151 0002 2023     		movs	r3, #32
 152              	@ 61 "../ChibiOS_2.6.4/os/various/evtimer.c" 1
 153 0004 83F31188 		msr     BASEPRI, r3
 154              	@ 0 "" 2
 155              		.thumb
 156              	.LBE8:
 157 0008 C368     		ldr	r3, [r0, #12]
 158 000a 0BB1     		cbz	r3, .L7
 159              		.loc 1 61 0 is_stmt 0 discriminator 1
 160 000c FFF7FEFF 		bl	chVTResetI
 161              	.LVL8:
 162              	.L7:
 163              	.LBB9:
 164              		.loc 1 61 0 discriminator 2
 165 0010 0023     		movs	r3, #0
 166              	@ 61 "../ChibiOS_2.6.4/os/various/evtimer.c" 1
 167 0012 83F31188 		msr     BASEPRI, r3
 168              	@ 0 "" 2
 169              		.thumb
 170 0016 08BD     		pop	{r3, pc}
 171              	.LBE9:
ARM GAS  /tmp/cc9l7OP2.s 			page 4


 172              		.cfi_endproc
 173              	.LFE9:
 174              		.size	evtStop, .-evtStop
 175              		.text
 176              	.Letext0:
 177              		.file 2 "/usr/include/newlib/machine/_default_types.h"
 178              		.file 3 "/usr/include/newlib/stdint.h"
 179              		.file 4 "../ChibiOS_2.6.4/os/ports/GCC/ARMCMx/chtypes.h"
 180              		.file 5 "../ChibiOS_2.6.4/os/kernel/include/chlists.h"
 181              		.file 6 "../ChibiOS_2.6.4/os/kernel/include/chthreads.h"
 182              		.file 7 "../ChibiOS_2.6.4/os/ports/GCC/ARMCMx/chcore_v7m.h"
 183              		.file 8 "../ChibiOS_2.6.4/os/kernel/include/chvt.h"
 184              		.file 9 "../ChibiOS_2.6.4/os/kernel/include/chmtx.h"
 185              		.file 10 "../ChibiOS_2.6.4/os/kernel/include/chevents.h"
 186              		.file 11 "../ChibiOS_2.6.4/os/various/evtimer.h"