ARM GAS  /tmp/ccwJnUeP.s 			page 1


   1              		.syntax unified
   2              		.cpu cortex-m3
   3              		.fpu softvfp
   4              		.eabi_attribute 20, 1
   5              		.eabi_attribute 21, 1
   6              		.eabi_attribute 23, 3
   7              		.eabi_attribute 24, 1
   8              		.eabi_attribute 25, 1
   9              		.eabi_attribute 26, 1
  10              		.eabi_attribute 30, 2
  11              		.eabi_attribute 34, 1
  12              		.eabi_attribute 18, 4
  13              		.thumb
  14              		.file	"hal.c"
  15              		.text
  16              	.Ltext0:
  17              		.cfi_sections	.debug_frame
  18              		.section	.text.halInit,"ax",%progbits
  19              		.align	2
  20              		.global	halInit
  21              		.thumb
  22              		.thumb_func
  23              		.type	halInit, %function
  24              	halInit:
  25              	.LFB63:
  26              		.file 1 "../ChibiOS_2.6.4/os/hal/src/hal.c"
  27              		.loc 1 68 0
  28              		.cfi_startproc
  29              		@ args = 0, pretend = 0, frame = 0
  30              		@ frame_needed = 0, uses_anonymous_args = 0
  31 0000 08B5     		push	{r3, lr}
  32              		.cfi_def_cfa_offset 8
  33              		.cfi_offset 3, -8
  34              		.cfi_offset 14, -4
  35              		.loc 1 70 0
  36 0002 FFF7FEFF 		bl	hal_lld_init
  37              	.LVL0:
  38              		.loc 1 73 0
  39 0006 FFF7FEFF 		bl	tmInit
  40              	.LVL1:
  41              		.loc 1 76 0
  42 000a 40F20000 		movw	r0, #:lower16:pal_default_config
  43 000e C0F20000 		movt	r0, #:upper16:pal_default_config
  44 0012 FFF7FEFF 		bl	_pal_lld_init
  45              	.LVL2:
  46              		.loc 1 79 0
  47 0016 FFF7FEFF 		bl	adcInit
  48              	.LVL3:
  49              		.loc 1 100 0
  50 001a FFF7FEFF 		bl	pwmInit
  51              	.LVL4:
  52              		.loc 1 103 0
  53 001e FFF7FEFF 		bl	sdInit
  54              	.LVL5:
  55              		.loc 1 109 0
  56 0022 FFF7FEFF 		bl	spiInit
  57              	.LVL6:
ARM GAS  /tmp/ccwJnUeP.s 			page 2


  58              		.loc 1 128 0
  59 0026 BDE80840 		pop	{r3, lr}
  60              		.loc 1 127 0
  61 002a FFF7FEBF 		b	boardInit
  62              	.LVL7:
  63              		.cfi_endproc
  64              	.LFE63:
  65              		.size	halInit, .-halInit
  66 002e 00BF     		.section	.text.halIsCounterWithin,"ax",%progbits
  67              		.align	2
  68              		.global	halIsCounterWithin
  69              		.thumb
  70              		.thumb_func
  71              		.type	halIsCounterWithin, %function
  72              	halIsCounterWithin:
  73              	.LFB64:
  74              		.loc 1 174 0
  75              		.cfi_startproc
  76              		@ args = 0, pretend = 0, frame = 0
  77              		@ frame_needed = 0, uses_anonymous_args = 0
  78              		@ link register save eliminated.
  79              	.LVL8:
  80              		.loc 1 175 0
  81 0000 4FF48053 		mov	r3, #4096
  82 0004 CEF20003 		movt	r3, 57344
  83              		.loc 1 177 0
  84 0008 8142     		cmp	r1, r0
  85              		.loc 1 174 0
  86 000a 0246     		mov	r2, r0
  87              		.loc 1 175 0
  88 000c 5B68     		ldr	r3, [r3, #4]
  89              	.LVL9:
  90              		.loc 1 177 0
  91 000e 09D8     		bhi	.L6
  92              		.loc 1 178 0 discriminator 2
  93 0010 8342     		cmp	r3, r0
  94 0012 34BF     		ite	cc
  95 0014 0022     		movcc	r2, #0
  96 0016 0122     		movcs	r2, #1
  97 0018 8B42     		cmp	r3, r1
  98 001a 2CBF     		ite	cs
  99 001c 1046     		movcs	r0, r2
 100 001e 42F00100 		orrcc	r0, r2, #1
 101              	.LVL10:
 102              		.loc 1 179 0 discriminator 2
 103 0022 7047     		bx	lr
 104              	.LVL11:
 105              	.L6:
 106              		.loc 1 177 0 discriminator 1
 107 0024 8B42     		cmp	r3, r1
 108 0026 2CBF     		ite	cs
 109 0028 0020     		movcs	r0, #0
 110              	.LVL12:
 111 002a 0120     		movcc	r0, #1
 112 002c 9342     		cmp	r3, r2
 113 002e 38BF     		it	cc
 114 0030 0020     		movcc	r0, #0
ARM GAS  /tmp/ccwJnUeP.s 			page 3


 115 0032 7047     		bx	lr
 116              		.cfi_endproc
 117              	.LFE64:
 118              		.size	halIsCounterWithin, .-halIsCounterWithin
 119              		.section	.text.halPolledDelay,"ax",%progbits
 120              		.align	2
 121              		.global	halPolledDelay
 122              		.thumb
 123              		.thumb_func
 124              		.type	halPolledDelay, %function
 125              	halPolledDelay:
 126              	.LFB65:
 127              		.loc 1 193 0
 128              		.cfi_startproc
 129              		@ args = 0, pretend = 0, frame = 0
 130              		@ frame_needed = 0, uses_anonymous_args = 0
 131              		@ link register save eliminated.
 132              	.LVL13:
 133 0000 10B4     		push	{r4}
 134              		.cfi_def_cfa_offset 4
 135              		.cfi_offset 4, -4
 136              		.loc 1 194 0
 137 0002 4FF48054 		mov	r4, #4096
 138 0006 CEF20004 		movt	r4, 57344
 139 000a 6268     		ldr	r2, [r4, #4]
 140              	.LVL14:
 141              		.loc 1 195 0
 142 000c 1044     		add	r0, r0, r2
 143              	.LVL15:
 144              	.L11:
 145              	.LBB4:
 146              	.LBB5:
 147              		.loc 1 177 0 discriminator 1
 148 000e 8242     		cmp	r2, r0
 149              		.loc 1 175 0 discriminator 1
 150 0010 6368     		ldr	r3, [r4, #4]
 151              	.LVL16:
 152              		.loc 1 177 0 discriminator 1
 153 0012 0BD2     		bcs	.L8
 154              		.loc 1 177 0 is_stmt 0
 155 0014 9842     		cmp	r0, r3
 156 0016 94BF     		ite	ls
 157 0018 0021     		movls	r1, #0
 158 001a 0121     		movhi	r1, #1
 159 001c 9A42     		cmp	r2, r3
 160 001e 88BF     		it	hi
 161 0020 0021     		movhi	r1, #0
 162              	.LBE5:
 163              	.LBE4:
 164              		.loc 1 196 0 is_stmt 1
 165 0022 0029     		cmp	r1, #0
 166 0024 F3D1     		bne	.L11
 167              	.L12:
 168              		.loc 1 198 0
 169 0026 5DF8044B 		ldr	r4, [sp], #4
 170 002a 7047     		bx	lr
 171              	.L8:
ARM GAS  /tmp/ccwJnUeP.s 			page 4


 172              	.LBB7:
 173              	.LBB6:
 174              		.loc 1 178 0
 175 002c 9A42     		cmp	r2, r3
 176 002e 8CBF     		ite	hi
 177 0030 0021     		movhi	r1, #0
 178 0032 0121     		movls	r1, #1
 179 0034 9842     		cmp	r0, r3
 180 0036 88BF     		it	hi
 181 0038 41F00101 		orrhi	r1, r1, #1
 182              	.LBE6:
 183              	.LBE7:
 184              		.loc 1 196 0
 185 003c 0029     		cmp	r1, #0
 186 003e E6D1     		bne	.L11
 187 0040 F1E7     		b	.L12
 188              		.cfi_endproc
 189              	.LFE65:
 190              		.size	halPolledDelay, .-halPolledDelay
 191 0042 00BF     		.text
 192              	.Letext0:
 193              		.file 2 "/usr/include/newlib/machine/_default_types.h"
 194              		.file 3 "/usr/include/newlib/stdint.h"
 195              		.file 4 "../ChibiOS_2.6.4/os/ports/GCC/ARMCMx/chtypes.h"
 196              		.file 5 "../ChibiOS_2.6.4/os/ports/common/ARMCMx/nvic.h"
 197              		.file 6 "../ChibiOS_2.6.4/os/hal/platforms/STM32L1xx/hal_lld.h"
 198              		.file 7 "../ChibiOS_2.6.4/os/hal/platforms/STM32/GPIOv2/pal_lld.h"
 199              		.file 8 "../ChibiOS_2.6.4/os/ports/common/ARMCMx/CMSIS/include/core_cm3.h"
 200              		.file 9 "../ChibiOS_2.6.4/os/hal/include/tm.h"
 201              		.file 10 "../ChibiOS_2.6.4/os/hal/include/adc.h"
 202              		.file 11 "../ChibiOS_2.6.4/os/hal/include/pwm.h"
 203              		.file 12 "../ChibiOS_2.6.4/os/hal/include/serial.h"
 204              		.file 13 "../ChibiOS_2.6.4/os/hal/include/spi.h"
 205              		.file 14 "../ChibiOS_2.6.4/boards/ST_STM32L_DISCOVERY/board.h"
 206              		.section	.debug_info,"",%progbits
 207              	.Ldebug_info0:
 208 0000 A7030000 		.4byte	0x3a7
 209 0004 0400     		.2byte	0x4
 210 0006 00000000 		.4byte	.Ldebug_abbrev0
 211 000a 04       		.byte	0x4
 212 000b 01       		.uleb128 0x1
 213 000c B9000000 		.4byte	.LASF55
 214 0010 01       		.byte	0x1
 215 0011 5A000000 		.4byte	.LASF56
 216 0015 41010000 		.4byte	.LASF57
 217 0019 18000000 		.4byte	.Ldebug_ranges0+0x18
 218 001d 00000000 		.4byte	0
 219 0021 00000000 		.4byte	.Ldebug_line0
 220 0025 02       		.uleb128 0x2
 221 0026 04       		.byte	0x4
 222 0027 05       		.byte	0x5
 223 0028 696E7400 		.ascii	"int\000"
 224 002c 03       		.uleb128 0x3
 225 002d 04       		.byte	0x4
 226 002e 07       		.byte	0x7
 227 002f CF020000 		.4byte	.LASF0
 228 0033 03       		.uleb128 0x3
ARM GAS  /tmp/ccwJnUeP.s 			page 5


 229 0034 01       		.byte	0x1
 230 0035 06       		.byte	0x6
 231 0036 BC010000 		.4byte	.LASF1
 232 003a 03       		.uleb128 0x3
 233 003b 01       		.byte	0x1
 234 003c 08       		.byte	0x8
 235 003d A9010000 		.4byte	.LASF2
 236 0041 03       		.uleb128 0x3
 237 0042 02       		.byte	0x2
 238 0043 05       		.byte	0x5
 239 0044 27000000 		.4byte	.LASF3
 240 0048 03       		.uleb128 0x3
 241 0049 02       		.byte	0x2
 242 004a 07       		.byte	0x7
 243 004b 15020000 		.4byte	.LASF4
 244 004f 04       		.uleb128 0x4
 245 0050 7C000000 		.4byte	.LASF6
 246 0054 02       		.byte	0x2
 247 0055 37       		.byte	0x37
 248 0056 5A000000 		.4byte	0x5a
 249 005a 03       		.uleb128 0x3
 250 005b 04       		.byte	0x4
 251 005c 05       		.byte	0x5
 252 005d 71010000 		.4byte	.LASF5
 253 0061 04       		.uleb128 0x4
 254 0062 4F000000 		.4byte	.LASF7
 255 0066 02       		.byte	0x2
 256 0067 38       		.byte	0x38
 257 0068 6C000000 		.4byte	0x6c
 258 006c 03       		.uleb128 0x3
 259 006d 04       		.byte	0x4
 260 006e 07       		.byte	0x7
 261 006f 69020000 		.4byte	.LASF8
 262 0073 03       		.uleb128 0x3
 263 0074 08       		.byte	0x8
 264 0075 05       		.byte	0x5
 265 0076 9C000000 		.4byte	.LASF9
 266 007a 03       		.uleb128 0x3
 267 007b 08       		.byte	0x8
 268 007c 07       		.byte	0x7
 269 007d C8010000 		.4byte	.LASF10
 270 0081 04       		.uleb128 0x4
 271 0082 2D020000 		.4byte	.LASF11
 272 0086 03       		.byte	0x3
 273 0087 41       		.byte	0x41
 274 0088 4F000000 		.4byte	0x4f
 275 008c 04       		.uleb128 0x4
 276 008d DF010000 		.4byte	.LASF12
 277 0091 03       		.byte	0x3
 278 0092 42       		.byte	0x42
 279 0093 61000000 		.4byte	0x61
 280 0097 04       		.uleb128 0x4
 281 0098 35020000 		.4byte	.LASF13
 282 009c 04       		.byte	0x4
 283 009d 2B       		.byte	0x2b
 284 009e A2000000 		.4byte	0xa2
 285 00a2 03       		.uleb128 0x3
ARM GAS  /tmp/ccwJnUeP.s 			page 6


 286 00a3 01       		.byte	0x1
 287 00a4 02       		.byte	0x2
 288 00a5 4D020000 		.4byte	.LASF14
 289 00a9 04       		.uleb128 0x4
 290 00aa 8D000000 		.4byte	.LASF15
 291 00ae 05       		.byte	0x5
 292 00af 3A       		.byte	0x3a
 293 00b0 B4000000 		.4byte	0xb4
 294 00b4 05       		.uleb128 0x5
 295 00b5 8C000000 		.4byte	0x8c
 296 00b9 03       		.uleb128 0x3
 297 00ba 04       		.byte	0x4
 298 00bb 07       		.byte	0x7
 299 00bc 31000000 		.4byte	.LASF16
 300 00c0 06       		.uleb128 0x6
 301 00c1 20       		.byte	0x20
 302 00c2 05       		.byte	0x5
 303 00c3 0601     		.2byte	0x106
 304 00c5 32010000 		.4byte	0x132
 305 00c9 07       		.uleb128 0x7
 306 00ca B7010000 		.4byte	.LASF17
 307 00ce 05       		.byte	0x5
 308 00cf 0701     		.2byte	0x107
 309 00d1 A9000000 		.4byte	0xa9
 310 00d5 00       		.byte	0
 311 00d6 07       		.uleb128 0x7
 312 00d7 B2000000 		.4byte	.LASF18
 313 00db 05       		.byte	0x5
 314 00dc 0801     		.2byte	0x108
 315 00de A9000000 		.4byte	0xa9
 316 00e2 04       		.byte	0x4
 317 00e3 07       		.uleb128 0x7
 318 00e4 62020000 		.4byte	.LASF19
 319 00e8 05       		.byte	0x5
 320 00e9 0901     		.2byte	0x109
 321 00eb A9000000 		.4byte	0xa9
 322 00ef 08       		.byte	0x8
 323 00f0 07       		.uleb128 0x7
 324 00f1 EF020000 		.4byte	.LASF20
 325 00f5 05       		.byte	0x5
 326 00f6 0A01     		.2byte	0x10a
 327 00f8 A9000000 		.4byte	0xa9
 328 00fc 0C       		.byte	0xc
 329 00fd 07       		.uleb128 0x7
 330 00fe 8D020000 		.4byte	.LASF21
 331 0102 05       		.byte	0x5
 332 0103 0B01     		.2byte	0x10b
 333 0105 A9000000 		.4byte	0xa9
 334 0109 10       		.byte	0x10
 335 010a 07       		.uleb128 0x7
 336 010b 9C020000 		.4byte	.LASF22
 337 010f 05       		.byte	0x5
 338 0110 0C01     		.2byte	0x10c
 339 0112 A9000000 		.4byte	0xa9
 340 0116 14       		.byte	0x14
 341 0117 07       		.uleb128 0x7
 342 0118 3F000000 		.4byte	.LASF23
ARM GAS  /tmp/ccwJnUeP.s 			page 7


 343 011c 05       		.byte	0x5
 344 011d 0D01     		.2byte	0x10d
 345 011f A9000000 		.4byte	0xa9
 346 0123 18       		.byte	0x18
 347 0124 07       		.uleb128 0x7
 348 0125 3A000000 		.4byte	.LASF24
 349 0129 05       		.byte	0x5
 350 012a 0E01     		.2byte	0x10e
 351 012c A9000000 		.4byte	0xa9
 352 0130 1C       		.byte	0x1c
 353 0131 00       		.byte	0
 354 0132 08       		.uleb128 0x8
 355 0133 53020000 		.4byte	.LASF25
 356 0137 05       		.byte	0x5
 357 0138 0F01     		.2byte	0x10f
 358 013a C0000000 		.4byte	0xc0
 359 013e 03       		.uleb128 0x3
 360 013f 01       		.byte	0x1
 361 0140 08       		.byte	0x8
 362 0141 28020000 		.4byte	.LASF26
 363 0145 08       		.uleb128 0x8
 364 0146 82020000 		.4byte	.LASF27
 365 014a 06       		.byte	0x6
 366 014b 0B04     		.2byte	0x40b
 367 014d 8C000000 		.4byte	0x8c
 368 0151 09       		.uleb128 0x9
 369 0152 1C       		.byte	0x1c
 370 0153 07       		.byte	0x7
 371 0154 A3       		.byte	0xa3
 372 0155 AE010000 		.4byte	0x1ae
 373 0159 0A       		.uleb128 0xa
 374 015a B5020000 		.4byte	.LASF28
 375 015e 07       		.byte	0x7
 376 015f A5       		.byte	0xa5
 377 0160 8C000000 		.4byte	0x8c
 378 0164 00       		.byte	0
 379 0165 0A       		.uleb128 0xa
 380 0166 E8010000 		.4byte	.LASF29
 381 016a 07       		.byte	0x7
 382 016b A7       		.byte	0xa7
 383 016c 8C000000 		.4byte	0x8c
 384 0170 04       		.byte	0x4
 385 0171 0A       		.uleb128 0xa
 386 0172 69010000 		.4byte	.LASF30
 387 0176 07       		.byte	0x7
 388 0177 A9       		.byte	0xa9
 389 0178 8C000000 		.4byte	0x8c
 390 017c 08       		.byte	0x8
 391 017d 0A       		.uleb128 0xa
 392 017e 96020000 		.4byte	.LASF31
 393 0182 07       		.byte	0x7
 394 0183 AB       		.byte	0xab
 395 0184 8C000000 		.4byte	0x8c
 396 0188 0C       		.byte	0xc
 397 0189 0B       		.uleb128 0xb
 398 018a 6F647200 		.ascii	"odr\000"
 399 018e 07       		.byte	0x7
ARM GAS  /tmp/ccwJnUeP.s 			page 8


 400 018f AD       		.byte	0xad
 401 0190 8C000000 		.4byte	0x8c
 402 0194 10       		.byte	0x10
 403 0195 0A       		.uleb128 0xa
 404 0196 B0020000 		.4byte	.LASF32
 405 019a 07       		.byte	0x7
 406 019b AF       		.byte	0xaf
 407 019c 8C000000 		.4byte	0x8c
 408 01a0 14       		.byte	0x14
 409 01a1 0A       		.uleb128 0xa
 410 01a2 A3020000 		.4byte	.LASF33
 411 01a6 07       		.byte	0x7
 412 01a7 B1       		.byte	0xb1
 413 01a8 8C000000 		.4byte	0x8c
 414 01ac 18       		.byte	0x18
 415 01ad 00       		.byte	0
 416 01ae 04       		.uleb128 0x4
 417 01af EF010000 		.4byte	.LASF34
 418 01b3 07       		.byte	0x7
 419 01b4 B2       		.byte	0xb2
 420 01b5 51010000 		.4byte	0x151
 421 01b9 09       		.uleb128 0x9
 422 01ba A8       		.byte	0xa8
 423 01bb 07       		.byte	0x7
 424 01bc BB       		.byte	0xbb
 425 01bd 0A020000 		.4byte	0x20a
 426 01c1 0A       		.uleb128 0xa
 427 01c2 95000000 		.4byte	.LASF35
 428 01c6 07       		.byte	0x7
 429 01c7 BE       		.byte	0xbe
 430 01c8 AE010000 		.4byte	0x1ae
 431 01cc 00       		.byte	0
 432 01cd 0A       		.uleb128 0xa
 433 01ce 46020000 		.4byte	.LASF36
 434 01d2 07       		.byte	0x7
 435 01d3 C2       		.byte	0xc2
 436 01d4 AE010000 		.4byte	0x1ae
 437 01d8 1C       		.byte	0x1c
 438 01d9 0A       		.uleb128 0xa
 439 01da A2010000 		.4byte	.LASF37
 440 01de 07       		.byte	0x7
 441 01df C6       		.byte	0xc6
 442 01e0 AE010000 		.4byte	0x1ae
 443 01e4 38       		.byte	0x38
 444 01e5 0A       		.uleb128 0xa
 445 01e6 82010000 		.4byte	.LASF38
 446 01ea 07       		.byte	0x7
 447 01eb CA       		.byte	0xca
 448 01ec AE010000 		.4byte	0x1ae
 449 01f0 54       		.byte	0x54
 450 01f1 0A       		.uleb128 0xa
 451 01f2 5B020000 		.4byte	.LASF39
 452 01f6 07       		.byte	0x7
 453 01f7 CE       		.byte	0xce
 454 01f8 AE010000 		.4byte	0x1ae
 455 01fc 70       		.byte	0x70
 456 01fd 0A       		.uleb128 0xa
ARM GAS  /tmp/ccwJnUeP.s 			page 9


 457 01fe 7B020000 		.4byte	.LASF40
 458 0202 07       		.byte	0x7
 459 0203 DA       		.byte	0xda
 460 0204 AE010000 		.4byte	0x1ae
 461 0208 8C       		.byte	0x8c
 462 0209 00       		.byte	0
 463 020a 04       		.uleb128 0x4
 464 020b 3C020000 		.4byte	.LASF41
 465 020f 07       		.byte	0x7
 466 0210 E0       		.byte	0xe0
 467 0211 B9010000 		.4byte	0x1b9
 468 0215 0C       		.uleb128 0xc
 469 0216 DC020000 		.4byte	.LASF58
 470 021a 01       		.byte	0x1
 471 021b AE       		.byte	0xae
 472 021c 97000000 		.4byte	0x97
 473 0220 01       		.byte	0x1
 474 0221 47020000 		.4byte	0x247
 475 0225 0D       		.uleb128 0xd
 476 0226 0F020000 		.4byte	.LASF42
 477 022a 01       		.byte	0x1
 478 022b AE       		.byte	0xae
 479 022c 45010000 		.4byte	0x145
 480 0230 0E       		.uleb128 0xe
 481 0231 656E6400 		.ascii	"end\000"
 482 0235 01       		.byte	0x1
 483 0236 AE       		.byte	0xae
 484 0237 45010000 		.4byte	0x145
 485 023b 0F       		.uleb128 0xf
 486 023c 6E6F7700 		.ascii	"now\000"
 487 0240 01       		.byte	0x1
 488 0241 AF       		.byte	0xaf
 489 0242 45010000 		.4byte	0x145
 490 0246 00       		.byte	0
 491 0247 10       		.uleb128 0x10
 492 0248 AA000000 		.4byte	.LASF43
 493 024c 01       		.byte	0x1
 494 024d 44       		.byte	0x44
 495 024e 00000000 		.4byte	.LFB63
 496 0252 2E000000 		.4byte	.LFE63-.LFB63
 497 0256 01       		.uleb128 0x1
 498 0257 9C       		.byte	0x9c
 499 0258 A5020000 		.4byte	0x2a5
 500 025c 11       		.uleb128 0x11
 501 025d 06000000 		.4byte	.LVL0
 502 0261 5C030000 		.4byte	0x35c
 503 0265 11       		.uleb128 0x11
 504 0266 0A000000 		.4byte	.LVL1
 505 026a 64030000 		.4byte	0x364
 506 026e 11       		.uleb128 0x11
 507 026f 16000000 		.4byte	.LVL2
 508 0273 6B030000 		.4byte	0x36b
 509 0277 11       		.uleb128 0x11
 510 0278 1A000000 		.4byte	.LVL3
 511 027c 83030000 		.4byte	0x383
 512 0280 11       		.uleb128 0x11
 513 0281 1E000000 		.4byte	.LVL4
ARM GAS  /tmp/ccwJnUeP.s 			page 10


 514 0285 8B030000 		.4byte	0x38b
 515 0289 11       		.uleb128 0x11
 516 028a 22000000 		.4byte	.LVL5
 517 028e 92030000 		.4byte	0x392
 518 0292 11       		.uleb128 0x11
 519 0293 26000000 		.4byte	.LVL6
 520 0297 9A030000 		.4byte	0x39a
 521 029b 12       		.uleb128 0x12
 522 029c 2E000000 		.4byte	.LVL7
 523 02a0 A2030000 		.4byte	0x3a2
 524 02a4 00       		.byte	0
 525 02a5 13       		.uleb128 0x13
 526 02a6 15020000 		.4byte	0x215
 527 02aa 00000000 		.4byte	.LFB64
 528 02ae 34000000 		.4byte	.LFE64-.LFB64
 529 02b2 01       		.uleb128 0x1
 530 02b3 9C       		.byte	0x9c
 531 02b4 D0020000 		.4byte	0x2d0
 532 02b8 14       		.uleb128 0x14
 533 02b9 25020000 		.4byte	0x225
 534 02bd 00000000 		.4byte	.LLST0
 535 02c1 15       		.uleb128 0x15
 536 02c2 30020000 		.4byte	0x230
 537 02c6 01       		.uleb128 0x1
 538 02c7 51       		.byte	0x51
 539 02c8 16       		.uleb128 0x16
 540 02c9 3B020000 		.4byte	0x23b
 541 02cd 01       		.uleb128 0x1
 542 02ce 53       		.byte	0x53
 543 02cf 00       		.byte	0
 544 02d0 10       		.uleb128 0x10
 545 02d1 89010000 		.4byte	.LASF44
 546 02d5 01       		.byte	0x1
 547 02d6 C1       		.byte	0xc1
 548 02d7 00000000 		.4byte	.LFB65
 549 02db 42000000 		.4byte	.LFE65-.LFB65
 550 02df 01       		.uleb128 0x1
 551 02e0 9C       		.byte	0x9c
 552 02e1 3A030000 		.4byte	0x33a
 553 02e5 17       		.uleb128 0x17
 554 02e6 00000000 		.4byte	.LASF59
 555 02ea 01       		.byte	0x1
 556 02eb C1       		.byte	0xc1
 557 02ec 45010000 		.4byte	0x145
 558 02f0 37000000 		.4byte	.LLST1
 559 02f4 18       		.uleb128 0x18
 560 02f5 0F020000 		.4byte	.LASF42
 561 02f9 01       		.byte	0x1
 562 02fa C2       		.byte	0xc2
 563 02fb 45010000 		.4byte	0x145
 564 02ff 01       		.uleb128 0x1
 565 0300 52       		.byte	0x52
 566 0301 18       		.uleb128 0x18
 567 0302 F6020000 		.4byte	.LASF45
 568 0306 01       		.byte	0x1
 569 0307 C3       		.byte	0xc3
 570 0308 45010000 		.4byte	0x145
ARM GAS  /tmp/ccwJnUeP.s 			page 11


 571 030c 01       		.uleb128 0x1
 572 030d 50       		.byte	0x50
 573 030e 19       		.uleb128 0x19
 574 030f 15020000 		.4byte	0x215
 575 0313 0E000000 		.4byte	.LBB4
 576 0317 00000000 		.4byte	.Ldebug_ranges0+0
 577 031b 01       		.byte	0x1
 578 031c C4       		.byte	0xc4
 579 031d 15       		.uleb128 0x15
 580 031e 30020000 		.4byte	0x230
 581 0322 01       		.uleb128 0x1
 582 0323 50       		.byte	0x50
 583 0324 15       		.uleb128 0x15
 584 0325 25020000 		.4byte	0x225
 585 0329 01       		.uleb128 0x1
 586 032a 52       		.byte	0x52
 587 032b 1A       		.uleb128 0x1a
 588 032c 00000000 		.4byte	.Ldebug_ranges0+0
 589 0330 16       		.uleb128 0x16
 590 0331 3B020000 		.4byte	0x23b
 591 0335 01       		.uleb128 0x1
 592 0336 53       		.byte	0x53
 593 0337 00       		.byte	0
 594 0338 00       		.byte	0
 595 0339 00       		.byte	0
 596 033a 1B       		.uleb128 0x1b
 597 033b BB020000 		.4byte	.LASF46
 598 033f 08       		.byte	0x8
 599 0340 0706     		.2byte	0x607
 600 0342 46030000 		.4byte	0x346
 601 0346 05       		.uleb128 0x5
 602 0347 81000000 		.4byte	0x81
 603 034b 1B       		.uleb128 0x1b
 604 034c 14000000 		.4byte	.LASF47
 605 0350 07       		.byte	0x7
 606 0351 BC01     		.2byte	0x1bc
 607 0353 57030000 		.4byte	0x357
 608 0357 1C       		.uleb128 0x1c
 609 0358 0A020000 		.4byte	0x20a
 610 035c 1D       		.uleb128 0x1d
 611 035d 02020000 		.4byte	.LASF48
 612 0361 06       		.byte	0x6
 613 0362 3404     		.2byte	0x434
 614 0364 1E       		.uleb128 0x1e
 615 0365 C8020000 		.4byte	.LASF49
 616 0369 09       		.byte	0x9
 617 036a 73       		.byte	0x73
 618 036b 1F       		.uleb128 0x1f
 619 036c 06000000 		.4byte	.LASF60
 620 0370 07       		.byte	0x7
 621 0371 C101     		.2byte	0x1c1
 622 0373 7D030000 		.4byte	0x37d
 623 0377 20       		.uleb128 0x20
 624 0378 7D030000 		.4byte	0x37d
 625 037c 00       		.byte	0
 626 037d 21       		.uleb128 0x21
 627 037e 04       		.byte	0x4
ARM GAS  /tmp/ccwJnUeP.s 			page 12


 628 037f 57030000 		.4byte	0x357
 629 0383 1D       		.uleb128 0x1d
 630 0384 A8020000 		.4byte	.LASF50
 631 0388 0A       		.byte	0xa
 632 0389 1C01     		.2byte	0x11c
 633 038b 1E       		.uleb128 0x1e
 634 038c 7A010000 		.4byte	.LASF51
 635 0390 0B       		.byte	0xb
 636 0391 F2       		.byte	0xf2
 637 0392 1D       		.uleb128 0x1d
 638 0393 86000000 		.4byte	.LASF52
 639 0397 0C       		.byte	0xc
 640 0398 3501     		.2byte	0x135
 641 039a 1D       		.uleb128 0x1d
 642 039b 47000000 		.4byte	.LASF53
 643 039f 0D       		.byte	0xd
 644 03a0 2E01     		.2byte	0x12e
 645 03a2 1D       		.uleb128 0x1d
 646 03a3 98010000 		.4byte	.LASF54
 647 03a7 0E       		.byte	0xe
 648 03a8 7403     		.2byte	0x374
 649 03aa 00       		.byte	0
 650              		.section	.debug_abbrev,"",%progbits
 651              	.Ldebug_abbrev0:
 652 0000 01       		.uleb128 0x1
 653 0001 11       		.uleb128 0x11
 654 0002 01       		.byte	0x1
 655 0003 25       		.uleb128 0x25
 656 0004 0E       		.uleb128 0xe
 657 0005 13       		.uleb128 0x13
 658 0006 0B       		.uleb128 0xb
 659 0007 03       		.uleb128 0x3
 660 0008 0E       		.uleb128 0xe
 661 0009 1B       		.uleb128 0x1b
 662 000a 0E       		.uleb128 0xe
 663 000b 55       		.uleb128 0x55
 664 000c 17       		.uleb128 0x17
 665 000d 11       		.uleb128 0x11
 666 000e 01       		.uleb128 0x1
 667 000f 10       		.uleb128 0x10
 668 0010 17       		.uleb128 0x17
 669 0011 00       		.byte	0
 670 0012 00       		.byte	0
 671 0013 02       		.uleb128 0x2
 672 0014 24       		.uleb128 0x24
 673 0015 00       		.byte	0
 674 0016 0B       		.uleb128 0xb
 675 0017 0B       		.uleb128 0xb
 676 0018 3E       		.uleb128 0x3e
 677 0019 0B       		.uleb128 0xb
 678 001a 03       		.uleb128 0x3
 679 001b 08       		.uleb128 0x8
 680 001c 00       		.byte	0
 681 001d 00       		.byte	0
 682 001e 03       		.uleb128 0x3
 683 001f 24       		.uleb128 0x24
 684 0020 00       		.byte	0
ARM GAS  /tmp/ccwJnUeP.s 			page 13


 685 0021 0B       		.uleb128 0xb
 686 0022 0B       		.uleb128 0xb
 687 0023 3E       		.uleb128 0x3e
 688 0024 0B       		.uleb128 0xb
 689 0025 03       		.uleb128 0x3
 690 0026 0E       		.uleb128 0xe
 691 0027 00       		.byte	0
 692 0028 00       		.byte	0
 693 0029 04       		.uleb128 0x4
 694 002a 16       		.uleb128 0x16
 695 002b 00       		.byte	0
 696 002c 03       		.uleb128 0x3
 697 002d 0E       		.uleb128 0xe
 698 002e 3A       		.uleb128 0x3a
 699 002f 0B       		.uleb128 0xb
 700 0030 3B       		.uleb128 0x3b
 701 0031 0B       		.uleb128 0xb
 702 0032 49       		.uleb128 0x49
 703 0033 13       		.uleb128 0x13
 704 0034 00       		.byte	0
 705 0035 00       		.byte	0
 706 0036 05       		.uleb128 0x5
 707 0037 35       		.uleb128 0x35
 708 0038 00       		.byte	0
 709 0039 49       		.uleb128 0x49
 710 003a 13       		.uleb128 0x13
 711 003b 00       		.byte	0
 712 003c 00       		.byte	0
 713 003d 06       		.uleb128 0x6
 714 003e 13       		.uleb128 0x13
 715 003f 01       		.byte	0x1
 716 0040 0B       		.uleb128 0xb
 717 0041 0B       		.uleb128 0xb
 718 0042 3A       		.uleb128 0x3a
 719 0043 0B       		.uleb128 0xb
 720 0044 3B       		.uleb128 0x3b
 721 0045 05       		.uleb128 0x5
 722 0046 01       		.uleb128 0x1
 723 0047 13       		.uleb128 0x13
 724 0048 00       		.byte	0
 725 0049 00       		.byte	0
 726 004a 07       		.uleb128 0x7
 727 004b 0D       		.uleb128 0xd
 728 004c 00       		.byte	0
 729 004d 03       		.uleb128 0x3
 730 004e 0E       		.uleb128 0xe
 731 004f 3A       		.uleb128 0x3a
 732 0050 0B       		.uleb128 0xb
 733 0051 3B       		.uleb128 0x3b
 734 0052 05       		.uleb128 0x5
 735 0053 49       		.uleb128 0x49
 736 0054 13       		.uleb128 0x13
 737 0055 38       		.uleb128 0x38
 738 0056 0B       		.uleb128 0xb
 739 0057 00       		.byte	0
 740 0058 00       		.byte	0
 741 0059 08       		.uleb128 0x8
ARM GAS  /tmp/ccwJnUeP.s 			page 14


 742 005a 16       		.uleb128 0x16
 743 005b 00       		.byte	0
 744 005c 03       		.uleb128 0x3
 745 005d 0E       		.uleb128 0xe
 746 005e 3A       		.uleb128 0x3a
 747 005f 0B       		.uleb128 0xb
 748 0060 3B       		.uleb128 0x3b
 749 0061 05       		.uleb128 0x5
 750 0062 49       		.uleb128 0x49
 751 0063 13       		.uleb128 0x13
 752 0064 00       		.byte	0
 753 0065 00       		.byte	0
 754 0066 09       		.uleb128 0x9
 755 0067 13       		.uleb128 0x13
 756 0068 01       		.byte	0x1
 757 0069 0B       		.uleb128 0xb
 758 006a 0B       		.uleb128 0xb
 759 006b 3A       		.uleb128 0x3a
 760 006c 0B       		.uleb128 0xb
 761 006d 3B       		.uleb128 0x3b
 762 006e 0B       		.uleb128 0xb
 763 006f 01       		.uleb128 0x1
 764 0070 13       		.uleb128 0x13
 765 0071 00       		.byte	0
 766 0072 00       		.byte	0
 767 0073 0A       		.uleb128 0xa
 768 0074 0D       		.uleb128 0xd
 769 0075 00       		.byte	0
 770 0076 03       		.uleb128 0x3
 771 0077 0E       		.uleb128 0xe
 772 0078 3A       		.uleb128 0x3a
 773 0079 0B       		.uleb128 0xb
 774 007a 3B       		.uleb128 0x3b
 775 007b 0B       		.uleb128 0xb
 776 007c 49       		.uleb128 0x49
 777 007d 13       		.uleb128 0x13
 778 007e 38       		.uleb128 0x38
 779 007f 0B       		.uleb128 0xb
 780 0080 00       		.byte	0
 781 0081 00       		.byte	0
 782 0082 0B       		.uleb128 0xb
 783 0083 0D       		.uleb128 0xd
 784 0084 00       		.byte	0
 785 0085 03       		.uleb128 0x3
 786 0086 08       		.uleb128 0x8
 787 0087 3A       		.uleb128 0x3a
 788 0088 0B       		.uleb128 0xb
 789 0089 3B       		.uleb128 0x3b
 790 008a 0B       		.uleb128 0xb
 791 008b 49       		.uleb128 0x49
 792 008c 13       		.uleb128 0x13
 793 008d 38       		.uleb128 0x38
 794 008e 0B       		.uleb128 0xb
 795 008f 00       		.byte	0
 796 0090 00       		.byte	0
 797 0091 0C       		.uleb128 0xc
 798 0092 2E       		.uleb128 0x2e
ARM GAS  /tmp/ccwJnUeP.s 			page 15


 799 0093 01       		.byte	0x1
 800 0094 3F       		.uleb128 0x3f
 801 0095 19       		.uleb128 0x19
 802 0096 03       		.uleb128 0x3
 803 0097 0E       		.uleb128 0xe
 804 0098 3A       		.uleb128 0x3a
 805 0099 0B       		.uleb128 0xb
 806 009a 3B       		.uleb128 0x3b
 807 009b 0B       		.uleb128 0xb
 808 009c 27       		.uleb128 0x27
 809 009d 19       		.uleb128 0x19
 810 009e 49       		.uleb128 0x49
 811 009f 13       		.uleb128 0x13
 812 00a0 20       		.uleb128 0x20
 813 00a1 0B       		.uleb128 0xb
 814 00a2 01       		.uleb128 0x1
 815 00a3 13       		.uleb128 0x13
 816 00a4 00       		.byte	0
 817 00a5 00       		.byte	0
 818 00a6 0D       		.uleb128 0xd
 819 00a7 05       		.uleb128 0x5
 820 00a8 00       		.byte	0
 821 00a9 03       		.uleb128 0x3
 822 00aa 0E       		.uleb128 0xe
 823 00ab 3A       		.uleb128 0x3a
 824 00ac 0B       		.uleb128 0xb
 825 00ad 3B       		.uleb128 0x3b
 826 00ae 0B       		.uleb128 0xb
 827 00af 49       		.uleb128 0x49
 828 00b0 13       		.uleb128 0x13
 829 00b1 00       		.byte	0
 830 00b2 00       		.byte	0
 831 00b3 0E       		.uleb128 0xe
 832 00b4 05       		.uleb128 0x5
 833 00b5 00       		.byte	0
 834 00b6 03       		.uleb128 0x3
 835 00b7 08       		.uleb128 0x8
 836 00b8 3A       		.uleb128 0x3a
 837 00b9 0B       		.uleb128 0xb
 838 00ba 3B       		.uleb128 0x3b
 839 00bb 0B       		.uleb128 0xb
 840 00bc 49       		.uleb128 0x49
 841 00bd 13       		.uleb128 0x13
 842 00be 00       		.byte	0
 843 00bf 00       		.byte	0
 844 00c0 0F       		.uleb128 0xf
 845 00c1 34       		.uleb128 0x34
 846 00c2 00       		.byte	0
 847 00c3 03       		.uleb128 0x3
 848 00c4 08       		.uleb128 0x8
 849 00c5 3A       		.uleb128 0x3a
 850 00c6 0B       		.uleb128 0xb
 851 00c7 3B       		.uleb128 0x3b
 852 00c8 0B       		.uleb128 0xb
 853 00c9 49       		.uleb128 0x49
 854 00ca 13       		.uleb128 0x13
 855 00cb 00       		.byte	0
ARM GAS  /tmp/ccwJnUeP.s 			page 16


 856 00cc 00       		.byte	0
 857 00cd 10       		.uleb128 0x10
 858 00ce 2E       		.uleb128 0x2e
 859 00cf 01       		.byte	0x1
 860 00d0 3F       		.uleb128 0x3f
 861 00d1 19       		.uleb128 0x19
 862 00d2 03       		.uleb128 0x3
 863 00d3 0E       		.uleb128 0xe
 864 00d4 3A       		.uleb128 0x3a
 865 00d5 0B       		.uleb128 0xb
 866 00d6 3B       		.uleb128 0x3b
 867 00d7 0B       		.uleb128 0xb
 868 00d8 27       		.uleb128 0x27
 869 00d9 19       		.uleb128 0x19
 870 00da 11       		.uleb128 0x11
 871 00db 01       		.uleb128 0x1
 872 00dc 12       		.uleb128 0x12
 873 00dd 06       		.uleb128 0x6
 874 00de 40       		.uleb128 0x40
 875 00df 18       		.uleb128 0x18
 876 00e0 9742     		.uleb128 0x2117
 877 00e2 19       		.uleb128 0x19
 878 00e3 01       		.uleb128 0x1
 879 00e4 13       		.uleb128 0x13
 880 00e5 00       		.byte	0
 881 00e6 00       		.byte	0
 882 00e7 11       		.uleb128 0x11
 883 00e8 898201   		.uleb128 0x4109
 884 00eb 00       		.byte	0
 885 00ec 11       		.uleb128 0x11
 886 00ed 01       		.uleb128 0x1
 887 00ee 31       		.uleb128 0x31
 888 00ef 13       		.uleb128 0x13
 889 00f0 00       		.byte	0
 890 00f1 00       		.byte	0
 891 00f2 12       		.uleb128 0x12
 892 00f3 898201   		.uleb128 0x4109
 893 00f6 00       		.byte	0
 894 00f7 11       		.uleb128 0x11
 895 00f8 01       		.uleb128 0x1
 896 00f9 9542     		.uleb128 0x2115
 897 00fb 19       		.uleb128 0x19
 898 00fc 31       		.uleb128 0x31
 899 00fd 13       		.uleb128 0x13
 900 00fe 00       		.byte	0
 901 00ff 00       		.byte	0
 902 0100 13       		.uleb128 0x13
 903 0101 2E       		.uleb128 0x2e
 904 0102 01       		.byte	0x1
 905 0103 31       		.uleb128 0x31
 906 0104 13       		.uleb128 0x13
 907 0105 11       		.uleb128 0x11
 908 0106 01       		.uleb128 0x1
 909 0107 12       		.uleb128 0x12
 910 0108 06       		.uleb128 0x6
 911 0109 40       		.uleb128 0x40
 912 010a 18       		.uleb128 0x18
ARM GAS  /tmp/ccwJnUeP.s 			page 17


 913 010b 9742     		.uleb128 0x2117
 914 010d 19       		.uleb128 0x19
 915 010e 01       		.uleb128 0x1
 916 010f 13       		.uleb128 0x13
 917 0110 00       		.byte	0
 918 0111 00       		.byte	0
 919 0112 14       		.uleb128 0x14
 920 0113 05       		.uleb128 0x5
 921 0114 00       		.byte	0
 922 0115 31       		.uleb128 0x31
 923 0116 13       		.uleb128 0x13
 924 0117 02       		.uleb128 0x2
 925 0118 17       		.uleb128 0x17
 926 0119 00       		.byte	0
 927 011a 00       		.byte	0
 928 011b 15       		.uleb128 0x15
 929 011c 05       		.uleb128 0x5
 930 011d 00       		.byte	0
 931 011e 31       		.uleb128 0x31
 932 011f 13       		.uleb128 0x13
 933 0120 02       		.uleb128 0x2
 934 0121 18       		.uleb128 0x18
 935 0122 00       		.byte	0
 936 0123 00       		.byte	0
 937 0124 16       		.uleb128 0x16
 938 0125 34       		.uleb128 0x34
 939 0126 00       		.byte	0
 940 0127 31       		.uleb128 0x31
 941 0128 13       		.uleb128 0x13
 942 0129 02       		.uleb128 0x2
 943 012a 18       		.uleb128 0x18
 944 012b 00       		.byte	0
 945 012c 00       		.byte	0
 946 012d 17       		.uleb128 0x17
 947 012e 05       		.uleb128 0x5
 948 012f 00       		.byte	0
 949 0130 03       		.uleb128 0x3
 950 0131 0E       		.uleb128 0xe
 951 0132 3A       		.uleb128 0x3a
 952 0133 0B       		.uleb128 0xb
 953 0134 3B       		.uleb128 0x3b
 954 0135 0B       		.uleb128 0xb
 955 0136 49       		.uleb128 0x49
 956 0137 13       		.uleb128 0x13
 957 0138 02       		.uleb128 0x2
 958 0139 17       		.uleb128 0x17
 959 013a 00       		.byte	0
 960 013b 00       		.byte	0
 961 013c 18       		.uleb128 0x18
 962 013d 34       		.uleb128 0x34
 963 013e 00       		.byte	0
 964 013f 03       		.uleb128 0x3
 965 0140 0E       		.uleb128 0xe
 966 0141 3A       		.uleb128 0x3a
 967 0142 0B       		.uleb128 0xb
 968 0143 3B       		.uleb128 0x3b
 969 0144 0B       		.uleb128 0xb
ARM GAS  /tmp/ccwJnUeP.s 			page 18


 970 0145 49       		.uleb128 0x49
 971 0146 13       		.uleb128 0x13
 972 0147 02       		.uleb128 0x2
 973 0148 18       		.uleb128 0x18
 974 0149 00       		.byte	0
 975 014a 00       		.byte	0
 976 014b 19       		.uleb128 0x19
 977 014c 1D       		.uleb128 0x1d
 978 014d 01       		.byte	0x1
 979 014e 31       		.uleb128 0x31
 980 014f 13       		.uleb128 0x13
 981 0150 52       		.uleb128 0x52
 982 0151 01       		.uleb128 0x1
 983 0152 55       		.uleb128 0x55
 984 0153 17       		.uleb128 0x17
 985 0154 58       		.uleb128 0x58
 986 0155 0B       		.uleb128 0xb
 987 0156 59       		.uleb128 0x59
 988 0157 0B       		.uleb128 0xb
 989 0158 00       		.byte	0
 990 0159 00       		.byte	0
 991 015a 1A       		.uleb128 0x1a
 992 015b 0B       		.uleb128 0xb
 993 015c 01       		.byte	0x1
 994 015d 55       		.uleb128 0x55
 995 015e 17       		.uleb128 0x17
 996 015f 00       		.byte	0
 997 0160 00       		.byte	0
 998 0161 1B       		.uleb128 0x1b
 999 0162 34       		.uleb128 0x34
 1000 0163 00       		.byte	0
 1001 0164 03       		.uleb128 0x3
 1002 0165 0E       		.uleb128 0xe
 1003 0166 3A       		.uleb128 0x3a
 1004 0167 0B       		.uleb128 0xb
 1005 0168 3B       		.uleb128 0x3b
 1006 0169 05       		.uleb128 0x5
 1007 016a 49       		.uleb128 0x49
 1008 016b 13       		.uleb128 0x13
 1009 016c 3F       		.uleb128 0x3f
 1010 016d 19       		.uleb128 0x19
 1011 016e 3C       		.uleb128 0x3c
 1012 016f 19       		.uleb128 0x19
 1013 0170 00       		.byte	0
 1014 0171 00       		.byte	0
 1015 0172 1C       		.uleb128 0x1c
 1016 0173 26       		.uleb128 0x26
 1017 0174 00       		.byte	0
 1018 0175 49       		.uleb128 0x49
 1019 0176 13       		.uleb128 0x13
 1020 0177 00       		.byte	0
 1021 0178 00       		.byte	0
 1022 0179 1D       		.uleb128 0x1d
 1023 017a 2E       		.uleb128 0x2e
 1024 017b 00       		.byte	0
 1025 017c 3F       		.uleb128 0x3f
 1026 017d 19       		.uleb128 0x19
ARM GAS  /tmp/ccwJnUeP.s 			page 19


 1027 017e 03       		.uleb128 0x3
 1028 017f 0E       		.uleb128 0xe
 1029 0180 3A       		.uleb128 0x3a
 1030 0181 0B       		.uleb128 0xb
 1031 0182 3B       		.uleb128 0x3b
 1032 0183 05       		.uleb128 0x5
 1033 0184 27       		.uleb128 0x27
 1034 0185 19       		.uleb128 0x19
 1035 0186 3C       		.uleb128 0x3c
 1036 0187 19       		.uleb128 0x19
 1037 0188 00       		.byte	0
 1038 0189 00       		.byte	0
 1039 018a 1E       		.uleb128 0x1e
 1040 018b 2E       		.uleb128 0x2e
 1041 018c 00       		.byte	0
 1042 018d 3F       		.uleb128 0x3f
 1043 018e 19       		.uleb128 0x19
 1044 018f 03       		.uleb128 0x3
 1045 0190 0E       		.uleb128 0xe
 1046 0191 3A       		.uleb128 0x3a
 1047 0192 0B       		.uleb128 0xb
 1048 0193 3B       		.uleb128 0x3b
 1049 0194 0B       		.uleb128 0xb
 1050 0195 27       		.uleb128 0x27
 1051 0196 19       		.uleb128 0x19
 1052 0197 3C       		.uleb128 0x3c
 1053 0198 19       		.uleb128 0x19
 1054 0199 00       		.byte	0
 1055 019a 00       		.byte	0
 1056 019b 1F       		.uleb128 0x1f
 1057 019c 2E       		.uleb128 0x2e
 1058 019d 01       		.byte	0x1
 1059 019e 3F       		.uleb128 0x3f
 1060 019f 19       		.uleb128 0x19
 1061 01a0 03       		.uleb128 0x3
 1062 01a1 0E       		.uleb128 0xe
 1063 01a2 3A       		.uleb128 0x3a
 1064 01a3 0B       		.uleb128 0xb
 1065 01a4 3B       		.uleb128 0x3b
 1066 01a5 05       		.uleb128 0x5
 1067 01a6 27       		.uleb128 0x27
 1068 01a7 19       		.uleb128 0x19
 1069 01a8 3C       		.uleb128 0x3c
 1070 01a9 19       		.uleb128 0x19
 1071 01aa 01       		.uleb128 0x1
 1072 01ab 13       		.uleb128 0x13
 1073 01ac 00       		.byte	0
 1074 01ad 00       		.byte	0
 1075 01ae 20       		.uleb128 0x20
 1076 01af 05       		.uleb128 0x5
 1077 01b0 00       		.byte	0
 1078 01b1 49       		.uleb128 0x49
 1079 01b2 13       		.uleb128 0x13
 1080 01b3 00       		.byte	0
 1081 01b4 00       		.byte	0
 1082 01b5 21       		.uleb128 0x21
 1083 01b6 0F       		.uleb128 0xf
ARM GAS  /tmp/ccwJnUeP.s 			page 20


 1084 01b7 00       		.byte	0
 1085 01b8 0B       		.uleb128 0xb
 1086 01b9 0B       		.uleb128 0xb
 1087 01ba 49       		.uleb128 0x49
 1088 01bb 13       		.uleb128 0x13
 1089 01bc 00       		.byte	0
 1090 01bd 00       		.byte	0
 1091 01be 00       		.byte	0
 1092              		.section	.debug_loc,"",%progbits
 1093              	.Ldebug_loc0:
 1094              	.LLST0:
 1095 0000 00000000 		.4byte	.LVL8
 1096 0004 22000000 		.4byte	.LVL10
 1097 0008 0100     		.2byte	0x1
 1098 000a 50       		.byte	0x50
 1099 000b 22000000 		.4byte	.LVL10
 1100 000f 24000000 		.4byte	.LVL11
 1101 0013 0400     		.2byte	0x4
 1102 0015 F3       		.byte	0xf3
 1103 0016 01       		.uleb128 0x1
 1104 0017 50       		.byte	0x50
 1105 0018 9F       		.byte	0x9f
 1106 0019 24000000 		.4byte	.LVL11
 1107 001d 2A000000 		.4byte	.LVL12
 1108 0021 0100     		.2byte	0x1
 1109 0023 50       		.byte	0x50
 1110 0024 2A000000 		.4byte	.LVL12
 1111 0028 34000000 		.4byte	.LFE64
 1112 002c 0100     		.2byte	0x1
 1113 002e 52       		.byte	0x52
 1114 002f 00000000 		.4byte	0
 1115 0033 00000000 		.4byte	0
 1116              	.LLST1:
 1117 0037 00000000 		.4byte	.LVL13
 1118 003b 0E000000 		.4byte	.LVL15
 1119 003f 0100     		.2byte	0x1
 1120 0041 50       		.byte	0x50
 1121 0042 0E000000 		.4byte	.LVL15
 1122 0046 42000000 		.4byte	.LFE65
 1123 004a 0400     		.2byte	0x4
 1124 004c F3       		.byte	0xf3
 1125 004d 01       		.uleb128 0x1
 1126 004e 50       		.byte	0x50
 1127 004f 9F       		.byte	0x9f
 1128 0050 00000000 		.4byte	0
 1129 0054 00000000 		.4byte	0
 1130              		.section	.debug_aranges,"",%progbits
 1131 0000 2C000000 		.4byte	0x2c
 1132 0004 0200     		.2byte	0x2
 1133 0006 00000000 		.4byte	.Ldebug_info0
 1134 000a 04       		.byte	0x4
 1135 000b 00       		.byte	0
 1136 000c 0000     		.2byte	0
 1137 000e 0000     		.2byte	0
 1138 0010 00000000 		.4byte	.LFB63
 1139 0014 2E000000 		.4byte	.LFE63-.LFB63
 1140 0018 00000000 		.4byte	.LFB64
ARM GAS  /tmp/ccwJnUeP.s 			page 21


 1141 001c 34000000 		.4byte	.LFE64-.LFB64
 1142 0020 00000000 		.4byte	.LFB65
 1143 0024 42000000 		.4byte	.LFE65-.LFB65
 1144 0028 00000000 		.4byte	0
 1145 002c 00000000 		.4byte	0
 1146              		.section	.debug_ranges,"",%progbits
 1147              	.Ldebug_ranges0:
 1148 0000 0E000000 		.4byte	.LBB4
 1149 0004 22000000 		.4byte	.LBE4
 1150 0008 2C000000 		.4byte	.LBB7
 1151 000c 3C000000 		.4byte	.LBE7
 1152 0010 00000000 		.4byte	0
 1153 0014 00000000 		.4byte	0
 1154 0018 00000000 		.4byte	.LFB63
 1155 001c 2E000000 		.4byte	.LFE63
 1156 0020 00000000 		.4byte	.LFB64
 1157 0024 34000000 		.4byte	.LFE64
 1158 0028 00000000 		.4byte	.LFB65
 1159 002c 42000000 		.4byte	.LFE65
 1160 0030 00000000 		.4byte	0
 1161 0034 00000000 		.4byte	0
 1162              		.section	.debug_line,"",%progbits
 1163              	.Ldebug_line0:
 1164 0000 A2020000 		.section	.debug_str,"MS",%progbits,1
 1164      02002B02 
 1164      00000201 
 1164      FB0E0D00 
 1164      01010101 
 1165              	.LASF59:
 1166 0000 7469636B 		.ascii	"ticks\000"
 1166      7300
 1167              	.LASF60:
 1168 0006 5F70616C 		.ascii	"_pal_lld_init\000"
 1168      5F6C6C64 
 1168      5F696E69 
 1168      7400
 1169              	.LASF47:
 1170 0014 70616C5F 		.ascii	"pal_default_config\000"
 1170      64656661 
 1170      756C745F 
 1170      636F6E66 
 1170      696700
 1171              	.LASF3:
 1172 0027 73686F72 		.ascii	"short int\000"
 1172      7420696E 
 1172      7400
 1173              	.LASF16:
 1174 0031 73697A65 		.ascii	"sizetype\000"
 1174      74797065 
 1174      00
 1175              	.LASF24:
 1176 003a 50435352 		.ascii	"PCSR\000"
 1176      00
 1177              	.LASF23:
 1178 003f 464F4C44 		.ascii	"FOLDCNT\000"
 1178      434E5400 
 1179              	.LASF53:
ARM GAS  /tmp/ccwJnUeP.s 			page 22


 1180 0047 73706949 		.ascii	"spiInit\000"
 1180      6E697400 
 1181              	.LASF7:
 1182 004f 5F5F7569 		.ascii	"__uint32_t\000"
 1182      6E743332 
 1182      5F7400
 1183              	.LASF56:
 1184 005a 2E2E2F43 		.ascii	"../ChibiOS_2.6.4/os/hal/src/hal.c\000"
 1184      68696269 
 1184      4F535F32 
 1184      2E362E34 
 1184      2F6F732F 
 1185              	.LASF6:
 1186 007c 5F5F696E 		.ascii	"__int32_t\000"
 1186      7433325F 
 1186      7400
 1187              	.LASF52:
 1188 0086 7364496E 		.ascii	"sdInit\000"
 1188      697400
 1189              	.LASF15:
 1190 008d 494F5245 		.ascii	"IOREG32\000"
 1190      47333200 
 1191              	.LASF35:
 1192 0095 50414461 		.ascii	"PAData\000"
 1192      746100
 1193              	.LASF9:
 1194 009c 6C6F6E67 		.ascii	"long long int\000"
 1194      206C6F6E 
 1194      6720696E 
 1194      7400
 1195              	.LASF43:
 1196 00aa 68616C49 		.ascii	"halInit\000"
 1196      6E697400 
 1197              	.LASF18:
 1198 00b2 43594343 		.ascii	"CYCCNT\000"
 1198      4E5400
 1199              	.LASF55:
 1200 00b9 474E5520 		.ascii	"GNU C 4.8.2 -mcpu=cortex-m3 -mno-thumb-interwork -m"
 1200      4320342E 
 1200      382E3220 
 1200      2D6D6370 
 1200      753D636F 
 1201 00ec 7468756D 		.ascii	"thumb -ggdb -O2 -fomit-frame-pointer -ffunction-sec"
 1201      62202D67 
 1201      67646220 
 1201      2D4F3220 
 1201      2D666F6D 
 1202 011f 74696F6E 		.ascii	"tions -fdata-sections -fno-common\000"
 1202      73202D66 
 1202      64617461 
 1202      2D736563 
 1202      74696F6E 
 1203              	.LASF57:
 1204 0141 2F686F6D 		.ascii	"/home/caroline/Documents/PAF/elfes/Code\000"
 1204      652F6361 
 1204      726F6C69 
 1204      6E652F44 
ARM GAS  /tmp/ccwJnUeP.s 			page 23


 1204      6F63756D 
 1205              	.LASF30:
 1206 0169 6F737065 		.ascii	"ospeedr\000"
 1206      65647200 
 1207              	.LASF5:
 1208 0171 6C6F6E67 		.ascii	"long int\000"
 1208      20696E74 
 1208      00
 1209              	.LASF51:
 1210 017a 70776D49 		.ascii	"pwmInit\000"
 1210      6E697400 
 1211              	.LASF38:
 1212 0182 50444461 		.ascii	"PDData\000"
 1212      746100
 1213              	.LASF44:
 1214 0189 68616C50 		.ascii	"halPolledDelay\000"
 1214      6F6C6C65 
 1214      6444656C 
 1214      617900
 1215              	.LASF54:
 1216 0198 626F6172 		.ascii	"boardInit\000"
 1216      64496E69 
 1216      7400
 1217              	.LASF37:
 1218 01a2 50434461 		.ascii	"PCData\000"
 1218      746100
 1219              	.LASF2:
 1220 01a9 756E7369 		.ascii	"unsigned char\000"
 1220      676E6564 
 1220      20636861 
 1220      7200
 1221              	.LASF17:
 1222 01b7 4354524C 		.ascii	"CTRL\000"
 1222      00
 1223              	.LASF1:
 1224 01bc 7369676E 		.ascii	"signed char\000"
 1224      65642063 
 1224      68617200 
 1225              	.LASF10:
 1226 01c8 6C6F6E67 		.ascii	"long long unsigned int\000"
 1226      206C6F6E 
 1226      6720756E 
 1226      7369676E 
 1226      65642069 
 1227              	.LASF12:
 1228 01df 75696E74 		.ascii	"uint32_t\000"
 1228      33325F74 
 1228      00
 1229              	.LASF29:
 1230 01e8 6F747970 		.ascii	"otyper\000"
 1230      657200
 1231              	.LASF34:
 1232 01ef 73746D33 		.ascii	"stm32_gpio_setup_t\000"
 1232      325F6770 
 1232      696F5F73 
 1232      65747570 
 1232      5F7400
ARM GAS  /tmp/ccwJnUeP.s 			page 24


 1233              	.LASF48:
 1234 0202 68616C5F 		.ascii	"hal_lld_init\000"
 1234      6C6C645F 
 1234      696E6974 
 1234      00
 1235              	.LASF42:
 1236 020f 73746172 		.ascii	"start\000"
 1236      7400
 1237              	.LASF4:
 1238 0215 73686F72 		.ascii	"short unsigned int\000"
 1238      7420756E 
 1238      7369676E 
 1238      65642069 
 1238      6E7400
 1239              	.LASF26:
 1240 0228 63686172 		.ascii	"char\000"
 1240      00
 1241              	.LASF11:
 1242 022d 696E7433 		.ascii	"int32_t\000"
 1242      325F7400 
 1243              	.LASF13:
 1244 0235 626F6F6C 		.ascii	"bool_t\000"
 1244      5F7400
 1245              	.LASF41:
 1246 023c 50414C43 		.ascii	"PALConfig\000"
 1246      6F6E6669 
 1246      6700
 1247              	.LASF36:
 1248 0246 50424461 		.ascii	"PBData\000"
 1248      746100
 1249              	.LASF14:
 1250 024d 5F426F6F 		.ascii	"_Bool\000"
 1250      6C00
 1251              	.LASF25:
 1252 0253 434D785F 		.ascii	"CMx_DWT\000"
 1252      44575400 
 1253              	.LASF39:
 1254 025b 50454461 		.ascii	"PEData\000"
 1254      746100
 1255              	.LASF19:
 1256 0262 43504943 		.ascii	"CPICNT\000"
 1256      4E5400
 1257              	.LASF8:
 1258 0269 6C6F6E67 		.ascii	"long unsigned int\000"
 1258      20756E73 
 1258      69676E65 
 1258      6420696E 
 1258      7400
 1259              	.LASF40:
 1260 027b 50484461 		.ascii	"PHData\000"
 1260      746100
 1261              	.LASF27:
 1262 0282 68616C72 		.ascii	"halrtcnt_t\000"
 1262      74636E74 
 1262      5F7400
 1263              	.LASF21:
 1264 028d 534C4545 		.ascii	"SLEEPCNT\000"
ARM GAS  /tmp/ccwJnUeP.s 			page 25


 1264      50434E54 
 1264      00
 1265              	.LASF31:
 1266 0296 70757064 		.ascii	"pupdr\000"
 1266      7200
 1267              	.LASF22:
 1268 029c 4C535543 		.ascii	"LSUCNT\000"
 1268      4E5400
 1269              	.LASF33:
 1270 02a3 61667268 		.ascii	"afrh\000"
 1270      00
 1271              	.LASF50:
 1272 02a8 61646349 		.ascii	"adcInit\000"
 1272      6E697400 
 1273              	.LASF32:
 1274 02b0 6166726C 		.ascii	"afrl\000"
 1274      00
 1275              	.LASF28:
 1276 02b5 6D6F6465 		.ascii	"moder\000"
 1276      7200
 1277              	.LASF46:
 1278 02bb 49544D5F 		.ascii	"ITM_RxBuffer\000"
 1278      52784275 
 1278      66666572 
 1278      00
 1279              	.LASF49:
 1280 02c8 746D496E 		.ascii	"tmInit\000"
 1280      697400
 1281              	.LASF0:
 1282 02cf 756E7369 		.ascii	"unsigned int\000"
 1282      676E6564 
 1282      20696E74 
 1282      00
 1283              	.LASF58:
 1284 02dc 68616C49 		.ascii	"halIsCounterWithin\000"
 1284      73436F75 
 1284      6E746572 
 1284      57697468 
 1284      696E00
 1285              	.LASF20:
 1286 02ef 45584343 		.ascii	"EXCCNT\000"
 1286      4E5400
 1287              	.LASF45:
 1288 02f6 74696D65 		.ascii	"timeout\000"
 1288      6F757400 
 1289              		.ident	"GCC: (4.8.2-14ubuntu1+6) 4.8.2"
ARM GAS  /tmp/ccwJnUeP.s 			page 26


DEFINED SYMBOLS
                            *ABS*:0000000000000000 hal.c
     /tmp/ccwJnUeP.s:19     .text.halInit:0000000000000000 $t
     /tmp/ccwJnUeP.s:24     .text.halInit:0000000000000000 halInit
     /tmp/ccwJnUeP.s:67     .text.halIsCounterWithin:0000000000000000 $t
     /tmp/ccwJnUeP.s:72     .text.halIsCounterWithin:0000000000000000 halIsCounterWithin
     /tmp/ccwJnUeP.s:120    .text.halPolledDelay:0000000000000000 $t
     /tmp/ccwJnUeP.s:125    .text.halPolledDelay:0000000000000000 halPolledDelay
                     .debug_frame:0000000000000010 $d

UNDEFINED SYMBOLS
hal_lld_init
tmInit
pal_default_config
_pal_lld_init
adcInit
pwmInit
sdInit
spiInit
boardInit
