ARM GAS  /tmp/ccwJnUeP.s 			page 1


   1              		.syntax unified
   2              		.cpu cortex-m3
   3              		.fpu softvfp
   4              		.eabi_attribute 20, 1
   5              		.eabi_attribute 21, 1
   6              		.eabi_attribute 23, 3
   7              		.eabi_attribute 24, 1
   8              		.eabi_attribute 25, 1
   9              		.eabi_attribute 26, 1
  10              		.eabi_attribute 30, 2
  11              		.eabi_attribute 34, 1
  12              		.eabi_attribute 18, 4
  13              		.thumb
  14              		.file	"hal.c"
  15              		.text
  16              	.Ltext0:
  17              		.cfi_sections	.debug_frame
  18              		.section	.text.halInit,"ax",%progbits
  19              		.align	2
  20              		.global	halInit
  21              		.thumb
  22              		.thumb_func
  23              		.type	halInit, %function
  24              	halInit:
  25              	.LFB63:
  26              		.file 1 "../ChibiOS_2.6.4/os/hal/src/hal.c"
  27              		.loc 1 68 0
  28              		.cfi_startproc
  29              		@ args = 0, pretend = 0, frame = 0
  30              		@ frame_needed = 0, uses_anonymous_args = 0
  31 0000 08B5     		push	{r3, lr}
  32              		.cfi_def_cfa_offset 8
  33              		.cfi_offset 3, -8
  34              		.cfi_offset 14, -4
  35              		.loc 1 70 0
  36 0002 FFF7FEFF 		bl	hal_lld_init
  37              	.LVL0:
  38              		.loc 1 73 0
  39 0006 FFF7FEFF 		bl	tmInit
  40              	.LVL1:
  41              		.loc 1 76 0
  42 000a 40F20000 		movw	r0, #:lower16:pal_default_config
  43 000e C0F20000 		movt	r0, #:upper16:pal_default_config
  44 0012 FFF7FEFF 		bl	_pal_lld_init
  45              	.LVL2:
  46              		.loc 1 79 0
  47 0016 FFF7FEFF 		bl	adcInit
  48              	.LVL3:
  49              		.loc 1 100 0
  50 001a FFF7FEFF 		bl	pwmInit
  51              	.LVL4:
  52              		.loc 1 103 0
  53 001e FFF7FEFF 		bl	sdInit
  54              	.LVL5:
  55              		.loc 1 109 0
  56 0022 FFF7FEFF 		bl	spiInit
  57              	.LVL6:
ARM GAS  /tmp/ccwJnUeP.s 			page 2


  58              		.loc 1 128 0
  59 0026 BDE80840 		pop	{r3, lr}
  60              		.loc 1 127 0
  61 002a FFF7FEBF 		b	boardInit
  62              	.LVL7:
  63              		.cfi_endproc
  64              	.LFE63:
  65              		.size	halInit, .-halInit
  66 002e 00BF     		.section	.text.halIsCounterWithin,"ax",%progbits
  67              		.align	2
  68              		.global	halIsCounterWithin
  69              		.thumb
  70              		.thumb_func
  71              		.type	halIsCounterWithin, %function
  72              	halIsCounterWithin:
  73              	.LFB64:
  74              		.loc 1 174 0
  75              		.cfi_startproc
  76              		@ args = 0, pretend = 0, frame = 0
  77              		@ frame_needed = 0, uses_anonymous_args = 0
  78              		@ link register save eliminated.
  79              	.LVL8:
  80              		.loc 1 175 0
  81 0000 4FF48053 		mov	r3, #4096
  82 0004 CEF20003 		movt	r3, 57344
  83              		.loc 1 177 0
  84 0008 8142     		cmp	r1, r0
  85              		.loc 1 174 0
  86 000a 0246     		mov	r2, r0
  87              		.loc 1 175 0
  88 000c 5B68     		ldr	r3, [r3, #4]
  89              	.LVL9:
  90              		.loc 1 177 0
  91 000e 09D8     		bhi	.L6
  92              		.loc 1 178 0 discriminator 2
  93 0010 8342     		cmp	r3, r0
  94 0012 34BF     		ite	cc
  95 0014 0022     		movcc	r2, #0
  96 0016 0122     		movcs	r2, #1
  97 0018 8B42     		cmp	r3, r1
  98 001a 2CBF     		ite	cs
  99 001c 1046     		movcs	r0, r2
 100 001e 42F00100 		orrcc	r0, r2, #1
 101              	.LVL10:
 102              		.loc 1 179 0 discriminator 2
 103 0022 7047     		bx	lr
 104              	.LVL11:
 105              	.L6:
 106              		.loc 1 177 0 discriminator 1
 107 0024 8B42     		cmp	r3, r1
 108 0026 2CBF     		ite	cs
 109 0028 0020     		movcs	r0, #0
 110              	.LVL12:
 111 002a 0120     		movcc	r0, #1
 112 002c 9342     		cmp	r3, r2
 113 002e 38BF     		it	cc
 114 0030 0020     		movcc	r0, #0
ARM GAS  /tmp/ccwJnUeP.s 			page 3


 115 0032 7047     		bx	lr
 116              		.cfi_endproc
 117              	.LFE64:
 118              		.size	halIsCounterWithin, .-halIsCounterWithin
 119              		.section	.text.halPolledDelay,"ax",%progbits
 120              		.align	2
 121              		.global	halPolledDelay
 122              		.thumb
 123              		.thumb_func
 124              		.type	halPolledDelay, %function
 125              	halPolledDelay:
 126              	.LFB65:
 127              		.loc 1 193 0
 128              		.cfi_startproc
 129              		@ args = 0, pretend = 0, frame = 0
 130              		@ frame_needed = 0, uses_anonymous_args = 0
 131              		@ link register save eliminated.
 132              	.LVL13:
 133 0000 10B4     		push	{r4}
 134              		.cfi_def_cfa_offset 4
 135              		.cfi_offset 4, -4
 136              		.loc 1 194 0
 137 0002 4FF48054 		mov	r4, #4096
 138 0006 CEF20004 		movt	r4, 57344
 139 000a 6268     		ldr	r2, [r4, #4]
 140              	.LVL14:
 141              		.loc 1 195 0
 142 000c 1044     		add	r0, r0, r2
 143              	.LVL15:
 144              	.L11:
 145              	.LBB4:
 146              	.LBB5:
 147              		.loc 1 177 0 discriminator 1
 148 000e 8242     		cmp	r2, r0
 149              		.loc 1 175 0 discriminator 1
 150 0010 6368     		ldr	r3, [r4, #4]
 151              	.LVL16:
 152              		.loc 1 177 0 discriminator 1
 153 0012 0BD2     		bcs	.L8
 154              		.loc 1 177 0 is_stmt 0
 155 0014 9842     		cmp	r0, r3
 156 0016 94BF     		ite	ls
 157 0018 0021     		movls	r1, #0
 158 001a 0121     		movhi	r1, #1
 159 001c 9A42     		cmp	r2, r3
 160 001e 88BF     		it	hi
 161 0020 0021     		movhi	r1, #0
 162              	.LBE5:
 163              	.LBE4:
 164              		.loc 1 196 0 is_stmt 1
 165 0022 0029     		cmp	r1, #0
 166 0024 F3D1     		bne	.L11
 167              	.L12:
 168              		.loc 1 198 0
 169 0026 5DF8044B 		ldr	r4, [sp], #4
 170 002a 7047     		bx	lr
 171              	.L8:
ARM GAS  /tmp/ccwJnUeP.s 			page 4


 172              	.LBB7:
 173              	.LBB6:
 174              		.loc 1 178 0
 175 002c 9A42     		cmp	r2, r3
 176 002e 8CBF     		ite	hi
 177 0030 0021     		movhi	r1, #0
 178 0032 0121     		movls	r1, #1
 179 0034 9842     		cmp	r0, r3
 180 0036 88BF     		it	hi
 181 0038 41F00101 		orrhi	r1, r1, #1
 182              	.LBE6:
 183              	.LBE7:
 184              		.loc 1 196 0
 185 003c 0029     		cmp	r1, #0
 186 003e E6D1     		bne	.L11
 187 0040 F1E7     		b	.L12
 188              		.cfi_endproc
 189              	.LFE65:
 190              		.size	halPolledDelay, .-halPolledDelay
 191 0042 00BF     		.text
 192              	.Letext0:
 193              		.file 2 "/usr/include/newlib/machine/_default_types.h"
 194              		.file 3 "/usr/include/newlib/stdint.h"
 195              		.file 4 "../ChibiOS_2.6.4/os/ports/GCC/ARMCMx/chtypes.h"
 196              		.file 5 "../ChibiOS_2.6.4/os/ports/common/ARMCMx/nvic.h"
 197              		.file 6 "../ChibiOS_2.6.4/os/hal/platforms/STM32L1xx/hal_lld.h"
 198              		.file 7 "../ChibiOS_2.6.4/os/hal/platforms/STM32/GPIOv2/pal_lld.h"
 199              		.file 8 "../ChibiOS_2.6.4/os/ports/common/ARMCMx/CMSIS/include/core_cm3.h"
 200              		.file 9 "../ChibiOS_2.6.4/os/hal/include/tm.h"
 201              		.file 10 "../ChibiOS_2.6.4/os/hal/include/adc.h"
 202              		.file 11 "../ChibiOS_2.6.4/os/hal/include/pwm.h"
 203              		.file 12 "../ChibiOS_2.6.4/os/hal/include/serial.h"
 204              		.file 13 "../ChibiOS_2.6.4/os/hal/include/spi.h"
 205              		.file 14 "../ChibiOS_2.6.4/boards/ST_STM32L_DISCOVERY/board.h"