ARM GAS  /tmp/ccUo0TC0.s 			page 1


   1              		.syntax unified
   2              		.cpu cortex-m3
   3              		.fpu softvfp
   4              		.eabi_attribute 20, 1
   5              		.eabi_attribute 21, 1
   6              		.eabi_attribute 23, 3
   7              		.eabi_attribute 24, 1
   8              		.eabi_attribute 25, 1
   9              		.eabi_attribute 26, 1
  10              		.eabi_attribute 30, 2
  11              		.eabi_attribute 34, 1
  12              		.eabi_attribute 18, 4
  13              		.thumb
  14              		.file	"pal_lld.c"
  15              		.text
  16              	.Ltext0:
  17              		.cfi_sections	.debug_frame
  18              		.section	.text._pal_lld_init,"ax",%progbits
  19              		.align	2
  20              		.global	_pal_lld_init
  21              		.thumb
  22              		.thumb_func
  23              		.type	_pal_lld_init, %function
  24              	_pal_lld_init:
  25              	.LFB64:
  26              		.file 1 "../ChibiOS_2.6.4/os/hal/platforms/STM32/GPIOv2/pal_lld.c"
  27              		.loc 1 113 0
  28              		.cfi_startproc
  29              		@ args = 0, pretend = 0, frame = 0
  30              		@ frame_needed = 0, uses_anonymous_args = 0
  31              		@ link register save eliminated.
  32              	.LVL0:
  33              		.loc 1 119 0
  34 0000 4FF46052 		mov	r2, #14336
  35 0004 C4F20202 		movt	r2, 16386
  36 0008 D369     		ldr	r3, [r2, #28]
  37              		.loc 1 113 0
  38 000a 70B4     		push	{r4, r5, r6}
  39              		.cfi_def_cfa_offset 12
  40              		.cfi_offset 4, -12
  41              		.cfi_offset 5, -8
  42              		.cfi_offset 6, -4
  43              		.loc 1 119 0
  44 000c 43F03F03 		orr	r3, r3, #63
  45 0010 D361     		str	r3, [r2, #28]
  46 0012 916A     		ldr	r1, [r2, #40]
  47              	.LBB14:
  48              	.LBB15:
  49              		.loc 1 88 0
  50 0014 0023     		movs	r3, #0
  51              	.LBE15:
  52              	.LBE14:
  53              		.loc 1 119 0
  54 0016 41F03F01 		orr	r1, r1, #63
  55 001a 9162     		str	r1, [r2, #40]
  56              		.loc 1 120 0
  57 001c 916A     		ldr	r1, [r2, #40]
ARM GAS  /tmp/ccUo0TC0.s 			page 2


  58              	.LBB25:
  59              	.LBB16:
  60              		.loc 1 88 0
  61 001e C4F20203 		movt	r3, 16386
  62              	.LBE16:
  63              	.LBE25:
  64              		.loc 1 120 0
  65 0022 41F03F01 		orr	r1, r1, #63
  66 0026 9162     		str	r1, [r2, #40]
  67              	.LVL1:
  68              	.LBB26:
  69              	.LBB17:
  70              		.loc 1 88 0
  71 0028 4268     		ldr	r2, [r0, #4]
  72              	.LBE17:
  73              	.LBE26:
  74              	.LBB27:
  75              	.LBB28:
  76 002a 4FF48065 		mov	r5, #1024
  77              	.LBE28:
  78              	.LBE27:
  79              	.LBB34:
  80              	.LBB18:
  81 002e 5A60     		str	r2, [r3, #4]
  82              		.loc 1 89 0
  83 0030 8268     		ldr	r2, [r0, #8]
  84              	.LBE18:
  85              	.LBE34:
  86              	.LBB35:
  87              	.LBB29:
  88              		.loc 1 88 0
  89 0032 C4F20205 		movt	r5, 16386
  90              	.LBE29:
  91              	.LBE35:
  92              	.LBB36:
  93              	.LBB19:
  94              		.loc 1 89 0
  95 0036 9A60     		str	r2, [r3, #8]
  96              		.loc 1 90 0
  97 0038 C268     		ldr	r2, [r0, #12]
  98              	.LBE19:
  99              	.LBE36:
 100              	.LBB37:
 101              	.LBB38:
 102              		.loc 1 88 0
 103 003a 4FF40064 		mov	r4, #2048
 104              	.LBE38:
 105              	.LBE37:
 106              	.LBB41:
 107              	.LBB20:
 108              		.loc 1 90 0
 109 003e DA60     		str	r2, [r3, #12]
 110              		.loc 1 91 0
 111 0040 0269     		ldr	r2, [r0, #16]
 112              	.LBE20:
 113              	.LBE41:
 114              	.LBB42:
ARM GAS  /tmp/ccUo0TC0.s 			page 3


 115              	.LBB39:
 116              		.loc 1 88 0
 117 0042 C4F20204 		movt	r4, 16386
 118              	.LBE39:
 119              	.LBE42:
 120              	.LBB43:
 121              	.LBB21:
 122              		.loc 1 91 0
 123 0046 5A61     		str	r2, [r3, #20]
 124              		.loc 1 92 0
 125 0048 4269     		ldr	r2, [r0, #20]
 126              	.LBE21:
 127              	.LBE43:
 128              	.LBB44:
 129              	.LBB45:
 130              		.loc 1 88 0
 131 004a 4FF44061 		mov	r1, #3072
 132              	.LBE45:
 133              	.LBE44:
 134              	.LBB48:
 135              	.LBB22:
 136              		.loc 1 92 0
 137 004e 1A62     		str	r2, [r3, #32]
 138              		.loc 1 93 0
 139 0050 8269     		ldr	r2, [r0, #24]
 140              	.LBE22:
 141              	.LBE48:
 142              	.LBB49:
 143              	.LBB46:
 144              		.loc 1 88 0
 145 0052 C4F20201 		movt	r1, 16386
 146              	.LBE46:
 147              	.LBE49:
 148              	.LBB50:
 149              	.LBB23:
 150              		.loc 1 93 0
 151 0056 5A62     		str	r2, [r3, #36]
 152              		.loc 1 94 0
 153 0058 0668     		ldr	r6, [r0]
 154              	.LBE23:
 155              	.LBE50:
 156              	.LBB51:
 157              	.LBB52:
 158              		.loc 1 88 0
 159 005a 4FF48052 		mov	r2, #4096
 160              	.LBE52:
 161              	.LBE51:
 162              	.LBB56:
 163              	.LBB24:
 164              		.loc 1 94 0
 165 005e 1E60     		str	r6, [r3]
 166              	.LVL2:
 167              	.LBE24:
 168              	.LBE56:
 169              	.LBB57:
 170              	.LBB30:
 171              		.loc 1 88 0
ARM GAS  /tmp/ccUo0TC0.s 			page 4


 172 0060 036A     		ldr	r3, [r0, #32]
 173              	.LBE30:
 174              	.LBE57:
 175              	.LBB58:
 176              	.LBB53:
 177 0062 C4F20202 		movt	r2, 16386
 178              	.LBE53:
 179              	.LBE58:
 180              	.LBB59:
 181              	.LBB31:
 182 0066 6B60     		str	r3, [r5, #4]
 183              		.loc 1 89 0
 184 0068 466A     		ldr	r6, [r0, #36]
 185              	.LBE31:
 186              	.LBE59:
 187              	.LBB60:
 188              	.LBB61:
 189              		.loc 1 88 0
 190 006a 4FF4A053 		mov	r3, #5120
 191              	.LBE61:
 192              	.LBE60:
 193              	.LBB64:
 194              	.LBB32:
 195              		.loc 1 89 0
 196 006e AE60     		str	r6, [r5, #8]
 197              		.loc 1 90 0
 198 0070 866A     		ldr	r6, [r0, #40]
 199              	.LBE32:
 200              	.LBE64:
 201              	.LBB65:
 202              	.LBB62:
 203              		.loc 1 88 0
 204 0072 C4F20203 		movt	r3, 16386
 205              	.LBE62:
 206              	.LBE65:
 207              	.LBB66:
 208              	.LBB33:
 209              		.loc 1 90 0
 210 0076 EE60     		str	r6, [r5, #12]
 211              		.loc 1 91 0
 212 0078 C66A     		ldr	r6, [r0, #44]
 213 007a 6E61     		str	r6, [r5, #20]
 214              		.loc 1 92 0
 215 007c 066B     		ldr	r6, [r0, #48]
 216 007e 2E62     		str	r6, [r5, #32]
 217              		.loc 1 93 0
 218 0080 466B     		ldr	r6, [r0, #52]
 219 0082 6E62     		str	r6, [r5, #36]
 220              		.loc 1 94 0
 221 0084 C669     		ldr	r6, [r0, #28]
 222 0086 2E60     		str	r6, [r5]
 223              	.LVL3:
 224              	.LBE33:
 225              	.LBE66:
 226              	.LBB67:
 227              	.LBB40:
 228              		.loc 1 88 0
ARM GAS  /tmp/ccUo0TC0.s 			page 5


 229 0088 C56B     		ldr	r5, [r0, #60]
 230 008a 6560     		str	r5, [r4, #4]
 231              		.loc 1 89 0
 232 008c 056C     		ldr	r5, [r0, #64]
 233 008e A560     		str	r5, [r4, #8]
 234              		.loc 1 90 0
 235 0090 456C     		ldr	r5, [r0, #68]
 236 0092 E560     		str	r5, [r4, #12]
 237              		.loc 1 91 0
 238 0094 856C     		ldr	r5, [r0, #72]
 239 0096 6561     		str	r5, [r4, #20]
 240              		.loc 1 92 0
 241 0098 C56C     		ldr	r5, [r0, #76]
 242 009a 2562     		str	r5, [r4, #32]
 243              		.loc 1 93 0
 244 009c 056D     		ldr	r5, [r0, #80]
 245 009e 6562     		str	r5, [r4, #36]
 246              		.loc 1 94 0
 247 00a0 856B     		ldr	r5, [r0, #56]
 248 00a2 2560     		str	r5, [r4]
 249              	.LVL4:
 250              	.LBE40:
 251              	.LBE67:
 252              	.LBB68:
 253              	.LBB47:
 254              		.loc 1 88 0
 255 00a4 846D     		ldr	r4, [r0, #88]
 256 00a6 4C60     		str	r4, [r1, #4]
 257              		.loc 1 89 0
 258 00a8 C46D     		ldr	r4, [r0, #92]
 259 00aa 8C60     		str	r4, [r1, #8]
 260              		.loc 1 90 0
 261 00ac 046E     		ldr	r4, [r0, #96]
 262 00ae CC60     		str	r4, [r1, #12]
 263              		.loc 1 91 0
 264 00b0 446E     		ldr	r4, [r0, #100]
 265 00b2 4C61     		str	r4, [r1, #20]
 266              		.loc 1 92 0
 267 00b4 846E     		ldr	r4, [r0, #104]
 268 00b6 0C62     		str	r4, [r1, #32]
 269              		.loc 1 93 0
 270 00b8 C46E     		ldr	r4, [r0, #108]
 271 00ba 4C62     		str	r4, [r1, #36]
 272              		.loc 1 94 0
 273 00bc 446D     		ldr	r4, [r0, #84]
 274 00be 0C60     		str	r4, [r1]
 275              	.LVL5:
 276              	.LBE47:
 277              	.LBE68:
 278              	.LBB69:
 279              	.LBB54:
 280              		.loc 1 88 0
 281 00c0 416F     		ldr	r1, [r0, #116]
 282 00c2 5160     		str	r1, [r2, #4]
 283              		.loc 1 89 0
 284 00c4 816F     		ldr	r1, [r0, #120]
 285 00c6 9160     		str	r1, [r2, #8]
ARM GAS  /tmp/ccUo0TC0.s 			page 6


 286              		.loc 1 90 0
 287 00c8 C16F     		ldr	r1, [r0, #124]
 288 00ca D160     		str	r1, [r2, #12]
 289              		.loc 1 91 0
 290 00cc D0F88010 		ldr	r1, [r0, #128]
 291              	.LBE54:
 292              	.LBE69:
 293              		.loc 1 160 0
 294 00d0 70BC     		pop	{r4, r5, r6}
 295              	.LBB70:
 296              	.LBB55:
 297              		.loc 1 91 0
 298 00d2 5161     		str	r1, [r2, #20]
 299              		.loc 1 92 0
 300 00d4 D0F88410 		ldr	r1, [r0, #132]
 301 00d8 1162     		str	r1, [r2, #32]
 302              		.loc 1 93 0
 303 00da D0F88810 		ldr	r1, [r0, #136]
 304 00de 5162     		str	r1, [r2, #36]
 305              		.loc 1 94 0
 306 00e0 016F     		ldr	r1, [r0, #112]
 307 00e2 1160     		str	r1, [r2]
 308              	.LVL6:
 309              	.LBE55:
 310              	.LBE70:
 311              	.LBB71:
 312              	.LBB63:
 313              		.loc 1 88 0
 314 00e4 D0F89020 		ldr	r2, [r0, #144]
 315 00e8 5A60     		str	r2, [r3, #4]
 316              		.loc 1 89 0
 317 00ea D0F89420 		ldr	r2, [r0, #148]
 318 00ee 9A60     		str	r2, [r3, #8]
 319              		.loc 1 90 0
 320 00f0 D0F89820 		ldr	r2, [r0, #152]
 321 00f4 DA60     		str	r2, [r3, #12]
 322              		.loc 1 91 0
 323 00f6 D0F89C20 		ldr	r2, [r0, #156]
 324 00fa 5A61     		str	r2, [r3, #20]
 325              		.loc 1 92 0
 326 00fc D0F8A020 		ldr	r2, [r0, #160]
 327 0100 1A62     		str	r2, [r3, #32]
 328              		.loc 1 93 0
 329 0102 D0F8A420 		ldr	r2, [r0, #164]
 330 0106 5A62     		str	r2, [r3, #36]
 331              		.loc 1 94 0
 332 0108 D0F88C20 		ldr	r2, [r0, #140]
 333 010c 1A60     		str	r2, [r3]
 334              	.LBE63:
 335              	.LBE71:
 336              		.loc 1 160 0
 337 010e 7047     		bx	lr
 338              		.cfi_endproc
 339              	.LFE64:
 340              		.size	_pal_lld_init, .-_pal_lld_init
 341              		.section	.text._pal_lld_setgroupmode,"ax",%progbits
 342              		.align	2
ARM GAS  /tmp/ccUo0TC0.s 			page 7


 343              		.global	_pal_lld_setgroupmode
 344              		.thumb
 345              		.thumb_func
 346              		.type	_pal_lld_setgroupmode, %function
 347              	_pal_lld_setgroupmode:
 348              	.LFB65:
 349              		.loc 1 178 0
 350              		.cfi_startproc
 351              		@ args = 0, pretend = 0, frame = 0
 352              		@ frame_needed = 0, uses_anonymous_args = 0
 353              		@ link register save eliminated.
 354              	.LVL7:
 355 0000 2DE9F00F 		push	{r4, r5, r6, r7, r8, r9, r10, fp}
 356              		.cfi_def_cfa_offset 32
 357              		.cfi_offset 4, -32
 358              		.cfi_offset 5, -28
 359              		.cfi_offset 6, -24
 360              		.cfi_offset 7, -20
 361              		.cfi_offset 8, -16
 362              		.cfi_offset 9, -12
 363              		.cfi_offset 10, -8
 364              		.cfi_offset 11, -4
 365              		.loc 1 185 0
 366 0004 0023     		movs	r3, #0
 367              		.loc 1 180 0
 368 0006 02F00307 		and	r7, r2, #3
 369              	.LVL8:
 370              		.loc 1 181 0
 371 000a C2F38006 		ubfx	r6, r2, #2, #1
 372              	.LVL9:
 373              		.loc 1 182 0
 374 000e C2F3C105 		ubfx	r5, r2, #3, #2
 375              	.LVL10:
 376              		.loc 1 183 0
 377 0012 C2F34114 		ubfx	r4, r2, #5, #2
 378              	.LVL11:
 379              		.loc 1 184 0
 380 0016 C2F3C31B 		ubfx	fp, r2, #7, #4
 381              	.LVL12:
 382              	.LBB72:
 383              		.loc 1 191 0
 384 001a 4FF00F0A 		mov	r10, #15
 385              		.loc 1 196 0
 386 001e 4FF00109 		mov	r9, #1
 387 0022 04E0     		b	.L7
 388              	.LVL13:
 389              	.L12:
 390              	.LBE72:
 391              		.loc 1 206 0
 392 0024 7600     		lsls	r6, r6, #1
 393              	.LVL14:
 394              		.loc 1 207 0
 395 0026 AD00     		lsls	r5, r5, #2
 396              	.LVL15:
 397              		.loc 1 208 0
 398 0028 A400     		lsls	r4, r4, #2
 399              	.LVL16:
ARM GAS  /tmp/ccUo0TC0.s 			page 8


 400              		.loc 1 209 0
 401 002a BF00     		lsls	r7, r7, #2
 402              	.LVL17:
 403              		.loc 1 210 0
 404 002c 0133     		adds	r3, r3, #1
 405              	.LVL18:
 406              	.L7:
 407              	.LBB73:
 408              		.loc 1 190 0
 409 002e 03F00702 		and	r2, r3, #7
 410              	.LBE73:
 411              		.loc 1 187 0
 412 0032 11F0010F 		tst	r1, #1
 413              	.LBB74:
 414              		.loc 1 190 0
 415 0036 4FEA8202 		lsl	r2, r2, #2
 416              	.LBE74:
 417              		.loc 1 187 0
 418 003a 3BD0     		beq	.L3
 419              	.LBB75:
 420              		.loc 1 190 0
 421 003c 0BFA02FC 		lsl	ip, fp, r2
 422              	.LVL19:
 423              		.loc 1 191 0
 424 0040 0AFA02F2 		lsl	r2, r10, r2
 425              	.LVL20:
 426              		.loc 1 192 0
 427 0044 072B     		cmp	r3, #7
 428              		.loc 1 193 0
 429 0046 95BF     		itete	ls
 430 0048 D0F82080 		ldrls	r8, [r0, #32]
 431              		.loc 1 195 0
 432 004c D0F82480 		ldrhi	r8, [r0, #36]
 433              		.loc 1 193 0
 434 0050 28EA0202 		bicls	r2, r8, r2
 435              	.LVL21:
 436              		.loc 1 195 0
 437 0054 28EA0202 		bichi	r2, r8, r2
 438              		.loc 1 193 0
 439 0058 94BF     		ite	ls
 440 005a 42EA0C02 		orrls	r2, r2, ip
 441              		.loc 1 195 0
 442 005e 42EA0C02 		orrhi	r2, r2, ip
 443              		.loc 1 196 0
 444 0062 09FA03FC 		lsl	ip, r9, r3
 445              	.LVL22:
 446              		.loc 1 193 0
 447 0066 94BF     		ite	ls
 448 0068 0262     		strls	r2, [r0, #32]
 449              		.loc 1 195 0
 450 006a 4262     		strhi	r2, [r0, #36]
 451              		.loc 1 198 0
 452 006c 4FF00308 		mov	r8, #3
 453 0070 5A00     		lsls	r2, r3, #1
 454 0072 08FA02F2 		lsl	r2, r8, r2
 455              		.loc 1 197 0
 456 0076 D0F80480 		ldr	r8, [r0, #4]
ARM GAS  /tmp/ccUo0TC0.s 			page 9


 457              		.loc 1 199 0
 458 007a D243     		mvns	r2, r2
 459              		.loc 1 197 0
 460 007c 28EA0C0C 		bic	ip, r8, ip
 461 0080 4CEA060C 		orr	ip, ip, r6
 462 0084 C0F804C0 		str	ip, [r0, #4]
 463              	.LVL23:
 464              		.loc 1 199 0
 465 0088 D0F808C0 		ldr	ip, [r0, #8]
 466 008c 02EA0C0C 		and	ip, r2, ip
 467 0090 4CEA050C 		orr	ip, ip, r5
 468 0094 C0F808C0 		str	ip, [r0, #8]
 469              		.loc 1 200 0
 470 0098 D0F80CC0 		ldr	ip, [r0, #12]
 471 009c 02EA0C0C 		and	ip, r2, ip
 472 00a0 4CEA040C 		orr	ip, ip, r4
 473 00a4 C0F80CC0 		str	ip, [r0, #12]
 474              		.loc 1 201 0
 475 00a8 D0F800C0 		ldr	ip, [r0]
 476 00ac 02EA0C02 		and	r2, r2, ip
 477              	.LVL24:
 478 00b0 3A43     		orrs	r2, r2, r7
 479 00b2 0260     		str	r2, [r0]
 480              	.LVL25:
 481              	.L3:
 482              	.LBE75:
 483              		.loc 1 204 0
 484 00b4 4908     		lsrs	r1, r1, #1
 485              	.LVL26:
 486 00b6 B5D1     		bne	.L12
 487              		.loc 1 212 0
 488 00b8 BDE8F00F 		pop	{r4, r5, r6, r7, r8, r9, r10, fp}
 489              	.LVL27:
 490 00bc 7047     		bx	lr
 491              		.cfi_endproc
 492              	.LFE65:
 493              		.size	_pal_lld_setgroupmode, .-_pal_lld_setgroupmode
 494 00be 00BF     		.text
 495              	.Letext0:
 496              		.file 2 "/usr/include/newlib/machine/_default_types.h"
 497              		.file 3 "/usr/include/newlib/stdint.h"
 498              		.file 4 "../ChibiOS_2.6.4/os/hal/platforms/STM32L1xx/stm32l1xx.h"
 499              		.file 5 "../ChibiOS_2.6.4/os/hal/platforms/STM32/GPIOv2/pal_lld.h"
 500              		.file 6 "../ChibiOS_2.6.4/os/ports/common/ARMCMx/CMSIS/include/core_cm3.h"