ARM GAS  /tmp/ccOgoaRD.s 			page 1


   1              		.syntax unified
   2              		.cpu cortex-m3
   3              		.fpu softvfp
   4              		.eabi_attribute 20, 1
   5              		.eabi_attribute 21, 1
   6              		.eabi_attribute 23, 3
   7              		.eabi_attribute 24, 1
   8              		.eabi_attribute 25, 1
   9              		.eabi_attribute 26, 1
  10              		.eabi_attribute 30, 2
  11              		.eabi_attribute 34, 1
  12              		.eabi_attribute 18, 4
  13              		.thumb
  14              		.file	"pwm.c"
  15              		.text
  16              	.Ltext0:
  17              		.cfi_sections	.debug_frame
  18              		.section	.text.pwmInit,"ax",%progbits
  19              		.align	2
  20              		.global	pwmInit
  21              		.thumb
  22              		.thumb_func
  23              		.type	pwmInit, %function
  24              	pwmInit:
  25              	.LFB63:
  26              		.file 1 "../ChibiOS_2.6.4/os/hal/src/pwm.c"
  27              		.loc 1 68 0
  28              		.cfi_startproc
  29              		@ args = 0, pretend = 0, frame = 0
  30              		@ frame_needed = 0, uses_anonymous_args = 0
  31              		@ link register save eliminated.
  32              		.loc 1 70 0
  33 0000 FFF7FEBF 		b	pwm_lld_init
  34              	.LVL0:
  35              		.cfi_endproc
  36              	.LFE63:
  37              		.size	pwmInit, .-pwmInit
  38              		.section	.text.pwmObjectInit,"ax",%progbits
  39              		.align	2
  40              		.global	pwmObjectInit
  41              		.thumb
  42              		.thumb_func
  43              		.type	pwmObjectInit, %function
  44              	pwmObjectInit:
  45              	.LFB64:
  46              		.loc 1 80 0
  47              		.cfi_startproc
  48              		@ args = 0, pretend = 0, frame = 0
  49              		@ frame_needed = 0, uses_anonymous_args = 0
  50              		@ link register save eliminated.
  51              	.LVL1:
  52              		.loc 1 82 0
  53 0000 0122     		movs	r2, #1
  54              		.loc 1 83 0
  55 0002 0023     		movs	r3, #0
  56              		.loc 1 82 0
  57 0004 0270     		strb	r2, [r0]
ARM GAS  /tmp/ccOgoaRD.s 			page 2


  58              		.loc 1 83 0
  59 0006 4360     		str	r3, [r0, #4]
  60 0008 7047     		bx	lr
  61              		.cfi_endproc
  62              	.LFE64:
  63              		.size	pwmObjectInit, .-pwmObjectInit
  64 000a 00BF     		.section	.text.pwmStart,"ax",%progbits
  65              		.align	2
  66              		.global	pwmStart
  67              		.thumb
  68              		.thumb_func
  69              		.type	pwmStart, %function
  70              	pwmStart:
  71              	.LFB65:
  72              		.loc 1 99 0
  73              		.cfi_startproc
  74              		@ args = 0, pretend = 0, frame = 0
  75              		@ frame_needed = 0, uses_anonymous_args = 0
  76              	.LVL2:
  77 0000 10B5     		push	{r4, lr}
  78              		.cfi_def_cfa_offset 8
  79              		.cfi_offset 4, -8
  80              		.cfi_offset 14, -4
  81              	.LBB2:
  82              		.loc 1 103 0
  83 0002 2023     		movs	r3, #32
  84              	.LBE2:
  85              		.loc 1 99 0
  86 0004 0446     		mov	r4, r0
  87              	.LBB3:
  88              		.loc 1 103 0
  89              	@ 103 "../ChibiOS_2.6.4/os/hal/src/pwm.c" 1
  90 0006 83F31188 		msr     BASEPRI, r3
  91              	@ 0 "" 2
  92              		.thumb
  93              	.LBE3:
  94              		.loc 1 107 0
  95 000a 8B88     		ldrh	r3, [r1, #4]
  96              		.loc 1 106 0
  97 000c 4160     		str	r1, [r0, #4]
  98              		.loc 1 107 0
  99 000e 0381     		strh	r3, [r0, #8]	@ movhi
 100              		.loc 1 108 0
 101 0010 FFF7FEFF 		bl	pwm_lld_start
 102              	.LVL3:
 103              		.loc 1 109 0
 104 0014 0223     		movs	r3, #2
 105 0016 2370     		strb	r3, [r4]
 106              	.LBB4:
 107              		.loc 1 110 0
 108 0018 0023     		movs	r3, #0
 109              	@ 110 "../ChibiOS_2.6.4/os/hal/src/pwm.c" 1
 110 001a 83F31188 		msr     BASEPRI, r3
 111              	@ 0 "" 2
 112              		.thumb
 113 001e 10BD     		pop	{r4, pc}
 114              	.LBE4:
ARM GAS  /tmp/ccOgoaRD.s 			page 3


 115              		.cfi_endproc
 116              	.LFE65:
 117              		.size	pwmStart, .-pwmStart
 118              		.section	.text.pwmStop,"ax",%progbits
 119              		.align	2
 120              		.global	pwmStop
 121              		.thumb
 122              		.thumb_func
 123              		.type	pwmStop, %function
 124              	pwmStop:
 125              	.LFB66:
 126              		.loc 1 120 0
 127              		.cfi_startproc
 128              		@ args = 0, pretend = 0, frame = 0
 129              		@ frame_needed = 0, uses_anonymous_args = 0
 130              	.LVL4:
 131 0000 10B5     		push	{r4, lr}
 132              		.cfi_def_cfa_offset 8
 133              		.cfi_offset 4, -8
 134              		.cfi_offset 14, -4
 135              	.LBB5:
 136              		.loc 1 124 0
 137 0002 2023     		movs	r3, #32
 138              	.LBE5:
 139              		.loc 1 120 0
 140 0004 0446     		mov	r4, r0
 141              	.LBB6:
 142              		.loc 1 124 0
 143              	@ 124 "../ChibiOS_2.6.4/os/hal/src/pwm.c" 1
 144 0006 83F31188 		msr     BASEPRI, r3
 145              	@ 0 "" 2
 146              		.thumb
 147              	.LBE6:
 148              		.loc 1 127 0
 149 000a FFF7FEFF 		bl	pwm_lld_stop
 150              	.LVL5:
 151              		.loc 1 128 0
 152 000e 0123     		movs	r3, #1
 153 0010 2370     		strb	r3, [r4]
 154              	.LBB7:
 155              		.loc 1 129 0
 156 0012 0023     		movs	r3, #0
 157              	@ 129 "../ChibiOS_2.6.4/os/hal/src/pwm.c" 1
 158 0014 83F31188 		msr     BASEPRI, r3
 159              	@ 0 "" 2
 160              		.thumb
 161 0018 10BD     		pop	{r4, pc}
 162              	.LBE7:
 163              		.cfi_endproc
 164              	.LFE66:
 165              		.size	pwmStop, .-pwmStop
 166 001a 00BF     		.section	.text.pwmChangePeriod,"ax",%progbits
 167              		.align	2
 168              		.global	pwmChangePeriod
 169              		.thumb
 170              		.thumb_func
 171              		.type	pwmChangePeriod, %function
ARM GAS  /tmp/ccOgoaRD.s 			page 4


 172              	pwmChangePeriod:
 173              	.LFB67:
 174              		.loc 1 147 0
 175              		.cfi_startproc
 176              		@ args = 0, pretend = 0, frame = 0
 177              		@ frame_needed = 0, uses_anonymous_args = 0
 178              		@ link register save eliminated.
 179              	.LVL6:
 180 0000 10B4     		push	{r4}
 181              		.cfi_def_cfa_offset 4
 182              		.cfi_offset 4, -4
 183              	.LBB8:
 184              		.loc 1 151 0
 185 0002 2023     		movs	r3, #32
 186              	@ 151 "../ChibiOS_2.6.4/os/hal/src/pwm.c" 1
 187 0004 83F31188 		msr     BASEPRI, r3
 188              	@ 0 "" 2
 189              		.thumb
 190              	.LBE8:
 191              		.loc 1 154 0
 192 0008 4C1E     		subs	r4, r1, #1
 193 000a 0269     		ldr	r2, [r0, #16]
 194 000c A4B2     		uxth	r4, r4
 195 000e 0181     		strh	r1, [r0, #8]	@ movhi
 196              	.LBB9:
 197              		.loc 1 155 0
 198 0010 0023     		movs	r3, #0
 199              	.LBE9:
 200              		.loc 1 154 0
 201 0012 D462     		str	r4, [r2, #44]
 202              	.LBB10:
 203              		.loc 1 155 0
 204              	@ 155 "../ChibiOS_2.6.4/os/hal/src/pwm.c" 1
 205 0014 83F31188 		msr     BASEPRI, r3
 206              	@ 0 "" 2
 207              		.thumb
 208              	.LBE10:
 209              		.loc 1 156 0
 210 0018 5DF8044B 		ldr	r4, [sp], #4
 211 001c 7047     		bx	lr
 212              		.cfi_endproc
 213              	.LFE67:
 214              		.size	pwmChangePeriod, .-pwmChangePeriod
 215 001e 00BF     		.section	.text.pwmEnableChannel,"ax",%progbits
 216              		.align	2
 217              		.global	pwmEnableChannel
 218              		.thumb
 219              		.thumb_func
 220              		.type	pwmEnableChannel, %function
 221              	pwmEnableChannel:
 222              	.LFB68:
 223              		.loc 1 174 0
 224              		.cfi_startproc
 225              		@ args = 0, pretend = 0, frame = 0
 226              		@ frame_needed = 0, uses_anonymous_args = 0
 227              	.LVL7:
 228 0000 08B5     		push	{r3, lr}
ARM GAS  /tmp/ccOgoaRD.s 			page 5


 229              		.cfi_def_cfa_offset 8
 230              		.cfi_offset 3, -8
 231              		.cfi_offset 14, -4
 232              	.LBB11:
 233              		.loc 1 179 0
 234 0002 2023     		movs	r3, #32
 235              	@ 179 "../ChibiOS_2.6.4/os/hal/src/pwm.c" 1
 236 0004 83F31188 		msr     BASEPRI, r3
 237              	@ 0 "" 2
 238              		.thumb
 239              	.LBE11:
 240              		.loc 1 182 0
 241 0008 FFF7FEFF 		bl	pwm_lld_enable_channel
 242              	.LVL8:
 243              	.LBB12:
 244              		.loc 1 183 0
 245 000c 0023     		movs	r3, #0
 246              	@ 183 "../ChibiOS_2.6.4/os/hal/src/pwm.c" 1
 247 000e 83F31188 		msr     BASEPRI, r3
 248              	@ 0 "" 2
 249              		.thumb
 250 0012 08BD     		pop	{r3, pc}
 251              	.LBE12:
 252              		.cfi_endproc
 253              	.LFE68:
 254              		.size	pwmEnableChannel, .-pwmEnableChannel
 255              		.section	.text.pwmDisableChannel,"ax",%progbits
 256              		.align	2
 257              		.global	pwmDisableChannel
 258              		.thumb
 259              		.thumb_func
 260              		.type	pwmDisableChannel, %function
 261              	pwmDisableChannel:
 262              	.LFB69:
 263              		.loc 1 200 0
 264              		.cfi_startproc
 265              		@ args = 0, pretend = 0, frame = 0
 266              		@ frame_needed = 0, uses_anonymous_args = 0
 267              	.LVL9:
 268 0000 08B5     		push	{r3, lr}
 269              		.cfi_def_cfa_offset 8
 270              		.cfi_offset 3, -8
 271              		.cfi_offset 14, -4
 272              	.LBB13:
 273              		.loc 1 205 0
 274 0002 2023     		movs	r3, #32
 275              	@ 205 "../ChibiOS_2.6.4/os/hal/src/pwm.c" 1
 276 0004 83F31188 		msr     BASEPRI, r3
 277              	@ 0 "" 2
 278              		.thumb
 279              	.LBE13:
 280              		.loc 1 208 0
 281 0008 FFF7FEFF 		bl	pwm_lld_disable_channel
 282              	.LVL10:
 283              	.LBB14:
 284              		.loc 1 209 0
 285 000c 0023     		movs	r3, #0
ARM GAS  /tmp/ccOgoaRD.s 			page 6


 286              	@ 209 "../ChibiOS_2.6.4/os/hal/src/pwm.c" 1
 287 000e 83F31188 		msr     BASEPRI, r3
 288              	@ 0 "" 2
 289              		.thumb
 290 0012 08BD     		pop	{r3, pc}
 291              	.LBE14:
 292              		.cfi_endproc
 293              	.LFE69:
 294              		.size	pwmDisableChannel, .-pwmDisableChannel
 295              		.text
 296              	.Letext0:
 297              		.file 2 "/usr/include/newlib/machine/_default_types.h"
 298              		.file 3 "/usr/include/newlib/stdint.h"
 299              		.file 4 "../ChibiOS_2.6.4/os/hal/include/pwm.h"
 300              		.file 5 "../ChibiOS_2.6.4/os/hal/platforms/STM32/TIMv1/pwm_lld.h"
 301              		.file 6 "../ChibiOS_2.6.4/os/hal/platforms/STM32/TIMv1/stm32_tim.h"
 302              		.file 7 "../ChibiOS_2.6.4/os/ports/common/ARMCMx/CMSIS/include/core_cm3.h"