ARM GAS  /tmp/ccVE7kKv.s 			page 1


   1              		.syntax unified
   2              		.cpu cortex-m3
   3              		.fpu softvfp
   4              		.eabi_attribute 20, 1
   5              		.eabi_attribute 21, 1
   6              		.eabi_attribute 23, 3
   7              		.eabi_attribute 24, 1
   8              		.eabi_attribute 25, 1
   9              		.eabi_attribute 26, 1
  10              		.eabi_attribute 30, 2
  11              		.eabi_attribute 34, 1
  12              		.eabi_attribute 18, 4
  13              		.thumb
  14              		.file	"pwm_lld.c"
  15              		.text
  16              	.Ltext0:
  17              		.cfi_sections	.debug_frame
  18              		.section	.text.VectorB8,"ax",%progbits
  19              		.align	2
  20              		.global	VectorB8
  21              		.thumb
  22              		.thumb_func
  23              		.type	VectorB8, %function
  24              	VectorB8:
  25              	.LFB64:
  26              		.file 1 "../ChibiOS_2.6.4/os/hal/platforms/STM32/TIMv1/pwm_lld.c"
  27              		.loc 1 235 0
  28              		.cfi_startproc
  29              		@ args = 0, pretend = 0, frame = 0
  30              		@ frame_needed = 0, uses_anonymous_args = 0
  31              	.LVL0:
  32 0000 38B5     		push	{r3, r4, r5, lr}
  33              		.cfi_def_cfa_offset 16
  34              		.cfi_offset 3, -16
  35              		.cfi_offset 4, -12
  36              		.cfi_offset 5, -8
  37              		.cfi_offset 14, -4
  38              	.LBB4:
  39              	.LBB5:
  40              		.loc 1 115 0
  41 0002 40F20005 		movw	r5, #:lower16:.LANCHOR0
  42 0006 C0F20005 		movt	r5, #:upper16:.LANCHOR0
  43 000a 2B69     		ldr	r3, [r5, #16]
  44 000c 1A69     		ldr	r2, [r3, #16]
  45              	.LVL1:
  46              		.loc 1 116 0
  47 000e DC68     		ldr	r4, [r3, #12]
  48 0010 1440     		ands	r4, r4, r2
  49 0012 A4B2     		uxth	r4, r4
  50              	.LVL2:
  51              		.loc 1 117 0
  52 0014 E2B2     		uxtb	r2, r4
  53 0016 D243     		mvns	r2, r2
  54 0018 1A61     		str	r2, [r3, #16]
  55              		.loc 1 118 0
  56 001a A307     		lsls	r3, r4, #30
  57 001c 2AD4     		bmi	.L23
ARM GAS  /tmp/ccVE7kKv.s 			page 2


  58              	.L2:
  59              		.loc 1 120 0
  60 001e 6007     		lsls	r0, r4, #29
  61 0020 20D4     		bmi	.L24
  62              	.L3:
  63              		.loc 1 122 0
  64 0022 2107     		lsls	r1, r4, #28
  65 0024 16D4     		bmi	.L25
  66              	.L4:
  67              		.loc 1 124 0
  68 0026 E206     		lsls	r2, r4, #27
  69 0028 0CD4     		bmi	.L26
  70              	.L5:
  71              		.loc 1 126 0
  72 002a E307     		lsls	r3, r4, #31
  73 002c 06D5     		bpl	.L6
  74              		.loc 1 127 0
  75 002e 6B68     		ldr	r3, [r5, #4]
  76 0030 40F20000 		movw	r0, #:lower16:.LANCHOR0
  77 0034 9B68     		ldr	r3, [r3, #8]
  78 0036 C0F20000 		movt	r0, #:upper16:.LANCHOR0
  79 003a 9847     		blx	r3
  80              	.LVL3:
  81              	.L6:
  82              	.LBE5:
  83              	.LBE4:
  84              		.loc 1 242 0
  85 003c BDE83840 		pop	{r3, r4, r5, lr}
  86              	.LVL4:
  87              		.loc 1 241 0
  88 0040 FFF7FEBF 		b	_port_irq_epilogue
  89              	.LVL5:
  90              	.L26:
  91              	.LBB7:
  92              	.LBB6:
  93              		.loc 1 125 0
  94 0044 6B68     		ldr	r3, [r5, #4]
  95 0046 40F20000 		movw	r0, #:lower16:.LANCHOR0
  96 004a 9B6A     		ldr	r3, [r3, #40]
  97 004c C0F20000 		movt	r0, #:upper16:.LANCHOR0
  98 0050 9847     		blx	r3
  99              	.LVL6:
 100 0052 EAE7     		b	.L5
 101              	.L25:
 102              		.loc 1 123 0
 103 0054 6B68     		ldr	r3, [r5, #4]
 104 0056 40F20000 		movw	r0, #:lower16:.LANCHOR0
 105 005a 1B6A     		ldr	r3, [r3, #32]
 106 005c C0F20000 		movt	r0, #:upper16:.LANCHOR0
 107 0060 9847     		blx	r3
 108              	.LVL7:
 109 0062 E0E7     		b	.L4
 110              	.L24:
 111              		.loc 1 121 0
 112 0064 6B68     		ldr	r3, [r5, #4]
 113 0066 40F20000 		movw	r0, #:lower16:.LANCHOR0
 114 006a 9B69     		ldr	r3, [r3, #24]
ARM GAS  /tmp/ccVE7kKv.s 			page 3


 115 006c C0F20000 		movt	r0, #:upper16:.LANCHOR0
 116 0070 9847     		blx	r3
 117              	.LVL8:
 118 0072 D6E7     		b	.L3
 119              	.L23:
 120              		.loc 1 119 0
 121 0074 6B68     		ldr	r3, [r5, #4]
 122 0076 2846     		mov	r0, r5
 123 0078 1B69     		ldr	r3, [r3, #16]
 124 007a 9847     		blx	r3
 125              	.LVL9:
 126 007c CFE7     		b	.L2
 127              	.LBE6:
 128              	.LBE7:
 129              		.cfi_endproc
 130              	.LFE64:
 131              		.size	VectorB8, .-VectorB8
 132 007e 00BF     		.section	.text.pwm_lld_init,"ax",%progbits
 133              		.align	2
 134              		.global	pwm_lld_init
 135              		.thumb
 136              		.thumb_func
 137              		.type	pwm_lld_init, %function
 138              	pwm_lld_init:
 139              	.LFB65:
 140              		.loc 1 345 0
 141              		.cfi_startproc
 142              		@ args = 0, pretend = 0, frame = 0
 143              		@ frame_needed = 0, uses_anonymous_args = 0
 144 0000 10B5     		push	{r4, lr}
 145              		.cfi_def_cfa_offset 8
 146              		.cfi_offset 4, -8
 147              		.cfi_offset 14, -4
 148              		.loc 1 367 0
 149 0002 40F20004 		movw	r4, #:lower16:.LANCHOR0
 150 0006 C0F20004 		movt	r4, #:upper16:.LANCHOR0
 151 000a 2046     		mov	r0, r4
 152 000c FFF7FEFF 		bl	pwmObjectInit
 153              	.LVL10:
 154              		.loc 1 368 0
 155 0010 4FF40063 		mov	r3, #2048
 156 0014 C4F20003 		movt	r3, 16384
 157 0018 2361     		str	r3, [r4, #16]
 158 001a 10BD     		pop	{r4, pc}
 159              		.cfi_endproc
 160              	.LFE65:
 161              		.size	pwm_lld_init, .-pwm_lld_init
 162              		.section	.text.pwm_lld_start,"ax",%progbits
 163              		.align	2
 164              		.global	pwm_lld_start
 165              		.thumb
 166              		.thumb_func
 167              		.type	pwm_lld_start, %function
 168              	pwm_lld_start:
 169              	.LFB66:
 170              		.loc 1 399 0
 171              		.cfi_startproc
ARM GAS  /tmp/ccVE7kKv.s 			page 4


 172              		@ args = 0, pretend = 0, frame = 0
 173              		@ frame_needed = 0, uses_anonymous_args = 0
 174              	.LVL11:
 175 0000 38B5     		push	{r3, r4, r5, lr}
 176              		.cfi_def_cfa_offset 16
 177              		.cfi_offset 3, -16
 178              		.cfi_offset 4, -12
 179              		.cfi_offset 5, -8
 180              		.cfi_offset 14, -4
 181              		.loc 1 403 0
 182 0002 0378     		ldrb	r3, [r0]	@ zero_extendqisi2
 183              		.loc 1 399 0
 184 0004 0446     		mov	r4, r0
 185              		.loc 1 403 0
 186 0006 012B     		cmp	r3, #1
 187 0008 56D0     		beq	.L55
 188              		.loc 1 492 0
 189 000a 4268     		ldr	r2, [r0, #4]
 190              		.loc 1 491 0
 191 000c 0369     		ldr	r3, [r0, #16]
 192              		.loc 1 492 0
 193 000e 106B     		ldr	r0, [r2, #48]
 194              	.LVL12:
 195              		.loc 1 491 0
 196 0010 0021     		movs	r1, #0
 197              		.loc 1 492 0
 198 0012 20F0FF00 		bic	r0, r0, #255
 199              		.loc 1 491 0
 200 0016 1960     		str	r1, [r3]
 201              		.loc 1 492 0
 202 0018 D860     		str	r0, [r3, #12]
 203              		.loc 1 494 0
 204 001a 1961     		str	r1, [r3, #16]
 205              		.loc 1 495 0
 206 001c 5963     		str	r1, [r3, #52]
 207              		.loc 1 496 0
 208 001e 9963     		str	r1, [r3, #56]
 209              		.loc 1 497 0
 210 0020 D963     		str	r1, [r3, #60]
 211              		.loc 1 498 0
 212 0022 1964     		str	r1, [r3, #64]
 213              		.loc 1 499 0
 214 0024 5962     		str	r1, [r3, #36]
 215              	.L31:
 216              	.LVL13:
 217              		.loc 1 503 0
 218 0026 E568     		ldr	r5, [r4, #12]
 219 0028 1168     		ldr	r1, [r2]
 220              		.loc 1 508 0
 221 002a 2489     		ldrh	r4, [r4, #8]
 222              	.LVL14:
 223              		.loc 1 503 0
 224 002c B5FBF1F5 		udiv	r5, r5, r1
 225              	.LVL15:
 226              		.loc 1 513 0
 227 0030 D168     		ldr	r1, [r2, #12]
 228              		.loc 1 509 0
ARM GAS  /tmp/ccVE7kKv.s 			page 5


 229 0032 D06A     		ldr	r0, [r2, #44]
 230              		.loc 1 508 0
 231 0034 013C     		subs	r4, r4, #1
 232              		.loc 1 503 0
 233 0036 013D     		subs	r5, r5, #1
 234              	.LVL16:
 235              		.loc 1 513 0
 236 0038 01F00F01 		and	r1, r1, #15
 237              		.loc 1 508 0
 238 003c A4B2     		uxth	r4, r4
 239              		.loc 1 507 0
 240 003e ADB2     		uxth	r5, r5
 241              	.LVL17:
 242              		.loc 1 513 0
 243 0040 0129     		cmp	r1, #1
 244              		.loc 1 507 0
 245 0042 9D62     		str	r5, [r3, #40]
 246              	.LVL18:
 247              		.loc 1 508 0
 248 0044 DC62     		str	r4, [r3, #44]
 249              		.loc 1 509 0
 250 0046 5860     		str	r0, [r3, #4]
 251              	.LVL19:
 252              		.loc 1 513 0
 253 0048 03D0     		beq	.L32
 254              		.loc 1 512 0
 255 004a 0229     		cmp	r1, #2
 256 004c 0CBF     		ite	eq
 257 004e 0321     		moveq	r1, #3
 258 0050 0021     		movne	r1, #0
 259              	.L32:
 260              	.LVL20:
 261              		.loc 1 521 0
 262 0052 5069     		ldr	r0, [r2, #20]
 263 0054 00F00F00 		and	r0, r0, #15
 264 0058 0128     		cmp	r0, #1
 265 005a 2AD0     		beq	.L36
 266 005c 0228     		cmp	r0, #2
 267 005e 26D0     		beq	.L56
 268              	.LVL21:
 269              	.L35:
 270              		.loc 1 529 0
 271 0060 D069     		ldr	r0, [r2, #28]
 272 0062 00F00F00 		and	r0, r0, #15
 273 0066 0128     		cmp	r0, #1
 274 0068 1ED0     		beq	.L39
 275 006a 0228     		cmp	r0, #2
 276 006c 1AD0     		beq	.L57
 277              	.LVL22:
 278              	.L38:
 279              		.loc 1 537 0
 280 006e 506A     		ldr	r0, [r2, #36]
 281 0070 00F00F00 		and	r0, r0, #15
 282 0074 0128     		cmp	r0, #1
 283 0076 03D0     		beq	.L42
 284 0078 0228     		cmp	r0, #2
 285 007a 03D1     		bne	.L41
ARM GAS  /tmp/ccVE7kKv.s 			page 6


 286              		.loc 1 539 0
 287 007c 41F40051 		orr	r1, r1, #8192
 288              	.LVL23:
 289              	.L42:
 290              		.loc 1 541 0
 291 0080 41F48051 		orr	r1, r1, #4096
 292              	.LVL24:
 293              	.L41:
 294              		.loc 1 583 0
 295 0084 0120     		movs	r0, #1
 296              		.loc 1 582 0
 297 0086 1962     		str	r1, [r3, #32]
 298              		.loc 1 583 0
 299 0088 5861     		str	r0, [r3, #20]
 300              		.loc 1 584 0
 301 008a 9068     		ldr	r0, [r2, #8]
 302 008c DA68     		ldr	r2, [r3, #12]
 303              		.loc 1 585 0
 304 008e 0021     		movs	r1, #0
 305              	.LVL25:
 306              		.loc 1 584 0
 307 0090 8842     		cmp	r0, r1
 308 0092 0CBF     		ite	eq
 309 0094 1046     		moveq	r0, r2
 310 0096 42F00100 		orrne	r0, r2, #1
 311              		.loc 1 594 0
 312 009a 8522     		movs	r2, #133
 313              		.loc 1 584 0
 314 009c D860     		str	r0, [r3, #12]
 315              		.loc 1 585 0
 316 009e 1961     		str	r1, [r3, #16]
 317              		.loc 1 594 0
 318 00a0 1A60     		str	r2, [r3]
 319 00a2 38BD     		pop	{r3, r4, r5, pc}
 320              	.LVL26:
 321              	.L57:
 322              		.loc 1 531 0
 323 00a4 41F40071 		orr	r1, r1, #512
 324              	.LVL27:
 325              	.L39:
 326              		.loc 1 533 0
 327 00a8 41F48071 		orr	r1, r1, #256
 328              	.LVL28:
 329 00ac DFE7     		b	.L38
 330              	.L56:
 331              		.loc 1 523 0
 332 00ae 41F02001 		orr	r1, r1, #32
 333              	.LVL29:
 334              	.L36:
 335              		.loc 1 525 0
 336 00b2 41F01001 		orr	r1, r1, #16
 337              	.LVL30:
 338 00b6 D3E7     		b	.L35
 339              	.LVL31:
 340              	.L55:
 341              		.loc 1 439 0
 342 00b8 40F20003 		movw	r3, #:lower16:.LANCHOR0
ARM GAS  /tmp/ccVE7kKv.s 			page 7


 343 00bc C0F20003 		movt	r3, #:upper16:.LANCHOR0
 344 00c0 9842     		cmp	r0, r3
 345 00c2 06D0     		beq	.L58
 346              	.LVL32:
 347              	.L30:
 348              		.loc 1 484 0
 349 00c4 2369     		ldr	r3, [r4, #16]
 350 00c6 46F66801 		movw	r1, #26728
 351 00ca 9961     		str	r1, [r3, #24]
 352 00cc 6268     		ldr	r2, [r4, #4]
 353              		.loc 1 486 0
 354 00ce D961     		str	r1, [r3, #28]
 355 00d0 A9E7     		b	.L31
 356              	.LVL33:
 357              	.L58:
 358              		.loc 1 440 0
 359 00d2 4FF46053 		mov	r3, #14336
 360 00d6 C4F20203 		movt	r3, 16386
 361 00da 596A     		ldr	r1, [r3, #36]
 362              		.loc 1 441 0
 363 00dc 0022     		movs	r2, #0
 364              		.loc 1 440 0
 365 00de 41F00401 		orr	r1, r1, #4
 366 00e2 5962     		str	r1, [r3, #36]
 367              		.loc 1 441 0
 368 00e4 9969     		ldr	r1, [r3, #24]
 369              		.loc 1 442 0
 370 00e6 1E20     		movs	r0, #30
 371              	.LVL34:
 372              		.loc 1 441 0
 373 00e8 41F00401 		orr	r1, r1, #4
 374 00ec 9961     		str	r1, [r3, #24]
 375 00ee 9A61     		str	r2, [r3, #24]
 376              		.loc 1 442 0
 377 00f0 7021     		movs	r1, #112
 378 00f2 FFF7FEFF 		bl	nvicEnableVector
 379              	.LVL35:
 380              		.loc 1 444 0
 381 00f6 4FF49043 		mov	r3, #18432
 382 00fa C0F2E813 		movt	r3, 488
 383 00fe E360     		str	r3, [r4, #12]
 384 0100 E0E7     		b	.L30
 385              		.cfi_endproc
 386              	.LFE66:
 387              		.size	pwm_lld_start, .-pwm_lld_start
 388 0102 00BF     		.section	.text.pwm_lld_stop,"ax",%progbits
 389              		.align	2
 390              		.global	pwm_lld_stop
 391              		.thumb
 392              		.thumb_func
 393              		.type	pwm_lld_stop, %function
 394              	pwm_lld_stop:
 395              	.LFB67:
 396              		.loc 1 605 0
 397              		.cfi_startproc
 398              		@ args = 0, pretend = 0, frame = 0
 399              		@ frame_needed = 0, uses_anonymous_args = 0
ARM GAS  /tmp/ccVE7kKv.s 			page 8


 400              	.LVL36:
 401 0000 08B5     		push	{r3, lr}
 402              		.cfi_def_cfa_offset 8
 403              		.cfi_offset 3, -8
 404              		.cfi_offset 14, -4
 405              		.loc 1 608 0
 406 0002 0378     		ldrb	r3, [r0]	@ zero_extendqisi2
 407 0004 022B     		cmp	r3, #2
 408 0006 00D0     		beq	.L63
 409              	.LVL37:
 410              	.L59:
 411 0008 08BD     		pop	{r3, pc}
 412              	.LVL38:
 413              	.L63:
 414              		.loc 1 636 0
 415 000a 40F20003 		movw	r3, #:lower16:.LANCHOR0
 416              		.loc 1 609 0
 417 000e 0269     		ldr	r2, [r0, #16]
 418              		.loc 1 636 0
 419 0010 C0F20003 		movt	r3, #:upper16:.LANCHOR0
 420              		.loc 1 609 0
 421 0014 0021     		movs	r1, #0
 422              		.loc 1 636 0
 423 0016 9842     		cmp	r0, r3
 424              		.loc 1 609 0
 425 0018 1160     		str	r1, [r2]
 426              		.loc 1 610 0
 427 001a D160     		str	r1, [r2, #12]
 428              		.loc 1 611 0
 429 001c 1161     		str	r1, [r2, #16]
 430              		.loc 1 636 0
 431 001e F3D1     		bne	.L59
 432              		.loc 1 637 0
 433 0020 1E20     		movs	r0, #30
 434              	.LVL39:
 435 0022 FFF7FEFF 		bl	nvicDisableVector
 436              	.LVL40:
 437              		.loc 1 638 0
 438 0026 4FF46053 		mov	r3, #14336
 439 002a C4F20203 		movt	r3, 16386
 440 002e 5A6A     		ldr	r2, [r3, #36]
 441 0030 22F00402 		bic	r2, r2, #4
 442 0034 5A62     		str	r2, [r3, #36]
 443 0036 E7E7     		b	.L59
 444              		.cfi_endproc
 445              	.LFE67:
 446              		.size	pwm_lld_stop, .-pwm_lld_stop
 447              		.section	.text.pwm_lld_enable_channel,"ax",%progbits
 448              		.align	2
 449              		.global	pwm_lld_enable_channel
 450              		.thumb
 451              		.thumb_func
 452              		.type	pwm_lld_enable_channel, %function
 453              	pwm_lld_enable_channel:
 454              	.LFB68:
 455              		.loc 1 677 0
 456              		.cfi_startproc
ARM GAS  /tmp/ccVE7kKv.s 			page 9


 457              		@ args = 0, pretend = 0, frame = 0
 458              		@ frame_needed = 0, uses_anonymous_args = 0
 459              		@ link register save eliminated.
 460              	.LVL41:
 461 0000 10B4     		push	{r4}
 462              		.cfi_def_cfa_offset 4
 463              		.cfi_offset 4, -4
 464              		.loc 1 682 0
 465 0002 4468     		ldr	r4, [r0, #4]
 466              		.loc 1 679 0
 467 0004 0369     		ldr	r3, [r0, #16]
 468              		.loc 1 682 0
 469 0006 04EBC104 		add	r4, r4, r1, lsl #3
 470 000a 2069     		ldr	r0, [r4, #16]
 471              	.LVL42:
 472              		.loc 1 679 0
 473 000c 01F10C04 		add	r4, r1, #12
 474 0010 03EB8404 		add	r4, r3, r4, lsl #2
 475 0014 6260     		str	r2, [r4, #4]
 476              		.loc 1 682 0
 477 0016 48B1     		cbz	r0, .L64
 478              	.LBB8:
 479              		.loc 1 686 0
 480 0018 0222     		movs	r2, #2
 481              	.LVL43:
 482 001a 02FA01F1 		lsl	r1, r2, r1
 483              	.LVL44:
 484              		.loc 1 683 0
 485 001e DA68     		ldr	r2, [r3, #12]
 486              	.LVL45:
 487              		.loc 1 686 0
 488 0020 1142     		tst	r1, r2
 489              		.loc 1 687 0
 490 0022 01BF     		itttt	eq
 491 0024 0A43     		orreq	r2, r1, r2
 492              	.LVL46:
 493              		.loc 1 688 0
 494 0026 C943     		mvneq	r1, r1
 495              		.loc 1 687 0
 496 0028 DA60     		streq	r2, [r3, #12]
 497              		.loc 1 688 0
 498 002a 1961     		streq	r1, [r3, #16]
 499              	.L64:
 500              	.LBE8:
 501              		.loc 1 691 0
 502 002c 5DF8044B 		ldr	r4, [sp], #4
 503 0030 7047     		bx	lr
 504              		.cfi_endproc
 505              	.LFE68:
 506              		.size	pwm_lld_enable_channel, .-pwm_lld_enable_channel
 507 0032 00BF     		.section	.text.pwm_lld_disable_channel,"ax",%progbits
 508              		.align	2
 509              		.global	pwm_lld_disable_channel
 510              		.thumb
 511              		.thumb_func
 512              		.type	pwm_lld_disable_channel, %function
 513              	pwm_lld_disable_channel:
ARM GAS  /tmp/ccVE7kKv.s 			page 10


 514              	.LFB69:
 515              		.loc 1 705 0
 516              		.cfi_startproc
 517              		@ args = 0, pretend = 0, frame = 0
 518              		@ frame_needed = 0, uses_anonymous_args = 0
 519              		@ link register save eliminated.
 520              	.LVL47:
 521              		.loc 1 708 0
 522 0000 0222     		movs	r2, #2
 523 0002 8A40     		lsls	r2, r2, r1
 524              		.loc 1 707 0
 525 0004 0369     		ldr	r3, [r0, #16]
 526 0006 0C31     		adds	r1, r1, #12
 527              	.LVL48:
 528 0008 03EB8101 		add	r1, r3, r1, lsl #2
 529 000c 0020     		movs	r0, #0
 530              	.LVL49:
 531 000e 4860     		str	r0, [r1, #4]
 532              		.loc 1 708 0
 533 0010 D968     		ldr	r1, [r3, #12]
 534 0012 21EA0202 		bic	r2, r1, r2
 535 0016 DA60     		str	r2, [r3, #12]
 536 0018 7047     		bx	lr
 537              		.cfi_endproc
 538              	.LFE69:
 539              		.size	pwm_lld_disable_channel, .-pwm_lld_disable_channel
 540              		.global	PWMD4
 541 001a 00BF     		.section	.bss.PWMD4,"aw",%nobits
 542              		.align	2
 543              		.set	.LANCHOR0,. + 0
 544              		.type	PWMD4, %object
 545              		.size	PWMD4, 20
 546              	PWMD4:
 547 0000 00000000 		.space	20
 547      00000000 
 547      00000000 
 547      00000000 
 547      00000000 
 548              		.text
 549              	.Letext0:
 550              		.file 2 "/usr/include/newlib/machine/_default_types.h"
 551              		.file 3 "/usr/include/newlib/stdint.h"
 552              		.file 4 "../ChibiOS_2.6.4/os/hal/platforms/STM32L1xx/stm32l1xx.h"
 553              		.file 5 "../ChibiOS_2.6.4/os/hal/include/pwm.h"
 554              		.file 6 "../ChibiOS_2.6.4/os/hal/platforms/STM32/TIMv1/pwm_lld.h"
 555              		.file 7 "../ChibiOS_2.6.4/os/hal/platforms/STM32/TIMv1/stm32_tim.h"
 556              		.file 8 "../ChibiOS_2.6.4/os/ports/common/ARMCMx/CMSIS/include/core_cm3.h"
 557              		.file 9 "../ChibiOS_2.6.4/os/ports/common/ARMCMx/nvic.h"
 558              		.file 10 "../ChibiOS_2.6.4/os/ports/GCC/ARMCMx/chcore_v7m.h"