ARM GAS  /tmp/ccVE7kKv.s 			page 1


   1              		.syntax unified
   2              		.cpu cortex-m3
   3              		.fpu softvfp
   4              		.eabi_attribute 20, 1
   5              		.eabi_attribute 21, 1
   6              		.eabi_attribute 23, 3
   7              		.eabi_attribute 24, 1
   8              		.eabi_attribute 25, 1
   9              		.eabi_attribute 26, 1
  10              		.eabi_attribute 30, 2
  11              		.eabi_attribute 34, 1
  12              		.eabi_attribute 18, 4
  13              		.thumb
  14              		.file	"pwm_lld.c"
  15              		.text
  16              	.Ltext0:
  17              		.cfi_sections	.debug_frame
  18              		.section	.text.VectorB8,"ax",%progbits
  19              		.align	2
  20              		.global	VectorB8
  21              		.thumb
  22              		.thumb_func
  23              		.type	VectorB8, %function
  24              	VectorB8:
  25              	.LFB64:
  26              		.file 1 "../ChibiOS_2.6.4/os/hal/platforms/STM32/TIMv1/pwm_lld.c"
  27              		.loc 1 235 0
  28              		.cfi_startproc
  29              		@ args = 0, pretend = 0, frame = 0
  30              		@ frame_needed = 0, uses_anonymous_args = 0
  31              	.LVL0:
  32 0000 38B5     		push	{r3, r4, r5, lr}
  33              		.cfi_def_cfa_offset 16
  34              		.cfi_offset 3, -16
  35              		.cfi_offset 4, -12
  36              		.cfi_offset 5, -8
  37              		.cfi_offset 14, -4
  38              	.LBB4:
  39              	.LBB5:
  40              		.loc 1 115 0
  41 0002 40F20005 		movw	r5, #:lower16:.LANCHOR0
  42 0006 C0F20005 		movt	r5, #:upper16:.LANCHOR0
  43 000a 2B69     		ldr	r3, [r5, #16]
  44 000c 1A69     		ldr	r2, [r3, #16]
  45              	.LVL1:
  46              		.loc 1 116 0
  47 000e DC68     		ldr	r4, [r3, #12]
  48 0010 1440     		ands	r4, r4, r2
  49 0012 A4B2     		uxth	r4, r4
  50              	.LVL2:
  51              		.loc 1 117 0
  52 0014 E2B2     		uxtb	r2, r4
  53 0016 D243     		mvns	r2, r2
  54 0018 1A61     		str	r2, [r3, #16]
  55              		.loc 1 118 0
  56 001a A307     		lsls	r3, r4, #30
  57 001c 2AD4     		bmi	.L23
ARM GAS  /tmp/ccVE7kKv.s 			page 2


  58              	.L2:
  59              		.loc 1 120 0
  60 001e 6007     		lsls	r0, r4, #29
  61 0020 20D4     		bmi	.L24
  62              	.L3:
  63              		.loc 1 122 0
  64 0022 2107     		lsls	r1, r4, #28
  65 0024 16D4     		bmi	.L25
  66              	.L4:
  67              		.loc 1 124 0
  68 0026 E206     		lsls	r2, r4, #27
  69 0028 0CD4     		bmi	.L26
  70              	.L5:
  71              		.loc 1 126 0
  72 002a E307     		lsls	r3, r4, #31
  73 002c 06D5     		bpl	.L6
  74              		.loc 1 127 0
  75 002e 6B68     		ldr	r3, [r5, #4]
  76 0030 40F20000 		movw	r0, #:lower16:.LANCHOR0
  77 0034 9B68     		ldr	r3, [r3, #8]
  78 0036 C0F20000 		movt	r0, #:upper16:.LANCHOR0
  79 003a 9847     		blx	r3
  80              	.LVL3:
  81              	.L6:
  82              	.LBE5:
  83              	.LBE4:
  84              		.loc 1 242 0
  85 003c BDE83840 		pop	{r3, r4, r5, lr}
  86              	.LVL4:
  87              		.loc 1 241 0
  88 0040 FFF7FEBF 		b	_port_irq_epilogue
  89              	.LVL5:
  90              	.L26:
  91              	.LBB7:
  92              	.LBB6:
  93              		.loc 1 125 0
  94 0044 6B68     		ldr	r3, [r5, #4]
  95 0046 40F20000 		movw	r0, #:lower16:.LANCHOR0
  96 004a 9B6A     		ldr	r3, [r3, #40]
  97 004c C0F20000 		movt	r0, #:upper16:.LANCHOR0
  98 0050 9847     		blx	r3
  99              	.LVL6:
 100 0052 EAE7     		b	.L5
 101              	.L25:
 102              		.loc 1 123 0
 103 0054 6B68     		ldr	r3, [r5, #4]
 104 0056 40F20000 		movw	r0, #:lower16:.LANCHOR0
 105 005a 1B6A     		ldr	r3, [r3, #32]
 106 005c C0F20000 		movt	r0, #:upper16:.LANCHOR0
 107 0060 9847     		blx	r3
 108              	.LVL7:
 109 0062 E0E7     		b	.L4
 110              	.L24:
 111              		.loc 1 121 0
 112 0064 6B68     		ldr	r3, [r5, #4]
 113 0066 40F20000 		movw	r0, #:lower16:.LANCHOR0
 114 006a 9B69     		ldr	r3, [r3, #24]
ARM GAS  /tmp/ccVE7kKv.s 			page 3


 115 006c C0F20000 		movt	r0, #:upper16:.LANCHOR0
 116 0070 9847     		blx	r3
 117              	.LVL8:
 118 0072 D6E7     		b	.L3
 119              	.L23:
 120              		.loc 1 119 0
 121 0074 6B68     		ldr	r3, [r5, #4]
 122 0076 2846     		mov	r0, r5
 123 0078 1B69     		ldr	r3, [r3, #16]
 124 007a 9847     		blx	r3
 125              	.LVL9:
 126 007c CFE7     		b	.L2
 127              	.LBE6:
 128              	.LBE7:
 129              		.cfi_endproc
 130              	.LFE64:
 131              		.size	VectorB8, .-VectorB8
 132 007e 00BF     		.section	.text.pwm_lld_init,"ax",%progbits
 133              		.align	2
 134              		.global	pwm_lld_init
 135              		.thumb
 136              		.thumb_func
 137              		.type	pwm_lld_init, %function
 138              	pwm_lld_init:
 139              	.LFB65:
 140              		.loc 1 345 0
 141              		.cfi_startproc
 142              		@ args = 0, pretend = 0, frame = 0
 143              		@ frame_needed = 0, uses_anonymous_args = 0
 144 0000 10B5     		push	{r4, lr}
 145              		.cfi_def_cfa_offset 8
 146              		.cfi_offset 4, -8
 147              		.cfi_offset 14, -4
 148              		.loc 1 367 0
 149 0002 40F20004 		movw	r4, #:lower16:.LANCHOR0
 150 0006 C0F20004 		movt	r4, #:upper16:.LANCHOR0
 151 000a 2046     		mov	r0, r4
 152 000c FFF7FEFF 		bl	pwmObjectInit
 153              	.LVL10:
 154              		.loc 1 368 0
 155 0010 4FF40063 		mov	r3, #2048
 156 0014 C4F20003 		movt	r3, 16384
 157 0018 2361     		str	r3, [r4, #16]
 158 001a 10BD     		pop	{r4, pc}
 159              		.cfi_endproc
 160              	.LFE65:
 161              		.size	pwm_lld_init, .-pwm_lld_init
 162              		.section	.text.pwm_lld_start,"ax",%progbits
 163              		.align	2
 164              		.global	pwm_lld_start
 165              		.thumb
 166              		.thumb_func
 167              		.type	pwm_lld_start, %function
 168              	pwm_lld_start:
 169              	.LFB66:
 170              		.loc 1 399 0
 171              		.cfi_startproc
ARM GAS  /tmp/ccVE7kKv.s 			page 4


 172              		@ args = 0, pretend = 0, frame = 0
 173              		@ frame_needed = 0, uses_anonymous_args = 0
 174              	.LVL11:
 175 0000 38B5     		push	{r3, r4, r5, lr}
 176              		.cfi_def_cfa_offset 16
 177              		.cfi_offset 3, -16
 178              		.cfi_offset 4, -12
 179              		.cfi_offset 5, -8
 180              		.cfi_offset 14, -4
 181              		.loc 1 403 0
 182 0002 0378     		ldrb	r3, [r0]	@ zero_extendqisi2
 183              		.loc 1 399 0
 184 0004 0446     		mov	r4, r0
 185              		.loc 1 403 0
 186 0006 012B     		cmp	r3, #1
 187 0008 56D0     		beq	.L55
 188              		.loc 1 492 0
 189 000a 4268     		ldr	r2, [r0, #4]
 190              		.loc 1 491 0
 191 000c 0369     		ldr	r3, [r0, #16]
 192              		.loc 1 492 0
 193 000e 106B     		ldr	r0, [r2, #48]
 194              	.LVL12:
 195              		.loc 1 491 0
 196 0010 0021     		movs	r1, #0
 197              		.loc 1 492 0
 198 0012 20F0FF00 		bic	r0, r0, #255
 199              		.loc 1 491 0
 200 0016 1960     		str	r1, [r3]
 201              		.loc 1 492 0
 202 0018 D860     		str	r0, [r3, #12]
 203              		.loc 1 494 0
 204 001a 1961     		str	r1, [r3, #16]
 205              		.loc 1 495 0
 206 001c 5963     		str	r1, [r3, #52]
 207              		.loc 1 496 0
 208 001e 9963     		str	r1, [r3, #56]
 209              		.loc 1 497 0
 210 0020 D963     		str	r1, [r3, #60]
 211              		.loc 1 498 0
 212 0022 1964     		str	r1, [r3, #64]
 213              		.loc 1 499 0
 214 0024 5962     		str	r1, [r3, #36]
 215              	.L31:
 216              	.LVL13:
 217              		.loc 1 503 0
 218 0026 E568     		ldr	r5, [r4, #12]
 219 0028 1168     		ldr	r1, [r2]
 220              		.loc 1 508 0
 221 002a 2489     		ldrh	r4, [r4, #8]
 222              	.LVL14:
 223              		.loc 1 503 0
 224 002c B5FBF1F5 		udiv	r5, r5, r1
 225              	.LVL15:
 226              		.loc 1 513 0
 227 0030 D168     		ldr	r1, [r2, #12]
 228              		.loc 1 509 0
ARM GAS  /tmp/ccVE7kKv.s 			page 5


 229 0032 D06A     		ldr	r0, [r2, #44]
 230              		.loc 1 508 0
 231 0034 013C     		subs	r4, r4, #1
 232              		.loc 1 503 0
 233 0036 013D     		subs	r5, r5, #1
 234              	.LVL16:
 235              		.loc 1 513 0
 236 0038 01F00F01 		and	r1, r1, #15
 237              		.loc 1 508 0
 238 003c A4B2     		uxth	r4, r4
 239              		.loc 1 507 0
 240 003e ADB2     		uxth	r5, r5
 241              	.LVL17:
 242              		.loc 1 513 0
 243 0040 0129     		cmp	r1, #1
 244              		.loc 1 507 0
 245 0042 9D62     		str	r5, [r3, #40]
 246              	.LVL18:
 247              		.loc 1 508 0
 248 0044 DC62     		str	r4, [r3, #44]
 249              		.loc 1 509 0
 250 0046 5860     		str	r0, [r3, #4]
 251              	.LVL19:
 252              		.loc 1 513 0
 253 0048 03D0     		beq	.L32
 254              		.loc 1 512 0
 255 004a 0229     		cmp	r1, #2
 256 004c 0CBF     		ite	eq
 257 004e 0321     		moveq	r1, #3
 258 0050 0021     		movne	r1, #0
 259              	.L32:
 260              	.LVL20:
 261              		.loc 1 521 0
 262 0052 5069     		ldr	r0, [r2, #20]
 263 0054 00F00F00 		and	r0, r0, #15
 264 0058 0128     		cmp	r0, #1
 265 005a 2AD0     		beq	.L36
 266 005c 0228     		cmp	r0, #2
 267 005e 26D0     		beq	.L56
 268              	.LVL21:
 269              	.L35:
 270              		.loc 1 529 0
 271 0060 D069     		ldr	r0, [r2, #28]
 272 0062 00F00F00 		and	r0, r0, #15
 273 0066 0128     		cmp	r0, #1
 274 0068 1ED0     		beq	.L39
 275 006a 0228     		cmp	r0, #2
 276 006c 1AD0     		beq	.L57
 277              	.LVL22:
 278              	.L38:
 279              		.loc 1 537 0
 280 006e 506A     		ldr	r0, [r2, #36]
 281 0070 00F00F00 		and	r0, r0, #15
 282 0074 0128     		cmp	r0, #1
 283 0076 03D0     		beq	.L42
 284 0078 0228     		cmp	r0, #2
 285 007a 03D1     		bne	.L41
ARM GAS  /tmp/ccVE7kKv.s 			page 6


 286              		.loc 1 539 0
 287 007c 41F40051 		orr	r1, r1, #8192
 288              	.LVL23:
 289              	.L42:
 290              		.loc 1 541 0
 291 0080 41F48051 		orr	r1, r1, #4096
 292              	.LVL24:
 293              	.L41:
 294              		.loc 1 583 0
 295 0084 0120     		movs	r0, #1
 296              		.loc 1 582 0
 297 0086 1962     		str	r1, [r3, #32]
 298              		.loc 1 583 0
 299 0088 5861     		str	r0, [r3, #20]
 300              		.loc 1 584 0
 301 008a 9068     		ldr	r0, [r2, #8]
 302 008c DA68     		ldr	r2, [r3, #12]
 303              		.loc 1 585 0
 304 008e 0021     		movs	r1, #0
 305              	.LVL25:
 306              		.loc 1 584 0
 307 0090 8842     		cmp	r0, r1
 308 0092 0CBF     		ite	eq
 309 0094 1046     		moveq	r0, r2
 310 0096 42F00100 		orrne	r0, r2, #1
 311              		.loc 1 594 0
 312 009a 8522     		movs	r2, #133
 313              		.loc 1 584 0
 314 009c D860     		str	r0, [r3, #12]
 315              		.loc 1 585 0
 316 009e 1961     		str	r1, [r3, #16]
 317              		.loc 1 594 0
 318 00a0 1A60     		str	r2, [r3]
 319 00a2 38BD     		pop	{r3, r4, r5, pc}
 320              	.LVL26:
 321              	.L57:
 322              		.loc 1 531 0
 323 00a4 41F40071 		orr	r1, r1, #512
 324              	.LVL27:
 325              	.L39:
 326              		.loc 1 533 0
 327 00a8 41F48071 		orr	r1, r1, #256
 328              	.LVL28:
 329 00ac DFE7     		b	.L38
 330              	.L56:
 331              		.loc 1 523 0
 332 00ae 41F02001 		orr	r1, r1, #32
 333              	.LVL29:
 334              	.L36:
 335              		.loc 1 525 0
 336 00b2 41F01001 		orr	r1, r1, #16
 337              	.LVL30:
 338 00b6 D3E7     		b	.L35
 339              	.LVL31:
 340              	.L55:
 341              		.loc 1 439 0
 342 00b8 40F20003 		movw	r3, #:lower16:.LANCHOR0
ARM GAS  /tmp/ccVE7kKv.s 			page 7


 343 00bc C0F20003 		movt	r3, #:upper16:.LANCHOR0
 344 00c0 9842     		cmp	r0, r3
 345 00c2 06D0     		beq	.L58
 346              	.LVL32:
 347              	.L30:
 348              		.loc 1 484 0
 349 00c4 2369     		ldr	r3, [r4, #16]
 350 00c6 46F66801 		movw	r1, #26728
 351 00ca 9961     		str	r1, [r3, #24]
 352 00cc 6268     		ldr	r2, [r4, #4]
 353              		.loc 1 486 0
 354 00ce D961     		str	r1, [r3, #28]
 355 00d0 A9E7     		b	.L31
 356              	.LVL33:
 357              	.L58:
 358              		.loc 1 440 0
 359 00d2 4FF46053 		mov	r3, #14336
 360 00d6 C4F20203 		movt	r3, 16386
 361 00da 596A     		ldr	r1, [r3, #36]
 362              		.loc 1 441 0
 363 00dc 0022     		movs	r2, #0
 364              		.loc 1 440 0
 365 00de 41F00401 		orr	r1, r1, #4
 366 00e2 5962     		str	r1, [r3, #36]
 367              		.loc 1 441 0
 368 00e4 9969     		ldr	r1, [r3, #24]
 369              		.loc 1 442 0
 370 00e6 1E20     		movs	r0, #30
 371              	.LVL34:
 372              		.loc 1 441 0
 373 00e8 41F00401 		orr	r1, r1, #4
 374 00ec 9961     		str	r1, [r3, #24]
 375 00ee 9A61     		str	r2, [r3, #24]
 376              		.loc 1 442 0
 377 00f0 7021     		movs	r1, #112
 378 00f2 FFF7FEFF 		bl	nvicEnableVector
 379              	.LVL35:
 380              		.loc 1 444 0
 381 00f6 4FF49043 		mov	r3, #18432
 382 00fa C0F2E813 		movt	r3, 488
 383 00fe E360     		str	r3, [r4, #12]
 384 0100 E0E7     		b	.L30
 385              		.cfi_endproc
 386              	.LFE66:
 387              		.size	pwm_lld_start, .-pwm_lld_start
 388 0102 00BF     		.section	.text.pwm_lld_stop,"ax",%progbits
 389              		.align	2
 390              		.global	pwm_lld_stop
 391              		.thumb
 392              		.thumb_func
 393              		.type	pwm_lld_stop, %function
 394              	pwm_lld_stop:
 395              	.LFB67:
 396              		.loc 1 605 0
 397              		.cfi_startproc
 398              		@ args = 0, pretend = 0, frame = 0
 399              		@ frame_needed = 0, uses_anonymous_args = 0
ARM GAS  /tmp/ccVE7kKv.s 			page 8


 400              	.LVL36:
 401 0000 08B5     		push	{r3, lr}
 402              		.cfi_def_cfa_offset 8
 403              		.cfi_offset 3, -8
 404              		.cfi_offset 14, -4
 405              		.loc 1 608 0
 406 0002 0378     		ldrb	r3, [r0]	@ zero_extendqisi2
 407 0004 022B     		cmp	r3, #2
 408 0006 00D0     		beq	.L63
 409              	.LVL37:
 410              	.L59:
 411 0008 08BD     		pop	{r3, pc}
 412              	.LVL38:
 413              	.L63:
 414              		.loc 1 636 0
 415 000a 40F20003 		movw	r3, #:lower16:.LANCHOR0
 416              		.loc 1 609 0
 417 000e 0269     		ldr	r2, [r0, #16]
 418              		.loc 1 636 0
 419 0010 C0F20003 		movt	r3, #:upper16:.LANCHOR0
 420              		.loc 1 609 0
 421 0014 0021     		movs	r1, #0
 422              		.loc 1 636 0
 423 0016 9842     		cmp	r0, r3
 424              		.loc 1 609 0
 425 0018 1160     		str	r1, [r2]
 426              		.loc 1 610 0
 427 001a D160     		str	r1, [r2, #12]
 428              		.loc 1 611 0
 429 001c 1161     		str	r1, [r2, #16]
 430              		.loc 1 636 0
 431 001e F3D1     		bne	.L59
 432              		.loc 1 637 0
 433 0020 1E20     		movs	r0, #30
 434              	.LVL39:
 435 0022 FFF7FEFF 		bl	nvicDisableVector
 436              	.LVL40:
 437              		.loc 1 638 0
 438 0026 4FF46053 		mov	r3, #14336
 439 002a C4F20203 		movt	r3, 16386
 440 002e 5A6A     		ldr	r2, [r3, #36]
 441 0030 22F00402 		bic	r2, r2, #4
 442 0034 5A62     		str	r2, [r3, #36]
 443 0036 E7E7     		b	.L59
 444              		.cfi_endproc
 445              	.LFE67:
 446              		.size	pwm_lld_stop, .-pwm_lld_stop
 447              		.section	.text.pwm_lld_enable_channel,"ax",%progbits
 448              		.align	2
 449              		.global	pwm_lld_enable_channel
 450              		.thumb
 451              		.thumb_func
 452              		.type	pwm_lld_enable_channel, %function
 453              	pwm_lld_enable_channel:
 454              	.LFB68:
 455              		.loc 1 677 0
 456              		.cfi_startproc
ARM GAS  /tmp/ccVE7kKv.s 			page 9


 457              		@ args = 0, pretend = 0, frame = 0
 458              		@ frame_needed = 0, uses_anonymous_args = 0
 459              		@ link register save eliminated.
 460              	.LVL41:
 461 0000 10B4     		push	{r4}
 462              		.cfi_def_cfa_offset 4
 463              		.cfi_offset 4, -4
 464              		.loc 1 682 0
 465 0002 4468     		ldr	r4, [r0, #4]
 466              		.loc 1 679 0
 467 0004 0369     		ldr	r3, [r0, #16]
 468              		.loc 1 682 0
 469 0006 04EBC104 		add	r4, r4, r1, lsl #3
 470 000a 2069     		ldr	r0, [r4, #16]
 471              	.LVL42:
 472              		.loc 1 679 0
 473 000c 01F10C04 		add	r4, r1, #12
 474 0010 03EB8404 		add	r4, r3, r4, lsl #2
 475 0014 6260     		str	r2, [r4, #4]
 476              		.loc 1 682 0
 477 0016 48B1     		cbz	r0, .L64
 478              	.LBB8:
 479              		.loc 1 686 0
 480 0018 0222     		movs	r2, #2
 481              	.LVL43:
 482 001a 02FA01F1 		lsl	r1, r2, r1
 483              	.LVL44:
 484              		.loc 1 683 0
 485 001e DA68     		ldr	r2, [r3, #12]
 486              	.LVL45:
 487              		.loc 1 686 0
 488 0020 1142     		tst	r1, r2
 489              		.loc 1 687 0
 490 0022 01BF     		itttt	eq
 491 0024 0A43     		orreq	r2, r1, r2
 492              	.LVL46:
 493              		.loc 1 688 0
 494 0026 C943     		mvneq	r1, r1
 495              		.loc 1 687 0
 496 0028 DA60     		streq	r2, [r3, #12]
 497              		.loc 1 688 0
 498 002a 1961     		streq	r1, [r3, #16]
 499              	.L64:
 500              	.LBE8:
 501              		.loc 1 691 0
 502 002c 5DF8044B 		ldr	r4, [sp], #4
 503 0030 7047     		bx	lr
 504              		.cfi_endproc
 505              	.LFE68:
 506              		.size	pwm_lld_enable_channel, .-pwm_lld_enable_channel
 507 0032 00BF     		.section	.text.pwm_lld_disable_channel,"ax",%progbits
 508              		.align	2
 509              		.global	pwm_lld_disable_channel
 510              		.thumb
 511              		.thumb_func
 512              		.type	pwm_lld_disable_channel, %function
 513              	pwm_lld_disable_channel:
ARM GAS  /tmp/ccVE7kKv.s 			page 10


 514              	.LFB69:
 515              		.loc 1 705 0
 516              		.cfi_startproc
 517              		@ args = 0, pretend = 0, frame = 0
 518              		@ frame_needed = 0, uses_anonymous_args = 0
 519              		@ link register save eliminated.
 520              	.LVL47:
 521              		.loc 1 708 0
 522 0000 0222     		movs	r2, #2
 523 0002 8A40     		lsls	r2, r2, r1
 524              		.loc 1 707 0
 525 0004 0369     		ldr	r3, [r0, #16]
 526 0006 0C31     		adds	r1, r1, #12
 527              	.LVL48:
 528 0008 03EB8101 		add	r1, r3, r1, lsl #2
 529 000c 0020     		movs	r0, #0
 530              	.LVL49:
 531 000e 4860     		str	r0, [r1, #4]
 532              		.loc 1 708 0
 533 0010 D968     		ldr	r1, [r3, #12]
 534 0012 21EA0202 		bic	r2, r1, r2
 535 0016 DA60     		str	r2, [r3, #12]
 536 0018 7047     		bx	lr
 537              		.cfi_endproc
 538              	.LFE69:
 539              		.size	pwm_lld_disable_channel, .-pwm_lld_disable_channel
 540              		.global	PWMD4
 541 001a 00BF     		.section	.bss.PWMD4,"aw",%nobits
 542              		.align	2
 543              		.set	.LANCHOR0,. + 0
 544              		.type	PWMD4, %object
 545              		.size	PWMD4, 20
 546              	PWMD4:
 547 0000 00000000 		.space	20
 547      00000000 
 547      00000000 
 547      00000000 
 547      00000000 
 548              		.text
 549              	.Letext0:
 550              		.file 2 "/usr/include/newlib/machine/_default_types.h"
 551              		.file 3 "/usr/include/newlib/stdint.h"
 552              		.file 4 "../ChibiOS_2.6.4/os/hal/platforms/STM32L1xx/stm32l1xx.h"
 553              		.file 5 "../ChibiOS_2.6.4/os/hal/include/pwm.h"
 554              		.file 6 "../ChibiOS_2.6.4/os/hal/platforms/STM32/TIMv1/pwm_lld.h"
 555              		.file 7 "../ChibiOS_2.6.4/os/hal/platforms/STM32/TIMv1/stm32_tim.h"
 556              		.file 8 "../ChibiOS_2.6.4/os/ports/common/ARMCMx/CMSIS/include/core_cm3.h"
 557              		.file 9 "../ChibiOS_2.6.4/os/ports/common/ARMCMx/nvic.h"
 558              		.file 10 "../ChibiOS_2.6.4/os/ports/GCC/ARMCMx/chcore_v7m.h"
 559              		.section	.debug_info,"",%progbits
 560              	.Ldebug_info0:
 561 0000 1E080000 		.4byte	0x81e
 562 0004 0400     		.2byte	0x4
 563 0006 00000000 		.4byte	.Ldebug_abbrev0
 564 000a 04       		.byte	0x4
 565 000b 01       		.uleb128 0x1
 566 000c 6D020000 		.4byte	.LASF130
ARM GAS  /tmp/ccVE7kKv.s 			page 11


 567 0010 01       		.byte	0x1
 568 0011 34010000 		.4byte	.LASF131
 569 0015 57030000 		.4byte	.LASF132
 570 0019 18000000 		.4byte	.Ldebug_ranges0+0x18
 571 001d 00000000 		.4byte	0
 572 0021 00000000 		.4byte	.Ldebug_line0
 573 0025 02       		.uleb128 0x2
 574 0026 04       		.byte	0x4
 575 0027 07       		.byte	0x7
 576 0028 6C010000 		.4byte	.LASF0
 577 002c 03       		.uleb128 0x3
 578 002d 04       		.byte	0x4
 579 002e 05       		.byte	0x5
 580 002f 696E7400 		.ascii	"int\000"
 581 0033 02       		.uleb128 0x2
 582 0034 01       		.byte	0x1
 583 0035 06       		.byte	0x6
 584 0036 EF000000 		.4byte	.LASF1
 585 003a 04       		.uleb128 0x4
 586 003b 49000000 		.4byte	.LASF4
 587 003f 02       		.byte	0x2
 588 0040 1C       		.byte	0x1c
 589 0041 45000000 		.4byte	0x45
 590 0045 02       		.uleb128 0x2
 591 0046 01       		.byte	0x1
 592 0047 08       		.byte	0x8
 593 0048 1F040000 		.4byte	.LASF2
 594 004c 02       		.uleb128 0x2
 595 004d 02       		.byte	0x2
 596 004e 05       		.byte	0x5
 597 004f 62040000 		.4byte	.LASF3
 598 0053 04       		.uleb128 0x4
 599 0054 AC010000 		.4byte	.LASF5
 600 0058 02       		.byte	0x2
 601 0059 26       		.byte	0x26
 602 005a 5E000000 		.4byte	0x5e
 603 005e 02       		.uleb128 0x2
 604 005f 02       		.byte	0x2
 605 0060 07       		.byte	0x7
 606 0061 7A050000 		.4byte	.LASF6
 607 0065 04       		.uleb128 0x4
 608 0066 48050000 		.4byte	.LASF7
 609 006a 02       		.byte	0x2
 610 006b 37       		.byte	0x37
 611 006c 70000000 		.4byte	0x70
 612 0070 02       		.uleb128 0x2
 613 0071 04       		.byte	0x4
 614 0072 05       		.byte	0x5
 615 0073 14010000 		.4byte	.LASF8
 616 0077 04       		.uleb128 0x4
 617 0078 C6010000 		.4byte	.LASF9
 618 007c 02       		.byte	0x2
 619 007d 38       		.byte	0x38
 620 007e 82000000 		.4byte	0x82
 621 0082 02       		.uleb128 0x2
 622 0083 04       		.byte	0x4
 623 0084 07       		.byte	0x7
ARM GAS  /tmp/ccVE7kKv.s 			page 12


 624 0085 22020000 		.4byte	.LASF10
 625 0089 02       		.uleb128 0x2
 626 008a 08       		.byte	0x8
 627 008b 05       		.byte	0x5
 628 008c 7E010000 		.4byte	.LASF11
 629 0090 02       		.uleb128 0x2
 630 0091 08       		.byte	0x8
 631 0092 07       		.byte	0x7
 632 0093 63000000 		.4byte	.LASF12
 633 0097 04       		.uleb128 0x4
 634 0098 04060000 		.4byte	.LASF13
 635 009c 03       		.byte	0x3
 636 009d 2A       		.byte	0x2a
 637 009e 3A000000 		.4byte	0x3a
 638 00a2 04       		.uleb128 0x4
 639 00a3 8C010000 		.4byte	.LASF14
 640 00a7 03       		.byte	0x3
 641 00a8 36       		.byte	0x36
 642 00a9 53000000 		.4byte	0x53
 643 00ad 04       		.uleb128 0x4
 644 00ae 17040000 		.4byte	.LASF15
 645 00b2 03       		.byte	0x3
 646 00b3 41       		.byte	0x41
 647 00b4 65000000 		.4byte	0x65
 648 00b8 04       		.uleb128 0x4
 649 00b9 BD040000 		.4byte	.LASF16
 650 00bd 03       		.byte	0x3
 651 00be 42       		.byte	0x42
 652 00bf 77000000 		.4byte	0x77
 653 00c3 02       		.uleb128 0x2
 654 00c4 01       		.byte	0x1
 655 00c5 02       		.byte	0x2
 656 00c6 11040000 		.4byte	.LASF17
 657 00ca 05       		.uleb128 0x5
 658 00cb B8000000 		.4byte	0xb8
 659 00cf 02       		.uleb128 0x2
 660 00d0 04       		.byte	0x4
 661 00d1 07       		.byte	0x7
 662 00d2 7F030000 		.4byte	.LASF18
 663 00d6 02       		.uleb128 0x2
 664 00d7 01       		.byte	0x1
 665 00d8 08       		.byte	0x8
 666 00d9 14050000 		.4byte	.LASF19
 667 00dd 06       		.uleb128 0x6
 668 00de 3F030000 		.4byte	.LASF133
 669 00e2 01       		.byte	0x1
 670 00e3 04       		.byte	0x4
 671 00e4 AB       		.byte	0xab
 672 00e5 28020000 		.4byte	0x228
 673 00e9 07       		.uleb128 0x7
 674 00ea 34050000 		.4byte	.LASF20
 675 00ee 72       		.sleb128 -14
 676 00ef 07       		.uleb128 0x7
 677 00f0 0C020000 		.4byte	.LASF21
 678 00f4 74       		.sleb128 -12
 679 00f5 07       		.uleb128 0x7
 680 00f6 D1010000 		.4byte	.LASF22
ARM GAS  /tmp/ccVE7kKv.s 			page 13


 681 00fa 75       		.sleb128 -11
 682 00fb 07       		.uleb128 0x7
 683 00fc D2040000 		.4byte	.LASF23
 684 0100 76       		.sleb128 -10
 685 0101 07       		.uleb128 0x7
 686 0102 C3060000 		.4byte	.LASF24
 687 0106 7B       		.sleb128 -5
 688 0107 07       		.uleb128 0x7
 689 0108 9E050000 		.4byte	.LASF25
 690 010c 7C       		.sleb128 -4
 691 010d 07       		.uleb128 0x7
 692 010e A0010000 		.4byte	.LASF26
 693 0112 7E       		.sleb128 -2
 694 0113 07       		.uleb128 0x7
 695 0114 28030000 		.4byte	.LASF27
 696 0118 7F       		.sleb128 -1
 697 0119 07       		.uleb128 0x7
 698 011a AE000000 		.4byte	.LASF28
 699 011e 00       		.sleb128 0
 700 011f 07       		.uleb128 0x7
 701 0120 17000000 		.4byte	.LASF29
 702 0124 01       		.sleb128 1
 703 0125 07       		.uleb128 0x7
 704 0126 87060000 		.4byte	.LASF30
 705 012a 02       		.sleb128 2
 706 012b 07       		.uleb128 0x7
 707 012c A0000000 		.4byte	.LASF31
 708 0130 03       		.sleb128 3
 709 0131 07       		.uleb128 0x7
 710 0132 A5040000 		.4byte	.LASF32
 711 0136 04       		.sleb128 4
 712 0137 07       		.uleb128 0x7
 713 0138 16060000 		.4byte	.LASF33
 714 013c 05       		.sleb128 5
 715 013d 07       		.uleb128 0x7
 716 013e DC050000 		.4byte	.LASF34
 717 0142 06       		.sleb128 6
 718 0143 07       		.uleb128 0x7
 719 0144 39060000 		.4byte	.LASF35
 720 0148 07       		.sleb128 7
 721 0149 07       		.uleb128 0x7
 722 014a 8A040000 		.4byte	.LASF36
 723 014e 08       		.sleb128 8
 724 014f 07       		.uleb128 0x7
 725 0150 88030000 		.4byte	.LASF37
 726 0154 09       		.sleb128 9
 727 0155 07       		.uleb128 0x7
 728 0156 57040000 		.4byte	.LASF38
 729 015a 0A       		.sleb128 10
 730 015b 07       		.uleb128 0x7
 731 015c CC030000 		.4byte	.LASF39
 732 0160 0B       		.sleb128 11
 733 0161 07       		.uleb128 0x7
 734 0162 44030000 		.4byte	.LASF40
 735 0166 0C       		.sleb128 12
 736 0167 07       		.uleb128 0x7
 737 0168 77040000 		.4byte	.LASF41
ARM GAS  /tmp/ccVE7kKv.s 			page 14


 738 016c 0D       		.sleb128 13
 739 016d 07       		.uleb128 0x7
 740 016e 2D040000 		.4byte	.LASF42
 741 0172 0E       		.sleb128 14
 742 0173 07       		.uleb128 0x7
 743 0174 46020000 		.4byte	.LASF43
 744 0178 0F       		.sleb128 15
 745 0179 07       		.uleb128 0x7
 746 017a 52050000 		.4byte	.LASF44
 747 017e 10       		.sleb128 16
 748 017f 07       		.uleb128 0x7
 749 0180 44060000 		.4byte	.LASF45
 750 0184 11       		.sleb128 17
 751 0185 07       		.uleb128 0x7
 752 0186 35030000 		.4byte	.LASF46
 753 018a 12       		.sleb128 18
 754 018b 07       		.uleb128 0x7
 755 018c DF010000 		.4byte	.LASF47
 756 0190 13       		.sleb128 19
 757 0191 07       		.uleb128 0x7
 758 0192 6E050000 		.4byte	.LASF48
 759 0196 14       		.sleb128 20
 760 0197 07       		.uleb128 0x7
 761 0198 65050000 		.4byte	.LASF49
 762 019c 15       		.sleb128 21
 763 019d 07       		.uleb128 0x7
 764 019e 32000000 		.4byte	.LASF50
 765 01a2 16       		.sleb128 22
 766 01a3 07       		.uleb128 0x7
 767 01a4 25000000 		.4byte	.LASF51
 768 01a8 17       		.sleb128 23
 769 01a9 07       		.uleb128 0x7
 770 01aa B0050000 		.4byte	.LASF52
 771 01ae 18       		.sleb128 24
 772 01af 07       		.uleb128 0x7
 773 01b0 F0010000 		.4byte	.LASF53
 774 01b4 19       		.sleb128 25
 775 01b5 07       		.uleb128 0x7
 776 01b6 95010000 		.4byte	.LASF54
 777 01ba 1A       		.sleb128 26
 778 01bb 07       		.uleb128 0x7
 779 01bc 6C040000 		.4byte	.LASF55
 780 01c0 1B       		.sleb128 27
 781 01c1 07       		.uleb128 0x7
 782 01c2 D2050000 		.4byte	.LASF56
 783 01c6 1C       		.sleb128 28
 784 01c7 07       		.uleb128 0x7
 785 01c8 B2060000 		.4byte	.LASF57
 786 01cc 1D       		.sleb128 29
 787 01cd 07       		.uleb128 0x7
 788 01ce 96000000 		.4byte	.LASF58
 789 01d2 1E       		.sleb128 30
 790 01d3 07       		.uleb128 0x7
 791 01d4 3C000000 		.4byte	.LASF59
 792 01d8 1F       		.sleb128 31
 793 01d9 07       		.uleb128 0x7
 794 01da 7A060000 		.4byte	.LASF60
ARM GAS  /tmp/ccVE7kKv.s 			page 15


 795 01de 20       		.sleb128 32
 796 01df 07       		.uleb128 0x7
 797 01e0 B9050000 		.4byte	.LASF61
 798 01e4 21       		.sleb128 33
 799 01e5 07       		.uleb128 0x7
 800 01e6 89000000 		.4byte	.LASF62
 801 01ea 22       		.sleb128 34
 802 01eb 07       		.uleb128 0x7
 803 01ec F5020000 		.4byte	.LASF63
 804 01f0 23       		.sleb128 35
 805 01f1 07       		.uleb128 0x7
 806 01f2 93030000 		.4byte	.LASF64
 807 01f6 24       		.sleb128 36
 808 01f7 07       		.uleb128 0x7
 809 01f8 05040000 		.4byte	.LASF65
 810 01fc 25       		.sleb128 37
 811 01fd 07       		.uleb128 0x7
 812 01fe C6040000 		.4byte	.LASF66
 813 0202 26       		.sleb128 38
 814 0203 07       		.uleb128 0x7
 815 0204 C6050000 		.4byte	.LASF67
 816 0208 27       		.sleb128 39
 817 0209 07       		.uleb128 0x7
 818 020a 5E020000 		.4byte	.LASF68
 819 020e 28       		.sleb128 40
 820 020f 07       		.uleb128 0x7
 821 0210 7A000000 		.4byte	.LASF69
 822 0214 29       		.sleb128 41
 823 0215 07       		.uleb128 0x7
 824 0216 B2030000 		.4byte	.LASF70
 825 021a 2A       		.sleb128 42
 826 021b 07       		.uleb128 0x7
 827 021c 4D040000 		.4byte	.LASF71
 828 0220 2B       		.sleb128 43
 829 0221 07       		.uleb128 0x7
 830 0222 2A050000 		.4byte	.LASF72
 831 0226 2C       		.sleb128 44
 832 0227 00       		.byte	0
 833 0228 08       		.uleb128 0x8
 834 0229 B8000000 		.4byte	0xb8
 835 022d 38020000 		.4byte	0x238
 836 0231 09       		.uleb128 0x9
 837 0232 CF000000 		.4byte	0xcf
 838 0236 03       		.byte	0x3
 839 0237 00       		.byte	0
 840 0238 0A       		.uleb128 0xa
 841 0239 38       		.byte	0x38
 842 023a 04       		.byte	0x4
 843 023b 8602     		.2byte	0x286
 844 023d F7020000 		.4byte	0x2f7
 845 0241 0B       		.uleb128 0xb
 846 0242 435200   		.ascii	"CR\000"
 847 0245 04       		.byte	0x4
 848 0246 8802     		.2byte	0x288
 849 0248 CA000000 		.4byte	0xca
 850 024c 00       		.byte	0
 851 024d 0C       		.uleb128 0xc
ARM GAS  /tmp/ccVE7kKv.s 			page 16


 852 024e 2A060000 		.4byte	.LASF73
 853 0252 04       		.byte	0x4
 854 0253 8902     		.2byte	0x289
 855 0255 CA000000 		.4byte	0xca
 856 0259 04       		.byte	0x4
 857 025a 0C       		.uleb128 0xc
 858 025b 57060000 		.4byte	.LASF74
 859 025f 04       		.byte	0x4
 860 0260 8A02     		.2byte	0x28a
 861 0262 CA000000 		.4byte	0xca
 862 0266 08       		.byte	0x8
 863 0267 0B       		.uleb128 0xb
 864 0268 43495200 		.ascii	"CIR\000"
 865 026c 04       		.byte	0x4
 866 026d 8B02     		.2byte	0x28b
 867 026f CA000000 		.4byte	0xca
 868 0273 0C       		.byte	0xc
 869 0274 0C       		.uleb128 0xc
 870 0275 AA030000 		.4byte	.LASF75
 871 0279 04       		.byte	0x4
 872 027a 8C02     		.2byte	0x28c
 873 027c CA000000 		.4byte	0xca
 874 0280 10       		.byte	0x10
 875 0281 0C       		.uleb128 0xc
 876 0282 2B010000 		.4byte	.LASF76
 877 0286 04       		.byte	0x4
 878 0287 8D02     		.2byte	0x28d
 879 0289 CA000000 		.4byte	0xca
 880 028d 14       		.byte	0x14
 881 028e 0C       		.uleb128 0xc
 882 028f C3030000 		.4byte	.LASF77
 883 0293 04       		.byte	0x4
 884 0294 8E02     		.2byte	0x28e
 885 0296 CA000000 		.4byte	0xca
 886 029a 18       		.byte	0x18
 887 029b 0C       		.uleb128 0xc
 888 029c BC060000 		.4byte	.LASF78
 889 02a0 04       		.byte	0x4
 890 02a1 8F02     		.2byte	0x28f
 891 02a3 CA000000 		.4byte	0xca
 892 02a7 1C       		.byte	0x1c
 893 02a8 0C       		.uleb128 0xc
 894 02a9 95040000 		.4byte	.LASF79
 895 02ad 04       		.byte	0x4
 896 02ae 9002     		.2byte	0x290
 897 02b0 CA000000 		.4byte	0xca
 898 02b4 20       		.byte	0x20
 899 02b5 0C       		.uleb128 0xc
 900 02b6 EC040000 		.4byte	.LASF80
 901 02ba 04       		.byte	0x4
 902 02bb 9102     		.2byte	0x291
 903 02bd CA000000 		.4byte	0xca
 904 02c1 24       		.byte	0x24
 905 02c2 0C       		.uleb128 0xc
 906 02c3 5A000000 		.4byte	.LASF81
 907 02c7 04       		.byte	0x4
 908 02c8 9202     		.2byte	0x292
ARM GAS  /tmp/ccVE7kKv.s 			page 17


 909 02ca CA000000 		.4byte	0xca
 910 02ce 28       		.byte	0x28
 911 02cf 0C       		.uleb128 0xc
 912 02d0 14030000 		.4byte	.LASF82
 913 02d4 04       		.byte	0x4
 914 02d5 9302     		.2byte	0x293
 915 02d7 CA000000 		.4byte	0xca
 916 02db 2C       		.byte	0x2c
 917 02dc 0C       		.uleb128 0xc
 918 02dd 0D000000 		.4byte	.LASF83
 919 02e1 04       		.byte	0x4
 920 02e2 9402     		.2byte	0x294
 921 02e4 CA000000 		.4byte	0xca
 922 02e8 30       		.byte	0x30
 923 02e9 0B       		.uleb128 0xb
 924 02ea 43535200 		.ascii	"CSR\000"
 925 02ee 04       		.byte	0x4
 926 02ef 9502     		.2byte	0x295
 927 02f1 CA000000 		.4byte	0xca
 928 02f5 34       		.byte	0x34
 929 02f6 00       		.byte	0
 930 02f7 0D       		.uleb128 0xd
 931 02f8 34020000 		.4byte	.LASF84
 932 02fc 04       		.byte	0x4
 933 02fd 9602     		.2byte	0x296
 934 02ff 38020000 		.4byte	0x238
 935 0303 0E       		.uleb128 0xe
 936 0304 01       		.byte	0x1
 937 0305 05       		.byte	0x5
 938 0306 55       		.byte	0x55
 939 0307 1E030000 		.4byte	0x31e
 940 030b 07       		.uleb128 0x7
 941 030c 99060000 		.4byte	.LASF85
 942 0310 00       		.sleb128 0
 943 0311 07       		.uleb128 0x7
 944 0312 0B050000 		.4byte	.LASF86
 945 0316 01       		.sleb128 1
 946 0317 07       		.uleb128 0x7
 947 0318 C2000000 		.4byte	.LASF87
 948 031c 02       		.sleb128 2
 949 031d 00       		.byte	0
 950 031e 04       		.uleb128 0x4
 951 031f 1F060000 		.4byte	.LASF88
 952 0323 05       		.byte	0x5
 953 0324 59       		.byte	0x59
 954 0325 03030000 		.4byte	0x303
 955 0329 04       		.uleb128 0x4
 956 032a 0C060000 		.4byte	.LASF89
 957 032e 05       		.byte	0x5
 958 032f 5E       		.byte	0x5e
 959 0330 34030000 		.4byte	0x334
 960 0334 0F       		.uleb128 0xf
 961 0335 0C060000 		.4byte	.LASF89
 962 0339 14       		.byte	0x14
 963 033a 06       		.byte	0x6
 964 033b 6F01     		.2byte	0x16f
 965 033d 83030000 		.4byte	0x383
ARM GAS  /tmp/ccVE7kKv.s 			page 18


 966 0341 0C       		.uleb128 0xc
 967 0342 05010000 		.4byte	.LASF90
 968 0346 06       		.byte	0x6
 969 0347 7301     		.2byte	0x173
 970 0349 1E030000 		.4byte	0x31e
 971 034d 00       		.byte	0
 972 034e 0C       		.uleb128 0xc
 973 034f 1E050000 		.4byte	.LASF91
 974 0353 06       		.byte	0x6
 975 0354 7701     		.2byte	0x177
 976 0356 97050000 		.4byte	0x597
 977 035a 04       		.byte	0x4
 978 035b 0C       		.uleb128 0xc
 979 035c 53000000 		.4byte	.LASF92
 980 0360 06       		.byte	0x6
 981 0361 7B01     		.2byte	0x17b
 982 0363 E7040000 		.4byte	0x4e7
 983 0367 08       		.byte	0x8
 984 0368 0C       		.uleb128 0xc
 985 0369 74060000 		.4byte	.LASF93
 986 036d 06       		.byte	0x6
 987 036e 8301     		.2byte	0x183
 988 0370 B8000000 		.4byte	0xb8
 989 0374 0C       		.byte	0xc
 990 0375 0B       		.uleb128 0xb
 991 0376 74696D00 		.ascii	"tim\000"
 992 037a 06       		.byte	0x6
 993 037b 8701     		.2byte	0x187
 994 037d A2050000 		.4byte	0x5a2
 995 0381 10       		.byte	0x10
 996 0382 00       		.byte	0
 997 0383 04       		.uleb128 0x4
 998 0384 DF030000 		.4byte	.LASF94
 999 0388 05       		.byte	0x5
 1000 0389 65       		.byte	0x65
 1001 038a 8E030000 		.4byte	0x38e
 1002 038e 10       		.uleb128 0x10
 1003 038f 04       		.byte	0x4
 1004 0390 94030000 		.4byte	0x394
 1005 0394 11       		.uleb128 0x11
 1006 0395 9F030000 		.4byte	0x39f
 1007 0399 12       		.uleb128 0x12
 1008 039a 9F030000 		.4byte	0x39f
 1009 039e 00       		.byte	0
 1010 039f 10       		.uleb128 0x10
 1011 03a0 04       		.byte	0x4
 1012 03a1 29030000 		.4byte	0x329
 1013 03a5 0A       		.uleb128 0xa
 1014 03a6 60       		.byte	0x60
 1015 03a7 07       		.byte	0x7
 1016 03a8 9E01     		.2byte	0x19e
 1017 03aa BE040000 		.4byte	0x4be
 1018 03ae 0B       		.uleb128 0xb
 1019 03af 43523100 		.ascii	"CR1\000"
 1020 03b3 07       		.byte	0x7
 1021 03b4 9F01     		.2byte	0x19f
 1022 03b6 CA000000 		.4byte	0xca
ARM GAS  /tmp/ccVE7kKv.s 			page 19


 1023 03ba 00       		.byte	0
 1024 03bb 0B       		.uleb128 0xb
 1025 03bc 43523200 		.ascii	"CR2\000"
 1026 03c0 07       		.byte	0x7
 1027 03c1 A001     		.2byte	0x1a0
 1028 03c3 CA000000 		.4byte	0xca
 1029 03c7 04       		.byte	0x4
 1030 03c8 0C       		.uleb128 0xc
 1031 03c9 59020000 		.4byte	.LASF95
 1032 03cd 07       		.byte	0x7
 1033 03ce A101     		.2byte	0x1a1
 1034 03d0 CA000000 		.4byte	0xca
 1035 03d4 08       		.byte	0x8
 1036 03d5 0C       		.uleb128 0xc
 1037 03d6 20000000 		.4byte	.LASF96
 1038 03da 07       		.byte	0x7
 1039 03db A201     		.2byte	0x1a2
 1040 03dd CA000000 		.4byte	0xca
 1041 03e1 0C       		.byte	0xc
 1042 03e2 0B       		.uleb128 0xb
 1043 03e3 535200   		.ascii	"SR\000"
 1044 03e6 07       		.byte	0x7
 1045 03e7 A301     		.2byte	0x1a3
 1046 03e9 CA000000 		.4byte	0xca
 1047 03ed 10       		.byte	0x10
 1048 03ee 0B       		.uleb128 0xb
 1049 03ef 45475200 		.ascii	"EGR\000"
 1050 03f3 07       		.byte	0x7
 1051 03f4 A401     		.2byte	0x1a4
 1052 03f6 CA000000 		.4byte	0xca
 1053 03fa 14       		.byte	0x14
 1054 03fb 0C       		.uleb128 0xc
 1055 03fc DD000000 		.4byte	.LASF97
 1056 0400 07       		.byte	0x7
 1057 0401 A501     		.2byte	0x1a5
 1058 0403 CA000000 		.4byte	0xca
 1059 0407 18       		.byte	0x18
 1060 0408 0C       		.uleb128 0xc
 1061 0409 E3000000 		.4byte	.LASF98
 1062 040d 07       		.byte	0x7
 1063 040e A601     		.2byte	0x1a6
 1064 0410 CA000000 		.4byte	0xca
 1065 0414 1C       		.byte	0x1c
 1066 0415 0C       		.uleb128 0xc
 1067 0416 79010000 		.4byte	.LASF99
 1068 041a 07       		.byte	0x7
 1069 041b A701     		.2byte	0x1a7
 1070 041d CA000000 		.4byte	0xca
 1071 0421 20       		.byte	0x20
 1072 0422 0B       		.uleb128 0xb
 1073 0423 434E5400 		.ascii	"CNT\000"
 1074 0427 07       		.byte	0x7
 1075 0428 A801     		.2byte	0x1a8
 1076 042a CA000000 		.4byte	0xca
 1077 042e 24       		.byte	0x24
 1078 042f 0B       		.uleb128 0xb
 1079 0430 50534300 		.ascii	"PSC\000"
ARM GAS  /tmp/ccVE7kKv.s 			page 20


 1080 0434 07       		.byte	0x7
 1081 0435 A901     		.2byte	0x1a9
 1082 0437 CA000000 		.4byte	0xca
 1083 043b 28       		.byte	0x28
 1084 043c 0B       		.uleb128 0xb
 1085 043d 41525200 		.ascii	"ARR\000"
 1086 0441 07       		.byte	0x7
 1087 0442 AA01     		.2byte	0x1aa
 1088 0444 CA000000 		.4byte	0xca
 1089 0448 2C       		.byte	0x2c
 1090 0449 0B       		.uleb128 0xb
 1091 044a 52435200 		.ascii	"RCR\000"
 1092 044e 07       		.byte	0x7
 1093 044f AB01     		.2byte	0x1ab
 1094 0451 CA000000 		.4byte	0xca
 1095 0455 30       		.byte	0x30
 1096 0456 0B       		.uleb128 0xb
 1097 0457 43435200 		.ascii	"CCR\000"
 1098 045b 07       		.byte	0x7
 1099 045c AC01     		.2byte	0x1ac
 1100 045e BE040000 		.4byte	0x4be
 1101 0462 34       		.byte	0x34
 1102 0463 0C       		.uleb128 0xc
 1103 0464 EB010000 		.4byte	.LASF100
 1104 0468 07       		.byte	0x7
 1105 0469 AD01     		.2byte	0x1ad
 1106 046b CA000000 		.4byte	0xca
 1107 046f 44       		.byte	0x44
 1108 0470 0B       		.uleb128 0xb
 1109 0471 44435200 		.ascii	"DCR\000"
 1110 0475 07       		.byte	0x7
 1111 0476 AE01     		.2byte	0x1ae
 1112 0478 CA000000 		.4byte	0xca
 1113 047c 48       		.byte	0x48
 1114 047d 0C       		.uleb128 0xc
 1115 047e 25050000 		.4byte	.LASF101
 1116 0482 07       		.byte	0x7
 1117 0483 AF01     		.2byte	0x1af
 1118 0485 CA000000 		.4byte	0xca
 1119 0489 4C       		.byte	0x4c
 1120 048a 0B       		.uleb128 0xb
 1121 048b 4F5200   		.ascii	"OR\000"
 1122 048e 07       		.byte	0x7
 1123 048f B001     		.2byte	0x1b0
 1124 0491 CA000000 		.4byte	0xca
 1125 0495 50       		.byte	0x50
 1126 0496 0C       		.uleb128 0xc
 1127 0497 E9000000 		.4byte	.LASF102
 1128 049b 07       		.byte	0x7
 1129 049c B101     		.2byte	0x1b1
 1130 049e CA000000 		.4byte	0xca
 1131 04a2 54       		.byte	0x54
 1132 04a3 0C       		.uleb128 0xc
 1133 04a4 E7050000 		.4byte	.LASF103
 1134 04a8 07       		.byte	0x7
 1135 04a9 B201     		.2byte	0x1b2
 1136 04ab CA000000 		.4byte	0xca
ARM GAS  /tmp/ccVE7kKv.s 			page 21


 1137 04af 58       		.byte	0x58
 1138 04b0 0C       		.uleb128 0xc
 1139 04b1 EC050000 		.4byte	.LASF104
 1140 04b5 07       		.byte	0x7
 1141 04b6 B301     		.2byte	0x1b3
 1142 04b8 CA000000 		.4byte	0xca
 1143 04bc 5C       		.byte	0x5c
 1144 04bd 00       		.byte	0
 1145 04be 05       		.uleb128 0x5
 1146 04bf 28020000 		.4byte	0x228
 1147 04c3 0D       		.uleb128 0xd
 1148 04c4 08030000 		.4byte	.LASF105
 1149 04c8 07       		.byte	0x7
 1150 04c9 B401     		.2byte	0x1b4
 1151 04cb A5030000 		.4byte	0x3a5
 1152 04cf 0D       		.uleb128 0xd
 1153 04d0 FB000000 		.4byte	.LASF106
 1154 04d4 06       		.byte	0x6
 1155 04d5 2001     		.2byte	0x120
 1156 04d7 B8000000 		.4byte	0xb8
 1157 04db 0D       		.uleb128 0xd
 1158 04dc 00000000 		.4byte	.LASF107
 1159 04e0 06       		.byte	0x6
 1160 04e1 2501     		.2byte	0x125
 1161 04e3 97000000 		.4byte	0x97
 1162 04e7 0D       		.uleb128 0xd
 1163 04e8 30060000 		.4byte	.LASF108
 1164 04ec 06       		.byte	0x6
 1165 04ed 2A01     		.2byte	0x12a
 1166 04ef A2000000 		.4byte	0xa2
 1167 04f3 0A       		.uleb128 0xa
 1168 04f4 08       		.byte	0x8
 1169 04f5 06       		.byte	0x6
 1170 04f6 2F01     		.2byte	0x12f
 1171 04f8 17050000 		.4byte	0x517
 1172 04fc 0C       		.uleb128 0xc
 1173 04fd 19050000 		.4byte	.LASF109
 1174 0501 06       		.byte	0x6
 1175 0502 3301     		.2byte	0x133
 1176 0504 CF040000 		.4byte	0x4cf
 1177 0508 00       		.byte	0
 1178 0509 0C       		.uleb128 0xc
 1179 050a FF020000 		.4byte	.LASF110
 1180 050e 06       		.byte	0x6
 1181 050f 3901     		.2byte	0x139
 1182 0511 83030000 		.4byte	0x383
 1183 0515 04       		.byte	0x4
 1184 0516 00       		.byte	0
 1185 0517 0D       		.uleb128 0xd
 1186 0518 8D050000 		.4byte	.LASF111
 1187 051c 06       		.byte	0x6
 1188 051d 3B01     		.2byte	0x13b
 1189 051f F3040000 		.4byte	0x4f3
 1190 0523 0A       		.uleb128 0xa
 1191 0524 34       		.byte	0x34
 1192 0525 06       		.byte	0x6
 1193 0526 4001     		.2byte	0x140
ARM GAS  /tmp/ccVE7kKv.s 			page 22


 1194 0528 7B050000 		.4byte	0x57b
 1195 052c 0C       		.uleb128 0xc
 1196 052d B8000000 		.4byte	.LASF112
 1197 0531 06       		.byte	0x6
 1198 0532 4601     		.2byte	0x146
 1199 0534 B8000000 		.4byte	0xb8
 1200 0538 00       		.byte	0
 1201 0539 0C       		.uleb128 0xc
 1202 053a 53000000 		.4byte	.LASF92
 1203 053e 06       		.byte	0x6
 1204 053f 4C01     		.2byte	0x14c
 1205 0541 E7040000 		.4byte	0x4e7
 1206 0545 04       		.byte	0x4
 1207 0546 0C       		.uleb128 0xc
 1208 0547 FF020000 		.4byte	.LASF110
 1209 054b 06       		.byte	0x6
 1210 054c 5201     		.2byte	0x152
 1211 054e 83030000 		.4byte	0x383
 1212 0552 08       		.byte	0x8
 1213 0553 0C       		.uleb128 0xc
 1214 0554 0B010000 		.4byte	.LASF113
 1215 0558 06       		.byte	0x6
 1216 0559 5601     		.2byte	0x156
 1217 055b 7B050000 		.4byte	0x57b
 1218 055f 0C       		.byte	0xc
 1219 0560 0B       		.uleb128 0xb
 1220 0561 63723200 		.ascii	"cr2\000"
 1221 0565 06       		.byte	0x6
 1222 0566 5C01     		.2byte	0x15c
 1223 0568 B8000000 		.4byte	0xb8
 1224 056c 2C       		.byte	0x2c
 1225 056d 0C       		.uleb128 0xc
 1226 056e CC060000 		.4byte	.LASF114
 1227 0572 06       		.byte	0x6
 1228 0573 6901     		.2byte	0x169
 1229 0575 B8000000 		.4byte	0xb8
 1230 0579 30       		.byte	0x30
 1231 057a 00       		.byte	0
 1232 057b 08       		.uleb128 0x8
 1233 057c 17050000 		.4byte	0x517
 1234 0580 8B050000 		.4byte	0x58b
 1235 0584 09       		.uleb128 0x9
 1236 0585 CF000000 		.4byte	0xcf
 1237 0589 03       		.byte	0x3
 1238 058a 00       		.byte	0
 1239 058b 0D       		.uleb128 0xd
 1240 058c E2040000 		.4byte	.LASF115
 1241 0590 06       		.byte	0x6
 1242 0591 6A01     		.2byte	0x16a
 1243 0593 23050000 		.4byte	0x523
 1244 0597 10       		.uleb128 0x10
 1245 0598 04       		.byte	0x4
 1246 0599 9D050000 		.4byte	0x59d
 1247 059d 13       		.uleb128 0x13
 1248 059e 8B050000 		.4byte	0x58b
 1249 05a2 10       		.uleb128 0x10
 1250 05a3 04       		.byte	0x4
ARM GAS  /tmp/ccVE7kKv.s 			page 23


 1251 05a4 C3040000 		.4byte	0x4c3
 1252 05a8 14       		.uleb128 0x14
 1253 05a9 ED030000 		.4byte	.LASF134
 1254 05ad 01       		.byte	0x1
 1255 05ae 70       		.byte	0x70
 1256 05af 01       		.byte	0x1
 1257 05b0 CA050000 		.4byte	0x5ca
 1258 05b4 15       		.uleb128 0x15
 1259 05b5 23030000 		.4byte	.LASF121
 1260 05b9 01       		.byte	0x1
 1261 05ba 70       		.byte	0x70
 1262 05bb 9F030000 		.4byte	0x39f
 1263 05bf 16       		.uleb128 0x16
 1264 05c0 737200   		.ascii	"sr\000"
 1265 05c3 01       		.byte	0x1
 1266 05c4 71       		.byte	0x71
 1267 05c5 A2000000 		.4byte	0xa2
 1268 05c9 00       		.byte	0
 1269 05ca 17       		.uleb128 0x17
 1270 05cb BD010000 		.4byte	.LASF116
 1271 05cf 01       		.byte	0x1
 1272 05d0 EB       		.byte	0xeb
 1273 05d1 00000000 		.4byte	.LFB64
 1274 05d5 7E000000 		.4byte	.LFE64-.LFB64
 1275 05d9 01       		.uleb128 0x1
 1276 05da 9C       		.byte	0x9c
 1277 05db 70060000 		.4byte	0x670
 1278 05df 18       		.uleb128 0x18
 1279 05e0 A8050000 		.4byte	0x5a8
 1280 05e4 02000000 		.4byte	.LBB4
 1281 05e8 00000000 		.4byte	.Ldebug_ranges0+0
 1282 05ec 01       		.byte	0x1
 1283 05ed EF       		.byte	0xef
 1284 05ee 66060000 		.4byte	0x666
 1285 05f2 19       		.uleb128 0x19
 1286 05f3 B4050000 		.4byte	0x5b4
 1287 05f7 06       		.uleb128 0x6
 1288 05f8 03       		.byte	0x3
 1289 05f9 00000000 		.4byte	PWMD4
 1290 05fd 9F       		.byte	0x9f
 1291 05fe 1A       		.uleb128 0x1a
 1292 05ff 00000000 		.4byte	.Ldebug_ranges0+0
 1293 0603 1B       		.uleb128 0x1b
 1294 0604 BF050000 		.4byte	0x5bf
 1295 0608 00000000 		.4byte	.LLST0
 1296 060c 1C       		.uleb128 0x1c
 1297 060d 3C000000 		.4byte	.LVL3
 1298 0611 1F060000 		.4byte	0x61f
 1299 0615 1D       		.uleb128 0x1d
 1300 0616 01       		.uleb128 0x1
 1301 0617 50       		.byte	0x50
 1302 0618 05       		.uleb128 0x5
 1303 0619 03       		.byte	0x3
 1304 061a 00000000 		.4byte	.LANCHOR0
 1305 061e 00       		.byte	0
 1306 061f 1C       		.uleb128 0x1c
 1307 0620 52000000 		.4byte	.LVL6
ARM GAS  /tmp/ccVE7kKv.s 			page 24


 1308 0624 32060000 		.4byte	0x632
 1309 0628 1D       		.uleb128 0x1d
 1310 0629 01       		.uleb128 0x1
 1311 062a 50       		.byte	0x50
 1312 062b 05       		.uleb128 0x5
 1313 062c 03       		.byte	0x3
 1314 062d 00000000 		.4byte	.LANCHOR0
 1315 0631 00       		.byte	0
 1316 0632 1C       		.uleb128 0x1c
 1317 0633 62000000 		.4byte	.LVL7
 1318 0637 45060000 		.4byte	0x645
 1319 063b 1D       		.uleb128 0x1d
 1320 063c 01       		.uleb128 0x1
 1321 063d 50       		.byte	0x50
 1322 063e 05       		.uleb128 0x5
 1323 063f 03       		.byte	0x3
 1324 0640 00000000 		.4byte	.LANCHOR0
 1325 0644 00       		.byte	0
 1326 0645 1C       		.uleb128 0x1c
 1327 0646 72000000 		.4byte	.LVL8
 1328 064a 58060000 		.4byte	0x658
 1329 064e 1D       		.uleb128 0x1d
 1330 064f 01       		.uleb128 0x1
 1331 0650 50       		.byte	0x50
 1332 0651 05       		.uleb128 0x5
 1333 0652 03       		.byte	0x3
 1334 0653 00000000 		.4byte	.LANCHOR0
 1335 0657 00       		.byte	0
 1336 0658 1E       		.uleb128 0x1e
 1337 0659 7C000000 		.4byte	.LVL9
 1338 065d 1D       		.uleb128 0x1d
 1339 065e 01       		.uleb128 0x1
 1340 065f 50       		.byte	0x50
 1341 0660 02       		.uleb128 0x2
 1342 0661 75       		.byte	0x75
 1343 0662 00       		.sleb128 0
 1344 0663 00       		.byte	0
 1345 0664 00       		.byte	0
 1346 0665 00       		.byte	0
 1347 0666 1F       		.uleb128 0x1f
 1348 0667 44000000 		.4byte	.LVL5
 1349 066b E3070000 		.4byte	0x7e3
 1350 066f 00       		.byte	0
 1351 0670 20       		.uleb128 0x20
 1352 0671 9D030000 		.4byte	.LASF117
 1353 0675 01       		.byte	0x1
 1354 0676 5901     		.2byte	0x159
 1355 0678 00000000 		.4byte	.LFB65
 1356 067c 1C000000 		.4byte	.LFE65-.LFB65
 1357 0680 01       		.uleb128 0x1
 1358 0681 9C       		.byte	0x9c
 1359 0682 97060000 		.4byte	0x697
 1360 0686 21       		.uleb128 0x21
 1361 0687 10000000 		.4byte	.LVL10
 1362 068b EB070000 		.4byte	0x7eb
 1363 068f 1D       		.uleb128 0x1d
 1364 0690 01       		.uleb128 0x1
ARM GAS  /tmp/ccVE7kKv.s 			page 25


 1365 0691 50       		.byte	0x50
 1366 0692 02       		.uleb128 0x2
 1367 0693 74       		.byte	0x74
 1368 0694 00       		.sleb128 0
 1369 0695 00       		.byte	0
 1370 0696 00       		.byte	0
 1371 0697 20       		.uleb128 0x20
 1372 0698 1D010000 		.4byte	.LASF118
 1373 069c 01       		.byte	0x1
 1374 069d 8F01     		.2byte	0x18f
 1375 069f 00000000 		.4byte	.LFB66
 1376 06a3 02010000 		.4byte	.LFE66-.LFB66
 1377 06a7 01       		.uleb128 0x1
 1378 06a8 9C       		.byte	0x9c
 1379 06a9 F3060000 		.4byte	0x6f3
 1380 06ad 22       		.uleb128 0x22
 1381 06ae 23030000 		.4byte	.LASF121
 1382 06b2 01       		.byte	0x1
 1383 06b3 8F01     		.2byte	0x18f
 1384 06b5 9F030000 		.4byte	0x39f
 1385 06b9 33000000 		.4byte	.LLST1
 1386 06bd 23       		.uleb128 0x23
 1387 06be 70736300 		.ascii	"psc\000"
 1388 06c2 01       		.byte	0x1
 1389 06c3 9001     		.2byte	0x190
 1390 06c5 B8000000 		.4byte	0xb8
 1391 06c9 8B000000 		.4byte	.LLST2
 1392 06cd 24       		.uleb128 0x24
 1393 06ce 1E030000 		.4byte	.LASF119
 1394 06d2 01       		.byte	0x1
 1395 06d3 9101     		.2byte	0x191
 1396 06d5 A2000000 		.4byte	0xa2
 1397 06d9 0B010000 		.4byte	.LLST3
 1398 06dd 21       		.uleb128 0x21
 1399 06de F6000000 		.4byte	.LVL35
 1400 06e2 FC070000 		.4byte	0x7fc
 1401 06e6 1D       		.uleb128 0x1d
 1402 06e7 01       		.uleb128 0x1
 1403 06e8 51       		.byte	0x51
 1404 06e9 02       		.uleb128 0x2
 1405 06ea 08       		.byte	0x8
 1406 06eb 70       		.byte	0x70
 1407 06ec 1D       		.uleb128 0x1d
 1408 06ed 01       		.uleb128 0x1
 1409 06ee 50       		.byte	0x50
 1410 06ef 01       		.uleb128 0x1
 1411 06f0 4E       		.byte	0x4e
 1412 06f1 00       		.byte	0
 1413 06f2 00       		.byte	0
 1414 06f3 20       		.uleb128 0x20
 1415 06f4 B0040000 		.4byte	.LASF120
 1416 06f8 01       		.byte	0x1
 1417 06f9 5D02     		.2byte	0x25d
 1418 06fb 00000000 		.4byte	.LFB67
 1419 06ff 38000000 		.4byte	.LFE67-.LFB67
 1420 0703 01       		.uleb128 0x1
 1421 0704 9C       		.byte	0x9c
ARM GAS  /tmp/ccVE7kKv.s 			page 26


 1422 0705 29070000 		.4byte	0x729
 1423 0709 22       		.uleb128 0x22
 1424 070a 23030000 		.4byte	.LASF121
 1425 070e 01       		.byte	0x1
 1426 070f 5D02     		.2byte	0x25d
 1427 0711 9F030000 		.4byte	0x39f
 1428 0715 35010000 		.4byte	.LLST4
 1429 0719 21       		.uleb128 0x21
 1430 071a 26000000 		.4byte	.LVL40
 1431 071e 13080000 		.4byte	0x813
 1432 0722 1D       		.uleb128 0x1d
 1433 0723 01       		.uleb128 0x1
 1434 0724 50       		.byte	0x50
 1435 0725 01       		.uleb128 0x1
 1436 0726 4E       		.byte	0x4e
 1437 0727 00       		.byte	0
 1438 0728 00       		.byte	0
 1439 0729 20       		.uleb128 0x20
 1440 072a F4040000 		.4byte	.LASF122
 1441 072e 01       		.byte	0x1
 1442 072f A302     		.2byte	0x2a3
 1443 0731 00000000 		.4byte	.LFB68
 1444 0735 32000000 		.4byte	.LFE68-.LFB68
 1445 0739 01       		.uleb128 0x1
 1446 073a 9C       		.byte	0x9c
 1447 073b 8A070000 		.4byte	0x78a
 1448 073f 22       		.uleb128 0x22
 1449 0740 23030000 		.4byte	.LASF121
 1450 0744 01       		.byte	0x1
 1451 0745 A302     		.2byte	0x2a3
 1452 0747 9F030000 		.4byte	0x39f
 1453 074b 6F010000 		.4byte	.LLST5
 1454 074f 22       		.uleb128 0x22
 1455 0750 9D040000 		.4byte	.LASF123
 1456 0754 01       		.byte	0x1
 1457 0755 A402     		.2byte	0x2a4
 1458 0757 DB040000 		.4byte	0x4db
 1459 075b 90010000 		.4byte	.LLST6
 1460 075f 22       		.uleb128 0x22
 1461 0760 40020000 		.4byte	.LASF124
 1462 0764 01       		.byte	0x1
 1463 0765 A502     		.2byte	0x2a5
 1464 0767 E7040000 		.4byte	0x4e7
 1465 076b B1010000 		.4byte	.LLST7
 1466 076f 25       		.uleb128 0x25
 1467 0770 18000000 		.4byte	.LBB8
 1468 0774 14000000 		.4byte	.LBE8-.LBB8
 1469 0778 24       		.uleb128 0x24
 1470 0779 CC060000 		.4byte	.LASF114
 1471 077d 01       		.byte	0x1
 1472 077e AB02     		.2byte	0x2ab
 1473 0780 B8000000 		.4byte	0xb8
 1474 0784 D2010000 		.4byte	.LLST8
 1475 0788 00       		.byte	0
 1476 0789 00       		.byte	0
 1477 078a 20       		.uleb128 0x20
 1478 078b 5C060000 		.4byte	.LASF125
ARM GAS  /tmp/ccVE7kKv.s 			page 27


 1479 078f 01       		.byte	0x1
 1480 0790 C102     		.2byte	0x2c1
 1481 0792 00000000 		.4byte	.LFB69
 1482 0796 1A000000 		.4byte	.LFE69-.LFB69
 1483 079a 01       		.uleb128 0x1
 1484 079b 9C       		.byte	0x9c
 1485 079c C1070000 		.4byte	0x7c1
 1486 07a0 22       		.uleb128 0x22
 1487 07a1 23030000 		.4byte	.LASF121
 1488 07a5 01       		.byte	0x1
 1489 07a6 C102     		.2byte	0x2c1
 1490 07a8 9F030000 		.4byte	0x39f
 1491 07ac E5010000 		.4byte	.LLST9
 1492 07b0 22       		.uleb128 0x22
 1493 07b1 9D040000 		.4byte	.LASF123
 1494 07b5 01       		.byte	0x1
 1495 07b6 C102     		.2byte	0x2c1
 1496 07b8 DB040000 		.4byte	0x4db
 1497 07bc 06020000 		.4byte	.LLST10
 1498 07c0 00       		.byte	0
 1499 07c1 26       		.uleb128 0x26
 1500 07c2 40040000 		.4byte	.LASF126
 1501 07c6 08       		.byte	0x8
 1502 07c7 0706     		.2byte	0x607
 1503 07c9 CD070000 		.4byte	0x7cd
 1504 07cd 05       		.uleb128 0x5
 1505 07ce AD000000 		.4byte	0xad
 1506 07d2 27       		.uleb128 0x27
 1507 07d3 B7010000 		.4byte	.LASF127
 1508 07d7 01       		.byte	0x1
 1509 07d8 43       		.byte	0x43
 1510 07d9 29030000 		.4byte	0x329
 1511 07dd 05       		.uleb128 0x5
 1512 07de 03       		.byte	0x3
 1513 07df 00000000 		.4byte	PWMD4
 1514 07e3 28       		.uleb128 0x28
 1515 07e4 F1050000 		.4byte	.LASF135
 1516 07e8 0A       		.byte	0xa
 1517 07e9 0302     		.2byte	0x203
 1518 07eb 29       		.uleb128 0x29
 1519 07ec A4060000 		.4byte	.LASF128
 1520 07f0 05       		.byte	0x5
 1521 07f1 F3       		.byte	0xf3
 1522 07f2 FC070000 		.4byte	0x7fc
 1523 07f6 12       		.uleb128 0x12
 1524 07f7 9F030000 		.4byte	0x39f
 1525 07fb 00       		.byte	0
 1526 07fc 2A       		.uleb128 0x2a
 1527 07fd CC000000 		.4byte	.LASF129
 1528 0801 09       		.byte	0x9
 1529 0802 2301     		.2byte	0x123
 1530 0804 13080000 		.4byte	0x813
 1531 0808 12       		.uleb128 0x12
 1532 0809 B8000000 		.4byte	0xb8
 1533 080d 12       		.uleb128 0x12
 1534 080e B8000000 		.4byte	0xb8
 1535 0812 00       		.byte	0
ARM GAS  /tmp/ccVE7kKv.s 			page 28


 1536 0813 2B       		.uleb128 0x2b
 1537 0814 FA010000 		.4byte	.LASF136
 1538 0818 09       		.byte	0x9
 1539 0819 2401     		.2byte	0x124
 1540 081b 12       		.uleb128 0x12
 1541 081c B8000000 		.4byte	0xb8
 1542 0820 00       		.byte	0
 1543 0821 00       		.byte	0
 1544              		.section	.debug_abbrev,"",%progbits
 1545              	.Ldebug_abbrev0:
 1546 0000 01       		.uleb128 0x1
 1547 0001 11       		.uleb128 0x11
 1548 0002 01       		.byte	0x1
 1549 0003 25       		.uleb128 0x25
 1550 0004 0E       		.uleb128 0xe
 1551 0005 13       		.uleb128 0x13
 1552 0006 0B       		.uleb128 0xb
 1553 0007 03       		.uleb128 0x3
 1554 0008 0E       		.uleb128 0xe
 1555 0009 1B       		.uleb128 0x1b
 1556 000a 0E       		.uleb128 0xe
 1557 000b 55       		.uleb128 0x55
 1558 000c 17       		.uleb128 0x17
 1559 000d 11       		.uleb128 0x11
 1560 000e 01       		.uleb128 0x1
 1561 000f 10       		.uleb128 0x10
 1562 0010 17       		.uleb128 0x17
 1563 0011 00       		.byte	0
 1564 0012 00       		.byte	0
 1565 0013 02       		.uleb128 0x2
 1566 0014 24       		.uleb128 0x24
 1567 0015 00       		.byte	0
 1568 0016 0B       		.uleb128 0xb
 1569 0017 0B       		.uleb128 0xb
 1570 0018 3E       		.uleb128 0x3e
 1571 0019 0B       		.uleb128 0xb
 1572 001a 03       		.uleb128 0x3
 1573 001b 0E       		.uleb128 0xe
 1574 001c 00       		.byte	0
 1575 001d 00       		.byte	0
 1576 001e 03       		.uleb128 0x3
 1577 001f 24       		.uleb128 0x24
 1578 0020 00       		.byte	0
 1579 0021 0B       		.uleb128 0xb
 1580 0022 0B       		.uleb128 0xb
 1581 0023 3E       		.uleb128 0x3e
 1582 0024 0B       		.uleb128 0xb
 1583 0025 03       		.uleb128 0x3
 1584 0026 08       		.uleb128 0x8
 1585 0027 00       		.byte	0
 1586 0028 00       		.byte	0
 1587 0029 04       		.uleb128 0x4
 1588 002a 16       		.uleb128 0x16
 1589 002b 00       		.byte	0
 1590 002c 03       		.uleb128 0x3
 1591 002d 0E       		.uleb128 0xe
 1592 002e 3A       		.uleb128 0x3a
ARM GAS  /tmp/ccVE7kKv.s 			page 29


 1593 002f 0B       		.uleb128 0xb
 1594 0030 3B       		.uleb128 0x3b
 1595 0031 0B       		.uleb128 0xb
 1596 0032 49       		.uleb128 0x49
 1597 0033 13       		.uleb128 0x13
 1598 0034 00       		.byte	0
 1599 0035 00       		.byte	0
 1600 0036 05       		.uleb128 0x5
 1601 0037 35       		.uleb128 0x35
 1602 0038 00       		.byte	0
 1603 0039 49       		.uleb128 0x49
 1604 003a 13       		.uleb128 0x13
 1605 003b 00       		.byte	0
 1606 003c 00       		.byte	0
 1607 003d 06       		.uleb128 0x6
 1608 003e 04       		.uleb128 0x4
 1609 003f 01       		.byte	0x1
 1610 0040 03       		.uleb128 0x3
 1611 0041 0E       		.uleb128 0xe
 1612 0042 0B       		.uleb128 0xb
 1613 0043 0B       		.uleb128 0xb
 1614 0044 3A       		.uleb128 0x3a
 1615 0045 0B       		.uleb128 0xb
 1616 0046 3B       		.uleb128 0x3b
 1617 0047 0B       		.uleb128 0xb
 1618 0048 01       		.uleb128 0x1
 1619 0049 13       		.uleb128 0x13
 1620 004a 00       		.byte	0
 1621 004b 00       		.byte	0
 1622 004c 07       		.uleb128 0x7
 1623 004d 28       		.uleb128 0x28
 1624 004e 00       		.byte	0
 1625 004f 03       		.uleb128 0x3
 1626 0050 0E       		.uleb128 0xe
 1627 0051 1C       		.uleb128 0x1c
 1628 0052 0D       		.uleb128 0xd
 1629 0053 00       		.byte	0
 1630 0054 00       		.byte	0
 1631 0055 08       		.uleb128 0x8
 1632 0056 01       		.uleb128 0x1
 1633 0057 01       		.byte	0x1
 1634 0058 49       		.uleb128 0x49
 1635 0059 13       		.uleb128 0x13
 1636 005a 01       		.uleb128 0x1
 1637 005b 13       		.uleb128 0x13
 1638 005c 00       		.byte	0
 1639 005d 00       		.byte	0
 1640 005e 09       		.uleb128 0x9
 1641 005f 21       		.uleb128 0x21
 1642 0060 00       		.byte	0
 1643 0061 49       		.uleb128 0x49
 1644 0062 13       		.uleb128 0x13
 1645 0063 2F       		.uleb128 0x2f
 1646 0064 0B       		.uleb128 0xb
 1647 0065 00       		.byte	0
 1648 0066 00       		.byte	0
 1649 0067 0A       		.uleb128 0xa
ARM GAS  /tmp/ccVE7kKv.s 			page 30


 1650 0068 13       		.uleb128 0x13
 1651 0069 01       		.byte	0x1
 1652 006a 0B       		.uleb128 0xb
 1653 006b 0B       		.uleb128 0xb
 1654 006c 3A       		.uleb128 0x3a
 1655 006d 0B       		.uleb128 0xb
 1656 006e 3B       		.uleb128 0x3b
 1657 006f 05       		.uleb128 0x5
 1658 0070 01       		.uleb128 0x1
 1659 0071 13       		.uleb128 0x13
 1660 0072 00       		.byte	0
 1661 0073 00       		.byte	0
 1662 0074 0B       		.uleb128 0xb
 1663 0075 0D       		.uleb128 0xd
 1664 0076 00       		.byte	0
 1665 0077 03       		.uleb128 0x3
 1666 0078 08       		.uleb128 0x8
 1667 0079 3A       		.uleb128 0x3a
 1668 007a 0B       		.uleb128 0xb
 1669 007b 3B       		.uleb128 0x3b
 1670 007c 05       		.uleb128 0x5
 1671 007d 49       		.uleb128 0x49
 1672 007e 13       		.uleb128 0x13
 1673 007f 38       		.uleb128 0x38
 1674 0080 0B       		.uleb128 0xb
 1675 0081 00       		.byte	0
 1676 0082 00       		.byte	0
 1677 0083 0C       		.uleb128 0xc
 1678 0084 0D       		.uleb128 0xd
 1679 0085 00       		.byte	0
 1680 0086 03       		.uleb128 0x3
 1681 0087 0E       		.uleb128 0xe
 1682 0088 3A       		.uleb128 0x3a
 1683 0089 0B       		.uleb128 0xb
 1684 008a 3B       		.uleb128 0x3b
 1685 008b 05       		.uleb128 0x5
 1686 008c 49       		.uleb128 0x49
 1687 008d 13       		.uleb128 0x13
 1688 008e 38       		.uleb128 0x38
 1689 008f 0B       		.uleb128 0xb
 1690 0090 00       		.byte	0
 1691 0091 00       		.byte	0
 1692 0092 0D       		.uleb128 0xd
 1693 0093 16       		.uleb128 0x16
 1694 0094 00       		.byte	0
 1695 0095 03       		.uleb128 0x3
 1696 0096 0E       		.uleb128 0xe
 1697 0097 3A       		.uleb128 0x3a
 1698 0098 0B       		.uleb128 0xb
 1699 0099 3B       		.uleb128 0x3b
 1700 009a 05       		.uleb128 0x5
 1701 009b 49       		.uleb128 0x49
 1702 009c 13       		.uleb128 0x13
 1703 009d 00       		.byte	0
 1704 009e 00       		.byte	0
 1705 009f 0E       		.uleb128 0xe
 1706 00a0 04       		.uleb128 0x4
ARM GAS  /tmp/ccVE7kKv.s 			page 31


 1707 00a1 01       		.byte	0x1
 1708 00a2 0B       		.uleb128 0xb
 1709 00a3 0B       		.uleb128 0xb
 1710 00a4 3A       		.uleb128 0x3a
 1711 00a5 0B       		.uleb128 0xb
 1712 00a6 3B       		.uleb128 0x3b
 1713 00a7 0B       		.uleb128 0xb
 1714 00a8 01       		.uleb128 0x1
 1715 00a9 13       		.uleb128 0x13
 1716 00aa 00       		.byte	0
 1717 00ab 00       		.byte	0
 1718 00ac 0F       		.uleb128 0xf
 1719 00ad 13       		.uleb128 0x13
 1720 00ae 01       		.byte	0x1
 1721 00af 03       		.uleb128 0x3
 1722 00b0 0E       		.uleb128 0xe
 1723 00b1 0B       		.uleb128 0xb
 1724 00b2 0B       		.uleb128 0xb
 1725 00b3 3A       		.uleb128 0x3a
 1726 00b4 0B       		.uleb128 0xb
 1727 00b5 3B       		.uleb128 0x3b
 1728 00b6 05       		.uleb128 0x5
 1729 00b7 01       		.uleb128 0x1
 1730 00b8 13       		.uleb128 0x13
 1731 00b9 00       		.byte	0
 1732 00ba 00       		.byte	0
 1733 00bb 10       		.uleb128 0x10
 1734 00bc 0F       		.uleb128 0xf
 1735 00bd 00       		.byte	0
 1736 00be 0B       		.uleb128 0xb
 1737 00bf 0B       		.uleb128 0xb
 1738 00c0 49       		.uleb128 0x49
 1739 00c1 13       		.uleb128 0x13
 1740 00c2 00       		.byte	0
 1741 00c3 00       		.byte	0
 1742 00c4 11       		.uleb128 0x11
 1743 00c5 15       		.uleb128 0x15
 1744 00c6 01       		.byte	0x1
 1745 00c7 27       		.uleb128 0x27
 1746 00c8 19       		.uleb128 0x19
 1747 00c9 01       		.uleb128 0x1
 1748 00ca 13       		.uleb128 0x13
 1749 00cb 00       		.byte	0
 1750 00cc 00       		.byte	0
 1751 00cd 12       		.uleb128 0x12
 1752 00ce 05       		.uleb128 0x5
 1753 00cf 00       		.byte	0
 1754 00d0 49       		.uleb128 0x49
 1755 00d1 13       		.uleb128 0x13
 1756 00d2 00       		.byte	0
 1757 00d3 00       		.byte	0
 1758 00d4 13       		.uleb128 0x13
 1759 00d5 26       		.uleb128 0x26
 1760 00d6 00       		.byte	0
 1761 00d7 49       		.uleb128 0x49
 1762 00d8 13       		.uleb128 0x13
 1763 00d9 00       		.byte	0
ARM GAS  /tmp/ccVE7kKv.s 			page 32


 1764 00da 00       		.byte	0
 1765 00db 14       		.uleb128 0x14
 1766 00dc 2E       		.uleb128 0x2e
 1767 00dd 01       		.byte	0x1
 1768 00de 03       		.uleb128 0x3
 1769 00df 0E       		.uleb128 0xe
 1770 00e0 3A       		.uleb128 0x3a
 1771 00e1 0B       		.uleb128 0xb
 1772 00e2 3B       		.uleb128 0x3b
 1773 00e3 0B       		.uleb128 0xb
 1774 00e4 27       		.uleb128 0x27
 1775 00e5 19       		.uleb128 0x19
 1776 00e6 20       		.uleb128 0x20
 1777 00e7 0B       		.uleb128 0xb
 1778 00e8 01       		.uleb128 0x1
 1779 00e9 13       		.uleb128 0x13
 1780 00ea 00       		.byte	0
 1781 00eb 00       		.byte	0
 1782 00ec 15       		.uleb128 0x15
 1783 00ed 05       		.uleb128 0x5
 1784 00ee 00       		.byte	0
 1785 00ef 03       		.uleb128 0x3
 1786 00f0 0E       		.uleb128 0xe
 1787 00f1 3A       		.uleb128 0x3a
 1788 00f2 0B       		.uleb128 0xb
 1789 00f3 3B       		.uleb128 0x3b
 1790 00f4 0B       		.uleb128 0xb
 1791 00f5 49       		.uleb128 0x49
 1792 00f6 13       		.uleb128 0x13
 1793 00f7 00       		.byte	0
 1794 00f8 00       		.byte	0
 1795 00f9 16       		.uleb128 0x16
 1796 00fa 34       		.uleb128 0x34
 1797 00fb 00       		.byte	0
 1798 00fc 03       		.uleb128 0x3
 1799 00fd 08       		.uleb128 0x8
 1800 00fe 3A       		.uleb128 0x3a
 1801 00ff 0B       		.uleb128 0xb
 1802 0100 3B       		.uleb128 0x3b
 1803 0101 0B       		.uleb128 0xb
 1804 0102 49       		.uleb128 0x49
 1805 0103 13       		.uleb128 0x13
 1806 0104 00       		.byte	0
 1807 0105 00       		.byte	0
 1808 0106 17       		.uleb128 0x17
 1809 0107 2E       		.uleb128 0x2e
 1810 0108 01       		.byte	0x1
 1811 0109 3F       		.uleb128 0x3f
 1812 010a 19       		.uleb128 0x19
 1813 010b 03       		.uleb128 0x3
 1814 010c 0E       		.uleb128 0xe
 1815 010d 3A       		.uleb128 0x3a
 1816 010e 0B       		.uleb128 0xb
 1817 010f 3B       		.uleb128 0x3b
 1818 0110 0B       		.uleb128 0xb
 1819 0111 27       		.uleb128 0x27
 1820 0112 19       		.uleb128 0x19
ARM GAS  /tmp/ccVE7kKv.s 			page 33


 1821 0113 11       		.uleb128 0x11
 1822 0114 01       		.uleb128 0x1
 1823 0115 12       		.uleb128 0x12
 1824 0116 06       		.uleb128 0x6
 1825 0117 40       		.uleb128 0x40
 1826 0118 18       		.uleb128 0x18
 1827 0119 9742     		.uleb128 0x2117
 1828 011b 19       		.uleb128 0x19
 1829 011c 01       		.uleb128 0x1
 1830 011d 13       		.uleb128 0x13
 1831 011e 00       		.byte	0
 1832 011f 00       		.byte	0
 1833 0120 18       		.uleb128 0x18
 1834 0121 1D       		.uleb128 0x1d
 1835 0122 01       		.byte	0x1
 1836 0123 31       		.uleb128 0x31
 1837 0124 13       		.uleb128 0x13
 1838 0125 52       		.uleb128 0x52
 1839 0126 01       		.uleb128 0x1
 1840 0127 55       		.uleb128 0x55
 1841 0128 17       		.uleb128 0x17
 1842 0129 58       		.uleb128 0x58
 1843 012a 0B       		.uleb128 0xb
 1844 012b 59       		.uleb128 0x59
 1845 012c 0B       		.uleb128 0xb
 1846 012d 01       		.uleb128 0x1
 1847 012e 13       		.uleb128 0x13
 1848 012f 00       		.byte	0
 1849 0130 00       		.byte	0
 1850 0131 19       		.uleb128 0x19
 1851 0132 05       		.uleb128 0x5
 1852 0133 00       		.byte	0
 1853 0134 31       		.uleb128 0x31
 1854 0135 13       		.uleb128 0x13
 1855 0136 02       		.uleb128 0x2
 1856 0137 18       		.uleb128 0x18
 1857 0138 00       		.byte	0
 1858 0139 00       		.byte	0
 1859 013a 1A       		.uleb128 0x1a
 1860 013b 0B       		.uleb128 0xb
 1861 013c 01       		.byte	0x1
 1862 013d 55       		.uleb128 0x55
 1863 013e 17       		.uleb128 0x17
 1864 013f 00       		.byte	0
 1865 0140 00       		.byte	0
 1866 0141 1B       		.uleb128 0x1b
 1867 0142 34       		.uleb128 0x34
 1868 0143 00       		.byte	0
 1869 0144 31       		.uleb128 0x31
 1870 0145 13       		.uleb128 0x13
 1871 0146 02       		.uleb128 0x2
 1872 0147 17       		.uleb128 0x17
 1873 0148 00       		.byte	0
 1874 0149 00       		.byte	0
 1875 014a 1C       		.uleb128 0x1c
 1876 014b 898201   		.uleb128 0x4109
 1877 014e 01       		.byte	0x1
ARM GAS  /tmp/ccVE7kKv.s 			page 34


 1878 014f 11       		.uleb128 0x11
 1879 0150 01       		.uleb128 0x1
 1880 0151 01       		.uleb128 0x1
 1881 0152 13       		.uleb128 0x13
 1882 0153 00       		.byte	0
 1883 0154 00       		.byte	0
 1884 0155 1D       		.uleb128 0x1d
 1885 0156 8A8201   		.uleb128 0x410a
 1886 0159 00       		.byte	0
 1887 015a 02       		.uleb128 0x2
 1888 015b 18       		.uleb128 0x18
 1889 015c 9142     		.uleb128 0x2111
 1890 015e 18       		.uleb128 0x18
 1891 015f 00       		.byte	0
 1892 0160 00       		.byte	0
 1893 0161 1E       		.uleb128 0x1e
 1894 0162 898201   		.uleb128 0x4109
 1895 0165 01       		.byte	0x1
 1896 0166 11       		.uleb128 0x11
 1897 0167 01       		.uleb128 0x1
 1898 0168 00       		.byte	0
 1899 0169 00       		.byte	0
 1900 016a 1F       		.uleb128 0x1f
 1901 016b 898201   		.uleb128 0x4109
 1902 016e 00       		.byte	0
 1903 016f 11       		.uleb128 0x11
 1904 0170 01       		.uleb128 0x1
 1905 0171 9542     		.uleb128 0x2115
 1906 0173 19       		.uleb128 0x19
 1907 0174 31       		.uleb128 0x31
 1908 0175 13       		.uleb128 0x13
 1909 0176 00       		.byte	0
 1910 0177 00       		.byte	0
 1911 0178 20       		.uleb128 0x20
 1912 0179 2E       		.uleb128 0x2e
 1913 017a 01       		.byte	0x1
 1914 017b 3F       		.uleb128 0x3f
 1915 017c 19       		.uleb128 0x19
 1916 017d 03       		.uleb128 0x3
 1917 017e 0E       		.uleb128 0xe
 1918 017f 3A       		.uleb128 0x3a
 1919 0180 0B       		.uleb128 0xb
 1920 0181 3B       		.uleb128 0x3b
 1921 0182 05       		.uleb128 0x5
 1922 0183 27       		.uleb128 0x27
 1923 0184 19       		.uleb128 0x19
 1924 0185 11       		.uleb128 0x11
 1925 0186 01       		.uleb128 0x1
 1926 0187 12       		.uleb128 0x12
 1927 0188 06       		.uleb128 0x6
 1928 0189 40       		.uleb128 0x40
 1929 018a 18       		.uleb128 0x18
 1930 018b 9742     		.uleb128 0x2117
 1931 018d 19       		.uleb128 0x19
 1932 018e 01       		.uleb128 0x1
 1933 018f 13       		.uleb128 0x13
 1934 0190 00       		.byte	0
ARM GAS  /tmp/ccVE7kKv.s 			page 35


 1935 0191 00       		.byte	0
 1936 0192 21       		.uleb128 0x21
 1937 0193 898201   		.uleb128 0x4109
 1938 0196 01       		.byte	0x1
 1939 0197 11       		.uleb128 0x11
 1940 0198 01       		.uleb128 0x1
 1941 0199 31       		.uleb128 0x31
 1942 019a 13       		.uleb128 0x13
 1943 019b 00       		.byte	0
 1944 019c 00       		.byte	0
 1945 019d 22       		.uleb128 0x22
 1946 019e 05       		.uleb128 0x5
 1947 019f 00       		.byte	0
 1948 01a0 03       		.uleb128 0x3
 1949 01a1 0E       		.uleb128 0xe
 1950 01a2 3A       		.uleb128 0x3a
 1951 01a3 0B       		.uleb128 0xb
 1952 01a4 3B       		.uleb128 0x3b
 1953 01a5 05       		.uleb128 0x5
 1954 01a6 49       		.uleb128 0x49
 1955 01a7 13       		.uleb128 0x13
 1956 01a8 02       		.uleb128 0x2
 1957 01a9 17       		.uleb128 0x17
 1958 01aa 00       		.byte	0
 1959 01ab 00       		.byte	0
 1960 01ac 23       		.uleb128 0x23
 1961 01ad 34       		.uleb128 0x34
 1962 01ae 00       		.byte	0
 1963 01af 03       		.uleb128 0x3
 1964 01b0 08       		.uleb128 0x8
 1965 01b1 3A       		.uleb128 0x3a
 1966 01b2 0B       		.uleb128 0xb
 1967 01b3 3B       		.uleb128 0x3b
 1968 01b4 05       		.uleb128 0x5
 1969 01b5 49       		.uleb128 0x49
 1970 01b6 13       		.uleb128 0x13
 1971 01b7 02       		.uleb128 0x2
 1972 01b8 17       		.uleb128 0x17
 1973 01b9 00       		.byte	0
 1974 01ba 00       		.byte	0
 1975 01bb 24       		.uleb128 0x24
 1976 01bc 34       		.uleb128 0x34
 1977 01bd 00       		.byte	0
 1978 01be 03       		.uleb128 0x3
 1979 01bf 0E       		.uleb128 0xe
 1980 01c0 3A       		.uleb128 0x3a
 1981 01c1 0B       		.uleb128 0xb
 1982 01c2 3B       		.uleb128 0x3b
 1983 01c3 05       		.uleb128 0x5
 1984 01c4 49       		.uleb128 0x49
 1985 01c5 13       		.uleb128 0x13
 1986 01c6 02       		.uleb128 0x2
 1987 01c7 17       		.uleb128 0x17
 1988 01c8 00       		.byte	0
 1989 01c9 00       		.byte	0
 1990 01ca 25       		.uleb128 0x25
 1991 01cb 0B       		.uleb128 0xb
ARM GAS  /tmp/ccVE7kKv.s 			page 36


 1992 01cc 01       		.byte	0x1
 1993 01cd 11       		.uleb128 0x11
 1994 01ce 01       		.uleb128 0x1
 1995 01cf 12       		.uleb128 0x12
 1996 01d0 06       		.uleb128 0x6
 1997 01d1 00       		.byte	0
 1998 01d2 00       		.byte	0
 1999 01d3 26       		.uleb128 0x26
 2000 01d4 34       		.uleb128 0x34
 2001 01d5 00       		.byte	0
 2002 01d6 03       		.uleb128 0x3
 2003 01d7 0E       		.uleb128 0xe
 2004 01d8 3A       		.uleb128 0x3a
 2005 01d9 0B       		.uleb128 0xb
 2006 01da 3B       		.uleb128 0x3b
 2007 01db 05       		.uleb128 0x5
 2008 01dc 49       		.uleb128 0x49
 2009 01dd 13       		.uleb128 0x13
 2010 01de 3F       		.uleb128 0x3f
 2011 01df 19       		.uleb128 0x19
 2012 01e0 3C       		.uleb128 0x3c
 2013 01e1 19       		.uleb128 0x19
 2014 01e2 00       		.byte	0
 2015 01e3 00       		.byte	0
 2016 01e4 27       		.uleb128 0x27
 2017 01e5 34       		.uleb128 0x34
 2018 01e6 00       		.byte	0
 2019 01e7 03       		.uleb128 0x3
 2020 01e8 0E       		.uleb128 0xe
 2021 01e9 3A       		.uleb128 0x3a
 2022 01ea 0B       		.uleb128 0xb
 2023 01eb 3B       		.uleb128 0x3b
 2024 01ec 0B       		.uleb128 0xb
 2025 01ed 49       		.uleb128 0x49
 2026 01ee 13       		.uleb128 0x13
 2027 01ef 3F       		.uleb128 0x3f
 2028 01f0 19       		.uleb128 0x19
 2029 01f1 02       		.uleb128 0x2
 2030 01f2 18       		.uleb128 0x18
 2031 01f3 00       		.byte	0
 2032 01f4 00       		.byte	0
 2033 01f5 28       		.uleb128 0x28
 2034 01f6 2E       		.uleb128 0x2e
 2035 01f7 00       		.byte	0
 2036 01f8 3F       		.uleb128 0x3f
 2037 01f9 19       		.uleb128 0x19
 2038 01fa 03       		.uleb128 0x3
 2039 01fb 0E       		.uleb128 0xe
 2040 01fc 3A       		.uleb128 0x3a
 2041 01fd 0B       		.uleb128 0xb
 2042 01fe 3B       		.uleb128 0x3b
 2043 01ff 05       		.uleb128 0x5
 2044 0200 27       		.uleb128 0x27
 2045 0201 19       		.uleb128 0x19
 2046 0202 3C       		.uleb128 0x3c
 2047 0203 19       		.uleb128 0x19
 2048 0204 00       		.byte	0
ARM GAS  /tmp/ccVE7kKv.s 			page 37


 2049 0205 00       		.byte	0
 2050 0206 29       		.uleb128 0x29
 2051 0207 2E       		.uleb128 0x2e
 2052 0208 01       		.byte	0x1
 2053 0209 3F       		.uleb128 0x3f
 2054 020a 19       		.uleb128 0x19
 2055 020b 03       		.uleb128 0x3
 2056 020c 0E       		.uleb128 0xe
 2057 020d 3A       		.uleb128 0x3a
 2058 020e 0B       		.uleb128 0xb
 2059 020f 3B       		.uleb128 0x3b
 2060 0210 0B       		.uleb128 0xb
 2061 0211 27       		.uleb128 0x27
 2062 0212 19       		.uleb128 0x19
 2063 0213 3C       		.uleb128 0x3c
 2064 0214 19       		.uleb128 0x19
 2065 0215 01       		.uleb128 0x1
 2066 0216 13       		.uleb128 0x13
 2067 0217 00       		.byte	0
 2068 0218 00       		.byte	0
 2069 0219 2A       		.uleb128 0x2a
 2070 021a 2E       		.uleb128 0x2e
 2071 021b 01       		.byte	0x1
 2072 021c 3F       		.uleb128 0x3f
 2073 021d 19       		.uleb128 0x19
 2074 021e 03       		.uleb128 0x3
 2075 021f 0E       		.uleb128 0xe
 2076 0220 3A       		.uleb128 0x3a
 2077 0221 0B       		.uleb128 0xb
 2078 0222 3B       		.uleb128 0x3b
 2079 0223 05       		.uleb128 0x5
 2080 0224 27       		.uleb128 0x27
 2081 0225 19       		.uleb128 0x19
 2082 0226 3C       		.uleb128 0x3c
 2083 0227 19       		.uleb128 0x19
 2084 0228 01       		.uleb128 0x1
 2085 0229 13       		.uleb128 0x13
 2086 022a 00       		.byte	0
 2087 022b 00       		.byte	0
 2088 022c 2B       		.uleb128 0x2b
 2089 022d 2E       		.uleb128 0x2e
 2090 022e 01       		.byte	0x1
 2091 022f 3F       		.uleb128 0x3f
 2092 0230 19       		.uleb128 0x19
 2093 0231 03       		.uleb128 0x3
 2094 0232 0E       		.uleb128 0xe
 2095 0233 3A       		.uleb128 0x3a
 2096 0234 0B       		.uleb128 0xb
 2097 0235 3B       		.uleb128 0x3b
 2098 0236 05       		.uleb128 0x5
 2099 0237 27       		.uleb128 0x27
 2100 0238 19       		.uleb128 0x19
 2101 0239 3C       		.uleb128 0x3c
 2102 023a 19       		.uleb128 0x19
 2103 023b 00       		.byte	0
 2104 023c 00       		.byte	0
 2105 023d 00       		.byte	0
ARM GAS  /tmp/ccVE7kKv.s 			page 38


 2106              		.section	.debug_loc,"",%progbits
 2107              	.Ldebug_loc0:
 2108              	.LLST0:
 2109 0000 0E000000 		.4byte	.LVL1
 2110 0004 14000000 		.4byte	.LVL2
 2111 0008 0100     		.2byte	0x1
 2112 000a 52       		.byte	0x52
 2113 000b 14000000 		.4byte	.LVL2
 2114 000f 40000000 		.4byte	.LVL4
 2115 0013 0600     		.2byte	0x6
 2116 0015 74       		.byte	0x74
 2117 0016 00       		.sleb128 0
 2118 0017 08       		.byte	0x8
 2119 0018 FF       		.byte	0xff
 2120 0019 1A       		.byte	0x1a
 2121 001a 9F       		.byte	0x9f
 2122 001b 44000000 		.4byte	.LVL5
 2123 001f 7E000000 		.4byte	.LFE64
 2124 0023 0600     		.2byte	0x6
 2125 0025 74       		.byte	0x74
 2126 0026 00       		.sleb128 0
 2127 0027 08       		.byte	0x8
 2128 0028 FF       		.byte	0xff
 2129 0029 1A       		.byte	0x1a
 2130 002a 9F       		.byte	0x9f
 2131 002b 00000000 		.4byte	0
 2132 002f 00000000 		.4byte	0
 2133              	.LLST1:
 2134 0033 00000000 		.4byte	.LVL11
 2135 0037 10000000 		.4byte	.LVL12
 2136 003b 0100     		.2byte	0x1
 2137 003d 50       		.byte	0x50
 2138 003e 10000000 		.4byte	.LVL12
 2139 0042 2C000000 		.4byte	.LVL14
 2140 0046 0100     		.2byte	0x1
 2141 0048 54       		.byte	0x54
 2142 0049 2C000000 		.4byte	.LVL14
 2143 004d B8000000 		.4byte	.LVL31
 2144 0051 0400     		.2byte	0x4
 2145 0053 F3       		.byte	0xf3
 2146 0054 01       		.uleb128 0x1
 2147 0055 50       		.byte	0x50
 2148 0056 9F       		.byte	0x9f
 2149 0057 B8000000 		.4byte	.LVL31
 2150 005b C4000000 		.4byte	.LVL32
 2151 005f 0100     		.2byte	0x1
 2152 0061 50       		.byte	0x50
 2153 0062 C4000000 		.4byte	.LVL32
 2154 0066 D2000000 		.4byte	.LVL33
 2155 006a 0100     		.2byte	0x1
 2156 006c 54       		.byte	0x54
 2157 006d D2000000 		.4byte	.LVL33
 2158 0071 E8000000 		.4byte	.LVL34
 2159 0075 0100     		.2byte	0x1
 2160 0077 50       		.byte	0x50
 2161 0078 E8000000 		.4byte	.LVL34
 2162 007c 02010000 		.4byte	.LFE66
ARM GAS  /tmp/ccVE7kKv.s 			page 39


 2163 0080 0100     		.2byte	0x1
 2164 0082 54       		.byte	0x54
 2165 0083 00000000 		.4byte	0
 2166 0087 00000000 		.4byte	0
 2167              	.LLST2:
 2168 008b 26000000 		.4byte	.LVL13
 2169 008f 2C000000 		.4byte	.LVL14
 2170 0093 1000     		.2byte	0x10
 2171 0095 74       		.byte	0x74
 2172 0096 0C       		.sleb128 12
 2173 0097 06       		.byte	0x6
 2174 0098 F7       		.byte	0xf7
 2175 0099 25       		.uleb128 0x25
 2176 009a 72       		.byte	0x72
 2177 009b 00       		.sleb128 0
 2178 009c 06       		.byte	0x6
 2179 009d F7       		.byte	0xf7
 2180 009e 25       		.uleb128 0x25
 2181 009f 1B       		.byte	0x1b
 2182 00a0 F7       		.byte	0xf7
 2183 00a1 00       		.uleb128 0
 2184 00a2 31       		.byte	0x31
 2185 00a3 1C       		.byte	0x1c
 2186 00a4 9F       		.byte	0x9f
 2187 00a5 2C000000 		.4byte	.LVL14
 2188 00a9 30000000 		.4byte	.LVL15
 2189 00ad 0F00     		.2byte	0xf
 2190 00af 75       		.byte	0x75
 2191 00b0 00       		.sleb128 0
 2192 00b1 F7       		.byte	0xf7
 2193 00b2 25       		.uleb128 0x25
 2194 00b3 72       		.byte	0x72
 2195 00b4 00       		.sleb128 0
 2196 00b5 06       		.byte	0x6
 2197 00b6 F7       		.byte	0xf7
 2198 00b7 25       		.uleb128 0x25
 2199 00b8 1B       		.byte	0x1b
 2200 00b9 F7       		.byte	0xf7
 2201 00ba 00       		.uleb128 0
 2202 00bb 31       		.byte	0x31
 2203 00bc 1C       		.byte	0x1c
 2204 00bd 9F       		.byte	0x9f
 2205 00be 30000000 		.4byte	.LVL15
 2206 00c2 38000000 		.4byte	.LVL16
 2207 00c6 1300     		.2byte	0x13
 2208 00c8 F3       		.byte	0xf3
 2209 00c9 01       		.uleb128 0x1
 2210 00ca 50       		.byte	0x50
 2211 00cb 23       		.byte	0x23
 2212 00cc 0C       		.uleb128 0xc
 2213 00cd 06       		.byte	0x6
 2214 00ce F7       		.byte	0xf7
 2215 00cf 25       		.uleb128 0x25
 2216 00d0 72       		.byte	0x72
 2217 00d1 00       		.sleb128 0
 2218 00d2 06       		.byte	0x6
 2219 00d3 F7       		.byte	0xf7
ARM GAS  /tmp/ccVE7kKv.s 			page 40


 2220 00d4 25       		.uleb128 0x25
 2221 00d5 1B       		.byte	0x1b
 2222 00d6 F7       		.byte	0xf7
 2223 00d7 00       		.uleb128 0
 2224 00d8 31       		.byte	0x31
 2225 00d9 1C       		.byte	0x1c
 2226 00da 9F       		.byte	0x9f
 2227 00db 38000000 		.4byte	.LVL16
 2228 00df 40000000 		.4byte	.LVL17
 2229 00e3 0100     		.2byte	0x1
 2230 00e5 55       		.byte	0x55
 2231 00e6 40000000 		.4byte	.LVL17
 2232 00ea 44000000 		.4byte	.LVL18
 2233 00ee 1300     		.2byte	0x13
 2234 00f0 F3       		.byte	0xf3
 2235 00f1 01       		.uleb128 0x1
 2236 00f2 50       		.byte	0x50
 2237 00f3 23       		.byte	0x23
 2238 00f4 0C       		.uleb128 0xc
 2239 00f5 06       		.byte	0x6
 2240 00f6 F7       		.byte	0xf7
 2241 00f7 25       		.uleb128 0x25
 2242 00f8 72       		.byte	0x72
 2243 00f9 00       		.sleb128 0
 2244 00fa 06       		.byte	0x6
 2245 00fb F7       		.byte	0xf7
 2246 00fc 25       		.uleb128 0x25
 2247 00fd 1B       		.byte	0x1b
 2248 00fe F7       		.byte	0xf7
 2249 00ff 00       		.uleb128 0
 2250 0100 31       		.byte	0x31
 2251 0101 1C       		.byte	0x1c
 2252 0102 9F       		.byte	0x9f
 2253 0103 00000000 		.4byte	0
 2254 0107 00000000 		.4byte	0
 2255              	.LLST3:
 2256 010b 48000000 		.4byte	.LVL19
 2257 010f 52000000 		.4byte	.LVL20
 2258 0113 0200     		.2byte	0x2
 2259 0115 30       		.byte	0x30
 2260 0116 9F       		.byte	0x9f
 2261 0117 52000000 		.4byte	.LVL20
 2262 011b 90000000 		.4byte	.LVL25
 2263 011f 0100     		.2byte	0x1
 2264 0121 51       		.byte	0x51
 2265 0122 A4000000 		.4byte	.LVL26
 2266 0126 B8000000 		.4byte	.LVL31
 2267 012a 0100     		.2byte	0x1
 2268 012c 51       		.byte	0x51
 2269 012d 00000000 		.4byte	0
 2270 0131 00000000 		.4byte	0
 2271              	.LLST4:
 2272 0135 00000000 		.4byte	.LVL36
 2273 0139 08000000 		.4byte	.LVL37
 2274 013d 0100     		.2byte	0x1
 2275 013f 50       		.byte	0x50
 2276 0140 08000000 		.4byte	.LVL37
ARM GAS  /tmp/ccVE7kKv.s 			page 41


 2277 0144 0A000000 		.4byte	.LVL38
 2278 0148 0400     		.2byte	0x4
 2279 014a F3       		.byte	0xf3
 2280 014b 01       		.uleb128 0x1
 2281 014c 50       		.byte	0x50
 2282 014d 9F       		.byte	0x9f
 2283 014e 0A000000 		.4byte	.LVL38
 2284 0152 22000000 		.4byte	.LVL39
 2285 0156 0100     		.2byte	0x1
 2286 0158 50       		.byte	0x50
 2287 0159 22000000 		.4byte	.LVL39
 2288 015d 38000000 		.4byte	.LFE67
 2289 0161 0400     		.2byte	0x4
 2290 0163 F3       		.byte	0xf3
 2291 0164 01       		.uleb128 0x1
 2292 0165 50       		.byte	0x50
 2293 0166 9F       		.byte	0x9f
 2294 0167 00000000 		.4byte	0
 2295 016b 00000000 		.4byte	0
 2296              	.LLST5:
 2297 016f 00000000 		.4byte	.LVL41
 2298 0173 0C000000 		.4byte	.LVL42
 2299 0177 0100     		.2byte	0x1
 2300 0179 50       		.byte	0x50
 2301 017a 0C000000 		.4byte	.LVL42
 2302 017e 32000000 		.4byte	.LFE68
 2303 0182 0400     		.2byte	0x4
 2304 0184 F3       		.byte	0xf3
 2305 0185 01       		.uleb128 0x1
 2306 0186 50       		.byte	0x50
 2307 0187 9F       		.byte	0x9f
 2308 0188 00000000 		.4byte	0
 2309 018c 00000000 		.4byte	0
 2310              	.LLST6:
 2311 0190 00000000 		.4byte	.LVL41
 2312 0194 1E000000 		.4byte	.LVL44
 2313 0198 0100     		.2byte	0x1
 2314 019a 51       		.byte	0x51
 2315 019b 1E000000 		.4byte	.LVL44
 2316 019f 32000000 		.4byte	.LFE68
 2317 01a3 0400     		.2byte	0x4
 2318 01a5 F3       		.byte	0xf3
 2319 01a6 01       		.uleb128 0x1
 2320 01a7 51       		.byte	0x51
 2321 01a8 9F       		.byte	0x9f
 2322 01a9 00000000 		.4byte	0
 2323 01ad 00000000 		.4byte	0
 2324              	.LLST7:
 2325 01b1 00000000 		.4byte	.LVL41
 2326 01b5 1A000000 		.4byte	.LVL43
 2327 01b9 0100     		.2byte	0x1
 2328 01bb 52       		.byte	0x52
 2329 01bc 1A000000 		.4byte	.LVL43
 2330 01c0 32000000 		.4byte	.LFE68
 2331 01c4 0400     		.2byte	0x4
 2332 01c6 F3       		.byte	0xf3
 2333 01c7 01       		.uleb128 0x1
ARM GAS  /tmp/ccVE7kKv.s 			page 42


 2334 01c8 52       		.byte	0x52
 2335 01c9 9F       		.byte	0x9f
 2336 01ca 00000000 		.4byte	0
 2337 01ce 00000000 		.4byte	0
 2338              	.LLST8:
 2339 01d2 20000000 		.4byte	.LVL45
 2340 01d6 26000000 		.4byte	.LVL46
 2341 01da 0100     		.2byte	0x1
 2342 01dc 52       		.byte	0x52
 2343 01dd 00000000 		.4byte	0
 2344 01e1 00000000 		.4byte	0
 2345              	.LLST9:
 2346 01e5 00000000 		.4byte	.LVL47
 2347 01e9 0E000000 		.4byte	.LVL49
 2348 01ed 0100     		.2byte	0x1
 2349 01ef 50       		.byte	0x50
 2350 01f0 0E000000 		.4byte	.LVL49
 2351 01f4 1A000000 		.4byte	.LFE69
 2352 01f8 0400     		.2byte	0x4
 2353 01fa F3       		.byte	0xf3
 2354 01fb 01       		.uleb128 0x1
 2355 01fc 50       		.byte	0x50
 2356 01fd 9F       		.byte	0x9f
 2357 01fe 00000000 		.4byte	0
 2358 0202 00000000 		.4byte	0
 2359              	.LLST10:
 2360 0206 00000000 		.4byte	.LVL47
 2361 020a 08000000 		.4byte	.LVL48
 2362 020e 0100     		.2byte	0x1
 2363 0210 51       		.byte	0x51
 2364 0211 08000000 		.4byte	.LVL48
 2365 0215 1A000000 		.4byte	.LFE69
 2366 0219 0400     		.2byte	0x4
 2367 021b F3       		.byte	0xf3
 2368 021c 01       		.uleb128 0x1
 2369 021d 51       		.byte	0x51
 2370 021e 9F       		.byte	0x9f
 2371 021f 00000000 		.4byte	0
 2372 0223 00000000 		.4byte	0
 2373              		.section	.debug_aranges,"",%progbits
 2374 0000 44000000 		.4byte	0x44
 2375 0004 0200     		.2byte	0x2
 2376 0006 00000000 		.4byte	.Ldebug_info0
 2377 000a 04       		.byte	0x4
 2378 000b 00       		.byte	0
 2379 000c 0000     		.2byte	0
 2380 000e 0000     		.2byte	0
 2381 0010 00000000 		.4byte	.LFB64
 2382 0014 7E000000 		.4byte	.LFE64-.LFB64
 2383 0018 00000000 		.4byte	.LFB65
 2384 001c 1C000000 		.4byte	.LFE65-.LFB65
 2385 0020 00000000 		.4byte	.LFB66
 2386 0024 02010000 		.4byte	.LFE66-.LFB66
 2387 0028 00000000 		.4byte	.LFB67
 2388 002c 38000000 		.4byte	.LFE67-.LFB67
 2389 0030 00000000 		.4byte	.LFB68
 2390 0034 32000000 		.4byte	.LFE68-.LFB68
ARM GAS  /tmp/ccVE7kKv.s 			page 43


 2391 0038 00000000 		.4byte	.LFB69
 2392 003c 1A000000 		.4byte	.LFE69-.LFB69
 2393 0040 00000000 		.4byte	0
 2394 0044 00000000 		.4byte	0
 2395              		.section	.debug_ranges,"",%progbits
 2396              	.Ldebug_ranges0:
 2397 0000 02000000 		.4byte	.LBB4
 2398 0004 3C000000 		.4byte	.LBE4
 2399 0008 44000000 		.4byte	.LBB7
 2400 000c 7E000000 		.4byte	.LBE7
 2401 0010 00000000 		.4byte	0
 2402 0014 00000000 		.4byte	0
 2403 0018 00000000 		.4byte	.LFB64
 2404 001c 7E000000 		.4byte	.LFE64
 2405 0020 00000000 		.4byte	.LFB65
 2406 0024 1C000000 		.4byte	.LFE65
 2407 0028 00000000 		.4byte	.LFB66
 2408 002c 02010000 		.4byte	.LFE66
 2409 0030 00000000 		.4byte	.LFB67
 2410 0034 38000000 		.4byte	.LFE67
 2411 0038 00000000 		.4byte	.LFB68
 2412 003c 32000000 		.4byte	.LFE68
 2413 0040 00000000 		.4byte	.LFB69
 2414 0044 1A000000 		.4byte	.LFE69
 2415 0048 00000000 		.4byte	0
 2416 004c 00000000 		.4byte	0
 2417              		.section	.debug_line,"",%progbits
 2418              	.Ldebug_line0:
 2419 0000 D1020000 		.section	.debug_str,"MS",%progbits,1
 2419      0200C901 
 2419      00000201 
 2419      FB0E0D00 
 2419      01010101 
 2420              	.LASF107:
 2421 0000 70776D63 		.ascii	"pwmchannel_t\000"
 2421      68616E6E 
 2421      656C5F74 
 2421      00
 2422              	.LASF83:
 2423 000d 41504231 		.ascii	"APB1LPENR\000"
 2423      4C50454E 
 2423      5200
 2424              	.LASF29:
 2425 0017 5056445F 		.ascii	"PVD_IRQn\000"
 2425      4952516E 
 2425      00
 2426              	.LASF96:
 2427 0020 44494552 		.ascii	"DIER\000"
 2427      00
 2428              	.LASF51:
 2429 0025 45585449 		.ascii	"EXTI9_5_IRQn\000"
 2429      395F355F 
 2429      4952516E 
 2429      00
 2430              	.LASF50:
 2431 0032 434F4D50 		.ascii	"COMP_IRQn\000"
 2431      5F495251 
ARM GAS  /tmp/ccVE7kKv.s 			page 44


 2431      6E00
 2432              	.LASF59:
 2433 003c 49324331 		.ascii	"I2C1_EV_IRQn\000"
 2433      5F45565F 
 2433      4952516E 
 2433      00
 2434              	.LASF4:
 2435 0049 5F5F7569 		.ascii	"__uint8_t\000"
 2435      6E74385F 
 2435      7400
 2436              	.LASF92:
 2437 0053 70657269 		.ascii	"period\000"
 2437      6F6400
 2438              	.LASF81:
 2439 005a 4148424C 		.ascii	"AHBLPENR\000"
 2439      50454E52 
 2439      00
 2440              	.LASF12:
 2441 0063 6C6F6E67 		.ascii	"long long unsigned int\000"
 2441      206C6F6E 
 2441      6720756E 
 2441      7369676E 
 2441      65642069 
 2442              	.LASF69:
 2443 007a 5254435F 		.ascii	"RTC_Alarm_IRQn\000"
 2443      416C6172 
 2443      6D5F4952 
 2443      516E00
 2444              	.LASF62:
 2445 0089 49324332 		.ascii	"I2C2_ER_IRQn\000"
 2445      5F45525F 
 2445      4952516E 
 2445      00
 2446              	.LASF58:
 2447 0096 54494D34 		.ascii	"TIM4_IRQn\000"
 2447      5F495251 
 2447      6E00
 2448              	.LASF31:
 2449 00a0 5254435F 		.ascii	"RTC_WKUP_IRQn\000"
 2449      574B5550 
 2449      5F495251 
 2449      6E00
 2450              	.LASF28:
 2451 00ae 57574447 		.ascii	"WWDG_IRQn\000"
 2451      5F495251 
 2451      6E00
 2452              	.LASF112:
 2453 00b8 66726571 		.ascii	"frequency\000"
 2453      75656E63 
 2453      7900
 2454              	.LASF87:
 2455 00c2 50574D5F 		.ascii	"PWM_READY\000"
 2455      52454144 
 2455      5900
 2456              	.LASF129:
 2457 00cc 6E766963 		.ascii	"nvicEnableVector\000"
 2457      456E6162 
ARM GAS  /tmp/ccVE7kKv.s 			page 45


 2457      6C655665 
 2457      63746F72 
 2457      00
 2458              	.LASF97:
 2459 00dd 43434D52 		.ascii	"CCMR1\000"
 2459      3100
 2460              	.LASF98:
 2461 00e3 43434D52 		.ascii	"CCMR2\000"
 2461      3200
 2462              	.LASF102:
 2463 00e9 43434D52 		.ascii	"CCMR3\000"
 2463      3300
 2464              	.LASF1:
 2465 00ef 7369676E 		.ascii	"signed char\000"
 2465      65642063 
 2465      68617200 
 2466              	.LASF106:
 2467 00fb 70776D6D 		.ascii	"pwmmode_t\000"
 2467      6F64655F 
 2467      7400
 2468              	.LASF90:
 2469 0105 73746174 		.ascii	"state\000"
 2469      6500
 2470              	.LASF113:
 2471 010b 6368616E 		.ascii	"channels\000"
 2471      6E656C73 
 2471      00
 2472              	.LASF8:
 2473 0114 6C6F6E67 		.ascii	"long int\000"
 2473      20696E74 
 2473      00
 2474              	.LASF118:
 2475 011d 70776D5F 		.ascii	"pwm_lld_start\000"
 2475      6C6C645F 
 2475      73746172 
 2475      7400
 2476              	.LASF76:
 2477 012b 41504232 		.ascii	"APB2RSTR\000"
 2477      52535452 
 2477      00
 2478              	.LASF131:
 2479 0134 2E2E2F43 		.ascii	"../ChibiOS_2.6.4/os/hal/platforms/STM32/TIMv1/pwm_l"
 2479      68696269 
 2479      4F535F32 
 2479      2E362E34 
 2479      2F6F732F 
 2480 0167 6C642E63 		.ascii	"ld.c\000"
 2480      00
 2481              	.LASF0:
 2482 016c 756E7369 		.ascii	"unsigned int\000"
 2482      676E6564 
 2482      20696E74 
 2482      00
 2483              	.LASF99:
 2484 0179 43434552 		.ascii	"CCER\000"
 2484      00
 2485              	.LASF11:
ARM GAS  /tmp/ccVE7kKv.s 			page 46


 2486 017e 6C6F6E67 		.ascii	"long long int\000"
 2486      206C6F6E 
 2486      6720696E 
 2486      7400
 2487              	.LASF14:
 2488 018c 75696E74 		.ascii	"uint16_t\000"
 2488      31365F74 
 2488      00
 2489              	.LASF54:
 2490 0195 54494D31 		.ascii	"TIM10_IRQn\000"
 2490      305F4952 
 2490      516E00
 2491              	.LASF26:
 2492 01a0 50656E64 		.ascii	"PendSV_IRQn\000"
 2492      53565F49 
 2492      52516E00 
 2493              	.LASF5:
 2494 01ac 5F5F7569 		.ascii	"__uint16_t\000"
 2494      6E743136 
 2494      5F7400
 2495              	.LASF127:
 2496 01b7 50574D44 		.ascii	"PWMD4\000"
 2496      3400
 2497              	.LASF116:
 2498 01bd 56656374 		.ascii	"VectorB8\000"
 2498      6F724238 
 2498      00
 2499              	.LASF9:
 2500 01c6 5F5F7569 		.ascii	"__uint32_t\000"
 2500      6E743332 
 2500      5F7400
 2501              	.LASF22:
 2502 01d1 42757346 		.ascii	"BusFault_IRQn\000"
 2502      61756C74 
 2502      5F495251 
 2502      6E00
 2503              	.LASF47:
 2504 01df 5553425F 		.ascii	"USB_HP_IRQn\000"
 2504      48505F49 
 2504      52516E00 
 2505              	.LASF100:
 2506 01eb 42445452 		.ascii	"BDTR\000"
 2506      00
 2507              	.LASF53:
 2508 01f0 54494D39 		.ascii	"TIM9_IRQn\000"
 2508      5F495251 
 2508      6E00
 2509              	.LASF136:
 2510 01fa 6E766963 		.ascii	"nvicDisableVector\000"
 2510      44697361 
 2510      626C6556 
 2510      6563746F 
 2510      7200
 2511              	.LASF21:
 2512 020c 4D656D6F 		.ascii	"MemoryManagement_IRQn\000"
 2512      72794D61 
 2512      6E616765 
ARM GAS  /tmp/ccVE7kKv.s 			page 47


 2512      6D656E74 
 2512      5F495251 
 2513              	.LASF10:
 2514 0222 6C6F6E67 		.ascii	"long unsigned int\000"
 2514      20756E73 
 2514      69676E65 
 2514      6420696E 
 2514      7400
 2515              	.LASF84:
 2516 0234 5243435F 		.ascii	"RCC_TypeDef\000"
 2516      54797065 
 2516      44656600 
 2517              	.LASF124:
 2518 0240 77696474 		.ascii	"width\000"
 2518      6800
 2519              	.LASF43:
 2520 0246 444D4131 		.ascii	"DMA1_Channel5_IRQn\000"
 2520      5F436861 
 2520      6E6E656C 
 2520      355F4952 
 2520      516E00
 2521              	.LASF95:
 2522 0259 534D4352 		.ascii	"SMCR\000"
 2522      00
 2523              	.LASF68:
 2524 025e 45585449 		.ascii	"EXTI15_10_IRQn\000"
 2524      31355F31 
 2524      305F4952 
 2524      516E00
 2525              	.LASF130:
 2526 026d 474E5520 		.ascii	"GNU C 4.8.2 -mcpu=cortex-m3 -mno-thumb-interwork -m"
 2526      4320342E 
 2526      382E3220 
 2526      2D6D6370 
 2526      753D636F 
 2527 02a0 7468756D 		.ascii	"thumb -ggdb -O2 -fomit-frame-pointer -ffunction-sec"
 2527      62202D67 
 2527      67646220 
 2527      2D4F3220 
 2527      2D666F6D 
 2528 02d3 74696F6E 		.ascii	"tions -fdata-sections -fno-common\000"
 2528      73202D66 
 2528      64617461 
 2528      2D736563 
 2528      74696F6E 
 2529              	.LASF63:
 2530 02f5 53504931 		.ascii	"SPI1_IRQn\000"
 2530      5F495251 
 2530      6E00
 2531              	.LASF110:
 2532 02ff 63616C6C 		.ascii	"callback\000"
 2532      6261636B 
 2532      00
 2533              	.LASF105:
 2534 0308 73746D33 		.ascii	"stm32_tim_t\000"
 2534      325F7469 
 2534      6D5F7400 
ARM GAS  /tmp/ccVE7kKv.s 			page 48


 2535              	.LASF82:
 2536 0314 41504232 		.ascii	"APB2LPENR\000"
 2536      4C50454E 
 2536      5200
 2537              	.LASF119:
 2538 031e 63636572 		.ascii	"ccer\000"
 2538      00
 2539              	.LASF121:
 2540 0323 70776D70 		.ascii	"pwmp\000"
 2540      00
 2541              	.LASF27:
 2542 0328 53797354 		.ascii	"SysTick_IRQn\000"
 2542      69636B5F 
 2542      4952516E 
 2542      00
 2543              	.LASF46:
 2544 0335 41444331 		.ascii	"ADC1_IRQn\000"
 2544      5F495251 
 2544      6E00
 2545              	.LASF133:
 2546 033f 4952516E 		.ascii	"IRQn\000"
 2546      00
 2547              	.LASF40:
 2548 0344 444D4131 		.ascii	"DMA1_Channel2_IRQn\000"
 2548      5F436861 
 2548      6E6E656C 
 2548      325F4952 
 2548      516E00
 2549              	.LASF132:
 2550 0357 2F686F6D 		.ascii	"/home/caroline/Documents/PAF/elfes/Code\000"
 2550      652F6361 
 2550      726F6C69 
 2550      6E652F44 
 2550      6F63756D 
 2551              	.LASF18:
 2552 037f 73697A65 		.ascii	"sizetype\000"
 2552      74797065 
 2552      00
 2553              	.LASF37:
 2554 0388 45585449 		.ascii	"EXTI3_IRQn\000"
 2554      335F4952 
 2554      516E00
 2555              	.LASF64:
 2556 0393 53504932 		.ascii	"SPI2_IRQn\000"
 2556      5F495251 
 2556      6E00
 2557              	.LASF117:
 2558 039d 70776D5F 		.ascii	"pwm_lld_init\000"
 2558      6C6C645F 
 2558      696E6974 
 2558      00
 2559              	.LASF75:
 2560 03aa 41484252 		.ascii	"AHBRSTR\000"
 2560      53545200 
 2561              	.LASF70:
 2562 03b2 5553425F 		.ascii	"USB_FS_WKUP_IRQn\000"
 2562      46535F57 
ARM GAS  /tmp/ccVE7kKv.s 			page 49


 2562      4B55505F 
 2562      4952516E 
 2562      00
 2563              	.LASF77:
 2564 03c3 41504231 		.ascii	"APB1RSTR\000"
 2564      52535452 
 2564      00
 2565              	.LASF39:
 2566 03cc 444D4131 		.ascii	"DMA1_Channel1_IRQn\000"
 2566      5F436861 
 2566      6E6E656C 
 2566      315F4952 
 2566      516E00
 2567              	.LASF94:
 2568 03df 70776D63 		.ascii	"pwmcallback_t\000"
 2568      616C6C62 
 2568      61636B5F 
 2568      7400
 2569              	.LASF134:
 2570 03ed 70776D5F 		.ascii	"pwm_lld_serve_interrupt\000"
 2570      6C6C645F 
 2570      73657276 
 2570      655F696E 
 2570      74657272 
 2571              	.LASF65:
 2572 0405 55534152 		.ascii	"USART1_IRQn\000"
 2572      54315F49 
 2572      52516E00 
 2573              	.LASF17:
 2574 0411 5F426F6F 		.ascii	"_Bool\000"
 2574      6C00
 2575              	.LASF15:
 2576 0417 696E7433 		.ascii	"int32_t\000"
 2576      325F7400 
 2577              	.LASF2:
 2578 041f 756E7369 		.ascii	"unsigned char\000"
 2578      676E6564 
 2578      20636861 
 2578      7200
 2579              	.LASF42:
 2580 042d 444D4131 		.ascii	"DMA1_Channel4_IRQn\000"
 2580      5F436861 
 2580      6E6E656C 
 2580      345F4952 
 2580      516E00
 2581              	.LASF126:
 2582 0440 49544D5F 		.ascii	"ITM_RxBuffer\000"
 2582      52784275 
 2582      66666572 
 2582      00
 2583              	.LASF71:
 2584 044d 54494D36 		.ascii	"TIM6_IRQn\000"
 2584      5F495251 
 2584      6E00
 2585              	.LASF38:
 2586 0457 45585449 		.ascii	"EXTI4_IRQn\000"
 2586      345F4952 
ARM GAS  /tmp/ccVE7kKv.s 			page 50


 2586      516E00
 2587              	.LASF3:
 2588 0462 73686F72 		.ascii	"short int\000"
 2588      7420696E 
 2588      7400
 2589              	.LASF55:
 2590 046c 54494D31 		.ascii	"TIM11_IRQn\000"
 2590      315F4952 
 2590      516E00
 2591              	.LASF41:
 2592 0477 444D4131 		.ascii	"DMA1_Channel3_IRQn\000"
 2592      5F436861 
 2592      6E6E656C 
 2592      335F4952 
 2592      516E00
 2593              	.LASF36:
 2594 048a 45585449 		.ascii	"EXTI2_IRQn\000"
 2594      325F4952 
 2594      516E00
 2595              	.LASF79:
 2596 0495 41504232 		.ascii	"APB2ENR\000"
 2596      454E5200 
 2597              	.LASF123:
 2598 049d 6368616E 		.ascii	"channel\000"
 2598      6E656C00 
 2599              	.LASF32:
 2600 04a5 464C4153 		.ascii	"FLASH_IRQn\000"
 2600      485F4952 
 2600      516E00
 2601              	.LASF120:
 2602 04b0 70776D5F 		.ascii	"pwm_lld_stop\000"
 2602      6C6C645F 
 2602      73746F70 
 2602      00
 2603              	.LASF16:
 2604 04bd 75696E74 		.ascii	"uint32_t\000"
 2604      33325F74 
 2604      00
 2605              	.LASF66:
 2606 04c6 55534152 		.ascii	"USART2_IRQn\000"
 2606      54325F49 
 2606      52516E00 
 2607              	.LASF23:
 2608 04d2 55736167 		.ascii	"UsageFault_IRQn\000"
 2608      65466175 
 2608      6C745F49 
 2608      52516E00 
 2609              	.LASF115:
 2610 04e2 50574D43 		.ascii	"PWMConfig\000"
 2610      6F6E6669 
 2610      6700
 2611              	.LASF80:
 2612 04ec 41504231 		.ascii	"APB1ENR\000"
 2612      454E5200 
 2613              	.LASF122:
 2614 04f4 70776D5F 		.ascii	"pwm_lld_enable_channel\000"
 2614      6C6C645F 
ARM GAS  /tmp/ccVE7kKv.s 			page 51


 2614      656E6162 
 2614      6C655F63 
 2614      68616E6E 
 2615              	.LASF86:
 2616 050b 50574D5F 		.ascii	"PWM_STOP\000"
 2616      53544F50 
 2616      00
 2617              	.LASF19:
 2618 0514 63686172 		.ascii	"char\000"
 2618      00
 2619              	.LASF109:
 2620 0519 6D6F6465 		.ascii	"mode\000"
 2620      00
 2621              	.LASF91:
 2622 051e 636F6E66 		.ascii	"config\000"
 2622      696700
 2623              	.LASF101:
 2624 0525 444D4152 		.ascii	"DMAR\000"
 2624      00
 2625              	.LASF72:
 2626 052a 54494D37 		.ascii	"TIM7_IRQn\000"
 2626      5F495251 
 2626      6E00
 2627              	.LASF20:
 2628 0534 4E6F6E4D 		.ascii	"NonMaskableInt_IRQn\000"
 2628      61736B61 
 2628      626C6549 
 2628      6E745F49 
 2628      52516E00 
 2629              	.LASF7:
 2630 0548 5F5F696E 		.ascii	"__int32_t\000"
 2630      7433325F 
 2630      7400
 2631              	.LASF44:
 2632 0552 444D4131 		.ascii	"DMA1_Channel6_IRQn\000"
 2632      5F436861 
 2632      6E6E656C 
 2632      365F4952 
 2632      516E00
 2633              	.LASF49:
 2634 0565 4441435F 		.ascii	"DAC_IRQn\000"
 2634      4952516E 
 2634      00
 2635              	.LASF48:
 2636 056e 5553425F 		.ascii	"USB_LP_IRQn\000"
 2636      4C505F49 
 2636      52516E00 
 2637              	.LASF6:
 2638 057a 73686F72 		.ascii	"short unsigned int\000"
 2638      7420756E 
 2638      7369676E 
 2638      65642069 
 2638      6E7400
 2639              	.LASF111:
 2640 058d 50574D43 		.ascii	"PWMChannelConfig\000"
 2640      68616E6E 
 2640      656C436F 
ARM GAS  /tmp/ccVE7kKv.s 			page 52


 2640      6E666967 
 2640      00
 2641              	.LASF25:
 2642 059e 44656275 		.ascii	"DebugMonitor_IRQn\000"
 2642      674D6F6E 
 2642      69746F72 
 2642      5F495251 
 2642      6E00
 2643              	.LASF52:
 2644 05b0 4C43445F 		.ascii	"LCD_IRQn\000"
 2644      4952516E 
 2644      00
 2645              	.LASF61:
 2646 05b9 49324332 		.ascii	"I2C2_EV_IRQn\000"
 2646      5F45565F 
 2646      4952516E 
 2646      00
 2647              	.LASF67:
 2648 05c6 55534152 		.ascii	"USART3_IRQn\000"
 2648      54335F49 
 2648      52516E00 
 2649              	.LASF56:
 2650 05d2 54494D32 		.ascii	"TIM2_IRQn\000"
 2650      5F495251 
 2650      6E00
 2651              	.LASF34:
 2652 05dc 45585449 		.ascii	"EXTI0_IRQn\000"
 2652      305F4952 
 2652      516E00
 2653              	.LASF103:
 2654 05e7 43435235 		.ascii	"CCR5\000"
 2654      00
 2655              	.LASF104:
 2656 05ec 43435236 		.ascii	"CCR6\000"
 2656      00
 2657              	.LASF135:
 2658 05f1 5F706F72 		.ascii	"_port_irq_epilogue\000"
 2658      745F6972 
 2658      715F6570 
 2658      696C6F67 
 2658      756500
 2659              	.LASF13:
 2660 0604 75696E74 		.ascii	"uint8_t\000"
 2660      385F7400 
 2661              	.LASF89:
 2662 060c 50574D44 		.ascii	"PWMDriver\000"
 2662      72697665 
 2662      7200
 2663              	.LASF33:
 2664 0616 5243435F 		.ascii	"RCC_IRQn\000"
 2664      4952516E 
 2664      00
 2665              	.LASF88:
 2666 061f 70776D73 		.ascii	"pwmstate_t\000"
 2666      74617465 
 2666      5F7400
 2667              	.LASF73:
ARM GAS  /tmp/ccVE7kKv.s 			page 53


 2668 062a 49435343 		.ascii	"ICSCR\000"
 2668      5200
 2669              	.LASF108:
 2670 0630 70776D63 		.ascii	"pwmcnt_t\000"
 2670      6E745F74 
 2670      00
 2671              	.LASF35:
 2672 0639 45585449 		.ascii	"EXTI1_IRQn\000"
 2672      315F4952 
 2672      516E00
 2673              	.LASF45:
 2674 0644 444D4131 		.ascii	"DMA1_Channel7_IRQn\000"
 2674      5F436861 
 2674      6E6E656C 
 2674      375F4952 
 2674      516E00
 2675              	.LASF74:
 2676 0657 43464752 		.ascii	"CFGR\000"
 2676      00
 2677              	.LASF125:
 2678 065c 70776D5F 		.ascii	"pwm_lld_disable_channel\000"
 2678      6C6C645F 
 2678      64697361 
 2678      626C655F 
 2678      6368616E 
 2679              	.LASF93:
 2680 0674 636C6F63 		.ascii	"clock\000"
 2680      6B00
 2681              	.LASF60:
 2682 067a 49324331 		.ascii	"I2C1_ER_IRQn\000"
 2682      5F45525F 
 2682      4952516E 
 2682      00
 2683              	.LASF30:
 2684 0687 54414D50 		.ascii	"TAMPER_STAMP_IRQn\000"
 2684      45525F53 
 2684      54414D50 
 2684      5F495251 
 2684      6E00
 2685              	.LASF85:
 2686 0699 50574D5F 		.ascii	"PWM_UNINIT\000"
 2686      554E494E 
 2686      495400
 2687              	.LASF128:
 2688 06a4 70776D4F 		.ascii	"pwmObjectInit\000"
 2688      626A6563 
 2688      74496E69 
 2688      7400
 2689              	.LASF57:
 2690 06b2 54494D33 		.ascii	"TIM3_IRQn\000"
 2690      5F495251 
 2690      6E00
 2691              	.LASF78:
 2692 06bc 41484245 		.ascii	"AHBENR\000"
 2692      4E5200
 2693              	.LASF24:
 2694 06c3 5356435F 		.ascii	"SVC_IRQn\000"
ARM GAS  /tmp/ccVE7kKv.s 			page 54


 2694      4952516E 
 2694      00
 2695              	.LASF114:
 2696 06cc 64696572 		.ascii	"dier\000"
 2696      00
 2697              		.ident	"GCC: (4.8.2-14ubuntu1+6) 4.8.2"
ARM GAS  /tmp/ccVE7kKv.s 			page 55


DEFINED SYMBOLS
                            *ABS*:0000000000000000 pwm_lld.c
     /tmp/ccVE7kKv.s:19     .text.VectorB8:0000000000000000 $t
     /tmp/ccVE7kKv.s:24     .text.VectorB8:0000000000000000 VectorB8
     /tmp/ccVE7kKv.s:543    .bss.PWMD4:0000000000000000 .LANCHOR0
     /tmp/ccVE7kKv.s:133    .text.pwm_lld_init:0000000000000000 $t
     /tmp/ccVE7kKv.s:138    .text.pwm_lld_init:0000000000000000 pwm_lld_init
     /tmp/ccVE7kKv.s:163    .text.pwm_lld_start:0000000000000000 $t
     /tmp/ccVE7kKv.s:168    .text.pwm_lld_start:0000000000000000 pwm_lld_start
     /tmp/ccVE7kKv.s:389    .text.pwm_lld_stop:0000000000000000 $t
     /tmp/ccVE7kKv.s:394    .text.pwm_lld_stop:0000000000000000 pwm_lld_stop
     /tmp/ccVE7kKv.s:448    .text.pwm_lld_enable_channel:0000000000000000 $t
     /tmp/ccVE7kKv.s:453    .text.pwm_lld_enable_channel:0000000000000000 pwm_lld_enable_channel
     /tmp/ccVE7kKv.s:508    .text.pwm_lld_disable_channel:0000000000000000 $t
     /tmp/ccVE7kKv.s:513    .text.pwm_lld_disable_channel:0000000000000000 pwm_lld_disable_channel
     /tmp/ccVE7kKv.s:546    .bss.PWMD4:0000000000000000 PWMD4
     /tmp/ccVE7kKv.s:542    .bss.PWMD4:0000000000000000 $d
                     .debug_frame:0000000000000010 $d

UNDEFINED SYMBOLS
_port_irq_epilogue
pwmObjectInit
nvicEnableVector
nvicDisableVector
