ARM GAS  /tmp/ccW6jFqV.s 			page 1


   1              		.syntax unified
   2              		.cpu cortex-m3
   3              		.fpu softvfp
   4              		.eabi_attribute 20, 1
   5              		.eabi_attribute 21, 1
   6              		.eabi_attribute 23, 3
   7              		.eabi_attribute 24, 1
   8              		.eabi_attribute 25, 1
   9              		.eabi_attribute 26, 1
  10              		.eabi_attribute 30, 2
  11              		.eabi_attribute 34, 1
  12              		.eabi_attribute 18, 4
  13              		.thumb
  14              		.file	"serial.c"
  15              		.text
  16              	.Ltext0:
  17              		.cfi_sections	.debug_frame
  18              		.section	.text.readt,"ax",%progbits
  19              		.align	2
  20              		.thumb
  21              		.thumb_func
  22              		.type	readt, %function
  23              	readt:
  24              	.LFB70:
  25              		.file 1 "../ChibiOS_2.6.4/os/hal/src/serial.c"
  26              		.loc 1 99 0
  27              		.cfi_startproc
  28              		@ args = 0, pretend = 0, frame = 0
  29              		@ frame_needed = 0, uses_anonymous_args = 0
  30              		@ link register save eliminated.
  31              	.LVL0:
  32              		.loc 1 101 0
  33 0000 0C30     		adds	r0, r0, #12
  34              	.LVL1:
  35 0002 FFF7FEBF 		b	chIQReadTimeout
  36              	.LVL2:
  37              		.cfi_endproc
  38              	.LFE70:
  39              		.size	readt, .-readt
  40 0006 00BF     		.section	.text.read,"ax",%progbits
  41              		.align	2
  42              		.thumb
  43              		.thumb_func
  44              		.type	read, %function
  45              	read:
  46              	.LFB64:
  47              		.loc 1 68 0
  48              		.cfi_startproc
  49              		@ args = 0, pretend = 0, frame = 0
  50              		@ frame_needed = 0, uses_anonymous_args = 0
  51              		@ link register save eliminated.
  52              	.LVL3:
  53              		.loc 1 70 0
  54 0000 0C30     		adds	r0, r0, #12
  55              	.LVL4:
  56 0002 4FF0FF33 		mov	r3, #-1
  57 0006 FFF7FEBF 		b	chIQReadTimeout
ARM GAS  /tmp/ccW6jFqV.s 			page 2


  58              	.LVL5:
  59              		.cfi_endproc
  60              	.LFE64:
  61              		.size	read, .-read
  62 000a 00BF     		.section	.text.writet,"ax",%progbits
  63              		.align	2
  64              		.thumb
  65              		.thumb_func
  66              		.type	writet, %function
  67              	writet:
  68              	.LFB69:
  69              		.loc 1 94 0
  70              		.cfi_startproc
  71              		@ args = 0, pretend = 0, frame = 0
  72              		@ frame_needed = 0, uses_anonymous_args = 0
  73              		@ link register save eliminated.
  74              	.LVL6:
  75              		.loc 1 96 0
  76 0000 3030     		adds	r0, r0, #48
  77              	.LVL7:
  78 0002 FFF7FEBF 		b	chOQWriteTimeout
  79              	.LVL8:
  80              		.cfi_endproc
  81              	.LFE69:
  82              		.size	writet, .-writet
  83 0006 00BF     		.section	.text.write,"ax",%progbits
  84              		.align	2
  85              		.thumb
  86              		.thumb_func
  87              		.type	write, %function
  88              	write:
  89              	.LFB63:
  90              		.loc 1 62 0
  91              		.cfi_startproc
  92              		@ args = 0, pretend = 0, frame = 0
  93              		@ frame_needed = 0, uses_anonymous_args = 0
  94              		@ link register save eliminated.
  95              	.LVL9:
  96              		.loc 1 64 0
  97 0000 3030     		adds	r0, r0, #48
  98              	.LVL10:
  99 0002 4FF0FF33 		mov	r3, #-1
 100 0006 FFF7FEBF 		b	chOQWriteTimeout
 101              	.LVL11:
 102              		.cfi_endproc
 103              	.LFE63:
 104              		.size	write, .-write
 105 000a 00BF     		.section	.text.gett,"ax",%progbits
 106              		.align	2
 107              		.thumb
 108              		.thumb_func
 109              		.type	gett, %function
 110              	gett:
 111              	.LFB68:
 112              		.loc 1 89 0
 113              		.cfi_startproc
 114              		@ args = 0, pretend = 0, frame = 0
ARM GAS  /tmp/ccW6jFqV.s 			page 3


 115              		@ frame_needed = 0, uses_anonymous_args = 0
 116              		@ link register save eliminated.
 117              	.LVL12:
 118              		.loc 1 91 0
 119 0000 0C30     		adds	r0, r0, #12
 120              	.LVL13:
 121 0002 FFF7FEBF 		b	chIQGetTimeout
 122              	.LVL14:
 123              		.cfi_endproc
 124              	.LFE68:
 125              		.size	gett, .-gett
 126 0006 00BF     		.section	.text.get,"ax",%progbits
 127              		.align	2
 128              		.thumb
 129              		.thumb_func
 130              		.type	get, %function
 131              	get:
 132              	.LFB66:
 133              		.loc 1 79 0
 134              		.cfi_startproc
 135              		@ args = 0, pretend = 0, frame = 0
 136              		@ frame_needed = 0, uses_anonymous_args = 0
 137              		@ link register save eliminated.
 138              	.LVL15:
 139              		.loc 1 81 0
 140 0000 0C30     		adds	r0, r0, #12
 141              	.LVL16:
 142 0002 4FF0FF31 		mov	r1, #-1
 143 0006 FFF7FEBF 		b	chIQGetTimeout
 144              	.LVL17:
 145              		.cfi_endproc
 146              	.LFE66:
 147              		.size	get, .-get
 148 000a 00BF     		.section	.text.putt,"ax",%progbits
 149              		.align	2
 150              		.thumb
 151              		.thumb_func
 152              		.type	putt, %function
 153              	putt:
 154              	.LFB67:
 155              		.loc 1 84 0
 156              		.cfi_startproc
 157              		@ args = 0, pretend = 0, frame = 0
 158              		@ frame_needed = 0, uses_anonymous_args = 0
 159              		@ link register save eliminated.
 160              	.LVL18:
 161              		.loc 1 86 0
 162 0000 3030     		adds	r0, r0, #48
 163              	.LVL19:
 164 0002 FFF7FEBF 		b	chOQPutTimeout
 165              	.LVL20:
 166              		.cfi_endproc
 167              	.LFE67:
 168              		.size	putt, .-putt
 169 0006 00BF     		.section	.text.put,"ax",%progbits
 170              		.align	2
 171              		.thumb
ARM GAS  /tmp/ccW6jFqV.s 			page 4


 172              		.thumb_func
 173              		.type	put, %function
 174              	put:
 175              	.LFB65:
 176              		.loc 1 74 0
 177              		.cfi_startproc
 178              		@ args = 0, pretend = 0, frame = 0
 179              		@ frame_needed = 0, uses_anonymous_args = 0
 180              		@ link register save eliminated.
 181              	.LVL21:
 182              		.loc 1 76 0
 183 0000 3030     		adds	r0, r0, #48
 184              	.LVL22:
 185 0002 4FF0FF32 		mov	r2, #-1
 186 0006 FFF7FEBF 		b	chOQPutTimeout
 187              	.LVL23:
 188              		.cfi_endproc
 189              	.LFE65:
 190              		.size	put, .-put
 191 000a 00BF     		.section	.text.sdInit,"ax",%progbits
 192              		.align	2
 193              		.global	sdInit
 194              		.thumb
 195              		.thumb_func
 196              		.type	sdInit, %function
 197              	sdInit:
 198              	.LFB71:
 199              		.loc 1 120 0
 200              		.cfi_startproc
 201              		@ args = 0, pretend = 0, frame = 0
 202              		@ frame_needed = 0, uses_anonymous_args = 0
 203              		@ link register save eliminated.
 204              		.loc 1 122 0
 205 0000 FFF7FEBF 		b	sd_lld_init
 206              	.LVL24:
 207              		.cfi_endproc
 208              	.LFE71:
 209              		.size	sdInit, .-sdInit
 210              		.section	.text.sdObjectInit,"ax",%progbits
 211              		.align	2
 212              		.global	sdObjectInit
 213              		.thumb
 214              		.thumb_func
 215              		.type	sdObjectInit, %function
 216              	sdObjectInit:
 217              	.LFB72:
 218              		.loc 1 140 0
 219              		.cfi_startproc
 220              		@ args = 0, pretend = 0, frame = 0
 221              		@ frame_needed = 0, uses_anonymous_args = 0
 222              	.LVL25:
 223 0000 70B5     		push	{r4, r5, r6, lr}
 224              		.cfi_def_cfa_offset 16
 225              		.cfi_offset 4, -16
 226              		.cfi_offset 5, -12
 227              		.cfi_offset 6, -8
 228              		.cfi_offset 14, -4
ARM GAS  /tmp/ccW6jFqV.s 			page 5


 229              		.loc 1 142 0
 230 0002 40F20005 		movw	r5, #:lower16:.LANCHOR0
 231 0006 C0F20005 		movt	r5, #:upper16:.LANCHOR0
 232              		.loc 1 140 0
 233 000a 0446     		mov	r4, r0
 234 000c 82B0     		sub	sp, sp, #8
 235              		.cfi_def_cfa_offset 24
 236              		.loc 1 142 0
 237 000e 40F8045B 		str	r5, [r0], #4
 238              	.LVL26:
 239              		.loc 1 144 0
 240 0012 0126     		movs	r6, #1
 241              		.loc 1 145 0
 242 0014 0094     		str	r4, [sp]
 243              		.loc 1 140 0
 244 0016 0B46     		mov	r3, r1
 245 0018 1546     		mov	r5, r2
 246              		.loc 1 143 0
 247 001a 6060     		str	r0, [r4, #4]
 248              		.loc 1 145 0
 249 001c 04F15401 		add	r1, r4, #84
 250              	.LVL27:
 251 0020 04F10C00 		add	r0, r4, #12
 252              		.loc 1 144 0
 253 0024 2672     		strb	r6, [r4, #8]
 254              		.loc 1 145 0
 255 0026 1022     		movs	r2, #16
 256              	.LVL28:
 257 0028 FFF7FEFF 		bl	chIQInit
 258              	.LVL29:
 259              		.loc 1 146 0
 260 002c 0094     		str	r4, [sp]
 261 002e 2B46     		mov	r3, r5
 262 0030 04F13000 		add	r0, r4, #48
 263 0034 04F16401 		add	r1, r4, #100
 264 0038 1022     		movs	r2, #16
 265 003a FFF7FEFF 		bl	chOQInit
 266              	.LVL30:
 267              		.loc 1 147 0
 268 003e 02B0     		add	sp, sp, #8
 269              		@ sp needed
 270 0040 70BD     		pop	{r4, r5, r6, pc}
 271              		.cfi_endproc
 272              	.LFE72:
 273              		.size	sdObjectInit, .-sdObjectInit
 274 0042 00BF     		.section	.text.sdStart,"ax",%progbits
 275              		.align	2
 276              		.global	sdStart
 277              		.thumb
 278              		.thumb_func
 279              		.type	sdStart, %function
 280              	sdStart:
 281              	.LFB73:
 282              		.loc 1 159 0
 283              		.cfi_startproc
 284              		@ args = 0, pretend = 0, frame = 0
 285              		@ frame_needed = 0, uses_anonymous_args = 0
ARM GAS  /tmp/ccW6jFqV.s 			page 6


 286              	.LVL31:
 287 0000 10B5     		push	{r4, lr}
 288              		.cfi_def_cfa_offset 8
 289              		.cfi_offset 4, -8
 290              		.cfi_offset 14, -4
 291              	.LBB2:
 292              		.loc 1 163 0
 293 0002 2023     		movs	r3, #32
 294              	.LBE2:
 295              		.loc 1 159 0
 296 0004 0446     		mov	r4, r0
 297              	.LBB3:
 298              		.loc 1 163 0
 299              	@ 163 "../ChibiOS_2.6.4/os/hal/src/serial.c" 1
 300 0006 83F31188 		msr     BASEPRI, r3
 301              	@ 0 "" 2
 302              		.thumb
 303              	.LBE3:
 304              		.loc 1 167 0
 305 000a FFF7FEFF 		bl	sd_lld_start
 306              	.LVL32:
 307              		.loc 1 168 0
 308 000e 0223     		movs	r3, #2
 309 0010 2372     		strb	r3, [r4, #8]
 310              	.LBB4:
 311              		.loc 1 169 0
 312 0012 0023     		movs	r3, #0
 313              	@ 169 "../ChibiOS_2.6.4/os/hal/src/serial.c" 1
 314 0014 83F31188 		msr     BASEPRI, r3
 315              	@ 0 "" 2
 316              		.thumb
 317 0018 10BD     		pop	{r4, pc}
 318              	.LBE4:
 319              		.cfi_endproc
 320              	.LFE73:
 321              		.size	sdStart, .-sdStart
 322 001a 00BF     		.section	.text.sdStop,"ax",%progbits
 323              		.align	2
 324              		.global	sdStop
 325              		.thumb
 326              		.thumb_func
 327              		.type	sdStop, %function
 328              	sdStop:
 329              	.LFB74:
 330              		.loc 1 181 0
 331              		.cfi_startproc
 332              		@ args = 0, pretend = 0, frame = 0
 333              		@ frame_needed = 0, uses_anonymous_args = 0
 334              	.LVL33:
 335 0000 10B5     		push	{r4, lr}
 336              		.cfi_def_cfa_offset 8
 337              		.cfi_offset 4, -8
 338              		.cfi_offset 14, -4
 339              	.LBB5:
 340              		.loc 1 185 0
 341 0002 2023     		movs	r3, #32
 342              	.LBE5:
ARM GAS  /tmp/ccW6jFqV.s 			page 7


 343              		.loc 1 181 0
 344 0004 0446     		mov	r4, r0
 345              	.LBB6:
 346              		.loc 1 185 0
 347              	@ 185 "../ChibiOS_2.6.4/os/hal/src/serial.c" 1
 348 0006 83F31188 		msr     BASEPRI, r3
 349              	@ 0 "" 2
 350              		.thumb
 351              	.LBE6:
 352              		.loc 1 189 0
 353 000a FFF7FEFF 		bl	sd_lld_stop
 354              	.LVL34:
 355              		.loc 1 190 0
 356 000e 0123     		movs	r3, #1
 357 0010 2372     		strb	r3, [r4, #8]
 358              		.loc 1 191 0
 359 0012 04F13000 		add	r0, r4, #48
 360 0016 FFF7FEFF 		bl	chOQResetI
 361              	.LVL35:
 362              		.loc 1 192 0
 363 001a 04F10C00 		add	r0, r4, #12
 364 001e FFF7FEFF 		bl	chIQResetI
 365              	.LVL36:
 366              		.loc 1 193 0
 367 0022 FFF7FEFF 		bl	chSchRescheduleS
 368              	.LVL37:
 369              	.LBB7:
 370              		.loc 1 194 0
 371 0026 0023     		movs	r3, #0
 372              	@ 194 "../ChibiOS_2.6.4/os/hal/src/serial.c" 1
 373 0028 83F31188 		msr     BASEPRI, r3
 374              	@ 0 "" 2
 375              		.thumb
 376 002c 10BD     		pop	{r4, pc}
 377              	.LBE7:
 378              		.cfi_endproc
 379              	.LFE74:
 380              		.size	sdStop, .-sdStop
 381 002e 00BF     		.section	.text.sdIncomingDataI,"ax",%progbits
 382              		.align	2
 383              		.global	sdIncomingDataI
 384              		.thumb
 385              		.thumb_func
 386              		.type	sdIncomingDataI, %function
 387              	sdIncomingDataI:
 388              	.LFB75:
 389              		.loc 1 213 0
 390              		.cfi_startproc
 391              		@ args = 0, pretend = 0, frame = 0
 392              		@ frame_needed = 0, uses_anonymous_args = 0
 393              	.LVL38:
 394 0000 38B5     		push	{r3, r4, r5, lr}
 395              		.cfi_def_cfa_offset 16
 396              		.cfi_offset 3, -16
 397              		.cfi_offset 4, -12
 398              		.cfi_offset 5, -8
 399              		.cfi_offset 14, -4
ARM GAS  /tmp/ccW6jFqV.s 			page 8


 400              		.loc 1 218 0
 401 0002 4369     		ldr	r3, [r0, #20]
 402              		.loc 1 213 0
 403 0004 0446     		mov	r4, r0
 404 0006 0D46     		mov	r5, r1
 405              		.loc 1 218 0
 406 0008 3BB1     		cbz	r3, .L17
 407              		.loc 1 220 0
 408 000a 2946     		mov	r1, r5
 409              	.LVL39:
 410 000c 04F10C00 		add	r0, r4, #12
 411              	.LVL40:
 412 0010 FFF7FEFF 		bl	chIQPutI
 413              	.LVL41:
 414 0014 0028     		cmp	r0, #0
 415 0016 0BDB     		blt	.L18
 416              	.L13:
 417 0018 38BD     		pop	{r3, r4, r5, pc}
 418              	.LVL42:
 419              	.L17:
 420              		.loc 1 219 0
 421 001a 0430     		adds	r0, r0, #4
 422              	.LVL43:
 423 001c 0421     		movs	r1, #4
 424              	.LVL44:
 425 001e FFF7FEFF 		bl	chEvtBroadcastFlagsI
 426              	.LVL45:
 427              		.loc 1 220 0
 428 0022 2946     		mov	r1, r5
 429 0024 04F10C00 		add	r0, r4, #12
 430 0028 FFF7FEFF 		bl	chIQPutI
 431              	.LVL46:
 432 002c 0028     		cmp	r0, #0
 433 002e F3DA     		bge	.L13
 434              	.L18:
 435              		.loc 1 221 0
 436 0030 201D     		adds	r0, r4, #4
 437 0032 8021     		movs	r1, #128
 438              		.loc 1 222 0
 439 0034 BDE83840 		pop	{r3, r4, r5, lr}
 440              	.LVL47:
 441              		.loc 1 221 0
 442 0038 FFF7FEBF 		b	chEvtBroadcastFlagsI
 443              	.LVL48:
 444              		.cfi_endproc
 445              	.LFE75:
 446              		.size	sdIncomingDataI, .-sdIncomingDataI
 447              		.section	.text.sdRequestDataI,"ax",%progbits
 448              		.align	2
 449              		.global	sdRequestDataI
 450              		.thumb
 451              		.thumb_func
 452              		.type	sdRequestDataI, %function
 453              	sdRequestDataI:
 454              	.LFB76:
 455              		.loc 1 239 0
 456              		.cfi_startproc
ARM GAS  /tmp/ccW6jFqV.s 			page 9


 457              		@ args = 0, pretend = 0, frame = 0
 458              		@ frame_needed = 0, uses_anonymous_args = 0
 459              	.LVL49:
 460 0000 38B5     		push	{r3, r4, r5, lr}
 461              		.cfi_def_cfa_offset 16
 462              		.cfi_offset 3, -16
 463              		.cfi_offset 4, -12
 464              		.cfi_offset 5, -8
 465              		.cfi_offset 14, -4
 466              		.loc 1 239 0
 467 0002 0446     		mov	r4, r0
 468              		.loc 1 245 0
 469 0004 3030     		adds	r0, r0, #48
 470              	.LVL50:
 471 0006 FFF7FEFF 		bl	chOQGetI
 472              	.LVL51:
 473              		.loc 1 246 0
 474 000a 051E     		subs	r5, r0, #0
 475 000c 01DB     		blt	.L21
 476              		.loc 1 249 0
 477 000e 2846     		mov	r0, r5
 478 0010 38BD     		pop	{r3, r4, r5, pc}
 479              	.LVL52:
 480              	.L21:
 481              		.loc 1 247 0
 482 0012 201D     		adds	r0, r4, #4
 483              	.LVL53:
 484 0014 0821     		movs	r1, #8
 485 0016 FFF7FEFF 		bl	chEvtBroadcastFlagsI
 486              	.LVL54:
 487              		.loc 1 249 0
 488 001a 2846     		mov	r0, r5
 489 001c 38BD     		pop	{r3, r4, r5, pc}
 490              		.cfi_endproc
 491              	.LFE76:
 492              		.size	sdRequestDataI, .-sdRequestDataI
 493 001e 00BF     		.section	.rodata.vmt,"a",%progbits
 494              		.align	2
 495              		.set	.LANCHOR0,. + 0
 496              		.type	vmt, %object
 497              		.size	vmt, 32
 498              	vmt:
 499 0000 00000000 		.word	write
 500 0004 00000000 		.word	read
 501 0008 00000000 		.word	put
 502 000c 00000000 		.word	get
 503 0010 00000000 		.word	putt
 504 0014 00000000 		.word	gett
 505 0018 00000000 		.word	writet
 506 001c 00000000 		.word	readt
 507              		.text
 508              	.Letext0:
 509              		.file 2 "/usr/lib/gcc/arm-none-eabi/4.8.2/include/stddef.h"
 510              		.file 3 "/usr/include/newlib/machine/_default_types.h"
 511              		.file 4 "/usr/include/newlib/stdint.h"
 512              		.file 5 "../ChibiOS_2.6.4/os/ports/GCC/ARMCMx/chtypes.h"
 513              		.file 6 "../ChibiOS_2.6.4/os/kernel/include/chlists.h"
ARM GAS  /tmp/ccW6jFqV.s 			page 10


 514              		.file 7 "../ChibiOS_2.6.4/os/kernel/include/chthreads.h"
 515              		.file 8 "../ChibiOS_2.6.4/os/ports/GCC/ARMCMx/chcore_v7m.h"
 516              		.file 9 "../ChibiOS_2.6.4/os/kernel/include/chmtx.h"
 517              		.file 10 "../ChibiOS_2.6.4/os/kernel/include/chevents.h"
 518              		.file 11 "../ChibiOS_2.6.4/os/kernel/include/chqueues.h"
 519              		.file 12 "../ChibiOS_2.6.4/os/hal/platforms/STM32L1xx/stm32l1xx.h"
 520              		.file 13 "../ChibiOS_2.6.4/os/hal/include/serial.h"
 521              		.file 14 "../ChibiOS_2.6.4/os/hal/platforms/STM32/USARTv1/serial_lld.h"
 522              		.file 15 "../ChibiOS_2.6.4/os/kernel/include/chschd.h"
 523              		.file 16 "../ChibiOS_2.6.4/os/ports/common/ARMCMx/CMSIS/include/core_cm3.h"