ARM GAS  /tmp/ccW6jFqV.s 			page 1


   1              		.syntax unified
   2              		.cpu cortex-m3
   3              		.fpu softvfp
   4              		.eabi_attribute 20, 1
   5              		.eabi_attribute 21, 1
   6              		.eabi_attribute 23, 3
   7              		.eabi_attribute 24, 1
   8              		.eabi_attribute 25, 1
   9              		.eabi_attribute 26, 1
  10              		.eabi_attribute 30, 2
  11              		.eabi_attribute 34, 1
  12              		.eabi_attribute 18, 4
  13              		.thumb
  14              		.file	"serial.c"
  15              		.text
  16              	.Ltext0:
  17              		.cfi_sections	.debug_frame
  18              		.section	.text.readt,"ax",%progbits
  19              		.align	2
  20              		.thumb
  21              		.thumb_func
  22              		.type	readt, %function
  23              	readt:
  24              	.LFB70:
  25              		.file 1 "../ChibiOS_2.6.4/os/hal/src/serial.c"
  26              		.loc 1 99 0
  27              		.cfi_startproc
  28              		@ args = 0, pretend = 0, frame = 0
  29              		@ frame_needed = 0, uses_anonymous_args = 0
  30              		@ link register save eliminated.
  31              	.LVL0:
  32              		.loc 1 101 0
  33 0000 0C30     		adds	r0, r0, #12
  34              	.LVL1:
  35 0002 FFF7FEBF 		b	chIQReadTimeout
  36              	.LVL2:
  37              		.cfi_endproc
  38              	.LFE70:
  39              		.size	readt, .-readt
  40 0006 00BF     		.section	.text.read,"ax",%progbits
  41              		.align	2
  42              		.thumb
  43              		.thumb_func
  44              		.type	read, %function
  45              	read:
  46              	.LFB64:
  47              		.loc 1 68 0
  48              		.cfi_startproc
  49              		@ args = 0, pretend = 0, frame = 0
  50              		@ frame_needed = 0, uses_anonymous_args = 0
  51              		@ link register save eliminated.
  52              	.LVL3:
  53              		.loc 1 70 0
  54 0000 0C30     		adds	r0, r0, #12
  55              	.LVL4:
  56 0002 4FF0FF33 		mov	r3, #-1
  57 0006 FFF7FEBF 		b	chIQReadTimeout
ARM GAS  /tmp/ccW6jFqV.s 			page 2


  58              	.LVL5:
  59              		.cfi_endproc
  60              	.LFE64:
  61              		.size	read, .-read
  62 000a 00BF     		.section	.text.writet,"ax",%progbits
  63              		.align	2
  64              		.thumb
  65              		.thumb_func
  66              		.type	writet, %function
  67              	writet:
  68              	.LFB69:
  69              		.loc 1 94 0
  70              		.cfi_startproc
  71              		@ args = 0, pretend = 0, frame = 0
  72              		@ frame_needed = 0, uses_anonymous_args = 0
  73              		@ link register save eliminated.
  74              	.LVL6:
  75              		.loc 1 96 0
  76 0000 3030     		adds	r0, r0, #48
  77              	.LVL7:
  78 0002 FFF7FEBF 		b	chOQWriteTimeout
  79              	.LVL8:
  80              		.cfi_endproc
  81              	.LFE69:
  82              		.size	writet, .-writet
  83 0006 00BF     		.section	.text.write,"ax",%progbits
  84              		.align	2
  85              		.thumb
  86              		.thumb_func
  87              		.type	write, %function
  88              	write:
  89              	.LFB63:
  90              		.loc 1 62 0
  91              		.cfi_startproc
  92              		@ args = 0, pretend = 0, frame = 0
  93              		@ frame_needed = 0, uses_anonymous_args = 0
  94              		@ link register save eliminated.
  95              	.LVL9:
  96              		.loc 1 64 0
  97 0000 3030     		adds	r0, r0, #48
  98              	.LVL10:
  99 0002 4FF0FF33 		mov	r3, #-1
 100 0006 FFF7FEBF 		b	chOQWriteTimeout
 101              	.LVL11:
 102              		.cfi_endproc
 103              	.LFE63:
 104              		.size	write, .-write
 105 000a 00BF     		.section	.text.gett,"ax",%progbits
 106              		.align	2
 107              		.thumb
 108              		.thumb_func
 109              		.type	gett, %function
 110              	gett:
 111              	.LFB68:
 112              		.loc 1 89 0
 113              		.cfi_startproc
 114              		@ args = 0, pretend = 0, frame = 0
ARM GAS  /tmp/ccW6jFqV.s 			page 3


 115              		@ frame_needed = 0, uses_anonymous_args = 0
 116              		@ link register save eliminated.
 117              	.LVL12:
 118              		.loc 1 91 0
 119 0000 0C30     		adds	r0, r0, #12
 120              	.LVL13:
 121 0002 FFF7FEBF 		b	chIQGetTimeout
 122              	.LVL14:
 123              		.cfi_endproc
 124              	.LFE68:
 125              		.size	gett, .-gett
 126 0006 00BF     		.section	.text.get,"ax",%progbits
 127              		.align	2
 128              		.thumb
 129              		.thumb_func
 130              		.type	get, %function
 131              	get:
 132              	.LFB66:
 133              		.loc 1 79 0
 134              		.cfi_startproc
 135              		@ args = 0, pretend = 0, frame = 0
 136              		@ frame_needed = 0, uses_anonymous_args = 0
 137              		@ link register save eliminated.
 138              	.LVL15:
 139              		.loc 1 81 0
 140 0000 0C30     		adds	r0, r0, #12
 141              	.LVL16:
 142 0002 4FF0FF31 		mov	r1, #-1
 143 0006 FFF7FEBF 		b	chIQGetTimeout
 144              	.LVL17:
 145              		.cfi_endproc
 146              	.LFE66:
 147              		.size	get, .-get
 148 000a 00BF     		.section	.text.putt,"ax",%progbits
 149              		.align	2
 150              		.thumb
 151              		.thumb_func
 152              		.type	putt, %function
 153              	putt:
 154              	.LFB67:
 155              		.loc 1 84 0
 156              		.cfi_startproc
 157              		@ args = 0, pretend = 0, frame = 0
 158              		@ frame_needed = 0, uses_anonymous_args = 0
 159              		@ link register save eliminated.
 160              	.LVL18:
 161              		.loc 1 86 0
 162 0000 3030     		adds	r0, r0, #48
 163              	.LVL19:
 164 0002 FFF7FEBF 		b	chOQPutTimeout
 165              	.LVL20:
 166              		.cfi_endproc
 167              	.LFE67:
 168              		.size	putt, .-putt
 169 0006 00BF     		.section	.text.put,"ax",%progbits
 170              		.align	2
 171              		.thumb
ARM GAS  /tmp/ccW6jFqV.s 			page 4


 172              		.thumb_func
 173              		.type	put, %function
 174              	put:
 175              	.LFB65:
 176              		.loc 1 74 0
 177              		.cfi_startproc
 178              		@ args = 0, pretend = 0, frame = 0
 179              		@ frame_needed = 0, uses_anonymous_args = 0
 180              		@ link register save eliminated.
 181              	.LVL21:
 182              		.loc 1 76 0
 183 0000 3030     		adds	r0, r0, #48
 184              	.LVL22:
 185 0002 4FF0FF32 		mov	r2, #-1
 186 0006 FFF7FEBF 		b	chOQPutTimeout
 187              	.LVL23:
 188              		.cfi_endproc
 189              	.LFE65:
 190              		.size	put, .-put
 191 000a 00BF     		.section	.text.sdInit,"ax",%progbits
 192              		.align	2
 193              		.global	sdInit
 194              		.thumb
 195              		.thumb_func
 196              		.type	sdInit, %function
 197              	sdInit:
 198              	.LFB71:
 199              		.loc 1 120 0
 200              		.cfi_startproc
 201              		@ args = 0, pretend = 0, frame = 0
 202              		@ frame_needed = 0, uses_anonymous_args = 0
 203              		@ link register save eliminated.
 204              		.loc 1 122 0
 205 0000 FFF7FEBF 		b	sd_lld_init
 206              	.LVL24:
 207              		.cfi_endproc
 208              	.LFE71:
 209              		.size	sdInit, .-sdInit
 210              		.section	.text.sdObjectInit,"ax",%progbits
 211              		.align	2
 212              		.global	sdObjectInit
 213              		.thumb
 214              		.thumb_func
 215              		.type	sdObjectInit, %function
 216              	sdObjectInit:
 217              	.LFB72:
 218              		.loc 1 140 0
 219              		.cfi_startproc
 220              		@ args = 0, pretend = 0, frame = 0
 221              		@ frame_needed = 0, uses_anonymous_args = 0
 222              	.LVL25:
 223 0000 70B5     		push	{r4, r5, r6, lr}
 224              		.cfi_def_cfa_offset 16
 225              		.cfi_offset 4, -16
 226              		.cfi_offset 5, -12
 227              		.cfi_offset 6, -8
 228              		.cfi_offset 14, -4
ARM GAS  /tmp/ccW6jFqV.s 			page 5


 229              		.loc 1 142 0
 230 0002 40F20005 		movw	r5, #:lower16:.LANCHOR0
 231 0006 C0F20005 		movt	r5, #:upper16:.LANCHOR0
 232              		.loc 1 140 0
 233 000a 0446     		mov	r4, r0
 234 000c 82B0     		sub	sp, sp, #8
 235              		.cfi_def_cfa_offset 24
 236              		.loc 1 142 0
 237 000e 40F8045B 		str	r5, [r0], #4
 238              	.LVL26:
 239              		.loc 1 144 0
 240 0012 0126     		movs	r6, #1
 241              		.loc 1 145 0
 242 0014 0094     		str	r4, [sp]
 243              		.loc 1 140 0
 244 0016 0B46     		mov	r3, r1
 245 0018 1546     		mov	r5, r2
 246              		.loc 1 143 0
 247 001a 6060     		str	r0, [r4, #4]
 248              		.loc 1 145 0
 249 001c 04F15401 		add	r1, r4, #84
 250              	.LVL27:
 251 0020 04F10C00 		add	r0, r4, #12
 252              		.loc 1 144 0
 253 0024 2672     		strb	r6, [r4, #8]
 254              		.loc 1 145 0
 255 0026 1022     		movs	r2, #16
 256              	.LVL28:
 257 0028 FFF7FEFF 		bl	chIQInit
 258              	.LVL29:
 259              		.loc 1 146 0
 260 002c 0094     		str	r4, [sp]
 261 002e 2B46     		mov	r3, r5
 262 0030 04F13000 		add	r0, r4, #48
 263 0034 04F16401 		add	r1, r4, #100
 264 0038 1022     		movs	r2, #16
 265 003a FFF7FEFF 		bl	chOQInit
 266              	.LVL30:
 267              		.loc 1 147 0
 268 003e 02B0     		add	sp, sp, #8
 269              		@ sp needed
 270 0040 70BD     		pop	{r4, r5, r6, pc}
 271              		.cfi_endproc
 272              	.LFE72:
 273              		.size	sdObjectInit, .-sdObjectInit
 274 0042 00BF     		.section	.text.sdStart,"ax",%progbits
 275              		.align	2
 276              		.global	sdStart
 277              		.thumb
 278              		.thumb_func
 279              		.type	sdStart, %function
 280              	sdStart:
 281              	.LFB73:
 282              		.loc 1 159 0
 283              		.cfi_startproc
 284              		@ args = 0, pretend = 0, frame = 0
 285              		@ frame_needed = 0, uses_anonymous_args = 0
ARM GAS  /tmp/ccW6jFqV.s 			page 6


 286              	.LVL31:
 287 0000 10B5     		push	{r4, lr}
 288              		.cfi_def_cfa_offset 8
 289              		.cfi_offset 4, -8
 290              		.cfi_offset 14, -4
 291              	.LBB2:
 292              		.loc 1 163 0
 293 0002 2023     		movs	r3, #32
 294              	.LBE2:
 295              		.loc 1 159 0
 296 0004 0446     		mov	r4, r0
 297              	.LBB3:
 298              		.loc 1 163 0
 299              	@ 163 "../ChibiOS_2.6.4/os/hal/src/serial.c" 1
 300 0006 83F31188 		msr     BASEPRI, r3
 301              	@ 0 "" 2
 302              		.thumb
 303              	.LBE3:
 304              		.loc 1 167 0
 305 000a FFF7FEFF 		bl	sd_lld_start
 306              	.LVL32:
 307              		.loc 1 168 0
 308 000e 0223     		movs	r3, #2
 309 0010 2372     		strb	r3, [r4, #8]
 310              	.LBB4:
 311              		.loc 1 169 0
 312 0012 0023     		movs	r3, #0
 313              	@ 169 "../ChibiOS_2.6.4/os/hal/src/serial.c" 1
 314 0014 83F31188 		msr     BASEPRI, r3
 315              	@ 0 "" 2
 316              		.thumb
 317 0018 10BD     		pop	{r4, pc}
 318              	.LBE4:
 319              		.cfi_endproc
 320              	.LFE73:
 321              		.size	sdStart, .-sdStart
 322 001a 00BF     		.section	.text.sdStop,"ax",%progbits
 323              		.align	2
 324              		.global	sdStop
 325              		.thumb
 326              		.thumb_func
 327              		.type	sdStop, %function
 328              	sdStop:
 329              	.LFB74:
 330              		.loc 1 181 0
 331              		.cfi_startproc
 332              		@ args = 0, pretend = 0, frame = 0
 333              		@ frame_needed = 0, uses_anonymous_args = 0
 334              	.LVL33:
 335 0000 10B5     		push	{r4, lr}
 336              		.cfi_def_cfa_offset 8
 337              		.cfi_offset 4, -8
 338              		.cfi_offset 14, -4
 339              	.LBB5:
 340              		.loc 1 185 0
 341 0002 2023     		movs	r3, #32
 342              	.LBE5:
ARM GAS  /tmp/ccW6jFqV.s 			page 7


 343              		.loc 1 181 0
 344 0004 0446     		mov	r4, r0
 345              	.LBB6:
 346              		.loc 1 185 0
 347              	@ 185 "../ChibiOS_2.6.4/os/hal/src/serial.c" 1
 348 0006 83F31188 		msr     BASEPRI, r3
 349              	@ 0 "" 2
 350              		.thumb
 351              	.LBE6:
 352              		.loc 1 189 0
 353 000a FFF7FEFF 		bl	sd_lld_stop
 354              	.LVL34:
 355              		.loc 1 190 0
 356 000e 0123     		movs	r3, #1
 357 0010 2372     		strb	r3, [r4, #8]
 358              		.loc 1 191 0
 359 0012 04F13000 		add	r0, r4, #48
 360 0016 FFF7FEFF 		bl	chOQResetI
 361              	.LVL35:
 362              		.loc 1 192 0
 363 001a 04F10C00 		add	r0, r4, #12
 364 001e FFF7FEFF 		bl	chIQResetI
 365              	.LVL36:
 366              		.loc 1 193 0
 367 0022 FFF7FEFF 		bl	chSchRescheduleS
 368              	.LVL37:
 369              	.LBB7:
 370              		.loc 1 194 0
 371 0026 0023     		movs	r3, #0
 372              	@ 194 "../ChibiOS_2.6.4/os/hal/src/serial.c" 1
 373 0028 83F31188 		msr     BASEPRI, r3
 374              	@ 0 "" 2
 375              		.thumb
 376 002c 10BD     		pop	{r4, pc}
 377              	.LBE7:
 378              		.cfi_endproc
 379              	.LFE74:
 380              		.size	sdStop, .-sdStop
 381 002e 00BF     		.section	.text.sdIncomingDataI,"ax",%progbits
 382              		.align	2
 383              		.global	sdIncomingDataI
 384              		.thumb
 385              		.thumb_func
 386              		.type	sdIncomingDataI, %function
 387              	sdIncomingDataI:
 388              	.LFB75:
 389              		.loc 1 213 0
 390              		.cfi_startproc
 391              		@ args = 0, pretend = 0, frame = 0
 392              		@ frame_needed = 0, uses_anonymous_args = 0
 393              	.LVL38:
 394 0000 38B5     		push	{r3, r4, r5, lr}
 395              		.cfi_def_cfa_offset 16
 396              		.cfi_offset 3, -16
 397              		.cfi_offset 4, -12
 398              		.cfi_offset 5, -8
 399              		.cfi_offset 14, -4
ARM GAS  /tmp/ccW6jFqV.s 			page 8


 400              		.loc 1 218 0
 401 0002 4369     		ldr	r3, [r0, #20]
 402              		.loc 1 213 0
 403 0004 0446     		mov	r4, r0
 404 0006 0D46     		mov	r5, r1
 405              		.loc 1 218 0
 406 0008 3BB1     		cbz	r3, .L17
 407              		.loc 1 220 0
 408 000a 2946     		mov	r1, r5
 409              	.LVL39:
 410 000c 04F10C00 		add	r0, r4, #12
 411              	.LVL40:
 412 0010 FFF7FEFF 		bl	chIQPutI
 413              	.LVL41:
 414 0014 0028     		cmp	r0, #0
 415 0016 0BDB     		blt	.L18
 416              	.L13:
 417 0018 38BD     		pop	{r3, r4, r5, pc}
 418              	.LVL42:
 419              	.L17:
 420              		.loc 1 219 0
 421 001a 0430     		adds	r0, r0, #4
 422              	.LVL43:
 423 001c 0421     		movs	r1, #4
 424              	.LVL44:
 425 001e FFF7FEFF 		bl	chEvtBroadcastFlagsI
 426              	.LVL45:
 427              		.loc 1 220 0
 428 0022 2946     		mov	r1, r5
 429 0024 04F10C00 		add	r0, r4, #12
 430 0028 FFF7FEFF 		bl	chIQPutI
 431              	.LVL46:
 432 002c 0028     		cmp	r0, #0
 433 002e F3DA     		bge	.L13
 434              	.L18:
 435              		.loc 1 221 0
 436 0030 201D     		adds	r0, r4, #4
 437 0032 8021     		movs	r1, #128
 438              		.loc 1 222 0
 439 0034 BDE83840 		pop	{r3, r4, r5, lr}
 440              	.LVL47:
 441              		.loc 1 221 0
 442 0038 FFF7FEBF 		b	chEvtBroadcastFlagsI
 443              	.LVL48:
 444              		.cfi_endproc
 445              	.LFE75:
 446              		.size	sdIncomingDataI, .-sdIncomingDataI
 447              		.section	.text.sdRequestDataI,"ax",%progbits
 448              		.align	2
 449              		.global	sdRequestDataI
 450              		.thumb
 451              		.thumb_func
 452              		.type	sdRequestDataI, %function
 453              	sdRequestDataI:
 454              	.LFB76:
 455              		.loc 1 239 0
 456              		.cfi_startproc
ARM GAS  /tmp/ccW6jFqV.s 			page 9


 457              		@ args = 0, pretend = 0, frame = 0
 458              		@ frame_needed = 0, uses_anonymous_args = 0
 459              	.LVL49:
 460 0000 38B5     		push	{r3, r4, r5, lr}
 461              		.cfi_def_cfa_offset 16
 462              		.cfi_offset 3, -16
 463              		.cfi_offset 4, -12
 464              		.cfi_offset 5, -8
 465              		.cfi_offset 14, -4
 466              		.loc 1 239 0
 467 0002 0446     		mov	r4, r0
 468              		.loc 1 245 0
 469 0004 3030     		adds	r0, r0, #48
 470              	.LVL50:
 471 0006 FFF7FEFF 		bl	chOQGetI
 472              	.LVL51:
 473              		.loc 1 246 0
 474 000a 051E     		subs	r5, r0, #0
 475 000c 01DB     		blt	.L21
 476              		.loc 1 249 0
 477 000e 2846     		mov	r0, r5
 478 0010 38BD     		pop	{r3, r4, r5, pc}
 479              	.LVL52:
 480              	.L21:
 481              		.loc 1 247 0
 482 0012 201D     		adds	r0, r4, #4
 483              	.LVL53:
 484 0014 0821     		movs	r1, #8
 485 0016 FFF7FEFF 		bl	chEvtBroadcastFlagsI
 486              	.LVL54:
 487              		.loc 1 249 0
 488 001a 2846     		mov	r0, r5
 489 001c 38BD     		pop	{r3, r4, r5, pc}
 490              		.cfi_endproc
 491              	.LFE76:
 492              		.size	sdRequestDataI, .-sdRequestDataI
 493 001e 00BF     		.section	.rodata.vmt,"a",%progbits
 494              		.align	2
 495              		.set	.LANCHOR0,. + 0
 496              		.type	vmt, %object
 497              		.size	vmt, 32
 498              	vmt:
 499 0000 00000000 		.word	write
 500 0004 00000000 		.word	read
 501 0008 00000000 		.word	put
 502 000c 00000000 		.word	get
 503 0010 00000000 		.word	putt
 504 0014 00000000 		.word	gett
 505 0018 00000000 		.word	writet
 506 001c 00000000 		.word	readt
 507              		.text
 508              	.Letext0:
 509              		.file 2 "/usr/lib/gcc/arm-none-eabi/4.8.2/include/stddef.h"
 510              		.file 3 "/usr/include/newlib/machine/_default_types.h"
 511              		.file 4 "/usr/include/newlib/stdint.h"
 512              		.file 5 "../ChibiOS_2.6.4/os/ports/GCC/ARMCMx/chtypes.h"
 513              		.file 6 "../ChibiOS_2.6.4/os/kernel/include/chlists.h"
ARM GAS  /tmp/ccW6jFqV.s 			page 10


 514              		.file 7 "../ChibiOS_2.6.4/os/kernel/include/chthreads.h"
 515              		.file 8 "../ChibiOS_2.6.4/os/ports/GCC/ARMCMx/chcore_v7m.h"
 516              		.file 9 "../ChibiOS_2.6.4/os/kernel/include/chmtx.h"
 517              		.file 10 "../ChibiOS_2.6.4/os/kernel/include/chevents.h"
 518              		.file 11 "../ChibiOS_2.6.4/os/kernel/include/chqueues.h"
 519              		.file 12 "../ChibiOS_2.6.4/os/hal/platforms/STM32L1xx/stm32l1xx.h"
 520              		.file 13 "../ChibiOS_2.6.4/os/hal/include/serial.h"
 521              		.file 14 "../ChibiOS_2.6.4/os/hal/platforms/STM32/USARTv1/serial_lld.h"
 522              		.file 15 "../ChibiOS_2.6.4/os/kernel/include/chschd.h"
 523              		.file 16 "../ChibiOS_2.6.4/os/ports/common/ARMCMx/CMSIS/include/core_cm3.h"
 524              		.section	.debug_info,"",%progbits
 525              	.Ldebug_info0:
 526 0000 BA0F0000 		.4byte	0xfba
 527 0004 0400     		.2byte	0x4
 528 0006 00000000 		.4byte	.Ldebug_abbrev0
 529 000a 04       		.byte	0x4
 530 000b 01       		.uleb128 0x1
 531 000c FC010000 		.4byte	.LASF136
 532 0010 01       		.byte	0x1
 533 0011 56050000 		.4byte	.LASF137
 534 0015 FD020000 		.4byte	.LASF138
 535 0019 30000000 		.4byte	.Ldebug_ranges0+0x30
 536 001d 00000000 		.4byte	0
 537 0021 00000000 		.4byte	.Ldebug_line0
 538 0025 02       		.uleb128 0x2
 539 0026 04       		.byte	0x4
 540 0027 05       		.byte	0x5
 541 0028 696E7400 		.ascii	"int\000"
 542 002c 03       		.uleb128 0x3
 543 002d 0F000000 		.4byte	.LASF2
 544 0031 02       		.byte	0x2
 545 0032 D4       		.byte	0xd4
 546 0033 37000000 		.4byte	0x37
 547 0037 04       		.uleb128 0x4
 548 0038 04       		.byte	0x4
 549 0039 07       		.byte	0x7
 550 003a 7E010000 		.4byte	.LASF0
 551 003e 04       		.uleb128 0x4
 552 003f 01       		.byte	0x1
 553 0040 06       		.byte	0x6
 554 0041 AF000000 		.4byte	.LASF1
 555 0045 03       		.uleb128 0x3
 556 0046 29000000 		.4byte	.LASF3
 557 004a 03       		.byte	0x3
 558 004b 1C       		.byte	0x1c
 559 004c 50000000 		.4byte	0x50
 560 0050 04       		.uleb128 0x4
 561 0051 01       		.byte	0x1
 562 0052 08       		.byte	0x8
 563 0053 E4030000 		.4byte	.LASF4
 564 0057 04       		.uleb128 0x4
 565 0058 02       		.byte	0x2
 566 0059 05       		.byte	0x5
 567 005a 26040000 		.4byte	.LASF5
 568 005e 03       		.uleb128 0x3
 569 005f E1040000 		.4byte	.LASF6
 570 0063 03       		.byte	0x3
ARM GAS  /tmp/ccW6jFqV.s 			page 11


 571 0064 26       		.byte	0x26
 572 0065 69000000 		.4byte	0x69
 573 0069 04       		.uleb128 0x4
 574 006a 02       		.byte	0x2
 575 006b 07       		.byte	0x7
 576 006c DC010000 		.4byte	.LASF7
 577 0070 03       		.uleb128 0x3
 578 0071 08050000 		.4byte	.LASF8
 579 0075 03       		.byte	0x3
 580 0076 37       		.byte	0x37
 581 0077 7B000000 		.4byte	0x7b
 582 007b 04       		.uleb128 0x4
 583 007c 04       		.byte	0x4
 584 007d 05       		.byte	0x5
 585 007e E7000000 		.4byte	.LASF9
 586 0082 03       		.uleb128 0x3
 587 0083 4F010000 		.4byte	.LASF10
 588 0087 03       		.byte	0x3
 589 0088 38       		.byte	0x38
 590 0089 8D000000 		.4byte	0x8d
 591 008d 04       		.uleb128 0x4
 592 008e 04       		.byte	0x4
 593 008f 07       		.byte	0x7
 594 0090 A6040000 		.4byte	.LASF11
 595 0094 04       		.uleb128 0x4
 596 0095 08       		.byte	0x8
 597 0096 05       		.byte	0x5
 598 0097 A1000000 		.4byte	.LASF12
 599 009b 04       		.uleb128 0x4
 600 009c 08       		.byte	0x8
 601 009d 07       		.byte	0x7
 602 009e 43000000 		.4byte	.LASF13
 603 00a2 03       		.uleb128 0x3
 604 00a3 93050000 		.4byte	.LASF14
 605 00a7 04       		.byte	0x4
 606 00a8 2A       		.byte	0x2a
 607 00a9 45000000 		.4byte	0x45
 608 00ad 03       		.uleb128 0x3
 609 00ae 8B010000 		.4byte	.LASF15
 610 00b2 04       		.byte	0x4
 611 00b3 36       		.byte	0x36
 612 00b4 5E000000 		.4byte	0x5e
 613 00b8 03       		.uleb128 0x3
 614 00b9 DC030000 		.4byte	.LASF16
 615 00bd 04       		.byte	0x4
 616 00be 41       		.byte	0x41
 617 00bf 70000000 		.4byte	0x70
 618 00c3 03       		.uleb128 0x3
 619 00c4 86040000 		.4byte	.LASF17
 620 00c8 04       		.byte	0x4
 621 00c9 42       		.byte	0x42
 622 00ca 82000000 		.4byte	0x82
 623 00ce 03       		.uleb128 0x3
 624 00cf C8000000 		.4byte	.LASF18
 625 00d3 05       		.byte	0x5
 626 00d4 2B       		.byte	0x2b
 627 00d5 D9000000 		.4byte	0xd9
ARM GAS  /tmp/ccW6jFqV.s 			page 12


 628 00d9 04       		.uleb128 0x4
 629 00da 01       		.byte	0x1
 630 00db 02       		.byte	0x2
 631 00dc D6030000 		.4byte	.LASF19
 632 00e0 03       		.uleb128 0x3
 633 00e1 99020000 		.4byte	.LASF20
 634 00e5 05       		.byte	0x5
 635 00e6 2C       		.byte	0x2c
 636 00e7 A2000000 		.4byte	0xa2
 637 00eb 03       		.uleb128 0x3
 638 00ec F0000000 		.4byte	.LASF21
 639 00f0 05       		.byte	0x5
 640 00f1 2D       		.byte	0x2d
 641 00f2 A2000000 		.4byte	0xa2
 642 00f6 03       		.uleb128 0x3
 643 00f7 7B030000 		.4byte	.LASF22
 644 00fb 05       		.byte	0x5
 645 00fc 2E       		.byte	0x2e
 646 00fd A2000000 		.4byte	0xa2
 647 0101 03       		.uleb128 0x3
 648 0102 D7000000 		.4byte	.LASF23
 649 0106 05       		.byte	0x5
 650 0107 2F       		.byte	0x2f
 651 0108 A2000000 		.4byte	0xa2
 652 010c 03       		.uleb128 0x3
 653 010d C6030000 		.4byte	.LASF24
 654 0111 05       		.byte	0x5
 655 0112 30       		.byte	0x30
 656 0113 C3000000 		.4byte	0xc3
 657 0117 03       		.uleb128 0x3
 658 0118 EF010000 		.4byte	.LASF25
 659 011c 05       		.byte	0x5
 660 011d 31       		.byte	0x31
 661 011e B8000000 		.4byte	0xb8
 662 0122 03       		.uleb128 0x3
 663 0123 AD020000 		.4byte	.LASF26
 664 0127 05       		.byte	0x5
 665 0128 33       		.byte	0x33
 666 0129 C3000000 		.4byte	0xc3
 667 012d 03       		.uleb128 0x3
 668 012e 35050000 		.4byte	.LASF27
 669 0132 05       		.byte	0x5
 670 0133 34       		.byte	0x34
 671 0134 C3000000 		.4byte	0xc3
 672 0138 03       		.uleb128 0x3
 673 0139 F3040000 		.4byte	.LASF28
 674 013d 05       		.byte	0x5
 675 013e 35       		.byte	0x35
 676 013f C3000000 		.4byte	0xc3
 677 0143 03       		.uleb128 0x3
 678 0144 60040000 		.4byte	.LASF29
 679 0148 06       		.byte	0x6
 680 0149 2A       		.byte	0x2a
 681 014a 4E010000 		.4byte	0x14e
 682 014e 05       		.uleb128 0x5
 683 014f 60040000 		.4byte	.LASF29
 684 0153 48       		.byte	0x48
ARM GAS  /tmp/ccW6jFqV.s 			page 13


 685 0154 07       		.byte	0x7
 686 0155 5E       		.byte	0x5e
 687 0156 4B020000 		.4byte	0x24b
 688 015a 06       		.uleb128 0x6
 689 015b 41040000 		.4byte	.LASF30
 690 015f 07       		.byte	0x7
 691 0160 5F       		.byte	0x5f
 692 0161 6C020000 		.4byte	0x26c
 693 0165 00       		.byte	0
 694 0166 06       		.uleb128 0x6
 695 0167 B5030000 		.4byte	.LASF31
 696 016b 07       		.byte	0x7
 697 016c 61       		.byte	0x61
 698 016d 6C020000 		.4byte	0x26c
 699 0171 04       		.byte	0x4
 700 0172 06       		.uleb128 0x6
 701 0173 3E030000 		.4byte	.LASF32
 702 0177 07       		.byte	0x7
 703 0178 63       		.byte	0x63
 704 0179 0C010000 		.4byte	0x10c
 705 017d 08       		.byte	0x8
 706 017e 06       		.uleb128 0x6
 707 017f EA050000 		.4byte	.LASF33
 708 0183 07       		.byte	0x7
 709 0184 64       		.byte	0x64
 710 0185 26030000 		.4byte	0x326
 711 0189 0C       		.byte	0xc
 712 018a 06       		.uleb128 0x6
 713 018b 36010000 		.4byte	.LASF34
 714 018f 07       		.byte	0x7
 715 0190 66       		.byte	0x66
 716 0191 6C020000 		.4byte	0x26c
 717 0195 10       		.byte	0x10
 718 0196 06       		.uleb128 0x6
 719 0197 4D030000 		.4byte	.LASF35
 720 019b 07       		.byte	0x7
 721 019c 67       		.byte	0x67
 722 019d 6C020000 		.4byte	0x26c
 723 01a1 14       		.byte	0x14
 724 01a2 06       		.uleb128 0x6
 725 01a3 47050000 		.4byte	.LASF36
 726 01a7 07       		.byte	0x7
 727 01a8 6E       		.byte	0x6e
 728 01a9 3C040000 		.4byte	0x43c
 729 01ad 18       		.byte	0x18
 730 01ae 06       		.uleb128 0x6
 731 01af 14040000 		.4byte	.LASF37
 732 01b3 07       		.byte	0x7
 733 01b4 79       		.byte	0x79
 734 01b5 EB000000 		.4byte	0xeb
 735 01b9 1C       		.byte	0x1c
 736 01ba 06       		.uleb128 0x6
 737 01bb 48040000 		.4byte	.LASF38
 738 01bf 07       		.byte	0x7
 739 01c0 7D       		.byte	0x7d
 740 01c1 E0000000 		.4byte	0xe0
 741 01c5 1D       		.byte	0x1d
ARM GAS  /tmp/ccW6jFqV.s 			page 14


 742 01c6 06       		.uleb128 0x6
 743 01c7 02010000 		.4byte	.LASF39
 744 01cb 07       		.byte	0x7
 745 01cc 82       		.byte	0x82
 746 01cd F6000000 		.4byte	0xf6
 747 01d1 1E       		.byte	0x1e
 748 01d2 06       		.uleb128 0x6
 749 01d3 30040000 		.4byte	.LASF40
 750 01d7 07       		.byte	0x7
 751 01d8 88       		.byte	0x88
 752 01d9 01010000 		.4byte	0x101
 753 01dd 1F       		.byte	0x1f
 754 01de 06       		.uleb128 0x6
 755 01df A4010000 		.4byte	.LASF41
 756 01e3 07       		.byte	0x7
 757 01e4 8F       		.byte	0x8f
 758 01e5 4E030000 		.4byte	0x34e
 759 01e9 20       		.byte	0x20
 760 01ea 07       		.uleb128 0x7
 761 01eb 705F7500 		.ascii	"p_u\000"
 762 01ef 07       		.byte	0x7
 763 01f0 B4       		.byte	0xb4
 764 01f1 07040000 		.4byte	0x407
 765 01f5 24       		.byte	0x24
 766 01f6 06       		.uleb128 0x6
 767 01f7 F0050000 		.4byte	.LASF42
 768 01fb 07       		.byte	0x7
 769 01fc B9       		.byte	0xb9
 770 01fd 92020000 		.4byte	0x292
 771 0201 28       		.byte	0x28
 772 0202 06       		.uleb128 0x6
 773 0203 BA010000 		.4byte	.LASF43
 774 0207 07       		.byte	0x7
 775 0208 BF       		.byte	0xbf
 776 0209 72020000 		.4byte	0x272
 777 020d 2C       		.byte	0x2c
 778 020e 06       		.uleb128 0x6
 779 020f B8050000 		.4byte	.LASF44
 780 0213 07       		.byte	0x7
 781 0214 C3       		.byte	0xc3
 782 0215 17010000 		.4byte	0x117
 783 0219 34       		.byte	0x34
 784 021a 06       		.uleb128 0x6
 785 021b 67040000 		.4byte	.LASF45
 786 021f 07       		.byte	0x7
 787 0220 C9       		.byte	0xc9
 788 0221 22010000 		.4byte	0x122
 789 0225 38       		.byte	0x38
 790 0226 06       		.uleb128 0x6
 791 0227 1C040000 		.4byte	.LASF46
 792 022b 07       		.byte	0x7
 793 022c D0       		.byte	0xd0
 794 022d 4E040000 		.4byte	0x44e
 795 0231 3C       		.byte	0x3c
 796 0232 06       		.uleb128 0x6
 797 0233 FD040000 		.4byte	.LASF47
 798 0237 07       		.byte	0x7
ARM GAS  /tmp/ccW6jFqV.s 			page 15


 799 0238 D4       		.byte	0xd4
 800 0239 0C010000 		.4byte	0x10c
 801 023d 40       		.byte	0x40
 802 023e 06       		.uleb128 0x6
 803 023f C0000000 		.4byte	.LASF48
 804 0243 07       		.byte	0x7
 805 0244 DA       		.byte	0xda
 806 0245 A8020000 		.4byte	0x2a8
 807 0249 44       		.byte	0x44
 808 024a 00       		.byte	0
 809 024b 08       		.uleb128 0x8
 810 024c 08       		.byte	0x8
 811 024d 06       		.byte	0x6
 812 024e 61       		.byte	0x61
 813 024f 6C020000 		.4byte	0x26c
 814 0253 06       		.uleb128 0x6
 815 0254 41040000 		.4byte	.LASF30
 816 0258 06       		.byte	0x6
 817 0259 62       		.byte	0x62
 818 025a 6C020000 		.4byte	0x26c
 819 025e 00       		.byte	0
 820 025f 06       		.uleb128 0x6
 821 0260 B5030000 		.4byte	.LASF31
 822 0264 06       		.byte	0x6
 823 0265 64       		.byte	0x64
 824 0266 6C020000 		.4byte	0x26c
 825 026a 04       		.byte	0x4
 826 026b 00       		.byte	0
 827 026c 09       		.uleb128 0x9
 828 026d 04       		.byte	0x4
 829 026e 43010000 		.4byte	0x143
 830 0272 03       		.uleb128 0x3
 831 0273 55030000 		.4byte	.LASF49
 832 0277 06       		.byte	0x6
 833 0278 66       		.byte	0x66
 834 0279 4B020000 		.4byte	0x24b
 835 027d 08       		.uleb128 0x8
 836 027e 04       		.byte	0x4
 837 027f 06       		.byte	0x6
 838 0280 6B       		.byte	0x6b
 839 0281 92020000 		.4byte	0x292
 840 0285 06       		.uleb128 0x6
 841 0286 41040000 		.4byte	.LASF30
 842 028a 06       		.byte	0x6
 843 028b 6D       		.byte	0x6d
 844 028c 6C020000 		.4byte	0x26c
 845 0290 00       		.byte	0
 846 0291 00       		.byte	0
 847 0292 03       		.uleb128 0x3
 848 0293 A1020000 		.4byte	.LASF50
 849 0297 06       		.byte	0x6
 850 0298 70       		.byte	0x70
 851 0299 7D020000 		.4byte	0x27d
 852 029d 03       		.uleb128 0x3
 853 029e 5A010000 		.4byte	.LASF51
 854 02a2 08       		.byte	0x8
 855 02a3 E5       		.byte	0xe5
ARM GAS  /tmp/ccW6jFqV.s 			page 16


 856 02a4 A8020000 		.4byte	0x2a8
 857 02a8 0A       		.uleb128 0xa
 858 02a9 04       		.byte	0x4
 859 02aa 0B       		.uleb128 0xb
 860 02ab 25050000 		.4byte	.LASF52
 861 02af 24       		.byte	0x24
 862 02b0 08       		.byte	0x8
 863 02b1 0C01     		.2byte	0x10c
 864 02b3 26030000 		.4byte	0x326
 865 02b7 0C       		.uleb128 0xc
 866 02b8 723400   		.ascii	"r4\000"
 867 02bb 08       		.byte	0x8
 868 02bc 1F01     		.2byte	0x11f
 869 02be 9D020000 		.4byte	0x29d
 870 02c2 00       		.byte	0
 871 02c3 0C       		.uleb128 0xc
 872 02c4 723500   		.ascii	"r5\000"
 873 02c7 08       		.byte	0x8
 874 02c8 2001     		.2byte	0x120
 875 02ca 9D020000 		.4byte	0x29d
 876 02ce 04       		.byte	0x4
 877 02cf 0C       		.uleb128 0xc
 878 02d0 723600   		.ascii	"r6\000"
 879 02d3 08       		.byte	0x8
 880 02d4 2101     		.2byte	0x121
 881 02d6 9D020000 		.4byte	0x29d
 882 02da 08       		.byte	0x8
 883 02db 0C       		.uleb128 0xc
 884 02dc 723700   		.ascii	"r7\000"
 885 02df 08       		.byte	0x8
 886 02e0 2201     		.2byte	0x122
 887 02e2 9D020000 		.4byte	0x29d
 888 02e6 0C       		.byte	0xc
 889 02e7 0C       		.uleb128 0xc
 890 02e8 723800   		.ascii	"r8\000"
 891 02eb 08       		.byte	0x8
 892 02ec 2301     		.2byte	0x123
 893 02ee 9D020000 		.4byte	0x29d
 894 02f2 10       		.byte	0x10
 895 02f3 0C       		.uleb128 0xc
 896 02f4 723900   		.ascii	"r9\000"
 897 02f7 08       		.byte	0x8
 898 02f8 2401     		.2byte	0x124
 899 02fa 9D020000 		.4byte	0x29d
 900 02fe 14       		.byte	0x14
 901 02ff 0C       		.uleb128 0xc
 902 0300 72313000 		.ascii	"r10\000"
 903 0304 08       		.byte	0x8
 904 0305 2501     		.2byte	0x125
 905 0307 9D020000 		.4byte	0x29d
 906 030b 18       		.byte	0x18
 907 030c 0C       		.uleb128 0xc
 908 030d 72313100 		.ascii	"r11\000"
 909 0311 08       		.byte	0x8
 910 0312 2601     		.2byte	0x126
 911 0314 9D020000 		.4byte	0x29d
 912 0318 1C       		.byte	0x1c
ARM GAS  /tmp/ccW6jFqV.s 			page 17


 913 0319 0C       		.uleb128 0xc
 914 031a 6C7200   		.ascii	"lr\000"
 915 031d 08       		.byte	0x8
 916 031e 2701     		.2byte	0x127
 917 0320 9D020000 		.4byte	0x29d
 918 0324 20       		.byte	0x20
 919 0325 00       		.byte	0
 920 0326 0B       		.uleb128 0xb
 921 0327 1D050000 		.4byte	.LASF53
 922 032b 04       		.byte	0x4
 923 032c 08       		.byte	0x8
 924 032d 3101     		.2byte	0x131
 925 032f 41030000 		.4byte	0x341
 926 0333 0C       		.uleb128 0xc
 927 0334 72313300 		.ascii	"r13\000"
 928 0338 08       		.byte	0x8
 929 0339 3201     		.2byte	0x132
 930 033b 41030000 		.4byte	0x341
 931 033f 00       		.byte	0
 932 0340 00       		.byte	0
 933 0341 09       		.uleb128 0x9
 934 0342 04       		.byte	0x4
 935 0343 AA020000 		.4byte	0x2aa
 936 0347 04       		.uleb128 0x4
 937 0348 04       		.byte	0x4
 938 0349 07       		.byte	0x7
 939 034a 25030000 		.4byte	.LASF54
 940 034e 0D       		.uleb128 0xd
 941 034f 38010000 		.4byte	0x138
 942 0353 05       		.uleb128 0x5
 943 0354 38030000 		.4byte	.LASF55
 944 0358 10       		.byte	0x10
 945 0359 09       		.byte	0x9
 946 035a 2C       		.byte	0x2c
 947 035b 84030000 		.4byte	0x384
 948 035f 06       		.uleb128 0x6
 949 0360 CF000000 		.4byte	.LASF56
 950 0364 09       		.byte	0x9
 951 0365 2D       		.byte	0x2d
 952 0366 72020000 		.4byte	0x272
 953 036a 00       		.byte	0
 954 036b 06       		.uleb128 0x6
 955 036c E2050000 		.4byte	.LASF57
 956 0370 09       		.byte	0x9
 957 0371 2F       		.byte	0x2f
 958 0372 6C020000 		.4byte	0x26c
 959 0376 08       		.byte	0x8
 960 0377 06       		.uleb128 0x6
 961 0378 EC040000 		.4byte	.LASF58
 962 037c 09       		.byte	0x9
 963 037d 31       		.byte	0x31
 964 037e 84030000 		.4byte	0x384
 965 0382 0C       		.byte	0xc
 966 0383 00       		.byte	0
 967 0384 09       		.uleb128 0x9
 968 0385 04       		.byte	0x4
 969 0386 53030000 		.4byte	0x353
ARM GAS  /tmp/ccW6jFqV.s 			page 18


 970 038a 03       		.uleb128 0x3
 971 038b 38030000 		.4byte	.LASF55
 972 038f 09       		.byte	0x9
 973 0390 33       		.byte	0x33
 974 0391 53030000 		.4byte	0x353
 975 0395 03       		.uleb128 0x3
 976 0396 A3050000 		.4byte	.LASF59
 977 039a 0A       		.byte	0xa
 978 039b 2C       		.byte	0x2c
 979 039c A0030000 		.4byte	0x3a0
 980 03a0 05       		.uleb128 0x5
 981 03a1 A3050000 		.4byte	.LASF59
 982 03a5 10       		.byte	0x10
 983 03a6 0A       		.byte	0xa
 984 03a7 31       		.byte	0x31
 985 03a8 DD030000 		.4byte	0x3dd
 986 03ac 06       		.uleb128 0x6
 987 03ad 50040000 		.4byte	.LASF60
 988 03b1 0A       		.byte	0xa
 989 03b2 32       		.byte	0x32
 990 03b3 DD030000 		.4byte	0x3dd
 991 03b7 00       		.byte	0
 992 03b8 06       		.uleb128 0x6
 993 03b9 FF030000 		.4byte	.LASF61
 994 03bd 0A       		.byte	0xa
 995 03be 35       		.byte	0x35
 996 03bf 6C020000 		.4byte	0x26c
 997 03c3 04       		.byte	0x4
 998 03c4 06       		.uleb128 0x6
 999 03c5 45030000 		.4byte	.LASF62
 1000 03c9 0A       		.byte	0xa
 1001 03ca 37       		.byte	0x37
 1002 03cb 22010000 		.4byte	0x122
 1003 03cf 08       		.byte	0x8
 1004 03d0 06       		.uleb128 0x6
 1005 03d1 0B040000 		.4byte	.LASF63
 1006 03d5 0A       		.byte	0xa
 1007 03d6 3A       		.byte	0x3a
 1008 03d7 2D010000 		.4byte	0x12d
 1009 03db 0C       		.byte	0xc
 1010 03dc 00       		.byte	0
 1011 03dd 09       		.uleb128 0x9
 1012 03de 04       		.byte	0x4
 1013 03df 95030000 		.4byte	0x395
 1014 03e3 05       		.uleb128 0x5
 1015 03e4 6C010000 		.4byte	.LASF64
 1016 03e8 04       		.byte	0x4
 1017 03e9 0A       		.byte	0xa
 1018 03ea 41       		.byte	0x41
 1019 03eb FC030000 		.4byte	0x3fc
 1020 03ef 06       		.uleb128 0x6
 1021 03f0 4E050000 		.4byte	.LASF65
 1022 03f4 0A       		.byte	0xa
 1023 03f5 42       		.byte	0x42
 1024 03f6 DD030000 		.4byte	0x3dd
 1025 03fa 00       		.byte	0
 1026 03fb 00       		.byte	0
ARM GAS  /tmp/ccW6jFqV.s 			page 19


 1027 03fc 03       		.uleb128 0x3
 1028 03fd 6C010000 		.4byte	.LASF64
 1029 0401 0A       		.byte	0xa
 1030 0402 45       		.byte	0x45
 1031 0403 E3030000 		.4byte	0x3e3
 1032 0407 0E       		.uleb128 0xe
 1033 0408 04       		.byte	0x4
 1034 0409 07       		.byte	0x7
 1035 040a 96       		.byte	0x96
 1036 040b 3C040000 		.4byte	0x43c
 1037 040f 0F       		.uleb128 0xf
 1038 0410 16000000 		.4byte	.LASF66
 1039 0414 07       		.byte	0x7
 1040 0415 9D       		.byte	0x9d
 1041 0416 17010000 		.4byte	0x117
 1042 041a 0F       		.uleb128 0xf
 1043 041b 6E000000 		.4byte	.LASF67
 1044 041f 07       		.byte	0x7
 1045 0420 A4       		.byte	0xa4
 1046 0421 17010000 		.4byte	0x117
 1047 0425 0F       		.uleb128 0xf
 1048 0426 B1050000 		.4byte	.LASF68
 1049 042a 07       		.byte	0x7
 1050 042b AB       		.byte	0xab
 1051 042c A8020000 		.4byte	0x2a8
 1052 0430 0F       		.uleb128 0xf
 1053 0431 3A040000 		.4byte	.LASF69
 1054 0435 07       		.byte	0x7
 1055 0436 B2       		.byte	0xb2
 1056 0437 22010000 		.4byte	0x122
 1057 043b 00       		.byte	0
 1058 043c 09       		.uleb128 0x9
 1059 043d 04       		.byte	0x4
 1060 043e 42040000 		.4byte	0x442
 1061 0442 10       		.uleb128 0x10
 1062 0443 47040000 		.4byte	0x447
 1063 0447 04       		.uleb128 0x4
 1064 0448 01       		.byte	0x1
 1065 0449 08       		.byte	0x8
 1066 044a BD040000 		.4byte	.LASF70
 1067 044e 09       		.uleb128 0x9
 1068 044f 04       		.byte	0x4
 1069 0450 8A030000 		.4byte	0x38a
 1070 0454 09       		.uleb128 0x9
 1071 0455 04       		.byte	0x4
 1072 0456 5A040000 		.4byte	0x45a
 1073 045a 11       		.uleb128 0x11
 1074 045b 17010000 		.4byte	0x117
 1075 045f 69040000 		.4byte	0x469
 1076 0463 12       		.uleb128 0x12
 1077 0464 A8020000 		.4byte	0x2a8
 1078 0468 00       		.byte	0
 1079 0469 03       		.uleb128 0x3
 1080 046a D4020000 		.4byte	.LASF71
 1081 046e 0B       		.byte	0xb
 1082 046f 37       		.byte	0x37
 1083 0470 74040000 		.4byte	0x474
ARM GAS  /tmp/ccW6jFqV.s 			page 20


 1084 0474 05       		.uleb128 0x5
 1085 0475 D4020000 		.4byte	.LASF71
 1086 0479 24       		.byte	0x24
 1087 047a 0B       		.byte	0xb
 1088 047b 45       		.byte	0x45
 1089 047c E1040000 		.4byte	0x4e1
 1090 0480 06       		.uleb128 0x6
 1091 0481 97000000 		.4byte	.LASF72
 1092 0485 0B       		.byte	0xb
 1093 0486 46       		.byte	0x46
 1094 0487 72020000 		.4byte	0x272
 1095 048b 00       		.byte	0
 1096 048c 06       		.uleb128 0x6
 1097 048d 2E030000 		.4byte	.LASF73
 1098 0491 0B       		.byte	0xb
 1099 0492 47       		.byte	0x47
 1100 0493 2C000000 		.4byte	0x2c
 1101 0497 08       		.byte	0x8
 1102 0498 06       		.uleb128 0x6
 1103 0499 09010000 		.4byte	.LASF74
 1104 049d 0B       		.byte	0xb
 1105 049e 48       		.byte	0x48
 1106 049f 03050000 		.4byte	0x503
 1107 04a3 0C       		.byte	0xc
 1108 04a4 06       		.uleb128 0x6
 1109 04a5 41050000 		.4byte	.LASF75
 1110 04a9 0B       		.byte	0xb
 1111 04aa 49       		.byte	0x49
 1112 04ab 03050000 		.4byte	0x503
 1113 04af 10       		.byte	0x10
 1114 04b0 06       		.uleb128 0x6
 1115 04b1 12010000 		.4byte	.LASF76
 1116 04b5 0B       		.byte	0xb
 1117 04b6 4B       		.byte	0x4b
 1118 04b7 03050000 		.4byte	0x503
 1119 04bb 14       		.byte	0x14
 1120 04bc 06       		.uleb128 0x6
 1121 04bd CE030000 		.4byte	.LASF77
 1122 04c1 0B       		.byte	0xb
 1123 04c2 4C       		.byte	0x4c
 1124 04c3 03050000 		.4byte	0x503
 1125 04c7 18       		.byte	0x18
 1126 04c8 06       		.uleb128 0x6
 1127 04c9 7B050000 		.4byte	.LASF78
 1128 04cd 0B       		.byte	0xb
 1129 04ce 4D       		.byte	0x4d
 1130 04cf E1040000 		.4byte	0x4e1
 1131 04d3 1C       		.byte	0x1c
 1132 04d4 06       		.uleb128 0x6
 1133 04d5 1A010000 		.4byte	.LASF79
 1134 04d9 0B       		.byte	0xb
 1135 04da 4E       		.byte	0x4e
 1136 04db A8020000 		.4byte	0x2a8
 1137 04df 20       		.byte	0x20
 1138 04e0 00       		.byte	0
 1139 04e1 03       		.uleb128 0x3
 1140 04e2 CA020000 		.4byte	.LASF80
ARM GAS  /tmp/ccW6jFqV.s 			page 21


 1141 04e6 0B       		.byte	0xb
 1142 04e7 3A       		.byte	0x3a
 1143 04e8 EC040000 		.4byte	0x4ec
 1144 04ec 09       		.uleb128 0x9
 1145 04ed 04       		.byte	0x4
 1146 04ee F2040000 		.4byte	0x4f2
 1147 04f2 13       		.uleb128 0x13
 1148 04f3 FD040000 		.4byte	0x4fd
 1149 04f7 12       		.uleb128 0x12
 1150 04f8 FD040000 		.4byte	0x4fd
 1151 04fc 00       		.byte	0
 1152 04fd 09       		.uleb128 0x9
 1153 04fe 04       		.byte	0x4
 1154 04ff 69040000 		.4byte	0x469
 1155 0503 09       		.uleb128 0x9
 1156 0504 04       		.byte	0x4
 1157 0505 A2000000 		.4byte	0xa2
 1158 0509 03       		.uleb128 0x3
 1159 050a B9020000 		.4byte	.LASF81
 1160 050e 0B       		.byte	0xb
 1161 050f 82       		.byte	0x82
 1162 0510 69040000 		.4byte	0x469
 1163 0514 03       		.uleb128 0x3
 1164 0515 1D000000 		.4byte	.LASF82
 1165 0519 0B       		.byte	0xb
 1166 051a F5       		.byte	0xf5
 1167 051b 69040000 		.4byte	0x469
 1168 051f 11       		.uleb128 0x11
 1169 0520 2C000000 		.4byte	0x2c
 1170 0524 38050000 		.4byte	0x538
 1171 0528 12       		.uleb128 0x12
 1172 0529 A8020000 		.4byte	0x2a8
 1173 052d 12       		.uleb128 0x12
 1174 052e 38050000 		.4byte	0x538
 1175 0532 12       		.uleb128 0x12
 1176 0533 2C000000 		.4byte	0x2c
 1177 0537 00       		.byte	0
 1178 0538 09       		.uleb128 0x9
 1179 0539 04       		.byte	0x4
 1180 053a 3E050000 		.4byte	0x53e
 1181 053e 10       		.uleb128 0x10
 1182 053f A2000000 		.4byte	0xa2
 1183 0543 09       		.uleb128 0x9
 1184 0544 04       		.byte	0x4
 1185 0545 1F050000 		.4byte	0x51f
 1186 0549 11       		.uleb128 0x11
 1187 054a 2C000000 		.4byte	0x2c
 1188 054e 62050000 		.4byte	0x562
 1189 0552 12       		.uleb128 0x12
 1190 0553 A8020000 		.4byte	0x2a8
 1191 0557 12       		.uleb128 0x12
 1192 0558 03050000 		.4byte	0x503
 1193 055c 12       		.uleb128 0x12
 1194 055d 2C000000 		.4byte	0x2c
 1195 0561 00       		.byte	0
 1196 0562 09       		.uleb128 0x9
 1197 0563 04       		.byte	0x4
ARM GAS  /tmp/ccW6jFqV.s 			page 22


 1198 0564 49050000 		.4byte	0x549
 1199 0568 11       		.uleb128 0x11
 1200 0569 17010000 		.4byte	0x117
 1201 056d 7C050000 		.4byte	0x57c
 1202 0571 12       		.uleb128 0x12
 1203 0572 A8020000 		.4byte	0x2a8
 1204 0576 12       		.uleb128 0x12
 1205 0577 A2000000 		.4byte	0xa2
 1206 057b 00       		.byte	0
 1207 057c 09       		.uleb128 0x9
 1208 057d 04       		.byte	0x4
 1209 057e 68050000 		.4byte	0x568
 1210 0582 0D       		.uleb128 0xd
 1211 0583 AD000000 		.4byte	0xad
 1212 0587 14       		.uleb128 0x14
 1213 0588 1C       		.byte	0x1c
 1214 0589 0C       		.byte	0xc
 1215 058a 4703     		.2byte	0x347
 1216 058c 45060000 		.4byte	0x645
 1217 0590 0C       		.uleb128 0xc
 1218 0591 535200   		.ascii	"SR\000"
 1219 0594 0C       		.byte	0xc
 1220 0595 4903     		.2byte	0x349
 1221 0597 82050000 		.4byte	0x582
 1222 059b 00       		.byte	0
 1223 059c 15       		.uleb128 0x15
 1224 059d 83030000 		.4byte	.LASF83
 1225 05a1 0C       		.byte	0xc
 1226 05a2 4A03     		.2byte	0x34a
 1227 05a4 AD000000 		.4byte	0xad
 1228 05a8 02       		.byte	0x2
 1229 05a9 0C       		.uleb128 0xc
 1230 05aa 445200   		.ascii	"DR\000"
 1231 05ad 0C       		.byte	0xc
 1232 05ae 4B03     		.2byte	0x34b
 1233 05b0 82050000 		.4byte	0x582
 1234 05b4 04       		.byte	0x4
 1235 05b5 15       		.uleb128 0x15
 1236 05b6 8D030000 		.4byte	.LASF84
 1237 05ba 0C       		.byte	0xc
 1238 05bb 4C03     		.2byte	0x34c
 1239 05bd AD000000 		.4byte	0xad
 1240 05c1 06       		.byte	0x6
 1241 05c2 0C       		.uleb128 0xc
 1242 05c3 42525200 		.ascii	"BRR\000"
 1243 05c7 0C       		.byte	0xc
 1244 05c8 4D03     		.2byte	0x34d
 1245 05ca 82050000 		.4byte	0x582
 1246 05ce 08       		.byte	0x8
 1247 05cf 15       		.uleb128 0x15
 1248 05d0 97030000 		.4byte	.LASF85
 1249 05d4 0C       		.byte	0xc
 1250 05d5 4E03     		.2byte	0x34e
 1251 05d7 AD000000 		.4byte	0xad
 1252 05db 0A       		.byte	0xa
 1253 05dc 0C       		.uleb128 0xc
 1254 05dd 43523100 		.ascii	"CR1\000"
ARM GAS  /tmp/ccW6jFqV.s 			page 23


 1255 05e1 0C       		.byte	0xc
 1256 05e2 4F03     		.2byte	0x34f
 1257 05e4 82050000 		.4byte	0x582
 1258 05e8 0C       		.byte	0xc
 1259 05e9 15       		.uleb128 0x15
 1260 05ea A1030000 		.4byte	.LASF86
 1261 05ee 0C       		.byte	0xc
 1262 05ef 5003     		.2byte	0x350
 1263 05f1 AD000000 		.4byte	0xad
 1264 05f5 0E       		.byte	0xe
 1265 05f6 0C       		.uleb128 0xc
 1266 05f7 43523200 		.ascii	"CR2\000"
 1267 05fb 0C       		.byte	0xc
 1268 05fc 5103     		.2byte	0x351
 1269 05fe 82050000 		.4byte	0x582
 1270 0602 10       		.byte	0x10
 1271 0603 15       		.uleb128 0x15
 1272 0604 AB030000 		.4byte	.LASF87
 1273 0608 0C       		.byte	0xc
 1274 0609 5203     		.2byte	0x352
 1275 060b AD000000 		.4byte	0xad
 1276 060f 12       		.byte	0x12
 1277 0610 0C       		.uleb128 0xc
 1278 0611 43523300 		.ascii	"CR3\000"
 1279 0615 0C       		.byte	0xc
 1280 0616 5303     		.2byte	0x353
 1281 0618 82050000 		.4byte	0x582
 1282 061c 14       		.byte	0x14
 1283 061d 15       		.uleb128 0x15
 1284 061e 7C040000 		.4byte	.LASF88
 1285 0622 0C       		.byte	0xc
 1286 0623 5403     		.2byte	0x354
 1287 0625 AD000000 		.4byte	0xad
 1288 0629 16       		.byte	0x16
 1289 062a 15       		.uleb128 0x15
 1290 062b BB000000 		.4byte	.LASF89
 1291 062f 0C       		.byte	0xc
 1292 0630 5503     		.2byte	0x355
 1293 0632 82050000 		.4byte	0x582
 1294 0636 18       		.byte	0x18
 1295 0637 15       		.uleb128 0x15
 1296 0638 BC030000 		.4byte	.LASF90
 1297 063c 0C       		.byte	0xc
 1298 063d 5603     		.2byte	0x356
 1299 063f AD000000 		.4byte	0xad
 1300 0643 1A       		.byte	0x1a
 1301 0644 00       		.byte	0
 1302 0645 16       		.uleb128 0x16
 1303 0646 84020000 		.4byte	.LASF91
 1304 064a 0C       		.byte	0xc
 1305 064b 5703     		.2byte	0x357
 1306 064d 87050000 		.4byte	0x587
 1307 0651 11       		.uleb128 0x11
 1308 0652 17010000 		.4byte	0x117
 1309 0656 6A060000 		.4byte	0x66a
 1310 065a 12       		.uleb128 0x12
 1311 065b A8020000 		.4byte	0x2a8
ARM GAS  /tmp/ccW6jFqV.s 			page 24


 1312 065f 12       		.uleb128 0x12
 1313 0660 A2000000 		.4byte	0xa2
 1314 0664 12       		.uleb128 0x12
 1315 0665 38010000 		.4byte	0x138
 1316 0669 00       		.byte	0
 1317 066a 09       		.uleb128 0x9
 1318 066b 04       		.byte	0x4
 1319 066c 51060000 		.4byte	0x651
 1320 0670 11       		.uleb128 0x11
 1321 0671 17010000 		.4byte	0x117
 1322 0675 84060000 		.4byte	0x684
 1323 0679 12       		.uleb128 0x12
 1324 067a A8020000 		.4byte	0x2a8
 1325 067e 12       		.uleb128 0x12
 1326 067f 38010000 		.4byte	0x138
 1327 0683 00       		.byte	0
 1328 0684 09       		.uleb128 0x9
 1329 0685 04       		.byte	0x4
 1330 0686 70060000 		.4byte	0x670
 1331 068a 11       		.uleb128 0x11
 1332 068b 2C000000 		.4byte	0x2c
 1333 068f A8060000 		.4byte	0x6a8
 1334 0693 12       		.uleb128 0x12
 1335 0694 A8020000 		.4byte	0x2a8
 1336 0698 12       		.uleb128 0x12
 1337 0699 38050000 		.4byte	0x538
 1338 069d 12       		.uleb128 0x12
 1339 069e 2C000000 		.4byte	0x2c
 1340 06a2 12       		.uleb128 0x12
 1341 06a3 38010000 		.4byte	0x138
 1342 06a7 00       		.byte	0
 1343 06a8 09       		.uleb128 0x9
 1344 06a9 04       		.byte	0x4
 1345 06aa 8A060000 		.4byte	0x68a
 1346 06ae 11       		.uleb128 0x11
 1347 06af 2C000000 		.4byte	0x2c
 1348 06b3 CC060000 		.4byte	0x6cc
 1349 06b7 12       		.uleb128 0x12
 1350 06b8 A8020000 		.4byte	0x2a8
 1351 06bc 12       		.uleb128 0x12
 1352 06bd 03050000 		.4byte	0x503
 1353 06c1 12       		.uleb128 0x12
 1354 06c2 2C000000 		.4byte	0x2c
 1355 06c6 12       		.uleb128 0x12
 1356 06c7 38010000 		.4byte	0x138
 1357 06cb 00       		.byte	0
 1358 06cc 09       		.uleb128 0x9
 1359 06cd 04       		.byte	0x4
 1360 06ce AE060000 		.4byte	0x6ae
 1361 06d2 17       		.uleb128 0x17
 1362 06d3 01       		.byte	0x1
 1363 06d4 0D       		.byte	0xd
 1364 06d5 64       		.byte	0x64
 1365 06d6 ED060000 		.4byte	0x6ed
 1366 06da 18       		.uleb128 0x18
 1367 06db 72040000 		.4byte	.LASF92
 1368 06df 00       		.sleb128 0
ARM GAS  /tmp/ccW6jFqV.s 			page 25


 1369 06e0 18       		.uleb128 0x18
 1370 06e1 58040000 		.4byte	.LASF93
 1371 06e5 01       		.sleb128 1
 1372 06e6 18       		.uleb128 0x18
 1373 06e7 2C050000 		.4byte	.LASF94
 1374 06eb 02       		.sleb128 2
 1375 06ec 00       		.byte	0
 1376 06ed 03       		.uleb128 0x3
 1377 06ee 8F040000 		.4byte	.LASF95
 1378 06f2 0D       		.byte	0xd
 1379 06f3 68       		.byte	0x68
 1380 06f4 D2060000 		.4byte	0x6d2
 1381 06f8 03       		.uleb128 0x3
 1382 06f9 99040000 		.4byte	.LASF96
 1383 06fd 0D       		.byte	0xd
 1384 06fe 6D       		.byte	0x6d
 1385 06ff 03070000 		.4byte	0x703
 1386 0703 05       		.uleb128 0x5
 1387 0704 99040000 		.4byte	.LASF96
 1388 0708 78       		.byte	0x78
 1389 0709 0D       		.byte	0xd
 1390 070a 87       		.byte	0x87
 1391 070b 6E070000 		.4byte	0x76e
 1392 070f 07       		.uleb128 0x7
 1393 0710 766D7400 		.ascii	"vmt\000"
 1394 0714 0D       		.byte	0xd
 1395 0715 89       		.byte	0x89
 1396 0716 1F080000 		.4byte	0x81f
 1397 071a 00       		.byte	0
 1398 071b 06       		.uleb128 0x6
 1399 071c D6010000 		.4byte	.LASF97
 1400 0720 0D       		.byte	0xd
 1401 0721 8A       		.byte	0x8a
 1402 0722 FC030000 		.4byte	0x3fc
 1403 0726 04       		.byte	0x4
 1404 0727 06       		.uleb128 0x6
 1405 0728 E1000000 		.4byte	.LASF98
 1406 072c 0D       		.byte	0xd
 1407 072d 8A       		.byte	0x8a
 1408 072e ED060000 		.4byte	0x6ed
 1409 0732 08       		.byte	0x8
 1410 0733 06       		.uleb128 0x6
 1411 0734 B3010000 		.4byte	.LASF99
 1412 0738 0D       		.byte	0xd
 1413 0739 8A       		.byte	0x8a
 1414 073a 09050000 		.4byte	0x509
 1415 073e 0C       		.byte	0xc
 1416 073f 06       		.uleb128 0x6
 1417 0740 F5010000 		.4byte	.LASF100
 1418 0744 0D       		.byte	0xd
 1419 0745 8A       		.byte	0x8a
 1420 0746 14050000 		.4byte	0x514
 1421 074a 30       		.byte	0x30
 1422 074b 07       		.uleb128 0x7
 1423 074c 696200   		.ascii	"ib\000"
 1424 074f 0D       		.byte	0xd
 1425 0750 8A       		.byte	0x8a
ARM GAS  /tmp/ccW6jFqV.s 			page 26


 1426 0751 2A080000 		.4byte	0x82a
 1427 0755 54       		.byte	0x54
 1428 0756 07       		.uleb128 0x7
 1429 0757 6F6200   		.ascii	"ob\000"
 1430 075a 0D       		.byte	0xd
 1431 075b 8A       		.byte	0x8a
 1432 075c 2A080000 		.4byte	0x82a
 1433 0760 64       		.byte	0x64
 1434 0761 06       		.uleb128 0x6
 1435 0762 78010000 		.4byte	.LASF101
 1436 0766 0D       		.byte	0xd
 1437 0767 8A       		.byte	0x8a
 1438 0768 3A080000 		.4byte	0x83a
 1439 076c 74       		.byte	0x74
 1440 076d 00       		.byte	0
 1441 076e 08       		.uleb128 0x8
 1442 076f 0C       		.byte	0xc
 1443 0770 0E       		.byte	0xe
 1444 0771 D7       		.byte	0xd7
 1445 0772 A7070000 		.4byte	0x7a7
 1446 0776 06       		.uleb128 0x6
 1447 0777 C4020000 		.4byte	.LASF102
 1448 077b 0E       		.byte	0xe
 1449 077c DB       		.byte	0xdb
 1450 077d C3000000 		.4byte	0xc3
 1451 0781 00       		.byte	0
 1452 0782 07       		.uleb128 0x7
 1453 0783 63723100 		.ascii	"cr1\000"
 1454 0787 0E       		.byte	0xe
 1455 0788 E0       		.byte	0xe0
 1456 0789 AD000000 		.4byte	0xad
 1457 078d 04       		.byte	0x4
 1458 078e 07       		.uleb128 0x7
 1459 078f 63723200 		.ascii	"cr2\000"
 1460 0793 0E       		.byte	0xe
 1461 0794 E4       		.byte	0xe4
 1462 0795 AD000000 		.4byte	0xad
 1463 0799 06       		.byte	0x6
 1464 079a 07       		.uleb128 0x7
 1465 079b 63723300 		.ascii	"cr3\000"
 1466 079f 0E       		.byte	0xe
 1467 07a0 E8       		.byte	0xe8
 1468 07a1 AD000000 		.4byte	0xad
 1469 07a5 08       		.byte	0x8
 1470 07a6 00       		.byte	0
 1471 07a7 03       		.uleb128 0x3
 1472 07a8 6E030000 		.4byte	.LASF103
 1473 07ac 0E       		.byte	0xe
 1474 07ad E9       		.byte	0xe9
 1475 07ae 6E070000 		.4byte	0x76e
 1476 07b2 05       		.uleb128 0x5
 1477 07b3 94010000 		.4byte	.LASF104
 1478 07b7 20       		.byte	0x20
 1479 07b8 0D       		.byte	0xd
 1480 07b9 7C       		.byte	0x7c
 1481 07ba 1F080000 		.4byte	0x81f
 1482 07be 06       		.uleb128 0x6
ARM GAS  /tmp/ccW6jFqV.s 			page 27


 1483 07bf F2020000 		.4byte	.LASF105
 1484 07c3 0D       		.byte	0xd
 1485 07c4 7D       		.byte	0x7d
 1486 07c5 43050000 		.4byte	0x543
 1487 07c9 00       		.byte	0
 1488 07ca 06       		.uleb128 0x6
 1489 07cb B8040000 		.4byte	.LASF106
 1490 07cf 0D       		.byte	0xd
 1491 07d0 7D       		.byte	0x7d
 1492 07d1 62050000 		.4byte	0x562
 1493 07d5 04       		.byte	0x4
 1494 07d6 07       		.uleb128 0x7
 1495 07d7 70757400 		.ascii	"put\000"
 1496 07db 0D       		.byte	0xd
 1497 07dc 7D       		.byte	0x7d
 1498 07dd 7C050000 		.4byte	0x57c
 1499 07e1 08       		.byte	0x8
 1500 07e2 07       		.uleb128 0x7
 1501 07e3 67657400 		.ascii	"get\000"
 1502 07e7 0D       		.byte	0xd
 1503 07e8 7D       		.byte	0x7d
 1504 07e9 54040000 		.4byte	0x454
 1505 07ed 0C       		.byte	0xc
 1506 07ee 06       		.uleb128 0x6
 1507 07ef F8020000 		.4byte	.LASF107
 1508 07f3 0D       		.byte	0xd
 1509 07f4 7D       		.byte	0x7d
 1510 07f5 6A060000 		.4byte	0x66a
 1511 07f9 10       		.byte	0x10
 1512 07fa 06       		.uleb128 0x6
 1513 07fb D1010000 		.4byte	.LASF108
 1514 07ff 0D       		.byte	0xd
 1515 0800 7D       		.byte	0x7d
 1516 0801 84060000 		.4byte	0x684
 1517 0805 14       		.byte	0x14
 1518 0806 06       		.uleb128 0x6
 1519 0807 92020000 		.4byte	.LASF109
 1520 080b 0D       		.byte	0xd
 1521 080c 7D       		.byte	0x7d
 1522 080d A8060000 		.4byte	0x6a8
 1523 0811 18       		.byte	0x18
 1524 0812 06       		.uleb128 0x6
 1525 0813 91000000 		.4byte	.LASF110
 1526 0817 0D       		.byte	0xd
 1527 0818 7D       		.byte	0x7d
 1528 0819 CC060000 		.4byte	0x6cc
 1529 081d 1C       		.byte	0x1c
 1530 081e 00       		.byte	0
 1531 081f 09       		.uleb128 0x9
 1532 0820 04       		.byte	0x4
 1533 0821 25080000 		.4byte	0x825
 1534 0825 10       		.uleb128 0x10
 1535 0826 B2070000 		.4byte	0x7b2
 1536 082a 19       		.uleb128 0x19
 1537 082b A2000000 		.4byte	0xa2
 1538 082f 3A080000 		.4byte	0x83a
 1539 0833 1A       		.uleb128 0x1a
ARM GAS  /tmp/ccW6jFqV.s 			page 28


 1540 0834 47030000 		.4byte	0x347
 1541 0838 0F       		.byte	0xf
 1542 0839 00       		.byte	0
 1543 083a 09       		.uleb128 0x9
 1544 083b 04       		.byte	0x4
 1545 083c 45060000 		.4byte	0x645
 1546 0840 1B       		.uleb128 0x1b
 1547 0841 91000000 		.4byte	.LASF110
 1548 0845 01       		.byte	0x1
 1549 0846 63       		.byte	0x63
 1550 0847 2C000000 		.4byte	0x2c
 1551 084b 00000000 		.4byte	.LFB70
 1552 084f 06000000 		.4byte	.LFE70-.LFB70
 1553 0853 01       		.uleb128 0x1
 1554 0854 9C       		.byte	0x9c
 1555 0855 BA080000 		.4byte	0x8ba
 1556 0859 1C       		.uleb128 0x1c
 1557 085a 697000   		.ascii	"ip\000"
 1558 085d 01       		.byte	0x1
 1559 085e 63       		.byte	0x63
 1560 085f A8020000 		.4byte	0x2a8
 1561 0863 00000000 		.4byte	.LLST0
 1562 0867 1C       		.uleb128 0x1c
 1563 0868 627000   		.ascii	"bp\000"
 1564 086b 01       		.byte	0x1
 1565 086c 63       		.byte	0x63
 1566 086d 03050000 		.4byte	0x503
 1567 0871 2E000000 		.4byte	.LLST1
 1568 0875 1C       		.uleb128 0x1c
 1569 0876 6E00     		.ascii	"n\000"
 1570 0878 01       		.byte	0x1
 1571 0879 63       		.byte	0x63
 1572 087a 2C000000 		.4byte	0x2c
 1573 087e 4F000000 		.4byte	.LLST2
 1574 0882 1D       		.uleb128 0x1d
 1575 0883 69030000 		.4byte	.LASF111
 1576 0887 01       		.byte	0x1
 1577 0888 63       		.byte	0x63
 1578 0889 38010000 		.4byte	0x138
 1579 088d 70000000 		.4byte	.LLST3
 1580 0891 1E       		.uleb128 0x1e
 1581 0892 06000000 		.4byte	.LVL2
 1582 0896 3B0E0000 		.4byte	0xe3b
 1583 089a 1F       		.uleb128 0x1f
 1584 089b 01       		.uleb128 0x1
 1585 089c 53       		.byte	0x53
 1586 089d 03       		.uleb128 0x3
 1587 089e F3       		.byte	0xf3
 1588 089f 01       		.uleb128 0x1
 1589 08a0 53       		.byte	0x53
 1590 08a1 1F       		.uleb128 0x1f
 1591 08a2 01       		.uleb128 0x1
 1592 08a3 52       		.byte	0x52
 1593 08a4 03       		.uleb128 0x3
 1594 08a5 F3       		.byte	0xf3
 1595 08a6 01       		.uleb128 0x1
 1596 08a7 52       		.byte	0x52
ARM GAS  /tmp/ccW6jFqV.s 			page 29


 1597 08a8 1F       		.uleb128 0x1f
 1598 08a9 01       		.uleb128 0x1
 1599 08aa 51       		.byte	0x51
 1600 08ab 03       		.uleb128 0x3
 1601 08ac F3       		.byte	0xf3
 1602 08ad 01       		.uleb128 0x1
 1603 08ae 51       		.byte	0x51
 1604 08af 1F       		.uleb128 0x1f
 1605 08b0 01       		.uleb128 0x1
 1606 08b1 50       		.byte	0x50
 1607 08b2 05       		.uleb128 0x5
 1608 08b3 F3       		.byte	0xf3
 1609 08b4 01       		.uleb128 0x1
 1610 08b5 50       		.byte	0x50
 1611 08b6 23       		.byte	0x23
 1612 08b7 0C       		.uleb128 0xc
 1613 08b8 00       		.byte	0
 1614 08b9 00       		.byte	0
 1615 08ba 1B       		.uleb128 0x1b
 1616 08bb B8040000 		.4byte	.LASF106
 1617 08bf 01       		.byte	0x1
 1618 08c0 44       		.byte	0x44
 1619 08c1 2C000000 		.4byte	0x2c
 1620 08c5 00000000 		.4byte	.LFB64
 1621 08c9 0A000000 		.4byte	.LFE64-.LFB64
 1622 08cd 01       		.uleb128 0x1
 1623 08ce 9C       		.byte	0x9c
 1624 08cf 24090000 		.4byte	0x924
 1625 08d3 1C       		.uleb128 0x1c
 1626 08d4 697000   		.ascii	"ip\000"
 1627 08d7 01       		.byte	0x1
 1628 08d8 44       		.byte	0x44
 1629 08d9 A8020000 		.4byte	0x2a8
 1630 08dd 91000000 		.4byte	.LLST4
 1631 08e1 1C       		.uleb128 0x1c
 1632 08e2 627000   		.ascii	"bp\000"
 1633 08e5 01       		.byte	0x1
 1634 08e6 44       		.byte	0x44
 1635 08e7 03050000 		.4byte	0x503
 1636 08eb BF000000 		.4byte	.LLST5
 1637 08ef 1C       		.uleb128 0x1c
 1638 08f0 6E00     		.ascii	"n\000"
 1639 08f2 01       		.byte	0x1
 1640 08f3 44       		.byte	0x44
 1641 08f4 2C000000 		.4byte	0x2c
 1642 08f8 E0000000 		.4byte	.LLST6
 1643 08fc 1E       		.uleb128 0x1e
 1644 08fd 0A000000 		.4byte	.LVL5
 1645 0901 3B0E0000 		.4byte	0xe3b
 1646 0905 1F       		.uleb128 0x1f
 1647 0906 01       		.uleb128 0x1
 1648 0907 53       		.byte	0x53
 1649 0908 02       		.uleb128 0x2
 1650 0909 09       		.byte	0x9
 1651 090a FF       		.byte	0xff
 1652 090b 1F       		.uleb128 0x1f
 1653 090c 01       		.uleb128 0x1
ARM GAS  /tmp/ccW6jFqV.s 			page 30


 1654 090d 52       		.byte	0x52
 1655 090e 03       		.uleb128 0x3
 1656 090f F3       		.byte	0xf3
 1657 0910 01       		.uleb128 0x1
 1658 0911 52       		.byte	0x52
 1659 0912 1F       		.uleb128 0x1f
 1660 0913 01       		.uleb128 0x1
 1661 0914 51       		.byte	0x51
 1662 0915 03       		.uleb128 0x3
 1663 0916 F3       		.byte	0xf3
 1664 0917 01       		.uleb128 0x1
 1665 0918 51       		.byte	0x51
 1666 0919 1F       		.uleb128 0x1f
 1667 091a 01       		.uleb128 0x1
 1668 091b 50       		.byte	0x50
 1669 091c 05       		.uleb128 0x5
 1670 091d F3       		.byte	0xf3
 1671 091e 01       		.uleb128 0x1
 1672 091f 50       		.byte	0x50
 1673 0920 23       		.byte	0x23
 1674 0921 0C       		.uleb128 0xc
 1675 0922 00       		.byte	0
 1676 0923 00       		.byte	0
 1677 0924 1B       		.uleb128 0x1b
 1678 0925 92020000 		.4byte	.LASF109
 1679 0929 01       		.byte	0x1
 1680 092a 5E       		.byte	0x5e
 1681 092b 2C000000 		.4byte	0x2c
 1682 092f 00000000 		.4byte	.LFB69
 1683 0933 06000000 		.4byte	.LFE69-.LFB69
 1684 0937 01       		.uleb128 0x1
 1685 0938 9C       		.byte	0x9c
 1686 0939 9E090000 		.4byte	0x99e
 1687 093d 1C       		.uleb128 0x1c
 1688 093e 697000   		.ascii	"ip\000"
 1689 0941 01       		.byte	0x1
 1690 0942 5E       		.byte	0x5e
 1691 0943 A8020000 		.4byte	0x2a8
 1692 0947 01010000 		.4byte	.LLST7
 1693 094b 1C       		.uleb128 0x1c
 1694 094c 627000   		.ascii	"bp\000"
 1695 094f 01       		.byte	0x1
 1696 0950 5E       		.byte	0x5e
 1697 0951 38050000 		.4byte	0x538
 1698 0955 2F010000 		.4byte	.LLST8
 1699 0959 1C       		.uleb128 0x1c
 1700 095a 6E00     		.ascii	"n\000"
 1701 095c 01       		.byte	0x1
 1702 095d 5E       		.byte	0x5e
 1703 095e 2C000000 		.4byte	0x2c
 1704 0962 50010000 		.4byte	.LLST9
 1705 0966 1D       		.uleb128 0x1d
 1706 0967 69030000 		.4byte	.LASF111
 1707 096b 01       		.byte	0x1
 1708 096c 5E       		.byte	0x5e
 1709 096d 38010000 		.4byte	0x138
 1710 0971 71010000 		.4byte	.LLST10
ARM GAS  /tmp/ccW6jFqV.s 			page 31


 1711 0975 1E       		.uleb128 0x1e
 1712 0976 06000000 		.4byte	.LVL8
 1713 097a 660E0000 		.4byte	0xe66
 1714 097e 1F       		.uleb128 0x1f
 1715 097f 01       		.uleb128 0x1
 1716 0980 53       		.byte	0x53
 1717 0981 03       		.uleb128 0x3
 1718 0982 F3       		.byte	0xf3
 1719 0983 01       		.uleb128 0x1
 1720 0984 53       		.byte	0x53
 1721 0985 1F       		.uleb128 0x1f
 1722 0986 01       		.uleb128 0x1
 1723 0987 52       		.byte	0x52
 1724 0988 03       		.uleb128 0x3
 1725 0989 F3       		.byte	0xf3
 1726 098a 01       		.uleb128 0x1
 1727 098b 52       		.byte	0x52
 1728 098c 1F       		.uleb128 0x1f
 1729 098d 01       		.uleb128 0x1
 1730 098e 51       		.byte	0x51
 1731 098f 03       		.uleb128 0x3
 1732 0990 F3       		.byte	0xf3
 1733 0991 01       		.uleb128 0x1
 1734 0992 51       		.byte	0x51
 1735 0993 1F       		.uleb128 0x1f
 1736 0994 01       		.uleb128 0x1
 1737 0995 50       		.byte	0x50
 1738 0996 05       		.uleb128 0x5
 1739 0997 F3       		.byte	0xf3
 1740 0998 01       		.uleb128 0x1
 1741 0999 50       		.byte	0x50
 1742 099a 23       		.byte	0x23
 1743 099b 30       		.uleb128 0x30
 1744 099c 00       		.byte	0
 1745 099d 00       		.byte	0
 1746 099e 1B       		.uleb128 0x1b
 1747 099f F2020000 		.4byte	.LASF105
 1748 09a3 01       		.byte	0x1
 1749 09a4 3E       		.byte	0x3e
 1750 09a5 2C000000 		.4byte	0x2c
 1751 09a9 00000000 		.4byte	.LFB63
 1752 09ad 0A000000 		.4byte	.LFE63-.LFB63
 1753 09b1 01       		.uleb128 0x1
 1754 09b2 9C       		.byte	0x9c
 1755 09b3 080A0000 		.4byte	0xa08
 1756 09b7 1C       		.uleb128 0x1c
 1757 09b8 697000   		.ascii	"ip\000"
 1758 09bb 01       		.byte	0x1
 1759 09bc 3E       		.byte	0x3e
 1760 09bd A8020000 		.4byte	0x2a8
 1761 09c1 92010000 		.4byte	.LLST11
 1762 09c5 1C       		.uleb128 0x1c
 1763 09c6 627000   		.ascii	"bp\000"
 1764 09c9 01       		.byte	0x1
 1765 09ca 3E       		.byte	0x3e
 1766 09cb 38050000 		.4byte	0x538
 1767 09cf C0010000 		.4byte	.LLST12
ARM GAS  /tmp/ccW6jFqV.s 			page 32


 1768 09d3 1C       		.uleb128 0x1c
 1769 09d4 6E00     		.ascii	"n\000"
 1770 09d6 01       		.byte	0x1
 1771 09d7 3E       		.byte	0x3e
 1772 09d8 2C000000 		.4byte	0x2c
 1773 09dc E1010000 		.4byte	.LLST13
 1774 09e0 1E       		.uleb128 0x1e
 1775 09e1 0A000000 		.4byte	.LVL11
 1776 09e5 660E0000 		.4byte	0xe66
 1777 09e9 1F       		.uleb128 0x1f
 1778 09ea 01       		.uleb128 0x1
 1779 09eb 53       		.byte	0x53
 1780 09ec 02       		.uleb128 0x2
 1781 09ed 09       		.byte	0x9
 1782 09ee FF       		.byte	0xff
 1783 09ef 1F       		.uleb128 0x1f
 1784 09f0 01       		.uleb128 0x1
 1785 09f1 52       		.byte	0x52
 1786 09f2 03       		.uleb128 0x3
 1787 09f3 F3       		.byte	0xf3
 1788 09f4 01       		.uleb128 0x1
 1789 09f5 52       		.byte	0x52
 1790 09f6 1F       		.uleb128 0x1f
 1791 09f7 01       		.uleb128 0x1
 1792 09f8 51       		.byte	0x51
 1793 09f9 03       		.uleb128 0x3
 1794 09fa F3       		.byte	0xf3
 1795 09fb 01       		.uleb128 0x1
 1796 09fc 51       		.byte	0x51
 1797 09fd 1F       		.uleb128 0x1f
 1798 09fe 01       		.uleb128 0x1
 1799 09ff 50       		.byte	0x50
 1800 0a00 05       		.uleb128 0x5
 1801 0a01 F3       		.byte	0xf3
 1802 0a02 01       		.uleb128 0x1
 1803 0a03 50       		.byte	0x50
 1804 0a04 23       		.byte	0x23
 1805 0a05 30       		.uleb128 0x30
 1806 0a06 00       		.byte	0
 1807 0a07 00       		.byte	0
 1808 0a08 1B       		.uleb128 0x1b
 1809 0a09 D1010000 		.4byte	.LASF108
 1810 0a0d 01       		.byte	0x1
 1811 0a0e 59       		.byte	0x59
 1812 0a0f 17010000 		.4byte	0x117
 1813 0a13 00000000 		.4byte	.LFB68
 1814 0a17 06000000 		.4byte	.LFE68-.LFB68
 1815 0a1b 01       		.uleb128 0x1
 1816 0a1c 9C       		.byte	0x9c
 1817 0a1d 590A0000 		.4byte	0xa59
 1818 0a21 1C       		.uleb128 0x1c
 1819 0a22 697000   		.ascii	"ip\000"
 1820 0a25 01       		.byte	0x1
 1821 0a26 59       		.byte	0x59
 1822 0a27 A8020000 		.4byte	0x2a8
 1823 0a2b 02020000 		.4byte	.LLST14
 1824 0a2f 1D       		.uleb128 0x1d
ARM GAS  /tmp/ccW6jFqV.s 			page 33


 1825 0a30 CA050000 		.4byte	.LASF112
 1826 0a34 01       		.byte	0x1
 1827 0a35 59       		.byte	0x59
 1828 0a36 38010000 		.4byte	0x138
 1829 0a3a 30020000 		.4byte	.LLST15
 1830 0a3e 1E       		.uleb128 0x1e
 1831 0a3f 06000000 		.4byte	.LVL14
 1832 0a43 910E0000 		.4byte	0xe91
 1833 0a47 1F       		.uleb128 0x1f
 1834 0a48 01       		.uleb128 0x1
 1835 0a49 51       		.byte	0x51
 1836 0a4a 03       		.uleb128 0x3
 1837 0a4b F3       		.byte	0xf3
 1838 0a4c 01       		.uleb128 0x1
 1839 0a4d 51       		.byte	0x51
 1840 0a4e 1F       		.uleb128 0x1f
 1841 0a4f 01       		.uleb128 0x1
 1842 0a50 50       		.byte	0x50
 1843 0a51 05       		.uleb128 0x5
 1844 0a52 F3       		.byte	0xf3
 1845 0a53 01       		.uleb128 0x1
 1846 0a54 50       		.byte	0x50
 1847 0a55 23       		.byte	0x23
 1848 0a56 0C       		.uleb128 0xc
 1849 0a57 00       		.byte	0
 1850 0a58 00       		.byte	0
 1851 0a59 20       		.uleb128 0x20
 1852 0a5a 67657400 		.ascii	"get\000"
 1853 0a5e 01       		.byte	0x1
 1854 0a5f 4F       		.byte	0x4f
 1855 0a60 17010000 		.4byte	0x117
 1856 0a64 00000000 		.4byte	.LFB66
 1857 0a68 0A000000 		.4byte	.LFE66-.LFB66
 1858 0a6c 01       		.uleb128 0x1
 1859 0a6d 9C       		.byte	0x9c
 1860 0a6e 9A0A0000 		.4byte	0xa9a
 1861 0a72 1C       		.uleb128 0x1c
 1862 0a73 697000   		.ascii	"ip\000"
 1863 0a76 01       		.byte	0x1
 1864 0a77 4F       		.byte	0x4f
 1865 0a78 A8020000 		.4byte	0x2a8
 1866 0a7c 51020000 		.4byte	.LLST16
 1867 0a80 1E       		.uleb128 0x1e
 1868 0a81 0A000000 		.4byte	.LVL17
 1869 0a85 910E0000 		.4byte	0xe91
 1870 0a89 1F       		.uleb128 0x1f
 1871 0a8a 01       		.uleb128 0x1
 1872 0a8b 51       		.byte	0x51
 1873 0a8c 02       		.uleb128 0x2
 1874 0a8d 09       		.byte	0x9
 1875 0a8e FF       		.byte	0xff
 1876 0a8f 1F       		.uleb128 0x1f
 1877 0a90 01       		.uleb128 0x1
 1878 0a91 50       		.byte	0x50
 1879 0a92 05       		.uleb128 0x5
 1880 0a93 F3       		.byte	0xf3
 1881 0a94 01       		.uleb128 0x1
ARM GAS  /tmp/ccW6jFqV.s 			page 34


 1882 0a95 50       		.byte	0x50
 1883 0a96 23       		.byte	0x23
 1884 0a97 0C       		.uleb128 0xc
 1885 0a98 00       		.byte	0
 1886 0a99 00       		.byte	0
 1887 0a9a 1B       		.uleb128 0x1b
 1888 0a9b F8020000 		.4byte	.LASF107
 1889 0a9f 01       		.byte	0x1
 1890 0aa0 54       		.byte	0x54
 1891 0aa1 17010000 		.4byte	0x117
 1892 0aa5 00000000 		.4byte	.LFB67
 1893 0aa9 06000000 		.4byte	.LFE67-.LFB67
 1894 0aad 01       		.uleb128 0x1
 1895 0aae 9C       		.byte	0x9c
 1896 0aaf F80A0000 		.4byte	0xaf8
 1897 0ab3 1C       		.uleb128 0x1c
 1898 0ab4 697000   		.ascii	"ip\000"
 1899 0ab7 01       		.byte	0x1
 1900 0ab8 54       		.byte	0x54
 1901 0ab9 A8020000 		.4byte	0x2a8
 1902 0abd 7F020000 		.4byte	.LLST17
 1903 0ac1 1C       		.uleb128 0x1c
 1904 0ac2 6200     		.ascii	"b\000"
 1905 0ac4 01       		.byte	0x1
 1906 0ac5 54       		.byte	0x54
 1907 0ac6 A2000000 		.4byte	0xa2
 1908 0aca AD020000 		.4byte	.LLST18
 1909 0ace 1D       		.uleb128 0x1d
 1910 0acf CA050000 		.4byte	.LASF112
 1911 0ad3 01       		.byte	0x1
 1912 0ad4 54       		.byte	0x54
 1913 0ad5 38010000 		.4byte	0x138
 1914 0ad9 CE020000 		.4byte	.LLST19
 1915 0add 1E       		.uleb128 0x1e
 1916 0ade 06000000 		.4byte	.LVL20
 1917 0ae2 AC0E0000 		.4byte	0xeac
 1918 0ae6 1F       		.uleb128 0x1f
 1919 0ae7 01       		.uleb128 0x1
 1920 0ae8 52       		.byte	0x52
 1921 0ae9 03       		.uleb128 0x3
 1922 0aea F3       		.byte	0xf3
 1923 0aeb 01       		.uleb128 0x1
 1924 0aec 52       		.byte	0x52
 1925 0aed 1F       		.uleb128 0x1f
 1926 0aee 01       		.uleb128 0x1
 1927 0aef 50       		.byte	0x50
 1928 0af0 05       		.uleb128 0x5
 1929 0af1 F3       		.byte	0xf3
 1930 0af2 01       		.uleb128 0x1
 1931 0af3 50       		.byte	0x50
 1932 0af4 23       		.byte	0x23
 1933 0af5 30       		.uleb128 0x30
 1934 0af6 00       		.byte	0
 1935 0af7 00       		.byte	0
 1936 0af8 20       		.uleb128 0x20
 1937 0af9 70757400 		.ascii	"put\000"
 1938 0afd 01       		.byte	0x1
ARM GAS  /tmp/ccW6jFqV.s 			page 35


 1939 0afe 4A       		.byte	0x4a
 1940 0aff 17010000 		.4byte	0x117
 1941 0b03 00000000 		.4byte	.LFB65
 1942 0b07 0A000000 		.4byte	.LFE65-.LFB65
 1943 0b0b 01       		.uleb128 0x1
 1944 0b0c 9C       		.byte	0x9c
 1945 0b0d 460B0000 		.4byte	0xb46
 1946 0b11 1C       		.uleb128 0x1c
 1947 0b12 697000   		.ascii	"ip\000"
 1948 0b15 01       		.byte	0x1
 1949 0b16 4A       		.byte	0x4a
 1950 0b17 A8020000 		.4byte	0x2a8
 1951 0b1b EF020000 		.4byte	.LLST20
 1952 0b1f 1C       		.uleb128 0x1c
 1953 0b20 6200     		.ascii	"b\000"
 1954 0b22 01       		.byte	0x1
 1955 0b23 4A       		.byte	0x4a
 1956 0b24 A2000000 		.4byte	0xa2
 1957 0b28 1D030000 		.4byte	.LLST21
 1958 0b2c 1E       		.uleb128 0x1e
 1959 0b2d 0A000000 		.4byte	.LVL23
 1960 0b31 AC0E0000 		.4byte	0xeac
 1961 0b35 1F       		.uleb128 0x1f
 1962 0b36 01       		.uleb128 0x1
 1963 0b37 52       		.byte	0x52
 1964 0b38 02       		.uleb128 0x2
 1965 0b39 09       		.byte	0x9
 1966 0b3a FF       		.byte	0xff
 1967 0b3b 1F       		.uleb128 0x1f
 1968 0b3c 01       		.uleb128 0x1
 1969 0b3d 50       		.byte	0x50
 1970 0b3e 05       		.uleb128 0x5
 1971 0b3f F3       		.byte	0xf3
 1972 0b40 01       		.uleb128 0x1
 1973 0b41 50       		.byte	0x50
 1974 0b42 23       		.byte	0x23
 1975 0b43 30       		.uleb128 0x30
 1976 0b44 00       		.byte	0
 1977 0b45 00       		.byte	0
 1978 0b46 21       		.uleb128 0x21
 1979 0b47 D2050000 		.4byte	.LASF113
 1980 0b4b 01       		.byte	0x1
 1981 0b4c 78       		.byte	0x78
 1982 0b4d 00000000 		.4byte	.LFB71
 1983 0b51 04000000 		.4byte	.LFE71-.LFB71
 1984 0b55 01       		.uleb128 0x1
 1985 0b56 9C       		.byte	0x9c
 1986 0b57 650B0000 		.4byte	0xb65
 1987 0b5b 22       		.uleb128 0x22
 1988 0b5c 04000000 		.4byte	.LVL24
 1989 0b60 CC0E0000 		.4byte	0xecc
 1990 0b64 00       		.byte	0
 1991 0b65 21       		.uleb128 0x21
 1992 0b66 84000000 		.4byte	.LASF114
 1993 0b6a 01       		.byte	0x1
 1994 0b6b 8C       		.byte	0x8c
 1995 0b6c 00000000 		.4byte	.LFB72
ARM GAS  /tmp/ccW6jFqV.s 			page 36


 1996 0b70 42000000 		.4byte	.LFE72-.LFB72
 1997 0b74 01       		.uleb128 0x1
 1998 0b75 9C       		.byte	0x9c
 1999 0b76 F80B0000 		.4byte	0xbf8
 2000 0b7a 1C       		.uleb128 0x1c
 2001 0b7b 73647000 		.ascii	"sdp\000"
 2002 0b7f 01       		.byte	0x1
 2003 0b80 8C       		.byte	0x8c
 2004 0b81 F80B0000 		.4byte	0xbf8
 2005 0b85 3E030000 		.4byte	.LLST22
 2006 0b89 1D       		.uleb128 0x1d
 2007 0b8a AB010000 		.4byte	.LASF115
 2008 0b8e 01       		.byte	0x1
 2009 0b8f 8C       		.byte	0x8c
 2010 0b90 E1040000 		.4byte	0x4e1
 2011 0b94 5C030000 		.4byte	.LLST23
 2012 0b98 1D       		.uleb128 0x1d
 2013 0b99 9B050000 		.4byte	.LASF116
 2014 0b9d 01       		.byte	0x1
 2015 0b9e 8C       		.byte	0x8c
 2016 0b9f E1040000 		.4byte	0x4e1
 2017 0ba3 88030000 		.4byte	.LLST24
 2018 0ba7 23       		.uleb128 0x23
 2019 0ba8 2C000000 		.4byte	.LVL29
 2020 0bac D40E0000 		.4byte	0xed4
 2021 0bb0 CE0B0000 		.4byte	0xbce
 2022 0bb4 1F       		.uleb128 0x1f
 2023 0bb5 01       		.uleb128 0x1
 2024 0bb6 53       		.byte	0x53
 2025 0bb7 03       		.uleb128 0x3
 2026 0bb8 F3       		.byte	0xf3
 2027 0bb9 01       		.uleb128 0x1
 2028 0bba 51       		.byte	0x51
 2029 0bbb 1F       		.uleb128 0x1f
 2030 0bbc 01       		.uleb128 0x1
 2031 0bbd 52       		.byte	0x52
 2032 0bbe 01       		.uleb128 0x1
 2033 0bbf 40       		.byte	0x40
 2034 0bc0 1F       		.uleb128 0x1f
 2035 0bc1 01       		.uleb128 0x1
 2036 0bc2 51       		.byte	0x51
 2037 0bc3 03       		.uleb128 0x3
 2038 0bc4 74       		.byte	0x74
 2039 0bc5 D400     		.sleb128 84
 2040 0bc7 1F       		.uleb128 0x1f
 2041 0bc8 01       		.uleb128 0x1
 2042 0bc9 50       		.byte	0x50
 2043 0bca 02       		.uleb128 0x2
 2044 0bcb 74       		.byte	0x74
 2045 0bcc 0C       		.sleb128 12
 2046 0bcd 00       		.byte	0
 2047 0bce 24       		.uleb128 0x24
 2048 0bcf 3E000000 		.4byte	.LVL30
 2049 0bd3 FA0E0000 		.4byte	0xefa
 2050 0bd7 1F       		.uleb128 0x1f
 2051 0bd8 01       		.uleb128 0x1
 2052 0bd9 53       		.byte	0x53
ARM GAS  /tmp/ccW6jFqV.s 			page 37


 2053 0bda 02       		.uleb128 0x2
 2054 0bdb 75       		.byte	0x75
 2055 0bdc 00       		.sleb128 0
 2056 0bdd 1F       		.uleb128 0x1f
 2057 0bde 01       		.uleb128 0x1
 2058 0bdf 52       		.byte	0x52
 2059 0be0 01       		.uleb128 0x1
 2060 0be1 40       		.byte	0x40
 2061 0be2 1F       		.uleb128 0x1f
 2062 0be3 01       		.uleb128 0x1
 2063 0be4 51       		.byte	0x51
 2064 0be5 03       		.uleb128 0x3
 2065 0be6 74       		.byte	0x74
 2066 0be7 E400     		.sleb128 100
 2067 0be9 1F       		.uleb128 0x1f
 2068 0bea 01       		.uleb128 0x1
 2069 0beb 50       		.byte	0x50
 2070 0bec 02       		.uleb128 0x2
 2071 0bed 74       		.byte	0x74
 2072 0bee 30       		.sleb128 48
 2073 0bef 1F       		.uleb128 0x1f
 2074 0bf0 02       		.uleb128 0x2
 2075 0bf1 7D       		.byte	0x7d
 2076 0bf2 00       		.sleb128 0
 2077 0bf3 02       		.uleb128 0x2
 2078 0bf4 74       		.byte	0x74
 2079 0bf5 00       		.sleb128 0
 2080 0bf6 00       		.byte	0
 2081 0bf7 00       		.byte	0
 2082 0bf8 09       		.uleb128 0x9
 2083 0bf9 04       		.byte	0x4
 2084 0bfa F8060000 		.4byte	0x6f8
 2085 0bfe 21       		.uleb128 0x21
 2086 0bff D9040000 		.4byte	.LASF117
 2087 0c03 01       		.byte	0x1
 2088 0c04 9F       		.byte	0x9f
 2089 0c05 00000000 		.4byte	.LFB73
 2090 0c09 1A000000 		.4byte	.LFE73-.LFB73
 2091 0c0d 01       		.uleb128 0x1
 2092 0c0e 9C       		.byte	0x9c
 2093 0c0f 7B0C0000 		.4byte	0xc7b
 2094 0c13 1C       		.uleb128 0x1c
 2095 0c14 73647000 		.ascii	"sdp\000"
 2096 0c18 01       		.byte	0x1
 2097 0c19 9F       		.byte	0x9f
 2098 0c1a F80B0000 		.4byte	0xbf8
 2099 0c1e A6030000 		.4byte	.LLST25
 2100 0c22 1D       		.uleb128 0x1d
 2101 0c23 D2040000 		.4byte	.LASF118
 2102 0c27 01       		.byte	0x1
 2103 0c28 9F       		.byte	0x9f
 2104 0c29 7B0C0000 		.4byte	0xc7b
 2105 0c2d C4030000 		.4byte	.LLST26
 2106 0c31 25       		.uleb128 0x25
 2107 0c32 00000000 		.4byte	.Ldebug_ranges0+0
 2108 0c36 480C0000 		.4byte	0xc48
 2109 0c3a 26       		.uleb128 0x26
ARM GAS  /tmp/ccW6jFqV.s 			page 38


 2110 0c3b 746D7000 		.ascii	"tmp\000"
 2111 0c3f 01       		.byte	0x1
 2112 0c40 A3       		.byte	0xa3
 2113 0c41 C3000000 		.4byte	0xc3
 2114 0c45 01       		.uleb128 0x1
 2115 0c46 53       		.byte	0x53
 2116 0c47 00       		.byte	0
 2117 0c48 27       		.uleb128 0x27
 2118 0c49 12000000 		.4byte	.LBB4
 2119 0c4d 08000000 		.4byte	.LBE4-.LBB4
 2120 0c51 630C0000 		.4byte	0xc63
 2121 0c55 26       		.uleb128 0x26
 2122 0c56 746D7000 		.ascii	"tmp\000"
 2123 0c5a 01       		.byte	0x1
 2124 0c5b A9       		.byte	0xa9
 2125 0c5c C3000000 		.4byte	0xc3
 2126 0c60 01       		.uleb128 0x1
 2127 0c61 53       		.byte	0x53
 2128 0c62 00       		.byte	0
 2129 0c63 24       		.uleb128 0x24
 2130 0c64 0E000000 		.4byte	.LVL32
 2131 0c68 200F0000 		.4byte	0xf20
 2132 0c6c 1F       		.uleb128 0x1f
 2133 0c6d 01       		.uleb128 0x1
 2134 0c6e 51       		.byte	0x51
 2135 0c6f 03       		.uleb128 0x3
 2136 0c70 F3       		.byte	0xf3
 2137 0c71 01       		.uleb128 0x1
 2138 0c72 51       		.byte	0x51
 2139 0c73 1F       		.uleb128 0x1f
 2140 0c74 01       		.uleb128 0x1
 2141 0c75 50       		.byte	0x50
 2142 0c76 02       		.uleb128 0x2
 2143 0c77 74       		.byte	0x74
 2144 0c78 00       		.sleb128 0
 2145 0c79 00       		.byte	0
 2146 0c7a 00       		.byte	0
 2147 0c7b 09       		.uleb128 0x9
 2148 0c7c 04       		.byte	0x4
 2149 0c7d 810C0000 		.4byte	0xc81
 2150 0c81 10       		.uleb128 0x10
 2151 0c82 A7070000 		.4byte	0x7a7
 2152 0c86 21       		.uleb128 0x21
 2153 0c87 62030000 		.4byte	.LASF119
 2154 0c8b 01       		.byte	0x1
 2155 0c8c B5       		.byte	0xb5
 2156 0c8d 00000000 		.4byte	.LFB74
 2157 0c91 2E000000 		.4byte	.LFE74-.LFB74
 2158 0c95 01       		.uleb128 0x1
 2159 0c96 9C       		.byte	0x9c
 2160 0c97 220D0000 		.4byte	0xd22
 2161 0c9b 1C       		.uleb128 0x1c
 2162 0c9c 73647000 		.ascii	"sdp\000"
 2163 0ca0 01       		.byte	0x1
 2164 0ca1 B5       		.byte	0xb5
 2165 0ca2 F80B0000 		.4byte	0xbf8
 2166 0ca6 E5030000 		.4byte	.LLST27
ARM GAS  /tmp/ccW6jFqV.s 			page 39


 2167 0caa 25       		.uleb128 0x25
 2168 0cab 18000000 		.4byte	.Ldebug_ranges0+0x18
 2169 0caf C10C0000 		.4byte	0xcc1
 2170 0cb3 26       		.uleb128 0x26
 2171 0cb4 746D7000 		.ascii	"tmp\000"
 2172 0cb8 01       		.byte	0x1
 2173 0cb9 B9       		.byte	0xb9
 2174 0cba C3000000 		.4byte	0xc3
 2175 0cbe 01       		.uleb128 0x1
 2176 0cbf 53       		.byte	0x53
 2177 0cc0 00       		.byte	0
 2178 0cc1 27       		.uleb128 0x27
 2179 0cc2 26000000 		.4byte	.LBB7
 2180 0cc6 08000000 		.4byte	.LBE7-.LBB7
 2181 0cca DC0C0000 		.4byte	0xcdc
 2182 0cce 26       		.uleb128 0x26
 2183 0ccf 746D7000 		.ascii	"tmp\000"
 2184 0cd3 01       		.byte	0x1
 2185 0cd4 C2       		.byte	0xc2
 2186 0cd5 C3000000 		.4byte	0xc3
 2187 0cd9 01       		.uleb128 0x1
 2188 0cda 53       		.byte	0x53
 2189 0cdb 00       		.byte	0
 2190 0cdc 23       		.uleb128 0x23
 2191 0cdd 0E000000 		.4byte	.LVL34
 2192 0ce1 370F0000 		.4byte	0xf37
 2193 0ce5 F00C0000 		.4byte	0xcf0
 2194 0ce9 1F       		.uleb128 0x1f
 2195 0cea 01       		.uleb128 0x1
 2196 0ceb 50       		.byte	0x50
 2197 0cec 02       		.uleb128 0x2
 2198 0ced 74       		.byte	0x74
 2199 0cee 00       		.sleb128 0
 2200 0cef 00       		.byte	0
 2201 0cf0 23       		.uleb128 0x23
 2202 0cf1 1A000000 		.4byte	.LVL35
 2203 0cf5 490F0000 		.4byte	0xf49
 2204 0cf9 040D0000 		.4byte	0xd04
 2205 0cfd 1F       		.uleb128 0x1f
 2206 0cfe 01       		.uleb128 0x1
 2207 0cff 50       		.byte	0x50
 2208 0d00 02       		.uleb128 0x2
 2209 0d01 74       		.byte	0x74
 2210 0d02 30       		.sleb128 48
 2211 0d03 00       		.byte	0
 2212 0d04 23       		.uleb128 0x23
 2213 0d05 22000000 		.4byte	.LVL36
 2214 0d09 5B0F0000 		.4byte	0xf5b
 2215 0d0d 180D0000 		.4byte	0xd18
 2216 0d11 1F       		.uleb128 0x1f
 2217 0d12 01       		.uleb128 0x1
 2218 0d13 50       		.byte	0x50
 2219 0d14 02       		.uleb128 0x2
 2220 0d15 74       		.byte	0x74
 2221 0d16 0C       		.sleb128 12
 2222 0d17 00       		.byte	0
 2223 0d18 28       		.uleb128 0x28
ARM GAS  /tmp/ccW6jFqV.s 			page 40


 2224 0d19 26000000 		.4byte	.LVL37
 2225 0d1d 6D0F0000 		.4byte	0xf6d
 2226 0d21 00       		.byte	0
 2227 0d22 21       		.uleb128 0x21
 2228 0d23 C2040000 		.4byte	.LASF120
 2229 0d27 01       		.byte	0x1
 2230 0d28 D5       		.byte	0xd5
 2231 0d29 00000000 		.4byte	.LFB75
 2232 0d2d 3C000000 		.4byte	.LFE75-.LFB75
 2233 0d31 01       		.uleb128 0x1
 2234 0d32 9C       		.byte	0x9c
 2235 0d33 BA0D0000 		.4byte	0xdba
 2236 0d37 1C       		.uleb128 0x1c
 2237 0d38 73647000 		.ascii	"sdp\000"
 2238 0d3c 01       		.byte	0x1
 2239 0d3d D5       		.byte	0xd5
 2240 0d3e F80B0000 		.4byte	0xbf8
 2241 0d42 03040000 		.4byte	.LLST28
 2242 0d46 1C       		.uleb128 0x1c
 2243 0d47 6200     		.ascii	"b\000"
 2244 0d49 01       		.byte	0x1
 2245 0d4a D5       		.byte	0xd5
 2246 0d4b A2000000 		.4byte	0xa2
 2247 0d4f 52040000 		.4byte	.LLST29
 2248 0d53 23       		.uleb128 0x23
 2249 0d54 14000000 		.4byte	.LVL41
 2250 0d58 740F0000 		.4byte	0xf74
 2251 0d5c 6D0D0000 		.4byte	0xd6d
 2252 0d60 1F       		.uleb128 0x1f
 2253 0d61 01       		.uleb128 0x1
 2254 0d62 51       		.byte	0x51
 2255 0d63 02       		.uleb128 0x2
 2256 0d64 75       		.byte	0x75
 2257 0d65 00       		.sleb128 0
 2258 0d66 1F       		.uleb128 0x1f
 2259 0d67 01       		.uleb128 0x1
 2260 0d68 50       		.byte	0x50
 2261 0d69 02       		.uleb128 0x2
 2262 0d6a 74       		.byte	0x74
 2263 0d6b 0C       		.sleb128 12
 2264 0d6c 00       		.byte	0
 2265 0d6d 23       		.uleb128 0x23
 2266 0d6e 22000000 		.4byte	.LVL45
 2267 0d72 8F0F0000 		.4byte	0xf8f
 2268 0d76 860D0000 		.4byte	0xd86
 2269 0d7a 1F       		.uleb128 0x1f
 2270 0d7b 01       		.uleb128 0x1
 2271 0d7c 51       		.byte	0x51
 2272 0d7d 01       		.uleb128 0x1
 2273 0d7e 34       		.byte	0x34
 2274 0d7f 1F       		.uleb128 0x1f
 2275 0d80 01       		.uleb128 0x1
 2276 0d81 50       		.byte	0x50
 2277 0d82 02       		.uleb128 0x2
 2278 0d83 74       		.byte	0x74
 2279 0d84 04       		.sleb128 4
 2280 0d85 00       		.byte	0
ARM GAS  /tmp/ccW6jFqV.s 			page 41


 2281 0d86 23       		.uleb128 0x23
 2282 0d87 2C000000 		.4byte	.LVL46
 2283 0d8b 740F0000 		.4byte	0xf74
 2284 0d8f A00D0000 		.4byte	0xda0
 2285 0d93 1F       		.uleb128 0x1f
 2286 0d94 01       		.uleb128 0x1
 2287 0d95 51       		.byte	0x51
 2288 0d96 02       		.uleb128 0x2
 2289 0d97 75       		.byte	0x75
 2290 0d98 00       		.sleb128 0
 2291 0d99 1F       		.uleb128 0x1f
 2292 0d9a 01       		.uleb128 0x1
 2293 0d9b 50       		.byte	0x50
 2294 0d9c 02       		.uleb128 0x2
 2295 0d9d 74       		.byte	0x74
 2296 0d9e 0C       		.sleb128 12
 2297 0d9f 00       		.byte	0
 2298 0da0 1E       		.uleb128 0x1e
 2299 0da1 3C000000 		.4byte	.LVL48
 2300 0da5 8F0F0000 		.4byte	0xf8f
 2301 0da9 1F       		.uleb128 0x1f
 2302 0daa 01       		.uleb128 0x1
 2303 0dab 51       		.byte	0x51
 2304 0dac 02       		.uleb128 0x2
 2305 0dad 08       		.byte	0x8
 2306 0dae 80       		.byte	0x80
 2307 0daf 1F       		.uleb128 0x1f
 2308 0db0 01       		.uleb128 0x1
 2309 0db1 50       		.byte	0x50
 2310 0db2 05       		.uleb128 0x5
 2311 0db3 F3       		.byte	0xf3
 2312 0db4 01       		.uleb128 0x1
 2313 0db5 50       		.byte	0x50
 2314 0db6 23       		.byte	0x23
 2315 0db7 04       		.uleb128 0x4
 2316 0db8 00       		.byte	0
 2317 0db9 00       		.byte	0
 2318 0dba 29       		.uleb128 0x29
 2319 0dbb 84050000 		.4byte	.LASF139
 2320 0dbf 01       		.byte	0x1
 2321 0dc0 EF       		.byte	0xef
 2322 0dc1 17010000 		.4byte	0x117
 2323 0dc5 00000000 		.4byte	.LFB76
 2324 0dc9 1E000000 		.4byte	.LFE76-.LFB76
 2325 0dcd 01       		.uleb128 0x1
 2326 0dce 9C       		.byte	0x9c
 2327 0dcf 190E0000 		.4byte	0xe19
 2328 0dd3 1C       		.uleb128 0x1c
 2329 0dd4 73647000 		.ascii	"sdp\000"
 2330 0dd8 01       		.byte	0x1
 2331 0dd9 EF       		.byte	0xef
 2332 0dda F80B0000 		.4byte	0xbf8
 2333 0dde 8C040000 		.4byte	.LLST30
 2334 0de2 2A       		.uleb128 0x2a
 2335 0de3 6200     		.ascii	"b\000"
 2336 0de5 01       		.byte	0x1
 2337 0de6 F0       		.byte	0xf0
ARM GAS  /tmp/ccW6jFqV.s 			page 42


 2338 0de7 17010000 		.4byte	0x117
 2339 0deb AA040000 		.4byte	.LLST31
 2340 0def 23       		.uleb128 0x23
 2341 0df0 0A000000 		.4byte	.LVL51
 2342 0df4 AB0F0000 		.4byte	0xfab
 2343 0df8 030E0000 		.4byte	0xe03
 2344 0dfc 1F       		.uleb128 0x1f
 2345 0dfd 01       		.uleb128 0x1
 2346 0dfe 50       		.byte	0x50
 2347 0dff 02       		.uleb128 0x2
 2348 0e00 74       		.byte	0x74
 2349 0e01 30       		.sleb128 48
 2350 0e02 00       		.byte	0
 2351 0e03 24       		.uleb128 0x24
 2352 0e04 1A000000 		.4byte	.LVL54
 2353 0e08 8F0F0000 		.4byte	0xf8f
 2354 0e0c 1F       		.uleb128 0x1f
 2355 0e0d 01       		.uleb128 0x1
 2356 0e0e 51       		.byte	0x51
 2357 0e0f 01       		.uleb128 0x1
 2358 0e10 38       		.byte	0x38
 2359 0e11 1F       		.uleb128 0x1f
 2360 0e12 01       		.uleb128 0x1
 2361 0e13 50       		.byte	0x50
 2362 0e14 02       		.uleb128 0x2
 2363 0e15 74       		.byte	0x74
 2364 0e16 04       		.sleb128 4
 2365 0e17 00       		.byte	0
 2366 0e18 00       		.byte	0
 2367 0e19 26       		.uleb128 0x26
 2368 0e1a 766D7400 		.ascii	"vmt\000"
 2369 0e1e 01       		.byte	0x1
 2370 0e1f 68       		.byte	0x68
 2371 0e20 25080000 		.4byte	0x825
 2372 0e24 05       		.uleb128 0x5
 2373 0e25 03       		.byte	0x3
 2374 0e26 00000000 		.4byte	vmt
 2375 0e2a 2B       		.uleb128 0x2b
 2376 0e2b 77000000 		.4byte	.LASF140
 2377 0e2f 10       		.byte	0x10
 2378 0e30 0706     		.2byte	0x607
 2379 0e32 360E0000 		.4byte	0xe36
 2380 0e36 0D       		.uleb128 0xd
 2381 0e37 B8000000 		.4byte	0xb8
 2382 0e3b 2C       		.uleb128 0x2c
 2383 0e3c 33000000 		.4byte	.LASF121
 2384 0e40 0B       		.byte	0xb
 2385 0e41 6701     		.2byte	0x167
 2386 0e43 2C000000 		.4byte	0x2c
 2387 0e47 600E0000 		.4byte	0xe60
 2388 0e4b 12       		.uleb128 0x12
 2389 0e4c 600E0000 		.4byte	0xe60
 2390 0e50 12       		.uleb128 0x12
 2391 0e51 03050000 		.4byte	0x503
 2392 0e55 12       		.uleb128 0x12
 2393 0e56 2C000000 		.4byte	0x2c
 2394 0e5a 12       		.uleb128 0x12
ARM GAS  /tmp/ccW6jFqV.s 			page 43


 2395 0e5b 38010000 		.4byte	0x138
 2396 0e5f 00       		.byte	0
 2397 0e60 09       		.uleb128 0x9
 2398 0e61 04       		.byte	0x4
 2399 0e62 09050000 		.4byte	0x509
 2400 0e66 2C       		.uleb128 0x2c
 2401 0e67 E1020000 		.4byte	.LASF122
 2402 0e6b 0B       		.byte	0xb
 2403 0e6c 6F01     		.2byte	0x16f
 2404 0e6e 2C000000 		.4byte	0x2c
 2405 0e72 8B0E0000 		.4byte	0xe8b
 2406 0e76 12       		.uleb128 0x12
 2407 0e77 8B0E0000 		.4byte	0xe8b
 2408 0e7b 12       		.uleb128 0x12
 2409 0e7c 38050000 		.4byte	0x538
 2410 0e80 12       		.uleb128 0x12
 2411 0e81 2C000000 		.4byte	0x2c
 2412 0e85 12       		.uleb128 0x12
 2413 0e86 38010000 		.4byte	0x138
 2414 0e8a 00       		.byte	0
 2415 0e8b 09       		.uleb128 0x9
 2416 0e8c 04       		.byte	0x4
 2417 0e8d 14050000 		.4byte	0x514
 2418 0e91 2C       		.uleb128 0x2c
 2419 0e92 FA050000 		.4byte	.LASF123
 2420 0e96 0B       		.byte	0xb
 2421 0e97 6601     		.2byte	0x166
 2422 0e99 17010000 		.4byte	0x117
 2423 0e9d AC0E0000 		.4byte	0xeac
 2424 0ea1 12       		.uleb128 0x12
 2425 0ea2 600E0000 		.4byte	0xe60
 2426 0ea6 12       		.uleb128 0x12
 2427 0ea7 38010000 		.4byte	0x138
 2428 0eab 00       		.byte	0
 2429 0eac 2C       		.uleb128 0x2c
 2430 0ead 00000000 		.4byte	.LASF124
 2431 0eb1 0B       		.byte	0xb
 2432 0eb2 6D01     		.2byte	0x16d
 2433 0eb4 17010000 		.4byte	0x117
 2434 0eb8 CC0E0000 		.4byte	0xecc
 2435 0ebc 12       		.uleb128 0x12
 2436 0ebd 8B0E0000 		.4byte	0xe8b
 2437 0ec1 12       		.uleb128 0x12
 2438 0ec2 A2000000 		.4byte	0xa2
 2439 0ec6 12       		.uleb128 0x12
 2440 0ec7 38010000 		.4byte	0x138
 2441 0ecb 00       		.byte	0
 2442 0ecc 2D       		.uleb128 0x2d
 2443 0ecd C5010000 		.4byte	.LASF131
 2444 0ed1 0E       		.byte	0xe
 2445 0ed2 2401     		.2byte	0x124
 2446 0ed4 2E       		.uleb128 0x2e
 2447 0ed5 D9050000 		.4byte	.LASF125
 2448 0ed9 0B       		.byte	0xb
 2449 0eda 6201     		.2byte	0x162
 2450 0edc FA0E0000 		.4byte	0xefa
 2451 0ee0 12       		.uleb128 0x12
ARM GAS  /tmp/ccW6jFqV.s 			page 44


 2452 0ee1 600E0000 		.4byte	0xe60
 2453 0ee5 12       		.uleb128 0x12
 2454 0ee6 03050000 		.4byte	0x503
 2455 0eea 12       		.uleb128 0x12
 2456 0eeb 2C000000 		.4byte	0x2c
 2457 0eef 12       		.uleb128 0x12
 2458 0ef0 E1040000 		.4byte	0x4e1
 2459 0ef4 12       		.uleb128 0x12
 2460 0ef5 A8020000 		.4byte	0x2a8
 2461 0ef9 00       		.byte	0
 2462 0efa 2E       		.uleb128 0x2e
 2463 0efb 65000000 		.4byte	.LASF126
 2464 0eff 0B       		.byte	0xb
 2465 0f00 6A01     		.2byte	0x16a
 2466 0f02 200F0000 		.4byte	0xf20
 2467 0f06 12       		.uleb128 0x12
 2468 0f07 8B0E0000 		.4byte	0xe8b
 2469 0f0b 12       		.uleb128 0x12
 2470 0f0c 03050000 		.4byte	0x503
 2471 0f10 12       		.uleb128 0x12
 2472 0f11 2C000000 		.4byte	0x2c
 2473 0f15 12       		.uleb128 0x12
 2474 0f16 E1040000 		.4byte	0x4e1
 2475 0f1a 12       		.uleb128 0x12
 2476 0f1b A8020000 		.4byte	0x2a8
 2477 0f1f 00       		.byte	0
 2478 0f20 2E       		.uleb128 0x2e
 2479 0f21 F2030000 		.4byte	.LASF127
 2480 0f25 0E       		.byte	0xe
 2481 0f26 2501     		.2byte	0x125
 2482 0f28 370F0000 		.4byte	0xf37
 2483 0f2c 12       		.uleb128 0x12
 2484 0f2d F80B0000 		.4byte	0xbf8
 2485 0f31 12       		.uleb128 0x12
 2486 0f32 7B0C0000 		.4byte	0xc7b
 2487 0f36 00       		.byte	0
 2488 0f37 2E       		.uleb128 0x2e
 2489 0f38 BE050000 		.4byte	.LASF128
 2490 0f3c 0E       		.byte	0xe
 2491 0f3d 2601     		.2byte	0x126
 2492 0f3f 490F0000 		.4byte	0xf49
 2493 0f43 12       		.uleb128 0x12
 2494 0f44 F80B0000 		.4byte	0xbf8
 2495 0f48 00       		.byte	0
 2496 0f49 2E       		.uleb128 0x2e
 2497 0f4a 12050000 		.4byte	.LASF129
 2498 0f4e 0B       		.byte	0xb
 2499 0f4f 6C01     		.2byte	0x16c
 2500 0f51 5B0F0000 		.4byte	0xf5b
 2501 0f55 12       		.uleb128 0x12
 2502 0f56 8B0E0000 		.4byte	0xe8b
 2503 0f5a 00       		.byte	0
 2504 0f5b 2E       		.uleb128 0x2e
 2505 0f5c 5A000000 		.4byte	.LASF130
 2506 0f60 0B       		.byte	0xb
 2507 0f61 6401     		.2byte	0x164
 2508 0f63 6D0F0000 		.4byte	0xf6d
ARM GAS  /tmp/ccW6jFqV.s 			page 45


 2509 0f67 12       		.uleb128 0x12
 2510 0f68 600E0000 		.4byte	0xe60
 2511 0f6c 00       		.byte	0
 2512 0f6d 2F       		.uleb128 0x2f
 2513 0f6e 3E010000 		.4byte	.LASF132
 2514 0f72 0F       		.byte	0xf
 2515 0f73 9C       		.byte	0x9c
 2516 0f74 2C       		.uleb128 0x2c
 2517 0f75 63010000 		.4byte	.LASF133
 2518 0f79 0B       		.byte	0xb
 2519 0f7a 6501     		.2byte	0x165
 2520 0f7c 17010000 		.4byte	0x117
 2521 0f80 8F0F0000 		.4byte	0xf8f
 2522 0f84 12       		.uleb128 0x12
 2523 0f85 600E0000 		.4byte	0xe60
 2524 0f89 12       		.uleb128 0x12
 2525 0f8a A2000000 		.4byte	0xa2
 2526 0f8e 00       		.byte	0
 2527 0f8f 30       		.uleb128 0x30
 2528 0f90 21010000 		.4byte	.LASF134
 2529 0f94 0A       		.byte	0xa
 2530 0f95 BA       		.byte	0xba
 2531 0f96 A50F0000 		.4byte	0xfa5
 2532 0f9a 12       		.uleb128 0x12
 2533 0f9b A50F0000 		.4byte	0xfa5
 2534 0f9f 12       		.uleb128 0x12
 2535 0fa0 2D010000 		.4byte	0x12d
 2536 0fa4 00       		.byte	0
 2537 0fa5 09       		.uleb128 0x9
 2538 0fa6 04       		.byte	0x4
 2539 0fa7 FC030000 		.4byte	0x3fc
 2540 0fab 31       		.uleb128 0x31
 2541 0fac F9000000 		.4byte	.LASF135
 2542 0fb0 0B       		.byte	0xb
 2543 0fb1 6E01     		.2byte	0x16e
 2544 0fb3 17010000 		.4byte	0x117
 2545 0fb7 12       		.uleb128 0x12
 2546 0fb8 8B0E0000 		.4byte	0xe8b
 2547 0fbc 00       		.byte	0
 2548 0fbd 00       		.byte	0
 2549              		.section	.debug_abbrev,"",%progbits
 2550              	.Ldebug_abbrev0:
 2551 0000 01       		.uleb128 0x1
 2552 0001 11       		.uleb128 0x11
 2553 0002 01       		.byte	0x1
 2554 0003 25       		.uleb128 0x25
 2555 0004 0E       		.uleb128 0xe
 2556 0005 13       		.uleb128 0x13
 2557 0006 0B       		.uleb128 0xb
 2558 0007 03       		.uleb128 0x3
 2559 0008 0E       		.uleb128 0xe
 2560 0009 1B       		.uleb128 0x1b
 2561 000a 0E       		.uleb128 0xe
 2562 000b 55       		.uleb128 0x55
 2563 000c 17       		.uleb128 0x17
 2564 000d 11       		.uleb128 0x11
 2565 000e 01       		.uleb128 0x1
ARM GAS  /tmp/ccW6jFqV.s 			page 46


 2566 000f 10       		.uleb128 0x10
 2567 0010 17       		.uleb128 0x17
 2568 0011 00       		.byte	0
 2569 0012 00       		.byte	0
 2570 0013 02       		.uleb128 0x2
 2571 0014 24       		.uleb128 0x24
 2572 0015 00       		.byte	0
 2573 0016 0B       		.uleb128 0xb
 2574 0017 0B       		.uleb128 0xb
 2575 0018 3E       		.uleb128 0x3e
 2576 0019 0B       		.uleb128 0xb
 2577 001a 03       		.uleb128 0x3
 2578 001b 08       		.uleb128 0x8
 2579 001c 00       		.byte	0
 2580 001d 00       		.byte	0
 2581 001e 03       		.uleb128 0x3
 2582 001f 16       		.uleb128 0x16
 2583 0020 00       		.byte	0
 2584 0021 03       		.uleb128 0x3
 2585 0022 0E       		.uleb128 0xe
 2586 0023 3A       		.uleb128 0x3a
 2587 0024 0B       		.uleb128 0xb
 2588 0025 3B       		.uleb128 0x3b
 2589 0026 0B       		.uleb128 0xb
 2590 0027 49       		.uleb128 0x49
 2591 0028 13       		.uleb128 0x13
 2592 0029 00       		.byte	0
 2593 002a 00       		.byte	0
 2594 002b 04       		.uleb128 0x4
 2595 002c 24       		.uleb128 0x24
 2596 002d 00       		.byte	0
 2597 002e 0B       		.uleb128 0xb
 2598 002f 0B       		.uleb128 0xb
 2599 0030 3E       		.uleb128 0x3e
 2600 0031 0B       		.uleb128 0xb
 2601 0032 03       		.uleb128 0x3
 2602 0033 0E       		.uleb128 0xe
 2603 0034 00       		.byte	0
 2604 0035 00       		.byte	0
 2605 0036 05       		.uleb128 0x5
 2606 0037 13       		.uleb128 0x13
 2607 0038 01       		.byte	0x1
 2608 0039 03       		.uleb128 0x3
 2609 003a 0E       		.uleb128 0xe
 2610 003b 0B       		.uleb128 0xb
 2611 003c 0B       		.uleb128 0xb
 2612 003d 3A       		.uleb128 0x3a
 2613 003e 0B       		.uleb128 0xb
 2614 003f 3B       		.uleb128 0x3b
 2615 0040 0B       		.uleb128 0xb
 2616 0041 01       		.uleb128 0x1
 2617 0042 13       		.uleb128 0x13
 2618 0043 00       		.byte	0
 2619 0044 00       		.byte	0
 2620 0045 06       		.uleb128 0x6
 2621 0046 0D       		.uleb128 0xd
 2622 0047 00       		.byte	0
ARM GAS  /tmp/ccW6jFqV.s 			page 47


 2623 0048 03       		.uleb128 0x3
 2624 0049 0E       		.uleb128 0xe
 2625 004a 3A       		.uleb128 0x3a
 2626 004b 0B       		.uleb128 0xb
 2627 004c 3B       		.uleb128 0x3b
 2628 004d 0B       		.uleb128 0xb
 2629 004e 49       		.uleb128 0x49
 2630 004f 13       		.uleb128 0x13
 2631 0050 38       		.uleb128 0x38
 2632 0051 0B       		.uleb128 0xb
 2633 0052 00       		.byte	0
 2634 0053 00       		.byte	0
 2635 0054 07       		.uleb128 0x7
 2636 0055 0D       		.uleb128 0xd
 2637 0056 00       		.byte	0
 2638 0057 03       		.uleb128 0x3
 2639 0058 08       		.uleb128 0x8
 2640 0059 3A       		.uleb128 0x3a
 2641 005a 0B       		.uleb128 0xb
 2642 005b 3B       		.uleb128 0x3b
 2643 005c 0B       		.uleb128 0xb
 2644 005d 49       		.uleb128 0x49
 2645 005e 13       		.uleb128 0x13
 2646 005f 38       		.uleb128 0x38
 2647 0060 0B       		.uleb128 0xb
 2648 0061 00       		.byte	0
 2649 0062 00       		.byte	0
 2650 0063 08       		.uleb128 0x8
 2651 0064 13       		.uleb128 0x13
 2652 0065 01       		.byte	0x1
 2653 0066 0B       		.uleb128 0xb
 2654 0067 0B       		.uleb128 0xb
 2655 0068 3A       		.uleb128 0x3a
 2656 0069 0B       		.uleb128 0xb
 2657 006a 3B       		.uleb128 0x3b
 2658 006b 0B       		.uleb128 0xb
 2659 006c 01       		.uleb128 0x1
 2660 006d 13       		.uleb128 0x13
 2661 006e 00       		.byte	0
 2662 006f 00       		.byte	0
 2663 0070 09       		.uleb128 0x9
 2664 0071 0F       		.uleb128 0xf
 2665 0072 00       		.byte	0
 2666 0073 0B       		.uleb128 0xb
 2667 0074 0B       		.uleb128 0xb
 2668 0075 49       		.uleb128 0x49
 2669 0076 13       		.uleb128 0x13
 2670 0077 00       		.byte	0
 2671 0078 00       		.byte	0
 2672 0079 0A       		.uleb128 0xa
 2673 007a 0F       		.uleb128 0xf
 2674 007b 00       		.byte	0
 2675 007c 0B       		.uleb128 0xb
 2676 007d 0B       		.uleb128 0xb
 2677 007e 00       		.byte	0
 2678 007f 00       		.byte	0
 2679 0080 0B       		.uleb128 0xb
ARM GAS  /tmp/ccW6jFqV.s 			page 48


 2680 0081 13       		.uleb128 0x13
 2681 0082 01       		.byte	0x1
 2682 0083 03       		.uleb128 0x3
 2683 0084 0E       		.uleb128 0xe
 2684 0085 0B       		.uleb128 0xb
 2685 0086 0B       		.uleb128 0xb
 2686 0087 3A       		.uleb128 0x3a
 2687 0088 0B       		.uleb128 0xb
 2688 0089 3B       		.uleb128 0x3b
 2689 008a 05       		.uleb128 0x5
 2690 008b 01       		.uleb128 0x1
 2691 008c 13       		.uleb128 0x13
 2692 008d 00       		.byte	0
 2693 008e 00       		.byte	0
 2694 008f 0C       		.uleb128 0xc
 2695 0090 0D       		.uleb128 0xd
 2696 0091 00       		.byte	0
 2697 0092 03       		.uleb128 0x3
 2698 0093 08       		.uleb128 0x8
 2699 0094 3A       		.uleb128 0x3a
 2700 0095 0B       		.uleb128 0xb
 2701 0096 3B       		.uleb128 0x3b
 2702 0097 05       		.uleb128 0x5
 2703 0098 49       		.uleb128 0x49
 2704 0099 13       		.uleb128 0x13
 2705 009a 38       		.uleb128 0x38
 2706 009b 0B       		.uleb128 0xb
 2707 009c 00       		.byte	0
 2708 009d 00       		.byte	0
 2709 009e 0D       		.uleb128 0xd
 2710 009f 35       		.uleb128 0x35
 2711 00a0 00       		.byte	0
 2712 00a1 49       		.uleb128 0x49
 2713 00a2 13       		.uleb128 0x13
 2714 00a3 00       		.byte	0
 2715 00a4 00       		.byte	0
 2716 00a5 0E       		.uleb128 0xe
 2717 00a6 17       		.uleb128 0x17
 2718 00a7 01       		.byte	0x1
 2719 00a8 0B       		.uleb128 0xb
 2720 00a9 0B       		.uleb128 0xb
 2721 00aa 3A       		.uleb128 0x3a
 2722 00ab 0B       		.uleb128 0xb
 2723 00ac 3B       		.uleb128 0x3b
 2724 00ad 0B       		.uleb128 0xb
 2725 00ae 01       		.uleb128 0x1
 2726 00af 13       		.uleb128 0x13
 2727 00b0 00       		.byte	0
 2728 00b1 00       		.byte	0
 2729 00b2 0F       		.uleb128 0xf
 2730 00b3 0D       		.uleb128 0xd
 2731 00b4 00       		.byte	0
 2732 00b5 03       		.uleb128 0x3
 2733 00b6 0E       		.uleb128 0xe
 2734 00b7 3A       		.uleb128 0x3a
 2735 00b8 0B       		.uleb128 0xb
 2736 00b9 3B       		.uleb128 0x3b
ARM GAS  /tmp/ccW6jFqV.s 			page 49


 2737 00ba 0B       		.uleb128 0xb
 2738 00bb 49       		.uleb128 0x49
 2739 00bc 13       		.uleb128 0x13
 2740 00bd 00       		.byte	0
 2741 00be 00       		.byte	0
 2742 00bf 10       		.uleb128 0x10
 2743 00c0 26       		.uleb128 0x26
 2744 00c1 00       		.byte	0
 2745 00c2 49       		.uleb128 0x49
 2746 00c3 13       		.uleb128 0x13
 2747 00c4 00       		.byte	0
 2748 00c5 00       		.byte	0
 2749 00c6 11       		.uleb128 0x11
 2750 00c7 15       		.uleb128 0x15
 2751 00c8 01       		.byte	0x1
 2752 00c9 27       		.uleb128 0x27
 2753 00ca 19       		.uleb128 0x19
 2754 00cb 49       		.uleb128 0x49
 2755 00cc 13       		.uleb128 0x13
 2756 00cd 01       		.uleb128 0x1
 2757 00ce 13       		.uleb128 0x13
 2758 00cf 00       		.byte	0
 2759 00d0 00       		.byte	0
 2760 00d1 12       		.uleb128 0x12
 2761 00d2 05       		.uleb128 0x5
 2762 00d3 00       		.byte	0
 2763 00d4 49       		.uleb128 0x49
 2764 00d5 13       		.uleb128 0x13
 2765 00d6 00       		.byte	0
 2766 00d7 00       		.byte	0
 2767 00d8 13       		.uleb128 0x13
 2768 00d9 15       		.uleb128 0x15
 2769 00da 01       		.byte	0x1
 2770 00db 27       		.uleb128 0x27
 2771 00dc 19       		.uleb128 0x19
 2772 00dd 01       		.uleb128 0x1
 2773 00de 13       		.uleb128 0x13
 2774 00df 00       		.byte	0
 2775 00e0 00       		.byte	0
 2776 00e1 14       		.uleb128 0x14
 2777 00e2 13       		.uleb128 0x13
 2778 00e3 01       		.byte	0x1
 2779 00e4 0B       		.uleb128 0xb
 2780 00e5 0B       		.uleb128 0xb
 2781 00e6 3A       		.uleb128 0x3a
 2782 00e7 0B       		.uleb128 0xb
 2783 00e8 3B       		.uleb128 0x3b
 2784 00e9 05       		.uleb128 0x5
 2785 00ea 01       		.uleb128 0x1
 2786 00eb 13       		.uleb128 0x13
 2787 00ec 00       		.byte	0
 2788 00ed 00       		.byte	0
 2789 00ee 15       		.uleb128 0x15
 2790 00ef 0D       		.uleb128 0xd
 2791 00f0 00       		.byte	0
 2792 00f1 03       		.uleb128 0x3
 2793 00f2 0E       		.uleb128 0xe
ARM GAS  /tmp/ccW6jFqV.s 			page 50


 2794 00f3 3A       		.uleb128 0x3a
 2795 00f4 0B       		.uleb128 0xb
 2796 00f5 3B       		.uleb128 0x3b
 2797 00f6 05       		.uleb128 0x5
 2798 00f7 49       		.uleb128 0x49
 2799 00f8 13       		.uleb128 0x13
 2800 00f9 38       		.uleb128 0x38
 2801 00fa 0B       		.uleb128 0xb
 2802 00fb 00       		.byte	0
 2803 00fc 00       		.byte	0
 2804 00fd 16       		.uleb128 0x16
 2805 00fe 16       		.uleb128 0x16
 2806 00ff 00       		.byte	0
 2807 0100 03       		.uleb128 0x3
 2808 0101 0E       		.uleb128 0xe
 2809 0102 3A       		.uleb128 0x3a
 2810 0103 0B       		.uleb128 0xb
 2811 0104 3B       		.uleb128 0x3b
 2812 0105 05       		.uleb128 0x5
 2813 0106 49       		.uleb128 0x49
 2814 0107 13       		.uleb128 0x13
 2815 0108 00       		.byte	0
 2816 0109 00       		.byte	0
 2817 010a 17       		.uleb128 0x17
 2818 010b 04       		.uleb128 0x4
 2819 010c 01       		.byte	0x1
 2820 010d 0B       		.uleb128 0xb
 2821 010e 0B       		.uleb128 0xb
 2822 010f 3A       		.uleb128 0x3a
 2823 0110 0B       		.uleb128 0xb
 2824 0111 3B       		.uleb128 0x3b
 2825 0112 0B       		.uleb128 0xb
 2826 0113 01       		.uleb128 0x1
 2827 0114 13       		.uleb128 0x13
 2828 0115 00       		.byte	0
 2829 0116 00       		.byte	0
 2830 0117 18       		.uleb128 0x18
 2831 0118 28       		.uleb128 0x28
 2832 0119 00       		.byte	0
 2833 011a 03       		.uleb128 0x3
 2834 011b 0E       		.uleb128 0xe
 2835 011c 1C       		.uleb128 0x1c
 2836 011d 0D       		.uleb128 0xd
 2837 011e 00       		.byte	0
 2838 011f 00       		.byte	0
 2839 0120 19       		.uleb128 0x19
 2840 0121 01       		.uleb128 0x1
 2841 0122 01       		.byte	0x1
 2842 0123 49       		.uleb128 0x49
 2843 0124 13       		.uleb128 0x13
 2844 0125 01       		.uleb128 0x1
 2845 0126 13       		.uleb128 0x13
 2846 0127 00       		.byte	0
 2847 0128 00       		.byte	0
 2848 0129 1A       		.uleb128 0x1a
 2849 012a 21       		.uleb128 0x21
 2850 012b 00       		.byte	0
ARM GAS  /tmp/ccW6jFqV.s 			page 51


 2851 012c 49       		.uleb128 0x49
 2852 012d 13       		.uleb128 0x13
 2853 012e 2F       		.uleb128 0x2f
 2854 012f 0B       		.uleb128 0xb
 2855 0130 00       		.byte	0
 2856 0131 00       		.byte	0
 2857 0132 1B       		.uleb128 0x1b
 2858 0133 2E       		.uleb128 0x2e
 2859 0134 01       		.byte	0x1
 2860 0135 03       		.uleb128 0x3
 2861 0136 0E       		.uleb128 0xe
 2862 0137 3A       		.uleb128 0x3a
 2863 0138 0B       		.uleb128 0xb
 2864 0139 3B       		.uleb128 0x3b
 2865 013a 0B       		.uleb128 0xb
 2866 013b 27       		.uleb128 0x27
 2867 013c 19       		.uleb128 0x19
 2868 013d 49       		.uleb128 0x49
 2869 013e 13       		.uleb128 0x13
 2870 013f 11       		.uleb128 0x11
 2871 0140 01       		.uleb128 0x1
 2872 0141 12       		.uleb128 0x12
 2873 0142 06       		.uleb128 0x6
 2874 0143 40       		.uleb128 0x40
 2875 0144 18       		.uleb128 0x18
 2876 0145 9742     		.uleb128 0x2117
 2877 0147 19       		.uleb128 0x19
 2878 0148 01       		.uleb128 0x1
 2879 0149 13       		.uleb128 0x13
 2880 014a 00       		.byte	0
 2881 014b 00       		.byte	0
 2882 014c 1C       		.uleb128 0x1c
 2883 014d 05       		.uleb128 0x5
 2884 014e 00       		.byte	0
 2885 014f 03       		.uleb128 0x3
 2886 0150 08       		.uleb128 0x8
 2887 0151 3A       		.uleb128 0x3a
 2888 0152 0B       		.uleb128 0xb
 2889 0153 3B       		.uleb128 0x3b
 2890 0154 0B       		.uleb128 0xb
 2891 0155 49       		.uleb128 0x49
 2892 0156 13       		.uleb128 0x13
 2893 0157 02       		.uleb128 0x2
 2894 0158 17       		.uleb128 0x17
 2895 0159 00       		.byte	0
 2896 015a 00       		.byte	0
 2897 015b 1D       		.uleb128 0x1d
 2898 015c 05       		.uleb128 0x5
 2899 015d 00       		.byte	0
 2900 015e 03       		.uleb128 0x3
 2901 015f 0E       		.uleb128 0xe
 2902 0160 3A       		.uleb128 0x3a
 2903 0161 0B       		.uleb128 0xb
 2904 0162 3B       		.uleb128 0x3b
 2905 0163 0B       		.uleb128 0xb
 2906 0164 49       		.uleb128 0x49
 2907 0165 13       		.uleb128 0x13
ARM GAS  /tmp/ccW6jFqV.s 			page 52


 2908 0166 02       		.uleb128 0x2
 2909 0167 17       		.uleb128 0x17
 2910 0168 00       		.byte	0
 2911 0169 00       		.byte	0
 2912 016a 1E       		.uleb128 0x1e
 2913 016b 898201   		.uleb128 0x4109
 2914 016e 01       		.byte	0x1
 2915 016f 11       		.uleb128 0x11
 2916 0170 01       		.uleb128 0x1
 2917 0171 9542     		.uleb128 0x2115
 2918 0173 19       		.uleb128 0x19
 2919 0174 31       		.uleb128 0x31
 2920 0175 13       		.uleb128 0x13
 2921 0176 00       		.byte	0
 2922 0177 00       		.byte	0
 2923 0178 1F       		.uleb128 0x1f
 2924 0179 8A8201   		.uleb128 0x410a
 2925 017c 00       		.byte	0
 2926 017d 02       		.uleb128 0x2
 2927 017e 18       		.uleb128 0x18
 2928 017f 9142     		.uleb128 0x2111
 2929 0181 18       		.uleb128 0x18
 2930 0182 00       		.byte	0
 2931 0183 00       		.byte	0
 2932 0184 20       		.uleb128 0x20
 2933 0185 2E       		.uleb128 0x2e
 2934 0186 01       		.byte	0x1
 2935 0187 03       		.uleb128 0x3
 2936 0188 08       		.uleb128 0x8
 2937 0189 3A       		.uleb128 0x3a
 2938 018a 0B       		.uleb128 0xb
 2939 018b 3B       		.uleb128 0x3b
 2940 018c 0B       		.uleb128 0xb
 2941 018d 27       		.uleb128 0x27
 2942 018e 19       		.uleb128 0x19
 2943 018f 49       		.uleb128 0x49
 2944 0190 13       		.uleb128 0x13
 2945 0191 11       		.uleb128 0x11
 2946 0192 01       		.uleb128 0x1
 2947 0193 12       		.uleb128 0x12
 2948 0194 06       		.uleb128 0x6
 2949 0195 40       		.uleb128 0x40
 2950 0196 18       		.uleb128 0x18
 2951 0197 9742     		.uleb128 0x2117
 2952 0199 19       		.uleb128 0x19
 2953 019a 01       		.uleb128 0x1
 2954 019b 13       		.uleb128 0x13
 2955 019c 00       		.byte	0
 2956 019d 00       		.byte	0
 2957 019e 21       		.uleb128 0x21
 2958 019f 2E       		.uleb128 0x2e
 2959 01a0 01       		.byte	0x1
 2960 01a1 3F       		.uleb128 0x3f
 2961 01a2 19       		.uleb128 0x19
 2962 01a3 03       		.uleb128 0x3
 2963 01a4 0E       		.uleb128 0xe
 2964 01a5 3A       		.uleb128 0x3a
ARM GAS  /tmp/ccW6jFqV.s 			page 53


 2965 01a6 0B       		.uleb128 0xb
 2966 01a7 3B       		.uleb128 0x3b
 2967 01a8 0B       		.uleb128 0xb
 2968 01a9 27       		.uleb128 0x27
 2969 01aa 19       		.uleb128 0x19
 2970 01ab 11       		.uleb128 0x11
 2971 01ac 01       		.uleb128 0x1
 2972 01ad 12       		.uleb128 0x12
 2973 01ae 06       		.uleb128 0x6
 2974 01af 40       		.uleb128 0x40
 2975 01b0 18       		.uleb128 0x18
 2976 01b1 9742     		.uleb128 0x2117
 2977 01b3 19       		.uleb128 0x19
 2978 01b4 01       		.uleb128 0x1
 2979 01b5 13       		.uleb128 0x13
 2980 01b6 00       		.byte	0
 2981 01b7 00       		.byte	0
 2982 01b8 22       		.uleb128 0x22
 2983 01b9 898201   		.uleb128 0x4109
 2984 01bc 00       		.byte	0
 2985 01bd 11       		.uleb128 0x11
 2986 01be 01       		.uleb128 0x1
 2987 01bf 9542     		.uleb128 0x2115
 2988 01c1 19       		.uleb128 0x19
 2989 01c2 31       		.uleb128 0x31
 2990 01c3 13       		.uleb128 0x13
 2991 01c4 00       		.byte	0
 2992 01c5 00       		.byte	0
 2993 01c6 23       		.uleb128 0x23
 2994 01c7 898201   		.uleb128 0x4109
 2995 01ca 01       		.byte	0x1
 2996 01cb 11       		.uleb128 0x11
 2997 01cc 01       		.uleb128 0x1
 2998 01cd 31       		.uleb128 0x31
 2999 01ce 13       		.uleb128 0x13
 3000 01cf 01       		.uleb128 0x1
 3001 01d0 13       		.uleb128 0x13
 3002 01d1 00       		.byte	0
 3003 01d2 00       		.byte	0
 3004 01d3 24       		.uleb128 0x24
 3005 01d4 898201   		.uleb128 0x4109
 3006 01d7 01       		.byte	0x1
 3007 01d8 11       		.uleb128 0x11
 3008 01d9 01       		.uleb128 0x1
 3009 01da 31       		.uleb128 0x31
 3010 01db 13       		.uleb128 0x13
 3011 01dc 00       		.byte	0
 3012 01dd 00       		.byte	0
 3013 01de 25       		.uleb128 0x25
 3014 01df 0B       		.uleb128 0xb
 3015 01e0 01       		.byte	0x1
 3016 01e1 55       		.uleb128 0x55
 3017 01e2 17       		.uleb128 0x17
 3018 01e3 01       		.uleb128 0x1
 3019 01e4 13       		.uleb128 0x13
 3020 01e5 00       		.byte	0
 3021 01e6 00       		.byte	0
ARM GAS  /tmp/ccW6jFqV.s 			page 54


 3022 01e7 26       		.uleb128 0x26
 3023 01e8 34       		.uleb128 0x34
 3024 01e9 00       		.byte	0
 3025 01ea 03       		.uleb128 0x3
 3026 01eb 08       		.uleb128 0x8
 3027 01ec 3A       		.uleb128 0x3a
 3028 01ed 0B       		.uleb128 0xb
 3029 01ee 3B       		.uleb128 0x3b
 3030 01ef 0B       		.uleb128 0xb
 3031 01f0 49       		.uleb128 0x49
 3032 01f1 13       		.uleb128 0x13
 3033 01f2 02       		.uleb128 0x2
 3034 01f3 18       		.uleb128 0x18
 3035 01f4 00       		.byte	0
 3036 01f5 00       		.byte	0
 3037 01f6 27       		.uleb128 0x27
 3038 01f7 0B       		.uleb128 0xb
 3039 01f8 01       		.byte	0x1
 3040 01f9 11       		.uleb128 0x11
 3041 01fa 01       		.uleb128 0x1
 3042 01fb 12       		.uleb128 0x12
 3043 01fc 06       		.uleb128 0x6
 3044 01fd 01       		.uleb128 0x1
 3045 01fe 13       		.uleb128 0x13
 3046 01ff 00       		.byte	0
 3047 0200 00       		.byte	0
 3048 0201 28       		.uleb128 0x28
 3049 0202 898201   		.uleb128 0x4109
 3050 0205 00       		.byte	0
 3051 0206 11       		.uleb128 0x11
 3052 0207 01       		.uleb128 0x1
 3053 0208 31       		.uleb128 0x31
 3054 0209 13       		.uleb128 0x13
 3055 020a 00       		.byte	0
 3056 020b 00       		.byte	0
 3057 020c 29       		.uleb128 0x29
 3058 020d 2E       		.uleb128 0x2e
 3059 020e 01       		.byte	0x1
 3060 020f 3F       		.uleb128 0x3f
 3061 0210 19       		.uleb128 0x19
 3062 0211 03       		.uleb128 0x3
 3063 0212 0E       		.uleb128 0xe
 3064 0213 3A       		.uleb128 0x3a
 3065 0214 0B       		.uleb128 0xb
 3066 0215 3B       		.uleb128 0x3b
 3067 0216 0B       		.uleb128 0xb
 3068 0217 27       		.uleb128 0x27
 3069 0218 19       		.uleb128 0x19
 3070 0219 49       		.uleb128 0x49
 3071 021a 13       		.uleb128 0x13
 3072 021b 11       		.uleb128 0x11
 3073 021c 01       		.uleb128 0x1
 3074 021d 12       		.uleb128 0x12
 3075 021e 06       		.uleb128 0x6
 3076 021f 40       		.uleb128 0x40
 3077 0220 18       		.uleb128 0x18
 3078 0221 9742     		.uleb128 0x2117
ARM GAS  /tmp/ccW6jFqV.s 			page 55


 3079 0223 19       		.uleb128 0x19
 3080 0224 01       		.uleb128 0x1
 3081 0225 13       		.uleb128 0x13
 3082 0226 00       		.byte	0
 3083 0227 00       		.byte	0
 3084 0228 2A       		.uleb128 0x2a
 3085 0229 34       		.uleb128 0x34
 3086 022a 00       		.byte	0
 3087 022b 03       		.uleb128 0x3
 3088 022c 08       		.uleb128 0x8
 3089 022d 3A       		.uleb128 0x3a
 3090 022e 0B       		.uleb128 0xb
 3091 022f 3B       		.uleb128 0x3b
 3092 0230 0B       		.uleb128 0xb
 3093 0231 49       		.uleb128 0x49
 3094 0232 13       		.uleb128 0x13
 3095 0233 02       		.uleb128 0x2
 3096 0234 17       		.uleb128 0x17
 3097 0235 00       		.byte	0
 3098 0236 00       		.byte	0
 3099 0237 2B       		.uleb128 0x2b
 3100 0238 34       		.uleb128 0x34
 3101 0239 00       		.byte	0
 3102 023a 03       		.uleb128 0x3
 3103 023b 0E       		.uleb128 0xe
 3104 023c 3A       		.uleb128 0x3a
 3105 023d 0B       		.uleb128 0xb
 3106 023e 3B       		.uleb128 0x3b
 3107 023f 05       		.uleb128 0x5
 3108 0240 49       		.uleb128 0x49
 3109 0241 13       		.uleb128 0x13
 3110 0242 3F       		.uleb128 0x3f
 3111 0243 19       		.uleb128 0x19
 3112 0244 3C       		.uleb128 0x3c
 3113 0245 19       		.uleb128 0x19
 3114 0246 00       		.byte	0
 3115 0247 00       		.byte	0
 3116 0248 2C       		.uleb128 0x2c
 3117 0249 2E       		.uleb128 0x2e
 3118 024a 01       		.byte	0x1
 3119 024b 3F       		.uleb128 0x3f
 3120 024c 19       		.uleb128 0x19
 3121 024d 03       		.uleb128 0x3
 3122 024e 0E       		.uleb128 0xe
 3123 024f 3A       		.uleb128 0x3a
 3124 0250 0B       		.uleb128 0xb
 3125 0251 3B       		.uleb128 0x3b
 3126 0252 05       		.uleb128 0x5
 3127 0253 27       		.uleb128 0x27
 3128 0254 19       		.uleb128 0x19
 3129 0255 49       		.uleb128 0x49
 3130 0256 13       		.uleb128 0x13
 3131 0257 3C       		.uleb128 0x3c
 3132 0258 19       		.uleb128 0x19
 3133 0259 01       		.uleb128 0x1
 3134 025a 13       		.uleb128 0x13
 3135 025b 00       		.byte	0
ARM GAS  /tmp/ccW6jFqV.s 			page 56


 3136 025c 00       		.byte	0
 3137 025d 2D       		.uleb128 0x2d
 3138 025e 2E       		.uleb128 0x2e
 3139 025f 00       		.byte	0
 3140 0260 3F       		.uleb128 0x3f
 3141 0261 19       		.uleb128 0x19
 3142 0262 03       		.uleb128 0x3
 3143 0263 0E       		.uleb128 0xe
 3144 0264 3A       		.uleb128 0x3a
 3145 0265 0B       		.uleb128 0xb
 3146 0266 3B       		.uleb128 0x3b
 3147 0267 05       		.uleb128 0x5
 3148 0268 27       		.uleb128 0x27
 3149 0269 19       		.uleb128 0x19
 3150 026a 3C       		.uleb128 0x3c
 3151 026b 19       		.uleb128 0x19
 3152 026c 00       		.byte	0
 3153 026d 00       		.byte	0
 3154 026e 2E       		.uleb128 0x2e
 3155 026f 2E       		.uleb128 0x2e
 3156 0270 01       		.byte	0x1
 3157 0271 3F       		.uleb128 0x3f
 3158 0272 19       		.uleb128 0x19
 3159 0273 03       		.uleb128 0x3
 3160 0274 0E       		.uleb128 0xe
 3161 0275 3A       		.uleb128 0x3a
 3162 0276 0B       		.uleb128 0xb
 3163 0277 3B       		.uleb128 0x3b
 3164 0278 05       		.uleb128 0x5
 3165 0279 27       		.uleb128 0x27
 3166 027a 19       		.uleb128 0x19
 3167 027b 3C       		.uleb128 0x3c
 3168 027c 19       		.uleb128 0x19
 3169 027d 01       		.uleb128 0x1
 3170 027e 13       		.uleb128 0x13
 3171 027f 00       		.byte	0
 3172 0280 00       		.byte	0
 3173 0281 2F       		.uleb128 0x2f
 3174 0282 2E       		.uleb128 0x2e
 3175 0283 00       		.byte	0
 3176 0284 3F       		.uleb128 0x3f
 3177 0285 19       		.uleb128 0x19
 3178 0286 03       		.uleb128 0x3
 3179 0287 0E       		.uleb128 0xe
 3180 0288 3A       		.uleb128 0x3a
 3181 0289 0B       		.uleb128 0xb
 3182 028a 3B       		.uleb128 0x3b
 3183 028b 0B       		.uleb128 0xb
 3184 028c 27       		.uleb128 0x27
 3185 028d 19       		.uleb128 0x19
 3186 028e 3C       		.uleb128 0x3c
 3187 028f 19       		.uleb128 0x19
 3188 0290 00       		.byte	0
 3189 0291 00       		.byte	0
 3190 0292 30       		.uleb128 0x30
 3191 0293 2E       		.uleb128 0x2e
 3192 0294 01       		.byte	0x1
ARM GAS  /tmp/ccW6jFqV.s 			page 57


 3193 0295 3F       		.uleb128 0x3f
 3194 0296 19       		.uleb128 0x19
 3195 0297 03       		.uleb128 0x3
 3196 0298 0E       		.uleb128 0xe
 3197 0299 3A       		.uleb128 0x3a
 3198 029a 0B       		.uleb128 0xb
 3199 029b 3B       		.uleb128 0x3b
 3200 029c 0B       		.uleb128 0xb
 3201 029d 27       		.uleb128 0x27
 3202 029e 19       		.uleb128 0x19
 3203 029f 3C       		.uleb128 0x3c
 3204 02a0 19       		.uleb128 0x19
 3205 02a1 01       		.uleb128 0x1
 3206 02a2 13       		.uleb128 0x13
 3207 02a3 00       		.byte	0
 3208 02a4 00       		.byte	0
 3209 02a5 31       		.uleb128 0x31
 3210 02a6 2E       		.uleb128 0x2e
 3211 02a7 01       		.byte	0x1
 3212 02a8 3F       		.uleb128 0x3f
 3213 02a9 19       		.uleb128 0x19
 3214 02aa 03       		.uleb128 0x3
 3215 02ab 0E       		.uleb128 0xe
 3216 02ac 3A       		.uleb128 0x3a
 3217 02ad 0B       		.uleb128 0xb
 3218 02ae 3B       		.uleb128 0x3b
 3219 02af 05       		.uleb128 0x5
 3220 02b0 27       		.uleb128 0x27
 3221 02b1 19       		.uleb128 0x19
 3222 02b2 49       		.uleb128 0x49
 3223 02b3 13       		.uleb128 0x13
 3224 02b4 3C       		.uleb128 0x3c
 3225 02b5 19       		.uleb128 0x19
 3226 02b6 00       		.byte	0
 3227 02b7 00       		.byte	0
 3228 02b8 00       		.byte	0
 3229              		.section	.debug_loc,"",%progbits
 3230              	.Ldebug_loc0:
 3231              	.LLST0:
 3232 0000 00000000 		.4byte	.LVL0
 3233 0004 02000000 		.4byte	.LVL1
 3234 0008 0100     		.2byte	0x1
 3235 000a 50       		.byte	0x50
 3236 000b 02000000 		.4byte	.LVL1
 3237 000f 05000000 		.4byte	.LVL2-1
 3238 0013 0300     		.2byte	0x3
 3239 0015 70       		.byte	0x70
 3240 0016 74       		.sleb128 -12
 3241 0017 9F       		.byte	0x9f
 3242 0018 05000000 		.4byte	.LVL2-1
 3243 001c 06000000 		.4byte	.LFE70
 3244 0020 0400     		.2byte	0x4
 3245 0022 F3       		.byte	0xf3
 3246 0023 01       		.uleb128 0x1
 3247 0024 50       		.byte	0x50
 3248 0025 9F       		.byte	0x9f
 3249 0026 00000000 		.4byte	0
ARM GAS  /tmp/ccW6jFqV.s 			page 58


 3250 002a 00000000 		.4byte	0
 3251              	.LLST1:
 3252 002e 00000000 		.4byte	.LVL0
 3253 0032 05000000 		.4byte	.LVL2-1
 3254 0036 0100     		.2byte	0x1
 3255 0038 51       		.byte	0x51
 3256 0039 05000000 		.4byte	.LVL2-1
 3257 003d 06000000 		.4byte	.LFE70
 3258 0041 0400     		.2byte	0x4
 3259 0043 F3       		.byte	0xf3
 3260 0044 01       		.uleb128 0x1
 3261 0045 51       		.byte	0x51
 3262 0046 9F       		.byte	0x9f
 3263 0047 00000000 		.4byte	0
 3264 004b 00000000 		.4byte	0
 3265              	.LLST2:
 3266 004f 00000000 		.4byte	.LVL0
 3267 0053 05000000 		.4byte	.LVL2-1
 3268 0057 0100     		.2byte	0x1
 3269 0059 52       		.byte	0x52
 3270 005a 05000000 		.4byte	.LVL2-1
 3271 005e 06000000 		.4byte	.LFE70
 3272 0062 0400     		.2byte	0x4
 3273 0064 F3       		.byte	0xf3
 3274 0065 01       		.uleb128 0x1
 3275 0066 52       		.byte	0x52
 3276 0067 9F       		.byte	0x9f
 3277 0068 00000000 		.4byte	0
 3278 006c 00000000 		.4byte	0
 3279              	.LLST3:
 3280 0070 00000000 		.4byte	.LVL0
 3281 0074 05000000 		.4byte	.LVL2-1
 3282 0078 0100     		.2byte	0x1
 3283 007a 53       		.byte	0x53
 3284 007b 05000000 		.4byte	.LVL2-1
 3285 007f 06000000 		.4byte	.LFE70
 3286 0083 0400     		.2byte	0x4
 3287 0085 F3       		.byte	0xf3
 3288 0086 01       		.uleb128 0x1
 3289 0087 53       		.byte	0x53
 3290 0088 9F       		.byte	0x9f
 3291 0089 00000000 		.4byte	0
 3292 008d 00000000 		.4byte	0
 3293              	.LLST4:
 3294 0091 00000000 		.4byte	.LVL3
 3295 0095 02000000 		.4byte	.LVL4
 3296 0099 0100     		.2byte	0x1
 3297 009b 50       		.byte	0x50
 3298 009c 02000000 		.4byte	.LVL4
 3299 00a0 09000000 		.4byte	.LVL5-1
 3300 00a4 0300     		.2byte	0x3
 3301 00a6 70       		.byte	0x70
 3302 00a7 74       		.sleb128 -12
 3303 00a8 9F       		.byte	0x9f
 3304 00a9 09000000 		.4byte	.LVL5-1
 3305 00ad 0A000000 		.4byte	.LFE64
 3306 00b1 0400     		.2byte	0x4
ARM GAS  /tmp/ccW6jFqV.s 			page 59


 3307 00b3 F3       		.byte	0xf3
 3308 00b4 01       		.uleb128 0x1
 3309 00b5 50       		.byte	0x50
 3310 00b6 9F       		.byte	0x9f
 3311 00b7 00000000 		.4byte	0
 3312 00bb 00000000 		.4byte	0
 3313              	.LLST5:
 3314 00bf 00000000 		.4byte	.LVL3
 3315 00c3 09000000 		.4byte	.LVL5-1
 3316 00c7 0100     		.2byte	0x1
 3317 00c9 51       		.byte	0x51
 3318 00ca 09000000 		.4byte	.LVL5-1
 3319 00ce 0A000000 		.4byte	.LFE64
 3320 00d2 0400     		.2byte	0x4
 3321 00d4 F3       		.byte	0xf3
 3322 00d5 01       		.uleb128 0x1
 3323 00d6 51       		.byte	0x51
 3324 00d7 9F       		.byte	0x9f
 3325 00d8 00000000 		.4byte	0
 3326 00dc 00000000 		.4byte	0
 3327              	.LLST6:
 3328 00e0 00000000 		.4byte	.LVL3
 3329 00e4 09000000 		.4byte	.LVL5-1
 3330 00e8 0100     		.2byte	0x1
 3331 00ea 52       		.byte	0x52
 3332 00eb 09000000 		.4byte	.LVL5-1
 3333 00ef 0A000000 		.4byte	.LFE64
 3334 00f3 0400     		.2byte	0x4
 3335 00f5 F3       		.byte	0xf3
 3336 00f6 01       		.uleb128 0x1
 3337 00f7 52       		.byte	0x52
 3338 00f8 9F       		.byte	0x9f
 3339 00f9 00000000 		.4byte	0
 3340 00fd 00000000 		.4byte	0
 3341              	.LLST7:
 3342 0101 00000000 		.4byte	.LVL6
 3343 0105 02000000 		.4byte	.LVL7
 3344 0109 0100     		.2byte	0x1
 3345 010b 50       		.byte	0x50
 3346 010c 02000000 		.4byte	.LVL7
 3347 0110 05000000 		.4byte	.LVL8-1
 3348 0114 0300     		.2byte	0x3
 3349 0116 70       		.byte	0x70
 3350 0117 50       		.sleb128 -48
 3351 0118 9F       		.byte	0x9f
 3352 0119 05000000 		.4byte	.LVL8-1
 3353 011d 06000000 		.4byte	.LFE69
 3354 0121 0400     		.2byte	0x4
 3355 0123 F3       		.byte	0xf3
 3356 0124 01       		.uleb128 0x1
 3357 0125 50       		.byte	0x50
 3358 0126 9F       		.byte	0x9f
 3359 0127 00000000 		.4byte	0
 3360 012b 00000000 		.4byte	0
 3361              	.LLST8:
 3362 012f 00000000 		.4byte	.LVL6
 3363 0133 05000000 		.4byte	.LVL8-1
ARM GAS  /tmp/ccW6jFqV.s 			page 60


 3364 0137 0100     		.2byte	0x1
 3365 0139 51       		.byte	0x51
 3366 013a 05000000 		.4byte	.LVL8-1
 3367 013e 06000000 		.4byte	.LFE69
 3368 0142 0400     		.2byte	0x4
 3369 0144 F3       		.byte	0xf3
 3370 0145 01       		.uleb128 0x1
 3371 0146 51       		.byte	0x51
 3372 0147 9F       		.byte	0x9f
 3373 0148 00000000 		.4byte	0
 3374 014c 00000000 		.4byte	0
 3375              	.LLST9:
 3376 0150 00000000 		.4byte	.LVL6
 3377 0154 05000000 		.4byte	.LVL8-1
 3378 0158 0100     		.2byte	0x1
 3379 015a 52       		.byte	0x52
 3380 015b 05000000 		.4byte	.LVL8-1
 3381 015f 06000000 		.4byte	.LFE69
 3382 0163 0400     		.2byte	0x4
 3383 0165 F3       		.byte	0xf3
 3384 0166 01       		.uleb128 0x1
 3385 0167 52       		.byte	0x52
 3386 0168 9F       		.byte	0x9f
 3387 0169 00000000 		.4byte	0
 3388 016d 00000000 		.4byte	0
 3389              	.LLST10:
 3390 0171 00000000 		.4byte	.LVL6
 3391 0175 05000000 		.4byte	.LVL8-1
 3392 0179 0100     		.2byte	0x1
 3393 017b 53       		.byte	0x53
 3394 017c 05000000 		.4byte	.LVL8-1
 3395 0180 06000000 		.4byte	.LFE69
 3396 0184 0400     		.2byte	0x4
 3397 0186 F3       		.byte	0xf3
 3398 0187 01       		.uleb128 0x1
 3399 0188 53       		.byte	0x53
 3400 0189 9F       		.byte	0x9f
 3401 018a 00000000 		.4byte	0
 3402 018e 00000000 		.4byte	0
 3403              	.LLST11:
 3404 0192 00000000 		.4byte	.LVL9
 3405 0196 02000000 		.4byte	.LVL10
 3406 019a 0100     		.2byte	0x1
 3407 019c 50       		.byte	0x50
 3408 019d 02000000 		.4byte	.LVL10
 3409 01a1 09000000 		.4byte	.LVL11-1
 3410 01a5 0300     		.2byte	0x3
 3411 01a7 70       		.byte	0x70
 3412 01a8 50       		.sleb128 -48
 3413 01a9 9F       		.byte	0x9f
 3414 01aa 09000000 		.4byte	.LVL11-1
 3415 01ae 0A000000 		.4byte	.LFE63
 3416 01b2 0400     		.2byte	0x4
 3417 01b4 F3       		.byte	0xf3
 3418 01b5 01       		.uleb128 0x1
 3419 01b6 50       		.byte	0x50
 3420 01b7 9F       		.byte	0x9f
ARM GAS  /tmp/ccW6jFqV.s 			page 61


 3421 01b8 00000000 		.4byte	0
 3422 01bc 00000000 		.4byte	0
 3423              	.LLST12:
 3424 01c0 00000000 		.4byte	.LVL9
 3425 01c4 09000000 		.4byte	.LVL11-1
 3426 01c8 0100     		.2byte	0x1
 3427 01ca 51       		.byte	0x51
 3428 01cb 09000000 		.4byte	.LVL11-1
 3429 01cf 0A000000 		.4byte	.LFE63
 3430 01d3 0400     		.2byte	0x4
 3431 01d5 F3       		.byte	0xf3
 3432 01d6 01       		.uleb128 0x1
 3433 01d7 51       		.byte	0x51
 3434 01d8 9F       		.byte	0x9f
 3435 01d9 00000000 		.4byte	0
 3436 01dd 00000000 		.4byte	0
 3437              	.LLST13:
 3438 01e1 00000000 		.4byte	.LVL9
 3439 01e5 09000000 		.4byte	.LVL11-1
 3440 01e9 0100     		.2byte	0x1
 3441 01eb 52       		.byte	0x52
 3442 01ec 09000000 		.4byte	.LVL11-1
 3443 01f0 0A000000 		.4byte	.LFE63
 3444 01f4 0400     		.2byte	0x4
 3445 01f6 F3       		.byte	0xf3
 3446 01f7 01       		.uleb128 0x1
 3447 01f8 52       		.byte	0x52
 3448 01f9 9F       		.byte	0x9f
 3449 01fa 00000000 		.4byte	0
 3450 01fe 00000000 		.4byte	0
 3451              	.LLST14:
 3452 0202 00000000 		.4byte	.LVL12
 3453 0206 02000000 		.4byte	.LVL13
 3454 020a 0100     		.2byte	0x1
 3455 020c 50       		.byte	0x50
 3456 020d 02000000 		.4byte	.LVL13
 3457 0211 05000000 		.4byte	.LVL14-1
 3458 0215 0300     		.2byte	0x3
 3459 0217 70       		.byte	0x70
 3460 0218 74       		.sleb128 -12
 3461 0219 9F       		.byte	0x9f
 3462 021a 05000000 		.4byte	.LVL14-1
 3463 021e 06000000 		.4byte	.LFE68
 3464 0222 0400     		.2byte	0x4
 3465 0224 F3       		.byte	0xf3
 3466 0225 01       		.uleb128 0x1
 3467 0226 50       		.byte	0x50
 3468 0227 9F       		.byte	0x9f
 3469 0228 00000000 		.4byte	0
 3470 022c 00000000 		.4byte	0
 3471              	.LLST15:
 3472 0230 00000000 		.4byte	.LVL12
 3473 0234 05000000 		.4byte	.LVL14-1
 3474 0238 0100     		.2byte	0x1
 3475 023a 51       		.byte	0x51
 3476 023b 05000000 		.4byte	.LVL14-1
 3477 023f 06000000 		.4byte	.LFE68
ARM GAS  /tmp/ccW6jFqV.s 			page 62


 3478 0243 0400     		.2byte	0x4
 3479 0245 F3       		.byte	0xf3
 3480 0246 01       		.uleb128 0x1
 3481 0247 51       		.byte	0x51
 3482 0248 9F       		.byte	0x9f
 3483 0249 00000000 		.4byte	0
 3484 024d 00000000 		.4byte	0
 3485              	.LLST16:
 3486 0251 00000000 		.4byte	.LVL15
 3487 0255 02000000 		.4byte	.LVL16
 3488 0259 0100     		.2byte	0x1
 3489 025b 50       		.byte	0x50
 3490 025c 02000000 		.4byte	.LVL16
 3491 0260 09000000 		.4byte	.LVL17-1
 3492 0264 0300     		.2byte	0x3
 3493 0266 70       		.byte	0x70
 3494 0267 74       		.sleb128 -12
 3495 0268 9F       		.byte	0x9f
 3496 0269 09000000 		.4byte	.LVL17-1
 3497 026d 0A000000 		.4byte	.LFE66
 3498 0271 0400     		.2byte	0x4
 3499 0273 F3       		.byte	0xf3
 3500 0274 01       		.uleb128 0x1
 3501 0275 50       		.byte	0x50
 3502 0276 9F       		.byte	0x9f
 3503 0277 00000000 		.4byte	0
 3504 027b 00000000 		.4byte	0
 3505              	.LLST17:
 3506 027f 00000000 		.4byte	.LVL18
 3507 0283 02000000 		.4byte	.LVL19
 3508 0287 0100     		.2byte	0x1
 3509 0289 50       		.byte	0x50
 3510 028a 02000000 		.4byte	.LVL19
 3511 028e 05000000 		.4byte	.LVL20-1
 3512 0292 0300     		.2byte	0x3
 3513 0294 70       		.byte	0x70
 3514 0295 50       		.sleb128 -48
 3515 0296 9F       		.byte	0x9f
 3516 0297 05000000 		.4byte	.LVL20-1
 3517 029b 06000000 		.4byte	.LFE67
 3518 029f 0400     		.2byte	0x4
 3519 02a1 F3       		.byte	0xf3
 3520 02a2 01       		.uleb128 0x1
 3521 02a3 50       		.byte	0x50
 3522 02a4 9F       		.byte	0x9f
 3523 02a5 00000000 		.4byte	0
 3524 02a9 00000000 		.4byte	0
 3525              	.LLST18:
 3526 02ad 00000000 		.4byte	.LVL18
 3527 02b1 05000000 		.4byte	.LVL20-1
 3528 02b5 0100     		.2byte	0x1
 3529 02b7 51       		.byte	0x51
 3530 02b8 05000000 		.4byte	.LVL20-1
 3531 02bc 06000000 		.4byte	.LFE67
 3532 02c0 0400     		.2byte	0x4
 3533 02c2 F3       		.byte	0xf3
 3534 02c3 01       		.uleb128 0x1
ARM GAS  /tmp/ccW6jFqV.s 			page 63


 3535 02c4 51       		.byte	0x51
 3536 02c5 9F       		.byte	0x9f
 3537 02c6 00000000 		.4byte	0
 3538 02ca 00000000 		.4byte	0
 3539              	.LLST19:
 3540 02ce 00000000 		.4byte	.LVL18
 3541 02d2 05000000 		.4byte	.LVL20-1
 3542 02d6 0100     		.2byte	0x1
 3543 02d8 52       		.byte	0x52
 3544 02d9 05000000 		.4byte	.LVL20-1
 3545 02dd 06000000 		.4byte	.LFE67
 3546 02e1 0400     		.2byte	0x4
 3547 02e3 F3       		.byte	0xf3
 3548 02e4 01       		.uleb128 0x1
 3549 02e5 52       		.byte	0x52
 3550 02e6 9F       		.byte	0x9f
 3551 02e7 00000000 		.4byte	0
 3552 02eb 00000000 		.4byte	0
 3553              	.LLST20:
 3554 02ef 00000000 		.4byte	.LVL21
 3555 02f3 02000000 		.4byte	.LVL22
 3556 02f7 0100     		.2byte	0x1
 3557 02f9 50       		.byte	0x50
 3558 02fa 02000000 		.4byte	.LVL22
 3559 02fe 09000000 		.4byte	.LVL23-1
 3560 0302 0300     		.2byte	0x3
 3561 0304 70       		.byte	0x70
 3562 0305 50       		.sleb128 -48
 3563 0306 9F       		.byte	0x9f
 3564 0307 09000000 		.4byte	.LVL23-1
 3565 030b 0A000000 		.4byte	.LFE65
 3566 030f 0400     		.2byte	0x4
 3567 0311 F3       		.byte	0xf3
 3568 0312 01       		.uleb128 0x1
 3569 0313 50       		.byte	0x50
 3570 0314 9F       		.byte	0x9f
 3571 0315 00000000 		.4byte	0
 3572 0319 00000000 		.4byte	0
 3573              	.LLST21:
 3574 031d 00000000 		.4byte	.LVL21
 3575 0321 09000000 		.4byte	.LVL23-1
 3576 0325 0100     		.2byte	0x1
 3577 0327 51       		.byte	0x51
 3578 0328 09000000 		.4byte	.LVL23-1
 3579 032c 0A000000 		.4byte	.LFE65
 3580 0330 0400     		.2byte	0x4
 3581 0332 F3       		.byte	0xf3
 3582 0333 01       		.uleb128 0x1
 3583 0334 51       		.byte	0x51
 3584 0335 9F       		.byte	0x9f
 3585 0336 00000000 		.4byte	0
 3586 033a 00000000 		.4byte	0
 3587              	.LLST22:
 3588 033e 00000000 		.4byte	.LVL25
 3589 0342 12000000 		.4byte	.LVL26
 3590 0346 0100     		.2byte	0x1
 3591 0348 50       		.byte	0x50
ARM GAS  /tmp/ccW6jFqV.s 			page 64


 3592 0349 12000000 		.4byte	.LVL26
 3593 034d 42000000 		.4byte	.LFE72
 3594 0351 0100     		.2byte	0x1
 3595 0353 54       		.byte	0x54
 3596 0354 00000000 		.4byte	0
 3597 0358 00000000 		.4byte	0
 3598              	.LLST23:
 3599 035c 00000000 		.4byte	.LVL25
 3600 0360 20000000 		.4byte	.LVL27
 3601 0364 0100     		.2byte	0x1
 3602 0366 51       		.byte	0x51
 3603 0367 20000000 		.4byte	.LVL27
 3604 036b 2B000000 		.4byte	.LVL29-1
 3605 036f 0100     		.2byte	0x1
 3606 0371 53       		.byte	0x53
 3607 0372 2B000000 		.4byte	.LVL29-1
 3608 0376 42000000 		.4byte	.LFE72
 3609 037a 0400     		.2byte	0x4
 3610 037c F3       		.byte	0xf3
 3611 037d 01       		.uleb128 0x1
 3612 037e 51       		.byte	0x51
 3613 037f 9F       		.byte	0x9f
 3614 0380 00000000 		.4byte	0
 3615 0384 00000000 		.4byte	0
 3616              	.LLST24:
 3617 0388 00000000 		.4byte	.LVL25
 3618 038c 28000000 		.4byte	.LVL28
 3619 0390 0100     		.2byte	0x1
 3620 0392 52       		.byte	0x52
 3621 0393 28000000 		.4byte	.LVL28
 3622 0397 42000000 		.4byte	.LFE72
 3623 039b 0100     		.2byte	0x1
 3624 039d 55       		.byte	0x55
 3625 039e 00000000 		.4byte	0
 3626 03a2 00000000 		.4byte	0
 3627              	.LLST25:
 3628 03a6 00000000 		.4byte	.LVL31
 3629 03aa 0D000000 		.4byte	.LVL32-1
 3630 03ae 0100     		.2byte	0x1
 3631 03b0 50       		.byte	0x50
 3632 03b1 0D000000 		.4byte	.LVL32-1
 3633 03b5 1A000000 		.4byte	.LFE73
 3634 03b9 0100     		.2byte	0x1
 3635 03bb 54       		.byte	0x54
 3636 03bc 00000000 		.4byte	0
 3637 03c0 00000000 		.4byte	0
 3638              	.LLST26:
 3639 03c4 00000000 		.4byte	.LVL31
 3640 03c8 0D000000 		.4byte	.LVL32-1
 3641 03cc 0100     		.2byte	0x1
 3642 03ce 51       		.byte	0x51
 3643 03cf 0D000000 		.4byte	.LVL32-1
 3644 03d3 1A000000 		.4byte	.LFE73
 3645 03d7 0400     		.2byte	0x4
 3646 03d9 F3       		.byte	0xf3
 3647 03da 01       		.uleb128 0x1
 3648 03db 51       		.byte	0x51
ARM GAS  /tmp/ccW6jFqV.s 			page 65


 3649 03dc 9F       		.byte	0x9f
 3650 03dd 00000000 		.4byte	0
 3651 03e1 00000000 		.4byte	0
 3652              	.LLST27:
 3653 03e5 00000000 		.4byte	.LVL33
 3654 03e9 0D000000 		.4byte	.LVL34-1
 3655 03ed 0100     		.2byte	0x1
 3656 03ef 50       		.byte	0x50
 3657 03f0 0D000000 		.4byte	.LVL34-1
 3658 03f4 2E000000 		.4byte	.LFE74
 3659 03f8 0100     		.2byte	0x1
 3660 03fa 54       		.byte	0x54
 3661 03fb 00000000 		.4byte	0
 3662 03ff 00000000 		.4byte	0
 3663              	.LLST28:
 3664 0403 00000000 		.4byte	.LVL38
 3665 0407 10000000 		.4byte	.LVL40
 3666 040b 0100     		.2byte	0x1
 3667 040d 50       		.byte	0x50
 3668 040e 10000000 		.4byte	.LVL40
 3669 0412 1A000000 		.4byte	.LVL42
 3670 0416 0100     		.2byte	0x1
 3671 0418 54       		.byte	0x54
 3672 0419 1A000000 		.4byte	.LVL42
 3673 041d 1C000000 		.4byte	.LVL43
 3674 0421 0100     		.2byte	0x1
 3675 0423 50       		.byte	0x50
 3676 0424 1C000000 		.4byte	.LVL43
 3677 0428 38000000 		.4byte	.LVL47
 3678 042c 0100     		.2byte	0x1
 3679 042e 54       		.byte	0x54
 3680 042f 38000000 		.4byte	.LVL47
 3681 0433 3B000000 		.4byte	.LVL48-1
 3682 0437 0300     		.2byte	0x3
 3683 0439 70       		.byte	0x70
 3684 043a 7C       		.sleb128 -4
 3685 043b 9F       		.byte	0x9f
 3686 043c 3B000000 		.4byte	.LVL48-1
 3687 0440 3C000000 		.4byte	.LFE75
 3688 0444 0400     		.2byte	0x4
 3689 0446 F3       		.byte	0xf3
 3690 0447 01       		.uleb128 0x1
 3691 0448 50       		.byte	0x50
 3692 0449 9F       		.byte	0x9f
 3693 044a 00000000 		.4byte	0
 3694 044e 00000000 		.4byte	0
 3695              	.LLST29:
 3696 0452 00000000 		.4byte	.LVL38
 3697 0456 0C000000 		.4byte	.LVL39
 3698 045a 0100     		.2byte	0x1
 3699 045c 51       		.byte	0x51
 3700 045d 0C000000 		.4byte	.LVL39
 3701 0461 1A000000 		.4byte	.LVL42
 3702 0465 0400     		.2byte	0x4
 3703 0467 F3       		.byte	0xf3
 3704 0468 01       		.uleb128 0x1
 3705 0469 51       		.byte	0x51
ARM GAS  /tmp/ccW6jFqV.s 			page 66


 3706 046a 9F       		.byte	0x9f
 3707 046b 1A000000 		.4byte	.LVL42
 3708 046f 1E000000 		.4byte	.LVL44
 3709 0473 0100     		.2byte	0x1
 3710 0475 51       		.byte	0x51
 3711 0476 1E000000 		.4byte	.LVL44
 3712 047a 3C000000 		.4byte	.LFE75
 3713 047e 0400     		.2byte	0x4
 3714 0480 F3       		.byte	0xf3
 3715 0481 01       		.uleb128 0x1
 3716 0482 51       		.byte	0x51
 3717 0483 9F       		.byte	0x9f
 3718 0484 00000000 		.4byte	0
 3719 0488 00000000 		.4byte	0
 3720              	.LLST30:
 3721 048c 00000000 		.4byte	.LVL49
 3722 0490 06000000 		.4byte	.LVL50
 3723 0494 0100     		.2byte	0x1
 3724 0496 50       		.byte	0x50
 3725 0497 06000000 		.4byte	.LVL50
 3726 049b 1E000000 		.4byte	.LFE76
 3727 049f 0100     		.2byte	0x1
 3728 04a1 54       		.byte	0x54
 3729 04a2 00000000 		.4byte	0
 3730 04a6 00000000 		.4byte	0
 3731              	.LLST31:
 3732 04aa 0A000000 		.4byte	.LVL51
 3733 04ae 14000000 		.4byte	.LVL53
 3734 04b2 0100     		.2byte	0x1
 3735 04b4 50       		.byte	0x50
 3736 04b5 14000000 		.4byte	.LVL53
 3737 04b9 1E000000 		.4byte	.LFE76
 3738 04bd 0100     		.2byte	0x1
 3739 04bf 55       		.byte	0x55
 3740 04c0 00000000 		.4byte	0
 3741 04c4 00000000 		.4byte	0
 3742              		.section	.debug_aranges,"",%progbits
 3743 0000 84000000 		.4byte	0x84
 3744 0004 0200     		.2byte	0x2
 3745 0006 00000000 		.4byte	.Ldebug_info0
 3746 000a 04       		.byte	0x4
 3747 000b 00       		.byte	0
 3748 000c 0000     		.2byte	0
 3749 000e 0000     		.2byte	0
 3750 0010 00000000 		.4byte	.LFB70
 3751 0014 06000000 		.4byte	.LFE70-.LFB70
 3752 0018 00000000 		.4byte	.LFB64
 3753 001c 0A000000 		.4byte	.LFE64-.LFB64
 3754 0020 00000000 		.4byte	.LFB69
 3755 0024 06000000 		.4byte	.LFE69-.LFB69
 3756 0028 00000000 		.4byte	.LFB63
 3757 002c 0A000000 		.4byte	.LFE63-.LFB63
 3758 0030 00000000 		.4byte	.LFB68
 3759 0034 06000000 		.4byte	.LFE68-.LFB68
 3760 0038 00000000 		.4byte	.LFB66
 3761 003c 0A000000 		.4byte	.LFE66-.LFB66
 3762 0040 00000000 		.4byte	.LFB67
ARM GAS  /tmp/ccW6jFqV.s 			page 67


 3763 0044 06000000 		.4byte	.LFE67-.LFB67
 3764 0048 00000000 		.4byte	.LFB65
 3765 004c 0A000000 		.4byte	.LFE65-.LFB65
 3766 0050 00000000 		.4byte	.LFB71
 3767 0054 04000000 		.4byte	.LFE71-.LFB71
 3768 0058 00000000 		.4byte	.LFB72
 3769 005c 42000000 		.4byte	.LFE72-.LFB72
 3770 0060 00000000 		.4byte	.LFB73
 3771 0064 1A000000 		.4byte	.LFE73-.LFB73
 3772 0068 00000000 		.4byte	.LFB74
 3773 006c 2E000000 		.4byte	.LFE74-.LFB74
 3774 0070 00000000 		.4byte	.LFB75
 3775 0074 3C000000 		.4byte	.LFE75-.LFB75
 3776 0078 00000000 		.4byte	.LFB76
 3777 007c 1E000000 		.4byte	.LFE76-.LFB76
 3778 0080 00000000 		.4byte	0
 3779 0084 00000000 		.4byte	0
 3780              		.section	.debug_ranges,"",%progbits
 3781              	.Ldebug_ranges0:
 3782 0000 02000000 		.4byte	.LBB2
 3783 0004 04000000 		.4byte	.LBE2
 3784 0008 06000000 		.4byte	.LBB3
 3785 000c 0A000000 		.4byte	.LBE3
 3786 0010 00000000 		.4byte	0
 3787 0014 00000000 		.4byte	0
 3788 0018 02000000 		.4byte	.LBB5
 3789 001c 04000000 		.4byte	.LBE5
 3790 0020 06000000 		.4byte	.LBB6
 3791 0024 0A000000 		.4byte	.LBE6
 3792 0028 00000000 		.4byte	0
 3793 002c 00000000 		.4byte	0
 3794 0030 00000000 		.4byte	.LFB70
 3795 0034 06000000 		.4byte	.LFE70
 3796 0038 00000000 		.4byte	.LFB64
 3797 003c 0A000000 		.4byte	.LFE64
 3798 0040 00000000 		.4byte	.LFB69
 3799 0044 06000000 		.4byte	.LFE69
 3800 0048 00000000 		.4byte	.LFB63
 3801 004c 0A000000 		.4byte	.LFE63
 3802 0050 00000000 		.4byte	.LFB68
 3803 0054 06000000 		.4byte	.LFE68
 3804 0058 00000000 		.4byte	.LFB66
 3805 005c 0A000000 		.4byte	.LFE66
 3806 0060 00000000 		.4byte	.LFB67
 3807 0064 06000000 		.4byte	.LFE67
 3808 0068 00000000 		.4byte	.LFB65
 3809 006c 0A000000 		.4byte	.LFE65
 3810 0070 00000000 		.4byte	.LFB71
 3811 0074 04000000 		.4byte	.LFE71
 3812 0078 00000000 		.4byte	.LFB72
 3813 007c 42000000 		.4byte	.LFE72
 3814 0080 00000000 		.4byte	.LFB73
 3815 0084 1A000000 		.4byte	.LFE73
 3816 0088 00000000 		.4byte	.LFB74
 3817 008c 2E000000 		.4byte	.LFE74
 3818 0090 00000000 		.4byte	.LFB75
 3819 0094 3C000000 		.4byte	.LFE75
ARM GAS  /tmp/ccW6jFqV.s 			page 68


 3820 0098 00000000 		.4byte	.LFB76
 3821 009c 1E000000 		.4byte	.LFE76
 3822 00a0 00000000 		.4byte	0
 3823 00a4 00000000 		.4byte	0
 3824              		.section	.debug_line,"",%progbits
 3825              	.Ldebug_line0:
 3826 0000 77030000 		.section	.debug_str,"MS",%progbits,1
 3826      02005F02 
 3826      00000201 
 3826      FB0E0D00 
 3826      01010101 
 3827              	.LASF124:
 3828 0000 63684F51 		.ascii	"chOQPutTimeout\000"
 3828      50757454 
 3828      696D656F 
 3828      757400
 3829              	.LASF2:
 3830 000f 73697A65 		.ascii	"size_t\000"
 3830      5F7400
 3831              	.LASF66:
 3832 0016 7264796D 		.ascii	"rdymsg\000"
 3832      736700
 3833              	.LASF82:
 3834 001d 4F757470 		.ascii	"OutputQueue\000"
 3834      75745175 
 3834      65756500 
 3835              	.LASF3:
 3836 0029 5F5F7569 		.ascii	"__uint8_t\000"
 3836      6E74385F 
 3836      7400
 3837              	.LASF121:
 3838 0033 63684951 		.ascii	"chIQReadTimeout\000"
 3838      52656164 
 3838      54696D65 
 3838      6F757400 
 3839              	.LASF13:
 3840 0043 6C6F6E67 		.ascii	"long long unsigned int\000"
 3840      206C6F6E 
 3840      6720756E 
 3840      7369676E 
 3840      65642069 
 3841              	.LASF130:
 3842 005a 63684951 		.ascii	"chIQResetI\000"
 3842      52657365 
 3842      744900
 3843              	.LASF126:
 3844 0065 63684F51 		.ascii	"chOQInit\000"
 3844      496E6974 
 3844      00
 3845              	.LASF67:
 3846 006e 65786974 		.ascii	"exitcode\000"
 3846      636F6465 
 3846      00
 3847              	.LASF140:
 3848 0077 49544D5F 		.ascii	"ITM_RxBuffer\000"
 3848      52784275 
 3848      66666572 
ARM GAS  /tmp/ccW6jFqV.s 			page 69


 3848      00
 3849              	.LASF114:
 3850 0084 73644F62 		.ascii	"sdObjectInit\000"
 3850      6A656374 
 3850      496E6974 
 3850      00
 3851              	.LASF110:
 3852 0091 72656164 		.ascii	"readt\000"
 3852      7400
 3853              	.LASF72:
 3854 0097 715F7761 		.ascii	"q_waiting\000"
 3854      6974696E 
 3854      6700
 3855              	.LASF12:
 3856 00a1 6C6F6E67 		.ascii	"long long int\000"
 3856      206C6F6E 
 3856      6720696E 
 3856      7400
 3857              	.LASF1:
 3858 00af 7369676E 		.ascii	"signed char\000"
 3858      65642063 
 3858      68617200 
 3859              	.LASF89:
 3860 00bb 47545052 		.ascii	"GTPR\000"
 3860      00
 3861              	.LASF48:
 3862 00c0 705F6D70 		.ascii	"p_mpool\000"
 3862      6F6F6C00 
 3863              	.LASF18:
 3864 00c8 626F6F6C 		.ascii	"bool_t\000"
 3864      5F7400
 3865              	.LASF56:
 3866 00cf 6D5F7175 		.ascii	"m_queue\000"
 3866      65756500 
 3867              	.LASF23:
 3868 00d7 74736C69 		.ascii	"tslices_t\000"
 3868      6365735F 
 3868      7400
 3869              	.LASF98:
 3870 00e1 73746174 		.ascii	"state\000"
 3870      6500
 3871              	.LASF9:
 3872 00e7 6C6F6E67 		.ascii	"long int\000"
 3872      20696E74 
 3872      00
 3873              	.LASF21:
 3874 00f0 74737461 		.ascii	"tstate_t\000"
 3874      74655F74 
 3874      00
 3875              	.LASF135:
 3876 00f9 63684F51 		.ascii	"chOQGetI\000"
 3876      47657449 
 3876      00
 3877              	.LASF39:
 3878 0102 705F7265 		.ascii	"p_refs\000"
 3878      667300
 3879              	.LASF74:
ARM GAS  /tmp/ccW6jFqV.s 			page 70


 3880 0109 715F6275 		.ascii	"q_buffer\000"
 3880      66666572 
 3880      00
 3881              	.LASF76:
 3882 0112 715F7772 		.ascii	"q_wrptr\000"
 3882      70747200 
 3883              	.LASF79:
 3884 011a 715F6C69 		.ascii	"q_link\000"
 3884      6E6B00
 3885              	.LASF134:
 3886 0121 63684576 		.ascii	"chEvtBroadcastFlagsI\000"
 3886      7442726F 
 3886      61646361 
 3886      7374466C 
 3886      61677349 
 3887              	.LASF34:
 3888 0136 705F6E65 		.ascii	"p_newer\000"
 3888      77657200 
 3889              	.LASF132:
 3890 013e 63685363 		.ascii	"chSchRescheduleS\000"
 3890      68526573 
 3890      63686564 
 3890      756C6553 
 3890      00
 3891              	.LASF10:
 3892 014f 5F5F7569 		.ascii	"__uint32_t\000"
 3892      6E743332 
 3892      5F7400
 3893              	.LASF51:
 3894 015a 72656761 		.ascii	"regarm_t\000"
 3894      726D5F74 
 3894      00
 3895              	.LASF133:
 3896 0163 63684951 		.ascii	"chIQPutI\000"
 3896      50757449 
 3896      00
 3897              	.LASF64:
 3898 016c 4576656E 		.ascii	"EventSource\000"
 3898      74536F75 
 3898      72636500 
 3899              	.LASF101:
 3900 0178 75736172 		.ascii	"usart\000"
 3900      7400
 3901              	.LASF0:
 3902 017e 756E7369 		.ascii	"unsigned int\000"
 3902      676E6564 
 3902      20696E74 
 3902      00
 3903              	.LASF15:
 3904 018b 75696E74 		.ascii	"uint16_t\000"
 3904      31365F74 
 3904      00
 3905              	.LASF104:
 3906 0194 53657269 		.ascii	"SerialDriverVMT\000"
 3906      616C4472 
 3906      69766572 
 3906      564D5400 
ARM GAS  /tmp/ccW6jFqV.s 			page 71


 3907              	.LASF41:
 3908 01a4 705F7469 		.ascii	"p_time\000"
 3908      6D6500
 3909              	.LASF115:
 3910 01ab 696E6F74 		.ascii	"inotify\000"
 3910      69667900 
 3911              	.LASF99:
 3912 01b3 69717565 		.ascii	"iqueue\000"
 3912      756500
 3913              	.LASF43:
 3914 01ba 705F6D73 		.ascii	"p_msgqueue\000"
 3914      67717565 
 3914      756500
 3915              	.LASF131:
 3916 01c5 73645F6C 		.ascii	"sd_lld_init\000"
 3916      6C645F69 
 3916      6E697400 
 3917              	.LASF108:
 3918 01d1 67657474 		.ascii	"gett\000"
 3918      00
 3919              	.LASF97:
 3920 01d6 6576656E 		.ascii	"event\000"
 3920      7400
 3921              	.LASF7:
 3922 01dc 73686F72 		.ascii	"short unsigned int\000"
 3922      7420756E 
 3922      7369676E 
 3922      65642069 
 3922      6E7400
 3923              	.LASF25:
 3924 01ef 6D73675F 		.ascii	"msg_t\000"
 3924      7400
 3925              	.LASF100:
 3926 01f5 6F717565 		.ascii	"oqueue\000"
 3926      756500
 3927              	.LASF136:
 3928 01fc 474E5520 		.ascii	"GNU C 4.8.2 -mcpu=cortex-m3 -mno-thumb-interwork -m"
 3928      4320342E 
 3928      382E3220 
 3928      2D6D6370 
 3928      753D636F 
 3929 022f 7468756D 		.ascii	"thumb -ggdb -O2 -fomit-frame-pointer -ffunction-sec"
 3929      62202D67 
 3929      67646220 
 3929      2D4F3220 
 3929      2D666F6D 
 3930 0262 74696F6E 		.ascii	"tions -fdata-sections -fno-common\000"
 3930      73202D66 
 3930      64617461 
 3930      2D736563 
 3930      74696F6E 
 3931              	.LASF91:
 3932 0284 55534152 		.ascii	"USART_TypeDef\000"
 3932      545F5479 
 3932      70654465 
 3932      6600
 3933              	.LASF109:
ARM GAS  /tmp/ccW6jFqV.s 			page 72


 3934 0292 77726974 		.ascii	"writet\000"
 3934      657400
 3935              	.LASF20:
 3936 0299 746D6F64 		.ascii	"tmode_t\000"
 3936      655F7400 
 3937              	.LASF50:
 3938 02a1 54687265 		.ascii	"ThreadsList\000"
 3938      6164734C 
 3938      69737400 
 3939              	.LASF26:
 3940 02ad 6576656E 		.ascii	"eventmask_t\000"
 3940      746D6173 
 3940      6B5F7400 
 3941              	.LASF81:
 3942 02b9 496E7075 		.ascii	"InputQueue\000"
 3942      74517565 
 3942      756500
 3943              	.LASF102:
 3944 02c4 73706565 		.ascii	"speed\000"
 3944      6400
 3945              	.LASF80:
 3946 02ca 716E6F74 		.ascii	"qnotify_t\000"
 3946      6966795F 
 3946      7400
 3947              	.LASF71:
 3948 02d4 47656E65 		.ascii	"GenericQueue\000"
 3948      72696351 
 3948      75657565 
 3948      00
 3949              	.LASF122:
 3950 02e1 63684F51 		.ascii	"chOQWriteTimeout\000"
 3950      57726974 
 3950      6554696D 
 3950      656F7574 
 3950      00
 3951              	.LASF105:
 3952 02f2 77726974 		.ascii	"write\000"
 3952      6500
 3953              	.LASF107:
 3954 02f8 70757474 		.ascii	"putt\000"
 3954      00
 3955              	.LASF138:
 3956 02fd 2F686F6D 		.ascii	"/home/caroline/Documents/PAF/elfes/Code\000"
 3956      652F6361 
 3956      726F6C69 
 3956      6E652F44 
 3956      6F63756D 
 3957              	.LASF54:
 3958 0325 73697A65 		.ascii	"sizetype\000"
 3958      74797065 
 3958      00
 3959              	.LASF73:
 3960 032e 715F636F 		.ascii	"q_counter\000"
 3960      756E7465 
 3960      7200
 3961              	.LASF55:
 3962 0338 4D757465 		.ascii	"Mutex\000"
ARM GAS  /tmp/ccW6jFqV.s 			page 73


 3962      7800
 3963              	.LASF32:
 3964 033e 705F7072 		.ascii	"p_prio\000"
 3964      696F00
 3965              	.LASF62:
 3966 0345 656C5F6D 		.ascii	"el_mask\000"
 3966      61736B00 
 3967              	.LASF35:
 3968 034d 705F6F6C 		.ascii	"p_older\000"
 3968      64657200 
 3969              	.LASF49:
 3970 0355 54687265 		.ascii	"ThreadsQueue\000"
 3970      61647351 
 3970      75657565 
 3970      00
 3971              	.LASF119:
 3972 0362 73645374 		.ascii	"sdStop\000"
 3972      6F7000
 3973              	.LASF111:
 3974 0369 74696D65 		.ascii	"time\000"
 3974      00
 3975              	.LASF103:
 3976 036e 53657269 		.ascii	"SerialConfig\000"
 3976      616C436F 
 3976      6E666967 
 3976      00
 3977              	.LASF22:
 3978 037b 74726566 		.ascii	"trefs_t\000"
 3978      735F7400 
 3979              	.LASF83:
 3980 0383 52455345 		.ascii	"RESERVED0\000"
 3980      52564544 
 3980      3000
 3981              	.LASF84:
 3982 038d 52455345 		.ascii	"RESERVED1\000"
 3982      52564544 
 3982      3100
 3983              	.LASF85:
 3984 0397 52455345 		.ascii	"RESERVED2\000"
 3984      52564544 
 3984      3200
 3985              	.LASF86:
 3986 03a1 52455345 		.ascii	"RESERVED3\000"
 3986      52564544 
 3986      3300
 3987              	.LASF87:
 3988 03ab 52455345 		.ascii	"RESERVED4\000"
 3988      52564544 
 3988      3400
 3989              	.LASF31:
 3990 03b5 705F7072 		.ascii	"p_prev\000"
 3990      657600
 3991              	.LASF90:
 3992 03bc 52455345 		.ascii	"RESERVED6\000"
 3992      52564544 
 3992      3600
 3993              	.LASF24:
ARM GAS  /tmp/ccW6jFqV.s 			page 74


 3994 03c6 74707269 		.ascii	"tprio_t\000"
 3994      6F5F7400 
 3995              	.LASF77:
 3996 03ce 715F7264 		.ascii	"q_rdptr\000"
 3996      70747200 
 3997              	.LASF19:
 3998 03d6 5F426F6F 		.ascii	"_Bool\000"
 3998      6C00
 3999              	.LASF16:
 4000 03dc 696E7433 		.ascii	"int32_t\000"
 4000      325F7400 
 4001              	.LASF4:
 4002 03e4 756E7369 		.ascii	"unsigned char\000"
 4002      676E6564 
 4002      20636861 
 4002      7200
 4003              	.LASF127:
 4004 03f2 73645F6C 		.ascii	"sd_lld_start\000"
 4004      6C645F73 
 4004      74617274 
 4004      00
 4005              	.LASF61:
 4006 03ff 656C5F6C 		.ascii	"el_listener\000"
 4006      69737465 
 4006      6E657200 
 4007              	.LASF63:
 4008 040b 656C5F66 		.ascii	"el_flags\000"
 4008      6C616773 
 4008      00
 4009              	.LASF37:
 4010 0414 705F7374 		.ascii	"p_state\000"
 4010      61746500 
 4011              	.LASF46:
 4012 041c 705F6D74 		.ascii	"p_mtxlist\000"
 4012      786C6973 
 4012      7400
 4013              	.LASF5:
 4014 0426 73686F72 		.ascii	"short int\000"
 4014      7420696E 
 4014      7400
 4015              	.LASF40:
 4016 0430 705F7072 		.ascii	"p_preempt\000"
 4016      65656D70 
 4016      7400
 4017              	.LASF69:
 4018 043a 65776D61 		.ascii	"ewmask\000"
 4018      736B00
 4019              	.LASF30:
 4020 0441 705F6E65 		.ascii	"p_next\000"
 4020      787400
 4021              	.LASF38:
 4022 0448 705F666C 		.ascii	"p_flags\000"
 4022      61677300 
 4023              	.LASF60:
 4024 0450 656C5F6E 		.ascii	"el_next\000"
 4024      65787400 
 4025              	.LASF93:
ARM GAS  /tmp/ccW6jFqV.s 			page 75


 4026 0458 53445F53 		.ascii	"SD_STOP\000"
 4026      544F5000 
 4027              	.LASF29:
 4028 0460 54687265 		.ascii	"Thread\000"
 4028      616400
 4029              	.LASF45:
 4030 0467 705F6570 		.ascii	"p_epending\000"
 4030      656E6469 
 4030      6E6700
 4031              	.LASF92:
 4032 0472 53445F55 		.ascii	"SD_UNINIT\000"
 4032      4E494E49 
 4032      5400
 4033              	.LASF88:
 4034 047c 52455345 		.ascii	"RESERVED5\000"
 4034      52564544 
 4034      3500
 4035              	.LASF17:
 4036 0486 75696E74 		.ascii	"uint32_t\000"
 4036      33325F74 
 4036      00
 4037              	.LASF95:
 4038 048f 73647374 		.ascii	"sdstate_t\000"
 4038      6174655F 
 4038      7400
 4039              	.LASF96:
 4040 0499 53657269 		.ascii	"SerialDriver\000"
 4040      616C4472 
 4040      69766572 
 4040      00
 4041              	.LASF11:
 4042 04a6 6C6F6E67 		.ascii	"long unsigned int\000"
 4042      20756E73 
 4042      69676E65 
 4042      6420696E 
 4042      7400
 4043              	.LASF106:
 4044 04b8 72656164 		.ascii	"read\000"
 4044      00
 4045              	.LASF70:
 4046 04bd 63686172 		.ascii	"char\000"
 4046      00
 4047              	.LASF120:
 4048 04c2 7364496E 		.ascii	"sdIncomingDataI\000"
 4048      636F6D69 
 4048      6E674461 
 4048      74614900 
 4049              	.LASF118:
 4050 04d2 636F6E66 		.ascii	"config\000"
 4050      696700
 4051              	.LASF117:
 4052 04d9 73645374 		.ascii	"sdStart\000"
 4052      61727400 
 4053              	.LASF6:
 4054 04e1 5F5F7569 		.ascii	"__uint16_t\000"
 4054      6E743136 
 4054      5F7400
ARM GAS  /tmp/ccW6jFqV.s 			page 76


 4055              	.LASF58:
 4056 04ec 6D5F6E65 		.ascii	"m_next\000"
 4056      787400
 4057              	.LASF28:
 4058 04f3 73797374 		.ascii	"systime_t\000"
 4058      696D655F 
 4058      7400
 4059              	.LASF47:
 4060 04fd 705F7265 		.ascii	"p_realprio\000"
 4060      616C7072 
 4060      696F00
 4061              	.LASF8:
 4062 0508 5F5F696E 		.ascii	"__int32_t\000"
 4062      7433325F 
 4062      7400
 4063              	.LASF129:
 4064 0512 63684F51 		.ascii	"chOQResetI\000"
 4064      52657365 
 4064      744900
 4065              	.LASF53:
 4066 051d 636F6E74 		.ascii	"context\000"
 4066      65787400 
 4067              	.LASF52:
 4068 0525 696E7463 		.ascii	"intctx\000"
 4068      747800
 4069              	.LASF94:
 4070 052c 53445F52 		.ascii	"SD_READY\000"
 4070      45414459 
 4070      00
 4071              	.LASF27:
 4072 0535 666C6167 		.ascii	"flagsmask_t\000"
 4072      736D6173 
 4072      6B5F7400 
 4073              	.LASF75:
 4074 0541 715F746F 		.ascii	"q_top\000"
 4074      7000
 4075              	.LASF36:
 4076 0547 705F6E61 		.ascii	"p_name\000"
 4076      6D6500
 4077              	.LASF65:
 4078 054e 65735F6E 		.ascii	"es_next\000"
 4078      65787400 
 4079              	.LASF137:
 4080 0556 2E2E2F43 		.ascii	"../ChibiOS_2.6.4/os/hal/src/serial.c\000"
 4080      68696269 
 4080      4F535F32 
 4080      2E362E34 
 4080      2F6F732F 
 4081              	.LASF78:
 4082 057b 715F6E6F 		.ascii	"q_notify\000"
 4082      74696679 
 4082      00
 4083              	.LASF139:
 4084 0584 73645265 		.ascii	"sdRequestDataI\000"
 4084      71756573 
 4084      74446174 
 4084      614900
ARM GAS  /tmp/ccW6jFqV.s 			page 77


 4085              	.LASF14:
 4086 0593 75696E74 		.ascii	"uint8_t\000"
 4086      385F7400 
 4087              	.LASF116:
 4088 059b 6F6E6F74 		.ascii	"onotify\000"
 4088      69667900 
 4089              	.LASF59:
 4090 05a3 4576656E 		.ascii	"EventListener\000"
 4090      744C6973 
 4090      74656E65 
 4090      7200
 4091              	.LASF68:
 4092 05b1 77746F62 		.ascii	"wtobjp\000"
 4092      6A7000
 4093              	.LASF44:
 4094 05b8 705F6D73 		.ascii	"p_msg\000"
 4094      6700
 4095              	.LASF128:
 4096 05be 73645F6C 		.ascii	"sd_lld_stop\000"
 4096      6C645F73 
 4096      746F7000 
 4097              	.LASF112:
 4098 05ca 74696D65 		.ascii	"timeout\000"
 4098      6F757400 
 4099              	.LASF113:
 4100 05d2 7364496E 		.ascii	"sdInit\000"
 4100      697400
 4101              	.LASF125:
 4102 05d9 63684951 		.ascii	"chIQInit\000"
 4102      496E6974 
 4102      00
 4103              	.LASF57:
 4104 05e2 6D5F6F77 		.ascii	"m_owner\000"
 4104      6E657200 
 4105              	.LASF33:
 4106 05ea 705F6374 		.ascii	"p_ctx\000"
 4106      7800
 4107              	.LASF42:
 4108 05f0 705F7761 		.ascii	"p_waiting\000"
 4108      6974696E 
 4108      6700
 4109              	.LASF123:
 4110 05fa 63684951 		.ascii	"chIQGetTimeout\000"
 4110      47657454 
 4110      696D656F 
 4110      757400
 4111              		.ident	"GCC: (4.8.2-14ubuntu1+6) 4.8.2"
ARM GAS  /tmp/ccW6jFqV.s 			page 78


DEFINED SYMBOLS
                            *ABS*:0000000000000000 serial.c
     /tmp/ccW6jFqV.s:19     .text.readt:0000000000000000 $t
     /tmp/ccW6jFqV.s:23     .text.readt:0000000000000000 readt
     /tmp/ccW6jFqV.s:41     .text.read:0000000000000000 $t
     /tmp/ccW6jFqV.s:45     .text.read:0000000000000000 read
     /tmp/ccW6jFqV.s:63     .text.writet:0000000000000000 $t
     /tmp/ccW6jFqV.s:67     .text.writet:0000000000000000 writet
     /tmp/ccW6jFqV.s:84     .text.write:0000000000000000 $t
     /tmp/ccW6jFqV.s:88     .text.write:0000000000000000 write
     /tmp/ccW6jFqV.s:106    .text.gett:0000000000000000 $t
     /tmp/ccW6jFqV.s:110    .text.gett:0000000000000000 gett
     /tmp/ccW6jFqV.s:127    .text.get:0000000000000000 $t
     /tmp/ccW6jFqV.s:131    .text.get:0000000000000000 get
     /tmp/ccW6jFqV.s:149    .text.putt:0000000000000000 $t
     /tmp/ccW6jFqV.s:153    .text.putt:0000000000000000 putt
     /tmp/ccW6jFqV.s:170    .text.put:0000000000000000 $t
     /tmp/ccW6jFqV.s:174    .text.put:0000000000000000 put
     /tmp/ccW6jFqV.s:192    .text.sdInit:0000000000000000 $t
     /tmp/ccW6jFqV.s:197    .text.sdInit:0000000000000000 sdInit
     /tmp/ccW6jFqV.s:211    .text.sdObjectInit:0000000000000000 $t
     /tmp/ccW6jFqV.s:216    .text.sdObjectInit:0000000000000000 sdObjectInit
     /tmp/ccW6jFqV.s:495    .rodata.vmt:0000000000000000 .LANCHOR0
     /tmp/ccW6jFqV.s:275    .text.sdStart:0000000000000000 $t
     /tmp/ccW6jFqV.s:280    .text.sdStart:0000000000000000 sdStart
     /tmp/ccW6jFqV.s:323    .text.sdStop:0000000000000000 $t
     /tmp/ccW6jFqV.s:328    .text.sdStop:0000000000000000 sdStop
     /tmp/ccW6jFqV.s:382    .text.sdIncomingDataI:0000000000000000 $t
     /tmp/ccW6jFqV.s:387    .text.sdIncomingDataI:0000000000000000 sdIncomingDataI
     /tmp/ccW6jFqV.s:448    .text.sdRequestDataI:0000000000000000 $t
     /tmp/ccW6jFqV.s:453    .text.sdRequestDataI:0000000000000000 sdRequestDataI
     /tmp/ccW6jFqV.s:494    .rodata.vmt:0000000000000000 $d
     /tmp/ccW6jFqV.s:498    .rodata.vmt:0000000000000000 vmt
                     .debug_frame:0000000000000010 $d

UNDEFINED SYMBOLS
chIQReadTimeout
chOQWriteTimeout
chIQGetTimeout
chOQPutTimeout
sd_lld_init
chIQInit
chOQInit
sd_lld_start
sd_lld_stop
chOQResetI
chIQResetI
chSchRescheduleS
chIQPutI
chEvtBroadcastFlagsI
chOQGetI
