ARM GAS  /tmp/cct2aUJ9.s 			page 1


   1              		.syntax unified
   2              		.cpu cortex-m3
   3              		.fpu softvfp
   4              		.eabi_attribute 20, 1
   5              		.eabi_attribute 21, 1
   6              		.eabi_attribute 23, 3
   7              		.eabi_attribute 24, 1
   8              		.eabi_attribute 25, 1
   9              		.eabi_attribute 26, 1
  10              		.eabi_attribute 30, 2
  11              		.eabi_attribute 34, 1
  12              		.eabi_attribute 18, 4
  13              		.thumb
  14              		.file	"spi.c"
  15              		.text
  16              	.Ltext0:
  17              		.cfi_sections	.debug_frame
  18              		.section	.text.spiInit,"ax",%progbits
  19              		.align	2
  20              		.global	spiInit
  21              		.thumb
  22              		.thumb_func
  23              		.type	spiInit, %function
  24              	spiInit:
  25              	.LFB63:
  26              		.file 1 "../ChibiOS_2.6.4/os/hal/src/spi.c"
  27              		.loc 1 68 0
  28              		.cfi_startproc
  29              		@ args = 0, pretend = 0, frame = 0
  30              		@ frame_needed = 0, uses_anonymous_args = 0
  31              		@ link register save eliminated.
  32              		.loc 1 70 0
  33 0000 FFF7FEBF 		b	spi_lld_init
  34              	.LVL0:
  35              		.cfi_endproc
  36              	.LFE63:
  37              		.size	spiInit, .-spiInit
  38              		.section	.text.spiObjectInit,"ax",%progbits
  39              		.align	2
  40              		.global	spiObjectInit
  41              		.thumb
  42              		.thumb_func
  43              		.type	spiObjectInit, %function
  44              	spiObjectInit:
  45              	.LFB64:
  46              		.loc 1 80 0
  47              		.cfi_startproc
  48              		@ args = 0, pretend = 0, frame = 0
  49              		@ frame_needed = 0, uses_anonymous_args = 0
  50              		@ link register save eliminated.
  51              	.LVL1:
  52              		.loc 1 83 0
  53 0000 0023     		movs	r3, #0
  54              		.loc 1 82 0
  55 0002 0122     		movs	r2, #1
  56 0004 0270     		strb	r2, [r0]
  57              		.loc 1 83 0
ARM GAS  /tmp/cct2aUJ9.s 			page 2


  58 0006 4360     		str	r3, [r0, #4]
  59              		.loc 1 85 0
  60 0008 8360     		str	r3, [r0, #8]
  61              		.loc 1 89 0
  62 000a 0C30     		adds	r0, r0, #12
  63              	.LVL2:
  64 000c FFF7FEBF 		b	chMtxInit
  65              	.LVL3:
  66              		.cfi_endproc
  67              	.LFE64:
  68              		.size	spiObjectInit, .-spiObjectInit
  69              		.section	.text.spiStart,"ax",%progbits
  70              		.align	2
  71              		.global	spiStart
  72              		.thumb
  73              		.thumb_func
  74              		.type	spiStart, %function
  75              	spiStart:
  76              	.LFB65:
  77              		.loc 1 107 0
  78              		.cfi_startproc
  79              		@ args = 0, pretend = 0, frame = 0
  80              		@ frame_needed = 0, uses_anonymous_args = 0
  81              	.LVL4:
  82 0000 10B5     		push	{r4, lr}
  83              		.cfi_def_cfa_offset 8
  84              		.cfi_offset 4, -8
  85              		.cfi_offset 14, -4
  86              	.LBB2:
  87              		.loc 1 111 0
  88 0002 2023     		movs	r3, #32
  89              	.LBE2:
  90              		.loc 1 107 0
  91 0004 0446     		mov	r4, r0
  92              	.LBB3:
  93              		.loc 1 111 0
  94              	@ 111 "../ChibiOS_2.6.4/os/hal/src/spi.c" 1
  95 0006 83F31188 		msr     BASEPRI, r3
  96              	@ 0 "" 2
  97              		.thumb
  98              	.LBE3:
  99              		.loc 1 114 0
 100 000a 4160     		str	r1, [r0, #4]
 101              		.loc 1 115 0
 102 000c FFF7FEFF 		bl	spi_lld_start
 103              	.LVL5:
 104              		.loc 1 116 0
 105 0010 0223     		movs	r3, #2
 106 0012 2370     		strb	r3, [r4]
 107              	.LBB4:
 108              		.loc 1 117 0
 109 0014 0023     		movs	r3, #0
 110              	@ 117 "../ChibiOS_2.6.4/os/hal/src/spi.c" 1
 111 0016 83F31188 		msr     BASEPRI, r3
 112              	@ 0 "" 2
 113              		.thumb
 114 001a 10BD     		pop	{r4, pc}
ARM GAS  /tmp/cct2aUJ9.s 			page 3


 115              	.LBE4:
 116              		.cfi_endproc
 117              	.LFE65:
 118              		.size	spiStart, .-spiStart
 119              		.section	.text.spiStop,"ax",%progbits
 120              		.align	2
 121              		.global	spiStop
 122              		.thumb
 123              		.thumb_func
 124              		.type	spiStop, %function
 125              	spiStop:
 126              	.LFB66:
 127              		.loc 1 129 0
 128              		.cfi_startproc
 129              		@ args = 0, pretend = 0, frame = 0
 130              		@ frame_needed = 0, uses_anonymous_args = 0
 131              	.LVL6:
 132 0000 10B5     		push	{r4, lr}
 133              		.cfi_def_cfa_offset 8
 134              		.cfi_offset 4, -8
 135              		.cfi_offset 14, -4
 136              	.LBB5:
 137              		.loc 1 133 0
 138 0002 2023     		movs	r3, #32
 139              	.LBE5:
 140              		.loc 1 129 0
 141 0004 0446     		mov	r4, r0
 142              	.LBB6:
 143              		.loc 1 133 0
 144              	@ 133 "../ChibiOS_2.6.4/os/hal/src/spi.c" 1
 145 0006 83F31188 		msr     BASEPRI, r3
 146              	@ 0 "" 2
 147              		.thumb
 148              	.LBE6:
 149              		.loc 1 136 0
 150 000a FFF7FEFF 		bl	spi_lld_unselect
 151              	.LVL7:
 152              		.loc 1 137 0
 153 000e 2046     		mov	r0, r4
 154 0010 FFF7FEFF 		bl	spi_lld_stop
 155              	.LVL8:
 156              		.loc 1 138 0
 157 0014 0123     		movs	r3, #1
 158 0016 2370     		strb	r3, [r4]
 159              	.LBB7:
 160              		.loc 1 139 0
 161 0018 0023     		movs	r3, #0
 162              	@ 139 "../ChibiOS_2.6.4/os/hal/src/spi.c" 1
 163 001a 83F31188 		msr     BASEPRI, r3
 164              	@ 0 "" 2
 165              		.thumb
 166 001e 10BD     		pop	{r4, pc}
 167              	.LBE7:
 168              		.cfi_endproc
 169              	.LFE66:
 170              		.size	spiStop, .-spiStop
 171              		.section	.text.spiSelect,"ax",%progbits
ARM GAS  /tmp/cct2aUJ9.s 			page 4


 172              		.align	2
 173              		.global	spiSelect
 174              		.thumb
 175              		.thumb_func
 176              		.type	spiSelect, %function
 177              	spiSelect:
 178              	.LFB67:
 179              		.loc 1 149 0
 180              		.cfi_startproc
 181              		@ args = 0, pretend = 0, frame = 0
 182              		@ frame_needed = 0, uses_anonymous_args = 0
 183              	.LVL9:
 184 0000 08B5     		push	{r3, lr}
 185              		.cfi_def_cfa_offset 8
 186              		.cfi_offset 3, -8
 187              		.cfi_offset 14, -4
 188              	.LBB8:
 189              		.loc 1 153 0
 190 0002 2023     		movs	r3, #32
 191              	@ 153 "../ChibiOS_2.6.4/os/hal/src/spi.c" 1
 192 0004 83F31188 		msr     BASEPRI, r3
 193              	@ 0 "" 2
 194              		.thumb
 195              	.LBE8:
 196              		.loc 1 155 0
 197 0008 FFF7FEFF 		bl	spi_lld_select
 198              	.LVL10:
 199              	.LBB9:
 200              		.loc 1 156 0
 201 000c 0023     		movs	r3, #0
 202              	@ 156 "../ChibiOS_2.6.4/os/hal/src/spi.c" 1
 203 000e 83F31188 		msr     BASEPRI, r3
 204              	@ 0 "" 2
 205              		.thumb
 206 0012 08BD     		pop	{r3, pc}
 207              	.LBE9:
 208              		.cfi_endproc
 209              	.LFE67:
 210              		.size	spiSelect, .-spiSelect
 211              		.section	.text.spiUnselect,"ax",%progbits
 212              		.align	2
 213              		.global	spiUnselect
 214              		.thumb
 215              		.thumb_func
 216              		.type	spiUnselect, %function
 217              	spiUnselect:
 218              	.LFB68:
 219              		.loc 1 167 0
 220              		.cfi_startproc
 221              		@ args = 0, pretend = 0, frame = 0
 222              		@ frame_needed = 0, uses_anonymous_args = 0
 223              	.LVL11:
 224 0000 08B5     		push	{r3, lr}
 225              		.cfi_def_cfa_offset 8
 226              		.cfi_offset 3, -8
 227              		.cfi_offset 14, -4
 228              	.LBB10:
ARM GAS  /tmp/cct2aUJ9.s 			page 5


 229              		.loc 1 171 0
 230 0002 2023     		movs	r3, #32
 231              	@ 171 "../ChibiOS_2.6.4/os/hal/src/spi.c" 1
 232 0004 83F31188 		msr     BASEPRI, r3
 233              	@ 0 "" 2
 234              		.thumb
 235              	.LBE10:
 236              		.loc 1 173 0
 237 0008 FFF7FEFF 		bl	spi_lld_unselect
 238              	.LVL12:
 239              	.LBB11:
 240              		.loc 1 174 0
 241 000c 0023     		movs	r3, #0
 242              	@ 174 "../ChibiOS_2.6.4/os/hal/src/spi.c" 1
 243 000e 83F31188 		msr     BASEPRI, r3
 244              	@ 0 "" 2
 245              		.thumb
 246 0012 08BD     		pop	{r3, pc}
 247              	.LBE11:
 248              		.cfi_endproc
 249              	.LFE68:
 250              		.size	spiUnselect, .-spiUnselect
 251              		.section	.text.spiStartIgnore,"ax",%progbits
 252              		.align	2
 253              		.global	spiStartIgnore
 254              		.thumb
 255              		.thumb_func
 256              		.type	spiStartIgnore, %function
 257              	spiStartIgnore:
 258              	.LFB69:
 259              		.loc 1 190 0
 260              		.cfi_startproc
 261              		@ args = 0, pretend = 0, frame = 0
 262              		@ frame_needed = 0, uses_anonymous_args = 0
 263              	.LVL13:
 264 0000 08B5     		push	{r3, lr}
 265              		.cfi_def_cfa_offset 8
 266              		.cfi_offset 3, -8
 267              		.cfi_offset 14, -4
 268              	.LBB12:
 269              		.loc 1 194 0
 270 0002 2023     		movs	r3, #32
 271              	@ 194 "../ChibiOS_2.6.4/os/hal/src/spi.c" 1
 272 0004 83F31188 		msr     BASEPRI, r3
 273              	@ 0 "" 2
 274              		.thumb
 275              	.LBE12:
 276              		.loc 1 196 0
 277 0008 0323     		movs	r3, #3
 278 000a 0370     		strb	r3, [r0]
 279 000c FFF7FEFF 		bl	spi_lld_ignore
 280              	.LVL14:
 281              	.LBB13:
 282              		.loc 1 197 0
 283 0010 0023     		movs	r3, #0
 284              	@ 197 "../ChibiOS_2.6.4/os/hal/src/spi.c" 1
 285 0012 83F31188 		msr     BASEPRI, r3
ARM GAS  /tmp/cct2aUJ9.s 			page 6


 286              	@ 0 "" 2
 287              		.thumb
 288 0016 08BD     		pop	{r3, pc}
 289              	.LBE13:
 290              		.cfi_endproc
 291              	.LFE69:
 292              		.size	spiStartIgnore, .-spiStartIgnore
 293              		.section	.text.spiStartExchange,"ax",%progbits
 294              		.align	2
 295              		.global	spiStartExchange
 296              		.thumb
 297              		.thumb_func
 298              		.type	spiStartExchange, %function
 299              	spiStartExchange:
 300              	.LFB70:
 301              		.loc 1 218 0
 302              		.cfi_startproc
 303              		@ args = 0, pretend = 0, frame = 0
 304              		@ frame_needed = 0, uses_anonymous_args = 0
 305              	.LVL15:
 306 0000 38B5     		push	{r3, r4, r5, lr}
 307              		.cfi_def_cfa_offset 16
 308              		.cfi_offset 3, -16
 309              		.cfi_offset 4, -12
 310              		.cfi_offset 5, -8
 311              		.cfi_offset 14, -4
 312              		.loc 1 218 0
 313 0002 1C46     		mov	r4, r3
 314              	.LBB14:
 315              		.loc 1 223 0
 316 0004 2023     		movs	r3, #32
 317              	.LVL16:
 318              	@ 223 "../ChibiOS_2.6.4/os/hal/src/spi.c" 1
 319 0006 83F31188 		msr     BASEPRI, r3
 320              	@ 0 "" 2
 321              		.thumb
 322              	.LBE14:
 323              		.loc 1 225 0
 324 000a 0325     		movs	r5, #3
 325 000c 2346     		mov	r3, r4
 326 000e 0570     		strb	r5, [r0]
 327 0010 FFF7FEFF 		bl	spi_lld_exchange
 328              	.LVL17:
 329              	.LBB15:
 330              		.loc 1 226 0
 331 0014 0023     		movs	r3, #0
 332              	@ 226 "../ChibiOS_2.6.4/os/hal/src/spi.c" 1
 333 0016 83F31188 		msr     BASEPRI, r3
 334              	@ 0 "" 2
 335              		.thumb
 336 001a 38BD     		pop	{r3, r4, r5, pc}
 337              	.LBE15:
 338              		.cfi_endproc
 339              	.LFE70:
 340              		.size	spiStartExchange, .-spiStartExchange
 341              		.section	.text.spiStartSend,"ax",%progbits
 342              		.align	2
ARM GAS  /tmp/cct2aUJ9.s 			page 7


 343              		.global	spiStartSend
 344              		.thumb
 345              		.thumb_func
 346              		.type	spiStartSend, %function
 347              	spiStartSend:
 348              	.LFB71:
 349              		.loc 1 244 0
 350              		.cfi_startproc
 351              		@ args = 0, pretend = 0, frame = 0
 352              		@ frame_needed = 0, uses_anonymous_args = 0
 353              	.LVL18:
 354 0000 08B5     		push	{r3, lr}
 355              		.cfi_def_cfa_offset 8
 356              		.cfi_offset 3, -8
 357              		.cfi_offset 14, -4
 358              	.LBB16:
 359              		.loc 1 249 0
 360 0002 2023     		movs	r3, #32
 361              	@ 249 "../ChibiOS_2.6.4/os/hal/src/spi.c" 1
 362 0004 83F31188 		msr     BASEPRI, r3
 363              	@ 0 "" 2
 364              		.thumb
 365              	.LBE16:
 366              		.loc 1 251 0
 367 0008 0323     		movs	r3, #3
 368 000a 0370     		strb	r3, [r0]
 369 000c FFF7FEFF 		bl	spi_lld_send
 370              	.LVL19:
 371              	.LBB17:
 372              		.loc 1 252 0
 373 0010 0023     		movs	r3, #0
 374              	@ 252 "../ChibiOS_2.6.4/os/hal/src/spi.c" 1
 375 0012 83F31188 		msr     BASEPRI, r3
 376              	@ 0 "" 2
 377              		.thumb
 378 0016 08BD     		pop	{r3, pc}
 379              	.LBE17:
 380              		.cfi_endproc
 381              	.LFE71:
 382              		.size	spiStartSend, .-spiStartSend
 383              		.section	.text.spiStartReceive,"ax",%progbits
 384              		.align	2
 385              		.global	spiStartReceive
 386              		.thumb
 387              		.thumb_func
 388              		.type	spiStartReceive, %function
 389              	spiStartReceive:
 390              	.LFB72:
 391              		.loc 1 270 0
 392              		.cfi_startproc
 393              		@ args = 0, pretend = 0, frame = 0
 394              		@ frame_needed = 0, uses_anonymous_args = 0
 395              	.LVL20:
 396 0000 08B5     		push	{r3, lr}
 397              		.cfi_def_cfa_offset 8
 398              		.cfi_offset 3, -8
 399              		.cfi_offset 14, -4
ARM GAS  /tmp/cct2aUJ9.s 			page 8


 400              	.LBB18:
 401              		.loc 1 275 0
 402 0002 2023     		movs	r3, #32
 403              	@ 275 "../ChibiOS_2.6.4/os/hal/src/spi.c" 1
 404 0004 83F31188 		msr     BASEPRI, r3
 405              	@ 0 "" 2
 406              		.thumb
 407              	.LBE18:
 408              		.loc 1 277 0
 409 0008 0323     		movs	r3, #3
 410 000a 0370     		strb	r3, [r0]
 411 000c FFF7FEFF 		bl	spi_lld_receive
 412              	.LVL21:
 413              	.LBB19:
 414              		.loc 1 278 0
 415 0010 0023     		movs	r3, #0
 416              	@ 278 "../ChibiOS_2.6.4/os/hal/src/spi.c" 1
 417 0012 83F31188 		msr     BASEPRI, r3
 418              	@ 0 "" 2
 419              		.thumb
 420 0016 08BD     		pop	{r3, pc}
 421              	.LBE19:
 422              		.cfi_endproc
 423              	.LFE72:
 424              		.size	spiStartReceive, .-spiStartReceive
 425              		.section	.text.spiIgnore,"ax",%progbits
 426              		.align	2
 427              		.global	spiIgnore
 428              		.thumb
 429              		.thumb_func
 430              		.type	spiIgnore, %function
 431              	spiIgnore:
 432              	.LFB73:
 433              		.loc 1 296 0
 434              		.cfi_startproc
 435              		@ args = 0, pretend = 0, frame = 0
 436              		@ frame_needed = 0, uses_anonymous_args = 0
 437              	.LVL22:
 438 0000 10B5     		push	{r4, lr}
 439              		.cfi_def_cfa_offset 8
 440              		.cfi_offset 4, -8
 441              		.cfi_offset 14, -4
 442              	.LBB20:
 443              		.loc 1 300 0
 444 0002 2023     		movs	r3, #32
 445              	.LBE20:
 446              		.loc 1 296 0
 447 0004 0446     		mov	r4, r0
 448              	.LBB21:
 449              		.loc 1 300 0
 450              	@ 300 "../ChibiOS_2.6.4/os/hal/src/spi.c" 1
 451 0006 83F31188 		msr     BASEPRI, r3
 452              	@ 0 "" 2
 453              		.thumb
 454              	.LBE21:
 455              		.loc 1 303 0
 456 000a 0323     		movs	r3, #3
ARM GAS  /tmp/cct2aUJ9.s 			page 9


 457 000c 0370     		strb	r3, [r0]
 458 000e FFF7FEFF 		bl	spi_lld_ignore
 459              	.LVL23:
 460              		.loc 1 304 0
 461 0012 40F20003 		movw	r3, #:lower16:rlist
 462 0016 C0F20003 		movt	r3, #:upper16:rlist
 463 001a 9B69     		ldr	r3, [r3, #24]
 464 001c 0220     		movs	r0, #2
 465 001e A360     		str	r3, [r4, #8]
 466 0020 FFF7FEFF 		bl	chSchGoSleepS
 467              	.LVL24:
 468              	.LBB22:
 469              		.loc 1 305 0
 470 0024 0023     		movs	r3, #0
 471              	@ 305 "../ChibiOS_2.6.4/os/hal/src/spi.c" 1
 472 0026 83F31188 		msr     BASEPRI, r3
 473              	@ 0 "" 2
 474              		.thumb
 475 002a 10BD     		pop	{r4, pc}
 476              	.LBE22:
 477              		.cfi_endproc
 478              	.LFE73:
 479              		.size	spiIgnore, .-spiIgnore
 480              		.section	.text.spiExchange,"ax",%progbits
 481              		.align	2
 482              		.global	spiExchange
 483              		.thumb
 484              		.thumb_func
 485              		.type	spiExchange, %function
 486              	spiExchange:
 487              	.LFB74:
 488              		.loc 1 327 0
 489              		.cfi_startproc
 490              		@ args = 0, pretend = 0, frame = 0
 491              		@ frame_needed = 0, uses_anonymous_args = 0
 492              	.LVL25:
 493 0000 38B5     		push	{r3, r4, r5, lr}
 494              		.cfi_def_cfa_offset 16
 495              		.cfi_offset 3, -16
 496              		.cfi_offset 4, -12
 497              		.cfi_offset 5, -8
 498              		.cfi_offset 14, -4
 499              		.loc 1 327 0
 500 0002 1D46     		mov	r5, r3
 501 0004 0446     		mov	r4, r0
 502              	.LBB23:
 503              		.loc 1 332 0
 504 0006 2023     		movs	r3, #32
 505              	.LVL26:
 506              	@ 332 "../ChibiOS_2.6.4/os/hal/src/spi.c" 1
 507 0008 83F31188 		msr     BASEPRI, r3
 508              	@ 0 "" 2
 509              		.thumb
 510              	.LBE23:
 511              		.loc 1 336 0
 512 000c 0320     		movs	r0, #3
 513              	.LVL27:
ARM GAS  /tmp/cct2aUJ9.s 			page 10


 514 000e 2B46     		mov	r3, r5
 515 0010 2070     		strb	r0, [r4]
 516 0012 2046     		mov	r0, r4
 517 0014 FFF7FEFF 		bl	spi_lld_exchange
 518              	.LVL28:
 519              		.loc 1 337 0
 520 0018 40F20003 		movw	r3, #:lower16:rlist
 521 001c C0F20003 		movt	r3, #:upper16:rlist
 522 0020 9B69     		ldr	r3, [r3, #24]
 523 0022 0220     		movs	r0, #2
 524 0024 A360     		str	r3, [r4, #8]
 525 0026 FFF7FEFF 		bl	chSchGoSleepS
 526              	.LVL29:
 527              	.LBB24:
 528              		.loc 1 338 0
 529 002a 0023     		movs	r3, #0
 530              	@ 338 "../ChibiOS_2.6.4/os/hal/src/spi.c" 1
 531 002c 83F31188 		msr     BASEPRI, r3
 532              	@ 0 "" 2
 533              		.thumb
 534 0030 38BD     		pop	{r3, r4, r5, pc}
 535              	.LBE24:
 536              		.cfi_endproc
 537              	.LFE74:
 538              		.size	spiExchange, .-spiExchange
 539 0032 00BF     		.section	.text.spiSend,"ax",%progbits
 540              		.align	2
 541              		.global	spiSend
 542              		.thumb
 543              		.thumb_func
 544              		.type	spiSend, %function
 545              	spiSend:
 546              	.LFB75:
 547              		.loc 1 357 0
 548              		.cfi_startproc
 549              		@ args = 0, pretend = 0, frame = 0
 550              		@ frame_needed = 0, uses_anonymous_args = 0
 551              	.LVL30:
 552 0000 10B5     		push	{r4, lr}
 553              		.cfi_def_cfa_offset 8
 554              		.cfi_offset 4, -8
 555              		.cfi_offset 14, -4
 556              	.LBB25:
 557              		.loc 1 361 0
 558 0002 2023     		movs	r3, #32
 559              	.LBE25:
 560              		.loc 1 357 0
 561 0004 0446     		mov	r4, r0
 562              	.LBB26:
 563              		.loc 1 361 0
 564              	@ 361 "../ChibiOS_2.6.4/os/hal/src/spi.c" 1
 565 0006 83F31188 		msr     BASEPRI, r3
 566              	@ 0 "" 2
 567              		.thumb
 568              	.LBE26:
 569              		.loc 1 364 0
 570 000a 0323     		movs	r3, #3
ARM GAS  /tmp/cct2aUJ9.s 			page 11


 571 000c 0370     		strb	r3, [r0]
 572 000e FFF7FEFF 		bl	spi_lld_send
 573              	.LVL31:
 574              		.loc 1 365 0
 575 0012 40F20003 		movw	r3, #:lower16:rlist
 576 0016 C0F20003 		movt	r3, #:upper16:rlist
 577 001a 9B69     		ldr	r3, [r3, #24]
 578 001c 0220     		movs	r0, #2
 579 001e A360     		str	r3, [r4, #8]
 580 0020 FFF7FEFF 		bl	chSchGoSleepS
 581              	.LVL32:
 582              	.LBB27:
 583              		.loc 1 366 0
 584 0024 0023     		movs	r3, #0
 585              	@ 366 "../ChibiOS_2.6.4/os/hal/src/spi.c" 1
 586 0026 83F31188 		msr     BASEPRI, r3
 587              	@ 0 "" 2
 588              		.thumb
 589 002a 10BD     		pop	{r4, pc}
 590              	.LBE27:
 591              		.cfi_endproc
 592              	.LFE75:
 593              		.size	spiSend, .-spiSend
 594              		.section	.text.spiReceive,"ax",%progbits
 595              		.align	2
 596              		.global	spiReceive
 597              		.thumb
 598              		.thumb_func
 599              		.type	spiReceive, %function
 600              	spiReceive:
 601              	.LFB76:
 602              		.loc 1 385 0
 603              		.cfi_startproc
 604              		@ args = 0, pretend = 0, frame = 0
 605              		@ frame_needed = 0, uses_anonymous_args = 0
 606              	.LVL33:
 607 0000 10B5     		push	{r4, lr}
 608              		.cfi_def_cfa_offset 8
 609              		.cfi_offset 4, -8
 610              		.cfi_offset 14, -4
 611              	.LBB28:
 612              		.loc 1 390 0
 613 0002 2023     		movs	r3, #32
 614              	.LBE28:
 615              		.loc 1 385 0
 616 0004 0446     		mov	r4, r0
 617              	.LBB29:
 618              		.loc 1 390 0
 619              	@ 390 "../ChibiOS_2.6.4/os/hal/src/spi.c" 1
 620 0006 83F31188 		msr     BASEPRI, r3
 621              	@ 0 "" 2
 622              		.thumb
 623              	.LBE29:
 624              		.loc 1 394 0
 625 000a 0323     		movs	r3, #3
 626 000c 0370     		strb	r3, [r0]
 627 000e FFF7FEFF 		bl	spi_lld_receive
ARM GAS  /tmp/cct2aUJ9.s 			page 12


 628              	.LVL34:
 629              		.loc 1 395 0
 630 0012 40F20003 		movw	r3, #:lower16:rlist
 631 0016 C0F20003 		movt	r3, #:upper16:rlist
 632 001a 9B69     		ldr	r3, [r3, #24]
 633 001c 0220     		movs	r0, #2
 634 001e A360     		str	r3, [r4, #8]
 635 0020 FFF7FEFF 		bl	chSchGoSleepS
 636              	.LVL35:
 637              	.LBB30:
 638              		.loc 1 396 0
 639 0024 0023     		movs	r3, #0
 640              	@ 396 "../ChibiOS_2.6.4/os/hal/src/spi.c" 1
 641 0026 83F31188 		msr     BASEPRI, r3
 642              	@ 0 "" 2
 643              		.thumb
 644 002a 10BD     		pop	{r4, pc}
 645              	.LBE30:
 646              		.cfi_endproc
 647              	.LFE76:
 648              		.size	spiReceive, .-spiReceive
 649              		.section	.text.spiAcquireBus,"ax",%progbits
 650              		.align	2
 651              		.global	spiAcquireBus
 652              		.thumb
 653              		.thumb_func
 654              		.type	spiAcquireBus, %function
 655              	spiAcquireBus:
 656              	.LFB77:
 657              		.loc 1 412 0
 658              		.cfi_startproc
 659              		@ args = 0, pretend = 0, frame = 0
 660              		@ frame_needed = 0, uses_anonymous_args = 0
 661              		@ link register save eliminated.
 662              	.LVL36:
 663              		.loc 1 417 0
 664 0000 0C30     		adds	r0, r0, #12
 665              	.LVL37:
 666 0002 FFF7FEBF 		b	chMtxLock
 667              	.LVL38:
 668              		.cfi_endproc
 669              	.LFE77:
 670              		.size	spiAcquireBus, .-spiAcquireBus
 671 0006 00BF     		.section	.text.spiReleaseBus,"ax",%progbits
 672              		.align	2
 673              		.global	spiReleaseBus
 674              		.thumb
 675              		.thumb_func
 676              		.type	spiReleaseBus, %function
 677              	spiReleaseBus:
 678              	.LFB78:
 679              		.loc 1 432 0
 680              		.cfi_startproc
 681              		@ args = 0, pretend = 0, frame = 0
 682              		@ frame_needed = 0, uses_anonymous_args = 0
 683              		@ link register save eliminated.
 684              	.LVL39:
ARM GAS  /tmp/cct2aUJ9.s 			page 13


 685              		.loc 1 438 0
 686 0000 FFF7FEBF 		b	chMtxUnlock
 687              	.LVL40:
 688              		.cfi_endproc
 689              	.LFE78:
 690              		.size	spiReleaseBus, .-spiReleaseBus
 691              		.text
 692              	.Letext0:
 693              		.file 2 "/usr/lib/gcc/arm-none-eabi/4.8.2/include/stddef.h"
 694              		.file 3 "/usr/include/newlib/machine/_default_types.h"
 695              		.file 4 "/usr/include/newlib/stdint.h"
 696              		.file 5 "../ChibiOS_2.6.4/os/ports/GCC/ARMCMx/chtypes.h"
 697              		.file 6 "../ChibiOS_2.6.4/os/kernel/include/chlists.h"
 698              		.file 7 "../ChibiOS_2.6.4/os/kernel/include/chthreads.h"
 699              		.file 8 "../ChibiOS_2.6.4/os/ports/GCC/ARMCMx/chcore_v7m.h"
 700              		.file 9 "../ChibiOS_2.6.4/os/kernel/include/chschd.h"
 701              		.file 10 "../ChibiOS_2.6.4/os/kernel/include/chmtx.h"
 702              		.file 11 "../ChibiOS_2.6.4/os/hal/platforms/STM32L1xx/stm32l1xx.h"
 703              		.file 12 "../ChibiOS_2.6.4/os/hal/platforms/STM32L1xx/stm32_dma.h"
 704              		.file 13 "../ChibiOS_2.6.4/os/hal/platforms/STM32/GPIOv2/pal_lld.h"
 705              		.file 14 "../ChibiOS_2.6.4/os/hal/include/spi.h"
 706              		.file 15 "../ChibiOS_2.6.4/os/hal/platforms/STM32/SPIv1/spi_lld.h"
 707              		.file 16 "../ChibiOS_2.6.4/os/ports/common/ARMCMx/CMSIS/include/core_cm3.h"