ARM GAS  /tmp/ccV8i5Fk.s 			page 1


   1              		.syntax unified
   2              		.cpu cortex-m3
   3              		.fpu softvfp
   4              		.eabi_attribute 20, 1
   5              		.eabi_attribute 21, 1
   6              		.eabi_attribute 23, 3
   7              		.eabi_attribute 24, 1
   8              		.eabi_attribute 25, 1
   9              		.eabi_attribute 26, 1
  10              		.eabi_attribute 30, 2
  11              		.eabi_attribute 34, 1
  12              		.eabi_attribute 18, 4
  13              		.thumb
  14              		.file	"spi_lld.c"
  15              		.text
  16              	.Ltext0:
  17              		.cfi_sections	.debug_frame
  18              		.section	.text.spi_lld_serve_tx_interrupt,"ax",%progbits
  19              		.align	2
  20              		.thumb
  21              		.thumb_func
  22              		.type	spi_lld_serve_tx_interrupt, %function
  23              	spi_lld_serve_tx_interrupt:
  24              	.LFB64:
  25              		.file 1 "../ChibiOS_2.6.4/os/hal/platforms/STM32/SPIv1/spi_lld.c"
  26              		.loc 1 159 0
  27              		.cfi_startproc
  28              		@ args = 0, pretend = 0, frame = 0
  29              		@ frame_needed = 0, uses_anonymous_args = 0
  30              		@ link register save eliminated.
  31              	.LVL0:
  32              		.loc 1 164 0
  33 0000 0B07     		lsls	r3, r1, #28
  34 0002 00D4     		bmi	.L4
  35 0004 7047     		bx	lr
  36              	.L4:
  37              		.loc 1 165 0
  38 0006 FFF7FEBF 		b	port_halt
  39              	.LVL1:
  40              		.cfi_endproc
  41              	.LFE64:
  42              		.size	spi_lld_serve_tx_interrupt, .-spi_lld_serve_tx_interrupt
  43 000a 00BF     		.section	.text.spi_lld_serve_rx_interrupt,"ax",%progbits
  44              		.align	2
  45              		.thumb
  46              		.thumb_func
  47              		.type	spi_lld_serve_rx_interrupt, %function
  48              	spi_lld_serve_rx_interrupt:
  49              	.LFB63:
  50              		.loc 1 133 0
  51              		.cfi_startproc
  52              		@ args = 0, pretend = 0, frame = 0
  53              		@ frame_needed = 0, uses_anonymous_args = 0
  54              	.LVL2:
  55              		.loc 1 137 0
  56 0000 0A07     		lsls	r2, r1, #28
  57              		.loc 1 133 0
ARM GAS  /tmp/ccV8i5Fk.s 			page 2


  58 0002 70B5     		push	{r4, r5, r6, lr}
  59              		.cfi_def_cfa_offset 16
  60              		.cfi_offset 4, -16
  61              		.cfi_offset 5, -12
  62              		.cfi_offset 6, -8
  63              		.cfi_offset 14, -4
  64              		.loc 1 133 0
  65 0004 0446     		mov	r4, r0
  66              		.loc 1 137 0
  67 0006 31D4     		bmi	.L16
  68              	.LVL3:
  69              	.L6:
  70              		.loc 1 145 0
  71 0008 626A     		ldr	r2, [r4, #36]
  72              		.loc 1 146 0
  73 000a 236A     		ldr	r3, [r4, #32]
  74              		.loc 1 145 0
  75 000c 1068     		ldr	r0, [r2]
  76 000e 5568     		ldr	r5, [r2, #4]
  77 0010 0668     		ldr	r6, [r0]
  78 0012 0F21     		movs	r1, #15
  79 0014 26F00F06 		bic	r6, r6, #15
  80 0018 0660     		str	r6, [r0]
  81 001a 107A     		ldrb	r0, [r2, #8]	@ zero_extendqisi2
  82              		.loc 1 146 0
  83 001c 1A68     		ldr	r2, [r3]
  84              		.loc 1 145 0
  85 001e 01FA00F0 		lsl	r0, r1, r0
  86 0022 2860     		str	r0, [r5]
  87              		.loc 1 146 0
  88 0024 1568     		ldr	r5, [r2]
  89              		.loc 1 150 0
  90 0026 6068     		ldr	r0, [r4, #4]
  91              		.loc 1 146 0
  92 0028 25F00F05 		bic	r5, r5, #15
  93 002c 1560     		str	r5, [r2]
  94 002e 1D7A     		ldrb	r5, [r3, #8]	@ zero_extendqisi2
  95 0030 5A68     		ldr	r2, [r3, #4]
  96 0032 A940     		lsls	r1, r1, r5
  97              		.loc 1 150 0
  98 0034 0368     		ldr	r3, [r0]
  99              		.loc 1 146 0
 100 0036 1160     		str	r1, [r2]
 101              		.loc 1 150 0
 102 0038 ABB1     		cbz	r3, .L7
 103              		.loc 1 150 0 is_stmt 0 discriminator 1
 104 003a 0422     		movs	r2, #4
 105 003c 2270     		strb	r2, [r4]
 106 003e 2046     		mov	r0, r4
 107 0040 9847     		blx	r3
 108              	.LVL4:
 109 0042 2378     		ldrb	r3, [r4]	@ zero_extendqisi2
 110 0044 042B     		cmp	r3, #4
 111 0046 0ED0     		beq	.L7
 112              	.L8:
 113              	.LBB2:
 114 0048 2023     		movs	r3, #32
ARM GAS  /tmp/ccV8i5Fk.s 			page 3


 115              	@ 150 "../ChibiOS_2.6.4/os/hal/platforms/STM32/SPIv1/spi_lld.c" 1
 116 004a 83F31188 		msr     BASEPRI, r3
 117              	@ 0 "" 2
 118              		.thumb
 119              	.LBE2:
 120 004e A368     		ldr	r3, [r4, #8]
 121 0050 2BB1     		cbz	r3, .L9
 122              	.LVL5:
 123              	.LBB3:
 124 0052 0022     		movs	r2, #0
 125 0054 A260     		str	r2, [r4, #8]
 126 0056 1846     		mov	r0, r3
 127 0058 5A62     		str	r2, [r3, #36]
 128 005a FFF7FEFF 		bl	chSchReadyI
 129              	.LVL6:
 130              	.L9:
 131              	.LBE3:
 132              	.LBB4:
 133              		.loc 1 150 0 discriminator 2
 134 005e 0023     		movs	r3, #0
 135              	@ 150 "../ChibiOS_2.6.4/os/hal/platforms/STM32/SPIv1/spi_lld.c" 1
 136 0060 83F31188 		msr     BASEPRI, r3
 137              	@ 0 "" 2
 138              		.thumb
 139 0064 70BD     		pop	{r4, r5, r6, pc}
 140              	.LVL7:
 141              	.L7:
 142              	.LBE4:
 143 0066 0223     		movs	r3, #2
 144 0068 2370     		strb	r3, [r4]
 145 006a EDE7     		b	.L8
 146              	.LVL8:
 147              	.L16:
 148              		.loc 1 138 0 is_stmt 1
 149 006c FFF7FEFF 		bl	port_halt
 150              	.LVL9:
 151 0070 CAE7     		b	.L6
 152              		.cfi_endproc
 153              	.LFE63:
 154              		.size	spi_lld_serve_rx_interrupt, .-spi_lld_serve_rx_interrupt
 155 0072 00BF     		.section	.text.spi_lld_init,"ax",%progbits
 156              		.align	2
 157              		.global	spi_lld_init
 158              		.thumb
 159              		.thumb_func
 160              		.type	spi_lld_init, %function
 161              	spi_lld_init:
 162              	.LFB65:
 163              		.loc 1 186 0
 164              		.cfi_startproc
 165              		@ args = 0, pretend = 0, frame = 0
 166              		@ frame_needed = 0, uses_anonymous_args = 0
 167 0000 38B5     		push	{r3, r4, r5, lr}
 168              		.cfi_def_cfa_offset 16
 169              		.cfi_offset 3, -16
 170              		.cfi_offset 4, -12
 171              		.cfi_offset 5, -8
ARM GAS  /tmp/ccV8i5Fk.s 			page 4


 172              		.cfi_offset 14, -4
 173              		.loc 1 209 0
 174 0002 40F20004 		movw	r4, #:lower16:.LANCHOR1
 175 0006 C0F20004 		movt	r4, #:upper16:.LANCHOR1
 176              		.loc 1 188 0
 177 000a 40F20003 		movw	r3, #:lower16:.LANCHOR0
 178 000e C0F20003 		movt	r3, #:upper16:.LANCHOR0
 179 0012 4FF6FF72 		movw	r2, #65535
 180              		.loc 1 209 0
 181 0016 2046     		mov	r0, r4
 182              		.loc 1 188 0
 183 0018 1A80     		strh	r2, [r3]	@ movhi
 184              		.loc 1 209 0
 185 001a FFF7FEFF 		bl	spiObjectInit
 186              	.LVL10:
 187              		.loc 1 211 0
 188 001e 084B     		ldr	r3, .L18
 189              		.loc 1 210 0
 190 0020 4FF46052 		mov	r2, #14336
 191 0024 C4F20002 		movt	r2, 16384
 192              		.loc 1 212 0
 193 0028 03F10C05 		add	r5, r3, #12
 194              		.loc 1 213 0
 195 002c 41F20A00 		movw	r0, #4106
 196              		.loc 1 219 0
 197 0030 41F21801 		movw	r1, #4120
 198              		.loc 1 210 0
 199 0034 E261     		str	r2, [r4, #28]
 200              		.loc 1 211 0
 201 0036 2362     		str	r3, [r4, #32]
 202              		.loc 1 212 0
 203 0038 6562     		str	r5, [r4, #36]
 204              		.loc 1 213 0
 205 003a A062     		str	r0, [r4, #40]
 206              		.loc 1 219 0
 207 003c E162     		str	r1, [r4, #44]
 208 003e 38BD     		pop	{r3, r4, r5, pc}
 209              	.L19:
 210              		.align	2
 211              	.L18:
 212 0040 24000000 		.word	_stm32_dma_streams+36
 213              		.cfi_endproc
 214              	.LFE65:
 215              		.size	spi_lld_init, .-spi_lld_init
 216              		.section	.text.spi_lld_start,"ax",%progbits
 217              		.align	2
 218              		.global	spi_lld_start
 219              		.thumb
 220              		.thumb_func
 221              		.type	spi_lld_start, %function
 222              	spi_lld_start:
 223              	.LFB66:
 224              		.loc 1 306 0
 225              		.cfi_startproc
 226              		@ args = 0, pretend = 0, frame = 0
 227              		@ frame_needed = 0, uses_anonymous_args = 0
 228              	.LVL11:
ARM GAS  /tmp/ccV8i5Fk.s 			page 5


 229              		.loc 1 309 0
 230 0000 0378     		ldrb	r3, [r0]	@ zero_extendqisi2
 231              		.loc 1 306 0
 232 0002 10B5     		push	{r4, lr}
 233              		.cfi_def_cfa_offset 8
 234              		.cfi_offset 4, -8
 235              		.cfi_offset 14, -4
 236              		.loc 1 309 0
 237 0004 012B     		cmp	r3, #1
 238              		.loc 1 306 0
 239 0006 0446     		mov	r4, r0
 240              		.loc 1 309 0
 241 0008 1ED0     		beq	.L26
 242 000a C369     		ldr	r3, [r0, #28]
 243              	.LVL12:
 244              	.L21:
 245              		.loc 1 413 0
 246 000c 6268     		ldr	r2, [r4, #4]
 247              		.loc 1 416 0
 248 000e A06A     		ldr	r0, [r4, #40]
 249              		.loc 1 413 0
 250 0010 5289     		ldrh	r2, [r2, #10]
 251              		.loc 1 418 0
 252 0012 E16A     		ldr	r1, [r4, #44]
 253              		.loc 1 416 0
 254 0014 20F47060 		bic	r0, r0, #3840
 255              		.loc 1 418 0
 256 0018 21F47061 		bic	r1, r1, #3840
 257              		.loc 1 413 0
 258 001c 12F4006F 		tst	r2, #2048
 259              		.loc 1 423 0
 260 0020 1CBF     		itt	ne
 261 0022 40F4A060 		orrne	r0, r0, #1280
 262              		.loc 1 425 0
 263 0026 41F4A061 		orrne	r1, r1, #1280
 264              		.loc 1 422 0
 265 002a A062     		str	r0, [r4, #40]
 266              		.loc 1 424 0
 267 002c E162     		str	r1, [r4, #44]
 268              		.loc 1 429 0
 269 002e 42F44172 		orr	r2, r2, #772
 270              		.loc 1 428 0
 271 0032 0020     		movs	r0, #0
 272              		.loc 1 431 0
 273 0034 0721     		movs	r1, #7
 274              		.loc 1 428 0
 275 0036 1880     		strh	r0, [r3]	@ movhi
 276              		.loc 1 429 0
 277 0038 1A80     		strh	r2, [r3]	@ movhi
 278              		.loc 1 431 0
 279 003a 9980     		strh	r1, [r3, #4]	@ movhi
 280              		.loc 1 432 0
 281 003c 1A88     		ldrh	r2, [r3]
 282 003e 92B2     		uxth	r2, r2
 283 0040 42F04002 		orr	r2, r2, #64
 284 0044 1A80     		strh	r2, [r3]	@ movhi
 285 0046 10BD     		pop	{r4, pc}
ARM GAS  /tmp/ccV8i5Fk.s 			page 6


 286              	.LVL13:
 287              	.L26:
 288              		.loc 1 327 0
 289 0048 40F20003 		movw	r3, #:lower16:.LANCHOR1
 290 004c C0F20003 		movt	r3, #:upper16:.LANCHOR1
 291 0050 9842     		cmp	r0, r3
 292 0052 09D0     		beq	.L28
 293              	.LVL14:
 294              	.L22:
 295              		.loc 1 408 0
 296 0054 216A     		ldr	r1, [r4, #32]
 297              		.loc 1 409 0
 298 0056 626A     		ldr	r2, [r4, #36]
 299              		.loc 1 408 0
 300 0058 E369     		ldr	r3, [r4, #28]
 301 005a 0868     		ldr	r0, [r1]
 302              		.loc 1 409 0
 303 005c 1168     		ldr	r1, [r2]
 304              		.loc 1 408 0
 305 005e 03F10C02 		add	r2, r3, #12
 306 0062 8260     		str	r2, [r0, #8]
 307              		.loc 1 409 0
 308 0064 8A60     		str	r2, [r1, #8]
 309 0066 D1E7     		b	.L21
 310              	.LVL15:
 311              	.L28:
 312              	.LBB5:
 313              		.loc 1 329 0
 314 0068 40F20002 		movw	r2, #:lower16:spi_lld_serve_rx_interrupt
 315 006c C0F20002 		movt	r2, #:upper16:spi_lld_serve_rx_interrupt
 316 0070 0A21     		movs	r1, #10
 317 0072 2346     		mov	r3, r4
 318 0074 006A     		ldr	r0, [r0, #32]
 319              	.LVL16:
 320 0076 FFF7FEFF 		bl	dmaStreamAllocate
 321              	.LVL17:
 322              		.loc 1 334 0
 323 007a 40F20002 		movw	r2, #:lower16:spi_lld_serve_tx_interrupt
 324 007e C0F20002 		movt	r2, #:upper16:spi_lld_serve_tx_interrupt
 325 0082 2346     		mov	r3, r4
 326 0084 606A     		ldr	r0, [r4, #36]
 327 0086 0A21     		movs	r1, #10
 328 0088 FFF7FEFF 		bl	dmaStreamAllocate
 329              	.LVL18:
 330              		.loc 1 339 0
 331 008c 4FF46053 		mov	r3, #14336
 332 0090 C4F20203 		movt	r3, 16386
 333 0094 5A6A     		ldr	r2, [r3, #36]
 334 0096 42F48042 		orr	r2, r2, #16384
 335 009a 5A62     		str	r2, [r3, #36]
 336 009c DAE7     		b	.L22
 337              	.LBE5:
 338              		.cfi_endproc
 339              	.LFE66:
 340              		.size	spi_lld_start, .-spi_lld_start
 341 009e 00BF     		.section	.text.spi_lld_stop,"ax",%progbits
 342              		.align	2
ARM GAS  /tmp/ccV8i5Fk.s 			page 7


 343              		.global	spi_lld_stop
 344              		.thumb
 345              		.thumb_func
 346              		.type	spi_lld_stop, %function
 347              	spi_lld_stop:
 348              	.LFB67:
 349              		.loc 1 442 0
 350              		.cfi_startproc
 351              		@ args = 0, pretend = 0, frame = 0
 352              		@ frame_needed = 0, uses_anonymous_args = 0
 353              	.LVL19:
 354              		.loc 1 445 0
 355 0000 0378     		ldrb	r3, [r0]	@ zero_extendqisi2
 356              		.loc 1 442 0
 357 0002 10B5     		push	{r4, lr}
 358              		.cfi_def_cfa_offset 8
 359              		.cfi_offset 4, -8
 360              		.cfi_offset 14, -4
 361              		.loc 1 445 0
 362 0004 022B     		cmp	r3, #2
 363              		.loc 1 442 0
 364 0006 0446     		mov	r4, r0
 365              		.loc 1 445 0
 366 0008 00D0     		beq	.L33
 367 000a 10BD     		pop	{r4, pc}
 368              	.L33:
 369              		.loc 1 448 0
 370 000c C369     		ldr	r3, [r0, #28]
 371 000e 0022     		movs	r2, #0
 372 0010 1A80     		strh	r2, [r3]	@ movhi
 373              		.loc 1 450 0
 374 0012 006A     		ldr	r0, [r0, #32]
 375              	.LVL20:
 376              		.loc 1 449 0
 377 0014 9A80     		strh	r2, [r3, #4]	@ movhi
 378              		.loc 1 450 0
 379 0016 FFF7FEFF 		bl	dmaStreamRelease
 380              	.LVL21:
 381              		.loc 1 451 0
 382 001a 606A     		ldr	r0, [r4, #36]
 383 001c FFF7FEFF 		bl	dmaStreamRelease
 384              	.LVL22:
 385              		.loc 1 458 0
 386 0020 40F20003 		movw	r3, #:lower16:.LANCHOR1
 387 0024 C0F20003 		movt	r3, #:upper16:.LANCHOR1
 388 0028 9C42     		cmp	r4, r3
 389              		.loc 1 459 0
 390 002a 01BF     		itttt	eq
 391 002c 4FF46053 		moveq	r3, #14336
 392 0030 C4F20203 		movteq	r3, 16386
 393 0034 5A6A     		ldreq	r2, [r3, #36]
 394 0036 22F48042 		biceq	r2, r2, #16384
 395 003a 08BF     		it	eq
 396 003c 5A62     		streq	r2, [r3, #36]
 397 003e 10BD     		pop	{r4, pc}
 398              		.cfi_endproc
 399              	.LFE67:
ARM GAS  /tmp/ccV8i5Fk.s 			page 8


 400              		.size	spi_lld_stop, .-spi_lld_stop
 401              		.section	.text.spi_lld_select,"ax",%progbits
 402              		.align	2
 403              		.global	spi_lld_select
 404              		.thumb
 405              		.thumb_func
 406              		.type	spi_lld_select, %function
 407              	spi_lld_select:
 408              	.LFB68:
 409              		.loc 1 487 0
 410              		.cfi_startproc
 411              		@ args = 0, pretend = 0, frame = 0
 412              		@ frame_needed = 0, uses_anonymous_args = 0
 413              		@ link register save eliminated.
 414              	.LVL23:
 415              		.loc 1 489 0
 416 0000 4368     		ldr	r3, [r0, #4]
 417 0002 0121     		movs	r1, #1
 418 0004 1A89     		ldrh	r2, [r3, #8]
 419 0006 5B68     		ldr	r3, [r3, #4]
 420 0008 01FA02F2 		lsl	r2, r1, r2
 421 000c 92B2     		uxth	r2, r2
 422 000e 5A83     		strh	r2, [r3, #26]	@ movhi
 423 0010 7047     		bx	lr
 424              		.cfi_endproc
 425              	.LFE68:
 426              		.size	spi_lld_select, .-spi_lld_select
 427 0012 00BF     		.section	.text.spi_lld_unselect,"ax",%progbits
 428              		.align	2
 429              		.global	spi_lld_unselect
 430              		.thumb
 431              		.thumb_func
 432              		.type	spi_lld_unselect, %function
 433              	spi_lld_unselect:
 434              	.LFB69:
 435              		.loc 1 500 0
 436              		.cfi_startproc
 437              		@ args = 0, pretend = 0, frame = 0
 438              		@ frame_needed = 0, uses_anonymous_args = 0
 439              		@ link register save eliminated.
 440              	.LVL24:
 441              		.loc 1 502 0
 442 0000 4368     		ldr	r3, [r0, #4]
 443 0002 0121     		movs	r1, #1
 444 0004 1A89     		ldrh	r2, [r3, #8]
 445 0006 5B68     		ldr	r3, [r3, #4]
 446 0008 01FA02F2 		lsl	r2, r1, r2
 447 000c 92B2     		uxth	r2, r2
 448 000e 1A83     		strh	r2, [r3, #24]	@ movhi
 449 0010 7047     		bx	lr
 450              		.cfi_endproc
 451              	.LFE69:
 452              		.size	spi_lld_unselect, .-spi_lld_unselect
 453 0012 00BF     		.section	.text.spi_lld_ignore,"ax",%progbits
 454              		.align	2
 455              		.global	spi_lld_ignore
 456              		.thumb
ARM GAS  /tmp/ccV8i5Fk.s 			page 9


 457              		.thumb_func
 458              		.type	spi_lld_ignore, %function
 459              	spi_lld_ignore:
 460              	.LFB70:
 461              		.loc 1 516 0
 462              		.cfi_startproc
 463              		@ args = 0, pretend = 0, frame = 0
 464              		@ frame_needed = 0, uses_anonymous_args = 0
 465              		@ link register save eliminated.
 466              	.LVL25:
 467              		.loc 1 518 0
 468 0000 026A     		ldr	r2, [r0, #32]
 469              		.loc 1 522 0
 470 0002 436A     		ldr	r3, [r0, #36]
 471              		.loc 1 516 0
 472 0004 70B4     		push	{r4, r5, r6}
 473              		.cfi_def_cfa_offset 12
 474              		.cfi_offset 4, -12
 475              		.cfi_offset 5, -8
 476              		.cfi_offset 6, -4
 477              		.loc 1 518 0
 478 0006 1268     		ldr	r2, [r2]
 479              		.loc 1 520 0
 480 0008 866A     		ldr	r6, [r0, #40]
 481              		.loc 1 524 0
 482 000a C56A     		ldr	r5, [r0, #44]
 483              		.loc 1 522 0
 484 000c 1B68     		ldr	r3, [r3]
 485              		.loc 1 518 0
 486 000e 40F20004 		movw	r4, #:lower16:.LANCHOR2
 487              		.loc 1 522 0
 488 0012 40F20000 		movw	r0, #:lower16:.LANCHOR0
 489              	.LVL26:
 490              		.loc 1 518 0
 491 0016 C0F20004 		movt	r4, #:upper16:.LANCHOR2
 492              		.loc 1 522 0
 493 001a C0F20000 		movt	r0, #:upper16:.LANCHOR0
 494              		.loc 1 518 0
 495 001e D460     		str	r4, [r2, #12]
 496              		.loc 1 519 0
 497 0020 5160     		str	r1, [r2, #4]
 498              		.loc 1 520 0
 499 0022 1660     		str	r6, [r2]
 500              		.loc 1 522 0
 501 0024 D860     		str	r0, [r3, #12]
 502              		.loc 1 523 0
 503 0026 5960     		str	r1, [r3, #4]
 504              		.loc 1 524 0
 505 0028 1D60     		str	r5, [r3]
 506              		.loc 1 526 0
 507 002a 1168     		ldr	r1, [r2]
 508              	.LVL27:
 509              		.loc 1 528 0
 510 002c 70BC     		pop	{r4, r5, r6}
 511              		.loc 1 526 0
 512 002e 41F00101 		orr	r1, r1, #1
 513 0032 1160     		str	r1, [r2]
ARM GAS  /tmp/ccV8i5Fk.s 			page 10


 514              		.loc 1 527 0
 515 0034 1A68     		ldr	r2, [r3]
 516 0036 42F00102 		orr	r2, r2, #1
 517 003a 1A60     		str	r2, [r3]
 518              		.loc 1 528 0
 519 003c 7047     		bx	lr
 520              		.cfi_endproc
 521              	.LFE70:
 522              		.size	spi_lld_ignore, .-spi_lld_ignore
 523 003e 00BF     		.section	.text.spi_lld_exchange,"ax",%progbits
 524              		.align	2
 525              		.global	spi_lld_exchange
 526              		.thumb
 527              		.thumb_func
 528              		.type	spi_lld_exchange, %function
 529              	spi_lld_exchange:
 530              	.LFB71:
 531              		.loc 1 546 0
 532              		.cfi_startproc
 533              		@ args = 0, pretend = 0, frame = 0
 534              		@ frame_needed = 0, uses_anonymous_args = 0
 535              		@ link register save eliminated.
 536              	.LVL28:
 537 0000 F0B4     		push	{r4, r5, r6, r7}
 538              		.cfi_def_cfa_offset 16
 539              		.cfi_offset 4, -16
 540              		.cfi_offset 5, -12
 541              		.cfi_offset 6, -8
 542              		.cfi_offset 7, -4
 543              		.loc 1 548 0
 544 0002 046A     		ldr	r4, [r0, #32]
 545              		.loc 1 552 0
 546 0004 476A     		ldr	r7, [r0, #36]
 547              		.loc 1 550 0
 548 0006 866A     		ldr	r6, [r0, #40]
 549              		.loc 1 554 0
 550 0008 C56A     		ldr	r5, [r0, #44]
 551              		.loc 1 548 0
 552 000a 2468     		ldr	r4, [r4]
 553              		.loc 1 552 0
 554 000c 3868     		ldr	r0, [r7]
 555              	.LVL29:
 556              		.loc 1 550 0
 557 000e 46F08006 		orr	r6, r6, #128
 558              		.loc 1 554 0
 559 0012 45F08005 		orr	r5, r5, #128
 560              		.loc 1 548 0
 561 0016 E360     		str	r3, [r4, #12]
 562              		.loc 1 549 0
 563 0018 6160     		str	r1, [r4, #4]
 564              		.loc 1 550 0
 565 001a 2660     		str	r6, [r4]
 566              		.loc 1 552 0
 567 001c C260     		str	r2, [r0, #12]
 568              		.loc 1 553 0
 569 001e 4160     		str	r1, [r0, #4]
 570              		.loc 1 554 0
ARM GAS  /tmp/ccV8i5Fk.s 			page 11


 571 0020 0560     		str	r5, [r0]
 572              		.loc 1 556 0
 573 0022 2368     		ldr	r3, [r4]
 574              	.LVL30:
 575 0024 43F00103 		orr	r3, r3, #1
 576 0028 2360     		str	r3, [r4]
 577              		.loc 1 557 0
 578 002a 0368     		ldr	r3, [r0]
 579              		.loc 1 558 0
 580 002c F0BC     		pop	{r4, r5, r6, r7}
 581              		.loc 1 557 0
 582 002e 43F00103 		orr	r3, r3, #1
 583 0032 0360     		str	r3, [r0]
 584              		.loc 1 558 0
 585 0034 7047     		bx	lr
 586              		.cfi_endproc
 587              	.LFE71:
 588              		.size	spi_lld_exchange, .-spi_lld_exchange
 589 0036 00BF     		.section	.text.spi_lld_send,"ax",%progbits
 590              		.align	2
 591              		.global	spi_lld_send
 592              		.thumb
 593              		.thumb_func
 594              		.type	spi_lld_send, %function
 595              	spi_lld_send:
 596              	.LFB72:
 597              		.loc 1 573 0
 598              		.cfi_startproc
 599              		@ args = 0, pretend = 0, frame = 0
 600              		@ frame_needed = 0, uses_anonymous_args = 0
 601              		@ link register save eliminated.
 602              	.LVL31:
 603 0000 F0B4     		push	{r4, r5, r6, r7}
 604              		.cfi_def_cfa_offset 16
 605              		.cfi_offset 4, -16
 606              		.cfi_offset 5, -12
 607              		.cfi_offset 6, -8
 608              		.cfi_offset 7, -4
 609              		.loc 1 575 0
 610 0002 036A     		ldr	r3, [r0, #32]
 611              		.loc 1 579 0
 612 0004 476A     		ldr	r7, [r0, #36]
 613              		.loc 1 581 0
 614 0006 C66A     		ldr	r6, [r0, #44]
 615              		.loc 1 575 0
 616 0008 1C68     		ldr	r4, [r3]
 617              		.loc 1 577 0
 618 000a 806A     		ldr	r0, [r0, #40]
 619              	.LVL32:
 620              		.loc 1 579 0
 621 000c 3B68     		ldr	r3, [r7]
 622              		.loc 1 575 0
 623 000e 40F20005 		movw	r5, #:lower16:.LANCHOR2
 624 0012 C0F20005 		movt	r5, #:upper16:.LANCHOR2
 625              		.loc 1 581 0
 626 0016 46F08006 		orr	r6, r6, #128
 627              		.loc 1 575 0
ARM GAS  /tmp/ccV8i5Fk.s 			page 12


 628 001a E560     		str	r5, [r4, #12]
 629              		.loc 1 576 0
 630 001c 6160     		str	r1, [r4, #4]
 631              		.loc 1 577 0
 632 001e 2060     		str	r0, [r4]
 633              		.loc 1 579 0
 634 0020 DA60     		str	r2, [r3, #12]
 635              		.loc 1 580 0
 636 0022 5960     		str	r1, [r3, #4]
 637              		.loc 1 581 0
 638 0024 1E60     		str	r6, [r3]
 639              		.loc 1 583 0
 640 0026 2268     		ldr	r2, [r4]
 641              	.LVL33:
 642 0028 42F00102 		orr	r2, r2, #1
 643 002c 2260     		str	r2, [r4]
 644              		.loc 1 584 0
 645 002e 1A68     		ldr	r2, [r3]
 646              		.loc 1 585 0
 647 0030 F0BC     		pop	{r4, r5, r6, r7}
 648              		.loc 1 584 0
 649 0032 42F00102 		orr	r2, r2, #1
 650 0036 1A60     		str	r2, [r3]
 651              		.loc 1 585 0
 652 0038 7047     		bx	lr
 653              		.cfi_endproc
 654              	.LFE72:
 655              		.size	spi_lld_send, .-spi_lld_send
 656 003a 00BF     		.section	.text.spi_lld_receive,"ax",%progbits
 657              		.align	2
 658              		.global	spi_lld_receive
 659              		.thumb
 660              		.thumb_func
 661              		.type	spi_lld_receive, %function
 662              	spi_lld_receive:
 663              	.LFB73:
 664              		.loc 1 600 0
 665              		.cfi_startproc
 666              		@ args = 0, pretend = 0, frame = 0
 667              		@ frame_needed = 0, uses_anonymous_args = 0
 668              		@ link register save eliminated.
 669              	.LVL34:
 670 0000 70B4     		push	{r4, r5, r6}
 671              		.cfi_def_cfa_offset 12
 672              		.cfi_offset 4, -12
 673              		.cfi_offset 5, -8
 674              		.cfi_offset 6, -4
 675              		.loc 1 606 0
 676 0002 436A     		ldr	r3, [r0, #36]
 677              		.loc 1 602 0
 678 0004 046A     		ldr	r4, [r0, #32]
 679              		.loc 1 604 0
 680 0006 866A     		ldr	r6, [r0, #40]
 681              		.loc 1 602 0
 682 0008 2468     		ldr	r4, [r4]
 683              		.loc 1 608 0
 684 000a C56A     		ldr	r5, [r0, #44]
ARM GAS  /tmp/ccV8i5Fk.s 			page 13


 685              		.loc 1 606 0
 686 000c 1B68     		ldr	r3, [r3]
 687 000e 40F20000 		movw	r0, #:lower16:.LANCHOR0
 688              	.LVL35:
 689              		.loc 1 604 0
 690 0012 46F08006 		orr	r6, r6, #128
 691              		.loc 1 606 0
 692 0016 C0F20000 		movt	r0, #:upper16:.LANCHOR0
 693              		.loc 1 602 0
 694 001a E260     		str	r2, [r4, #12]
 695              		.loc 1 603 0
 696 001c 6160     		str	r1, [r4, #4]
 697              		.loc 1 604 0
 698 001e 2660     		str	r6, [r4]
 699              		.loc 1 606 0
 700 0020 D860     		str	r0, [r3, #12]
 701              		.loc 1 607 0
 702 0022 5960     		str	r1, [r3, #4]
 703              		.loc 1 608 0
 704 0024 1D60     		str	r5, [r3]
 705              		.loc 1 610 0
 706 0026 2268     		ldr	r2, [r4]
 707              	.LVL36:
 708 0028 42F00102 		orr	r2, r2, #1
 709 002c 2260     		str	r2, [r4]
 710              		.loc 1 611 0
 711 002e 1A68     		ldr	r2, [r3]
 712              		.loc 1 612 0
 713 0030 70BC     		pop	{r4, r5, r6}
 714              		.loc 1 611 0
 715 0032 42F00102 		orr	r2, r2, #1
 716 0036 1A60     		str	r2, [r3]
 717              		.loc 1 612 0
 718 0038 7047     		bx	lr
 719              		.cfi_endproc
 720              	.LFE73:
 721              		.size	spi_lld_receive, .-spi_lld_receive
 722 003a 00BF     		.section	.text.spi_lld_polled_exchange,"ax",%progbits
 723              		.align	2
 724              		.global	spi_lld_polled_exchange
 725              		.thumb
 726              		.thumb_func
 727              		.type	spi_lld_polled_exchange, %function
 728              	spi_lld_polled_exchange:
 729              	.LFB74:
 730              		.loc 1 626 0
 731              		.cfi_startproc
 732              		@ args = 0, pretend = 0, frame = 0
 733              		@ frame_needed = 0, uses_anonymous_args = 0
 734              		@ link register save eliminated.
 735              	.LVL37:
 736              		.loc 1 628 0
 737 0000 C269     		ldr	r2, [r0, #28]
 738 0002 9181     		strh	r1, [r2, #12]	@ movhi
 739              	.L42:
 740              		.loc 1 629 0 discriminator 1
 741 0004 1389     		ldrh	r3, [r2, #8]
ARM GAS  /tmp/ccV8i5Fk.s 			page 14


 742 0006 DB07     		lsls	r3, r3, #31
 743 0008 FCD5     		bpl	.L42
 744              		.loc 1 631 0
 745 000a 9089     		ldrh	r0, [r2, #12]
 746              	.LVL38:
 747              		.loc 1 632 0
 748 000c 80B2     		uxth	r0, r0
 749 000e 7047     		bx	lr
 750              		.cfi_endproc
 751              	.LFE74:
 752              		.size	spi_lld_polled_exchange, .-spi_lld_polled_exchange
 753              		.global	SPID2
 754              		.section	.bss.dummytx,"aw",%nobits
 755              		.align	1
 756              		.set	.LANCHOR0,. + 0
 757              		.type	dummytx, %object
 758              		.size	dummytx, 2
 759              	dummytx:
 760 0000 0000     		.space	2
 761              		.section	.bss.SPID2,"aw",%nobits
 762              		.align	2
 763              		.set	.LANCHOR1,. + 0
 764              		.type	SPID2, %object
 765              		.size	SPID2, 48
 766              	SPID2:
 767 0000 00000000 		.space	48
 767      00000000 
 767      00000000 
 767      00000000 
 767      00000000 
 768              		.section	.bss.dummyrx,"aw",%nobits
 769              		.align	1
 770              		.set	.LANCHOR2,. + 0
 771              		.type	dummyrx, %object
 772              		.size	dummyrx, 2
 773              	dummyrx:
 774 0000 0000     		.space	2
 775              		.text
 776              	.Letext0:
 777              		.file 2 "/usr/lib/gcc/arm-none-eabi/4.8.2/include/stddef.h"
 778              		.file 3 "/usr/include/newlib/machine/_default_types.h"
 779              		.file 4 "/usr/include/newlib/stdint.h"
 780              		.file 5 "../ChibiOS_2.6.4/os/ports/GCC/ARMCMx/chtypes.h"
 781              		.file 6 "../ChibiOS_2.6.4/os/kernel/include/chlists.h"
 782              		.file 7 "../ChibiOS_2.6.4/os/kernel/include/chthreads.h"
 783              		.file 8 "../ChibiOS_2.6.4/os/ports/GCC/ARMCMx/chcore_v7m.h"
 784              		.file 9 "../ChibiOS_2.6.4/os/kernel/include/chmtx.h"
 785              		.file 10 "../ChibiOS_2.6.4/os/hal/platforms/STM32L1xx/stm32l1xx.h"
 786              		.file 11 "../ChibiOS_2.6.4/os/hal/platforms/STM32L1xx/stm32_dma.h"
 787              		.file 12 "../ChibiOS_2.6.4/os/hal/platforms/STM32/GPIOv2/pal_lld.h"
 788              		.file 13 "../ChibiOS_2.6.4/os/hal/include/spi.h"
 789              		.file 14 "../ChibiOS_2.6.4/os/hal/platforms/STM32/SPIv1/spi_lld.h"
 790              		.file 15 "../ChibiOS_2.6.4/os/ports/common/ARMCMx/CMSIS/include/core_cm3.h"
 791              		.file 16 "../ChibiOS_2.6.4/os/kernel/include/chschd.h"