ARM GAS  /tmp/cce3J3ki.s 			page 1


   1              		.syntax unified
   2              		.cpu cortex-m3
   3              		.fpu softvfp
   4              		.eabi_attribute 20, 1
   5              		.eabi_attribute 21, 1
   6              		.eabi_attribute 23, 3
   7              		.eabi_attribute 24, 1
   8              		.eabi_attribute 25, 1
   9              		.eabi_attribute 26, 1
  10              		.eabi_attribute 30, 2
  11              		.eabi_attribute 34, 1
  12              		.eabi_attribute 18, 4
  13              		.thumb
  14              		.file	"testsem.c"
  15              		.text
  16              	.Ltext0:
  17              		.cfi_sections	.debug_frame
  18              		.section	.text.sem1_execute,"ax",%progbits
  19              		.align	2
  20              		.thumb
  21              		.thumb_func
  22              		.type	sem1_execute, %function
  23              	sem1_execute:
  24              	.LFB9:
  25              		.file 1 "../ChibiOS_2.6.4/test/testsem.c"
  26              		.loc 1 84 0
  27              		.cfi_startproc
  28              		@ args = 0, pretend = 0, frame = 8
  29              		@ frame_needed = 0, uses_anonymous_args = 0
  30 0000 2DE9F041 		push	{r4, r5, r6, r7, r8, lr}
  31              		.cfi_def_cfa_offset 24
  32              		.cfi_offset 4, -24
  33              		.cfi_offset 5, -20
  34              		.cfi_offset 6, -16
  35              		.cfi_offset 7, -12
  36              		.cfi_offset 8, -8
  37              		.cfi_offset 14, -4
  38              		.loc 1 86 0
  39 0004 40F20005 		movw	r5, #:lower16:rlist
  40 0008 C0F20005 		movt	r5, #:upper16:rlist
  41 000c AB69     		ldr	r3, [r5, #24]
  42 000e 40F20006 		movw	r6, #:lower16:wa
  43 0012 C0F20006 		movt	r6, #:upper16:wa
  44 0016 9A68     		ldr	r2, [r3, #8]
  45 0018 D6F80080 		ldr	r8, [r6]
  46 001c 40F20007 		movw	r7, #:lower16:.LC0
  47              		.loc 1 84 0
  48 0020 84B0     		sub	sp, sp, #16
  49              		.cfi_def_cfa_offset 40
  50              		.loc 1 86 0
  51 0022 C0F20007 		movt	r7, #:upper16:.LC0
  52 0026 40F20003 		movw	r3, #:lower16:thread1
  53 002a 0532     		adds	r2, r2, #5
  54 002c C0F20003 		movt	r3, #:upper16:thread1
  55 0030 4FF4A871 		mov	r1, #336
  56 0034 4046     		mov	r0, r8
  57 0036 0097     		str	r7, [sp]
ARM GAS  /tmp/cce3J3ki.s 			page 2


  58 0038 FFF7FEFF 		bl	chThdCreateStatic
  59              	.LVL0:
  60              		.loc 1 87 0
  61 003c AB69     		ldr	r3, [r5, #24]
  62              		.loc 1 86 0
  63 003e 40F20004 		movw	r4, #:lower16:threads
  64              		.loc 1 87 0
  65 0042 9A68     		ldr	r2, [r3, #8]
  66 0044 7368     		ldr	r3, [r6, #4]
  67 0046 40F20001 		movw	r1, #:lower16:.LC1
  68              		.loc 1 86 0
  69 004a C0F20004 		movt	r4, #:upper16:threads
  70              		.loc 1 87 0
  71 004e 0393     		str	r3, [sp, #12]
  72 0050 C0F20001 		movt	r1, #:upper16:.LC1
  73 0054 40F20003 		movw	r3, #:lower16:thread1
  74              		.loc 1 86 0
  75 0058 2060     		str	r0, [r4]
  76              		.loc 1 87 0
  77 005a 0132     		adds	r2, r2, #1
  78 005c 0091     		str	r1, [sp]
  79 005e C0F20003 		movt	r3, #:upper16:thread1
  80 0062 4FF4A871 		mov	r1, #336
  81 0066 0398     		ldr	r0, [sp, #12]
  82 0068 FFF7FEFF 		bl	chThdCreateStatic
  83              	.LVL1:
  84              		.loc 1 88 0
  85 006c B268     		ldr	r2, [r6, #8]
  86 006e AB69     		ldr	r3, [r5, #24]
  87 0070 0392     		str	r2, [sp, #12]
  88 0072 40F20001 		movw	r1, #:lower16:.LC2
  89 0076 9A68     		ldr	r2, [r3, #8]
  90 0078 C0F20001 		movt	r1, #:upper16:.LC2
  91 007c 40F20003 		movw	r3, #:lower16:thread1
  92              		.loc 1 87 0
  93 0080 6060     		str	r0, [r4, #4]
  94              		.loc 1 88 0
  95 0082 0332     		adds	r2, r2, #3
  96 0084 0091     		str	r1, [sp]
  97 0086 C0F20003 		movt	r3, #:upper16:thread1
  98 008a 4FF4A871 		mov	r1, #336
  99 008e 0398     		ldr	r0, [sp, #12]
 100 0090 FFF7FEFF 		bl	chThdCreateStatic
 101              	.LVL2:
 102              		.loc 1 89 0
 103 0094 F268     		ldr	r2, [r6, #12]
 104 0096 AB69     		ldr	r3, [r5, #24]
 105 0098 0392     		str	r2, [sp, #12]
 106 009a 40F20001 		movw	r1, #:lower16:.LC3
 107 009e 9A68     		ldr	r2, [r3, #8]
 108 00a0 C0F20001 		movt	r1, #:upper16:.LC3
 109 00a4 40F20003 		movw	r3, #:lower16:thread1
 110              		.loc 1 88 0
 111 00a8 A060     		str	r0, [r4, #8]
 112              		.loc 1 89 0
 113 00aa 0432     		adds	r2, r2, #4
 114 00ac 0091     		str	r1, [sp]
ARM GAS  /tmp/cce3J3ki.s 			page 3


 115 00ae C0F20003 		movt	r3, #:upper16:thread1
 116 00b2 4FF4A871 		mov	r1, #336
 117 00b6 0398     		ldr	r0, [sp, #12]
 118 00b8 FFF7FEFF 		bl	chThdCreateStatic
 119              	.LVL3:
 120              		.loc 1 90 0
 121 00bc AB69     		ldr	r3, [r5, #24]
 122 00be 3669     		ldr	r6, [r6, #16]
 123 00c0 9A68     		ldr	r2, [r3, #8]
 124 00c2 40F20001 		movw	r1, #:lower16:.LC4
 125 00c6 C0F20001 		movt	r1, #:upper16:.LC4
 126 00ca 40F20003 		movw	r3, #:lower16:thread1
 127 00ce 0232     		adds	r2, r2, #2
 128 00d0 C0F20003 		movt	r3, #:upper16:thread1
 129              		.loc 1 89 0
 130 00d4 E060     		str	r0, [r4, #12]
 131              		.loc 1 90 0
 132 00d6 0091     		str	r1, [sp]
 133 00d8 3046     		mov	r0, r6
 134 00da 4FF4A871 		mov	r1, #336
 135 00de FFF7FEFF 		bl	chThdCreateStatic
 136              	.LVL4:
 137 00e2 2061     		str	r0, [r4, #16]
 138              		.loc 1 91 0
 139 00e4 40F20000 		movw	r0, #:lower16:.LANCHOR0
 140 00e8 C0F20000 		movt	r0, #:upper16:.LANCHOR0
 141 00ec FFF7FEFF 		bl	chSemSignal
 142              	.LVL5:
 143              		.loc 1 92 0
 144 00f0 40F20000 		movw	r0, #:lower16:.LANCHOR0
 145 00f4 C0F20000 		movt	r0, #:upper16:.LANCHOR0
 146 00f8 FFF7FEFF 		bl	chSemSignal
 147              	.LVL6:
 148              		.loc 1 93 0
 149 00fc 40F20000 		movw	r0, #:lower16:.LANCHOR0
 150 0100 C0F20000 		movt	r0, #:upper16:.LANCHOR0
 151 0104 FFF7FEFF 		bl	chSemSignal
 152              	.LVL7:
 153              		.loc 1 94 0
 154 0108 40F20000 		movw	r0, #:lower16:.LANCHOR0
 155 010c C0F20000 		movt	r0, #:upper16:.LANCHOR0
 156 0110 FFF7FEFF 		bl	chSemSignal
 157              	.LVL8:
 158              		.loc 1 95 0
 159 0114 40F20000 		movw	r0, #:lower16:.LANCHOR0
 160 0118 C0F20000 		movt	r0, #:upper16:.LANCHOR0
 161 011c FFF7FEFF 		bl	chSemSignal
 162              	.LVL9:
 163              		.loc 1 96 0
 164 0120 FFF7FEFF 		bl	test_wait_threads
 165              	.LVL10:
 166              		.loc 1 100 0
 167 0124 40F20001 		movw	r1, #:lower16:.LC5
 168 0128 C0F20001 		movt	r1, #:upper16:.LC5
 169 012c 0120     		movs	r0, #1
 170 012e FFF7FEFF 		bl	_test_assert_sequence
 171              	.LVL11:
ARM GAS  /tmp/cce3J3ki.s 			page 4


 172 0132 10B1     		cbz	r0, .L4
 173              		.loc 1 109 0
 174 0134 04B0     		add	sp, sp, #16
 175              		@ sp needed
 176 0136 BDE8F081 		pop	{r4, r5, r6, r7, r8, pc}
 177              	.L4:
 178              		.loc 1 102 0
 179 013a AA69     		ldr	r2, [r5, #24]
 180 013c 40F20003 		movw	r3, #:lower16:thread1
 181 0140 9268     		ldr	r2, [r2, #8]
 182 0142 4046     		mov	r0, r8
 183 0144 0532     		adds	r2, r2, #5
 184 0146 0097     		str	r7, [sp]
 185 0148 C0F20003 		movt	r3, #:upper16:thread1
 186 014c 4FF4A871 		mov	r1, #336
 187 0150 FFF7FEFF 		bl	chThdCreateStatic
 188              	.LVL12:
 189              	.LBB2:
 190              		.loc 1 103 0
 191 0154 2023     		movs	r3, #32
 192              	.LBE2:
 193              		.loc 1 102 0
 194 0156 2060     		str	r0, [r4]
 195              	.LBB3:
 196              		.loc 1 103 0
 197              	@ 103 "../ChibiOS_2.6.4/test/testsem.c" 1
 198 0158 83F31188 		msr     BASEPRI, r3
 199              	@ 0 "" 2
 200              		.thumb
 201              	.LBE3:
 202              		.loc 1 104 0
 203 015c 40F20000 		movw	r0, #:lower16:.LANCHOR0
 204 0160 C0F20000 		movt	r0, #:upper16:.LANCHOR0
 205 0164 0221     		movs	r1, #2
 206 0166 FFF7FEFF 		bl	chSemAddCounterI
 207              	.LVL13:
 208              		.loc 1 105 0
 209 016a FFF7FEFF 		bl	chSchRescheduleS
 210              	.LVL14:
 211              	.LBB4:
 212              		.loc 1 106 0
 213 016e 0023     		movs	r3, #0
 214              	@ 106 "../ChibiOS_2.6.4/test/testsem.c" 1
 215 0170 83F31188 		msr     BASEPRI, r3
 216              	@ 0 "" 2
 217              		.thumb
 218              	.LBE4:
 219              		.loc 1 107 0
 220 0174 FFF7FEFF 		bl	test_wait_threads
 221              	.LVL15:
 222              		.loc 1 108 0
 223 0178 40F20003 		movw	r3, #:lower16:.LANCHOR0
 224 017c C0F20003 		movt	r3, #:upper16:.LANCHOR0
 225 0180 9968     		ldr	r1, [r3, #8]
 226 0182 0220     		movs	r0, #2
 227 0184 4B1E     		subs	r3, r1, #1
 228 0186 5942     		rsbs	r1, r3, #0
ARM GAS  /tmp/cce3J3ki.s 			page 5


 229 0188 5941     		adcs	r1, r1, r3
 230              		.loc 1 109 0
 231 018a 04B0     		add	sp, sp, #16
 232              		@ sp needed
 233 018c BDE8F041 		pop	{r4, r5, r6, r7, r8, lr}
 234              		.loc 1 108 0
 235 0190 FFF7FEBF 		b	_test_assert
 236              	.LVL16:
 237              		.cfi_endproc
 238              	.LFE9:
 239              		.size	sem1_execute, .-sem1_execute
 240              		.section	.text.thread3,"ax",%progbits
 241              		.align	2
 242              		.thumb
 243              		.thumb_func
 244              		.type	thread3, %function
 245              	thread3:
 246              	.LFB14:
 247              		.loc 1 210 0
 248              		.cfi_startproc
 249              		@ args = 0, pretend = 0, frame = 0
 250              		@ frame_needed = 0, uses_anonymous_args = 0
 251              	.LVL17:
 252 0000 10B5     		push	{r4, lr}
 253              		.cfi_def_cfa_offset 8
 254              		.cfi_offset 4, -8
 255              		.cfi_offset 14, -4
 256              		.loc 1 213 0
 257 0002 40F20004 		movw	r4, #:lower16:.LANCHOR0
 258 0006 C0F20004 		movt	r4, #:upper16:.LANCHOR0
 259 000a 2046     		mov	r0, r4
 260              	.LVL18:
 261 000c FFF7FEFF 		bl	chSemWait
 262              	.LVL19:
 263              		.loc 1 214 0
 264 0010 2046     		mov	r0, r4
 265 0012 FFF7FEFF 		bl	chSemSignal
 266              	.LVL20:
 267              		.loc 1 216 0
 268 0016 0020     		movs	r0, #0
 269 0018 10BD     		pop	{r4, pc}
 270              		.cfi_endproc
 271              	.LFE14:
 272              		.size	thread3, .-thread3
 273 001a 00BF     		.section	.text.thread1,"ax",%progbits
 274              		.align	2
 275              		.thumb
 276              		.thumb_func
 277              		.type	thread1, %function
 278              	thread1:
 279              	.LFB8:
 280              		.loc 1 77 0
 281              		.cfi_startproc
 282              		@ args = 0, pretend = 0, frame = 0
 283              		@ frame_needed = 0, uses_anonymous_args = 0
 284              	.LVL21:
 285 0000 10B5     		push	{r4, lr}
ARM GAS  /tmp/cce3J3ki.s 			page 6


 286              		.cfi_def_cfa_offset 8
 287              		.cfi_offset 4, -8
 288              		.cfi_offset 14, -4
 289              		.loc 1 77 0
 290 0002 0446     		mov	r4, r0
 291              		.loc 1 79 0
 292 0004 40F20000 		movw	r0, #:lower16:.LANCHOR0
 293              	.LVL22:
 294 0008 C0F20000 		movt	r0, #:upper16:.LANCHOR0
 295 000c FFF7FEFF 		bl	chSemWait
 296              	.LVL23:
 297              		.loc 1 80 0
 298 0010 2078     		ldrb	r0, [r4]	@ zero_extendqisi2
 299 0012 FFF7FEFF 		bl	test_emit_token
 300              	.LVL24:
 301              		.loc 1 82 0
 302 0016 0020     		movs	r0, #0
 303 0018 10BD     		pop	{r4, pc}
 304              		.cfi_endproc
 305              	.LFE8:
 306              		.size	thread1, .-thread1
 307 001a 00BF     		.section	.text.sem1_setup,"ax",%progbits
 308              		.align	2
 309              		.thumb
 310              		.thumb_func
 311              		.type	sem1_setup, %function
 312              	sem1_setup:
 313              	.LFB7:
 314              		.loc 1 72 0
 315              		.cfi_startproc
 316              		@ args = 0, pretend = 0, frame = 0
 317              		@ frame_needed = 0, uses_anonymous_args = 0
 318              		@ link register save eliminated.
 319              		.loc 1 74 0
 320 0000 40F20000 		movw	r0, #:lower16:.LANCHOR0
 321 0004 C0F20000 		movt	r0, #:upper16:.LANCHOR0
 322 0008 0021     		movs	r1, #0
 323 000a FFF7FEBF 		b	chSemInit
 324              	.LVL25:
 325              		.cfi_endproc
 326              	.LFE7:
 327              		.size	sem1_setup, .-sem1_setup
 328 000e 00BF     		.section	.text.sem2_setup,"ax",%progbits
 329              		.align	2
 330              		.thumb
 331              		.thumb_func
 332              		.type	sem2_setup, %function
 333              	sem2_setup:
 334              	.LFB10:
 335              		.loc 1 129 0
 336              		.cfi_startproc
 337              		@ args = 0, pretend = 0, frame = 0
 338              		@ frame_needed = 0, uses_anonymous_args = 0
 339              		@ link register save eliminated.
 340              		.loc 1 131 0
 341 0000 40F20000 		movw	r0, #:lower16:.LANCHOR0
 342 0004 C0F20000 		movt	r0, #:upper16:.LANCHOR0
ARM GAS  /tmp/cce3J3ki.s 			page 7


 343 0008 0021     		movs	r1, #0
 344 000a FFF7FEBF 		b	chSemInit
 345              	.LVL26:
 346              		.cfi_endproc
 347              	.LFE10:
 348              		.size	sem2_setup, .-sem2_setup
 349 000e 00BF     		.section	.text.sem3_setup,"ax",%progbits
 350              		.align	2
 351              		.thumb
 352              		.thumb_func
 353              		.type	sem3_setup, %function
 354              	sem3_setup:
 355              	.LFB13:
 356              		.loc 1 205 0
 357              		.cfi_startproc
 358              		@ args = 0, pretend = 0, frame = 0
 359              		@ frame_needed = 0, uses_anonymous_args = 0
 360              		@ link register save eliminated.
 361              		.loc 1 207 0
 362 0000 40F20000 		movw	r0, #:lower16:.LANCHOR0
 363 0004 C0F20000 		movt	r0, #:upper16:.LANCHOR0
 364 0008 0021     		movs	r1, #0
 365 000a FFF7FEBF 		b	chSemInit
 366              	.LVL27:
 367              		.cfi_endproc
 368              	.LFE13:
 369              		.size	sem3_setup, .-sem3_setup
 370 000e 00BF     		.section	.text.thread2,"ax",%progbits
 371              		.align	2
 372              		.thumb
 373              		.thumb_func
 374              		.type	thread2, %function
 375              	thread2:
 376              	.LFB11:
 377              		.loc 1 134 0
 378              		.cfi_startproc
 379              		@ args = 0, pretend = 0, frame = 0
 380              		@ frame_needed = 0, uses_anonymous_args = 0
 381              	.LVL28:
 382 0000 08B5     		push	{r3, lr}
 383              		.cfi_def_cfa_offset 8
 384              		.cfi_offset 3, -8
 385              		.cfi_offset 14, -4
 386              		.loc 1 137 0
 387 0002 3220     		movs	r0, #50
 388              	.LVL29:
 389 0004 FFF7FEFF 		bl	chThdSleep
 390              	.LVL30:
 391              	.LBB5:
 392              		.loc 1 138 0
 393 0008 2023     		movs	r3, #32
 394              	@ 138 "../ChibiOS_2.6.4/test/testsem.c" 1
 395 000a 83F31188 		msr     BASEPRI, r3
 396              	@ 0 "" 2
 397              		.thumb
 398              	.LBE5:
 399              		.loc 1 139 0
ARM GAS  /tmp/cce3J3ki.s 			page 8


 400 000e 40F20000 		movw	r0, #:lower16:.LANCHOR0
 401 0012 C0F20000 		movt	r0, #:upper16:.LANCHOR0
 402 0016 FFF7FEFF 		bl	chSemSignalI
 403              	.LVL31:
 404              		.loc 1 140 0
 405 001a FFF7FEFF 		bl	chSchRescheduleS
 406              	.LVL32:
 407              	.LBB6:
 408              		.loc 1 141 0
 409 001e 0023     		movs	r3, #0
 410              	@ 141 "../ChibiOS_2.6.4/test/testsem.c" 1
 411 0020 83F31188 		msr     BASEPRI, r3
 412              	@ 0 "" 2
 413              		.thumb
 414              	.LBE6:
 415              		.loc 1 143 0
 416 0024 0020     		movs	r0, #0
 417 0026 08BD     		pop	{r3, pc}
 418              		.cfi_endproc
 419              	.LFE11:
 420              		.size	thread2, .-thread2
 421              		.section	.text.thread4,"ax",%progbits
 422              		.align	2
 423              		.thumb
 424              		.thumb_func
 425              		.type	thread4, %function
 426              	thread4:
 427              	.LFB16:
 428              		.loc 1 246 0
 429              		.cfi_startproc
 430              		@ args = 0, pretend = 0, frame = 0
 431              		@ frame_needed = 0, uses_anonymous_args = 0
 432              	.LVL33:
 433 0000 08B5     		push	{r3, lr}
 434              		.cfi_def_cfa_offset 8
 435              		.cfi_offset 3, -8
 436              		.cfi_offset 14, -4
 437              	.LBB7:
 438              		.loc 1 248 0
 439 0002 2023     		movs	r3, #32
 440              	@ 248 "../ChibiOS_2.6.4/test/testsem.c" 1
 441 0004 83F31188 		msr     BASEPRI, r3
 442              	@ 0 "" 2
 443              		.thumb
 444              	.LBE7:
 445 0008 8368     		ldr	r3, [r0, #8]
 446 000a 002B     		cmp	r3, #0
 447 000c 06DD     		ble	.L13
 448              	.LVL34:
 449              	.L12:
 450              		.loc 1 248 0 is_stmt 0 discriminator 2
 451 000e FFF7FEFF 		bl	chSchRescheduleS
 452              	.LVL35:
 453              	.LBB8:
 454 0012 0023     		movs	r3, #0
 455              	@ 248 "../ChibiOS_2.6.4/test/testsem.c" 1
 456 0014 83F31188 		msr     BASEPRI, r3
ARM GAS  /tmp/cce3J3ki.s 			page 9


 457              	@ 0 "" 2
 458              		.thumb
 459              	.LBE8:
 460              		.loc 1 250 0 is_stmt 1 discriminator 2
 461 0018 0020     		movs	r0, #0
 462 001a 08BD     		pop	{r3, pc}
 463              	.LVL36:
 464              	.L13:
 465              		.loc 1 248 0 discriminator 1
 466 001c FFF7FEFF 		bl	chSemSignalI
 467              	.LVL37:
 468 0020 F5E7     		b	.L12
 469              		.cfi_endproc
 470              	.LFE16:
 471              		.size	thread4, .-thread4
 472 0022 00BF     		.section	.text.sem4_execute,"ax",%progbits
 473              		.align	2
 474              		.thumb
 475              		.thumb_func
 476              		.type	sem4_execute, %function
 477              	sem4_execute:
 478              	.LFB17:
 479              		.loc 1 252 0
 480              		.cfi_startproc
 481              		@ args = 0, pretend = 0, frame = 16
 482              		@ frame_needed = 0, uses_anonymous_args = 0
 483 0000 00B5     		push	{lr}
 484              		.cfi_def_cfa_offset 4
 485              		.cfi_offset 14, -4
 486 0002 87B0     		sub	sp, sp, #28
 487              		.cfi_def_cfa_offset 32
 488              		.loc 1 256 0
 489 0004 03A8     		add	r0, sp, #12
 490 0006 0021     		movs	r1, #0
 491 0008 FFF7FEFF 		bl	chSemInit
 492              	.LVL38:
 493              		.loc 1 257 0
 494 000c 03A8     		add	r0, sp, #12
 495 000e 0021     		movs	r1, #0
 496 0010 FFF7FEFF 		bl	chSemReset
 497              	.LVL39:
 498              		.loc 1 258 0
 499 0014 0599     		ldr	r1, [sp, #20]
 500 0016 0120     		movs	r0, #1
 501 0018 0029     		cmp	r1, #0
 502 001a CCBF     		ite	gt
 503 001c 0021     		movgt	r1, #0
 504 001e 0121     		movle	r1, #1
 505 0020 FFF7FEFF 		bl	_test_assert
 506              	.LVL40:
 507 0024 10B1     		cbz	r0, .L19
 508              	.L14:
 509              		.loc 1 280 0
 510 0026 07B0     		add	sp, sp, #28
 511              		@ sp needed
 512 0028 5DF804FB 		ldr	pc, [sp], #4
 513              	.L19:
ARM GAS  /tmp/cce3J3ki.s 			page 10


 514              		.loc 1 262 0
 515 002c 40F20003 		movw	r3, #:lower16:rlist
 516 0030 C0F20003 		movt	r3, #:upper16:rlist
 517 0034 9A69     		ldr	r2, [r3, #24]
 518              		.loc 1 261 0
 519 0036 40F20003 		movw	r3, #:lower16:wa
 520 003a 9268     		ldr	r2, [r2, #8]
 521 003c C0F20003 		movt	r3, #:upper16:wa
 522 0040 1868     		ldr	r0, [r3]
 523 0042 03A9     		add	r1, sp, #12
 524 0044 40F20003 		movw	r3, #:lower16:thread4
 525 0048 013A     		subs	r2, r2, #1
 526 004a 0091     		str	r1, [sp]
 527 004c C0F20003 		movt	r3, #:upper16:thread4
 528 0050 4FF4A871 		mov	r1, #336
 529 0054 FFF7FEFF 		bl	chThdCreateStatic
 530              	.LVL41:
 531 0058 40F20003 		movw	r3, #:lower16:threads
 532 005c C0F20003 		movt	r3, #:upper16:threads
 533 0060 1860     		str	r0, [r3]
 534              		.loc 1 265 0
 535 0062 03A8     		add	r0, sp, #12
 536 0064 FFF7FEFF 		bl	chSemWait
 537              	.LVL42:
 538              		.loc 1 268 0
 539 0068 0599     		ldr	r1, [sp, #20]
 540 006a 0220     		movs	r0, #2
 541 006c 0029     		cmp	r1, #0
 542 006e CCBF     		ite	gt
 543 0070 0021     		movgt	r1, #0
 544 0072 0121     		movle	r1, #1
 545 0074 FFF7FEFF 		bl	_test_assert
 546              	.LVL43:
 547 0078 0028     		cmp	r0, #0
 548 007a D4D1     		bne	.L14
 549              	.LBB9:
 550              		.loc 1 272 0
 551 007c 2023     		movs	r3, #32
 552              	@ 272 "../ChibiOS_2.6.4/test/testsem.c" 1
 553 007e 83F31188 		msr     BASEPRI, r3
 554              	@ 0 "" 2
 555              		.thumb
 556              	.LBE9:
 557 0082 059B     		ldr	r3, [sp, #20]
 558 0084 002B     		cmp	r3, #0
 559 0086 37DD     		ble	.L20
 560              	.L16:
 561              		.loc 1 272 0 is_stmt 0 discriminator 2
 562 0088 FFF7FEFF 		bl	chSchRescheduleS
 563              	.LVL44:
 564              	.LBB10:
 565 008c 0023     		movs	r3, #0
 566              	@ 272 "../ChibiOS_2.6.4/test/testsem.c" 1
 567 008e 83F31188 		msr     BASEPRI, r3
 568              	@ 0 "" 2
 569              		.thumb
 570              	.LBE10:
ARM GAS  /tmp/cce3J3ki.s 			page 11


 571              		.loc 1 273 0 is_stmt 1 discriminator 2
 572 0092 0599     		ldr	r1, [sp, #20]
 573 0094 0320     		movs	r0, #3
 574 0096 0029     		cmp	r1, #0
 575 0098 D4BF     		ite	le
 576 009a 0021     		movle	r1, #0
 577 009c 0121     		movgt	r1, #1
 578 009e FFF7FEFF 		bl	_test_assert
 579              	.LVL45:
 580 00a2 0028     		cmp	r0, #0
 581 00a4 BFD1     		bne	.L14
 582              		.loc 1 274 0
 583 00a6 0599     		ldr	r1, [sp, #20]
 584 00a8 0420     		movs	r0, #4
 585 00aa B1F1010E 		subs	lr, r1, #1
 586 00ae DEF10001 		rsbs	r1, lr, #0
 587 00b2 51EB0E01 		adcs	r1, r1, lr
 588 00b6 FFF7FEFF 		bl	_test_assert
 589              	.LVL46:
 590 00ba 0028     		cmp	r0, #0
 591 00bc B3D1     		bne	.L14
 592              	.LBB11:
 593              		.loc 1 277 0
 594 00be 2023     		movs	r3, #32
 595              	@ 277 "../ChibiOS_2.6.4/test/testsem.c" 1
 596 00c0 83F31188 		msr     BASEPRI, r3
 597              	@ 0 "" 2
 598              		.thumb
 599              	.LBE11:
 600 00c4 059B     		ldr	r3, [sp, #20]
 601 00c6 002B     		cmp	r3, #0
 602 00c8 1ADD     		ble	.L21
 603              	.L17:
 604              		.loc 1 277 0 is_stmt 0 discriminator 2
 605 00ca FFF7FEFF 		bl	chSchRescheduleS
 606              	.LVL47:
 607              	.LBB12:
 608 00ce 0023     		movs	r3, #0
 609              	@ 277 "../ChibiOS_2.6.4/test/testsem.c" 1
 610 00d0 83F31188 		msr     BASEPRI, r3
 611              	@ 0 "" 2
 612              		.thumb
 613              	.LBE12:
 614              		.loc 1 278 0 is_stmt 1 discriminator 2
 615 00d4 0599     		ldr	r1, [sp, #20]
 616 00d6 0320     		movs	r0, #3
 617 00d8 0029     		cmp	r1, #0
 618 00da D4BF     		ite	le
 619 00dc 0021     		movle	r1, #0
 620 00de 0121     		movgt	r1, #1
 621 00e0 FFF7FEFF 		bl	_test_assert
 622              	.LVL48:
 623 00e4 0028     		cmp	r0, #0
 624 00e6 9ED1     		bne	.L14
 625              		.loc 1 279 0
 626 00e8 0599     		ldr	r1, [sp, #20]
 627 00ea 0520     		movs	r0, #5
ARM GAS  /tmp/cce3J3ki.s 			page 12


 628 00ec 4A1E     		subs	r2, r1, #1
 629 00ee 5142     		rsbs	r1, r2, #0
 630 00f0 5141     		adcs	r1, r1, r2
 631 00f2 FFF7FEFF 		bl	_test_assert
 632              	.LVL49:
 633 00f6 96E7     		b	.L14
 634              	.L20:
 635              		.loc 1 272 0 discriminator 1
 636 00f8 03A8     		add	r0, sp, #12
 637 00fa FFF7FEFF 		bl	chSemSignalI
 638              	.LVL50:
 639 00fe C3E7     		b	.L16
 640              	.L21:
 641              		.loc 1 277 0 discriminator 1
 642 0100 03A8     		add	r0, sp, #12
 643 0102 FFF7FEFF 		bl	chSemSignalI
 644              	.LVL51:
 645 0106 E0E7     		b	.L17
 646              		.cfi_endproc
 647              	.LFE17:
 648              		.size	sem4_execute, .-sem4_execute
 649              		.section	.text.sem2_execute,"ax",%progbits
 650              		.align	2
 651              		.thumb
 652              		.thumb_func
 653              		.type	sem2_execute, %function
 654              	sem2_execute:
 655              	.LFB12:
 656              		.loc 1 145 0
 657              		.cfi_startproc
 658              		@ args = 0, pretend = 0, frame = 0
 659              		@ frame_needed = 0, uses_anonymous_args = 0
 660 0000 70B5     		push	{r4, r5, r6, lr}
 661              		.cfi_def_cfa_offset 16
 662              		.cfi_offset 4, -16
 663              		.cfi_offset 5, -12
 664              		.cfi_offset 6, -8
 665              		.cfi_offset 14, -4
 666              		.loc 1 153 0
 667 0002 40F20004 		movw	r4, #:lower16:.LANCHOR0
 668 0006 C0F20004 		movt	r4, #:upper16:.LANCHOR0
 669              		.loc 1 145 0
 670 000a 82B0     		sub	sp, sp, #8
 671              		.cfi_def_cfa_offset 24
 672              		.loc 1 153 0
 673 000c 0021     		movs	r1, #0
 674 000e 2046     		mov	r0, r4
 675 0010 FFF7FEFF 		bl	chSemWaitTimeout
 676              	.LVL52:
 677              		.loc 1 154 0
 678 0014 B0F1FF36 		subs	r6, r0, #-1
 679 0018 7142     		rsbs	r1, r6, #0
 680 001a 7141     		adcs	r1, r1, r6
 681 001c 0120     		movs	r0, #1
 682              	.LVL53:
 683 001e FFF7FEFF 		bl	_test_assert
 684              	.LVL54:
ARM GAS  /tmp/cce3J3ki.s 			page 13


 685 0022 08B1     		cbz	r0, .L28
 686              	.LVL55:
 687              	.L22:
 688              		.loc 1 183 0
 689 0024 02B0     		add	sp, sp, #8
 690              		@ sp needed
 691 0026 70BD     		pop	{r4, r5, r6, pc}
 692              	.LVL56:
 693              	.L28:
 694              		.loc 1 155 0
 695 0028 2168     		ldr	r1, [r4]
 696 002a 0220     		movs	r0, #2
 697 002c 0D1B     		subs	r5, r1, r4
 698 002e 6942     		rsbs	r1, r5, #0
 699 0030 6941     		adcs	r1, r1, r5
 700 0032 FFF7FEFF 		bl	_test_assert
 701              	.LVL57:
 702 0036 0028     		cmp	r0, #0
 703 0038 F4D1     		bne	.L22
 704              		.loc 1 156 0
 705 003a A168     		ldr	r1, [r4, #8]
 706 003c 0320     		movs	r0, #3
 707 003e D1F10101 		rsbs	r1, r1, #1
 708 0042 38BF     		it	cc
 709 0044 0021     		movcc	r1, #0
 710 0046 FFF7FEFF 		bl	_test_assert
 711              	.LVL58:
 712 004a 0028     		cmp	r0, #0
 713 004c EAD1     		bne	.L22
 714              	.LBB15:
 715              	.LBB16:
 716              		.loc 1 161 0
 717 004e 40F20003 		movw	r3, #:lower16:rlist
 718 0052 C0F20003 		movt	r3, #:upper16:rlist
 719 0056 9A69     		ldr	r2, [r3, #24]
 720 0058 40F20003 		movw	r3, #:lower16:wa
 721 005c C0F20003 		movt	r3, #:upper16:wa
 722 0060 1968     		ldr	r1, [r3]
 723 0062 9268     		ldr	r2, [r2, #8]
 724 0064 40F20003 		movw	r3, #:lower16:thread2
 725 0068 013A     		subs	r2, r2, #1
 726 006a 0090     		str	r0, [sp]
 727 006c C0F20003 		movt	r3, #:upper16:thread2
 728 0070 0846     		mov	r0, r1
 729 0072 4FF4A871 		mov	r1, #336
 730 0076 FFF7FEFF 		bl	chThdCreateStatic
 731              	.LVL59:
 732 007a 40F20003 		movw	r3, #:lower16:threads
 733 007e C0F20003 		movt	r3, #:upper16:threads
 734 0082 1860     		str	r0, [r3]
 735              		.loc 1 163 0
 736 0084 4FF4FA71 		mov	r1, #500
 737 0088 2046     		mov	r0, r4
 738 008a FFF7FEFF 		bl	chSemWaitTimeout
 739              	.LVL60:
 740 008e 0546     		mov	r5, r0
 741              	.LVL61:
ARM GAS  /tmp/cce3J3ki.s 			page 14


 742              		.loc 1 164 0
 743 0090 FFF7FEFF 		bl	test_wait_threads
 744              	.LVL62:
 745              		.loc 1 165 0
 746 0094 D5F10101 		rsbs	r1, r5, #1
 747 0098 38BF     		it	cc
 748 009a 0021     		movcc	r1, #0
 749 009c 0420     		movs	r0, #4
 750 009e FFF7FEFF 		bl	_test_assert
 751              	.LVL63:
 752 00a2 0028     		cmp	r0, #0
 753 00a4 BED1     		bne	.L22
 754              		.loc 1 166 0
 755 00a6 2168     		ldr	r1, [r4]
 756 00a8 0520     		movs	r0, #5
 757 00aa 0A1B     		subs	r2, r1, r4
 758 00ac 5142     		rsbs	r1, r2, #0
 759 00ae 5141     		adcs	r1, r1, r2
 760 00b0 FFF7FEFF 		bl	_test_assert
 761              	.LVL64:
 762 00b4 0028     		cmp	r0, #0
 763 00b6 B5D1     		bne	.L22
 764              		.loc 1 167 0
 765 00b8 A168     		ldr	r1, [r4, #8]
 766 00ba 0620     		movs	r0, #6
 767 00bc D1F10101 		rsbs	r1, r1, #1
 768 00c0 38BF     		it	cc
 769 00c2 0021     		movcc	r1, #0
 770 00c4 FFF7FEFF 		bl	_test_assert
 771              	.LVL65:
 772 00c8 0028     		cmp	r0, #0
 773 00ca ABD1     		bne	.L22
 774              		.loc 1 172 0
 775 00cc FFF7FEFF 		bl	test_wait_tick
 776              	.LVL66:
 777              		.loc 1 173 0
 778 00d0 40F20003 		movw	r3, #:lower16:vtlist
 779 00d4 C0F20003 		movt	r3, #:upper16:vtlist
 780 00d8 DE68     		ldr	r6, [r3, #12]
 781              	.LVL67:
 782 00da 4125     		movs	r5, #65
 783              	.LVL68:
 784              	.L27:
 785              		.loc 1 175 0
 786 00dc 2846     		mov	r0, r5
 787 00de FFF7FEFF 		bl	test_emit_token
 788              	.LVL69:
 789              		.loc 1 176 0
 790 00e2 40F20000 		movw	r0, #:lower16:.LANCHOR0
 791 00e6 4FF4FA71 		mov	r1, #500
 792 00ea C0F20000 		movt	r0, #:upper16:.LANCHOR0
 793 00ee FFF7FEFF 		bl	chSemWaitTimeout
 794              	.LVL70:
 795              		.loc 1 177 0
 796 00f2 B0F1FF33 		subs	r3, r0, #-1
 797 00f6 5942     		rsbs	r1, r3, #0
 798 00f8 5941     		adcs	r1, r1, r3
ARM GAS  /tmp/cce3J3ki.s 			page 15


 799 00fa 0720     		movs	r0, #7
 800              	.LVL71:
 801 00fc FFF7FEFF 		bl	_test_assert
 802              	.LVL72:
 803 0100 0028     		cmp	r0, #0
 804 0102 8FD1     		bne	.L22
 805              		.loc 1 178 0
 806 0104 2168     		ldr	r1, [r4]
 807 0106 0820     		movs	r0, #8
 808 0108 B1EB040C 		subs	ip, r1, r4
 809 010c DCF10001 		rsbs	r1, ip, #0
 810 0110 51EB0C01 		adcs	r1, r1, ip
 811 0114 FFF7FEFF 		bl	_test_assert
 812              	.LVL73:
 813 0118 0028     		cmp	r0, #0
 814 011a 83D1     		bne	.L22
 815              		.loc 1 179 0
 816 011c A168     		ldr	r1, [r4, #8]
 817 011e 0920     		movs	r0, #9
 818 0120 D1F10101 		rsbs	r1, r1, #1
 819 0124 38BF     		it	cc
 820 0126 0021     		movcc	r1, #0
 821 0128 FFF7FEFF 		bl	_test_assert
 822              	.LVL74:
 823 012c 0135     		adds	r5, r5, #1
 824 012e EDB2     		uxtb	r5, r5
 825 0130 0028     		cmp	r0, #0
 826 0132 7FF477AF 		bne	.L22
 827              		.loc 1 174 0
 828 0136 462D     		cmp	r5, #70
 829 0138 D0D1     		bne	.L27
 830              		.loc 1 181 0
 831 013a 40F20001 		movw	r1, #:lower16:.LC5
 832 013e C0F20001 		movt	r1, #:upper16:.LC5
 833 0142 0A20     		movs	r0, #10
 834 0144 FFF7FEFF 		bl	_test_assert_sequence
 835              	.LVL75:
 836 0148 0028     		cmp	r0, #0
 837 014a 7FF46BAF 		bne	.L22
 838              		.loc 1 182 0
 839 014e 0B20     		movs	r0, #11
 840 0150 06F6C411 		addw	r1, r6, #2500
 841 0154 06F6C912 		addw	r2, r6, #2505
 842              	.LBE16:
 843              	.LBE15:
 844              		.loc 1 183 0
 845 0158 02B0     		add	sp, sp, #8
 846              		@ sp needed
 847 015a BDE87040 		pop	{r4, r5, r6, lr}
 848              	.LVL76:
 849              	.LBB18:
 850              	.LBB17:
 851              		.loc 1 182 0
 852 015e FFF7FEBF 		b	_test_assert_time_window
 853              	.LVL77:
 854              	.LBE17:
 855              	.LBE18:
ARM GAS  /tmp/cce3J3ki.s 			page 16


 856              		.cfi_endproc
 857              	.LFE12:
 858              		.size	sem2_execute, .-sem2_execute
 859 0162 00BF     		.section	.text.sem3_execute,"ax",%progbits
 860              		.align	2
 861              		.thumb
 862              		.thumb_func
 863              		.type	sem3_execute, %function
 864              	sem3_execute:
 865              	.LFB15:
 866              		.loc 1 218 0
 867              		.cfi_startproc
 868              		@ args = 0, pretend = 0, frame = 0
 869              		@ frame_needed = 0, uses_anonymous_args = 0
 870 0000 10B5     		push	{r4, lr}
 871              		.cfi_def_cfa_offset 8
 872              		.cfi_offset 4, -8
 873              		.cfi_offset 14, -4
 874              		.loc 1 220 0
 875 0002 40F20003 		movw	r3, #:lower16:rlist
 876 0006 C0F20003 		movt	r3, #:upper16:rlist
 877 000a 9A69     		ldr	r2, [r3, #24]
 878 000c 40F20003 		movw	r3, #:lower16:wa
 879 0010 9268     		ldr	r2, [r2, #8]
 880 0012 C0F20003 		movt	r3, #:upper16:wa
 881              		.loc 1 218 0
 882 0016 82B0     		sub	sp, sp, #8
 883              		.cfi_def_cfa_offset 16
 884              		.loc 1 220 0
 885 0018 1868     		ldr	r0, [r3]
 886 001a 0021     		movs	r1, #0
 887 001c 40F20003 		movw	r3, #:lower16:thread3
 888 0020 0132     		adds	r2, r2, #1
 889 0022 0091     		str	r1, [sp]
 890 0024 C0F20003 		movt	r3, #:upper16:thread3
 891 0028 4FF4A871 		mov	r1, #336
 892 002c FFF7FEFF 		bl	chThdCreateStatic
 893              	.LVL78:
 894              		.loc 1 221 0
 895 0030 40F20004 		movw	r4, #:lower16:.LANCHOR0
 896              		.loc 1 220 0
 897 0034 40F20003 		movw	r3, #:lower16:threads
 898              		.loc 1 221 0
 899 0038 C0F20004 		movt	r4, #:upper16:.LANCHOR0
 900              		.loc 1 220 0
 901 003c C0F20003 		movt	r3, #:upper16:threads
 902 0040 1860     		str	r0, [r3]
 903              		.loc 1 221 0
 904 0042 2146     		mov	r1, r4
 905 0044 2046     		mov	r0, r4
 906 0046 FFF7FEFF 		bl	chSemSignalWait
 907              	.LVL79:
 908              		.loc 1 222 0
 909 004a 2168     		ldr	r1, [r4]
 910 004c 0120     		movs	r0, #1
 911 004e B1EB040C 		subs	ip, r1, r4
 912 0052 DCF10001 		rsbs	r1, ip, #0
ARM GAS  /tmp/cce3J3ki.s 			page 17


 913 0056 51EB0C01 		adcs	r1, r1, ip
 914 005a FFF7FEFF 		bl	_test_assert
 915              	.LVL80:
 916 005e 08B1     		cbz	r0, .L33
 917              	.L29:
 918              		.loc 1 228 0
 919 0060 02B0     		add	sp, sp, #8
 920              		@ sp needed
 921 0062 10BD     		pop	{r4, pc}
 922              	.L33:
 923              		.loc 1 223 0
 924 0064 A168     		ldr	r1, [r4, #8]
 925 0066 0220     		movs	r0, #2
 926 0068 D1F10101 		rsbs	r1, r1, #1
 927 006c 38BF     		it	cc
 928 006e 0021     		movcc	r1, #0
 929 0070 FFF7FEFF 		bl	_test_assert
 930              	.LVL81:
 931 0074 0028     		cmp	r0, #0
 932 0076 F3D1     		bne	.L29
 933              	.LBB21:
 934              	.LBB22:
 935              		.loc 1 225 0
 936 0078 2146     		mov	r1, r4
 937 007a 2046     		mov	r0, r4
 938 007c FFF7FEFF 		bl	chSemSignalWait
 939              	.LVL82:
 940              		.loc 1 226 0
 941 0080 2168     		ldr	r1, [r4]
 942 0082 0320     		movs	r0, #3
 943 0084 B1EB040E 		subs	lr, r1, r4
 944 0088 DEF10001 		rsbs	r1, lr, #0
 945 008c 51EB0E01 		adcs	r1, r1, lr
 946 0090 FFF7FEFF 		bl	_test_assert
 947              	.LVL83:
 948 0094 0028     		cmp	r0, #0
 949 0096 E3D1     		bne	.L29
 950              		.loc 1 227 0
 951 0098 A168     		ldr	r1, [r4, #8]
 952 009a 0420     		movs	r0, #4
 953 009c D1F10101 		rsbs	r1, r1, #1
 954 00a0 38BF     		it	cc
 955 00a2 0021     		movcc	r1, #0
 956              	.LBE22:
 957              	.LBE21:
 958              		.loc 1 228 0
 959 00a4 02B0     		add	sp, sp, #8
 960              		@ sp needed
 961 00a6 BDE81040 		pop	{r4, lr}
 962              	.LBB24:
 963              	.LBB23:
 964              		.loc 1 227 0
 965 00aa FFF7FEBF 		b	_test_assert
 966              	.LVL84:
 967              	.LBE23:
 968              	.LBE24:
 969              		.cfi_endproc
ARM GAS  /tmp/cce3J3ki.s 			page 18


 970              	.LFE15:
 971              		.size	sem3_execute, .-sem3_execute
 972              		.global	patternsem
 973              		.global	testsem4
 974              		.global	testsem3
 975              		.global	testsem2
 976              		.global	testsem1
 977 00ae 00BF     		.section	.rodata.testsem1,"a",%progbits
 978              		.align	2
 979              		.type	testsem1, %object
 980              		.size	testsem1, 16
 981              	testsem1:
 982 0000 74000000 		.word	.LC9
 983 0004 00000000 		.word	sem1_setup
 984 0008 00000000 		.word	0
 985 000c 00000000 		.word	sem1_execute
 986              		.section	.rodata.testsem2,"a",%progbits
 987              		.align	2
 988              		.type	testsem2, %object
 989              		.size	testsem2, 16
 990              	testsem2:
 991 0000 60000000 		.word	.LC8
 992 0004 00000000 		.word	sem2_setup
 993 0008 00000000 		.word	0
 994 000c 00000000 		.word	sem2_execute
 995              		.section	.rodata.testsem3,"a",%progbits
 996              		.align	2
 997              		.type	testsem3, %object
 998              		.size	testsem3, 16
 999              	testsem3:
 1000 0000 40000000 		.word	.LC7
 1001 0004 00000000 		.word	sem3_setup
 1002 0008 00000000 		.word	0
 1003 000c 00000000 		.word	sem3_execute
 1004              		.section	.rodata.testsem4,"a",%progbits
 1005              		.align	2
 1006              		.type	testsem4, %object
 1007              		.size	testsem4, 16
 1008              	testsem4:
 1009 0000 1C000000 		.word	.LC6
 1010 0004 00000000 		.word	0
 1011 0008 00000000 		.word	0
 1012 000c 00000000 		.word	sem4_execute
 1013              		.section	.data.sem1,"aw",%progbits
 1014              		.align	2
 1015              		.set	.LANCHOR0,. + 0
 1016              		.type	sem1, %object
 1017              		.size	sem1, 12
 1018              	sem1:
 1019 0000 00000000 		.word	sem1
 1020 0004 00000000 		.word	sem1
 1021 0008 00000000 		.word	0
 1022              		.section	.rodata.patternsem,"a",%progbits
 1023              		.align	2
 1024              		.type	patternsem, %object
 1025              		.size	patternsem, 20
 1026              	patternsem:
ARM GAS  /tmp/cce3J3ki.s 			page 19


 1027 0000 00000000 		.word	testsem1
 1028 0004 00000000 		.word	testsem2
 1029 0008 00000000 		.word	testsem3
 1030 000c 00000000 		.word	testsem4
 1031 0010 00000000 		.word	0
 1032              		.section	.rodata.str1.4,"aMS",%progbits,1
 1033              		.align	2
 1034              	.LC0:
 1035 0000 4100     		.ascii	"A\000"
 1036 0002 0000     		.space	2
 1037              	.LC1:
 1038 0004 4200     		.ascii	"B\000"
 1039 0006 0000     		.space	2
 1040              	.LC2:
 1041 0008 4300     		.ascii	"C\000"
 1042 000a 0000     		.space	2
 1043              	.LC3:
 1044 000c 4400     		.ascii	"D\000"
 1045 000e 0000     		.space	2
 1046              	.LC4:
 1047 0010 4500     		.ascii	"E\000"
 1048 0012 0000     		.space	2
 1049              	.LC5:
 1050 0014 41424344 		.ascii	"ABCDE\000"
 1050      4500
 1051 001a 0000     		.space	2
 1052              	.LC6:
 1053 001c 42696E61 		.ascii	"Binary Semaphores, functionality\000"
 1053      72792053 
 1053      656D6170 
 1053      686F7265 
 1053      732C2066 
 1054 003d 000000   		.space	3
 1055              	.LC7:
 1056 0040 53656D61 		.ascii	"Semaphores, atomic signal-wait\000"
 1056      70686F72 
 1056      65732C20 
 1056      61746F6D 
 1056      69632073 
 1057 005f 00       		.space	1
 1058              	.LC8:
 1059 0060 53656D61 		.ascii	"Semaphores, timeout\000"
 1059      70686F72 
 1059      65732C20 
 1059      74696D65 
 1059      6F757400 
 1060              	.LC9:
 1061 0074 53656D61 		.ascii	"Semaphores, enqueuing\000"
 1061      70686F72 
 1061      65732C20 
 1061      656E7175 
 1061      6575696E 
 1062 008a 0000     		.text
 1063              	.Letext0:
 1064              		.file 2 "/usr/lib/gcc/arm-none-eabi/4.8.2/include/stddef.h"
 1065              		.file 3 "/usr/include/newlib/machine/_default_types.h"
 1066              		.file 4 "/usr/include/newlib/stdint.h"
ARM GAS  /tmp/cce3J3ki.s 			page 20


 1067              		.file 5 "../ChibiOS_2.6.4/os/ports/GCC/ARMCMx/chtypes.h"
 1068              		.file 6 "../ChibiOS_2.6.4/os/kernel/include/chlists.h"
 1069              		.file 7 "../ChibiOS_2.6.4/os/kernel/include/chthreads.h"
 1070              		.file 8 "../ChibiOS_2.6.4/os/ports/GCC/ARMCMx/chcore_v7m.h"
 1071              		.file 9 "../ChibiOS_2.6.4/os/kernel/include/chvt.h"
 1072              		.file 10 "../ChibiOS_2.6.4/os/kernel/include/chschd.h"
 1073              		.file 11 "../ChibiOS_2.6.4/os/kernel/include/chsem.h"
 1074              		.file 12 "../ChibiOS_2.6.4/os/kernel/include/chbsem.h"
 1075              		.file 13 "../ChibiOS_2.6.4/os/kernel/include/chmtx.h"
 1076              		.file 14 "../ChibiOS_2.6.4/test/test.h"