ARM GAS  /tmp/ccvgYHYM.s 			page 1


   1              		.syntax unified
   2              		.cpu cortex-m3
   3              		.fpu softvfp
   4              		.eabi_attribute 20, 1
   5              		.eabi_attribute 21, 1
   6              		.eabi_attribute 23, 3
   7              		.eabi_attribute 24, 1
   8              		.eabi_attribute 25, 1
   9              		.eabi_attribute 26, 1
  10              		.eabi_attribute 30, 2
  11              		.eabi_attribute 34, 1
  12              		.eabi_attribute 18, 4
  13              		.thumb
  14              		.file	"testmbox.c"
  15              		.text
  16              	.Ltext0:
  17              		.cfi_sections	.debug_frame
  18              		.section	.text.mbox1_execute,"ax",%progbits
  19              		.align	2
  20              		.thumb
  21              		.thumb_func
  22              		.type	mbox1_execute, %function
  23              	mbox1_execute:
  24              	.LFB8:
  25              		.file 1 "../ChibiOS_2.6.4/test/testmbox.c"
  26              		.loc 1 76 0
  27              		.cfi_startproc
  28              		@ args = 0, pretend = 0, frame = 8
  29              		@ frame_needed = 0, uses_anonymous_args = 0
  30 0000 70B5     		push	{r4, r5, r6, lr}
  31              		.cfi_def_cfa_offset 16
  32              		.cfi_offset 4, -16
  33              		.cfi_offset 5, -12
  34              		.cfi_offset 6, -8
  35              		.cfi_offset 14, -4
  36              		.loc 1 83 0
  37 0002 40F20005 		movw	r5, #:lower16:.LANCHOR0
  38 0006 C0F20005 		movt	r5, #:upper16:.LANCHOR0
  39 000a 696A     		ldr	r1, [r5, #36]
  40              		.loc 1 76 0
  41 000c 82B0     		sub	sp, sp, #8
  42              		.cfi_def_cfa_offset 24
  43              		.loc 1 83 0
  44 000e B1F1050E 		subs	lr, r1, #5
  45 0012 DEF10001 		rsbs	r1, lr, #0
  46 0016 51EB0E01 		adcs	r1, r1, lr
  47 001a 0120     		movs	r0, #1
  48 001c FFF7FEFF 		bl	_test_assert
  49              	.LVL0:
  50 0020 28BB     		cbnz	r0, .L1
  51 0022 4224     		movs	r4, #66
  52              	.L4:
  53              	.LVL1:
  54              		.loc 1 89 0
  55 0024 40F20000 		movw	r0, #:lower16:.LANCHOR0
  56 0028 2146     		mov	r1, r4
  57 002a C0F20000 		movt	r0, #:upper16:.LANCHOR0
ARM GAS  /tmp/ccvgYHYM.s 			page 2


  58 002e 4FF0FF32 		mov	r2, #-1
  59 0032 FFF7FEFF 		bl	chMBPost
  60              	.LVL2:
  61              		.loc 1 90 0
  62 0036 D0F10101 		rsbs	r1, r0, #1
  63 003a 38BF     		it	cc
  64 003c 0021     		movcc	r1, #0
  65 003e 0220     		movs	r0, #2
  66              	.LVL3:
  67 0040 0134     		adds	r4, r4, #1
  68              	.LVL4:
  69 0042 FFF7FEFF 		bl	_test_assert
  70              	.LVL5:
  71 0046 90B9     		cbnz	r0, .L1
  72              		.loc 1 88 0
  73 0048 462C     		cmp	r4, #70
  74 004a EBD1     		bne	.L4
  75              		.loc 1 92 0
  76 004c 40F20000 		movw	r0, #:lower16:.LANCHOR0
  77 0050 4121     		movs	r1, #65
  78 0052 C0F20000 		movt	r0, #:upper16:.LANCHOR0
  79 0056 4FF0FF32 		mov	r2, #-1
  80 005a FFF7FEFF 		bl	chMBPostAhead
  81              	.LVL6:
  82              		.loc 1 93 0
  83 005e D0F10101 		rsbs	r1, r0, #1
  84 0062 38BF     		it	cc
  85 0064 0021     		movcc	r1, #0
  86 0066 0320     		movs	r0, #3
  87              	.LVL7:
  88 0068 FFF7FEFF 		bl	_test_assert
  89              	.LVL8:
  90 006c 08B1     		cbz	r0, .L30
  91              	.L1:
  92              		.loc 1 220 0
  93 006e 02B0     		add	sp, sp, #8
  94              		@ sp needed
  95 0070 70BD     		pop	{r4, r5, r6, pc}
  96              	.L30:
  97              		.loc 1 98 0
  98 0072 40F20000 		movw	r0, #:lower16:.LANCHOR0
  99 0076 5821     		movs	r1, #88
 100 0078 C0F20000 		movt	r0, #:upper16:.LANCHOR0
 101 007c 0122     		movs	r2, #1
 102 007e FFF7FEFF 		bl	chMBPost
 103              	.LVL9:
 104              		.loc 1 99 0
 105 0082 B0F1FF36 		subs	r6, r0, #-1
 106 0086 7142     		rsbs	r1, r6, #0
 107 0088 7141     		adcs	r1, r1, r6
 108 008a 0420     		movs	r0, #4
 109              	.LVL10:
 110 008c FFF7FEFF 		bl	_test_assert
 111              	.LVL11:
 112 0090 0028     		cmp	r0, #0
 113 0092 ECD1     		bne	.L1
 114              	.LBB2:
ARM GAS  /tmp/ccvgYHYM.s 			page 3


 115              		.loc 1 100 0
 116 0094 2023     		movs	r3, #32
 117              	@ 100 "../ChibiOS_2.6.4/test/testmbox.c" 1
 118 0096 83F31188 		msr     BASEPRI, r3
 119              	@ 0 "" 2
 120              		.thumb
 121              	.LBE2:
 122              		.loc 1 101 0
 123 009a 40F20000 		movw	r0, #:lower16:.LANCHOR0
 124 009e 5821     		movs	r1, #88
 125 00a0 C0F20000 		movt	r0, #:upper16:.LANCHOR0
 126 00a4 FFF7FEFF 		bl	chMBPostI
 127              	.LVL12:
 128              	.LBB3:
 129              		.loc 1 102 0
 130 00a8 0023     		movs	r3, #0
 131              	.LBE3:
 132              		.loc 1 101 0
 133 00aa 0146     		mov	r1, r0
 134              	.LVL13:
 135              	.LBB4:
 136              		.loc 1 102 0
 137              	@ 102 "../ChibiOS_2.6.4/test/testmbox.c" 1
 138 00ac 83F31188 		msr     BASEPRI, r3
 139              	@ 0 "" 2
 140              		.thumb
 141              	.LBE4:
 142              		.loc 1 103 0
 143 00b0 B1F1FF34 		subs	r4, r1, #-1
 144 00b4 6142     		rsbs	r1, r4, #0
 145 00b6 6141     		adcs	r1, r1, r4
 146 00b8 0520     		movs	r0, #5
 147              	.LVL14:
 148 00ba FFF7FEFF 		bl	_test_assert
 149              	.LVL15:
 150 00be 0028     		cmp	r0, #0
 151 00c0 D5D1     		bne	.L1
 152              		.loc 1 104 0
 153 00c2 40F20000 		movw	r0, #:lower16:.LANCHOR0
 154 00c6 5821     		movs	r1, #88
 155 00c8 0122     		movs	r2, #1
 156 00ca C0F20000 		movt	r0, #:upper16:.LANCHOR0
 157 00ce FFF7FEFF 		bl	chMBPostAhead
 158              	.LVL16:
 159              		.loc 1 105 0
 160 00d2 B0F1FF32 		subs	r2, r0, #-1
 161 00d6 5142     		rsbs	r1, r2, #0
 162 00d8 5141     		adcs	r1, r1, r2
 163 00da 0620     		movs	r0, #6
 164              	.LVL17:
 165 00dc FFF7FEFF 		bl	_test_assert
 166              	.LVL18:
 167 00e0 0028     		cmp	r0, #0
 168 00e2 C4D1     		bne	.L1
 169              	.LBB5:
 170              		.loc 1 106 0
 171 00e4 2023     		movs	r3, #32
ARM GAS  /tmp/ccvgYHYM.s 			page 4


 172              	@ 106 "../ChibiOS_2.6.4/test/testmbox.c" 1
 173 00e6 83F31188 		msr     BASEPRI, r3
 174              	@ 0 "" 2
 175              		.thumb
 176              	.LBE5:
 177              		.loc 1 107 0
 178 00ea 40F20000 		movw	r0, #:lower16:.LANCHOR0
 179 00ee 5821     		movs	r1, #88
 180 00f0 C0F20000 		movt	r0, #:upper16:.LANCHOR0
 181 00f4 FFF7FEFF 		bl	chMBPostAheadI
 182              	.LVL19:
 183              	.LBB6:
 184              		.loc 1 108 0
 185 00f8 0023     		movs	r3, #0
 186              	.LBE6:
 187              		.loc 1 107 0
 188 00fa 0146     		mov	r1, r0
 189              	.LVL20:
 190              	.LBB7:
 191              		.loc 1 108 0
 192              	@ 108 "../ChibiOS_2.6.4/test/testmbox.c" 1
 193 00fc 83F31188 		msr     BASEPRI, r3
 194              	@ 0 "" 2
 195              		.thumb
 196              	.LBE7:
 197              		.loc 1 109 0
 198 0100 B1F1FF33 		subs	r3, r1, #-1
 199 0104 5942     		rsbs	r1, r3, #0
 200 0106 5941     		adcs	r1, r1, r3
 201 0108 0720     		movs	r0, #7
 202              	.LVL21:
 203 010a FFF7FEFF 		bl	_test_assert
 204              	.LVL22:
 205 010e 0028     		cmp	r0, #0
 206 0110 ADD1     		bne	.L1
 207              	.LBB8:
 208              		.loc 1 114 0
 209 0112 2023     		movs	r3, #32
 210              	@ 114 "../ChibiOS_2.6.4/test/testmbox.c" 1
 211 0114 83F31188 		msr     BASEPRI, r3
 212              	@ 0 "" 2
 213              		.thumb
 214              	.LBE8:
 215 0118 696A     		ldr	r1, [r5, #36]
 216 011a 0820     		movs	r0, #8
 217 011c D1F10101 		rsbs	r1, r1, #1
 218 0120 38BF     		it	cc
 219 0122 0021     		movcc	r1, #0
 220 0124 FFF7FEFF 		bl	_test_assert
 221              	.LVL23:
 222 0128 0346     		mov	r3, r0
 223 012a 18B1     		cbz	r0, .L5
 224              	.L28:
 225              	.LBB9:
 226              		.loc 1 219 0 discriminator 2
 227 012c 0023     		movs	r3, #0
 228              	.L25:
ARM GAS  /tmp/ccvgYHYM.s 			page 5


 229              	.LBE9:
 230              	.LBB10:
 231              	@ 219 "../ChibiOS_2.6.4/test/testmbox.c" 1
 232 012e 83F31188 		msr     BASEPRI, r3
 233              	@ 0 "" 2
 234              		.thumb
 235              	.LBE10:
 236 0132 9CE7     		b	.L1
 237              	.L5:
 238              	.LBB11:
 239              		.loc 1 114 0 discriminator 2
 240              	@ 114 "../ChibiOS_2.6.4/test/testmbox.c" 1
 241 0134 83F31188 		msr     BASEPRI, r3
 242              	@ 0 "" 2
 243              		.thumb
 244              	.LBE11:
 245              	.LBB12:
 246              		.loc 1 115 0 discriminator 2
 247 0138 2023     		movs	r3, #32
 248              	@ 115 "../ChibiOS_2.6.4/test/testmbox.c" 1
 249 013a 83F31188 		msr     BASEPRI, r3
 250              	@ 0 "" 2
 251              		.thumb
 252              	.LBE12:
 253 013e A969     		ldr	r1, [r5, #24]
 254 0140 0920     		movs	r0, #9
 255 0142 B1F1050C 		subs	ip, r1, #5
 256 0146 DCF10001 		rsbs	r1, ip, #0
 257 014a 51EB0C01 		adcs	r1, r1, ip
 258 014e FFF7FEFF 		bl	_test_assert
 259              	.LVL24:
 260 0152 0346     		mov	r3, r0
 261 0154 0028     		cmp	r0, #0
 262 0156 E9D1     		bne	.L28
 263              	.LBB13:
 264              	@ 115 "../ChibiOS_2.6.4/test/testmbox.c" 1
 265 0158 83F31188 		msr     BASEPRI, r3
 266              	@ 0 "" 2
 267              		.thumb
 268              	.LBE13:
 269              	.LBB14:
 270              		.loc 1 116 0 discriminator 2
 271 015c 2023     		movs	r3, #32
 272              	@ 116 "../ChibiOS_2.6.4/test/testmbox.c" 1
 273 015e 83F31188 		msr     BASEPRI, r3
 274              	@ 0 "" 2
 275              		.thumb
 276              	.LBE14:
 277 0162 E968     		ldr	r1, [r5, #12]
 278 0164 AB68     		ldr	r3, [r5, #8]
 279 0166 0A20     		movs	r0, #10
 280 0168 B1EB030E 		subs	lr, r1, r3
 281 016c DEF10001 		rsbs	r1, lr, #0
 282 0170 51EB0E01 		adcs	r1, r1, lr
 283 0174 FFF7FEFF 		bl	_test_assert
 284              	.LVL25:
 285              	.LBB15:
ARM GAS  /tmp/ccvgYHYM.s 			page 6


 286 0178 0023     		movs	r3, #0
 287              	.LBE15:
 288 017a 0028     		cmp	r0, #0
 289 017c D7D1     		bne	.L25
 290              	.LBB16:
 291              	@ 116 "../ChibiOS_2.6.4/test/testmbox.c" 1
 292 017e 83F31188 		msr     BASEPRI, r3
 293              	@ 0 "" 2
 294              	.LVL26:
 295              		.thumb
 296 0182 0526     		movs	r6, #5
 297 0184 05E0     		b	.L10
 298              	.LVL27:
 299              	.L32:
 300              	.LBE16:
 301              		.loc 1 124 0
 302 0186 9DF80400 		ldrb	r0, [sp, #4]	@ zero_extendqisi2
 303 018a FFF7FEFF 		bl	test_emit_token
 304              	.LVL28:
 305              		.loc 1 121 0
 306 018e 013E     		subs	r6, r6, #1
 307              	.LVL29:
 308 0190 13D0     		beq	.L31
 309              	.LVL30:
 310              	.L10:
 311              		.loc 1 122 0
 312 0192 40F20004 		movw	r4, #:lower16:.LANCHOR0
 313 0196 C0F20004 		movt	r4, #:upper16:.LANCHOR0
 314 019a 01A9     		add	r1, sp, #4
 315 019c 2046     		mov	r0, r4
 316 019e 4FF0FF32 		mov	r2, #-1
 317 01a2 FFF7FEFF 		bl	chMBFetch
 318              	.LVL31:
 319              		.loc 1 123 0
 320 01a6 D0F10101 		rsbs	r1, r0, #1
 321 01aa 38BF     		it	cc
 322 01ac 0021     		movcc	r1, #0
 323 01ae 0B20     		movs	r0, #11
 324              	.LVL32:
 325 01b0 FFF7FEFF 		bl	_test_assert
 326              	.LVL33:
 327 01b4 0028     		cmp	r0, #0
 328 01b6 E6D0     		beq	.L32
 329 01b8 59E7     		b	.L1
 330              	.L31:
 331              		.loc 1 126 0
 332 01ba 40F20001 		movw	r1, #:lower16:.LC0
 333 01be C0F20001 		movt	r1, #:upper16:.LC0
 334 01c2 0C20     		movs	r0, #12
 335 01c4 FFF7FEFF 		bl	_test_assert_sequence
 336              	.LVL34:
 337 01c8 0028     		cmp	r0, #0
 338 01ca 7FF450AF 		bne	.L1
 339              		.loc 1 131 0
 340 01ce 4721     		movs	r1, #71
 341 01d0 2046     		mov	r0, r4
 342 01d2 4FF0FF32 		mov	r2, #-1
ARM GAS  /tmp/ccvgYHYM.s 			page 7


 343 01d6 FFF7FEFF 		bl	chMBPost
 344              	.LVL35:
 345              		.loc 1 132 0
 346 01da D0F10101 		rsbs	r1, r0, #1
 347 01de 38BF     		it	cc
 348 01e0 0021     		movcc	r1, #0
 349 01e2 0D20     		movs	r0, #13
 350              	.LVL36:
 351 01e4 FFF7FEFF 		bl	_test_assert
 352              	.LVL37:
 353 01e8 0028     		cmp	r0, #0
 354 01ea 7FF440AF 		bne	.L1
 355              		.loc 1 133 0
 356 01ee 01A9     		add	r1, sp, #4
 357 01f0 2046     		mov	r0, r4
 358 01f2 4FF0FF32 		mov	r2, #-1
 359 01f6 FFF7FEFF 		bl	chMBFetch
 360              	.LVL38:
 361              		.loc 1 134 0
 362 01fa D0F10101 		rsbs	r1, r0, #1
 363 01fe 38BF     		it	cc
 364 0200 0021     		movcc	r1, #0
 365 0202 0E20     		movs	r0, #14
 366              	.LVL39:
 367 0204 FFF7FEFF 		bl	_test_assert
 368              	.LVL40:
 369 0208 0028     		cmp	r0, #0
 370 020a 7FF430AF 		bne	.L1
 371              		.loc 1 135 0
 372 020e 2168     		ldr	r1, [r4]
 373 0210 A368     		ldr	r3, [r4, #8]
 374 0212 0F20     		movs	r0, #15
 375 0214 CE1A     		subs	r6, r1, r3
 376              	.LVL41:
 377 0216 7142     		rsbs	r1, r6, #0
 378 0218 7141     		adcs	r1, r1, r6
 379 021a FFF7FEFF 		bl	_test_assert
 380              	.LVL42:
 381 021e 0028     		cmp	r0, #0
 382 0220 7FF425AF 		bne	.L1
 383              		.loc 1 136 0
 384 0224 2168     		ldr	r1, [r4]
 385 0226 E368     		ldr	r3, [r4, #12]
 386 0228 1020     		movs	r0, #16
 387 022a CA1A     		subs	r2, r1, r3
 388 022c 5142     		rsbs	r1, r2, #0
 389 022e 5141     		adcs	r1, r1, r2
 390 0230 FFF7FEFF 		bl	_test_assert
 391              	.LVL43:
 392 0234 0028     		cmp	r0, #0
 393 0236 7FF41AAF 		bne	.L1
 394              		.loc 1 141 0
 395 023a 01A9     		add	r1, sp, #4
 396 023c 2046     		mov	r0, r4
 397 023e 0122     		movs	r2, #1
 398 0240 FFF7FEFF 		bl	chMBFetch
 399              	.LVL44:
ARM GAS  /tmp/ccvgYHYM.s 			page 8


 400              		.loc 1 142 0
 401 0244 B0F1FF33 		subs	r3, r0, #-1
 402 0248 5942     		rsbs	r1, r3, #0
 403 024a 5941     		adcs	r1, r1, r3
 404 024c 1120     		movs	r0, #17
 405              	.LVL45:
 406 024e FFF7FEFF 		bl	_test_assert
 407              	.LVL46:
 408 0252 0028     		cmp	r0, #0
 409 0254 7FF40BAF 		bne	.L1
 410              	.LBB17:
 411              		.loc 1 143 0
 412 0258 2023     		movs	r3, #32
 413              	@ 143 "../ChibiOS_2.6.4/test/testmbox.c" 1
 414 025a 83F31188 		msr     BASEPRI, r3
 415              	@ 0 "" 2
 416              		.thumb
 417              	.LBE17:
 418              		.loc 1 144 0
 419 025e 40F20000 		movw	r0, #:lower16:.LANCHOR0
 420 0262 01A9     		add	r1, sp, #4
 421 0264 C0F20000 		movt	r0, #:upper16:.LANCHOR0
 422 0268 FFF7FEFF 		bl	chMBFetchI
 423              	.LVL47:
 424              	.LBB18:
 425              		.loc 1 145 0
 426 026c 0023     		movs	r3, #0
 427              	.LBE18:
 428              		.loc 1 144 0
 429 026e 0146     		mov	r1, r0
 430              	.LVL48:
 431              	.LBB19:
 432              		.loc 1 145 0
 433              	@ 145 "../ChibiOS_2.6.4/test/testmbox.c" 1
 434 0270 83F31188 		msr     BASEPRI, r3
 435              	@ 0 "" 2
 436              		.thumb
 437              	.LBE19:
 438              		.loc 1 146 0
 439 0274 B1F1FF3C 		subs	ip, r1, #-1
 440 0278 DCF10001 		rsbs	r1, ip, #0
 441 027c 51EB0C01 		adcs	r1, r1, ip
 442 0280 1220     		movs	r0, #18
 443              	.LVL49:
 444 0282 FFF7FEFF 		bl	_test_assert
 445              	.LVL50:
 446 0286 0028     		cmp	r0, #0
 447 0288 7FF4F1AE 		bne	.L1
 448              	.LBB20:
 449              		.loc 1 151 0
 450 028c 2023     		movs	r3, #32
 451              	@ 151 "../ChibiOS_2.6.4/test/testmbox.c" 1
 452 028e 83F31188 		msr     BASEPRI, r3
 453              	@ 0 "" 2
 454              		.thumb
 455              	.LBE20:
 456 0292 696A     		ldr	r1, [r5, #36]
ARM GAS  /tmp/ccvgYHYM.s 			page 9


 457 0294 1320     		movs	r0, #19
 458 0296 B1F1050E 		subs	lr, r1, #5
 459 029a DEF10001 		rsbs	r1, lr, #0
 460 029e 51EB0E01 		adcs	r1, r1, lr
 461 02a2 FFF7FEFF 		bl	_test_assert
 462              	.LVL51:
 463              	.LBB21:
 464 02a6 0023     		movs	r3, #0
 465              	.LBE21:
 466 02a8 0028     		cmp	r0, #0
 467 02aa 7FF440AF 		bne	.L25
 468              	.LBB22:
 469              		.loc 1 151 0 is_stmt 0 discriminator 2
 470              	@ 151 "../ChibiOS_2.6.4/test/testmbox.c" 1
 471 02ae 83F31188 		msr     BASEPRI, r3
 472              	@ 0 "" 2
 473              		.thumb
 474              	.LBE22:
 475              	.LBB23:
 476              		.loc 1 152 0 is_stmt 1 discriminator 2
 477 02b2 2023     		movs	r3, #32
 478              	@ 152 "../ChibiOS_2.6.4/test/testmbox.c" 1
 479 02b4 83F31188 		msr     BASEPRI, r3
 480              	@ 0 "" 2
 481              		.thumb
 482              	.LBE23:
 483 02b8 A969     		ldr	r1, [r5, #24]
 484 02ba 1420     		movs	r0, #20
 485 02bc D1F10101 		rsbs	r1, r1, #1
 486 02c0 38BF     		it	cc
 487 02c2 0021     		movcc	r1, #0
 488 02c4 FFF7FEFF 		bl	_test_assert
 489              	.LVL52:
 490 02c8 0346     		mov	r3, r0
 491 02ca 0028     		cmp	r0, #0
 492 02cc 7FF42EAF 		bne	.L28
 493              	.LBB24:
 494              	@ 152 "../ChibiOS_2.6.4/test/testmbox.c" 1
 495 02d0 83F31188 		msr     BASEPRI, r3
 496              	@ 0 "" 2
 497              		.thumb
 498              	.LBE24:
 499              	.LBB25:
 500              		.loc 1 153 0 discriminator 2
 501 02d4 2023     		movs	r3, #32
 502              	@ 153 "../ChibiOS_2.6.4/test/testmbox.c" 1
 503 02d6 83F31188 		msr     BASEPRI, r3
 504              	@ 0 "" 2
 505              		.thumb
 506              	.LBE25:
 507 02da E968     		ldr	r1, [r5, #12]
 508 02dc AB68     		ldr	r3, [r5, #8]
 509 02de 1520     		movs	r0, #21
 510 02e0 CE1A     		subs	r6, r1, r3
 511 02e2 7142     		rsbs	r1, r6, #0
 512 02e4 7141     		adcs	r1, r1, r6
 513 02e6 FFF7FEFF 		bl	_test_assert
ARM GAS  /tmp/ccvgYHYM.s 			page 10


 514              	.LVL53:
 515 02ea 0346     		mov	r3, r0
 516 02ec 0028     		cmp	r0, #0
 517 02ee 7FF41DAF 		bne	.L28
 518              	.LBB26:
 519              	@ 153 "../ChibiOS_2.6.4/test/testmbox.c" 1
 520 02f2 83F31188 		msr     BASEPRI, r3
 521              	@ 0 "" 2
 522              		.thumb
 523              	.LBE26:
 524              	.LBB27:
 525              		.loc 1 158 0 discriminator 2
 526 02f6 2023     		movs	r3, #32
 527              	@ 158 "../ChibiOS_2.6.4/test/testmbox.c" 1
 528 02f8 83F31188 		msr     BASEPRI, r3
 529              	@ 0 "" 2
 530              		.thumb
 531              	.LBE27:
 532              		.loc 1 159 0 discriminator 2
 533 02fc 40F20000 		movw	r0, #:lower16:.LANCHOR0
 534 0300 4121     		movs	r1, #65
 535 0302 C0F20000 		movt	r0, #:upper16:.LANCHOR0
 536 0306 FFF7FEFF 		bl	chMBPostI
 537              	.LVL54:
 538              		.loc 1 160 0 discriminator 2
 539 030a D0F10101 		rsbs	r1, r0, #1
 540 030e 38BF     		it	cc
 541 0310 0021     		movcc	r1, #0
 542 0312 1620     		movs	r0, #22
 543              	.LVL55:
 544 0314 FFF7FEFF 		bl	_test_assert
 545              	.LVL56:
 546 0318 0028     		cmp	r0, #0
 547 031a 7FF4A8AE 		bne	.L1
 548              		.loc 1 161 0
 549 031e 40F20000 		movw	r0, #:lower16:.LANCHOR0
 550 0322 4221     		movs	r1, #66
 551 0324 C0F20000 		movt	r0, #:upper16:.LANCHOR0
 552 0328 FFF7FEFF 		bl	chMBPostI
 553              	.LVL57:
 554              		.loc 1 162 0
 555 032c D0F10101 		rsbs	r1, r0, #1
 556 0330 38BF     		it	cc
 557 0332 0021     		movcc	r1, #0
 558 0334 1720     		movs	r0, #23
 559              	.LVL58:
 560 0336 FFF7FEFF 		bl	_test_assert
 561              	.LVL59:
 562 033a 0028     		cmp	r0, #0
 563 033c 7FF497AE 		bne	.L1
 564              		.loc 1 163 0
 565 0340 40F20000 		movw	r0, #:lower16:.LANCHOR0
 566 0344 4321     		movs	r1, #67
 567 0346 C0F20000 		movt	r0, #:upper16:.LANCHOR0
 568 034a FFF7FEFF 		bl	chMBPostI
 569              	.LVL60:
 570              		.loc 1 164 0
ARM GAS  /tmp/ccvgYHYM.s 			page 11


 571 034e D0F10101 		rsbs	r1, r0, #1
 572 0352 38BF     		it	cc
 573 0354 0021     		movcc	r1, #0
 574 0356 1820     		movs	r0, #24
 575              	.LVL61:
 576 0358 FFF7FEFF 		bl	_test_assert
 577              	.LVL62:
 578 035c 0028     		cmp	r0, #0
 579 035e 7FF486AE 		bne	.L1
 580              		.loc 1 165 0
 581 0362 40F20000 		movw	r0, #:lower16:.LANCHOR0
 582 0366 4421     		movs	r1, #68
 583 0368 C0F20000 		movt	r0, #:upper16:.LANCHOR0
 584 036c FFF7FEFF 		bl	chMBPostI
 585              	.LVL63:
 586              		.loc 1 166 0
 587 0370 D0F10101 		rsbs	r1, r0, #1
 588 0374 38BF     		it	cc
 589 0376 0021     		movcc	r1, #0
 590 0378 1920     		movs	r0, #25
 591              	.LVL64:
 592 037a FFF7FEFF 		bl	_test_assert
 593              	.LVL65:
 594 037e 0446     		mov	r4, r0
 595 0380 0028     		cmp	r0, #0
 596 0382 7FF474AE 		bne	.L1
 597              		.loc 1 167 0
 598 0386 40F20000 		movw	r0, #:lower16:.LANCHOR0
 599 038a 4521     		movs	r1, #69
 600 038c C0F20000 		movt	r0, #:upper16:.LANCHOR0
 601 0390 FFF7FEFF 		bl	chMBPostI
 602              	.LVL66:
 603              	.LBB28:
 604              		.loc 1 168 0
 605 0394 2346     		mov	r3, r4
 606              	.LBE28:
 607              		.loc 1 167 0
 608 0396 0146     		mov	r1, r0
 609              	.LVL67:
 610              	.LBB29:
 611              		.loc 1 168 0
 612              	@ 168 "../ChibiOS_2.6.4/test/testmbox.c" 1
 613 0398 83F31188 		msr     BASEPRI, r3
 614              	@ 0 "" 2
 615              		.thumb
 616              	.LBE29:
 617              		.loc 1 169 0
 618 039c D1F10101 		rsbs	r1, r1, #1
 619 03a0 38BF     		it	cc
 620 03a2 0021     		movcc	r1, #0
 621 03a4 1A20     		movs	r0, #26
 622              	.LVL68:
 623 03a6 FFF7FEFF 		bl	_test_assert
 624              	.LVL69:
 625 03aa 0028     		cmp	r0, #0
 626 03ac 7FF45FAE 		bne	.L1
 627              		.loc 1 170 0
ARM GAS  /tmp/ccvgYHYM.s 			page 12


 628 03b0 E968     		ldr	r1, [r5, #12]
 629 03b2 AB68     		ldr	r3, [r5, #8]
 630 03b4 1B20     		movs	r0, #27
 631 03b6 CC1A     		subs	r4, r1, r3
 632 03b8 6142     		rsbs	r1, r4, #0
 633 03ba 6141     		adcs	r1, r1, r4
 634 03bc FFF7FEFF 		bl	_test_assert
 635              	.LVL70:
 636 03c0 0028     		cmp	r0, #0
 637 03c2 7FF454AE 		bne	.L1
 638 03c6 0524     		movs	r4, #5
 639              	.L15:
 640              	.LVL71:
 641              	.LBB30:
 642              		.loc 1 172 0
 643 03c8 2023     		movs	r3, #32
 644              	@ 172 "../ChibiOS_2.6.4/test/testmbox.c" 1
 645 03ca 83F31188 		msr     BASEPRI, r3
 646              	@ 0 "" 2
 647              		.thumb
 648              	.LBE30:
 649              		.loc 1 173 0
 650 03ce 40F20000 		movw	r0, #:lower16:.LANCHOR0
 651 03d2 01A9     		add	r1, sp, #4
 652 03d4 C0F20000 		movt	r0, #:upper16:.LANCHOR0
 653 03d8 FFF7FEFF 		bl	chMBFetchI
 654              	.LVL72:
 655              	.LBB31:
 656              		.loc 1 174 0
 657 03dc 0023     		movs	r3, #0
 658              	.LBE31:
 659              		.loc 1 173 0
 660 03de 0146     		mov	r1, r0
 661              	.LVL73:
 662              	.LBB32:
 663              		.loc 1 174 0
 664              	@ 174 "../ChibiOS_2.6.4/test/testmbox.c" 1
 665 03e0 83F31188 		msr     BASEPRI, r3
 666              	@ 0 "" 2
 667              		.thumb
 668              	.LBE32:
 669              		.loc 1 175 0
 670 03e4 D1F10101 		rsbs	r1, r1, #1
 671 03e8 38BF     		it	cc
 672 03ea 0021     		movcc	r1, #0
 673 03ec 1C20     		movs	r0, #28
 674              	.LVL74:
 675 03ee FFF7FEFF 		bl	_test_assert
 676              	.LVL75:
 677 03f2 0028     		cmp	r0, #0
 678 03f4 7FF43BAE 		bne	.L1
 679              		.loc 1 176 0
 680 03f8 9DF80400 		ldrb	r0, [sp, #4]	@ zero_extendqisi2
 681 03fc FFF7FEFF 		bl	test_emit_token
 682              	.LVL76:
 683              		.loc 1 171 0
 684 0400 013C     		subs	r4, r4, #1
ARM GAS  /tmp/ccvgYHYM.s 			page 13


 685              	.LVL77:
 686 0402 E1D1     		bne	.L15
 687              		.loc 1 178 0
 688 0404 40F20001 		movw	r1, #:lower16:.LC0
 689 0408 C0F20001 		movt	r1, #:upper16:.LC0
 690 040c 1D20     		movs	r0, #29
 691 040e FFF7FEFF 		bl	_test_assert_sequence
 692              	.LVL78:
 693 0412 0028     		cmp	r0, #0
 694 0414 7FF42BAE 		bne	.L1
 695              	.LBB33:
 696              		.loc 1 179 0
 697 0418 2023     		movs	r3, #32
 698              	@ 179 "../ChibiOS_2.6.4/test/testmbox.c" 1
 699 041a 83F31188 		msr     BASEPRI, r3
 700              	@ 0 "" 2
 701              		.thumb
 702              	.LBE33:
 703 041e 696A     		ldr	r1, [r5, #36]
 704 0420 1E20     		movs	r0, #30
 705 0422 4A1F     		subs	r2, r1, #5
 706 0424 5142     		rsbs	r1, r2, #0
 707 0426 5141     		adcs	r1, r1, r2
 708 0428 FFF7FEFF 		bl	_test_assert
 709              	.LVL79:
 710 042c 0346     		mov	r3, r0
 711 042e 0028     		cmp	r0, #0
 712 0430 7FF47CAE 		bne	.L28
 713              	.LBB34:
 714              		.loc 1 179 0 is_stmt 0 discriminator 2
 715              	@ 179 "../ChibiOS_2.6.4/test/testmbox.c" 1
 716 0434 83F31188 		msr     BASEPRI, r3
 717              	@ 0 "" 2
 718              		.thumb
 719              	.LBE34:
 720              	.LBB35:
 721              		.loc 1 180 0 is_stmt 1 discriminator 2
 722 0438 2023     		movs	r3, #32
 723              	@ 180 "../ChibiOS_2.6.4/test/testmbox.c" 1
 724 043a 83F31188 		msr     BASEPRI, r3
 725              	@ 0 "" 2
 726              		.thumb
 727              	.LBE35:
 728 043e A969     		ldr	r1, [r5, #24]
 729 0440 1F20     		movs	r0, #31
 730 0442 D1F10101 		rsbs	r1, r1, #1
 731 0446 38BF     		it	cc
 732 0448 0021     		movcc	r1, #0
 733 044a FFF7FEFF 		bl	_test_assert
 734              	.LVL80:
 735 044e 0346     		mov	r3, r0
 736 0450 0028     		cmp	r0, #0
 737 0452 7FF46BAE 		bne	.L28
 738              	.LBB36:
 739              	@ 180 "../ChibiOS_2.6.4/test/testmbox.c" 1
 740 0456 83F31188 		msr     BASEPRI, r3
 741              	@ 0 "" 2
ARM GAS  /tmp/ccvgYHYM.s 			page 14


 742              		.thumb
 743              	.LBE36:
 744              		.loc 1 181 0 discriminator 2
 745 045a E968     		ldr	r1, [r5, #12]
 746 045c AB68     		ldr	r3, [r5, #8]
 747 045e 2020     		movs	r0, #32
 748 0460 CB1A     		subs	r3, r1, r3
 749 0462 5942     		rsbs	r1, r3, #0
 750 0464 5941     		adcs	r1, r1, r3
 751 0466 FFF7FEFF 		bl	_test_assert
 752              	.LVL81:
 753 046a 0028     		cmp	r0, #0
 754 046c 7FF4FFAD 		bne	.L1
 755              	.LBB37:
 756              		.loc 1 183 0
 757 0470 2023     		movs	r3, #32
 758              	@ 183 "../ChibiOS_2.6.4/test/testmbox.c" 1
 759 0472 83F31188 		msr     BASEPRI, r3
 760              	@ 0 "" 2
 761              		.thumb
 762              	.LBE37:
 763              		.loc 1 184 0
 764 0476 40F20000 		movw	r0, #:lower16:.LANCHOR0
 765 047a 4521     		movs	r1, #69
 766 047c C0F20000 		movt	r0, #:upper16:.LANCHOR0
 767 0480 FFF7FEFF 		bl	chMBPostAheadI
 768              	.LVL82:
 769              		.loc 1 185 0
 770 0484 D0F10101 		rsbs	r1, r0, #1
 771 0488 38BF     		it	cc
 772 048a 0021     		movcc	r1, #0
 773 048c 2120     		movs	r0, #33
 774              	.LVL83:
 775 048e FFF7FEFF 		bl	_test_assert
 776              	.LVL84:
 777 0492 0028     		cmp	r0, #0
 778 0494 7FF4EBAD 		bne	.L1
 779              		.loc 1 186 0
 780 0498 40F20000 		movw	r0, #:lower16:.LANCHOR0
 781 049c 4421     		movs	r1, #68
 782 049e C0F20000 		movt	r0, #:upper16:.LANCHOR0
 783 04a2 FFF7FEFF 		bl	chMBPostAheadI
 784              	.LVL85:
 785              		.loc 1 187 0
 786 04a6 D0F10101 		rsbs	r1, r0, #1
 787 04aa 38BF     		it	cc
 788 04ac 0021     		movcc	r1, #0
 789 04ae 2220     		movs	r0, #34
 790              	.LVL86:
 791 04b0 FFF7FEFF 		bl	_test_assert
 792              	.LVL87:
 793 04b4 0028     		cmp	r0, #0
 794 04b6 7FF4DAAD 		bne	.L1
 795              		.loc 1 188 0
 796 04ba 40F20000 		movw	r0, #:lower16:.LANCHOR0
 797 04be 4321     		movs	r1, #67
 798 04c0 C0F20000 		movt	r0, #:upper16:.LANCHOR0
ARM GAS  /tmp/ccvgYHYM.s 			page 15


 799 04c4 FFF7FEFF 		bl	chMBPostAheadI
 800              	.LVL88:
 801              		.loc 1 189 0
 802 04c8 D0F10101 		rsbs	r1, r0, #1
 803 04cc 38BF     		it	cc
 804 04ce 0021     		movcc	r1, #0
 805 04d0 2320     		movs	r0, #35
 806              	.LVL89:
 807 04d2 FFF7FEFF 		bl	_test_assert
 808              	.LVL90:
 809 04d6 0028     		cmp	r0, #0
 810 04d8 7FF4C9AD 		bne	.L1
 811              		.loc 1 190 0
 812 04dc 40F20000 		movw	r0, #:lower16:.LANCHOR0
 813 04e0 4221     		movs	r1, #66
 814 04e2 C0F20000 		movt	r0, #:upper16:.LANCHOR0
 815 04e6 FFF7FEFF 		bl	chMBPostAheadI
 816              	.LVL91:
 817              		.loc 1 191 0
 818 04ea D0F10101 		rsbs	r1, r0, #1
 819 04ee 38BF     		it	cc
 820 04f0 0021     		movcc	r1, #0
 821 04f2 2420     		movs	r0, #36
 822              	.LVL92:
 823 04f4 FFF7FEFF 		bl	_test_assert
 824              	.LVL93:
 825 04f8 0028     		cmp	r0, #0
 826 04fa 7FF4B8AD 		bne	.L1
 827              		.loc 1 192 0
 828 04fe 40F20000 		movw	r0, #:lower16:.LANCHOR0
 829 0502 4121     		movs	r1, #65
 830 0504 C0F20000 		movt	r0, #:upper16:.LANCHOR0
 831 0508 FFF7FEFF 		bl	chMBPostAheadI
 832              	.LVL94:
 833              	.LBB38:
 834              		.loc 1 193 0
 835 050c 0023     		movs	r3, #0
 836              	.LBE38:
 837              		.loc 1 192 0
 838 050e 0146     		mov	r1, r0
 839              	.LVL95:
 840              	.LBB39:
 841              		.loc 1 193 0
 842              	@ 193 "../ChibiOS_2.6.4/test/testmbox.c" 1
 843 0510 83F31188 		msr     BASEPRI, r3
 844              	@ 0 "" 2
 845              		.thumb
 846              	.LBE39:
 847              		.loc 1 194 0
 848 0514 D1F10101 		rsbs	r1, r1, #1
 849 0518 38BF     		it	cc
 850 051a 0021     		movcc	r1, #0
 851 051c 2520     		movs	r0, #37
 852              	.LVL96:
 853 051e FFF7FEFF 		bl	_test_assert
 854              	.LVL97:
 855 0522 0028     		cmp	r0, #0
ARM GAS  /tmp/ccvgYHYM.s 			page 16


 856 0524 7FF4A3AD 		bne	.L1
 857              		.loc 1 195 0
 858 0528 E968     		ldr	r1, [r5, #12]
 859 052a AB68     		ldr	r3, [r5, #8]
 860 052c 2620     		movs	r0, #38
 861 052e B1EB030C 		subs	ip, r1, r3
 862 0532 DCF10001 		rsbs	r1, ip, #0
 863 0536 51EB0C01 		adcs	r1, r1, ip
 864 053a FFF7FEFF 		bl	_test_assert
 865              	.LVL98:
 866 053e 0028     		cmp	r0, #0
 867 0540 7FF495AD 		bne	.L1
 868 0544 0524     		movs	r4, #5
 869              	.LVL99:
 870              	.L19:
 871              	.LBB40:
 872              		.loc 1 197 0
 873 0546 2023     		movs	r3, #32
 874              	@ 197 "../ChibiOS_2.6.4/test/testmbox.c" 1
 875 0548 83F31188 		msr     BASEPRI, r3
 876              	@ 0 "" 2
 877              		.thumb
 878              	.LBE40:
 879              		.loc 1 198 0
 880 054c 40F20000 		movw	r0, #:lower16:.LANCHOR0
 881 0550 01A9     		add	r1, sp, #4
 882 0552 C0F20000 		movt	r0, #:upper16:.LANCHOR0
 883 0556 FFF7FEFF 		bl	chMBFetchI
 884              	.LVL100:
 885              	.LBB41:
 886              		.loc 1 199 0
 887 055a 0023     		movs	r3, #0
 888              	.LBE41:
 889              		.loc 1 198 0
 890 055c 0146     		mov	r1, r0
 891              	.LVL101:
 892              	.LBB42:
 893              		.loc 1 199 0
 894              	@ 199 "../ChibiOS_2.6.4/test/testmbox.c" 1
 895 055e 83F31188 		msr     BASEPRI, r3
 896              	@ 0 "" 2
 897              		.thumb
 898              	.LBE42:
 899              		.loc 1 200 0
 900 0562 D1F10101 		rsbs	r1, r1, #1
 901 0566 38BF     		it	cc
 902 0568 0021     		movcc	r1, #0
 903 056a 2720     		movs	r0, #39
 904              	.LVL102:
 905 056c FFF7FEFF 		bl	_test_assert
 906              	.LVL103:
 907 0570 0028     		cmp	r0, #0
 908 0572 7FF47CAD 		bne	.L1
 909              		.loc 1 201 0
 910 0576 9DF80400 		ldrb	r0, [sp, #4]	@ zero_extendqisi2
 911 057a FFF7FEFF 		bl	test_emit_token
 912              	.LVL104:
ARM GAS  /tmp/ccvgYHYM.s 			page 17


 913              		.loc 1 196 0
 914 057e 013C     		subs	r4, r4, #1
 915              	.LVL105:
 916 0580 E1D1     		bne	.L19
 917              		.loc 1 203 0
 918 0582 40F20001 		movw	r1, #:lower16:.LC0
 919 0586 C0F20001 		movt	r1, #:upper16:.LC0
 920 058a 2820     		movs	r0, #40
 921 058c FFF7FEFF 		bl	_test_assert_sequence
 922              	.LVL106:
 923 0590 0028     		cmp	r0, #0
 924 0592 7FF46CAD 		bne	.L1
 925              	.LBB43:
 926              		.loc 1 204 0
 927 0596 2023     		movs	r3, #32
 928              	@ 204 "../ChibiOS_2.6.4/test/testmbox.c" 1
 929 0598 83F31188 		msr     BASEPRI, r3
 930              	@ 0 "" 2
 931              		.thumb
 932              	.LBE43:
 933 059c 696A     		ldr	r1, [r5, #36]
 934 059e 2920     		movs	r0, #41
 935 05a0 B1F1050E 		subs	lr, r1, #5
 936 05a4 DEF10001 		rsbs	r1, lr, #0
 937 05a8 51EB0E01 		adcs	r1, r1, lr
 938 05ac FFF7FEFF 		bl	_test_assert
 939              	.LVL107:
 940 05b0 0346     		mov	r3, r0
 941 05b2 0028     		cmp	r0, #0
 942 05b4 7FF4BAAD 		bne	.L28
 943              	.LBB44:
 944              		.loc 1 204 0 is_stmt 0 discriminator 2
 945              	@ 204 "../ChibiOS_2.6.4/test/testmbox.c" 1
 946 05b8 83F31188 		msr     BASEPRI, r3
 947              	@ 0 "" 2
 948              		.thumb
 949              	.LBE44:
 950              	.LBB45:
 951              		.loc 1 205 0 is_stmt 1 discriminator 2
 952 05bc 2023     		movs	r3, #32
 953              	@ 205 "../ChibiOS_2.6.4/test/testmbox.c" 1
 954 05be 83F31188 		msr     BASEPRI, r3
 955              	@ 0 "" 2
 956              		.thumb
 957              	.LBE45:
 958 05c2 A969     		ldr	r1, [r5, #24]
 959 05c4 2A20     		movs	r0, #42
 960 05c6 D1F10101 		rsbs	r1, r1, #1
 961 05ca 38BF     		it	cc
 962 05cc 0021     		movcc	r1, #0
 963 05ce FFF7FEFF 		bl	_test_assert
 964              	.LVL108:
 965 05d2 0346     		mov	r3, r0
 966 05d4 0028     		cmp	r0, #0
 967 05d6 7FF4A9AD 		bne	.L28
 968              	.LBB46:
 969              	@ 205 "../ChibiOS_2.6.4/test/testmbox.c" 1
ARM GAS  /tmp/ccvgYHYM.s 			page 18


 970 05da 83F31188 		msr     BASEPRI, r3
 971              	@ 0 "" 2
 972              		.thumb
 973              	.LBE46:
 974              		.loc 1 206 0 discriminator 2
 975 05de E968     		ldr	r1, [r5, #12]
 976 05e0 AB68     		ldr	r3, [r5, #8]
 977 05e2 2B20     		movs	r0, #43
 978 05e4 CE1A     		subs	r6, r1, r3
 979 05e6 7142     		rsbs	r1, r6, #0
 980 05e8 7141     		adcs	r1, r1, r6
 981 05ea FFF7FEFF 		bl	_test_assert
 982              	.LVL109:
 983 05ee 0028     		cmp	r0, #0
 984 05f0 7FF43DAD 		bne	.L1
 985              		.loc 1 211 0
 986 05f4 40F20000 		movw	r0, #:lower16:.LANCHOR0
 987 05f8 C0F20000 		movt	r0, #:upper16:.LANCHOR0
 988 05fc FFF7FEFF 		bl	chMBReset
 989              	.LVL110:
 990              	.LBB47:
 991              		.loc 1 216 0
 992 0600 2023     		movs	r3, #32
 993              	@ 216 "../ChibiOS_2.6.4/test/testmbox.c" 1
 994 0602 83F31188 		msr     BASEPRI, r3
 995              	@ 0 "" 2
 996              		.thumb
 997              	.LBE47:
 998 0606 696A     		ldr	r1, [r5, #36]
 999 0608 2C20     		movs	r0, #44
 1000 060a 4C1F     		subs	r4, r1, #5
 1001              	.LVL111:
 1002 060c 6142     		rsbs	r1, r4, #0
 1003 060e 6141     		adcs	r1, r1, r4
 1004 0610 FFF7FEFF 		bl	_test_assert
 1005              	.LVL112:
 1006 0614 0346     		mov	r3, r0
 1007 0616 0028     		cmp	r0, #0
 1008 0618 7FF488AD 		bne	.L28
 1009              	.LBB48:
 1010              		.loc 1 216 0 is_stmt 0 discriminator 2
 1011              	@ 216 "../ChibiOS_2.6.4/test/testmbox.c" 1
 1012 061c 83F31188 		msr     BASEPRI, r3
 1013              	@ 0 "" 2
 1014              		.thumb
 1015              	.LBE48:
 1016              	.LBB49:
 1017              		.loc 1 217 0 is_stmt 1 discriminator 2
 1018 0620 2023     		movs	r3, #32
 1019              	@ 217 "../ChibiOS_2.6.4/test/testmbox.c" 1
 1020 0622 83F31188 		msr     BASEPRI, r3
 1021              	@ 0 "" 2
 1022              		.thumb
 1023              	.LBE49:
 1024 0626 A969     		ldr	r1, [r5, #24]
 1025 0628 2D20     		movs	r0, #45
 1026 062a D1F10101 		rsbs	r1, r1, #1
ARM GAS  /tmp/ccvgYHYM.s 			page 19


 1027 062e 38BF     		it	cc
 1028 0630 0021     		movcc	r1, #0
 1029 0632 FFF7FEFF 		bl	_test_assert
 1030              	.LVL113:
 1031 0636 0346     		mov	r3, r0
 1032 0638 0028     		cmp	r0, #0
 1033 063a 7FF477AD 		bne	.L28
 1034              	.LBB50:
 1035              	@ 217 "../ChibiOS_2.6.4/test/testmbox.c" 1
 1036 063e 83F31188 		msr     BASEPRI, r3
 1037              	@ 0 "" 2
 1038              		.thumb
 1039              	.LBE50:
 1040              	.LBB51:
 1041              		.loc 1 218 0 discriminator 2
 1042 0642 2023     		movs	r3, #32
 1043              	@ 218 "../ChibiOS_2.6.4/test/testmbox.c" 1
 1044 0644 83F31188 		msr     BASEPRI, r3
 1045              	@ 0 "" 2
 1046              		.thumb
 1047              	.LBE51:
 1048 0648 2968     		ldr	r1, [r5]
 1049 064a AB68     		ldr	r3, [r5, #8]
 1050 064c 2E20     		movs	r0, #46
 1051 064e CA1A     		subs	r2, r1, r3
 1052 0650 5142     		rsbs	r1, r2, #0
 1053 0652 5141     		adcs	r1, r1, r2
 1054 0654 FFF7FEFF 		bl	_test_assert
 1055              	.LVL114:
 1056 0658 0346     		mov	r3, r0
 1057 065a 0028     		cmp	r0, #0
 1058 065c 7FF466AD 		bne	.L28
 1059              	.LBB52:
 1060              	@ 218 "../ChibiOS_2.6.4/test/testmbox.c" 1
 1061 0660 83F31188 		msr     BASEPRI, r3
 1062              	@ 0 "" 2
 1063              		.thumb
 1064              	.LBE52:
 1065              	.LBB53:
 1066              		.loc 1 219 0 discriminator 2
 1067 0664 2023     		movs	r3, #32
 1068              	@ 219 "../ChibiOS_2.6.4/test/testmbox.c" 1
 1069 0666 83F31188 		msr     BASEPRI, r3
 1070              	@ 0 "" 2
 1071              		.thumb
 1072              	.LBE53:
 1073 066a 2968     		ldr	r1, [r5]
 1074 066c EB68     		ldr	r3, [r5, #12]
 1075 066e 2F20     		movs	r0, #47
 1076 0670 CB1A     		subs	r3, r1, r3
 1077 0672 5942     		rsbs	r1, r3, #0
 1078 0674 5941     		adcs	r1, r1, r3
 1079 0676 FFF7FEFF 		bl	_test_assert
 1080              	.LVL115:
 1081 067a 57E5     		b	.L28
 1082              		.cfi_endproc
 1083              	.LFE8:
ARM GAS  /tmp/ccvgYHYM.s 			page 20


 1084              		.size	mbox1_execute, .-mbox1_execute
 1085              		.section	.text.mbox1_setup,"ax",%progbits
 1086              		.align	2
 1087              		.thumb
 1088              		.thumb_func
 1089              		.type	mbox1_setup, %function
 1090              	mbox1_setup:
 1091              	.LFB7:
 1092              		.loc 1 71 0
 1093              		.cfi_startproc
 1094              		@ args = 0, pretend = 0, frame = 0
 1095              		@ frame_needed = 0, uses_anonymous_args = 0
 1096              		@ link register save eliminated.
 1097              		.loc 1 73 0
 1098 0000 40F20000 		movw	r0, #:lower16:.LANCHOR0
 1099 0004 40F20001 		movw	r1, #:lower16:test
 1100 0008 C0F20000 		movt	r0, #:upper16:.LANCHOR0
 1101 000c C0F20001 		movt	r1, #:upper16:test
 1102 0010 0522     		movs	r2, #5
 1103 0012 FFF7FEBF 		b	chMBInit
 1104              	.LVL116:
 1105              		.cfi_endproc
 1106              	.LFE7:
 1107              		.size	mbox1_setup, .-mbox1_setup
 1108              		.global	patternmbox
 1109              		.global	testmbox1
 1110 0016 00BF     		.section	.data.mb1,"aw",%progbits
 1111              		.align	2
 1112              		.set	.LANCHOR0,. + 0
 1113              		.type	mb1, %object
 1114              		.size	mb1, 40
 1115              	mb1:
 1116 0000 00000000 		.word	test
 1117 0004 14000000 		.word	test+20
 1118 0008 00000000 		.word	test
 1119 000c 00000000 		.word	test
 1120 0010 10000000 		.word	mb1+16
 1121 0014 10000000 		.word	mb1+16
 1122 0018 00000000 		.word	0
 1123 001c 1C000000 		.word	mb1+28
 1124 0020 1C000000 		.word	mb1+28
 1125 0024 05000000 		.word	5
 1126              		.section	.rodata.patternmbox,"a",%progbits
 1127              		.align	2
 1128              		.type	patternmbox, %object
 1129              		.size	patternmbox, 8
 1130              	patternmbox:
 1131 0000 00000000 		.word	testmbox1
 1132 0004 00000000 		.word	0
 1133              		.section	.rodata.str1.4,"aMS",%progbits,1
 1134              		.align	2
 1135              	.LC0:
 1136 0000 41424344 		.ascii	"ABCDE\000"
 1136      4500
 1137 0006 0000     		.space	2
 1138              	.LC1:
 1139 0008 4D61696C 		.ascii	"Mailboxes, queuing and timeouts\000"
ARM GAS  /tmp/ccvgYHYM.s 			page 21


 1139      626F7865 
 1139      732C2071 
 1139      75657569 
 1139      6E672061 
 1140              		.section	.rodata.testmbox1,"a",%progbits
 1141              		.align	2
 1142              		.type	testmbox1, %object
 1143              		.size	testmbox1, 16
 1144              	testmbox1:
 1145 0000 08000000 		.word	.LC1
 1146 0004 00000000 		.word	mbox1_setup
 1147 0008 00000000 		.word	0
 1148 000c 00000000 		.word	mbox1_execute
 1149              		.text
 1150              	.Letext0:
 1151              		.file 2 "/usr/include/newlib/machine/_default_types.h"
 1152              		.file 3 "/usr/include/newlib/stdint.h"
 1153              		.file 4 "../ChibiOS_2.6.4/os/ports/GCC/ARMCMx/chtypes.h"
 1154              		.file 5 "../ChibiOS_2.6.4/os/kernel/include/chlists.h"
 1155              		.file 6 "../ChibiOS_2.6.4/os/kernel/include/chthreads.h"
 1156              		.file 7 "../ChibiOS_2.6.4/os/ports/GCC/ARMCMx/chcore_v7m.h"
 1157              		.file 8 "../ChibiOS_2.6.4/os/kernel/include/chsem.h"
 1158              		.file 9 "../ChibiOS_2.6.4/os/kernel/include/chmtx.h"
 1159              		.file 10 "../ChibiOS_2.6.4/os/kernel/include/chmboxes.h"
 1160              		.file 11 "../ChibiOS_2.6.4/test/test.h"