ARM GAS  /tmp/ccvgYHYM.s 			page 1


   1              		.syntax unified
   2              		.cpu cortex-m3
   3              		.fpu softvfp
   4              		.eabi_attribute 20, 1
   5              		.eabi_attribute 21, 1
   6              		.eabi_attribute 23, 3
   7              		.eabi_attribute 24, 1
   8              		.eabi_attribute 25, 1
   9              		.eabi_attribute 26, 1
  10              		.eabi_attribute 30, 2
  11              		.eabi_attribute 34, 1
  12              		.eabi_attribute 18, 4
  13              		.thumb
  14              		.file	"testmbox.c"
  15              		.text
  16              	.Ltext0:
  17              		.cfi_sections	.debug_frame
  18              		.section	.text.mbox1_execute,"ax",%progbits
  19              		.align	2
  20              		.thumb
  21              		.thumb_func
  22              		.type	mbox1_execute, %function
  23              	mbox1_execute:
  24              	.LFB8:
  25              		.file 1 "../ChibiOS_2.6.4/test/testmbox.c"
  26              		.loc 1 76 0
  27              		.cfi_startproc
  28              		@ args = 0, pretend = 0, frame = 8
  29              		@ frame_needed = 0, uses_anonymous_args = 0
  30 0000 70B5     		push	{r4, r5, r6, lr}
  31              		.cfi_def_cfa_offset 16
  32              		.cfi_offset 4, -16
  33              		.cfi_offset 5, -12
  34              		.cfi_offset 6, -8
  35              		.cfi_offset 14, -4
  36              		.loc 1 83 0
  37 0002 40F20005 		movw	r5, #:lower16:.LANCHOR0
  38 0006 C0F20005 		movt	r5, #:upper16:.LANCHOR0
  39 000a 696A     		ldr	r1, [r5, #36]
  40              		.loc 1 76 0
  41 000c 82B0     		sub	sp, sp, #8
  42              		.cfi_def_cfa_offset 24
  43              		.loc 1 83 0
  44 000e B1F1050E 		subs	lr, r1, #5
  45 0012 DEF10001 		rsbs	r1, lr, #0
  46 0016 51EB0E01 		adcs	r1, r1, lr
  47 001a 0120     		movs	r0, #1
  48 001c FFF7FEFF 		bl	_test_assert
  49              	.LVL0:
  50 0020 28BB     		cbnz	r0, .L1
  51 0022 4224     		movs	r4, #66
  52              	.L4:
  53              	.LVL1:
  54              		.loc 1 89 0
  55 0024 40F20000 		movw	r0, #:lower16:.LANCHOR0
  56 0028 2146     		mov	r1, r4
  57 002a C0F20000 		movt	r0, #:upper16:.LANCHOR0
ARM GAS  /tmp/ccvgYHYM.s 			page 2


  58 002e 4FF0FF32 		mov	r2, #-1
  59 0032 FFF7FEFF 		bl	chMBPost
  60              	.LVL2:
  61              		.loc 1 90 0
  62 0036 D0F10101 		rsbs	r1, r0, #1
  63 003a 38BF     		it	cc
  64 003c 0021     		movcc	r1, #0
  65 003e 0220     		movs	r0, #2
  66              	.LVL3:
  67 0040 0134     		adds	r4, r4, #1
  68              	.LVL4:
  69 0042 FFF7FEFF 		bl	_test_assert
  70              	.LVL5:
  71 0046 90B9     		cbnz	r0, .L1
  72              		.loc 1 88 0
  73 0048 462C     		cmp	r4, #70
  74 004a EBD1     		bne	.L4
  75              		.loc 1 92 0
  76 004c 40F20000 		movw	r0, #:lower16:.LANCHOR0
  77 0050 4121     		movs	r1, #65
  78 0052 C0F20000 		movt	r0, #:upper16:.LANCHOR0
  79 0056 4FF0FF32 		mov	r2, #-1
  80 005a FFF7FEFF 		bl	chMBPostAhead
  81              	.LVL6:
  82              		.loc 1 93 0
  83 005e D0F10101 		rsbs	r1, r0, #1
  84 0062 38BF     		it	cc
  85 0064 0021     		movcc	r1, #0
  86 0066 0320     		movs	r0, #3
  87              	.LVL7:
  88 0068 FFF7FEFF 		bl	_test_assert
  89              	.LVL8:
  90 006c 08B1     		cbz	r0, .L30
  91              	.L1:
  92              		.loc 1 220 0
  93 006e 02B0     		add	sp, sp, #8
  94              		@ sp needed
  95 0070 70BD     		pop	{r4, r5, r6, pc}
  96              	.L30:
  97              		.loc 1 98 0
  98 0072 40F20000 		movw	r0, #:lower16:.LANCHOR0
  99 0076 5821     		movs	r1, #88
 100 0078 C0F20000 		movt	r0, #:upper16:.LANCHOR0
 101 007c 0122     		movs	r2, #1
 102 007e FFF7FEFF 		bl	chMBPost
 103              	.LVL9:
 104              		.loc 1 99 0
 105 0082 B0F1FF36 		subs	r6, r0, #-1
 106 0086 7142     		rsbs	r1, r6, #0
 107 0088 7141     		adcs	r1, r1, r6
 108 008a 0420     		movs	r0, #4
 109              	.LVL10:
 110 008c FFF7FEFF 		bl	_test_assert
 111              	.LVL11:
 112 0090 0028     		cmp	r0, #0
 113 0092 ECD1     		bne	.L1
 114              	.LBB2:
ARM GAS  /tmp/ccvgYHYM.s 			page 3


 115              		.loc 1 100 0
 116 0094 2023     		movs	r3, #32
 117              	@ 100 "../ChibiOS_2.6.4/test/testmbox.c" 1
 118 0096 83F31188 		msr     BASEPRI, r3
 119              	@ 0 "" 2
 120              		.thumb
 121              	.LBE2:
 122              		.loc 1 101 0
 123 009a 40F20000 		movw	r0, #:lower16:.LANCHOR0
 124 009e 5821     		movs	r1, #88
 125 00a0 C0F20000 		movt	r0, #:upper16:.LANCHOR0
 126 00a4 FFF7FEFF 		bl	chMBPostI
 127              	.LVL12:
 128              	.LBB3:
 129              		.loc 1 102 0
 130 00a8 0023     		movs	r3, #0
 131              	.LBE3:
 132              		.loc 1 101 0
 133 00aa 0146     		mov	r1, r0
 134              	.LVL13:
 135              	.LBB4:
 136              		.loc 1 102 0
 137              	@ 102 "../ChibiOS_2.6.4/test/testmbox.c" 1
 138 00ac 83F31188 		msr     BASEPRI, r3
 139              	@ 0 "" 2
 140              		.thumb
 141              	.LBE4:
 142              		.loc 1 103 0
 143 00b0 B1F1FF34 		subs	r4, r1, #-1
 144 00b4 6142     		rsbs	r1, r4, #0
 145 00b6 6141     		adcs	r1, r1, r4
 146 00b8 0520     		movs	r0, #5
 147              	.LVL14:
 148 00ba FFF7FEFF 		bl	_test_assert
 149              	.LVL15:
 150 00be 0028     		cmp	r0, #0
 151 00c0 D5D1     		bne	.L1
 152              		.loc 1 104 0
 153 00c2 40F20000 		movw	r0, #:lower16:.LANCHOR0
 154 00c6 5821     		movs	r1, #88
 155 00c8 0122     		movs	r2, #1
 156 00ca C0F20000 		movt	r0, #:upper16:.LANCHOR0
 157 00ce FFF7FEFF 		bl	chMBPostAhead
 158              	.LVL16:
 159              		.loc 1 105 0
 160 00d2 B0F1FF32 		subs	r2, r0, #-1
 161 00d6 5142     		rsbs	r1, r2, #0
 162 00d8 5141     		adcs	r1, r1, r2
 163 00da 0620     		movs	r0, #6
 164              	.LVL17:
 165 00dc FFF7FEFF 		bl	_test_assert
 166              	.LVL18:
 167 00e0 0028     		cmp	r0, #0
 168 00e2 C4D1     		bne	.L1
 169              	.LBB5:
 170              		.loc 1 106 0
 171 00e4 2023     		movs	r3, #32
ARM GAS  /tmp/ccvgYHYM.s 			page 4


 172              	@ 106 "../ChibiOS_2.6.4/test/testmbox.c" 1
 173 00e6 83F31188 		msr     BASEPRI, r3
 174              	@ 0 "" 2
 175              		.thumb
 176              	.LBE5:
 177              		.loc 1 107 0
 178 00ea 40F20000 		movw	r0, #:lower16:.LANCHOR0
 179 00ee 5821     		movs	r1, #88
 180 00f0 C0F20000 		movt	r0, #:upper16:.LANCHOR0
 181 00f4 FFF7FEFF 		bl	chMBPostAheadI
 182              	.LVL19:
 183              	.LBB6:
 184              		.loc 1 108 0
 185 00f8 0023     		movs	r3, #0
 186              	.LBE6:
 187              		.loc 1 107 0
 188 00fa 0146     		mov	r1, r0
 189              	.LVL20:
 190              	.LBB7:
 191              		.loc 1 108 0
 192              	@ 108 "../ChibiOS_2.6.4/test/testmbox.c" 1
 193 00fc 83F31188 		msr     BASEPRI, r3
 194              	@ 0 "" 2
 195              		.thumb
 196              	.LBE7:
 197              		.loc 1 109 0
 198 0100 B1F1FF33 		subs	r3, r1, #-1
 199 0104 5942     		rsbs	r1, r3, #0
 200 0106 5941     		adcs	r1, r1, r3
 201 0108 0720     		movs	r0, #7
 202              	.LVL21:
 203 010a FFF7FEFF 		bl	_test_assert
 204              	.LVL22:
 205 010e 0028     		cmp	r0, #0
 206 0110 ADD1     		bne	.L1
 207              	.LBB8:
 208              		.loc 1 114 0
 209 0112 2023     		movs	r3, #32
 210              	@ 114 "../ChibiOS_2.6.4/test/testmbox.c" 1
 211 0114 83F31188 		msr     BASEPRI, r3
 212              	@ 0 "" 2
 213              		.thumb
 214              	.LBE8:
 215 0118 696A     		ldr	r1, [r5, #36]
 216 011a 0820     		movs	r0, #8
 217 011c D1F10101 		rsbs	r1, r1, #1
 218 0120 38BF     		it	cc
 219 0122 0021     		movcc	r1, #0
 220 0124 FFF7FEFF 		bl	_test_assert
 221              	.LVL23:
 222 0128 0346     		mov	r3, r0
 223 012a 18B1     		cbz	r0, .L5
 224              	.L28:
 225              	.LBB9:
 226              		.loc 1 219 0 discriminator 2
 227 012c 0023     		movs	r3, #0
 228              	.L25:
ARM GAS  /tmp/ccvgYHYM.s 			page 5


 229              	.LBE9:
 230              	.LBB10:
 231              	@ 219 "../ChibiOS_2.6.4/test/testmbox.c" 1
 232 012e 83F31188 		msr     BASEPRI, r3
 233              	@ 0 "" 2
 234              		.thumb
 235              	.LBE10:
 236 0132 9CE7     		b	.L1
 237              	.L5:
 238              	.LBB11:
 239              		.loc 1 114 0 discriminator 2
 240              	@ 114 "../ChibiOS_2.6.4/test/testmbox.c" 1
 241 0134 83F31188 		msr     BASEPRI, r3
 242              	@ 0 "" 2
 243              		.thumb
 244              	.LBE11:
 245              	.LBB12:
 246              		.loc 1 115 0 discriminator 2
 247 0138 2023     		movs	r3, #32
 248              	@ 115 "../ChibiOS_2.6.4/test/testmbox.c" 1
 249 013a 83F31188 		msr     BASEPRI, r3
 250              	@ 0 "" 2
 251              		.thumb
 252              	.LBE12:
 253 013e A969     		ldr	r1, [r5, #24]
 254 0140 0920     		movs	r0, #9
 255 0142 B1F1050C 		subs	ip, r1, #5
 256 0146 DCF10001 		rsbs	r1, ip, #0
 257 014a 51EB0C01 		adcs	r1, r1, ip
 258 014e FFF7FEFF 		bl	_test_assert
 259              	.LVL24:
 260 0152 0346     		mov	r3, r0
 261 0154 0028     		cmp	r0, #0
 262 0156 E9D1     		bne	.L28
 263              	.LBB13:
 264              	@ 115 "../ChibiOS_2.6.4/test/testmbox.c" 1
 265 0158 83F31188 		msr     BASEPRI, r3
 266              	@ 0 "" 2
 267              		.thumb
 268              	.LBE13:
 269              	.LBB14:
 270              		.loc 1 116 0 discriminator 2
 271 015c 2023     		movs	r3, #32
 272              	@ 116 "../ChibiOS_2.6.4/test/testmbox.c" 1
 273 015e 83F31188 		msr     BASEPRI, r3
 274              	@ 0 "" 2
 275              		.thumb
 276              	.LBE14:
 277 0162 E968     		ldr	r1, [r5, #12]
 278 0164 AB68     		ldr	r3, [r5, #8]
 279 0166 0A20     		movs	r0, #10
 280 0168 B1EB030E 		subs	lr, r1, r3
 281 016c DEF10001 		rsbs	r1, lr, #0
 282 0170 51EB0E01 		adcs	r1, r1, lr
 283 0174 FFF7FEFF 		bl	_test_assert
 284              	.LVL25:
 285              	.LBB15:
ARM GAS  /tmp/ccvgYHYM.s 			page 6


 286 0178 0023     		movs	r3, #0
 287              	.LBE15:
 288 017a 0028     		cmp	r0, #0
 289 017c D7D1     		bne	.L25
 290              	.LBB16:
 291              	@ 116 "../ChibiOS_2.6.4/test/testmbox.c" 1
 292 017e 83F31188 		msr     BASEPRI, r3
 293              	@ 0 "" 2
 294              	.LVL26:
 295              		.thumb
 296 0182 0526     		movs	r6, #5
 297 0184 05E0     		b	.L10
 298              	.LVL27:
 299              	.L32:
 300              	.LBE16:
 301              		.loc 1 124 0
 302 0186 9DF80400 		ldrb	r0, [sp, #4]	@ zero_extendqisi2
 303 018a FFF7FEFF 		bl	test_emit_token
 304              	.LVL28:
 305              		.loc 1 121 0
 306 018e 013E     		subs	r6, r6, #1
 307              	.LVL29:
 308 0190 13D0     		beq	.L31
 309              	.LVL30:
 310              	.L10:
 311              		.loc 1 122 0
 312 0192 40F20004 		movw	r4, #:lower16:.LANCHOR0
 313 0196 C0F20004 		movt	r4, #:upper16:.LANCHOR0
 314 019a 01A9     		add	r1, sp, #4
 315 019c 2046     		mov	r0, r4
 316 019e 4FF0FF32 		mov	r2, #-1
 317 01a2 FFF7FEFF 		bl	chMBFetch
 318              	.LVL31:
 319              		.loc 1 123 0
 320 01a6 D0F10101 		rsbs	r1, r0, #1
 321 01aa 38BF     		it	cc
 322 01ac 0021     		movcc	r1, #0
 323 01ae 0B20     		movs	r0, #11
 324              	.LVL32:
 325 01b0 FFF7FEFF 		bl	_test_assert
 326              	.LVL33:
 327 01b4 0028     		cmp	r0, #0
 328 01b6 E6D0     		beq	.L32
 329 01b8 59E7     		b	.L1
 330              	.L31:
 331              		.loc 1 126 0
 332 01ba 40F20001 		movw	r1, #:lower16:.LC0
 333 01be C0F20001 		movt	r1, #:upper16:.LC0
 334 01c2 0C20     		movs	r0, #12
 335 01c4 FFF7FEFF 		bl	_test_assert_sequence
 336              	.LVL34:
 337 01c8 0028     		cmp	r0, #0
 338 01ca 7FF450AF 		bne	.L1
 339              		.loc 1 131 0
 340 01ce 4721     		movs	r1, #71
 341 01d0 2046     		mov	r0, r4
 342 01d2 4FF0FF32 		mov	r2, #-1
ARM GAS  /tmp/ccvgYHYM.s 			page 7


 343 01d6 FFF7FEFF 		bl	chMBPost
 344              	.LVL35:
 345              		.loc 1 132 0
 346 01da D0F10101 		rsbs	r1, r0, #1
 347 01de 38BF     		it	cc
 348 01e0 0021     		movcc	r1, #0
 349 01e2 0D20     		movs	r0, #13
 350              	.LVL36:
 351 01e4 FFF7FEFF 		bl	_test_assert
 352              	.LVL37:
 353 01e8 0028     		cmp	r0, #0
 354 01ea 7FF440AF 		bne	.L1
 355              		.loc 1 133 0
 356 01ee 01A9     		add	r1, sp, #4
 357 01f0 2046     		mov	r0, r4
 358 01f2 4FF0FF32 		mov	r2, #-1
 359 01f6 FFF7FEFF 		bl	chMBFetch
 360              	.LVL38:
 361              		.loc 1 134 0
 362 01fa D0F10101 		rsbs	r1, r0, #1
 363 01fe 38BF     		it	cc
 364 0200 0021     		movcc	r1, #0
 365 0202 0E20     		movs	r0, #14
 366              	.LVL39:
 367 0204 FFF7FEFF 		bl	_test_assert
 368              	.LVL40:
 369 0208 0028     		cmp	r0, #0
 370 020a 7FF430AF 		bne	.L1
 371              		.loc 1 135 0
 372 020e 2168     		ldr	r1, [r4]
 373 0210 A368     		ldr	r3, [r4, #8]
 374 0212 0F20     		movs	r0, #15
 375 0214 CE1A     		subs	r6, r1, r3
 376              	.LVL41:
 377 0216 7142     		rsbs	r1, r6, #0
 378 0218 7141     		adcs	r1, r1, r6
 379 021a FFF7FEFF 		bl	_test_assert
 380              	.LVL42:
 381 021e 0028     		cmp	r0, #0
 382 0220 7FF425AF 		bne	.L1
 383              		.loc 1 136 0
 384 0224 2168     		ldr	r1, [r4]
 385 0226 E368     		ldr	r3, [r4, #12]
 386 0228 1020     		movs	r0, #16
 387 022a CA1A     		subs	r2, r1, r3
 388 022c 5142     		rsbs	r1, r2, #0
 389 022e 5141     		adcs	r1, r1, r2
 390 0230 FFF7FEFF 		bl	_test_assert
 391              	.LVL43:
 392 0234 0028     		cmp	r0, #0
 393 0236 7FF41AAF 		bne	.L1
 394              		.loc 1 141 0
 395 023a 01A9     		add	r1, sp, #4
 396 023c 2046     		mov	r0, r4
 397 023e 0122     		movs	r2, #1
 398 0240 FFF7FEFF 		bl	chMBFetch
 399              	.LVL44:
ARM GAS  /tmp/ccvgYHYM.s 			page 8


 400              		.loc 1 142 0
 401 0244 B0F1FF33 		subs	r3, r0, #-1
 402 0248 5942     		rsbs	r1, r3, #0
 403 024a 5941     		adcs	r1, r1, r3
 404 024c 1120     		movs	r0, #17
 405              	.LVL45:
 406 024e FFF7FEFF 		bl	_test_assert
 407              	.LVL46:
 408 0252 0028     		cmp	r0, #0
 409 0254 7FF40BAF 		bne	.L1
 410              	.LBB17:
 411              		.loc 1 143 0
 412 0258 2023     		movs	r3, #32
 413              	@ 143 "../ChibiOS_2.6.4/test/testmbox.c" 1
 414 025a 83F31188 		msr     BASEPRI, r3
 415              	@ 0 "" 2
 416              		.thumb
 417              	.LBE17:
 418              		.loc 1 144 0
 419 025e 40F20000 		movw	r0, #:lower16:.LANCHOR0
 420 0262 01A9     		add	r1, sp, #4
 421 0264 C0F20000 		movt	r0, #:upper16:.LANCHOR0
 422 0268 FFF7FEFF 		bl	chMBFetchI
 423              	.LVL47:
 424              	.LBB18:
 425              		.loc 1 145 0
 426 026c 0023     		movs	r3, #0
 427              	.LBE18:
 428              		.loc 1 144 0
 429 026e 0146     		mov	r1, r0
 430              	.LVL48:
 431              	.LBB19:
 432              		.loc 1 145 0
 433              	@ 145 "../ChibiOS_2.6.4/test/testmbox.c" 1
 434 0270 83F31188 		msr     BASEPRI, r3
 435              	@ 0 "" 2
 436              		.thumb
 437              	.LBE19:
 438              		.loc 1 146 0
 439 0274 B1F1FF3C 		subs	ip, r1, #-1
 440 0278 DCF10001 		rsbs	r1, ip, #0
 441 027c 51EB0C01 		adcs	r1, r1, ip
 442 0280 1220     		movs	r0, #18
 443              	.LVL49:
 444 0282 FFF7FEFF 		bl	_test_assert
 445              	.LVL50:
 446 0286 0028     		cmp	r0, #0
 447 0288 7FF4F1AE 		bne	.L1
 448              	.LBB20:
 449              		.loc 1 151 0
 450 028c 2023     		movs	r3, #32
 451              	@ 151 "../ChibiOS_2.6.4/test/testmbox.c" 1
 452 028e 83F31188 		msr     BASEPRI, r3
 453              	@ 0 "" 2
 454              		.thumb
 455              	.LBE20:
 456 0292 696A     		ldr	r1, [r5, #36]
ARM GAS  /tmp/ccvgYHYM.s 			page 9


 457 0294 1320     		movs	r0, #19
 458 0296 B1F1050E 		subs	lr, r1, #5
 459 029a DEF10001 		rsbs	r1, lr, #0
 460 029e 51EB0E01 		adcs	r1, r1, lr
 461 02a2 FFF7FEFF 		bl	_test_assert
 462              	.LVL51:
 463              	.LBB21:
 464 02a6 0023     		movs	r3, #0
 465              	.LBE21:
 466 02a8 0028     		cmp	r0, #0
 467 02aa 7FF440AF 		bne	.L25
 468              	.LBB22:
 469              		.loc 1 151 0 is_stmt 0 discriminator 2
 470              	@ 151 "../ChibiOS_2.6.4/test/testmbox.c" 1
 471 02ae 83F31188 		msr     BASEPRI, r3
 472              	@ 0 "" 2
 473              		.thumb
 474              	.LBE22:
 475              	.LBB23:
 476              		.loc 1 152 0 is_stmt 1 discriminator 2
 477 02b2 2023     		movs	r3, #32
 478              	@ 152 "../ChibiOS_2.6.4/test/testmbox.c" 1
 479 02b4 83F31188 		msr     BASEPRI, r3
 480              	@ 0 "" 2
 481              		.thumb
 482              	.LBE23:
 483 02b8 A969     		ldr	r1, [r5, #24]
 484 02ba 1420     		movs	r0, #20
 485 02bc D1F10101 		rsbs	r1, r1, #1
 486 02c0 38BF     		it	cc
 487 02c2 0021     		movcc	r1, #0
 488 02c4 FFF7FEFF 		bl	_test_assert
 489              	.LVL52:
 490 02c8 0346     		mov	r3, r0
 491 02ca 0028     		cmp	r0, #0
 492 02cc 7FF42EAF 		bne	.L28
 493              	.LBB24:
 494              	@ 152 "../ChibiOS_2.6.4/test/testmbox.c" 1
 495 02d0 83F31188 		msr     BASEPRI, r3
 496              	@ 0 "" 2
 497              		.thumb
 498              	.LBE24:
 499              	.LBB25:
 500              		.loc 1 153 0 discriminator 2
 501 02d4 2023     		movs	r3, #32
 502              	@ 153 "../ChibiOS_2.6.4/test/testmbox.c" 1
 503 02d6 83F31188 		msr     BASEPRI, r3
 504              	@ 0 "" 2
 505              		.thumb
 506              	.LBE25:
 507 02da E968     		ldr	r1, [r5, #12]
 508 02dc AB68     		ldr	r3, [r5, #8]
 509 02de 1520     		movs	r0, #21
 510 02e0 CE1A     		subs	r6, r1, r3
 511 02e2 7142     		rsbs	r1, r6, #0
 512 02e4 7141     		adcs	r1, r1, r6
 513 02e6 FFF7FEFF 		bl	_test_assert
ARM GAS  /tmp/ccvgYHYM.s 			page 10


 514              	.LVL53:
 515 02ea 0346     		mov	r3, r0
 516 02ec 0028     		cmp	r0, #0
 517 02ee 7FF41DAF 		bne	.L28
 518              	.LBB26:
 519              	@ 153 "../ChibiOS_2.6.4/test/testmbox.c" 1
 520 02f2 83F31188 		msr     BASEPRI, r3
 521              	@ 0 "" 2
 522              		.thumb
 523              	.LBE26:
 524              	.LBB27:
 525              		.loc 1 158 0 discriminator 2
 526 02f6 2023     		movs	r3, #32
 527              	@ 158 "../ChibiOS_2.6.4/test/testmbox.c" 1
 528 02f8 83F31188 		msr     BASEPRI, r3
 529              	@ 0 "" 2
 530              		.thumb
 531              	.LBE27:
 532              		.loc 1 159 0 discriminator 2
 533 02fc 40F20000 		movw	r0, #:lower16:.LANCHOR0
 534 0300 4121     		movs	r1, #65
 535 0302 C0F20000 		movt	r0, #:upper16:.LANCHOR0
 536 0306 FFF7FEFF 		bl	chMBPostI
 537              	.LVL54:
 538              		.loc 1 160 0 discriminator 2
 539 030a D0F10101 		rsbs	r1, r0, #1
 540 030e 38BF     		it	cc
 541 0310 0021     		movcc	r1, #0
 542 0312 1620     		movs	r0, #22
 543              	.LVL55:
 544 0314 FFF7FEFF 		bl	_test_assert
 545              	.LVL56:
 546 0318 0028     		cmp	r0, #0
 547 031a 7FF4A8AE 		bne	.L1
 548              		.loc 1 161 0
 549 031e 40F20000 		movw	r0, #:lower16:.LANCHOR0
 550 0322 4221     		movs	r1, #66
 551 0324 C0F20000 		movt	r0, #:upper16:.LANCHOR0
 552 0328 FFF7FEFF 		bl	chMBPostI
 553              	.LVL57:
 554              		.loc 1 162 0
 555 032c D0F10101 		rsbs	r1, r0, #1
 556 0330 38BF     		it	cc
 557 0332 0021     		movcc	r1, #0
 558 0334 1720     		movs	r0, #23
 559              	.LVL58:
 560 0336 FFF7FEFF 		bl	_test_assert
 561              	.LVL59:
 562 033a 0028     		cmp	r0, #0
 563 033c 7FF497AE 		bne	.L1
 564              		.loc 1 163 0
 565 0340 40F20000 		movw	r0, #:lower16:.LANCHOR0
 566 0344 4321     		movs	r1, #67
 567 0346 C0F20000 		movt	r0, #:upper16:.LANCHOR0
 568 034a FFF7FEFF 		bl	chMBPostI
 569              	.LVL60:
 570              		.loc 1 164 0
ARM GAS  /tmp/ccvgYHYM.s 			page 11


 571 034e D0F10101 		rsbs	r1, r0, #1
 572 0352 38BF     		it	cc
 573 0354 0021     		movcc	r1, #0
 574 0356 1820     		movs	r0, #24
 575              	.LVL61:
 576 0358 FFF7FEFF 		bl	_test_assert
 577              	.LVL62:
 578 035c 0028     		cmp	r0, #0
 579 035e 7FF486AE 		bne	.L1
 580              		.loc 1 165 0
 581 0362 40F20000 		movw	r0, #:lower16:.LANCHOR0
 582 0366 4421     		movs	r1, #68
 583 0368 C0F20000 		movt	r0, #:upper16:.LANCHOR0
 584 036c FFF7FEFF 		bl	chMBPostI
 585              	.LVL63:
 586              		.loc 1 166 0
 587 0370 D0F10101 		rsbs	r1, r0, #1
 588 0374 38BF     		it	cc
 589 0376 0021     		movcc	r1, #0
 590 0378 1920     		movs	r0, #25
 591              	.LVL64:
 592 037a FFF7FEFF 		bl	_test_assert
 593              	.LVL65:
 594 037e 0446     		mov	r4, r0
 595 0380 0028     		cmp	r0, #0
 596 0382 7FF474AE 		bne	.L1
 597              		.loc 1 167 0
 598 0386 40F20000 		movw	r0, #:lower16:.LANCHOR0
 599 038a 4521     		movs	r1, #69
 600 038c C0F20000 		movt	r0, #:upper16:.LANCHOR0
 601 0390 FFF7FEFF 		bl	chMBPostI
 602              	.LVL66:
 603              	.LBB28:
 604              		.loc 1 168 0
 605 0394 2346     		mov	r3, r4
 606              	.LBE28:
 607              		.loc 1 167 0
 608 0396 0146     		mov	r1, r0
 609              	.LVL67:
 610              	.LBB29:
 611              		.loc 1 168 0
 612              	@ 168 "../ChibiOS_2.6.4/test/testmbox.c" 1
 613 0398 83F31188 		msr     BASEPRI, r3
 614              	@ 0 "" 2
 615              		.thumb
 616              	.LBE29:
 617              		.loc 1 169 0
 618 039c D1F10101 		rsbs	r1, r1, #1
 619 03a0 38BF     		it	cc
 620 03a2 0021     		movcc	r1, #0
 621 03a4 1A20     		movs	r0, #26
 622              	.LVL68:
 623 03a6 FFF7FEFF 		bl	_test_assert
 624              	.LVL69:
 625 03aa 0028     		cmp	r0, #0
 626 03ac 7FF45FAE 		bne	.L1
 627              		.loc 1 170 0
ARM GAS  /tmp/ccvgYHYM.s 			page 12


 628 03b0 E968     		ldr	r1, [r5, #12]
 629 03b2 AB68     		ldr	r3, [r5, #8]
 630 03b4 1B20     		movs	r0, #27
 631 03b6 CC1A     		subs	r4, r1, r3
 632 03b8 6142     		rsbs	r1, r4, #0
 633 03ba 6141     		adcs	r1, r1, r4
 634 03bc FFF7FEFF 		bl	_test_assert
 635              	.LVL70:
 636 03c0 0028     		cmp	r0, #0
 637 03c2 7FF454AE 		bne	.L1
 638 03c6 0524     		movs	r4, #5
 639              	.L15:
 640              	.LVL71:
 641              	.LBB30:
 642              		.loc 1 172 0
 643 03c8 2023     		movs	r3, #32
 644              	@ 172 "../ChibiOS_2.6.4/test/testmbox.c" 1
 645 03ca 83F31188 		msr     BASEPRI, r3
 646              	@ 0 "" 2
 647              		.thumb
 648              	.LBE30:
 649              		.loc 1 173 0
 650 03ce 40F20000 		movw	r0, #:lower16:.LANCHOR0
 651 03d2 01A9     		add	r1, sp, #4
 652 03d4 C0F20000 		movt	r0, #:upper16:.LANCHOR0
 653 03d8 FFF7FEFF 		bl	chMBFetchI
 654              	.LVL72:
 655              	.LBB31:
 656              		.loc 1 174 0
 657 03dc 0023     		movs	r3, #0
 658              	.LBE31:
 659              		.loc 1 173 0
 660 03de 0146     		mov	r1, r0
 661              	.LVL73:
 662              	.LBB32:
 663              		.loc 1 174 0
 664              	@ 174 "../ChibiOS_2.6.4/test/testmbox.c" 1
 665 03e0 83F31188 		msr     BASEPRI, r3
 666              	@ 0 "" 2
 667              		.thumb
 668              	.LBE32:
 669              		.loc 1 175 0
 670 03e4 D1F10101 		rsbs	r1, r1, #1
 671 03e8 38BF     		it	cc
 672 03ea 0021     		movcc	r1, #0
 673 03ec 1C20     		movs	r0, #28
 674              	.LVL74:
 675 03ee FFF7FEFF 		bl	_test_assert
 676              	.LVL75:
 677 03f2 0028     		cmp	r0, #0
 678 03f4 7FF43BAE 		bne	.L1
 679              		.loc 1 176 0
 680 03f8 9DF80400 		ldrb	r0, [sp, #4]	@ zero_extendqisi2
 681 03fc FFF7FEFF 		bl	test_emit_token
 682              	.LVL76:
 683              		.loc 1 171 0
 684 0400 013C     		subs	r4, r4, #1
ARM GAS  /tmp/ccvgYHYM.s 			page 13


 685              	.LVL77:
 686 0402 E1D1     		bne	.L15
 687              		.loc 1 178 0
 688 0404 40F20001 		movw	r1, #:lower16:.LC0
 689 0408 C0F20001 		movt	r1, #:upper16:.LC0
 690 040c 1D20     		movs	r0, #29
 691 040e FFF7FEFF 		bl	_test_assert_sequence
 692              	.LVL78:
 693 0412 0028     		cmp	r0, #0
 694 0414 7FF42BAE 		bne	.L1
 695              	.LBB33:
 696              		.loc 1 179 0
 697 0418 2023     		movs	r3, #32
 698              	@ 179 "../ChibiOS_2.6.4/test/testmbox.c" 1
 699 041a 83F31188 		msr     BASEPRI, r3
 700              	@ 0 "" 2
 701              		.thumb
 702              	.LBE33:
 703 041e 696A     		ldr	r1, [r5, #36]
 704 0420 1E20     		movs	r0, #30
 705 0422 4A1F     		subs	r2, r1, #5
 706 0424 5142     		rsbs	r1, r2, #0
 707 0426 5141     		adcs	r1, r1, r2
 708 0428 FFF7FEFF 		bl	_test_assert
 709              	.LVL79:
 710 042c 0346     		mov	r3, r0
 711 042e 0028     		cmp	r0, #0
 712 0430 7FF47CAE 		bne	.L28
 713              	.LBB34:
 714              		.loc 1 179 0 is_stmt 0 discriminator 2
 715              	@ 179 "../ChibiOS_2.6.4/test/testmbox.c" 1
 716 0434 83F31188 		msr     BASEPRI, r3
 717              	@ 0 "" 2
 718              		.thumb
 719              	.LBE34:
 720              	.LBB35:
 721              		.loc 1 180 0 is_stmt 1 discriminator 2
 722 0438 2023     		movs	r3, #32
 723              	@ 180 "../ChibiOS_2.6.4/test/testmbox.c" 1
 724 043a 83F31188 		msr     BASEPRI, r3
 725              	@ 0 "" 2
 726              		.thumb
 727              	.LBE35:
 728 043e A969     		ldr	r1, [r5, #24]
 729 0440 1F20     		movs	r0, #31
 730 0442 D1F10101 		rsbs	r1, r1, #1
 731 0446 38BF     		it	cc
 732 0448 0021     		movcc	r1, #0
 733 044a FFF7FEFF 		bl	_test_assert
 734              	.LVL80:
 735 044e 0346     		mov	r3, r0
 736 0450 0028     		cmp	r0, #0
 737 0452 7FF46BAE 		bne	.L28
 738              	.LBB36:
 739              	@ 180 "../ChibiOS_2.6.4/test/testmbox.c" 1
 740 0456 83F31188 		msr     BASEPRI, r3
 741              	@ 0 "" 2
ARM GAS  /tmp/ccvgYHYM.s 			page 14


 742              		.thumb
 743              	.LBE36:
 744              		.loc 1 181 0 discriminator 2
 745 045a E968     		ldr	r1, [r5, #12]
 746 045c AB68     		ldr	r3, [r5, #8]
 747 045e 2020     		movs	r0, #32
 748 0460 CB1A     		subs	r3, r1, r3
 749 0462 5942     		rsbs	r1, r3, #0
 750 0464 5941     		adcs	r1, r1, r3
 751 0466 FFF7FEFF 		bl	_test_assert
 752              	.LVL81:
 753 046a 0028     		cmp	r0, #0
 754 046c 7FF4FFAD 		bne	.L1
 755              	.LBB37:
 756              		.loc 1 183 0
 757 0470 2023     		movs	r3, #32
 758              	@ 183 "../ChibiOS_2.6.4/test/testmbox.c" 1
 759 0472 83F31188 		msr     BASEPRI, r3
 760              	@ 0 "" 2
 761              		.thumb
 762              	.LBE37:
 763              		.loc 1 184 0
 764 0476 40F20000 		movw	r0, #:lower16:.LANCHOR0
 765 047a 4521     		movs	r1, #69
 766 047c C0F20000 		movt	r0, #:upper16:.LANCHOR0
 767 0480 FFF7FEFF 		bl	chMBPostAheadI
 768              	.LVL82:
 769              		.loc 1 185 0
 770 0484 D0F10101 		rsbs	r1, r0, #1
 771 0488 38BF     		it	cc
 772 048a 0021     		movcc	r1, #0
 773 048c 2120     		movs	r0, #33
 774              	.LVL83:
 775 048e FFF7FEFF 		bl	_test_assert
 776              	.LVL84:
 777 0492 0028     		cmp	r0, #0
 778 0494 7FF4EBAD 		bne	.L1
 779              		.loc 1 186 0
 780 0498 40F20000 		movw	r0, #:lower16:.LANCHOR0
 781 049c 4421     		movs	r1, #68
 782 049e C0F20000 		movt	r0, #:upper16:.LANCHOR0
 783 04a2 FFF7FEFF 		bl	chMBPostAheadI
 784              	.LVL85:
 785              		.loc 1 187 0
 786 04a6 D0F10101 		rsbs	r1, r0, #1
 787 04aa 38BF     		it	cc
 788 04ac 0021     		movcc	r1, #0
 789 04ae 2220     		movs	r0, #34
 790              	.LVL86:
 791 04b0 FFF7FEFF 		bl	_test_assert
 792              	.LVL87:
 793 04b4 0028     		cmp	r0, #0
 794 04b6 7FF4DAAD 		bne	.L1
 795              		.loc 1 188 0
 796 04ba 40F20000 		movw	r0, #:lower16:.LANCHOR0
 797 04be 4321     		movs	r1, #67
 798 04c0 C0F20000 		movt	r0, #:upper16:.LANCHOR0
ARM GAS  /tmp/ccvgYHYM.s 			page 15


 799 04c4 FFF7FEFF 		bl	chMBPostAheadI
 800              	.LVL88:
 801              		.loc 1 189 0
 802 04c8 D0F10101 		rsbs	r1, r0, #1
 803 04cc 38BF     		it	cc
 804 04ce 0021     		movcc	r1, #0
 805 04d0 2320     		movs	r0, #35
 806              	.LVL89:
 807 04d2 FFF7FEFF 		bl	_test_assert
 808              	.LVL90:
 809 04d6 0028     		cmp	r0, #0
 810 04d8 7FF4C9AD 		bne	.L1
 811              		.loc 1 190 0
 812 04dc 40F20000 		movw	r0, #:lower16:.LANCHOR0
 813 04e0 4221     		movs	r1, #66
 814 04e2 C0F20000 		movt	r0, #:upper16:.LANCHOR0
 815 04e6 FFF7FEFF 		bl	chMBPostAheadI
 816              	.LVL91:
 817              		.loc 1 191 0
 818 04ea D0F10101 		rsbs	r1, r0, #1
 819 04ee 38BF     		it	cc
 820 04f0 0021     		movcc	r1, #0
 821 04f2 2420     		movs	r0, #36
 822              	.LVL92:
 823 04f4 FFF7FEFF 		bl	_test_assert
 824              	.LVL93:
 825 04f8 0028     		cmp	r0, #0
 826 04fa 7FF4B8AD 		bne	.L1
 827              		.loc 1 192 0
 828 04fe 40F20000 		movw	r0, #:lower16:.LANCHOR0
 829 0502 4121     		movs	r1, #65
 830 0504 C0F20000 		movt	r0, #:upper16:.LANCHOR0
 831 0508 FFF7FEFF 		bl	chMBPostAheadI
 832              	.LVL94:
 833              	.LBB38:
 834              		.loc 1 193 0
 835 050c 0023     		movs	r3, #0
 836              	.LBE38:
 837              		.loc 1 192 0
 838 050e 0146     		mov	r1, r0
 839              	.LVL95:
 840              	.LBB39:
 841              		.loc 1 193 0
 842              	@ 193 "../ChibiOS_2.6.4/test/testmbox.c" 1
 843 0510 83F31188 		msr     BASEPRI, r3
 844              	@ 0 "" 2
 845              		.thumb
 846              	.LBE39:
 847              		.loc 1 194 0
 848 0514 D1F10101 		rsbs	r1, r1, #1
 849 0518 38BF     		it	cc
 850 051a 0021     		movcc	r1, #0
 851 051c 2520     		movs	r0, #37
 852              	.LVL96:
 853 051e FFF7FEFF 		bl	_test_assert
 854              	.LVL97:
 855 0522 0028     		cmp	r0, #0
ARM GAS  /tmp/ccvgYHYM.s 			page 16


 856 0524 7FF4A3AD 		bne	.L1
 857              		.loc 1 195 0
 858 0528 E968     		ldr	r1, [r5, #12]
 859 052a AB68     		ldr	r3, [r5, #8]
 860 052c 2620     		movs	r0, #38
 861 052e B1EB030C 		subs	ip, r1, r3
 862 0532 DCF10001 		rsbs	r1, ip, #0
 863 0536 51EB0C01 		adcs	r1, r1, ip
 864 053a FFF7FEFF 		bl	_test_assert
 865              	.LVL98:
 866 053e 0028     		cmp	r0, #0
 867 0540 7FF495AD 		bne	.L1
 868 0544 0524     		movs	r4, #5
 869              	.LVL99:
 870              	.L19:
 871              	.LBB40:
 872              		.loc 1 197 0
 873 0546 2023     		movs	r3, #32
 874              	@ 197 "../ChibiOS_2.6.4/test/testmbox.c" 1
 875 0548 83F31188 		msr     BASEPRI, r3
 876              	@ 0 "" 2
 877              		.thumb
 878              	.LBE40:
 879              		.loc 1 198 0
 880 054c 40F20000 		movw	r0, #:lower16:.LANCHOR0
 881 0550 01A9     		add	r1, sp, #4
 882 0552 C0F20000 		movt	r0, #:upper16:.LANCHOR0
 883 0556 FFF7FEFF 		bl	chMBFetchI
 884              	.LVL100:
 885              	.LBB41:
 886              		.loc 1 199 0
 887 055a 0023     		movs	r3, #0
 888              	.LBE41:
 889              		.loc 1 198 0
 890 055c 0146     		mov	r1, r0
 891              	.LVL101:
 892              	.LBB42:
 893              		.loc 1 199 0
 894              	@ 199 "../ChibiOS_2.6.4/test/testmbox.c" 1
 895 055e 83F31188 		msr     BASEPRI, r3
 896              	@ 0 "" 2
 897              		.thumb
 898              	.LBE42:
 899              		.loc 1 200 0
 900 0562 D1F10101 		rsbs	r1, r1, #1
 901 0566 38BF     		it	cc
 902 0568 0021     		movcc	r1, #0
 903 056a 2720     		movs	r0, #39
 904              	.LVL102:
 905 056c FFF7FEFF 		bl	_test_assert
 906              	.LVL103:
 907 0570 0028     		cmp	r0, #0
 908 0572 7FF47CAD 		bne	.L1
 909              		.loc 1 201 0
 910 0576 9DF80400 		ldrb	r0, [sp, #4]	@ zero_extendqisi2
 911 057a FFF7FEFF 		bl	test_emit_token
 912              	.LVL104:
ARM GAS  /tmp/ccvgYHYM.s 			page 17


 913              		.loc 1 196 0
 914 057e 013C     		subs	r4, r4, #1
 915              	.LVL105:
 916 0580 E1D1     		bne	.L19
 917              		.loc 1 203 0
 918 0582 40F20001 		movw	r1, #:lower16:.LC0
 919 0586 C0F20001 		movt	r1, #:upper16:.LC0
 920 058a 2820     		movs	r0, #40
 921 058c FFF7FEFF 		bl	_test_assert_sequence
 922              	.LVL106:
 923 0590 0028     		cmp	r0, #0
 924 0592 7FF46CAD 		bne	.L1
 925              	.LBB43:
 926              		.loc 1 204 0
 927 0596 2023     		movs	r3, #32
 928              	@ 204 "../ChibiOS_2.6.4/test/testmbox.c" 1
 929 0598 83F31188 		msr     BASEPRI, r3
 930              	@ 0 "" 2
 931              		.thumb
 932              	.LBE43:
 933 059c 696A     		ldr	r1, [r5, #36]
 934 059e 2920     		movs	r0, #41
 935 05a0 B1F1050E 		subs	lr, r1, #5
 936 05a4 DEF10001 		rsbs	r1, lr, #0
 937 05a8 51EB0E01 		adcs	r1, r1, lr
 938 05ac FFF7FEFF 		bl	_test_assert
 939              	.LVL107:
 940 05b0 0346     		mov	r3, r0
 941 05b2 0028     		cmp	r0, #0
 942 05b4 7FF4BAAD 		bne	.L28
 943              	.LBB44:
 944              		.loc 1 204 0 is_stmt 0 discriminator 2
 945              	@ 204 "../ChibiOS_2.6.4/test/testmbox.c" 1
 946 05b8 83F31188 		msr     BASEPRI, r3
 947              	@ 0 "" 2
 948              		.thumb
 949              	.LBE44:
 950              	.LBB45:
 951              		.loc 1 205 0 is_stmt 1 discriminator 2
 952 05bc 2023     		movs	r3, #32
 953              	@ 205 "../ChibiOS_2.6.4/test/testmbox.c" 1
 954 05be 83F31188 		msr     BASEPRI, r3
 955              	@ 0 "" 2
 956              		.thumb
 957              	.LBE45:
 958 05c2 A969     		ldr	r1, [r5, #24]
 959 05c4 2A20     		movs	r0, #42
 960 05c6 D1F10101 		rsbs	r1, r1, #1
 961 05ca 38BF     		it	cc
 962 05cc 0021     		movcc	r1, #0
 963 05ce FFF7FEFF 		bl	_test_assert
 964              	.LVL108:
 965 05d2 0346     		mov	r3, r0
 966 05d4 0028     		cmp	r0, #0
 967 05d6 7FF4A9AD 		bne	.L28
 968              	.LBB46:
 969              	@ 205 "../ChibiOS_2.6.4/test/testmbox.c" 1
ARM GAS  /tmp/ccvgYHYM.s 			page 18


 970 05da 83F31188 		msr     BASEPRI, r3
 971              	@ 0 "" 2
 972              		.thumb
 973              	.LBE46:
 974              		.loc 1 206 0 discriminator 2
 975 05de E968     		ldr	r1, [r5, #12]
 976 05e0 AB68     		ldr	r3, [r5, #8]
 977 05e2 2B20     		movs	r0, #43
 978 05e4 CE1A     		subs	r6, r1, r3
 979 05e6 7142     		rsbs	r1, r6, #0
 980 05e8 7141     		adcs	r1, r1, r6
 981 05ea FFF7FEFF 		bl	_test_assert
 982              	.LVL109:
 983 05ee 0028     		cmp	r0, #0
 984 05f0 7FF43DAD 		bne	.L1
 985              		.loc 1 211 0
 986 05f4 40F20000 		movw	r0, #:lower16:.LANCHOR0
 987 05f8 C0F20000 		movt	r0, #:upper16:.LANCHOR0
 988 05fc FFF7FEFF 		bl	chMBReset
 989              	.LVL110:
 990              	.LBB47:
 991              		.loc 1 216 0
 992 0600 2023     		movs	r3, #32
 993              	@ 216 "../ChibiOS_2.6.4/test/testmbox.c" 1
 994 0602 83F31188 		msr     BASEPRI, r3
 995              	@ 0 "" 2
 996              		.thumb
 997              	.LBE47:
 998 0606 696A     		ldr	r1, [r5, #36]
 999 0608 2C20     		movs	r0, #44
 1000 060a 4C1F     		subs	r4, r1, #5
 1001              	.LVL111:
 1002 060c 6142     		rsbs	r1, r4, #0
 1003 060e 6141     		adcs	r1, r1, r4
 1004 0610 FFF7FEFF 		bl	_test_assert
 1005              	.LVL112:
 1006 0614 0346     		mov	r3, r0
 1007 0616 0028     		cmp	r0, #0
 1008 0618 7FF488AD 		bne	.L28
 1009              	.LBB48:
 1010              		.loc 1 216 0 is_stmt 0 discriminator 2
 1011              	@ 216 "../ChibiOS_2.6.4/test/testmbox.c" 1
 1012 061c 83F31188 		msr     BASEPRI, r3
 1013              	@ 0 "" 2
 1014              		.thumb
 1015              	.LBE48:
 1016              	.LBB49:
 1017              		.loc 1 217 0 is_stmt 1 discriminator 2
 1018 0620 2023     		movs	r3, #32
 1019              	@ 217 "../ChibiOS_2.6.4/test/testmbox.c" 1
 1020 0622 83F31188 		msr     BASEPRI, r3
 1021              	@ 0 "" 2
 1022              		.thumb
 1023              	.LBE49:
 1024 0626 A969     		ldr	r1, [r5, #24]
 1025 0628 2D20     		movs	r0, #45
 1026 062a D1F10101 		rsbs	r1, r1, #1
ARM GAS  /tmp/ccvgYHYM.s 			page 19


 1027 062e 38BF     		it	cc
 1028 0630 0021     		movcc	r1, #0
 1029 0632 FFF7FEFF 		bl	_test_assert
 1030              	.LVL113:
 1031 0636 0346     		mov	r3, r0
 1032 0638 0028     		cmp	r0, #0
 1033 063a 7FF477AD 		bne	.L28
 1034              	.LBB50:
 1035              	@ 217 "../ChibiOS_2.6.4/test/testmbox.c" 1
 1036 063e 83F31188 		msr     BASEPRI, r3
 1037              	@ 0 "" 2
 1038              		.thumb
 1039              	.LBE50:
 1040              	.LBB51:
 1041              		.loc 1 218 0 discriminator 2
 1042 0642 2023     		movs	r3, #32
 1043              	@ 218 "../ChibiOS_2.6.4/test/testmbox.c" 1
 1044 0644 83F31188 		msr     BASEPRI, r3
 1045              	@ 0 "" 2
 1046              		.thumb
 1047              	.LBE51:
 1048 0648 2968     		ldr	r1, [r5]
 1049 064a AB68     		ldr	r3, [r5, #8]
 1050 064c 2E20     		movs	r0, #46
 1051 064e CA1A     		subs	r2, r1, r3
 1052 0650 5142     		rsbs	r1, r2, #0
 1053 0652 5141     		adcs	r1, r1, r2
 1054 0654 FFF7FEFF 		bl	_test_assert
 1055              	.LVL114:
 1056 0658 0346     		mov	r3, r0
 1057 065a 0028     		cmp	r0, #0
 1058 065c 7FF466AD 		bne	.L28
 1059              	.LBB52:
 1060              	@ 218 "../ChibiOS_2.6.4/test/testmbox.c" 1
 1061 0660 83F31188 		msr     BASEPRI, r3
 1062              	@ 0 "" 2
 1063              		.thumb
 1064              	.LBE52:
 1065              	.LBB53:
 1066              		.loc 1 219 0 discriminator 2
 1067 0664 2023     		movs	r3, #32
 1068              	@ 219 "../ChibiOS_2.6.4/test/testmbox.c" 1
 1069 0666 83F31188 		msr     BASEPRI, r3
 1070              	@ 0 "" 2
 1071              		.thumb
 1072              	.LBE53:
 1073 066a 2968     		ldr	r1, [r5]
 1074 066c EB68     		ldr	r3, [r5, #12]
 1075 066e 2F20     		movs	r0, #47
 1076 0670 CB1A     		subs	r3, r1, r3
 1077 0672 5942     		rsbs	r1, r3, #0
 1078 0674 5941     		adcs	r1, r1, r3
 1079 0676 FFF7FEFF 		bl	_test_assert
 1080              	.LVL115:
 1081 067a 57E5     		b	.L28
 1082              		.cfi_endproc
 1083              	.LFE8:
ARM GAS  /tmp/ccvgYHYM.s 			page 20


 1084              		.size	mbox1_execute, .-mbox1_execute
 1085              		.section	.text.mbox1_setup,"ax",%progbits
 1086              		.align	2
 1087              		.thumb
 1088              		.thumb_func
 1089              		.type	mbox1_setup, %function
 1090              	mbox1_setup:
 1091              	.LFB7:
 1092              		.loc 1 71 0
 1093              		.cfi_startproc
 1094              		@ args = 0, pretend = 0, frame = 0
 1095              		@ frame_needed = 0, uses_anonymous_args = 0
 1096              		@ link register save eliminated.
 1097              		.loc 1 73 0
 1098 0000 40F20000 		movw	r0, #:lower16:.LANCHOR0
 1099 0004 40F20001 		movw	r1, #:lower16:test
 1100 0008 C0F20000 		movt	r0, #:upper16:.LANCHOR0
 1101 000c C0F20001 		movt	r1, #:upper16:test
 1102 0010 0522     		movs	r2, #5
 1103 0012 FFF7FEBF 		b	chMBInit
 1104              	.LVL116:
 1105              		.cfi_endproc
 1106              	.LFE7:
 1107              		.size	mbox1_setup, .-mbox1_setup
 1108              		.global	patternmbox
 1109              		.global	testmbox1
 1110 0016 00BF     		.section	.data.mb1,"aw",%progbits
 1111              		.align	2
 1112              		.set	.LANCHOR0,. + 0
 1113              		.type	mb1, %object
 1114              		.size	mb1, 40
 1115              	mb1:
 1116 0000 00000000 		.word	test
 1117 0004 14000000 		.word	test+20
 1118 0008 00000000 		.word	test
 1119 000c 00000000 		.word	test
 1120 0010 10000000 		.word	mb1+16
 1121 0014 10000000 		.word	mb1+16
 1122 0018 00000000 		.word	0
 1123 001c 1C000000 		.word	mb1+28
 1124 0020 1C000000 		.word	mb1+28
 1125 0024 05000000 		.word	5
 1126              		.section	.rodata.patternmbox,"a",%progbits
 1127              		.align	2
 1128              		.type	patternmbox, %object
 1129              		.size	patternmbox, 8
 1130              	patternmbox:
 1131 0000 00000000 		.word	testmbox1
 1132 0004 00000000 		.word	0
 1133              		.section	.rodata.str1.4,"aMS",%progbits,1
 1134              		.align	2
 1135              	.LC0:
 1136 0000 41424344 		.ascii	"ABCDE\000"
 1136      4500
 1137 0006 0000     		.space	2
 1138              	.LC1:
 1139 0008 4D61696C 		.ascii	"Mailboxes, queuing and timeouts\000"
ARM GAS  /tmp/ccvgYHYM.s 			page 21


 1139      626F7865 
 1139      732C2071 
 1139      75657569 
 1139      6E672061 
 1140              		.section	.rodata.testmbox1,"a",%progbits
 1141              		.align	2
 1142              		.type	testmbox1, %object
 1143              		.size	testmbox1, 16
 1144              	testmbox1:
 1145 0000 08000000 		.word	.LC1
 1146 0004 00000000 		.word	mbox1_setup
 1147 0008 00000000 		.word	0
 1148 000c 00000000 		.word	mbox1_execute
 1149              		.text
 1150              	.Letext0:
 1151              		.file 2 "/usr/include/newlib/machine/_default_types.h"
 1152              		.file 3 "/usr/include/newlib/stdint.h"
 1153              		.file 4 "../ChibiOS_2.6.4/os/ports/GCC/ARMCMx/chtypes.h"
 1154              		.file 5 "../ChibiOS_2.6.4/os/kernel/include/chlists.h"
 1155              		.file 6 "../ChibiOS_2.6.4/os/kernel/include/chthreads.h"
 1156              		.file 7 "../ChibiOS_2.6.4/os/ports/GCC/ARMCMx/chcore_v7m.h"
 1157              		.file 8 "../ChibiOS_2.6.4/os/kernel/include/chsem.h"
 1158              		.file 9 "../ChibiOS_2.6.4/os/kernel/include/chmtx.h"
 1159              		.file 10 "../ChibiOS_2.6.4/os/kernel/include/chmboxes.h"
 1160              		.file 11 "../ChibiOS_2.6.4/test/test.h"
 1161              		.section	.debug_info,"",%progbits
 1162              	.Ldebug_info0:
 1163 0000 9B120000 		.4byte	0x129b
 1164 0004 0400     		.2byte	0x4
 1165 0006 00000000 		.4byte	.Ldebug_abbrev0
 1166 000a 04       		.byte	0x4
 1167 000b 01       		.uleb128 0x1
 1168 000c 97010000 		.4byte	.LASF97
 1169 0010 01       		.byte	0x1
 1170 0011 54030000 		.4byte	.LASF98
 1171 0015 70020000 		.4byte	.LASF99
 1172 0019 A8000000 		.4byte	.Ldebug_ranges0+0xa8
 1173 001d 00000000 		.4byte	0
 1174 0021 00000000 		.4byte	.Ldebug_line0
 1175 0025 02       		.uleb128 0x2
 1176 0026 04       		.byte	0x4
 1177 0027 05       		.byte	0x5
 1178 0028 696E7400 		.ascii	"int\000"
 1179 002c 03       		.uleb128 0x3
 1180 002d 04       		.byte	0x4
 1181 002e 07       		.byte	0x7
 1182 002f 19010000 		.4byte	.LASF0
 1183 0033 03       		.uleb128 0x3
 1184 0034 01       		.byte	0x1
 1185 0035 06       		.byte	0x6
 1186 0036 90000000 		.4byte	.LASF1
 1187 003a 04       		.uleb128 0x4
 1188 003b 16000000 		.4byte	.LASF5
 1189 003f 02       		.byte	0x2
 1190 0040 1C       		.byte	0x1c
 1191 0041 45000000 		.4byte	0x45
 1192 0045 03       		.uleb128 0x3
ARM GAS  /tmp/ccvgYHYM.s 			page 22


 1193 0046 01       		.byte	0x1
 1194 0047 08       		.byte	0x8
 1195 0048 35030000 		.4byte	.LASF2
 1196 004c 03       		.uleb128 0x3
 1197 004d 02       		.byte	0x2
 1198 004e 05       		.byte	0x5
 1199 004f 4B020000 		.4byte	.LASF3
 1200 0053 03       		.uleb128 0x3
 1201 0054 02       		.byte	0x2
 1202 0055 07       		.byte	0x7
 1203 0056 73010000 		.4byte	.LASF4
 1204 005a 04       		.uleb128 0x4
 1205 005b E2030000 		.4byte	.LASF6
 1206 005f 02       		.byte	0x2
 1207 0060 37       		.byte	0x37
 1208 0061 65000000 		.4byte	0x65
 1209 0065 03       		.uleb128 0x3
 1210 0066 04       		.byte	0x4
 1211 0067 05       		.byte	0x5
 1212 0068 D6000000 		.4byte	.LASF7
 1213 006c 04       		.uleb128 0x4
 1214 006d FF000000 		.4byte	.LASF8
 1215 0071 02       		.byte	0x2
 1216 0072 38       		.byte	0x38
 1217 0073 77000000 		.4byte	0x77
 1218 0077 03       		.uleb128 0x3
 1219 0078 04       		.byte	0x4
 1220 0079 07       		.byte	0x7
 1221 007a 39010000 		.4byte	.LASF9
 1222 007e 03       		.uleb128 0x3
 1223 007f 08       		.byte	0x8
 1224 0080 05       		.byte	0x5
 1225 0081 82000000 		.4byte	.LASF10
 1226 0085 04       		.uleb128 0x4
 1227 0086 FD020000 		.4byte	.LASF11
 1228 008a 02       		.byte	0x2
 1229 008b 4E       		.byte	0x4e
 1230 008c 90000000 		.4byte	0x90
 1231 0090 03       		.uleb128 0x3
 1232 0091 08       		.byte	0x8
 1233 0092 07       		.byte	0x7
 1234 0093 41000000 		.4byte	.LASF12
 1235 0097 04       		.uleb128 0x4
 1236 0098 46040000 		.4byte	.LASF13
 1237 009c 03       		.byte	0x3
 1238 009d 2A       		.byte	0x2a
 1239 009e 3A000000 		.4byte	0x3a
 1240 00a2 04       		.uleb128 0x4
 1241 00a3 2D030000 		.4byte	.LASF14
 1242 00a7 03       		.byte	0x3
 1243 00a8 41       		.byte	0x41
 1244 00a9 5A000000 		.4byte	0x5a
 1245 00ad 04       		.uleb128 0x4
 1246 00ae B8030000 		.4byte	.LASF15
 1247 00b2 03       		.byte	0x3
 1248 00b3 42       		.byte	0x42
 1249 00b4 6C000000 		.4byte	0x6c
ARM GAS  /tmp/ccvgYHYM.s 			page 23


 1250 00b8 04       		.uleb128 0x4
 1251 00b9 0D000000 		.4byte	.LASF16
 1252 00bd 03       		.byte	0x3
 1253 00be 4E       		.byte	0x4e
 1254 00bf 85000000 		.4byte	0x85
 1255 00c3 04       		.uleb128 0x4
 1256 00c4 A4000000 		.4byte	.LASF17
 1257 00c8 04       		.byte	0x4
 1258 00c9 2B       		.byte	0x2b
 1259 00ca CE000000 		.4byte	0xce
 1260 00ce 03       		.uleb128 0x3
 1261 00cf 01       		.byte	0x1
 1262 00d0 02       		.byte	0x2
 1263 00d1 27030000 		.4byte	.LASF18
 1264 00d5 04       		.uleb128 0x4
 1265 00d6 1F020000 		.4byte	.LASF19
 1266 00da 04       		.byte	0x4
 1267 00db 2C       		.byte	0x2c
 1268 00dc 97000000 		.4byte	0x97
 1269 00e0 04       		.uleb128 0x4
 1270 00e1 DF000000 		.4byte	.LASF20
 1271 00e5 04       		.byte	0x4
 1272 00e6 2D       		.byte	0x2d
 1273 00e7 97000000 		.4byte	0x97
 1274 00eb 04       		.uleb128 0x4
 1275 00ec 08030000 		.4byte	.LASF21
 1276 00f0 04       		.byte	0x4
 1277 00f1 2E       		.byte	0x2e
 1278 00f2 97000000 		.4byte	0x97
 1279 00f6 04       		.uleb128 0x4
 1280 00f7 C3000000 		.4byte	.LASF22
 1281 00fb 04       		.byte	0x4
 1282 00fc 2F       		.byte	0x2f
 1283 00fd 97000000 		.4byte	0x97
 1284 0101 04       		.uleb128 0x4
 1285 0102 1F030000 		.4byte	.LASF23
 1286 0106 04       		.byte	0x4
 1287 0107 30       		.byte	0x30
 1288 0108 AD000000 		.4byte	0xad
 1289 010c 04       		.uleb128 0x4
 1290 010d 91010000 		.4byte	.LASF24
 1291 0111 04       		.byte	0x4
 1292 0112 31       		.byte	0x31
 1293 0113 A2000000 		.4byte	0xa2
 1294 0117 04       		.uleb128 0x4
 1295 0118 3F020000 		.4byte	.LASF25
 1296 011c 04       		.byte	0x4
 1297 011d 33       		.byte	0x33
 1298 011e AD000000 		.4byte	0xad
 1299 0122 04       		.uleb128 0x4
 1300 0123 CD030000 		.4byte	.LASF26
 1301 0127 04       		.byte	0x4
 1302 0128 35       		.byte	0x35
 1303 0129 AD000000 		.4byte	0xad
 1304 012d 04       		.uleb128 0x4
 1305 012e 13010000 		.4byte	.LASF27
 1306 0132 04       		.byte	0x4
ARM GAS  /tmp/ccvgYHYM.s 			page 24


 1307 0133 36       		.byte	0x36
 1308 0134 A2000000 		.4byte	0xa2
 1309 0138 04       		.uleb128 0x4
 1310 0139 9D030000 		.4byte	.LASF28
 1311 013d 05       		.byte	0x5
 1312 013e 2A       		.byte	0x2a
 1313 013f 43010000 		.4byte	0x143
 1314 0143 05       		.uleb128 0x5
 1315 0144 9D030000 		.4byte	.LASF28
 1316 0148 48       		.byte	0x48
 1317 0149 06       		.byte	0x6
 1318 014a 5E       		.byte	0x5e
 1319 014b 40020000 		.4byte	0x240
 1320 014f 06       		.uleb128 0x6
 1321 0150 8E030000 		.4byte	.LASF29
 1322 0154 06       		.byte	0x6
 1323 0155 5F       		.byte	0x5f
 1324 0156 61020000 		.4byte	0x261
 1325 015a 00       		.byte	0
 1326 015b 06       		.uleb128 0x6
 1327 015c 10030000 		.4byte	.LASF30
 1328 0160 06       		.byte	0x6
 1329 0161 61       		.byte	0x61
 1330 0162 61020000 		.4byte	0x261
 1331 0166 04       		.byte	0x4
 1332 0167 06       		.uleb128 0x6
 1333 0168 7B000000 		.4byte	.LASF31
 1334 016c 06       		.byte	0x6
 1335 016d 63       		.byte	0x63
 1336 016e 01010000 		.4byte	0x101
 1337 0172 08       		.byte	0x8
 1338 0173 06       		.uleb128 0x6
 1339 0174 71040000 		.4byte	.LASF32
 1340 0178 06       		.byte	0x6
 1341 0179 64       		.byte	0x64
 1342 017a 26030000 		.4byte	0x326
 1343 017e 0C       		.byte	0xc
 1344 017f 06       		.uleb128 0x6
 1345 0180 EF000000 		.4byte	.LASF33
 1346 0184 06       		.byte	0x6
 1347 0185 66       		.byte	0x66
 1348 0186 61020000 		.4byte	0x261
 1349 018a 10       		.byte	0x10
 1350 018b 06       		.uleb128 0x6
 1351 018c B4020000 		.4byte	.LASF34
 1352 0190 06       		.byte	0x6
 1353 0191 67       		.byte	0x67
 1354 0192 61020000 		.4byte	0x261
 1355 0196 14       		.byte	0x14
 1356 0197 06       		.uleb128 0x6
 1357 0198 55040000 		.4byte	.LASF35
 1358 019c 06       		.byte	0x6
 1359 019d 6E       		.byte	0x6e
 1360 019e 5C040000 		.4byte	0x45c
 1361 01a2 18       		.byte	0x18
 1362 01a3 06       		.uleb128 0x6
 1363 01a4 75030000 		.4byte	.LASF36
ARM GAS  /tmp/ccvgYHYM.s 			page 25


 1364 01a8 06       		.byte	0x6
 1365 01a9 79       		.byte	0x79
 1366 01aa E0000000 		.4byte	0xe0
 1367 01ae 1C       		.byte	0x1c
 1368 01af 06       		.uleb128 0x6
 1369 01b0 95030000 		.4byte	.LASF37
 1370 01b4 06       		.byte	0x6
 1371 01b5 7D       		.byte	0x7d
 1372 01b6 D5000000 		.4byte	0xd5
 1373 01ba 1D       		.byte	0x1d
 1374 01bb 06       		.uleb128 0x6
 1375 01bc 3F040000 		.4byte	.LASF38
 1376 01c0 06       		.byte	0x6
 1377 01c1 82       		.byte	0x82
 1378 01c2 EB000000 		.4byte	0xeb
 1379 01c6 1E       		.byte	0x1e
 1380 01c7 06       		.uleb128 0x6
 1381 01c8 7D030000 		.4byte	.LASF39
 1382 01cc 06       		.byte	0x6
 1383 01cd 88       		.byte	0x88
 1384 01ce F6000000 		.4byte	0xf6
 1385 01d2 1F       		.byte	0x1f
 1386 01d3 06       		.uleb128 0x6
 1387 01d4 EC030000 		.4byte	.LASF40
 1388 01d8 06       		.byte	0x6
 1389 01d9 8F       		.byte	0x8f
 1390 01da 4E030000 		.4byte	0x34e
 1391 01de 20       		.byte	0x20
 1392 01df 07       		.uleb128 0x7
 1393 01e0 705F7500 		.ascii	"p_u\000"
 1394 01e4 06       		.byte	0x6
 1395 01e5 B4       		.byte	0xb4
 1396 01e6 27040000 		.4byte	0x427
 1397 01ea 24       		.byte	0x24
 1398 01eb 06       		.uleb128 0x6
 1399 01ec 77040000 		.4byte	.LASF41
 1400 01f0 06       		.byte	0x6
 1401 01f1 B9       		.byte	0xb9
 1402 01f2 87020000 		.4byte	0x287
 1403 01f6 28       		.byte	0x28
 1404 01f7 06       		.uleb128 0x6
 1405 01f8 08040000 		.4byte	.LASF42
 1406 01fc 06       		.byte	0x6
 1407 01fd BF       		.byte	0xbf
 1408 01fe 67020000 		.4byte	0x267
 1409 0202 2C       		.byte	0x2c
 1410 0203 06       		.uleb128 0x6
 1411 0204 00000000 		.4byte	.LASF43
 1412 0208 06       		.byte	0x6
 1413 0209 C3       		.byte	0xc3
 1414 020a 0C010000 		.4byte	0x10c
 1415 020e 34       		.byte	0x34
 1416 020f 06       		.uleb128 0x6
 1417 0210 AD030000 		.4byte	.LASF44
 1418 0214 06       		.byte	0x6
 1419 0215 C9       		.byte	0xc9
 1420 0216 17010000 		.4byte	0x117
ARM GAS  /tmp/ccvgYHYM.s 			page 26


 1421 021a 38       		.byte	0x38
 1422 021b 06       		.uleb128 0x6
 1423 021c 4A030000 		.4byte	.LASF45
 1424 0220 06       		.byte	0x6
 1425 0221 D0       		.byte	0xd0
 1426 0222 6E040000 		.4byte	0x46e
 1427 0226 3C       		.byte	0x3c
 1428 0227 06       		.uleb128 0x6
 1429 0228 D7030000 		.4byte	.LASF46
 1430 022c 06       		.byte	0x6
 1431 022d D4       		.byte	0xd4
 1432 022e 01010000 		.4byte	0x101
 1433 0232 40       		.byte	0x40
 1434 0233 06       		.uleb128 0x6
 1435 0234 9C000000 		.4byte	.LASF47
 1436 0238 06       		.byte	0x6
 1437 0239 DA       		.byte	0xda
 1438 023a 9D020000 		.4byte	0x29d
 1439 023e 44       		.byte	0x44
 1440 023f 00       		.byte	0
 1441 0240 08       		.uleb128 0x8
 1442 0241 08       		.byte	0x8
 1443 0242 05       		.byte	0x5
 1444 0243 61       		.byte	0x61
 1445 0244 61020000 		.4byte	0x261
 1446 0248 06       		.uleb128 0x6
 1447 0249 8E030000 		.4byte	.LASF29
 1448 024d 05       		.byte	0x5
 1449 024e 62       		.byte	0x62
 1450 024f 61020000 		.4byte	0x261
 1451 0253 00       		.byte	0
 1452 0254 06       		.uleb128 0x6
 1453 0255 10030000 		.4byte	.LASF30
 1454 0259 05       		.byte	0x5
 1455 025a 64       		.byte	0x64
 1456 025b 61020000 		.4byte	0x261
 1457 025f 04       		.byte	0x4
 1458 0260 00       		.byte	0
 1459 0261 09       		.uleb128 0x9
 1460 0262 04       		.byte	0x4
 1461 0263 38010000 		.4byte	0x138
 1462 0267 04       		.uleb128 0x4
 1463 0268 BC020000 		.4byte	.LASF48
 1464 026c 05       		.byte	0x5
 1465 026d 66       		.byte	0x66
 1466 026e 40020000 		.4byte	0x240
 1467 0272 08       		.uleb128 0x8
 1468 0273 04       		.byte	0x4
 1469 0274 05       		.byte	0x5
 1470 0275 6B       		.byte	0x6b
 1471 0276 87020000 		.4byte	0x287
 1472 027a 06       		.uleb128 0x6
 1473 027b 8E030000 		.4byte	.LASF29
 1474 027f 05       		.byte	0x5
 1475 0280 6D       		.byte	0x6d
 1476 0281 61020000 		.4byte	0x261
 1477 0285 00       		.byte	0
ARM GAS  /tmp/ccvgYHYM.s 			page 27


 1478 0286 00       		.byte	0
 1479 0287 04       		.uleb128 0x4
 1480 0288 33020000 		.4byte	.LASF49
 1481 028c 05       		.byte	0x5
 1482 028d 70       		.byte	0x70
 1483 028e 72020000 		.4byte	0x272
 1484 0292 04       		.uleb128 0x4
 1485 0293 0A010000 		.4byte	.LASF50
 1486 0297 07       		.byte	0x7
 1487 0298 E5       		.byte	0xe5
 1488 0299 9D020000 		.4byte	0x29d
 1489 029d 0A       		.uleb128 0xa
 1490 029e 04       		.byte	0x4
 1491 029f 04       		.uleb128 0x4
 1492 02a0 65020000 		.4byte	.LASF51
 1493 02a4 07       		.byte	0x7
 1494 02a5 EB       		.byte	0xeb
 1495 02a6 B8000000 		.4byte	0xb8
 1496 02aa 0B       		.uleb128 0xb
 1497 02ab 01040000 		.4byte	.LASF52
 1498 02af 24       		.byte	0x24
 1499 02b0 07       		.byte	0x7
 1500 02b1 0C01     		.2byte	0x10c
 1501 02b3 26030000 		.4byte	0x326
 1502 02b7 0C       		.uleb128 0xc
 1503 02b8 723400   		.ascii	"r4\000"
 1504 02bb 07       		.byte	0x7
 1505 02bc 1F01     		.2byte	0x11f
 1506 02be 92020000 		.4byte	0x292
 1507 02c2 00       		.byte	0
 1508 02c3 0C       		.uleb128 0xc
 1509 02c4 723500   		.ascii	"r5\000"
 1510 02c7 07       		.byte	0x7
 1511 02c8 2001     		.2byte	0x120
 1512 02ca 92020000 		.4byte	0x292
 1513 02ce 04       		.byte	0x4
 1514 02cf 0C       		.uleb128 0xc
 1515 02d0 723600   		.ascii	"r6\000"
 1516 02d3 07       		.byte	0x7
 1517 02d4 2101     		.2byte	0x121
 1518 02d6 92020000 		.4byte	0x292
 1519 02da 08       		.byte	0x8
 1520 02db 0C       		.uleb128 0xc
 1521 02dc 723700   		.ascii	"r7\000"
 1522 02df 07       		.byte	0x7
 1523 02e0 2201     		.2byte	0x122
 1524 02e2 92020000 		.4byte	0x292
 1525 02e6 0C       		.byte	0xc
 1526 02e7 0C       		.uleb128 0xc
 1527 02e8 723800   		.ascii	"r8\000"
 1528 02eb 07       		.byte	0x7
 1529 02ec 2301     		.2byte	0x123
 1530 02ee 92020000 		.4byte	0x292
 1531 02f2 10       		.byte	0x10
 1532 02f3 0C       		.uleb128 0xc
 1533 02f4 723900   		.ascii	"r9\000"
 1534 02f7 07       		.byte	0x7
ARM GAS  /tmp/ccvgYHYM.s 			page 28


 1535 02f8 2401     		.2byte	0x124
 1536 02fa 92020000 		.4byte	0x292
 1537 02fe 14       		.byte	0x14
 1538 02ff 0C       		.uleb128 0xc
 1539 0300 72313000 		.ascii	"r10\000"
 1540 0304 07       		.byte	0x7
 1541 0305 2501     		.2byte	0x125
 1542 0307 92020000 		.4byte	0x292
 1543 030b 18       		.byte	0x18
 1544 030c 0C       		.uleb128 0xc
 1545 030d 72313100 		.ascii	"r11\000"
 1546 0311 07       		.byte	0x7
 1547 0312 2601     		.2byte	0x126
 1548 0314 92020000 		.4byte	0x292
 1549 0318 1C       		.byte	0x1c
 1550 0319 0C       		.uleb128 0xc
 1551 031a 6C7200   		.ascii	"lr\000"
 1552 031d 07       		.byte	0x7
 1553 031e 2701     		.2byte	0x127
 1554 0320 92020000 		.4byte	0x292
 1555 0324 20       		.byte	0x20
 1556 0325 00       		.byte	0
 1557 0326 0B       		.uleb128 0xb
 1558 0327 6B010000 		.4byte	.LASF53
 1559 032b 04       		.byte	0x4
 1560 032c 07       		.byte	0x7
 1561 032d 3101     		.2byte	0x131
 1562 032f 41030000 		.4byte	0x341
 1563 0333 0C       		.uleb128 0xc
 1564 0334 72313300 		.ascii	"r13\000"
 1565 0338 07       		.byte	0x7
 1566 0339 3201     		.2byte	0x132
 1567 033b 41030000 		.4byte	0x341
 1568 033f 00       		.byte	0
 1569 0340 00       		.byte	0
 1570 0341 09       		.uleb128 0x9
 1571 0342 04       		.byte	0x4
 1572 0343 AA020000 		.4byte	0x2aa
 1573 0347 03       		.uleb128 0x3
 1574 0348 04       		.byte	0x4
 1575 0349 07       		.byte	0x7
 1576 034a 98020000 		.4byte	.LASF54
 1577 034e 0D       		.uleb128 0xd
 1578 034f 22010000 		.4byte	0x122
 1579 0353 05       		.uleb128 0x5
 1580 0354 1D040000 		.4byte	.LASF55
 1581 0358 0C       		.byte	0xc
 1582 0359 08       		.byte	0x8
 1583 035a 2C       		.byte	0x2c
 1584 035b 78030000 		.4byte	0x378
 1585 035f 06       		.uleb128 0x6
 1586 0360 F7000000 		.4byte	.LASF56
 1587 0364 08       		.byte	0x8
 1588 0365 2D       		.byte	0x2d
 1589 0366 67020000 		.4byte	0x267
 1590 036a 00       		.byte	0
 1591 036b 06       		.uleb128 0x6
ARM GAS  /tmp/ccvgYHYM.s 			page 29


 1592 036c 65010000 		.4byte	.LASF57
 1593 0370 08       		.byte	0x8
 1594 0371 2F       		.byte	0x2f
 1595 0372 2D010000 		.4byte	0x12d
 1596 0376 08       		.byte	0x8
 1597 0377 00       		.byte	0
 1598 0378 04       		.uleb128 0x4
 1599 0379 1D040000 		.4byte	.LASF55
 1600 037d 08       		.byte	0x8
 1601 037e 30       		.byte	0x30
 1602 037f 53030000 		.4byte	0x353
 1603 0383 05       		.uleb128 0x5
 1604 0384 55020000 		.4byte	.LASF58
 1605 0388 10       		.byte	0x10
 1606 0389 09       		.byte	0x9
 1607 038a 2C       		.byte	0x2c
 1608 038b B4030000 		.4byte	0x3b4
 1609 038f 06       		.uleb128 0x6
 1610 0390 AB000000 		.4byte	.LASF59
 1611 0394 09       		.byte	0x9
 1612 0395 2D       		.byte	0x2d
 1613 0396 67020000 		.4byte	0x267
 1614 039a 00       		.byte	0
 1615 039b 06       		.uleb128 0x6
 1616 039c 69040000 		.4byte	.LASF60
 1617 03a0 09       		.byte	0x9
 1618 03a1 2F       		.byte	0x2f
 1619 03a2 61020000 		.4byte	0x261
 1620 03a6 08       		.byte	0x8
 1621 03a7 06       		.uleb128 0x6
 1622 03a8 C6030000 		.4byte	.LASF61
 1623 03ac 09       		.byte	0x9
 1624 03ad 31       		.byte	0x31
 1625 03ae B4030000 		.4byte	0x3b4
 1626 03b2 0C       		.byte	0xc
 1627 03b3 00       		.byte	0
 1628 03b4 09       		.uleb128 0x9
 1629 03b5 04       		.byte	0x4
 1630 03b6 83030000 		.4byte	0x383
 1631 03ba 04       		.uleb128 0x4
 1632 03bb 55020000 		.4byte	.LASF58
 1633 03bf 09       		.byte	0x9
 1634 03c0 33       		.byte	0x33
 1635 03c1 83030000 		.4byte	0x383
 1636 03c5 08       		.uleb128 0x8
 1637 03c6 28       		.byte	0x28
 1638 03c7 0A       		.byte	0xa
 1639 03c8 33       		.byte	0x33
 1640 03c9 16040000 		.4byte	0x416
 1641 03cd 06       		.uleb128 0x6
 1642 03ce E5020000 		.4byte	.LASF62
 1643 03d2 0A       		.byte	0xa
 1644 03d3 34       		.byte	0x34
 1645 03d4 16040000 		.4byte	0x416
 1646 03d8 00       		.byte	0
 1647 03d9 06       		.uleb128 0x6
 1648 03da 43030000 		.4byte	.LASF63
ARM GAS  /tmp/ccvgYHYM.s 			page 30


 1649 03de 0A       		.byte	0xa
 1650 03df 36       		.byte	0x36
 1651 03e0 16040000 		.4byte	0x416
 1652 03e4 04       		.byte	0x4
 1653 03e5 06       		.uleb128 0x6
 1654 03e6 72000000 		.4byte	.LASF64
 1655 03ea 0A       		.byte	0xa
 1656 03eb 38       		.byte	0x38
 1657 03ec 16040000 		.4byte	0x416
 1658 03f0 08       		.byte	0x8
 1659 03f1 06       		.uleb128 0x6
 1660 03f2 A1020000 		.4byte	.LASF65
 1661 03f6 0A       		.byte	0xa
 1662 03f7 39       		.byte	0x39
 1663 03f8 16040000 		.4byte	0x416
 1664 03fc 0C       		.byte	0xc
 1665 03fd 06       		.uleb128 0x6
 1666 03fe 27040000 		.4byte	.LASF66
 1667 0402 0A       		.byte	0xa
 1668 0403 3A       		.byte	0x3a
 1669 0404 78030000 		.4byte	0x378
 1670 0408 10       		.byte	0x10
 1671 0409 06       		.uleb128 0x6
 1672 040a 54010000 		.4byte	.LASF67
 1673 040e 0A       		.byte	0xa
 1674 040f 3C       		.byte	0x3c
 1675 0410 78030000 		.4byte	0x378
 1676 0414 1C       		.byte	0x1c
 1677 0415 00       		.byte	0
 1678 0416 09       		.uleb128 0x9
 1679 0417 04       		.byte	0x4
 1680 0418 0C010000 		.4byte	0x10c
 1681 041c 04       		.uleb128 0x4
 1682 041d 2A000000 		.4byte	.LASF68
 1683 0421 0A       		.byte	0xa
 1684 0422 3E       		.byte	0x3e
 1685 0423 C5030000 		.4byte	0x3c5
 1686 0427 0E       		.uleb128 0xe
 1687 0428 04       		.byte	0x4
 1688 0429 06       		.byte	0x6
 1689 042a 96       		.byte	0x96
 1690 042b 5C040000 		.4byte	0x45c
 1691 042f 0F       		.uleb128 0xf
 1692 0430 06000000 		.4byte	.LASF69
 1693 0434 06       		.byte	0x6
 1694 0435 9D       		.byte	0x9d
 1695 0436 0C010000 		.4byte	0x10c
 1696 043a 0F       		.uleb128 0xf
 1697 043b 64000000 		.4byte	.LASF70
 1698 043f 06       		.byte	0x6
 1699 0440 A4       		.byte	0xa4
 1700 0441 0C010000 		.4byte	0x10c
 1701 0445 0F       		.uleb128 0xf
 1702 0446 4E040000 		.4byte	.LASF71
 1703 044a 06       		.byte	0x6
 1704 044b AB       		.byte	0xab
 1705 044c 9D020000 		.4byte	0x29d
ARM GAS  /tmp/ccvgYHYM.s 			page 31


 1706 0450 0F       		.uleb128 0xf
 1707 0451 87030000 		.4byte	.LASF72
 1708 0455 06       		.byte	0x6
 1709 0456 B2       		.byte	0xb2
 1710 0457 17010000 		.4byte	0x117
 1711 045b 00       		.byte	0
 1712 045c 09       		.uleb128 0x9
 1713 045d 04       		.byte	0x4
 1714 045e 62040000 		.4byte	0x462
 1715 0462 10       		.uleb128 0x10
 1716 0463 67040000 		.4byte	0x467
 1717 0467 03       		.uleb128 0x3
 1718 0468 01       		.byte	0x1
 1719 0469 08       		.byte	0x8
 1720 046a C1030000 		.4byte	.LASF73
 1721 046e 09       		.uleb128 0x9
 1722 046f 04       		.byte	0x4
 1723 0470 BA030000 		.4byte	0x3ba
 1724 0474 05       		.uleb128 0x5
 1725 0475 A4030000 		.4byte	.LASF74
 1726 0479 10       		.byte	0x10
 1727 047a 0B       		.byte	0xb
 1728 047b 3B       		.byte	0x3b
 1729 047c B1040000 		.4byte	0x4b1
 1730 0480 06       		.uleb128 0x6
 1731 0481 60010000 		.4byte	.LASF75
 1732 0485 0B       		.byte	0xb
 1733 0486 3C       		.byte	0x3c
 1734 0487 5C040000 		.4byte	0x45c
 1735 048b 00       		.byte	0
 1736 048c 06       		.uleb128 0x6
 1737 048d C9020000 		.4byte	.LASF76
 1738 0491 0B       		.byte	0xb
 1739 0492 3D       		.byte	0x3d
 1740 0493 B2040000 		.4byte	0x4b2
 1741 0497 04       		.byte	0x4
 1742 0498 06       		.uleb128 0x6
 1743 0499 4B010000 		.4byte	.LASF77
 1744 049d 0B       		.byte	0xb
 1745 049e 3E       		.byte	0x3e
 1746 049f B2040000 		.4byte	0x4b2
 1747 04a3 08       		.byte	0x8
 1748 04a4 06       		.uleb128 0x6
 1749 04a5 17030000 		.4byte	.LASF78
 1750 04a9 0B       		.byte	0xb
 1751 04aa 3F       		.byte	0x3f
 1752 04ab B2040000 		.4byte	0x4b2
 1753 04af 0C       		.byte	0xc
 1754 04b0 00       		.byte	0
 1755 04b1 11       		.uleb128 0x11
 1756 04b2 09       		.uleb128 0x9
 1757 04b3 04       		.byte	0x4
 1758 04b4 B1040000 		.4byte	0x4b1
 1759 04b8 12       		.uleb128 0x12
 1760 04b9 9006     		.2byte	0x690
 1761 04bb 0B       		.byte	0xb
 1762 04bc 44       		.byte	0x44
ARM GAS  /tmp/ccvgYHYM.s 			page 32


 1763 04bd FD040000 		.4byte	0x4fd
 1764 04c1 07       		.uleb128 0x7
 1765 04c2 543000   		.ascii	"T0\000"
 1766 04c5 0B       		.byte	0xb
 1767 04c6 45       		.byte	0x45
 1768 04c7 FD040000 		.4byte	0x4fd
 1769 04cb 00       		.byte	0
 1770 04cc 13       		.uleb128 0x13
 1771 04cd 543100   		.ascii	"T1\000"
 1772 04d0 0B       		.byte	0xb
 1773 04d1 46       		.byte	0x46
 1774 04d2 FD040000 		.4byte	0x4fd
 1775 04d6 5001     		.2byte	0x150
 1776 04d8 13       		.uleb128 0x13
 1777 04d9 543200   		.ascii	"T2\000"
 1778 04dc 0B       		.byte	0xb
 1779 04dd 47       		.byte	0x47
 1780 04de FD040000 		.4byte	0x4fd
 1781 04e2 A002     		.2byte	0x2a0
 1782 04e4 13       		.uleb128 0x13
 1783 04e5 543300   		.ascii	"T3\000"
 1784 04e8 0B       		.byte	0xb
 1785 04e9 48       		.byte	0x48
 1786 04ea FD040000 		.4byte	0x4fd
 1787 04ee F003     		.2byte	0x3f0
 1788 04f0 13       		.uleb128 0x13
 1789 04f1 543400   		.ascii	"T4\000"
 1790 04f4 0B       		.byte	0xb
 1791 04f5 49       		.byte	0x49
 1792 04f6 FD040000 		.4byte	0x4fd
 1793 04fa 4005     		.2byte	0x540
 1794 04fc 00       		.byte	0
 1795 04fd 14       		.uleb128 0x14
 1796 04fe 9F020000 		.4byte	0x29f
 1797 0502 0D050000 		.4byte	0x50d
 1798 0506 15       		.uleb128 0x15
 1799 0507 47030000 		.4byte	0x347
 1800 050b 29       		.byte	0x29
 1801 050c 00       		.byte	0
 1802 050d 16       		.uleb128 0x16
 1803 050e 32040000 		.4byte	.LASF100
 1804 0512 9006     		.2byte	0x690
 1805 0514 0B       		.byte	0xb
 1806 0515 43       		.byte	0x43
 1807 0516 30050000 		.4byte	0x530
 1808 051a 17       		.uleb128 0x17
 1809 051b 776100   		.ascii	"wa\000"
 1810 051e 0B       		.byte	0xb
 1811 051f 4A       		.byte	0x4a
 1812 0520 B8040000 		.4byte	0x4b8
 1813 0524 0F       		.uleb128 0xf
 1814 0525 E8000000 		.4byte	.LASF79
 1815 0529 0B       		.byte	0xb
 1816 052a 4B       		.byte	0x4b
 1817 052b 30050000 		.4byte	0x530
 1818 052f 00       		.byte	0
 1819 0530 14       		.uleb128 0x14
ARM GAS  /tmp/ccvgYHYM.s 			page 33


 1820 0531 97000000 		.4byte	0x97
 1821 0535 41050000 		.4byte	0x541
 1822 0539 18       		.uleb128 0x18
 1823 053a 47030000 		.4byte	0x347
 1824 053e 8F06     		.2byte	0x68f
 1825 0540 00       		.byte	0
 1826 0541 19       		.uleb128 0x19
 1827 0542 EF020000 		.4byte	.LASF82
 1828 0546 01       		.byte	0x1
 1829 0547 4C       		.byte	0x4c
 1830 0548 00000000 		.4byte	.LFB8
 1831 054c 7C060000 		.4byte	.LFE8-.LFB8
 1832 0550 01       		.uleb128 0x1
 1833 0551 9C       		.byte	0x9c
 1834 0552 EE100000 		.4byte	0x10ee
 1835 0556 1A       		.uleb128 0x1a
 1836 0557 2F010000 		.4byte	.LASF80
 1837 055b 01       		.byte	0x1
 1838 055c 4D       		.byte	0x4d
 1839 055d 0C010000 		.4byte	0x10c
 1840 0561 00000000 		.4byte	.LLST0
 1841 0565 1B       		.uleb128 0x1b
 1842 0566 34010000 		.4byte	.LASF81
 1843 056a 01       		.byte	0x1
 1844 056b 4D       		.byte	0x4d
 1845 056c 0C010000 		.4byte	0x10c
 1846 0570 02       		.uleb128 0x2
 1847 0571 91       		.byte	0x91
 1848 0572 6C       		.sleb128 -20
 1849 0573 1C       		.uleb128 0x1c
 1850 0574 6900     		.ascii	"i\000"
 1851 0576 01       		.byte	0x1
 1852 0577 4E       		.byte	0x4e
 1853 0578 2C000000 		.4byte	0x2c
 1854 057c 53010000 		.4byte	.LLST1
 1855 0580 1D       		.uleb128 0x1d
 1856 0581 94000000 		.4byte	.LBB2
 1857 0585 06000000 		.4byte	.LBE2-.LBB2
 1858 0589 9B050000 		.4byte	0x59b
 1859 058d 1E       		.uleb128 0x1e
 1860 058e 746D7000 		.ascii	"tmp\000"
 1861 0592 01       		.byte	0x1
 1862 0593 64       		.byte	0x64
 1863 0594 AD000000 		.4byte	0xad
 1864 0598 01       		.uleb128 0x1
 1865 0599 53       		.byte	0x53
 1866 059a 00       		.byte	0
 1867 059b 1F       		.uleb128 0x1f
 1868 059c 00000000 		.4byte	.Ldebug_ranges0+0
 1869 05a0 B2050000 		.4byte	0x5b2
 1870 05a4 1E       		.uleb128 0x1e
 1871 05a5 746D7000 		.ascii	"tmp\000"
 1872 05a9 01       		.byte	0x1
 1873 05aa 66       		.byte	0x66
 1874 05ab AD000000 		.4byte	0xad
 1875 05af 01       		.uleb128 0x1
 1876 05b0 53       		.byte	0x53
ARM GAS  /tmp/ccvgYHYM.s 			page 34


 1877 05b1 00       		.byte	0
 1878 05b2 1D       		.uleb128 0x1d
 1879 05b3 E4000000 		.4byte	.LBB5
 1880 05b7 06000000 		.4byte	.LBE5-.LBB5
 1881 05bb CD050000 		.4byte	0x5cd
 1882 05bf 1E       		.uleb128 0x1e
 1883 05c0 746D7000 		.ascii	"tmp\000"
 1884 05c4 01       		.byte	0x1
 1885 05c5 6A       		.byte	0x6a
 1886 05c6 AD000000 		.4byte	0xad
 1887 05ca 01       		.uleb128 0x1
 1888 05cb 53       		.byte	0x53
 1889 05cc 00       		.byte	0
 1890 05cd 1F       		.uleb128 0x1f
 1891 05ce 18000000 		.4byte	.Ldebug_ranges0+0x18
 1892 05d2 E4050000 		.4byte	0x5e4
 1893 05d6 1E       		.uleb128 0x1e
 1894 05d7 746D7000 		.ascii	"tmp\000"
 1895 05db 01       		.byte	0x1
 1896 05dc 6C       		.byte	0x6c
 1897 05dd AD000000 		.4byte	0xad
 1898 05e1 01       		.uleb128 0x1
 1899 05e2 53       		.byte	0x53
 1900 05e3 00       		.byte	0
 1901 05e4 1D       		.uleb128 0x1d
 1902 05e5 12010000 		.4byte	.LBB8
 1903 05e9 06000000 		.4byte	.LBE8-.LBB8
 1904 05ed FF050000 		.4byte	0x5ff
 1905 05f1 1E       		.uleb128 0x1e
 1906 05f2 746D7000 		.ascii	"tmp\000"
 1907 05f6 01       		.byte	0x1
 1908 05f7 72       		.byte	0x72
 1909 05f8 AD000000 		.4byte	0xad
 1910 05fc 01       		.uleb128 0x1
 1911 05fd 53       		.byte	0x53
 1912 05fe 00       		.byte	0
 1913 05ff 1D       		.uleb128 0x1d
 1914 0600 2C010000 		.4byte	.LBB9
 1915 0604 02000000 		.4byte	.LBE9-.LBB9
 1916 0608 1A060000 		.4byte	0x61a
 1917 060c 1E       		.uleb128 0x1e
 1918 060d 746D7000 		.ascii	"tmp\000"
 1919 0611 01       		.byte	0x1
 1920 0612 DB       		.byte	0xdb
 1921 0613 AD000000 		.4byte	0xad
 1922 0617 01       		.uleb128 0x1
 1923 0618 53       		.byte	0x53
 1924 0619 00       		.byte	0
 1925 061a 1D       		.uleb128 0x1d
 1926 061b 2E010000 		.4byte	.LBB10
 1927 061f 04000000 		.4byte	.LBE10-.LBB10
 1928 0623 35060000 		.4byte	0x635
 1929 0627 1E       		.uleb128 0x1e
 1930 0628 746D7000 		.ascii	"tmp\000"
 1931 062c 01       		.byte	0x1
 1932 062d DB       		.byte	0xdb
 1933 062e AD000000 		.4byte	0xad
ARM GAS  /tmp/ccvgYHYM.s 			page 35


 1934 0632 01       		.uleb128 0x1
 1935 0633 53       		.byte	0x53
 1936 0634 00       		.byte	0
 1937 0635 1D       		.uleb128 0x1d
 1938 0636 34010000 		.4byte	.LBB11
 1939 063a 04000000 		.4byte	.LBE11-.LBB11
 1940 063e 50060000 		.4byte	0x650
 1941 0642 1E       		.uleb128 0x1e
 1942 0643 746D7000 		.ascii	"tmp\000"
 1943 0647 01       		.byte	0x1
 1944 0648 72       		.byte	0x72
 1945 0649 AD000000 		.4byte	0xad
 1946 064d 01       		.uleb128 0x1
 1947 064e 53       		.byte	0x53
 1948 064f 00       		.byte	0
 1949 0650 1D       		.uleb128 0x1d
 1950 0651 38010000 		.4byte	.LBB12
 1951 0655 06000000 		.4byte	.LBE12-.LBB12
 1952 0659 6B060000 		.4byte	0x66b
 1953 065d 1E       		.uleb128 0x1e
 1954 065e 746D7000 		.ascii	"tmp\000"
 1955 0662 01       		.byte	0x1
 1956 0663 73       		.byte	0x73
 1957 0664 AD000000 		.4byte	0xad
 1958 0668 01       		.uleb128 0x1
 1959 0669 53       		.byte	0x53
 1960 066a 00       		.byte	0
 1961 066b 1D       		.uleb128 0x1d
 1962 066c 58010000 		.4byte	.LBB13
 1963 0670 04000000 		.4byte	.LBE13-.LBB13
 1964 0674 86060000 		.4byte	0x686
 1965 0678 1E       		.uleb128 0x1e
 1966 0679 746D7000 		.ascii	"tmp\000"
 1967 067d 01       		.byte	0x1
 1968 067e 73       		.byte	0x73
 1969 067f AD000000 		.4byte	0xad
 1970 0683 01       		.uleb128 0x1
 1971 0684 53       		.byte	0x53
 1972 0685 00       		.byte	0
 1973 0686 1D       		.uleb128 0x1d
 1974 0687 5C010000 		.4byte	.LBB14
 1975 068b 06000000 		.4byte	.LBE14-.LBB14
 1976 068f A1060000 		.4byte	0x6a1
 1977 0693 1E       		.uleb128 0x1e
 1978 0694 746D7000 		.ascii	"tmp\000"
 1979 0698 01       		.byte	0x1
 1980 0699 74       		.byte	0x74
 1981 069a AD000000 		.4byte	0xad
 1982 069e 01       		.uleb128 0x1
 1983 069f 53       		.byte	0x53
 1984 06a0 00       		.byte	0
 1985 06a1 1D       		.uleb128 0x1d
 1986 06a2 78010000 		.4byte	.LBB15
 1987 06a6 02000000 		.4byte	.LBE15-.LBB15
 1988 06aa BC060000 		.4byte	0x6bc
 1989 06ae 1E       		.uleb128 0x1e
 1990 06af 746D7000 		.ascii	"tmp\000"
ARM GAS  /tmp/ccvgYHYM.s 			page 36


 1991 06b3 01       		.byte	0x1
 1992 06b4 74       		.byte	0x74
 1993 06b5 AD000000 		.4byte	0xad
 1994 06b9 01       		.uleb128 0x1
 1995 06ba 53       		.byte	0x53
 1996 06bb 00       		.byte	0
 1997 06bc 1D       		.uleb128 0x1d
 1998 06bd 7E010000 		.4byte	.LBB16
 1999 06c1 08000000 		.4byte	.LBE16-.LBB16
 2000 06c5 D7060000 		.4byte	0x6d7
 2001 06c9 1E       		.uleb128 0x1e
 2002 06ca 746D7000 		.ascii	"tmp\000"
 2003 06ce 01       		.byte	0x1
 2004 06cf 74       		.byte	0x74
 2005 06d0 AD000000 		.4byte	0xad
 2006 06d4 01       		.uleb128 0x1
 2007 06d5 53       		.byte	0x53
 2008 06d6 00       		.byte	0
 2009 06d7 1D       		.uleb128 0x1d
 2010 06d8 58020000 		.4byte	.LBB17
 2011 06dc 06000000 		.4byte	.LBE17-.LBB17
 2012 06e0 F2060000 		.4byte	0x6f2
 2013 06e4 1E       		.uleb128 0x1e
 2014 06e5 746D7000 		.ascii	"tmp\000"
 2015 06e9 01       		.byte	0x1
 2016 06ea 8F       		.byte	0x8f
 2017 06eb AD000000 		.4byte	0xad
 2018 06ef 01       		.uleb128 0x1
 2019 06f0 53       		.byte	0x53
 2020 06f1 00       		.byte	0
 2021 06f2 1F       		.uleb128 0x1f
 2022 06f3 30000000 		.4byte	.Ldebug_ranges0+0x30
 2023 06f7 09070000 		.4byte	0x709
 2024 06fb 1E       		.uleb128 0x1e
 2025 06fc 746D7000 		.ascii	"tmp\000"
 2026 0700 01       		.byte	0x1
 2027 0701 91       		.byte	0x91
 2028 0702 AD000000 		.4byte	0xad
 2029 0706 01       		.uleb128 0x1
 2030 0707 53       		.byte	0x53
 2031 0708 00       		.byte	0
 2032 0709 1D       		.uleb128 0x1d
 2033 070a 8C020000 		.4byte	.LBB20
 2034 070e 06000000 		.4byte	.LBE20-.LBB20
 2035 0712 24070000 		.4byte	0x724
 2036 0716 1E       		.uleb128 0x1e
 2037 0717 746D7000 		.ascii	"tmp\000"
 2038 071b 01       		.byte	0x1
 2039 071c 97       		.byte	0x97
 2040 071d AD000000 		.4byte	0xad
 2041 0721 01       		.uleb128 0x1
 2042 0722 53       		.byte	0x53
 2043 0723 00       		.byte	0
 2044 0724 1D       		.uleb128 0x1d
 2045 0725 A6020000 		.4byte	.LBB21
 2046 0729 02000000 		.4byte	.LBE21-.LBB21
 2047 072d 3F070000 		.4byte	0x73f
ARM GAS  /tmp/ccvgYHYM.s 			page 37


 2048 0731 1E       		.uleb128 0x1e
 2049 0732 746D7000 		.ascii	"tmp\000"
 2050 0736 01       		.byte	0x1
 2051 0737 97       		.byte	0x97
 2052 0738 AD000000 		.4byte	0xad
 2053 073c 01       		.uleb128 0x1
 2054 073d 53       		.byte	0x53
 2055 073e 00       		.byte	0
 2056 073f 1D       		.uleb128 0x1d
 2057 0740 AE020000 		.4byte	.LBB22
 2058 0744 04000000 		.4byte	.LBE22-.LBB22
 2059 0748 5A070000 		.4byte	0x75a
 2060 074c 1E       		.uleb128 0x1e
 2061 074d 746D7000 		.ascii	"tmp\000"
 2062 0751 01       		.byte	0x1
 2063 0752 97       		.byte	0x97
 2064 0753 AD000000 		.4byte	0xad
 2065 0757 01       		.uleb128 0x1
 2066 0758 53       		.byte	0x53
 2067 0759 00       		.byte	0
 2068 075a 1D       		.uleb128 0x1d
 2069 075b B2020000 		.4byte	.LBB23
 2070 075f 06000000 		.4byte	.LBE23-.LBB23
 2071 0763 75070000 		.4byte	0x775
 2072 0767 1E       		.uleb128 0x1e
 2073 0768 746D7000 		.ascii	"tmp\000"
 2074 076c 01       		.byte	0x1
 2075 076d 98       		.byte	0x98
 2076 076e AD000000 		.4byte	0xad
 2077 0772 01       		.uleb128 0x1
 2078 0773 53       		.byte	0x53
 2079 0774 00       		.byte	0
 2080 0775 1D       		.uleb128 0x1d
 2081 0776 D0020000 		.4byte	.LBB24
 2082 077a 04000000 		.4byte	.LBE24-.LBB24
 2083 077e 90070000 		.4byte	0x790
 2084 0782 1E       		.uleb128 0x1e
 2085 0783 746D7000 		.ascii	"tmp\000"
 2086 0787 01       		.byte	0x1
 2087 0788 98       		.byte	0x98
 2088 0789 AD000000 		.4byte	0xad
 2089 078d 01       		.uleb128 0x1
 2090 078e 53       		.byte	0x53
 2091 078f 00       		.byte	0
 2092 0790 1D       		.uleb128 0x1d
 2093 0791 D4020000 		.4byte	.LBB25
 2094 0795 06000000 		.4byte	.LBE25-.LBB25
 2095 0799 AB070000 		.4byte	0x7ab
 2096 079d 1E       		.uleb128 0x1e
 2097 079e 746D7000 		.ascii	"tmp\000"
 2098 07a2 01       		.byte	0x1
 2099 07a3 99       		.byte	0x99
 2100 07a4 AD000000 		.4byte	0xad
 2101 07a8 01       		.uleb128 0x1
 2102 07a9 53       		.byte	0x53
 2103 07aa 00       		.byte	0
 2104 07ab 1D       		.uleb128 0x1d
ARM GAS  /tmp/ccvgYHYM.s 			page 38


 2105 07ac F2020000 		.4byte	.LBB26
 2106 07b0 04000000 		.4byte	.LBE26-.LBB26
 2107 07b4 C6070000 		.4byte	0x7c6
 2108 07b8 1E       		.uleb128 0x1e
 2109 07b9 746D7000 		.ascii	"tmp\000"
 2110 07bd 01       		.byte	0x1
 2111 07be 99       		.byte	0x99
 2112 07bf AD000000 		.4byte	0xad
 2113 07c3 01       		.uleb128 0x1
 2114 07c4 53       		.byte	0x53
 2115 07c5 00       		.byte	0
 2116 07c6 1D       		.uleb128 0x1d
 2117 07c7 F6020000 		.4byte	.LBB27
 2118 07cb 06000000 		.4byte	.LBE27-.LBB27
 2119 07cf E1070000 		.4byte	0x7e1
 2120 07d3 1E       		.uleb128 0x1e
 2121 07d4 746D7000 		.ascii	"tmp\000"
 2122 07d8 01       		.byte	0x1
 2123 07d9 9E       		.byte	0x9e
 2124 07da AD000000 		.4byte	0xad
 2125 07de 01       		.uleb128 0x1
 2126 07df 53       		.byte	0x53
 2127 07e0 00       		.byte	0
 2128 07e1 1F       		.uleb128 0x1f
 2129 07e2 48000000 		.4byte	.Ldebug_ranges0+0x48
 2130 07e6 F8070000 		.4byte	0x7f8
 2131 07ea 1E       		.uleb128 0x1e
 2132 07eb 746D7000 		.ascii	"tmp\000"
 2133 07ef 01       		.byte	0x1
 2134 07f0 A8       		.byte	0xa8
 2135 07f1 AD000000 		.4byte	0xad
 2136 07f5 01       		.uleb128 0x1
 2137 07f6 53       		.byte	0x53
 2138 07f7 00       		.byte	0
 2139 07f8 1D       		.uleb128 0x1d
 2140 07f9 C8030000 		.4byte	.LBB30
 2141 07fd 06000000 		.4byte	.LBE30-.LBB30
 2142 0801 13080000 		.4byte	0x813
 2143 0805 1E       		.uleb128 0x1e
 2144 0806 746D7000 		.ascii	"tmp\000"
 2145 080a 01       		.byte	0x1
 2146 080b AC       		.byte	0xac
 2147 080c AD000000 		.4byte	0xad
 2148 0810 01       		.uleb128 0x1
 2149 0811 53       		.byte	0x53
 2150 0812 00       		.byte	0
 2151 0813 1F       		.uleb128 0x1f
 2152 0814 60000000 		.4byte	.Ldebug_ranges0+0x60
 2153 0818 2A080000 		.4byte	0x82a
 2154 081c 1E       		.uleb128 0x1e
 2155 081d 746D7000 		.ascii	"tmp\000"
 2156 0821 01       		.byte	0x1
 2157 0822 AE       		.byte	0xae
 2158 0823 AD000000 		.4byte	0xad
 2159 0827 01       		.uleb128 0x1
 2160 0828 53       		.byte	0x53
 2161 0829 00       		.byte	0
ARM GAS  /tmp/ccvgYHYM.s 			page 39


 2162 082a 1D       		.uleb128 0x1d
 2163 082b 18040000 		.4byte	.LBB33
 2164 082f 06000000 		.4byte	.LBE33-.LBB33
 2165 0833 45080000 		.4byte	0x845
 2166 0837 1E       		.uleb128 0x1e
 2167 0838 746D7000 		.ascii	"tmp\000"
 2168 083c 01       		.byte	0x1
 2169 083d B3       		.byte	0xb3
 2170 083e AD000000 		.4byte	0xad
 2171 0842 01       		.uleb128 0x1
 2172 0843 53       		.byte	0x53
 2173 0844 00       		.byte	0
 2174 0845 1D       		.uleb128 0x1d
 2175 0846 34040000 		.4byte	.LBB34
 2176 084a 04000000 		.4byte	.LBE34-.LBB34
 2177 084e 60080000 		.4byte	0x860
 2178 0852 1E       		.uleb128 0x1e
 2179 0853 746D7000 		.ascii	"tmp\000"
 2180 0857 01       		.byte	0x1
 2181 0858 B3       		.byte	0xb3
 2182 0859 AD000000 		.4byte	0xad
 2183 085d 01       		.uleb128 0x1
 2184 085e 53       		.byte	0x53
 2185 085f 00       		.byte	0
 2186 0860 1D       		.uleb128 0x1d
 2187 0861 38040000 		.4byte	.LBB35
 2188 0865 06000000 		.4byte	.LBE35-.LBB35
 2189 0869 7B080000 		.4byte	0x87b
 2190 086d 1E       		.uleb128 0x1e
 2191 086e 746D7000 		.ascii	"tmp\000"
 2192 0872 01       		.byte	0x1
 2193 0873 B4       		.byte	0xb4
 2194 0874 AD000000 		.4byte	0xad
 2195 0878 01       		.uleb128 0x1
 2196 0879 53       		.byte	0x53
 2197 087a 00       		.byte	0
 2198 087b 1D       		.uleb128 0x1d
 2199 087c 56040000 		.4byte	.LBB36
 2200 0880 04000000 		.4byte	.LBE36-.LBB36
 2201 0884 96080000 		.4byte	0x896
 2202 0888 1E       		.uleb128 0x1e
 2203 0889 746D7000 		.ascii	"tmp\000"
 2204 088d 01       		.byte	0x1
 2205 088e B4       		.byte	0xb4
 2206 088f AD000000 		.4byte	0xad
 2207 0893 01       		.uleb128 0x1
 2208 0894 53       		.byte	0x53
 2209 0895 00       		.byte	0
 2210 0896 1D       		.uleb128 0x1d
 2211 0897 70040000 		.4byte	.LBB37
 2212 089b 06000000 		.4byte	.LBE37-.LBB37
 2213 089f B1080000 		.4byte	0x8b1
 2214 08a3 1E       		.uleb128 0x1e
 2215 08a4 746D7000 		.ascii	"tmp\000"
 2216 08a8 01       		.byte	0x1
 2217 08a9 B7       		.byte	0xb7
 2218 08aa AD000000 		.4byte	0xad
ARM GAS  /tmp/ccvgYHYM.s 			page 40


 2219 08ae 01       		.uleb128 0x1
 2220 08af 53       		.byte	0x53
 2221 08b0 00       		.byte	0
 2222 08b1 1F       		.uleb128 0x1f
 2223 08b2 78000000 		.4byte	.Ldebug_ranges0+0x78
 2224 08b6 C8080000 		.4byte	0x8c8
 2225 08ba 1E       		.uleb128 0x1e
 2226 08bb 746D7000 		.ascii	"tmp\000"
 2227 08bf 01       		.byte	0x1
 2228 08c0 C1       		.byte	0xc1
 2229 08c1 AD000000 		.4byte	0xad
 2230 08c5 01       		.uleb128 0x1
 2231 08c6 53       		.byte	0x53
 2232 08c7 00       		.byte	0
 2233 08c8 1D       		.uleb128 0x1d
 2234 08c9 46050000 		.4byte	.LBB40
 2235 08cd 06000000 		.4byte	.LBE40-.LBB40
 2236 08d1 E3080000 		.4byte	0x8e3
 2237 08d5 1E       		.uleb128 0x1e
 2238 08d6 746D7000 		.ascii	"tmp\000"
 2239 08da 01       		.byte	0x1
 2240 08db C5       		.byte	0xc5
 2241 08dc AD000000 		.4byte	0xad
 2242 08e0 01       		.uleb128 0x1
 2243 08e1 53       		.byte	0x53
 2244 08e2 00       		.byte	0
 2245 08e3 1F       		.uleb128 0x1f
 2246 08e4 90000000 		.4byte	.Ldebug_ranges0+0x90
 2247 08e8 FA080000 		.4byte	0x8fa
 2248 08ec 1E       		.uleb128 0x1e
 2249 08ed 746D7000 		.ascii	"tmp\000"
 2250 08f1 01       		.byte	0x1
 2251 08f2 C7       		.byte	0xc7
 2252 08f3 AD000000 		.4byte	0xad
 2253 08f7 01       		.uleb128 0x1
 2254 08f8 53       		.byte	0x53
 2255 08f9 00       		.byte	0
 2256 08fa 1D       		.uleb128 0x1d
 2257 08fb 96050000 		.4byte	.LBB43
 2258 08ff 06000000 		.4byte	.LBE43-.LBB43
 2259 0903 15090000 		.4byte	0x915
 2260 0907 1E       		.uleb128 0x1e
 2261 0908 746D7000 		.ascii	"tmp\000"
 2262 090c 01       		.byte	0x1
 2263 090d CC       		.byte	0xcc
 2264 090e AD000000 		.4byte	0xad
 2265 0912 01       		.uleb128 0x1
 2266 0913 53       		.byte	0x53
 2267 0914 00       		.byte	0
 2268 0915 1D       		.uleb128 0x1d
 2269 0916 B8050000 		.4byte	.LBB44
 2270 091a 04000000 		.4byte	.LBE44-.LBB44
 2271 091e 30090000 		.4byte	0x930
 2272 0922 1E       		.uleb128 0x1e
 2273 0923 746D7000 		.ascii	"tmp\000"
 2274 0927 01       		.byte	0x1
 2275 0928 CC       		.byte	0xcc
ARM GAS  /tmp/ccvgYHYM.s 			page 41


 2276 0929 AD000000 		.4byte	0xad
 2277 092d 01       		.uleb128 0x1
 2278 092e 53       		.byte	0x53
 2279 092f 00       		.byte	0
 2280 0930 1D       		.uleb128 0x1d
 2281 0931 BC050000 		.4byte	.LBB45
 2282 0935 06000000 		.4byte	.LBE45-.LBB45
 2283 0939 4B090000 		.4byte	0x94b
 2284 093d 1E       		.uleb128 0x1e
 2285 093e 746D7000 		.ascii	"tmp\000"
 2286 0942 01       		.byte	0x1
 2287 0943 CD       		.byte	0xcd
 2288 0944 AD000000 		.4byte	0xad
 2289 0948 01       		.uleb128 0x1
 2290 0949 53       		.byte	0x53
 2291 094a 00       		.byte	0
 2292 094b 1D       		.uleb128 0x1d
 2293 094c DA050000 		.4byte	.LBB46
 2294 0950 04000000 		.4byte	.LBE46-.LBB46
 2295 0954 66090000 		.4byte	0x966
 2296 0958 1E       		.uleb128 0x1e
 2297 0959 746D7000 		.ascii	"tmp\000"
 2298 095d 01       		.byte	0x1
 2299 095e CD       		.byte	0xcd
 2300 095f AD000000 		.4byte	0xad
 2301 0963 01       		.uleb128 0x1
 2302 0964 53       		.byte	0x53
 2303 0965 00       		.byte	0
 2304 0966 1D       		.uleb128 0x1d
 2305 0967 00060000 		.4byte	.LBB47
 2306 096b 06000000 		.4byte	.LBE47-.LBB47
 2307 096f 81090000 		.4byte	0x981
 2308 0973 1E       		.uleb128 0x1e
 2309 0974 746D7000 		.ascii	"tmp\000"
 2310 0978 01       		.byte	0x1
 2311 0979 D8       		.byte	0xd8
 2312 097a AD000000 		.4byte	0xad
 2313 097e 01       		.uleb128 0x1
 2314 097f 53       		.byte	0x53
 2315 0980 00       		.byte	0
 2316 0981 1D       		.uleb128 0x1d
 2317 0982 1C060000 		.4byte	.LBB48
 2318 0986 04000000 		.4byte	.LBE48-.LBB48
 2319 098a 9C090000 		.4byte	0x99c
 2320 098e 1E       		.uleb128 0x1e
 2321 098f 746D7000 		.ascii	"tmp\000"
 2322 0993 01       		.byte	0x1
 2323 0994 D8       		.byte	0xd8
 2324 0995 AD000000 		.4byte	0xad
 2325 0999 01       		.uleb128 0x1
 2326 099a 53       		.byte	0x53
 2327 099b 00       		.byte	0
 2328 099c 1D       		.uleb128 0x1d
 2329 099d 20060000 		.4byte	.LBB49
 2330 09a1 06000000 		.4byte	.LBE49-.LBB49
 2331 09a5 B7090000 		.4byte	0x9b7
 2332 09a9 1E       		.uleb128 0x1e
ARM GAS  /tmp/ccvgYHYM.s 			page 42


 2333 09aa 746D7000 		.ascii	"tmp\000"
 2334 09ae 01       		.byte	0x1
 2335 09af D9       		.byte	0xd9
 2336 09b0 AD000000 		.4byte	0xad
 2337 09b4 01       		.uleb128 0x1
 2338 09b5 53       		.byte	0x53
 2339 09b6 00       		.byte	0
 2340 09b7 1D       		.uleb128 0x1d
 2341 09b8 3E060000 		.4byte	.LBB50
 2342 09bc 04000000 		.4byte	.LBE50-.LBB50
 2343 09c0 D2090000 		.4byte	0x9d2
 2344 09c4 1E       		.uleb128 0x1e
 2345 09c5 746D7000 		.ascii	"tmp\000"
 2346 09c9 01       		.byte	0x1
 2347 09ca D9       		.byte	0xd9
 2348 09cb AD000000 		.4byte	0xad
 2349 09cf 01       		.uleb128 0x1
 2350 09d0 53       		.byte	0x53
 2351 09d1 00       		.byte	0
 2352 09d2 1D       		.uleb128 0x1d
 2353 09d3 42060000 		.4byte	.LBB51
 2354 09d7 06000000 		.4byte	.LBE51-.LBB51
 2355 09db ED090000 		.4byte	0x9ed
 2356 09df 1E       		.uleb128 0x1e
 2357 09e0 746D7000 		.ascii	"tmp\000"
 2358 09e4 01       		.byte	0x1
 2359 09e5 DA       		.byte	0xda
 2360 09e6 AD000000 		.4byte	0xad
 2361 09ea 01       		.uleb128 0x1
 2362 09eb 53       		.byte	0x53
 2363 09ec 00       		.byte	0
 2364 09ed 1D       		.uleb128 0x1d
 2365 09ee 60060000 		.4byte	.LBB52
 2366 09f2 04000000 		.4byte	.LBE52-.LBB52
 2367 09f6 080A0000 		.4byte	0xa08
 2368 09fa 1E       		.uleb128 0x1e
 2369 09fb 746D7000 		.ascii	"tmp\000"
 2370 09ff 01       		.byte	0x1
 2371 0a00 DA       		.byte	0xda
 2372 0a01 AD000000 		.4byte	0xad
 2373 0a05 01       		.uleb128 0x1
 2374 0a06 53       		.byte	0x53
 2375 0a07 00       		.byte	0
 2376 0a08 1D       		.uleb128 0x1d
 2377 0a09 64060000 		.4byte	.LBB53
 2378 0a0d 06000000 		.4byte	.LBE53-.LBB53
 2379 0a11 230A0000 		.4byte	0xa23
 2380 0a15 1E       		.uleb128 0x1e
 2381 0a16 746D7000 		.ascii	"tmp\000"
 2382 0a1a 01       		.byte	0x1
 2383 0a1b DB       		.byte	0xdb
 2384 0a1c AD000000 		.4byte	0xad
 2385 0a20 01       		.uleb128 0x1
 2386 0a21 53       		.byte	0x53
 2387 0a22 00       		.byte	0
 2388 0a23 20       		.uleb128 0x20
 2389 0a24 20000000 		.4byte	.LVL0
ARM GAS  /tmp/ccvgYHYM.s 			page 43


 2390 0a28 7A110000 		.4byte	0x117a
 2391 0a2c 360A0000 		.4byte	0xa36
 2392 0a30 21       		.uleb128 0x21
 2393 0a31 01       		.uleb128 0x1
 2394 0a32 50       		.byte	0x50
 2395 0a33 01       		.uleb128 0x1
 2396 0a34 31       		.byte	0x31
 2397 0a35 00       		.byte	0
 2398 0a36 20       		.uleb128 0x20
 2399 0a37 36000000 		.4byte	.LVL2
 2400 0a3b 94110000 		.4byte	0x1194
 2401 0a3f 590A0000 		.4byte	0xa59
 2402 0a43 21       		.uleb128 0x21
 2403 0a44 01       		.uleb128 0x1
 2404 0a45 52       		.byte	0x52
 2405 0a46 02       		.uleb128 0x2
 2406 0a47 09       		.byte	0x9
 2407 0a48 FF       		.byte	0xff
 2408 0a49 21       		.uleb128 0x21
 2409 0a4a 01       		.uleb128 0x1
 2410 0a4b 51       		.byte	0x51
 2411 0a4c 02       		.uleb128 0x2
 2412 0a4d 74       		.byte	0x74
 2413 0a4e 00       		.sleb128 0
 2414 0a4f 21       		.uleb128 0x21
 2415 0a50 01       		.uleb128 0x1
 2416 0a51 50       		.byte	0x50
 2417 0a52 05       		.uleb128 0x5
 2418 0a53 03       		.byte	0x3
 2419 0a54 00000000 		.4byte	.LANCHOR0
 2420 0a58 00       		.byte	0
 2421 0a59 20       		.uleb128 0x20
 2422 0a5a 46000000 		.4byte	.LVL5
 2423 0a5e 7A110000 		.4byte	0x117a
 2424 0a62 6C0A0000 		.4byte	0xa6c
 2425 0a66 21       		.uleb128 0x21
 2426 0a67 01       		.uleb128 0x1
 2427 0a68 50       		.byte	0x50
 2428 0a69 01       		.uleb128 0x1
 2429 0a6a 32       		.byte	0x32
 2430 0a6b 00       		.byte	0
 2431 0a6c 20       		.uleb128 0x20
 2432 0a6d 5E000000 		.4byte	.LVL6
 2433 0a71 B9110000 		.4byte	0x11b9
 2434 0a75 8F0A0000 		.4byte	0xa8f
 2435 0a79 21       		.uleb128 0x21
 2436 0a7a 01       		.uleb128 0x1
 2437 0a7b 52       		.byte	0x52
 2438 0a7c 02       		.uleb128 0x2
 2439 0a7d 09       		.byte	0x9
 2440 0a7e FF       		.byte	0xff
 2441 0a7f 21       		.uleb128 0x21
 2442 0a80 01       		.uleb128 0x1
 2443 0a81 51       		.byte	0x51
 2444 0a82 02       		.uleb128 0x2
 2445 0a83 08       		.byte	0x8
 2446 0a84 41       		.byte	0x41
ARM GAS  /tmp/ccvgYHYM.s 			page 44


 2447 0a85 21       		.uleb128 0x21
 2448 0a86 01       		.uleb128 0x1
 2449 0a87 50       		.byte	0x50
 2450 0a88 05       		.uleb128 0x5
 2451 0a89 03       		.byte	0x3
 2452 0a8a 00000000 		.4byte	.LANCHOR0
 2453 0a8e 00       		.byte	0
 2454 0a8f 20       		.uleb128 0x20
 2455 0a90 6C000000 		.4byte	.LVL8
 2456 0a94 7A110000 		.4byte	0x117a
 2457 0a98 A20A0000 		.4byte	0xaa2
 2458 0a9c 21       		.uleb128 0x21
 2459 0a9d 01       		.uleb128 0x1
 2460 0a9e 50       		.byte	0x50
 2461 0a9f 01       		.uleb128 0x1
 2462 0aa0 33       		.byte	0x33
 2463 0aa1 00       		.byte	0
 2464 0aa2 20       		.uleb128 0x20
 2465 0aa3 82000000 		.4byte	.LVL9
 2466 0aa7 94110000 		.4byte	0x1194
 2467 0aab C40A0000 		.4byte	0xac4
 2468 0aaf 21       		.uleb128 0x21
 2469 0ab0 01       		.uleb128 0x1
 2470 0ab1 52       		.byte	0x52
 2471 0ab2 01       		.uleb128 0x1
 2472 0ab3 31       		.byte	0x31
 2473 0ab4 21       		.uleb128 0x21
 2474 0ab5 01       		.uleb128 0x1
 2475 0ab6 51       		.byte	0x51
 2476 0ab7 02       		.uleb128 0x2
 2477 0ab8 08       		.byte	0x8
 2478 0ab9 58       		.byte	0x58
 2479 0aba 21       		.uleb128 0x21
 2480 0abb 01       		.uleb128 0x1
 2481 0abc 50       		.byte	0x50
 2482 0abd 05       		.uleb128 0x5
 2483 0abe 03       		.byte	0x3
 2484 0abf 00000000 		.4byte	.LANCHOR0
 2485 0ac3 00       		.byte	0
 2486 0ac4 20       		.uleb128 0x20
 2487 0ac5 90000000 		.4byte	.LVL11
 2488 0ac9 7A110000 		.4byte	0x117a
 2489 0acd DF0A0000 		.4byte	0xadf
 2490 0ad1 21       		.uleb128 0x21
 2491 0ad2 01       		.uleb128 0x1
 2492 0ad3 51       		.byte	0x51
 2493 0ad4 04       		.uleb128 0x4
 2494 0ad5 76       		.byte	0x76
 2495 0ad6 00       		.sleb128 0
 2496 0ad7 30       		.byte	0x30
 2497 0ad8 29       		.byte	0x29
 2498 0ad9 21       		.uleb128 0x21
 2499 0ada 01       		.uleb128 0x1
 2500 0adb 50       		.byte	0x50
 2501 0adc 01       		.uleb128 0x1
 2502 0add 34       		.byte	0x34
 2503 0ade 00       		.byte	0
ARM GAS  /tmp/ccvgYHYM.s 			page 45


 2504 0adf 20       		.uleb128 0x20
 2505 0ae0 A8000000 		.4byte	.LVL12
 2506 0ae4 D8110000 		.4byte	0x11d8
 2507 0ae8 FC0A0000 		.4byte	0xafc
 2508 0aec 21       		.uleb128 0x21
 2509 0aed 01       		.uleb128 0x1
 2510 0aee 51       		.byte	0x51
 2511 0aef 02       		.uleb128 0x2
 2512 0af0 08       		.byte	0x8
 2513 0af1 58       		.byte	0x58
 2514 0af2 21       		.uleb128 0x21
 2515 0af3 01       		.uleb128 0x1
 2516 0af4 50       		.byte	0x50
 2517 0af5 05       		.uleb128 0x5
 2518 0af6 03       		.byte	0x3
 2519 0af7 00000000 		.4byte	.LANCHOR0
 2520 0afb 00       		.byte	0
 2521 0afc 20       		.uleb128 0x20
 2522 0afd BE000000 		.4byte	.LVL15
 2523 0b01 7A110000 		.4byte	0x117a
 2524 0b05 170B0000 		.4byte	0xb17
 2525 0b09 21       		.uleb128 0x21
 2526 0b0a 01       		.uleb128 0x1
 2527 0b0b 51       		.byte	0x51
 2528 0b0c 04       		.uleb128 0x4
 2529 0b0d 74       		.byte	0x74
 2530 0b0e 00       		.sleb128 0
 2531 0b0f 30       		.byte	0x30
 2532 0b10 29       		.byte	0x29
 2533 0b11 21       		.uleb128 0x21
 2534 0b12 01       		.uleb128 0x1
 2535 0b13 50       		.byte	0x50
 2536 0b14 01       		.uleb128 0x1
 2537 0b15 35       		.byte	0x35
 2538 0b16 00       		.byte	0
 2539 0b17 20       		.uleb128 0x20
 2540 0b18 D2000000 		.4byte	.LVL16
 2541 0b1c B9110000 		.4byte	0x11b9
 2542 0b20 390B0000 		.4byte	0xb39
 2543 0b24 21       		.uleb128 0x21
 2544 0b25 01       		.uleb128 0x1
 2545 0b26 52       		.byte	0x52
 2546 0b27 01       		.uleb128 0x1
 2547 0b28 31       		.byte	0x31
 2548 0b29 21       		.uleb128 0x21
 2549 0b2a 01       		.uleb128 0x1
 2550 0b2b 51       		.byte	0x51
 2551 0b2c 02       		.uleb128 0x2
 2552 0b2d 08       		.byte	0x8
 2553 0b2e 58       		.byte	0x58
 2554 0b2f 21       		.uleb128 0x21
 2555 0b30 01       		.uleb128 0x1
 2556 0b31 50       		.byte	0x50
 2557 0b32 05       		.uleb128 0x5
 2558 0b33 03       		.byte	0x3
 2559 0b34 00000000 		.4byte	.LANCHOR0
 2560 0b38 00       		.byte	0
ARM GAS  /tmp/ccvgYHYM.s 			page 46


 2561 0b39 20       		.uleb128 0x20
 2562 0b3a E0000000 		.4byte	.LVL18
 2563 0b3e 7A110000 		.4byte	0x117a
 2564 0b42 4C0B0000 		.4byte	0xb4c
 2565 0b46 21       		.uleb128 0x21
 2566 0b47 01       		.uleb128 0x1
 2567 0b48 50       		.byte	0x50
 2568 0b49 01       		.uleb128 0x1
 2569 0b4a 36       		.byte	0x36
 2570 0b4b 00       		.byte	0
 2571 0b4c 20       		.uleb128 0x20
 2572 0b4d F8000000 		.4byte	.LVL19
 2573 0b51 F2110000 		.4byte	0x11f2
 2574 0b55 690B0000 		.4byte	0xb69
 2575 0b59 21       		.uleb128 0x21
 2576 0b5a 01       		.uleb128 0x1
 2577 0b5b 51       		.byte	0x51
 2578 0b5c 02       		.uleb128 0x2
 2579 0b5d 08       		.byte	0x8
 2580 0b5e 58       		.byte	0x58
 2581 0b5f 21       		.uleb128 0x21
 2582 0b60 01       		.uleb128 0x1
 2583 0b61 50       		.byte	0x50
 2584 0b62 05       		.uleb128 0x5
 2585 0b63 03       		.byte	0x3
 2586 0b64 00000000 		.4byte	.LANCHOR0
 2587 0b68 00       		.byte	0
 2588 0b69 20       		.uleb128 0x20
 2589 0b6a 0E010000 		.4byte	.LVL22
 2590 0b6e 7A110000 		.4byte	0x117a
 2591 0b72 7C0B0000 		.4byte	0xb7c
 2592 0b76 21       		.uleb128 0x21
 2593 0b77 01       		.uleb128 0x1
 2594 0b78 50       		.byte	0x50
 2595 0b79 01       		.uleb128 0x1
 2596 0b7a 37       		.byte	0x37
 2597 0b7b 00       		.byte	0
 2598 0b7c 20       		.uleb128 0x20
 2599 0b7d 28010000 		.4byte	.LVL23
 2600 0b81 7A110000 		.4byte	0x117a
 2601 0b85 8F0B0000 		.4byte	0xb8f
 2602 0b89 21       		.uleb128 0x21
 2603 0b8a 01       		.uleb128 0x1
 2604 0b8b 50       		.byte	0x50
 2605 0b8c 01       		.uleb128 0x1
 2606 0b8d 38       		.byte	0x38
 2607 0b8e 00       		.byte	0
 2608 0b8f 20       		.uleb128 0x20
 2609 0b90 52010000 		.4byte	.LVL24
 2610 0b94 7A110000 		.4byte	0x117a
 2611 0b98 A20B0000 		.4byte	0xba2
 2612 0b9c 21       		.uleb128 0x21
 2613 0b9d 01       		.uleb128 0x1
 2614 0b9e 50       		.byte	0x50
 2615 0b9f 01       		.uleb128 0x1
 2616 0ba0 39       		.byte	0x39
 2617 0ba1 00       		.byte	0
ARM GAS  /tmp/ccvgYHYM.s 			page 47


 2618 0ba2 20       		.uleb128 0x20
 2619 0ba3 78010000 		.4byte	.LVL25
 2620 0ba7 7A110000 		.4byte	0x117a
 2621 0bab B50B0000 		.4byte	0xbb5
 2622 0baf 21       		.uleb128 0x21
 2623 0bb0 01       		.uleb128 0x1
 2624 0bb1 50       		.byte	0x50
 2625 0bb2 01       		.uleb128 0x1
 2626 0bb3 3A       		.byte	0x3a
 2627 0bb4 00       		.byte	0
 2628 0bb5 22       		.uleb128 0x22
 2629 0bb6 8E010000 		.4byte	.LVL28
 2630 0bba 0C120000 		.4byte	0x120c
 2631 0bbe 20       		.uleb128 0x20
 2632 0bbf A6010000 		.4byte	.LVL31
 2633 0bc3 1D120000 		.4byte	0x121d
 2634 0bc7 DE0B0000 		.4byte	0xbde
 2635 0bcb 21       		.uleb128 0x21
 2636 0bcc 01       		.uleb128 0x1
 2637 0bcd 52       		.byte	0x52
 2638 0bce 02       		.uleb128 0x2
 2639 0bcf 09       		.byte	0x9
 2640 0bd0 FF       		.byte	0xff
 2641 0bd1 21       		.uleb128 0x21
 2642 0bd2 01       		.uleb128 0x1
 2643 0bd3 51       		.byte	0x51
 2644 0bd4 02       		.uleb128 0x2
 2645 0bd5 91       		.byte	0x91
 2646 0bd6 6C       		.sleb128 -20
 2647 0bd7 21       		.uleb128 0x21
 2648 0bd8 01       		.uleb128 0x1
 2649 0bd9 50       		.byte	0x50
 2650 0bda 02       		.uleb128 0x2
 2651 0bdb 74       		.byte	0x74
 2652 0bdc 00       		.sleb128 0
 2653 0bdd 00       		.byte	0
 2654 0bde 20       		.uleb128 0x20
 2655 0bdf B4010000 		.4byte	.LVL33
 2656 0be3 7A110000 		.4byte	0x117a
 2657 0be7 F10B0000 		.4byte	0xbf1
 2658 0beb 21       		.uleb128 0x21
 2659 0bec 01       		.uleb128 0x1
 2660 0bed 50       		.byte	0x50
 2661 0bee 01       		.uleb128 0x1
 2662 0bef 3B       		.byte	0x3b
 2663 0bf0 00       		.byte	0
 2664 0bf1 20       		.uleb128 0x20
 2665 0bf2 C8010000 		.4byte	.LVL34
 2666 0bf6 3C120000 		.4byte	0x123c
 2667 0bfa 0D0C0000 		.4byte	0xc0d
 2668 0bfe 21       		.uleb128 0x21
 2669 0bff 01       		.uleb128 0x1
 2670 0c00 51       		.byte	0x51
 2671 0c01 05       		.uleb128 0x5
 2672 0c02 03       		.byte	0x3
 2673 0c03 00000000 		.4byte	.LC0
 2674 0c07 21       		.uleb128 0x21
ARM GAS  /tmp/ccvgYHYM.s 			page 48


 2675 0c08 01       		.uleb128 0x1
 2676 0c09 50       		.byte	0x50
 2677 0c0a 01       		.uleb128 0x1
 2678 0c0b 3C       		.byte	0x3c
 2679 0c0c 00       		.byte	0
 2680 0c0d 20       		.uleb128 0x20
 2681 0c0e DA010000 		.4byte	.LVL35
 2682 0c12 94110000 		.4byte	0x1194
 2683 0c16 2D0C0000 		.4byte	0xc2d
 2684 0c1a 21       		.uleb128 0x21
 2685 0c1b 01       		.uleb128 0x1
 2686 0c1c 52       		.byte	0x52
 2687 0c1d 02       		.uleb128 0x2
 2688 0c1e 09       		.byte	0x9
 2689 0c1f FF       		.byte	0xff
 2690 0c20 21       		.uleb128 0x21
 2691 0c21 01       		.uleb128 0x1
 2692 0c22 51       		.byte	0x51
 2693 0c23 02       		.uleb128 0x2
 2694 0c24 08       		.byte	0x8
 2695 0c25 47       		.byte	0x47
 2696 0c26 21       		.uleb128 0x21
 2697 0c27 01       		.uleb128 0x1
 2698 0c28 50       		.byte	0x50
 2699 0c29 02       		.uleb128 0x2
 2700 0c2a 74       		.byte	0x74
 2701 0c2b 00       		.sleb128 0
 2702 0c2c 00       		.byte	0
 2703 0c2d 20       		.uleb128 0x20
 2704 0c2e E8010000 		.4byte	.LVL37
 2705 0c32 7A110000 		.4byte	0x117a
 2706 0c36 400C0000 		.4byte	0xc40
 2707 0c3a 21       		.uleb128 0x21
 2708 0c3b 01       		.uleb128 0x1
 2709 0c3c 50       		.byte	0x50
 2710 0c3d 01       		.uleb128 0x1
 2711 0c3e 3D       		.byte	0x3d
 2712 0c3f 00       		.byte	0
 2713 0c40 20       		.uleb128 0x20
 2714 0c41 FA010000 		.4byte	.LVL38
 2715 0c45 1D120000 		.4byte	0x121d
 2716 0c49 600C0000 		.4byte	0xc60
 2717 0c4d 21       		.uleb128 0x21
 2718 0c4e 01       		.uleb128 0x1
 2719 0c4f 52       		.byte	0x52
 2720 0c50 02       		.uleb128 0x2
 2721 0c51 09       		.byte	0x9
 2722 0c52 FF       		.byte	0xff
 2723 0c53 21       		.uleb128 0x21
 2724 0c54 01       		.uleb128 0x1
 2725 0c55 51       		.byte	0x51
 2726 0c56 02       		.uleb128 0x2
 2727 0c57 91       		.byte	0x91
 2728 0c58 6C       		.sleb128 -20
 2729 0c59 21       		.uleb128 0x21
 2730 0c5a 01       		.uleb128 0x1
 2731 0c5b 50       		.byte	0x50
ARM GAS  /tmp/ccvgYHYM.s 			page 49


 2732 0c5c 02       		.uleb128 0x2
 2733 0c5d 74       		.byte	0x74
 2734 0c5e 00       		.sleb128 0
 2735 0c5f 00       		.byte	0
 2736 0c60 20       		.uleb128 0x20
 2737 0c61 08020000 		.4byte	.LVL40
 2738 0c65 7A110000 		.4byte	0x117a
 2739 0c69 730C0000 		.4byte	0xc73
 2740 0c6d 21       		.uleb128 0x21
 2741 0c6e 01       		.uleb128 0x1
 2742 0c6f 50       		.byte	0x50
 2743 0c70 01       		.uleb128 0x1
 2744 0c71 3E       		.byte	0x3e
 2745 0c72 00       		.byte	0
 2746 0c73 20       		.uleb128 0x20
 2747 0c74 1E020000 		.4byte	.LVL42
 2748 0c78 7A110000 		.4byte	0x117a
 2749 0c7c 8E0C0000 		.4byte	0xc8e
 2750 0c80 21       		.uleb128 0x21
 2751 0c81 01       		.uleb128 0x1
 2752 0c82 51       		.byte	0x51
 2753 0c83 04       		.uleb128 0x4
 2754 0c84 76       		.byte	0x76
 2755 0c85 00       		.sleb128 0
 2756 0c86 30       		.byte	0x30
 2757 0c87 29       		.byte	0x29
 2758 0c88 21       		.uleb128 0x21
 2759 0c89 01       		.uleb128 0x1
 2760 0c8a 50       		.byte	0x50
 2761 0c8b 01       		.uleb128 0x1
 2762 0c8c 3F       		.byte	0x3f
 2763 0c8d 00       		.byte	0
 2764 0c8e 20       		.uleb128 0x20
 2765 0c8f 34020000 		.4byte	.LVL43
 2766 0c93 7A110000 		.4byte	0x117a
 2767 0c97 A10C0000 		.4byte	0xca1
 2768 0c9b 21       		.uleb128 0x21
 2769 0c9c 01       		.uleb128 0x1
 2770 0c9d 50       		.byte	0x50
 2771 0c9e 01       		.uleb128 0x1
 2772 0c9f 40       		.byte	0x40
 2773 0ca0 00       		.byte	0
 2774 0ca1 20       		.uleb128 0x20
 2775 0ca2 44020000 		.4byte	.LVL44
 2776 0ca6 1D120000 		.4byte	0x121d
 2777 0caa C00C0000 		.4byte	0xcc0
 2778 0cae 21       		.uleb128 0x21
 2779 0caf 01       		.uleb128 0x1
 2780 0cb0 52       		.byte	0x52
 2781 0cb1 01       		.uleb128 0x1
 2782 0cb2 31       		.byte	0x31
 2783 0cb3 21       		.uleb128 0x21
 2784 0cb4 01       		.uleb128 0x1
 2785 0cb5 51       		.byte	0x51
 2786 0cb6 02       		.uleb128 0x2
 2787 0cb7 91       		.byte	0x91
 2788 0cb8 6C       		.sleb128 -20
ARM GAS  /tmp/ccvgYHYM.s 			page 50


 2789 0cb9 21       		.uleb128 0x21
 2790 0cba 01       		.uleb128 0x1
 2791 0cbb 50       		.byte	0x50
 2792 0cbc 02       		.uleb128 0x2
 2793 0cbd 74       		.byte	0x74
 2794 0cbe 00       		.sleb128 0
 2795 0cbf 00       		.byte	0
 2796 0cc0 20       		.uleb128 0x20
 2797 0cc1 52020000 		.4byte	.LVL46
 2798 0cc5 7A110000 		.4byte	0x117a
 2799 0cc9 D30C0000 		.4byte	0xcd3
 2800 0ccd 21       		.uleb128 0x21
 2801 0cce 01       		.uleb128 0x1
 2802 0ccf 50       		.byte	0x50
 2803 0cd0 01       		.uleb128 0x1
 2804 0cd1 41       		.byte	0x41
 2805 0cd2 00       		.byte	0
 2806 0cd3 20       		.uleb128 0x20
 2807 0cd4 6C020000 		.4byte	.LVL47
 2808 0cd8 5C120000 		.4byte	0x125c
 2809 0cdc F00C0000 		.4byte	0xcf0
 2810 0ce0 21       		.uleb128 0x21
 2811 0ce1 01       		.uleb128 0x1
 2812 0ce2 51       		.byte	0x51
 2813 0ce3 02       		.uleb128 0x2
 2814 0ce4 91       		.byte	0x91
 2815 0ce5 6C       		.sleb128 -20
 2816 0ce6 21       		.uleb128 0x21
 2817 0ce7 01       		.uleb128 0x1
 2818 0ce8 50       		.byte	0x50
 2819 0ce9 05       		.uleb128 0x5
 2820 0cea 03       		.byte	0x3
 2821 0ceb 00000000 		.4byte	.LANCHOR0
 2822 0cef 00       		.byte	0
 2823 0cf0 20       		.uleb128 0x20
 2824 0cf1 86020000 		.4byte	.LVL50
 2825 0cf5 7A110000 		.4byte	0x117a
 2826 0cf9 030D0000 		.4byte	0xd03
 2827 0cfd 21       		.uleb128 0x21
 2828 0cfe 01       		.uleb128 0x1
 2829 0cff 50       		.byte	0x50
 2830 0d00 01       		.uleb128 0x1
 2831 0d01 42       		.byte	0x42
 2832 0d02 00       		.byte	0
 2833 0d03 20       		.uleb128 0x20
 2834 0d04 A6020000 		.4byte	.LVL51
 2835 0d08 7A110000 		.4byte	0x117a
 2836 0d0c 160D0000 		.4byte	0xd16
 2837 0d10 21       		.uleb128 0x21
 2838 0d11 01       		.uleb128 0x1
 2839 0d12 50       		.byte	0x50
 2840 0d13 01       		.uleb128 0x1
 2841 0d14 43       		.byte	0x43
 2842 0d15 00       		.byte	0
 2843 0d16 20       		.uleb128 0x20
 2844 0d17 C8020000 		.4byte	.LVL52
 2845 0d1b 7A110000 		.4byte	0x117a
ARM GAS  /tmp/ccvgYHYM.s 			page 51


 2846 0d1f 290D0000 		.4byte	0xd29
 2847 0d23 21       		.uleb128 0x21
 2848 0d24 01       		.uleb128 0x1
 2849 0d25 50       		.byte	0x50
 2850 0d26 01       		.uleb128 0x1
 2851 0d27 44       		.byte	0x44
 2852 0d28 00       		.byte	0
 2853 0d29 20       		.uleb128 0x20
 2854 0d2a EA020000 		.4byte	.LVL53
 2855 0d2e 7A110000 		.4byte	0x117a
 2856 0d32 440D0000 		.4byte	0xd44
 2857 0d36 21       		.uleb128 0x21
 2858 0d37 01       		.uleb128 0x1
 2859 0d38 51       		.byte	0x51
 2860 0d39 04       		.uleb128 0x4
 2861 0d3a 76       		.byte	0x76
 2862 0d3b 00       		.sleb128 0
 2863 0d3c 30       		.byte	0x30
 2864 0d3d 29       		.byte	0x29
 2865 0d3e 21       		.uleb128 0x21
 2866 0d3f 01       		.uleb128 0x1
 2867 0d40 50       		.byte	0x50
 2868 0d41 01       		.uleb128 0x1
 2869 0d42 45       		.byte	0x45
 2870 0d43 00       		.byte	0
 2871 0d44 20       		.uleb128 0x20
 2872 0d45 0A030000 		.4byte	.LVL54
 2873 0d49 D8110000 		.4byte	0x11d8
 2874 0d4d 610D0000 		.4byte	0xd61
 2875 0d51 21       		.uleb128 0x21
 2876 0d52 01       		.uleb128 0x1
 2877 0d53 51       		.byte	0x51
 2878 0d54 02       		.uleb128 0x2
 2879 0d55 08       		.byte	0x8
 2880 0d56 41       		.byte	0x41
 2881 0d57 21       		.uleb128 0x21
 2882 0d58 01       		.uleb128 0x1
 2883 0d59 50       		.byte	0x50
 2884 0d5a 05       		.uleb128 0x5
 2885 0d5b 03       		.byte	0x3
 2886 0d5c 00000000 		.4byte	.LANCHOR0
 2887 0d60 00       		.byte	0
 2888 0d61 20       		.uleb128 0x20
 2889 0d62 18030000 		.4byte	.LVL56
 2890 0d66 7A110000 		.4byte	0x117a
 2891 0d6a 740D0000 		.4byte	0xd74
 2892 0d6e 21       		.uleb128 0x21
 2893 0d6f 01       		.uleb128 0x1
 2894 0d70 50       		.byte	0x50
 2895 0d71 01       		.uleb128 0x1
 2896 0d72 46       		.byte	0x46
 2897 0d73 00       		.byte	0
 2898 0d74 20       		.uleb128 0x20
 2899 0d75 2C030000 		.4byte	.LVL57
 2900 0d79 D8110000 		.4byte	0x11d8
 2901 0d7d 910D0000 		.4byte	0xd91
 2902 0d81 21       		.uleb128 0x21
ARM GAS  /tmp/ccvgYHYM.s 			page 52


 2903 0d82 01       		.uleb128 0x1
 2904 0d83 51       		.byte	0x51
 2905 0d84 02       		.uleb128 0x2
 2906 0d85 08       		.byte	0x8
 2907 0d86 42       		.byte	0x42
 2908 0d87 21       		.uleb128 0x21
 2909 0d88 01       		.uleb128 0x1
 2910 0d89 50       		.byte	0x50
 2911 0d8a 05       		.uleb128 0x5
 2912 0d8b 03       		.byte	0x3
 2913 0d8c 00000000 		.4byte	.LANCHOR0
 2914 0d90 00       		.byte	0
 2915 0d91 20       		.uleb128 0x20
 2916 0d92 3A030000 		.4byte	.LVL59
 2917 0d96 7A110000 		.4byte	0x117a
 2918 0d9a A40D0000 		.4byte	0xda4
 2919 0d9e 21       		.uleb128 0x21
 2920 0d9f 01       		.uleb128 0x1
 2921 0da0 50       		.byte	0x50
 2922 0da1 01       		.uleb128 0x1
 2923 0da2 47       		.byte	0x47
 2924 0da3 00       		.byte	0
 2925 0da4 20       		.uleb128 0x20
 2926 0da5 4E030000 		.4byte	.LVL60
 2927 0da9 D8110000 		.4byte	0x11d8
 2928 0dad C10D0000 		.4byte	0xdc1
 2929 0db1 21       		.uleb128 0x21
 2930 0db2 01       		.uleb128 0x1
 2931 0db3 51       		.byte	0x51
 2932 0db4 02       		.uleb128 0x2
 2933 0db5 08       		.byte	0x8
 2934 0db6 43       		.byte	0x43
 2935 0db7 21       		.uleb128 0x21
 2936 0db8 01       		.uleb128 0x1
 2937 0db9 50       		.byte	0x50
 2938 0dba 05       		.uleb128 0x5
 2939 0dbb 03       		.byte	0x3
 2940 0dbc 00000000 		.4byte	.LANCHOR0
 2941 0dc0 00       		.byte	0
 2942 0dc1 20       		.uleb128 0x20
 2943 0dc2 5C030000 		.4byte	.LVL62
 2944 0dc6 7A110000 		.4byte	0x117a
 2945 0dca D40D0000 		.4byte	0xdd4
 2946 0dce 21       		.uleb128 0x21
 2947 0dcf 01       		.uleb128 0x1
 2948 0dd0 50       		.byte	0x50
 2949 0dd1 01       		.uleb128 0x1
 2950 0dd2 48       		.byte	0x48
 2951 0dd3 00       		.byte	0
 2952 0dd4 20       		.uleb128 0x20
 2953 0dd5 70030000 		.4byte	.LVL63
 2954 0dd9 D8110000 		.4byte	0x11d8
 2955 0ddd F10D0000 		.4byte	0xdf1
 2956 0de1 21       		.uleb128 0x21
 2957 0de2 01       		.uleb128 0x1
 2958 0de3 51       		.byte	0x51
 2959 0de4 02       		.uleb128 0x2
ARM GAS  /tmp/ccvgYHYM.s 			page 53


 2960 0de5 08       		.byte	0x8
 2961 0de6 44       		.byte	0x44
 2962 0de7 21       		.uleb128 0x21
 2963 0de8 01       		.uleb128 0x1
 2964 0de9 50       		.byte	0x50
 2965 0dea 05       		.uleb128 0x5
 2966 0deb 03       		.byte	0x3
 2967 0dec 00000000 		.4byte	.LANCHOR0
 2968 0df0 00       		.byte	0
 2969 0df1 20       		.uleb128 0x20
 2970 0df2 7E030000 		.4byte	.LVL65
 2971 0df6 7A110000 		.4byte	0x117a
 2972 0dfa 040E0000 		.4byte	0xe04
 2973 0dfe 21       		.uleb128 0x21
 2974 0dff 01       		.uleb128 0x1
 2975 0e00 50       		.byte	0x50
 2976 0e01 01       		.uleb128 0x1
 2977 0e02 49       		.byte	0x49
 2978 0e03 00       		.byte	0
 2979 0e04 20       		.uleb128 0x20
 2980 0e05 94030000 		.4byte	.LVL66
 2981 0e09 D8110000 		.4byte	0x11d8
 2982 0e0d 210E0000 		.4byte	0xe21
 2983 0e11 21       		.uleb128 0x21
 2984 0e12 01       		.uleb128 0x1
 2985 0e13 51       		.byte	0x51
 2986 0e14 02       		.uleb128 0x2
 2987 0e15 08       		.byte	0x8
 2988 0e16 45       		.byte	0x45
 2989 0e17 21       		.uleb128 0x21
 2990 0e18 01       		.uleb128 0x1
 2991 0e19 50       		.byte	0x50
 2992 0e1a 05       		.uleb128 0x5
 2993 0e1b 03       		.byte	0x3
 2994 0e1c 00000000 		.4byte	.LANCHOR0
 2995 0e20 00       		.byte	0
 2996 0e21 20       		.uleb128 0x20
 2997 0e22 AA030000 		.4byte	.LVL69
 2998 0e26 7A110000 		.4byte	0x117a
 2999 0e2a 340E0000 		.4byte	0xe34
 3000 0e2e 21       		.uleb128 0x21
 3001 0e2f 01       		.uleb128 0x1
 3002 0e30 50       		.byte	0x50
 3003 0e31 01       		.uleb128 0x1
 3004 0e32 4A       		.byte	0x4a
 3005 0e33 00       		.byte	0
 3006 0e34 20       		.uleb128 0x20
 3007 0e35 C0030000 		.4byte	.LVL70
 3008 0e39 7A110000 		.4byte	0x117a
 3009 0e3d 4F0E0000 		.4byte	0xe4f
 3010 0e41 21       		.uleb128 0x21
 3011 0e42 01       		.uleb128 0x1
 3012 0e43 51       		.byte	0x51
 3013 0e44 04       		.uleb128 0x4
 3014 0e45 74       		.byte	0x74
 3015 0e46 00       		.sleb128 0
 3016 0e47 30       		.byte	0x30
ARM GAS  /tmp/ccvgYHYM.s 			page 54


 3017 0e48 29       		.byte	0x29
 3018 0e49 21       		.uleb128 0x21
 3019 0e4a 01       		.uleb128 0x1
 3020 0e4b 50       		.byte	0x50
 3021 0e4c 01       		.uleb128 0x1
 3022 0e4d 4B       		.byte	0x4b
 3023 0e4e 00       		.byte	0
 3024 0e4f 20       		.uleb128 0x20
 3025 0e50 DC030000 		.4byte	.LVL72
 3026 0e54 5C120000 		.4byte	0x125c
 3027 0e58 6C0E0000 		.4byte	0xe6c
 3028 0e5c 21       		.uleb128 0x21
 3029 0e5d 01       		.uleb128 0x1
 3030 0e5e 51       		.byte	0x51
 3031 0e5f 02       		.uleb128 0x2
 3032 0e60 91       		.byte	0x91
 3033 0e61 6C       		.sleb128 -20
 3034 0e62 21       		.uleb128 0x21
 3035 0e63 01       		.uleb128 0x1
 3036 0e64 50       		.byte	0x50
 3037 0e65 05       		.uleb128 0x5
 3038 0e66 03       		.byte	0x3
 3039 0e67 00000000 		.4byte	.LANCHOR0
 3040 0e6b 00       		.byte	0
 3041 0e6c 20       		.uleb128 0x20
 3042 0e6d F2030000 		.4byte	.LVL75
 3043 0e71 7A110000 		.4byte	0x117a
 3044 0e75 7F0E0000 		.4byte	0xe7f
 3045 0e79 21       		.uleb128 0x21
 3046 0e7a 01       		.uleb128 0x1
 3047 0e7b 50       		.byte	0x50
 3048 0e7c 01       		.uleb128 0x1
 3049 0e7d 4C       		.byte	0x4c
 3050 0e7e 00       		.byte	0
 3051 0e7f 22       		.uleb128 0x22
 3052 0e80 00040000 		.4byte	.LVL76
 3053 0e84 0C120000 		.4byte	0x120c
 3054 0e88 20       		.uleb128 0x20
 3055 0e89 12040000 		.4byte	.LVL78
 3056 0e8d 3C120000 		.4byte	0x123c
 3057 0e91 A40E0000 		.4byte	0xea4
 3058 0e95 21       		.uleb128 0x21
 3059 0e96 01       		.uleb128 0x1
 3060 0e97 51       		.byte	0x51
 3061 0e98 05       		.uleb128 0x5
 3062 0e99 03       		.byte	0x3
 3063 0e9a 00000000 		.4byte	.LC0
 3064 0e9e 21       		.uleb128 0x21
 3065 0e9f 01       		.uleb128 0x1
 3066 0ea0 50       		.byte	0x50
 3067 0ea1 01       		.uleb128 0x1
 3068 0ea2 4D       		.byte	0x4d
 3069 0ea3 00       		.byte	0
 3070 0ea4 20       		.uleb128 0x20
 3071 0ea5 2C040000 		.4byte	.LVL79
 3072 0ea9 7A110000 		.4byte	0x117a
 3073 0ead B70E0000 		.4byte	0xeb7
ARM GAS  /tmp/ccvgYHYM.s 			page 55


 3074 0eb1 21       		.uleb128 0x21
 3075 0eb2 01       		.uleb128 0x1
 3076 0eb3 50       		.byte	0x50
 3077 0eb4 01       		.uleb128 0x1
 3078 0eb5 4E       		.byte	0x4e
 3079 0eb6 00       		.byte	0
 3080 0eb7 20       		.uleb128 0x20
 3081 0eb8 4E040000 		.4byte	.LVL80
 3082 0ebc 7A110000 		.4byte	0x117a
 3083 0ec0 CA0E0000 		.4byte	0xeca
 3084 0ec4 21       		.uleb128 0x21
 3085 0ec5 01       		.uleb128 0x1
 3086 0ec6 50       		.byte	0x50
 3087 0ec7 01       		.uleb128 0x1
 3088 0ec8 4F       		.byte	0x4f
 3089 0ec9 00       		.byte	0
 3090 0eca 20       		.uleb128 0x20
 3091 0ecb 6A040000 		.4byte	.LVL81
 3092 0ecf 7A110000 		.4byte	0x117a
 3093 0ed3 DE0E0000 		.4byte	0xede
 3094 0ed7 21       		.uleb128 0x21
 3095 0ed8 01       		.uleb128 0x1
 3096 0ed9 50       		.byte	0x50
 3097 0eda 02       		.uleb128 0x2
 3098 0edb 08       		.byte	0x8
 3099 0edc 20       		.byte	0x20
 3100 0edd 00       		.byte	0
 3101 0ede 20       		.uleb128 0x20
 3102 0edf 84040000 		.4byte	.LVL82
 3103 0ee3 F2110000 		.4byte	0x11f2
 3104 0ee7 FB0E0000 		.4byte	0xefb
 3105 0eeb 21       		.uleb128 0x21
 3106 0eec 01       		.uleb128 0x1
 3107 0eed 51       		.byte	0x51
 3108 0eee 02       		.uleb128 0x2
 3109 0eef 08       		.byte	0x8
 3110 0ef0 45       		.byte	0x45
 3111 0ef1 21       		.uleb128 0x21
 3112 0ef2 01       		.uleb128 0x1
 3113 0ef3 50       		.byte	0x50
 3114 0ef4 05       		.uleb128 0x5
 3115 0ef5 03       		.byte	0x3
 3116 0ef6 00000000 		.4byte	.LANCHOR0
 3117 0efa 00       		.byte	0
 3118 0efb 20       		.uleb128 0x20
 3119 0efc 92040000 		.4byte	.LVL84
 3120 0f00 7A110000 		.4byte	0x117a
 3121 0f04 0F0F0000 		.4byte	0xf0f
 3122 0f08 21       		.uleb128 0x21
 3123 0f09 01       		.uleb128 0x1
 3124 0f0a 50       		.byte	0x50
 3125 0f0b 02       		.uleb128 0x2
 3126 0f0c 08       		.byte	0x8
 3127 0f0d 21       		.byte	0x21
 3128 0f0e 00       		.byte	0
 3129 0f0f 20       		.uleb128 0x20
 3130 0f10 A6040000 		.4byte	.LVL85
ARM GAS  /tmp/ccvgYHYM.s 			page 56


 3131 0f14 F2110000 		.4byte	0x11f2
 3132 0f18 2C0F0000 		.4byte	0xf2c
 3133 0f1c 21       		.uleb128 0x21
 3134 0f1d 01       		.uleb128 0x1
 3135 0f1e 51       		.byte	0x51
 3136 0f1f 02       		.uleb128 0x2
 3137 0f20 08       		.byte	0x8
 3138 0f21 44       		.byte	0x44
 3139 0f22 21       		.uleb128 0x21
 3140 0f23 01       		.uleb128 0x1
 3141 0f24 50       		.byte	0x50
 3142 0f25 05       		.uleb128 0x5
 3143 0f26 03       		.byte	0x3
 3144 0f27 00000000 		.4byte	.LANCHOR0
 3145 0f2b 00       		.byte	0
 3146 0f2c 20       		.uleb128 0x20
 3147 0f2d B4040000 		.4byte	.LVL87
 3148 0f31 7A110000 		.4byte	0x117a
 3149 0f35 400F0000 		.4byte	0xf40
 3150 0f39 21       		.uleb128 0x21
 3151 0f3a 01       		.uleb128 0x1
 3152 0f3b 50       		.byte	0x50
 3153 0f3c 02       		.uleb128 0x2
 3154 0f3d 08       		.byte	0x8
 3155 0f3e 22       		.byte	0x22
 3156 0f3f 00       		.byte	0
 3157 0f40 20       		.uleb128 0x20
 3158 0f41 C8040000 		.4byte	.LVL88
 3159 0f45 F2110000 		.4byte	0x11f2
 3160 0f49 5D0F0000 		.4byte	0xf5d
 3161 0f4d 21       		.uleb128 0x21
 3162 0f4e 01       		.uleb128 0x1
 3163 0f4f 51       		.byte	0x51
 3164 0f50 02       		.uleb128 0x2
 3165 0f51 08       		.byte	0x8
 3166 0f52 43       		.byte	0x43
 3167 0f53 21       		.uleb128 0x21
 3168 0f54 01       		.uleb128 0x1
 3169 0f55 50       		.byte	0x50
 3170 0f56 05       		.uleb128 0x5
 3171 0f57 03       		.byte	0x3
 3172 0f58 00000000 		.4byte	.LANCHOR0
 3173 0f5c 00       		.byte	0
 3174 0f5d 20       		.uleb128 0x20
 3175 0f5e D6040000 		.4byte	.LVL90
 3176 0f62 7A110000 		.4byte	0x117a
 3177 0f66 710F0000 		.4byte	0xf71
 3178 0f6a 21       		.uleb128 0x21
 3179 0f6b 01       		.uleb128 0x1
 3180 0f6c 50       		.byte	0x50
 3181 0f6d 02       		.uleb128 0x2
 3182 0f6e 08       		.byte	0x8
 3183 0f6f 23       		.byte	0x23
 3184 0f70 00       		.byte	0
 3185 0f71 20       		.uleb128 0x20
 3186 0f72 EA040000 		.4byte	.LVL91
 3187 0f76 F2110000 		.4byte	0x11f2
ARM GAS  /tmp/ccvgYHYM.s 			page 57


 3188 0f7a 8E0F0000 		.4byte	0xf8e
 3189 0f7e 21       		.uleb128 0x21
 3190 0f7f 01       		.uleb128 0x1
 3191 0f80 51       		.byte	0x51
 3192 0f81 02       		.uleb128 0x2
 3193 0f82 08       		.byte	0x8
 3194 0f83 42       		.byte	0x42
 3195 0f84 21       		.uleb128 0x21
 3196 0f85 01       		.uleb128 0x1
 3197 0f86 50       		.byte	0x50
 3198 0f87 05       		.uleb128 0x5
 3199 0f88 03       		.byte	0x3
 3200 0f89 00000000 		.4byte	.LANCHOR0
 3201 0f8d 00       		.byte	0
 3202 0f8e 20       		.uleb128 0x20
 3203 0f8f F8040000 		.4byte	.LVL93
 3204 0f93 7A110000 		.4byte	0x117a
 3205 0f97 A20F0000 		.4byte	0xfa2
 3206 0f9b 21       		.uleb128 0x21
 3207 0f9c 01       		.uleb128 0x1
 3208 0f9d 50       		.byte	0x50
 3209 0f9e 02       		.uleb128 0x2
 3210 0f9f 08       		.byte	0x8
 3211 0fa0 24       		.byte	0x24
 3212 0fa1 00       		.byte	0
 3213 0fa2 20       		.uleb128 0x20
 3214 0fa3 0C050000 		.4byte	.LVL94
 3215 0fa7 F2110000 		.4byte	0x11f2
 3216 0fab BF0F0000 		.4byte	0xfbf
 3217 0faf 21       		.uleb128 0x21
 3218 0fb0 01       		.uleb128 0x1
 3219 0fb1 51       		.byte	0x51
 3220 0fb2 02       		.uleb128 0x2
 3221 0fb3 08       		.byte	0x8
 3222 0fb4 41       		.byte	0x41
 3223 0fb5 21       		.uleb128 0x21
 3224 0fb6 01       		.uleb128 0x1
 3225 0fb7 50       		.byte	0x50
 3226 0fb8 05       		.uleb128 0x5
 3227 0fb9 03       		.byte	0x3
 3228 0fba 00000000 		.4byte	.LANCHOR0
 3229 0fbe 00       		.byte	0
 3230 0fbf 20       		.uleb128 0x20
 3231 0fc0 22050000 		.4byte	.LVL97
 3232 0fc4 7A110000 		.4byte	0x117a
 3233 0fc8 D30F0000 		.4byte	0xfd3
 3234 0fcc 21       		.uleb128 0x21
 3235 0fcd 01       		.uleb128 0x1
 3236 0fce 50       		.byte	0x50
 3237 0fcf 02       		.uleb128 0x2
 3238 0fd0 08       		.byte	0x8
 3239 0fd1 25       		.byte	0x25
 3240 0fd2 00       		.byte	0
 3241 0fd3 20       		.uleb128 0x20
 3242 0fd4 3E050000 		.4byte	.LVL98
 3243 0fd8 7A110000 		.4byte	0x117a
 3244 0fdc E70F0000 		.4byte	0xfe7
ARM GAS  /tmp/ccvgYHYM.s 			page 58


 3245 0fe0 21       		.uleb128 0x21
 3246 0fe1 01       		.uleb128 0x1
 3247 0fe2 50       		.byte	0x50
 3248 0fe3 02       		.uleb128 0x2
 3249 0fe4 08       		.byte	0x8
 3250 0fe5 26       		.byte	0x26
 3251 0fe6 00       		.byte	0
 3252 0fe7 20       		.uleb128 0x20
 3253 0fe8 5A050000 		.4byte	.LVL100
 3254 0fec 5C120000 		.4byte	0x125c
 3255 0ff0 04100000 		.4byte	0x1004
 3256 0ff4 21       		.uleb128 0x21
 3257 0ff5 01       		.uleb128 0x1
 3258 0ff6 51       		.byte	0x51
 3259 0ff7 02       		.uleb128 0x2
 3260 0ff8 91       		.byte	0x91
 3261 0ff9 6C       		.sleb128 -20
 3262 0ffa 21       		.uleb128 0x21
 3263 0ffb 01       		.uleb128 0x1
 3264 0ffc 50       		.byte	0x50
 3265 0ffd 05       		.uleb128 0x5
 3266 0ffe 03       		.byte	0x3
 3267 0fff 00000000 		.4byte	.LANCHOR0
 3268 1003 00       		.byte	0
 3269 1004 20       		.uleb128 0x20
 3270 1005 70050000 		.4byte	.LVL103
 3271 1009 7A110000 		.4byte	0x117a
 3272 100d 18100000 		.4byte	0x1018
 3273 1011 21       		.uleb128 0x21
 3274 1012 01       		.uleb128 0x1
 3275 1013 50       		.byte	0x50
 3276 1014 02       		.uleb128 0x2
 3277 1015 08       		.byte	0x8
 3278 1016 27       		.byte	0x27
 3279 1017 00       		.byte	0
 3280 1018 22       		.uleb128 0x22
 3281 1019 7E050000 		.4byte	.LVL104
 3282 101d 0C120000 		.4byte	0x120c
 3283 1021 20       		.uleb128 0x20
 3284 1022 90050000 		.4byte	.LVL106
 3285 1026 3C120000 		.4byte	0x123c
 3286 102a 3E100000 		.4byte	0x103e
 3287 102e 21       		.uleb128 0x21
 3288 102f 01       		.uleb128 0x1
 3289 1030 51       		.byte	0x51
 3290 1031 05       		.uleb128 0x5
 3291 1032 03       		.byte	0x3
 3292 1033 00000000 		.4byte	.LC0
 3293 1037 21       		.uleb128 0x21
 3294 1038 01       		.uleb128 0x1
 3295 1039 50       		.byte	0x50
 3296 103a 02       		.uleb128 0x2
 3297 103b 08       		.byte	0x8
 3298 103c 28       		.byte	0x28
 3299 103d 00       		.byte	0
 3300 103e 20       		.uleb128 0x20
 3301 103f B0050000 		.4byte	.LVL107
ARM GAS  /tmp/ccvgYHYM.s 			page 59


 3302 1043 7A110000 		.4byte	0x117a
 3303 1047 52100000 		.4byte	0x1052
 3304 104b 21       		.uleb128 0x21
 3305 104c 01       		.uleb128 0x1
 3306 104d 50       		.byte	0x50
 3307 104e 02       		.uleb128 0x2
 3308 104f 08       		.byte	0x8
 3309 1050 29       		.byte	0x29
 3310 1051 00       		.byte	0
 3311 1052 20       		.uleb128 0x20
 3312 1053 D2050000 		.4byte	.LVL108
 3313 1057 7A110000 		.4byte	0x117a
 3314 105b 66100000 		.4byte	0x1066
 3315 105f 21       		.uleb128 0x21
 3316 1060 01       		.uleb128 0x1
 3317 1061 50       		.byte	0x50
 3318 1062 02       		.uleb128 0x2
 3319 1063 08       		.byte	0x8
 3320 1064 2A       		.byte	0x2a
 3321 1065 00       		.byte	0
 3322 1066 20       		.uleb128 0x20
 3323 1067 EE050000 		.4byte	.LVL109
 3324 106b 7A110000 		.4byte	0x117a
 3325 106f 82100000 		.4byte	0x1082
 3326 1073 21       		.uleb128 0x21
 3327 1074 01       		.uleb128 0x1
 3328 1075 51       		.byte	0x51
 3329 1076 04       		.uleb128 0x4
 3330 1077 76       		.byte	0x76
 3331 1078 00       		.sleb128 0
 3332 1079 30       		.byte	0x30
 3333 107a 29       		.byte	0x29
 3334 107b 21       		.uleb128 0x21
 3335 107c 01       		.uleb128 0x1
 3336 107d 50       		.byte	0x50
 3337 107e 02       		.uleb128 0x2
 3338 107f 08       		.byte	0x8
 3339 1080 2B       		.byte	0x2b
 3340 1081 00       		.byte	0
 3341 1082 20       		.uleb128 0x20
 3342 1083 00060000 		.4byte	.LVL110
 3343 1087 76120000 		.4byte	0x1276
 3344 108b 99100000 		.4byte	0x1099
 3345 108f 21       		.uleb128 0x21
 3346 1090 01       		.uleb128 0x1
 3347 1091 50       		.byte	0x50
 3348 1092 05       		.uleb128 0x5
 3349 1093 03       		.byte	0x3
 3350 1094 00000000 		.4byte	.LANCHOR0
 3351 1098 00       		.byte	0
 3352 1099 20       		.uleb128 0x20
 3353 109a 14060000 		.4byte	.LVL112
 3354 109e 7A110000 		.4byte	0x117a
 3355 10a2 B5100000 		.4byte	0x10b5
 3356 10a6 21       		.uleb128 0x21
 3357 10a7 01       		.uleb128 0x1
 3358 10a8 51       		.byte	0x51
ARM GAS  /tmp/ccvgYHYM.s 			page 60


 3359 10a9 04       		.uleb128 0x4
 3360 10aa 74       		.byte	0x74
 3361 10ab 00       		.sleb128 0
 3362 10ac 30       		.byte	0x30
 3363 10ad 29       		.byte	0x29
 3364 10ae 21       		.uleb128 0x21
 3365 10af 01       		.uleb128 0x1
 3366 10b0 50       		.byte	0x50
 3367 10b1 02       		.uleb128 0x2
 3368 10b2 08       		.byte	0x8
 3369 10b3 2C       		.byte	0x2c
 3370 10b4 00       		.byte	0
 3371 10b5 20       		.uleb128 0x20
 3372 10b6 36060000 		.4byte	.LVL113
 3373 10ba 7A110000 		.4byte	0x117a
 3374 10be C9100000 		.4byte	0x10c9
 3375 10c2 21       		.uleb128 0x21
 3376 10c3 01       		.uleb128 0x1
 3377 10c4 50       		.byte	0x50
 3378 10c5 02       		.uleb128 0x2
 3379 10c6 08       		.byte	0x8
 3380 10c7 2D       		.byte	0x2d
 3381 10c8 00       		.byte	0
 3382 10c9 20       		.uleb128 0x20
 3383 10ca 58060000 		.4byte	.LVL114
 3384 10ce 7A110000 		.4byte	0x117a
 3385 10d2 DD100000 		.4byte	0x10dd
 3386 10d6 21       		.uleb128 0x21
 3387 10d7 01       		.uleb128 0x1
 3388 10d8 50       		.byte	0x50
 3389 10d9 02       		.uleb128 0x2
 3390 10da 08       		.byte	0x8
 3391 10db 2E       		.byte	0x2e
 3392 10dc 00       		.byte	0
 3393 10dd 23       		.uleb128 0x23
 3394 10de 7A060000 		.4byte	.LVL115
 3395 10e2 7A110000 		.4byte	0x117a
 3396 10e6 21       		.uleb128 0x21
 3397 10e7 01       		.uleb128 0x1
 3398 10e8 50       		.byte	0x50
 3399 10e9 02       		.uleb128 0x2
 3400 10ea 08       		.byte	0x8
 3401 10eb 2F       		.byte	0x2f
 3402 10ec 00       		.byte	0
 3403 10ed 00       		.byte	0
 3404 10ee 19       		.uleb128 0x19
 3405 10ef 27020000 		.4byte	.LASF83
 3406 10f3 01       		.byte	0x1
 3407 10f4 47       		.byte	0x47
 3408 10f5 00000000 		.4byte	.LFB7
 3409 10f9 16000000 		.4byte	.LFE7-.LFB7
 3410 10fd 01       		.uleb128 0x1
 3411 10fe 9C       		.byte	0x9c
 3412 10ff 1C110000 		.4byte	0x111c
 3413 1103 24       		.uleb128 0x24
 3414 1104 16000000 		.4byte	.LVL116
 3415 1108 87120000 		.4byte	0x1287
ARM GAS  /tmp/ccvgYHYM.s 			page 61


 3416 110c 21       		.uleb128 0x21
 3417 110d 01       		.uleb128 0x1
 3418 110e 52       		.byte	0x52
 3419 110f 01       		.uleb128 0x1
 3420 1110 35       		.byte	0x35
 3421 1111 21       		.uleb128 0x21
 3422 1112 01       		.uleb128 0x1
 3423 1113 50       		.byte	0x50
 3424 1114 05       		.uleb128 0x5
 3425 1115 03       		.byte	0x3
 3426 1116 00000000 		.4byte	.LANCHOR0
 3427 111a 00       		.byte	0
 3428 111b 00       		.byte	0
 3429 111c 1E       		.uleb128 0x1e
 3430 111d 6D623100 		.ascii	"mb1\000"
 3431 1121 01       		.byte	0x1
 3432 1122 3C       		.byte	0x3c
 3433 1123 1C040000 		.4byte	0x41c
 3434 1127 05       		.uleb128 0x5
 3435 1128 03       		.byte	0x3
 3436 1129 00000000 		.4byte	mb1
 3437 112d 25       		.uleb128 0x25
 3438 112e 6D000000 		.4byte	.LASF84
 3439 1132 0B       		.byte	0xb
 3440 1133 A6       		.byte	0xa6
 3441 1134 0D050000 		.4byte	0x50d
 3442 1138 26       		.uleb128 0x26
 3443 1139 5B020000 		.4byte	.LASF85
 3444 113d 01       		.byte	0x1
 3445 113e DE       		.byte	0xde
 3446 113f 49110000 		.4byte	0x1149
 3447 1143 05       		.uleb128 0x5
 3448 1144 03       		.byte	0x3
 3449 1145 00000000 		.4byte	testmbox1
 3450 1149 10       		.uleb128 0x10
 3451 114a 74040000 		.4byte	0x474
 3452 114e 14       		.uleb128 0x14
 3453 114f 5E110000 		.4byte	0x115e
 3454 1153 5E110000 		.4byte	0x115e
 3455 1157 15       		.uleb128 0x15
 3456 1158 47030000 		.4byte	0x347
 3457 115c 01       		.byte	0x1
 3458 115d 00       		.byte	0
 3459 115e 09       		.uleb128 0x9
 3460 115f 04       		.byte	0x4
 3461 1160 49110000 		.4byte	0x1149
 3462 1164 26       		.uleb128 0x26
 3463 1165 58000000 		.4byte	.LASF86
 3464 1169 01       		.byte	0x1
 3465 116a EA       		.byte	0xea
 3466 116b 75110000 		.4byte	0x1175
 3467 116f 05       		.uleb128 0x5
 3468 1170 03       		.byte	0x3
 3469 1171 00000000 		.4byte	patternmbox
 3470 1175 10       		.uleb128 0x10
 3471 1176 4E110000 		.4byte	0x114e
 3472 117a 27       		.uleb128 0x27
ARM GAS  /tmp/ccvgYHYM.s 			page 62


 3473 117b 5C040000 		.4byte	.LASF87
 3474 117f 0B       		.byte	0xb
 3475 1180 58       		.byte	0x58
 3476 1181 C3000000 		.4byte	0xc3
 3477 1185 94110000 		.4byte	0x1194
 3478 1189 28       		.uleb128 0x28
 3479 118a 2C000000 		.4byte	0x2c
 3480 118e 28       		.uleb128 0x28
 3481 118f C3000000 		.4byte	0xc3
 3482 1193 00       		.byte	0
 3483 1194 27       		.uleb128 0x27
 3484 1195 CD000000 		.4byte	.LASF88
 3485 1199 0A       		.byte	0xa
 3486 119a 45       		.byte	0x45
 3487 119b 0C010000 		.4byte	0x10c
 3488 119f B3110000 		.4byte	0x11b3
 3489 11a3 28       		.uleb128 0x28
 3490 11a4 B3110000 		.4byte	0x11b3
 3491 11a8 28       		.uleb128 0x28
 3492 11a9 0C010000 		.4byte	0x10c
 3493 11ad 28       		.uleb128 0x28
 3494 11ae 22010000 		.4byte	0x122
 3495 11b2 00       		.byte	0
 3496 11b3 09       		.uleb128 0x9
 3497 11b4 04       		.byte	0x4
 3498 11b5 1C040000 		.4byte	0x41c
 3499 11b9 27       		.uleb128 0x27
 3500 11ba F3030000 		.4byte	.LASF89
 3501 11be 0A       		.byte	0xa
 3502 11bf 48       		.byte	0x48
 3503 11c0 0C010000 		.4byte	0x10c
 3504 11c4 D8110000 		.4byte	0x11d8
 3505 11c8 28       		.uleb128 0x28
 3506 11c9 B3110000 		.4byte	0x11b3
 3507 11cd 28       		.uleb128 0x28
 3508 11ce 0C010000 		.4byte	0x10c
 3509 11d2 28       		.uleb128 0x28
 3510 11d3 22010000 		.4byte	0x122
 3511 11d7 00       		.byte	0
 3512 11d8 27       		.uleb128 0x27
 3513 11d9 20000000 		.4byte	.LASF90
 3514 11dd 0A       		.byte	0xa
 3515 11de 47       		.byte	0x47
 3516 11df 0C010000 		.4byte	0x10c
 3517 11e3 F2110000 		.4byte	0x11f2
 3518 11e7 28       		.uleb128 0x28
 3519 11e8 B3110000 		.4byte	0x11b3
 3520 11ec 28       		.uleb128 0x28
 3521 11ed 0C010000 		.4byte	0x10c
 3522 11f1 00       		.byte	0
 3523 11f2 27       		.uleb128 0x27
 3524 11f3 32000000 		.4byte	.LASF91
 3525 11f7 0A       		.byte	0xa
 3526 11f8 4A       		.byte	0x4a
 3527 11f9 0C010000 		.4byte	0x10c
 3528 11fd 0C120000 		.4byte	0x120c
 3529 1201 28       		.uleb128 0x28
ARM GAS  /tmp/ccvgYHYM.s 			page 63


 3530 1202 B3110000 		.4byte	0x11b3
 3531 1206 28       		.uleb128 0x28
 3532 1207 0C010000 		.4byte	0x10c
 3533 120b 00       		.byte	0
 3534 120c 29       		.uleb128 0x29
 3535 120d B3000000 		.4byte	.LASF95
 3536 1211 0B       		.byte	0xb
 3537 1212 56       		.byte	0x56
 3538 1213 1D120000 		.4byte	0x121d
 3539 1217 28       		.uleb128 0x28
 3540 1218 67040000 		.4byte	0x467
 3541 121c 00       		.byte	0
 3542 121d 27       		.uleb128 0x27
 3543 121e 13040000 		.4byte	.LASF92
 3544 1222 0A       		.byte	0xa
 3545 1223 4B       		.byte	0x4b
 3546 1224 0C010000 		.4byte	0x10c
 3547 1228 3C120000 		.4byte	0x123c
 3548 122c 28       		.uleb128 0x28
 3549 122d B3110000 		.4byte	0x11b3
 3550 1231 28       		.uleb128 0x28
 3551 1232 16040000 		.4byte	0x416
 3552 1236 28       		.uleb128 0x28
 3553 1237 22010000 		.4byte	0x122
 3554 123b 00       		.byte	0
 3555 123c 27       		.uleb128 0x27
 3556 123d CF020000 		.4byte	.LASF93
 3557 1241 0B       		.byte	0xb
 3558 1242 59       		.byte	0x59
 3559 1243 C3000000 		.4byte	0xc3
 3560 1247 56120000 		.4byte	0x1256
 3561 124b 28       		.uleb128 0x28
 3562 124c 2C000000 		.4byte	0x2c
 3563 1250 28       		.uleb128 0x28
 3564 1251 56120000 		.4byte	0x1256
 3565 1255 00       		.byte	0
 3566 1256 09       		.uleb128 0x9
 3567 1257 04       		.byte	0x4
 3568 1258 67040000 		.4byte	0x467
 3569 125c 27       		.uleb128 0x27
 3570 125d 86010000 		.4byte	.LASF94
 3571 1261 0A       		.byte	0xa
 3572 1262 4D       		.byte	0x4d
 3573 1263 0C010000 		.4byte	0x10c
 3574 1267 76120000 		.4byte	0x1276
 3575 126b 28       		.uleb128 0x28
 3576 126c B3110000 		.4byte	0x11b3
 3577 1270 28       		.uleb128 0x28
 3578 1271 16040000 		.4byte	0x416
 3579 1275 00       		.byte	0
 3580 1276 29       		.uleb128 0x29
 3581 1277 AA020000 		.4byte	.LASF96
 3582 127b 0A       		.byte	0xa
 3583 127c 44       		.byte	0x44
 3584 127d 87120000 		.4byte	0x1287
 3585 1281 28       		.uleb128 0x28
 3586 1282 B3110000 		.4byte	0x11b3
ARM GAS  /tmp/ccvgYHYM.s 			page 64


 3587 1286 00       		.byte	0
 3588 1287 2A       		.uleb128 0x2a
 3589 1288 26010000 		.4byte	.LASF101
 3590 128c 0A       		.byte	0xa
 3591 128d 43       		.byte	0x43
 3592 128e 28       		.uleb128 0x28
 3593 128f B3110000 		.4byte	0x11b3
 3594 1293 28       		.uleb128 0x28
 3595 1294 16040000 		.4byte	0x416
 3596 1298 28       		.uleb128 0x28
 3597 1299 2D010000 		.4byte	0x12d
 3598 129d 00       		.byte	0
 3599 129e 00       		.byte	0
 3600              		.section	.debug_abbrev,"",%progbits
 3601              	.Ldebug_abbrev0:
 3602 0000 01       		.uleb128 0x1
 3603 0001 11       		.uleb128 0x11
 3604 0002 01       		.byte	0x1
 3605 0003 25       		.uleb128 0x25
 3606 0004 0E       		.uleb128 0xe
 3607 0005 13       		.uleb128 0x13
 3608 0006 0B       		.uleb128 0xb
 3609 0007 03       		.uleb128 0x3
 3610 0008 0E       		.uleb128 0xe
 3611 0009 1B       		.uleb128 0x1b
 3612 000a 0E       		.uleb128 0xe
 3613 000b 55       		.uleb128 0x55
 3614 000c 17       		.uleb128 0x17
 3615 000d 11       		.uleb128 0x11
 3616 000e 01       		.uleb128 0x1
 3617 000f 10       		.uleb128 0x10
 3618 0010 17       		.uleb128 0x17
 3619 0011 00       		.byte	0
 3620 0012 00       		.byte	0
 3621 0013 02       		.uleb128 0x2
 3622 0014 24       		.uleb128 0x24
 3623 0015 00       		.byte	0
 3624 0016 0B       		.uleb128 0xb
 3625 0017 0B       		.uleb128 0xb
 3626 0018 3E       		.uleb128 0x3e
 3627 0019 0B       		.uleb128 0xb
 3628 001a 03       		.uleb128 0x3
 3629 001b 08       		.uleb128 0x8
 3630 001c 00       		.byte	0
 3631 001d 00       		.byte	0
 3632 001e 03       		.uleb128 0x3
 3633 001f 24       		.uleb128 0x24
 3634 0020 00       		.byte	0
 3635 0021 0B       		.uleb128 0xb
 3636 0022 0B       		.uleb128 0xb
 3637 0023 3E       		.uleb128 0x3e
 3638 0024 0B       		.uleb128 0xb
 3639 0025 03       		.uleb128 0x3
 3640 0026 0E       		.uleb128 0xe
 3641 0027 00       		.byte	0
 3642 0028 00       		.byte	0
 3643 0029 04       		.uleb128 0x4
ARM GAS  /tmp/ccvgYHYM.s 			page 65


 3644 002a 16       		.uleb128 0x16
 3645 002b 00       		.byte	0
 3646 002c 03       		.uleb128 0x3
 3647 002d 0E       		.uleb128 0xe
 3648 002e 3A       		.uleb128 0x3a
 3649 002f 0B       		.uleb128 0xb
 3650 0030 3B       		.uleb128 0x3b
 3651 0031 0B       		.uleb128 0xb
 3652 0032 49       		.uleb128 0x49
 3653 0033 13       		.uleb128 0x13
 3654 0034 00       		.byte	0
 3655 0035 00       		.byte	0
 3656 0036 05       		.uleb128 0x5
 3657 0037 13       		.uleb128 0x13
 3658 0038 01       		.byte	0x1
 3659 0039 03       		.uleb128 0x3
 3660 003a 0E       		.uleb128 0xe
 3661 003b 0B       		.uleb128 0xb
 3662 003c 0B       		.uleb128 0xb
 3663 003d 3A       		.uleb128 0x3a
 3664 003e 0B       		.uleb128 0xb
 3665 003f 3B       		.uleb128 0x3b
 3666 0040 0B       		.uleb128 0xb
 3667 0041 01       		.uleb128 0x1
 3668 0042 13       		.uleb128 0x13
 3669 0043 00       		.byte	0
 3670 0044 00       		.byte	0
 3671 0045 06       		.uleb128 0x6
 3672 0046 0D       		.uleb128 0xd
 3673 0047 00       		.byte	0
 3674 0048 03       		.uleb128 0x3
 3675 0049 0E       		.uleb128 0xe
 3676 004a 3A       		.uleb128 0x3a
 3677 004b 0B       		.uleb128 0xb
 3678 004c 3B       		.uleb128 0x3b
 3679 004d 0B       		.uleb128 0xb
 3680 004e 49       		.uleb128 0x49
 3681 004f 13       		.uleb128 0x13
 3682 0050 38       		.uleb128 0x38
 3683 0051 0B       		.uleb128 0xb
 3684 0052 00       		.byte	0
 3685 0053 00       		.byte	0
 3686 0054 07       		.uleb128 0x7
 3687 0055 0D       		.uleb128 0xd
 3688 0056 00       		.byte	0
 3689 0057 03       		.uleb128 0x3
 3690 0058 08       		.uleb128 0x8
 3691 0059 3A       		.uleb128 0x3a
 3692 005a 0B       		.uleb128 0xb
 3693 005b 3B       		.uleb128 0x3b
 3694 005c 0B       		.uleb128 0xb
 3695 005d 49       		.uleb128 0x49
 3696 005e 13       		.uleb128 0x13
 3697 005f 38       		.uleb128 0x38
 3698 0060 0B       		.uleb128 0xb
 3699 0061 00       		.byte	0
 3700 0062 00       		.byte	0
ARM GAS  /tmp/ccvgYHYM.s 			page 66


 3701 0063 08       		.uleb128 0x8
 3702 0064 13       		.uleb128 0x13
 3703 0065 01       		.byte	0x1
 3704 0066 0B       		.uleb128 0xb
 3705 0067 0B       		.uleb128 0xb
 3706 0068 3A       		.uleb128 0x3a
 3707 0069 0B       		.uleb128 0xb
 3708 006a 3B       		.uleb128 0x3b
 3709 006b 0B       		.uleb128 0xb
 3710 006c 01       		.uleb128 0x1
 3711 006d 13       		.uleb128 0x13
 3712 006e 00       		.byte	0
 3713 006f 00       		.byte	0
 3714 0070 09       		.uleb128 0x9
 3715 0071 0F       		.uleb128 0xf
 3716 0072 00       		.byte	0
 3717 0073 0B       		.uleb128 0xb
 3718 0074 0B       		.uleb128 0xb
 3719 0075 49       		.uleb128 0x49
 3720 0076 13       		.uleb128 0x13
 3721 0077 00       		.byte	0
 3722 0078 00       		.byte	0
 3723 0079 0A       		.uleb128 0xa
 3724 007a 0F       		.uleb128 0xf
 3725 007b 00       		.byte	0
 3726 007c 0B       		.uleb128 0xb
 3727 007d 0B       		.uleb128 0xb
 3728 007e 00       		.byte	0
 3729 007f 00       		.byte	0
 3730 0080 0B       		.uleb128 0xb
 3731 0081 13       		.uleb128 0x13
 3732 0082 01       		.byte	0x1
 3733 0083 03       		.uleb128 0x3
 3734 0084 0E       		.uleb128 0xe
 3735 0085 0B       		.uleb128 0xb
 3736 0086 0B       		.uleb128 0xb
 3737 0087 3A       		.uleb128 0x3a
 3738 0088 0B       		.uleb128 0xb
 3739 0089 3B       		.uleb128 0x3b
 3740 008a 05       		.uleb128 0x5
 3741 008b 01       		.uleb128 0x1
 3742 008c 13       		.uleb128 0x13
 3743 008d 00       		.byte	0
 3744 008e 00       		.byte	0
 3745 008f 0C       		.uleb128 0xc
 3746 0090 0D       		.uleb128 0xd
 3747 0091 00       		.byte	0
 3748 0092 03       		.uleb128 0x3
 3749 0093 08       		.uleb128 0x8
 3750 0094 3A       		.uleb128 0x3a
 3751 0095 0B       		.uleb128 0xb
 3752 0096 3B       		.uleb128 0x3b
 3753 0097 05       		.uleb128 0x5
 3754 0098 49       		.uleb128 0x49
 3755 0099 13       		.uleb128 0x13
 3756 009a 38       		.uleb128 0x38
 3757 009b 0B       		.uleb128 0xb
ARM GAS  /tmp/ccvgYHYM.s 			page 67


 3758 009c 00       		.byte	0
 3759 009d 00       		.byte	0
 3760 009e 0D       		.uleb128 0xd
 3761 009f 35       		.uleb128 0x35
 3762 00a0 00       		.byte	0
 3763 00a1 49       		.uleb128 0x49
 3764 00a2 13       		.uleb128 0x13
 3765 00a3 00       		.byte	0
 3766 00a4 00       		.byte	0
 3767 00a5 0E       		.uleb128 0xe
 3768 00a6 17       		.uleb128 0x17
 3769 00a7 01       		.byte	0x1
 3770 00a8 0B       		.uleb128 0xb
 3771 00a9 0B       		.uleb128 0xb
 3772 00aa 3A       		.uleb128 0x3a
 3773 00ab 0B       		.uleb128 0xb
 3774 00ac 3B       		.uleb128 0x3b
 3775 00ad 0B       		.uleb128 0xb
 3776 00ae 01       		.uleb128 0x1
 3777 00af 13       		.uleb128 0x13
 3778 00b0 00       		.byte	0
 3779 00b1 00       		.byte	0
 3780 00b2 0F       		.uleb128 0xf
 3781 00b3 0D       		.uleb128 0xd
 3782 00b4 00       		.byte	0
 3783 00b5 03       		.uleb128 0x3
 3784 00b6 0E       		.uleb128 0xe
 3785 00b7 3A       		.uleb128 0x3a
 3786 00b8 0B       		.uleb128 0xb
 3787 00b9 3B       		.uleb128 0x3b
 3788 00ba 0B       		.uleb128 0xb
 3789 00bb 49       		.uleb128 0x49
 3790 00bc 13       		.uleb128 0x13
 3791 00bd 00       		.byte	0
 3792 00be 00       		.byte	0
 3793 00bf 10       		.uleb128 0x10
 3794 00c0 26       		.uleb128 0x26
 3795 00c1 00       		.byte	0
 3796 00c2 49       		.uleb128 0x49
 3797 00c3 13       		.uleb128 0x13
 3798 00c4 00       		.byte	0
 3799 00c5 00       		.byte	0
 3800 00c6 11       		.uleb128 0x11
 3801 00c7 15       		.uleb128 0x15
 3802 00c8 00       		.byte	0
 3803 00c9 27       		.uleb128 0x27
 3804 00ca 19       		.uleb128 0x19
 3805 00cb 00       		.byte	0
 3806 00cc 00       		.byte	0
 3807 00cd 12       		.uleb128 0x12
 3808 00ce 13       		.uleb128 0x13
 3809 00cf 01       		.byte	0x1
 3810 00d0 0B       		.uleb128 0xb
 3811 00d1 05       		.uleb128 0x5
 3812 00d2 3A       		.uleb128 0x3a
 3813 00d3 0B       		.uleb128 0xb
 3814 00d4 3B       		.uleb128 0x3b
ARM GAS  /tmp/ccvgYHYM.s 			page 68


 3815 00d5 0B       		.uleb128 0xb
 3816 00d6 01       		.uleb128 0x1
 3817 00d7 13       		.uleb128 0x13
 3818 00d8 00       		.byte	0
 3819 00d9 00       		.byte	0
 3820 00da 13       		.uleb128 0x13
 3821 00db 0D       		.uleb128 0xd
 3822 00dc 00       		.byte	0
 3823 00dd 03       		.uleb128 0x3
 3824 00de 08       		.uleb128 0x8
 3825 00df 3A       		.uleb128 0x3a
 3826 00e0 0B       		.uleb128 0xb
 3827 00e1 3B       		.uleb128 0x3b
 3828 00e2 0B       		.uleb128 0xb
 3829 00e3 49       		.uleb128 0x49
 3830 00e4 13       		.uleb128 0x13
 3831 00e5 38       		.uleb128 0x38
 3832 00e6 05       		.uleb128 0x5
 3833 00e7 00       		.byte	0
 3834 00e8 00       		.byte	0
 3835 00e9 14       		.uleb128 0x14
 3836 00ea 01       		.uleb128 0x1
 3837 00eb 01       		.byte	0x1
 3838 00ec 49       		.uleb128 0x49
 3839 00ed 13       		.uleb128 0x13
 3840 00ee 01       		.uleb128 0x1
 3841 00ef 13       		.uleb128 0x13
 3842 00f0 00       		.byte	0
 3843 00f1 00       		.byte	0
 3844 00f2 15       		.uleb128 0x15
 3845 00f3 21       		.uleb128 0x21
 3846 00f4 00       		.byte	0
 3847 00f5 49       		.uleb128 0x49
 3848 00f6 13       		.uleb128 0x13
 3849 00f7 2F       		.uleb128 0x2f
 3850 00f8 0B       		.uleb128 0xb
 3851 00f9 00       		.byte	0
 3852 00fa 00       		.byte	0
 3853 00fb 16       		.uleb128 0x16
 3854 00fc 17       		.uleb128 0x17
 3855 00fd 01       		.byte	0x1
 3856 00fe 03       		.uleb128 0x3
 3857 00ff 0E       		.uleb128 0xe
 3858 0100 0B       		.uleb128 0xb
 3859 0101 05       		.uleb128 0x5
 3860 0102 3A       		.uleb128 0x3a
 3861 0103 0B       		.uleb128 0xb
 3862 0104 3B       		.uleb128 0x3b
 3863 0105 0B       		.uleb128 0xb
 3864 0106 01       		.uleb128 0x1
 3865 0107 13       		.uleb128 0x13
 3866 0108 00       		.byte	0
 3867 0109 00       		.byte	0
 3868 010a 17       		.uleb128 0x17
 3869 010b 0D       		.uleb128 0xd
 3870 010c 00       		.byte	0
 3871 010d 03       		.uleb128 0x3
ARM GAS  /tmp/ccvgYHYM.s 			page 69


 3872 010e 08       		.uleb128 0x8
 3873 010f 3A       		.uleb128 0x3a
 3874 0110 0B       		.uleb128 0xb
 3875 0111 3B       		.uleb128 0x3b
 3876 0112 0B       		.uleb128 0xb
 3877 0113 49       		.uleb128 0x49
 3878 0114 13       		.uleb128 0x13
 3879 0115 00       		.byte	0
 3880 0116 00       		.byte	0
 3881 0117 18       		.uleb128 0x18
 3882 0118 21       		.uleb128 0x21
 3883 0119 00       		.byte	0
 3884 011a 49       		.uleb128 0x49
 3885 011b 13       		.uleb128 0x13
 3886 011c 2F       		.uleb128 0x2f
 3887 011d 05       		.uleb128 0x5
 3888 011e 00       		.byte	0
 3889 011f 00       		.byte	0
 3890 0120 19       		.uleb128 0x19
 3891 0121 2E       		.uleb128 0x2e
 3892 0122 01       		.byte	0x1
 3893 0123 03       		.uleb128 0x3
 3894 0124 0E       		.uleb128 0xe
 3895 0125 3A       		.uleb128 0x3a
 3896 0126 0B       		.uleb128 0xb
 3897 0127 3B       		.uleb128 0x3b
 3898 0128 0B       		.uleb128 0xb
 3899 0129 27       		.uleb128 0x27
 3900 012a 19       		.uleb128 0x19
 3901 012b 11       		.uleb128 0x11
 3902 012c 01       		.uleb128 0x1
 3903 012d 12       		.uleb128 0x12
 3904 012e 06       		.uleb128 0x6
 3905 012f 40       		.uleb128 0x40
 3906 0130 18       		.uleb128 0x18
 3907 0131 9742     		.uleb128 0x2117
 3908 0133 19       		.uleb128 0x19
 3909 0134 01       		.uleb128 0x1
 3910 0135 13       		.uleb128 0x13
 3911 0136 00       		.byte	0
 3912 0137 00       		.byte	0
 3913 0138 1A       		.uleb128 0x1a
 3914 0139 34       		.uleb128 0x34
 3915 013a 00       		.byte	0
 3916 013b 03       		.uleb128 0x3
 3917 013c 0E       		.uleb128 0xe
 3918 013d 3A       		.uleb128 0x3a
 3919 013e 0B       		.uleb128 0xb
 3920 013f 3B       		.uleb128 0x3b
 3921 0140 0B       		.uleb128 0xb
 3922 0141 49       		.uleb128 0x49
 3923 0142 13       		.uleb128 0x13
 3924 0143 02       		.uleb128 0x2
 3925 0144 17       		.uleb128 0x17
 3926 0145 00       		.byte	0
 3927 0146 00       		.byte	0
 3928 0147 1B       		.uleb128 0x1b
ARM GAS  /tmp/ccvgYHYM.s 			page 70


 3929 0148 34       		.uleb128 0x34
 3930 0149 00       		.byte	0
 3931 014a 03       		.uleb128 0x3
 3932 014b 0E       		.uleb128 0xe
 3933 014c 3A       		.uleb128 0x3a
 3934 014d 0B       		.uleb128 0xb
 3935 014e 3B       		.uleb128 0x3b
 3936 014f 0B       		.uleb128 0xb
 3937 0150 49       		.uleb128 0x49
 3938 0151 13       		.uleb128 0x13
 3939 0152 02       		.uleb128 0x2
 3940 0153 18       		.uleb128 0x18
 3941 0154 00       		.byte	0
 3942 0155 00       		.byte	0
 3943 0156 1C       		.uleb128 0x1c
 3944 0157 34       		.uleb128 0x34
 3945 0158 00       		.byte	0
 3946 0159 03       		.uleb128 0x3
 3947 015a 08       		.uleb128 0x8
 3948 015b 3A       		.uleb128 0x3a
 3949 015c 0B       		.uleb128 0xb
 3950 015d 3B       		.uleb128 0x3b
 3951 015e 0B       		.uleb128 0xb
 3952 015f 49       		.uleb128 0x49
 3953 0160 13       		.uleb128 0x13
 3954 0161 02       		.uleb128 0x2
 3955 0162 17       		.uleb128 0x17
 3956 0163 00       		.byte	0
 3957 0164 00       		.byte	0
 3958 0165 1D       		.uleb128 0x1d
 3959 0166 0B       		.uleb128 0xb
 3960 0167 01       		.byte	0x1
 3961 0168 11       		.uleb128 0x11
 3962 0169 01       		.uleb128 0x1
 3963 016a 12       		.uleb128 0x12
 3964 016b 06       		.uleb128 0x6
 3965 016c 01       		.uleb128 0x1
 3966 016d 13       		.uleb128 0x13
 3967 016e 00       		.byte	0
 3968 016f 00       		.byte	0
 3969 0170 1E       		.uleb128 0x1e
 3970 0171 34       		.uleb128 0x34
 3971 0172 00       		.byte	0
 3972 0173 03       		.uleb128 0x3
 3973 0174 08       		.uleb128 0x8
 3974 0175 3A       		.uleb128 0x3a
 3975 0176 0B       		.uleb128 0xb
 3976 0177 3B       		.uleb128 0x3b
 3977 0178 0B       		.uleb128 0xb
 3978 0179 49       		.uleb128 0x49
 3979 017a 13       		.uleb128 0x13
 3980 017b 02       		.uleb128 0x2
 3981 017c 18       		.uleb128 0x18
 3982 017d 00       		.byte	0
 3983 017e 00       		.byte	0
 3984 017f 1F       		.uleb128 0x1f
 3985 0180 0B       		.uleb128 0xb
ARM GAS  /tmp/ccvgYHYM.s 			page 71


 3986 0181 01       		.byte	0x1
 3987 0182 55       		.uleb128 0x55
 3988 0183 17       		.uleb128 0x17
 3989 0184 01       		.uleb128 0x1
 3990 0185 13       		.uleb128 0x13
 3991 0186 00       		.byte	0
 3992 0187 00       		.byte	0
 3993 0188 20       		.uleb128 0x20
 3994 0189 898201   		.uleb128 0x4109
 3995 018c 01       		.byte	0x1
 3996 018d 11       		.uleb128 0x11
 3997 018e 01       		.uleb128 0x1
 3998 018f 31       		.uleb128 0x31
 3999 0190 13       		.uleb128 0x13
 4000 0191 01       		.uleb128 0x1
 4001 0192 13       		.uleb128 0x13
 4002 0193 00       		.byte	0
 4003 0194 00       		.byte	0
 4004 0195 21       		.uleb128 0x21
 4005 0196 8A8201   		.uleb128 0x410a
 4006 0199 00       		.byte	0
 4007 019a 02       		.uleb128 0x2
 4008 019b 18       		.uleb128 0x18
 4009 019c 9142     		.uleb128 0x2111
 4010 019e 18       		.uleb128 0x18
 4011 019f 00       		.byte	0
 4012 01a0 00       		.byte	0
 4013 01a1 22       		.uleb128 0x22
 4014 01a2 898201   		.uleb128 0x4109
 4015 01a5 00       		.byte	0
 4016 01a6 11       		.uleb128 0x11
 4017 01a7 01       		.uleb128 0x1
 4018 01a8 31       		.uleb128 0x31
 4019 01a9 13       		.uleb128 0x13
 4020 01aa 00       		.byte	0
 4021 01ab 00       		.byte	0
 4022 01ac 23       		.uleb128 0x23
 4023 01ad 898201   		.uleb128 0x4109
 4024 01b0 01       		.byte	0x1
 4025 01b1 11       		.uleb128 0x11
 4026 01b2 01       		.uleb128 0x1
 4027 01b3 31       		.uleb128 0x31
 4028 01b4 13       		.uleb128 0x13
 4029 01b5 00       		.byte	0
 4030 01b6 00       		.byte	0
 4031 01b7 24       		.uleb128 0x24
 4032 01b8 898201   		.uleb128 0x4109
 4033 01bb 01       		.byte	0x1
 4034 01bc 11       		.uleb128 0x11
 4035 01bd 01       		.uleb128 0x1
 4036 01be 9542     		.uleb128 0x2115
 4037 01c0 19       		.uleb128 0x19
 4038 01c1 31       		.uleb128 0x31
 4039 01c2 13       		.uleb128 0x13
 4040 01c3 00       		.byte	0
 4041 01c4 00       		.byte	0
 4042 01c5 25       		.uleb128 0x25
ARM GAS  /tmp/ccvgYHYM.s 			page 72


 4043 01c6 34       		.uleb128 0x34
 4044 01c7 00       		.byte	0
 4045 01c8 03       		.uleb128 0x3
 4046 01c9 0E       		.uleb128 0xe
 4047 01ca 3A       		.uleb128 0x3a
 4048 01cb 0B       		.uleb128 0xb
 4049 01cc 3B       		.uleb128 0x3b
 4050 01cd 0B       		.uleb128 0xb
 4051 01ce 49       		.uleb128 0x49
 4052 01cf 13       		.uleb128 0x13
 4053 01d0 3F       		.uleb128 0x3f
 4054 01d1 19       		.uleb128 0x19
 4055 01d2 3C       		.uleb128 0x3c
 4056 01d3 19       		.uleb128 0x19
 4057 01d4 00       		.byte	0
 4058 01d5 00       		.byte	0
 4059 01d6 26       		.uleb128 0x26
 4060 01d7 34       		.uleb128 0x34
 4061 01d8 00       		.byte	0
 4062 01d9 03       		.uleb128 0x3
 4063 01da 0E       		.uleb128 0xe
 4064 01db 3A       		.uleb128 0x3a
 4065 01dc 0B       		.uleb128 0xb
 4066 01dd 3B       		.uleb128 0x3b
 4067 01de 0B       		.uleb128 0xb
 4068 01df 49       		.uleb128 0x49
 4069 01e0 13       		.uleb128 0x13
 4070 01e1 3F       		.uleb128 0x3f
 4071 01e2 19       		.uleb128 0x19
 4072 01e3 02       		.uleb128 0x2
 4073 01e4 18       		.uleb128 0x18
 4074 01e5 00       		.byte	0
 4075 01e6 00       		.byte	0
 4076 01e7 27       		.uleb128 0x27
 4077 01e8 2E       		.uleb128 0x2e
 4078 01e9 01       		.byte	0x1
 4079 01ea 3F       		.uleb128 0x3f
 4080 01eb 19       		.uleb128 0x19
 4081 01ec 03       		.uleb128 0x3
 4082 01ed 0E       		.uleb128 0xe
 4083 01ee 3A       		.uleb128 0x3a
 4084 01ef 0B       		.uleb128 0xb
 4085 01f0 3B       		.uleb128 0x3b
 4086 01f1 0B       		.uleb128 0xb
 4087 01f2 27       		.uleb128 0x27
 4088 01f3 19       		.uleb128 0x19
 4089 01f4 49       		.uleb128 0x49
 4090 01f5 13       		.uleb128 0x13
 4091 01f6 3C       		.uleb128 0x3c
 4092 01f7 19       		.uleb128 0x19
 4093 01f8 01       		.uleb128 0x1
 4094 01f9 13       		.uleb128 0x13
 4095 01fa 00       		.byte	0
 4096 01fb 00       		.byte	0
 4097 01fc 28       		.uleb128 0x28
 4098 01fd 05       		.uleb128 0x5
 4099 01fe 00       		.byte	0
ARM GAS  /tmp/ccvgYHYM.s 			page 73


 4100 01ff 49       		.uleb128 0x49
 4101 0200 13       		.uleb128 0x13
 4102 0201 00       		.byte	0
 4103 0202 00       		.byte	0
 4104 0203 29       		.uleb128 0x29
 4105 0204 2E       		.uleb128 0x2e
 4106 0205 01       		.byte	0x1
 4107 0206 3F       		.uleb128 0x3f
 4108 0207 19       		.uleb128 0x19
 4109 0208 03       		.uleb128 0x3
 4110 0209 0E       		.uleb128 0xe
 4111 020a 3A       		.uleb128 0x3a
 4112 020b 0B       		.uleb128 0xb
 4113 020c 3B       		.uleb128 0x3b
 4114 020d 0B       		.uleb128 0xb
 4115 020e 27       		.uleb128 0x27
 4116 020f 19       		.uleb128 0x19
 4117 0210 3C       		.uleb128 0x3c
 4118 0211 19       		.uleb128 0x19
 4119 0212 01       		.uleb128 0x1
 4120 0213 13       		.uleb128 0x13
 4121 0214 00       		.byte	0
 4122 0215 00       		.byte	0
 4123 0216 2A       		.uleb128 0x2a
 4124 0217 2E       		.uleb128 0x2e
 4125 0218 01       		.byte	0x1
 4126 0219 3F       		.uleb128 0x3f
 4127 021a 19       		.uleb128 0x19
 4128 021b 03       		.uleb128 0x3
 4129 021c 0E       		.uleb128 0xe
 4130 021d 3A       		.uleb128 0x3a
 4131 021e 0B       		.uleb128 0xb
 4132 021f 3B       		.uleb128 0x3b
 4133 0220 0B       		.uleb128 0xb
 4134 0221 27       		.uleb128 0x27
 4135 0222 19       		.uleb128 0x19
 4136 0223 3C       		.uleb128 0x3c
 4137 0224 19       		.uleb128 0x19
 4138 0225 00       		.byte	0
 4139 0226 00       		.byte	0
 4140 0227 00       		.byte	0
 4141              		.section	.debug_loc,"",%progbits
 4142              	.Ldebug_loc0:
 4143              	.LLST0:
 4144 0000 36000000 		.4byte	.LVL2
 4145 0004 40000000 		.4byte	.LVL3
 4146 0008 0100     		.2byte	0x1
 4147 000a 50       		.byte	0x50
 4148 000b 5E000000 		.4byte	.LVL6
 4149 000f 68000000 		.4byte	.LVL7
 4150 0013 0100     		.2byte	0x1
 4151 0015 50       		.byte	0x50
 4152 0016 82000000 		.4byte	.LVL9
 4153 001a 8C000000 		.4byte	.LVL10
 4154 001e 0100     		.2byte	0x1
 4155 0020 50       		.byte	0x50
 4156 0021 8C000000 		.4byte	.LVL10
ARM GAS  /tmp/ccvgYHYM.s 			page 74


 4157 0025 AC000000 		.4byte	.LVL13
 4158 0029 0300     		.2byte	0x3
 4159 002b 76       		.byte	0x76
 4160 002c 7F       		.sleb128 -1
 4161 002d 9F       		.byte	0x9f
 4162 002e AC000000 		.4byte	.LVL13
 4163 0032 BA000000 		.4byte	.LVL14
 4164 0036 0100     		.2byte	0x1
 4165 0038 50       		.byte	0x50
 4166 0039 BA000000 		.4byte	.LVL14
 4167 003d D2000000 		.4byte	.LVL16
 4168 0041 0300     		.2byte	0x3
 4169 0043 74       		.byte	0x74
 4170 0044 7F       		.sleb128 -1
 4171 0045 9F       		.byte	0x9f
 4172 0046 D2000000 		.4byte	.LVL16
 4173 004a DC000000 		.4byte	.LVL17
 4174 004e 0100     		.2byte	0x1
 4175 0050 50       		.byte	0x50
 4176 0051 DC000000 		.4byte	.LVL17
 4177 0055 DF000000 		.4byte	.LVL18-1
 4178 0059 0300     		.2byte	0x3
 4179 005b 72       		.byte	0x72
 4180 005c 7F       		.sleb128 -1
 4181 005d 9F       		.byte	0x9f
 4182 005e FC000000 		.4byte	.LVL20
 4183 0062 0A010000 		.4byte	.LVL21
 4184 0066 0100     		.2byte	0x1
 4185 0068 50       		.byte	0x50
 4186 0069 0A010000 		.4byte	.LVL21
 4187 006d 0D010000 		.4byte	.LVL22-1
 4188 0071 0300     		.2byte	0x3
 4189 0073 73       		.byte	0x73
 4190 0074 7F       		.sleb128 -1
 4191 0075 9F       		.byte	0x9f
 4192 0076 A6010000 		.4byte	.LVL31
 4193 007a B0010000 		.4byte	.LVL32
 4194 007e 0100     		.2byte	0x1
 4195 0080 50       		.byte	0x50
 4196 0081 DA010000 		.4byte	.LVL35
 4197 0085 E4010000 		.4byte	.LVL36
 4198 0089 0100     		.2byte	0x1
 4199 008b 50       		.byte	0x50
 4200 008c FA010000 		.4byte	.LVL38
 4201 0090 04020000 		.4byte	.LVL39
 4202 0094 0100     		.2byte	0x1
 4203 0096 50       		.byte	0x50
 4204 0097 44020000 		.4byte	.LVL44
 4205 009b 4E020000 		.4byte	.LVL45
 4206 009f 0100     		.2byte	0x1
 4207 00a1 50       		.byte	0x50
 4208 00a2 4E020000 		.4byte	.LVL45
 4209 00a6 51020000 		.4byte	.LVL46-1
 4210 00aa 0300     		.2byte	0x3
 4211 00ac 73       		.byte	0x73
 4212 00ad 7F       		.sleb128 -1
 4213 00ae 9F       		.byte	0x9f
ARM GAS  /tmp/ccvgYHYM.s 			page 75


 4214 00af 70020000 		.4byte	.LVL48
 4215 00b3 82020000 		.4byte	.LVL49
 4216 00b7 0100     		.2byte	0x1
 4217 00b9 50       		.byte	0x50
 4218 00ba 82020000 		.4byte	.LVL49
 4219 00be 85020000 		.4byte	.LVL50-1
 4220 00c2 0300     		.2byte	0x3
 4221 00c4 7C       		.byte	0x7c
 4222 00c5 7F       		.sleb128 -1
 4223 00c6 9F       		.byte	0x9f
 4224 00c7 0A030000 		.4byte	.LVL54
 4225 00cb 14030000 		.4byte	.LVL55
 4226 00cf 0100     		.2byte	0x1
 4227 00d1 50       		.byte	0x50
 4228 00d2 2C030000 		.4byte	.LVL57
 4229 00d6 36030000 		.4byte	.LVL58
 4230 00da 0100     		.2byte	0x1
 4231 00dc 50       		.byte	0x50
 4232 00dd 4E030000 		.4byte	.LVL60
 4233 00e1 58030000 		.4byte	.LVL61
 4234 00e5 0100     		.2byte	0x1
 4235 00e7 50       		.byte	0x50
 4236 00e8 70030000 		.4byte	.LVL63
 4237 00ec 7A030000 		.4byte	.LVL64
 4238 00f0 0100     		.2byte	0x1
 4239 00f2 50       		.byte	0x50
 4240 00f3 98030000 		.4byte	.LVL67
 4241 00f7 A6030000 		.4byte	.LVL68
 4242 00fb 0100     		.2byte	0x1
 4243 00fd 50       		.byte	0x50
 4244 00fe E0030000 		.4byte	.LVL73
 4245 0102 EE030000 		.4byte	.LVL74
 4246 0106 0100     		.2byte	0x1
 4247 0108 50       		.byte	0x50
 4248 0109 84040000 		.4byte	.LVL82
 4249 010d 8E040000 		.4byte	.LVL83
 4250 0111 0100     		.2byte	0x1
 4251 0113 50       		.byte	0x50
 4252 0114 A6040000 		.4byte	.LVL85
 4253 0118 B0040000 		.4byte	.LVL86
 4254 011c 0100     		.2byte	0x1
 4255 011e 50       		.byte	0x50
 4256 011f C8040000 		.4byte	.LVL88
 4257 0123 D2040000 		.4byte	.LVL89
 4258 0127 0100     		.2byte	0x1
 4259 0129 50       		.byte	0x50
 4260 012a EA040000 		.4byte	.LVL91
 4261 012e F4040000 		.4byte	.LVL92
 4262 0132 0100     		.2byte	0x1
 4263 0134 50       		.byte	0x50
 4264 0135 10050000 		.4byte	.LVL95
 4265 0139 1E050000 		.4byte	.LVL96
 4266 013d 0100     		.2byte	0x1
 4267 013f 50       		.byte	0x50
 4268 0140 5E050000 		.4byte	.LVL101
 4269 0144 6C050000 		.4byte	.LVL102
 4270 0148 0100     		.2byte	0x1
ARM GAS  /tmp/ccvgYHYM.s 			page 76


 4271 014a 50       		.byte	0x50
 4272 014b 00000000 		.4byte	0
 4273 014f 00000000 		.4byte	0
 4274              	.LLST1:
 4275 0153 24000000 		.4byte	.LVL1
 4276 0157 42000000 		.4byte	.LVL4
 4277 015b 0400     		.2byte	0x4
 4278 015d 74       		.byte	0x74
 4279 015e BE7F     		.sleb128 -66
 4280 0160 9F       		.byte	0x9f
 4281 0161 42000000 		.4byte	.LVL4
 4282 0165 46000000 		.4byte	.LVL5
 4283 0169 0400     		.2byte	0x4
 4284 016b 74       		.byte	0x74
 4285 016c BD7F     		.sleb128 -67
 4286 016e 9F       		.byte	0x9f
 4287 016f 82010000 		.4byte	.LVL26
 4288 0173 86010000 		.4byte	.LVL27
 4289 0177 0200     		.2byte	0x2
 4290 0179 30       		.byte	0x30
 4291 017a 9F       		.byte	0x9f
 4292 017b 86010000 		.4byte	.LVL27
 4293 017f 8E010000 		.4byte	.LVL28
 4294 0183 0500     		.2byte	0x5
 4295 0185 35       		.byte	0x35
 4296 0186 76       		.byte	0x76
 4297 0187 00       		.sleb128 0
 4298 0188 1C       		.byte	0x1c
 4299 0189 9F       		.byte	0x9f
 4300 018a 8E010000 		.4byte	.LVL28
 4301 018e 90010000 		.4byte	.LVL29
 4302 0192 0500     		.2byte	0x5
 4303 0194 36       		.byte	0x36
 4304 0195 76       		.byte	0x76
 4305 0196 00       		.sleb128 0
 4306 0197 1C       		.byte	0x1c
 4307 0198 9F       		.byte	0x9f
 4308 0199 90010000 		.4byte	.LVL29
 4309 019d 16020000 		.4byte	.LVL41
 4310 01a1 0500     		.2byte	0x5
 4311 01a3 35       		.byte	0x35
 4312 01a4 76       		.byte	0x76
 4313 01a5 00       		.sleb128 0
 4314 01a6 1C       		.byte	0x1c
 4315 01a7 9F       		.byte	0x9f
 4316 01a8 C8030000 		.4byte	.LVL71
 4317 01ac 00040000 		.4byte	.LVL76
 4318 01b0 0500     		.2byte	0x5
 4319 01b2 35       		.byte	0x35
 4320 01b3 74       		.byte	0x74
 4321 01b4 00       		.sleb128 0
 4322 01b5 1C       		.byte	0x1c
 4323 01b6 9F       		.byte	0x9f
 4324 01b7 00040000 		.4byte	.LVL76
 4325 01bb 02040000 		.4byte	.LVL77
 4326 01bf 0500     		.2byte	0x5
 4327 01c1 36       		.byte	0x36
ARM GAS  /tmp/ccvgYHYM.s 			page 77


 4328 01c2 74       		.byte	0x74
 4329 01c3 00       		.sleb128 0
 4330 01c4 1C       		.byte	0x1c
 4331 01c5 9F       		.byte	0x9f
 4332 01c6 02040000 		.4byte	.LVL77
 4333 01ca 7E050000 		.4byte	.LVL104
 4334 01ce 0500     		.2byte	0x5
 4335 01d0 35       		.byte	0x35
 4336 01d1 74       		.byte	0x74
 4337 01d2 00       		.sleb128 0
 4338 01d3 1C       		.byte	0x1c
 4339 01d4 9F       		.byte	0x9f
 4340 01d5 7E050000 		.4byte	.LVL104
 4341 01d9 80050000 		.4byte	.LVL105
 4342 01dd 0500     		.2byte	0x5
 4343 01df 36       		.byte	0x36
 4344 01e0 74       		.byte	0x74
 4345 01e1 00       		.sleb128 0
 4346 01e2 1C       		.byte	0x1c
 4347 01e3 9F       		.byte	0x9f
 4348 01e4 80050000 		.4byte	.LVL105
 4349 01e8 0C060000 		.4byte	.LVL111
 4350 01ec 0500     		.2byte	0x5
 4351 01ee 35       		.byte	0x35
 4352 01ef 74       		.byte	0x74
 4353 01f0 00       		.sleb128 0
 4354 01f1 1C       		.byte	0x1c
 4355 01f2 9F       		.byte	0x9f
 4356 01f3 00000000 		.4byte	0
 4357 01f7 00000000 		.4byte	0
 4358              		.section	.debug_aranges,"",%progbits
 4359 0000 24000000 		.4byte	0x24
 4360 0004 0200     		.2byte	0x2
 4361 0006 00000000 		.4byte	.Ldebug_info0
 4362 000a 04       		.byte	0x4
 4363 000b 00       		.byte	0
 4364 000c 0000     		.2byte	0
 4365 000e 0000     		.2byte	0
 4366 0010 00000000 		.4byte	.LFB8
 4367 0014 7C060000 		.4byte	.LFE8-.LFB8
 4368 0018 00000000 		.4byte	.LFB7
 4369 001c 16000000 		.4byte	.LFE7-.LFB7
 4370 0020 00000000 		.4byte	0
 4371 0024 00000000 		.4byte	0
 4372              		.section	.debug_ranges,"",%progbits
 4373              	.Ldebug_ranges0:
 4374 0000 A8000000 		.4byte	.LBB3
 4375 0004 AA000000 		.4byte	.LBE3
 4376 0008 AC000000 		.4byte	.LBB4
 4377 000c B0000000 		.4byte	.LBE4
 4378 0010 00000000 		.4byte	0
 4379 0014 00000000 		.4byte	0
 4380 0018 F8000000 		.4byte	.LBB6
 4381 001c FA000000 		.4byte	.LBE6
 4382 0020 FC000000 		.4byte	.LBB7
 4383 0024 00010000 		.4byte	.LBE7
 4384 0028 00000000 		.4byte	0
ARM GAS  /tmp/ccvgYHYM.s 			page 78


 4385 002c 00000000 		.4byte	0
 4386 0030 6C020000 		.4byte	.LBB18
 4387 0034 6E020000 		.4byte	.LBE18
 4388 0038 70020000 		.4byte	.LBB19
 4389 003c 74020000 		.4byte	.LBE19
 4390 0040 00000000 		.4byte	0
 4391 0044 00000000 		.4byte	0
 4392 0048 94030000 		.4byte	.LBB28
 4393 004c 96030000 		.4byte	.LBE28
 4394 0050 98030000 		.4byte	.LBB29
 4395 0054 9C030000 		.4byte	.LBE29
 4396 0058 00000000 		.4byte	0
 4397 005c 00000000 		.4byte	0
 4398 0060 DC030000 		.4byte	.LBB31
 4399 0064 DE030000 		.4byte	.LBE31
 4400 0068 E0030000 		.4byte	.LBB32
 4401 006c E4030000 		.4byte	.LBE32
 4402 0070 00000000 		.4byte	0
 4403 0074 00000000 		.4byte	0
 4404 0078 0C050000 		.4byte	.LBB38
 4405 007c 0E050000 		.4byte	.LBE38
 4406 0080 10050000 		.4byte	.LBB39
 4407 0084 14050000 		.4byte	.LBE39
 4408 0088 00000000 		.4byte	0
 4409 008c 00000000 		.4byte	0
 4410 0090 5A050000 		.4byte	.LBB41
 4411 0094 5C050000 		.4byte	.LBE41
 4412 0098 5E050000 		.4byte	.LBB42
 4413 009c 62050000 		.4byte	.LBE42
 4414 00a0 00000000 		.4byte	0
 4415 00a4 00000000 		.4byte	0
 4416 00a8 00000000 		.4byte	.LFB8
 4417 00ac 7C060000 		.4byte	.LFE8
 4418 00b0 00000000 		.4byte	.LFB7
 4419 00b4 16000000 		.4byte	.LFE7
 4420 00b8 00000000 		.4byte	0
 4421 00bc 00000000 		.4byte	0
 4422              		.section	.debug_line,"",%progbits
 4423              	.Ldebug_line0:
 4424 0000 40020000 		.section	.debug_str,"MS",%progbits,1
 4424      02003601 
 4424      00000201 
 4424      FB0E0D00 
 4424      01010101 
 4425              	.LASF43:
 4426 0000 705F6D73 		.ascii	"p_msg\000"
 4426      6700
 4427              	.LASF69:
 4428 0006 7264796D 		.ascii	"rdymsg\000"
 4428      736700
 4429              	.LASF16:
 4430 000d 75696E74 		.ascii	"uint64_t\000"
 4430      36345F74 
 4430      00
 4431              	.LASF5:
 4432 0016 5F5F7569 		.ascii	"__uint8_t\000"
 4432      6E74385F 
ARM GAS  /tmp/ccvgYHYM.s 			page 79


 4432      7400
 4433              	.LASF90:
 4434 0020 63684D42 		.ascii	"chMBPostI\000"
 4434      506F7374 
 4434      4900
 4435              	.LASF68:
 4436 002a 4D61696C 		.ascii	"Mailbox\000"
 4436      626F7800 
 4437              	.LASF91:
 4438 0032 63684D42 		.ascii	"chMBPostAheadI\000"
 4438      506F7374 
 4438      41686561 
 4438      644900
 4439              	.LASF12:
 4440 0041 6C6F6E67 		.ascii	"long long unsigned int\000"
 4440      206C6F6E 
 4440      6720756E 
 4440      7369676E 
 4440      65642069 
 4441              	.LASF86:
 4442 0058 70617474 		.ascii	"patternmbox\000"
 4442      65726E6D 
 4442      626F7800 
 4443              	.LASF70:
 4444 0064 65786974 		.ascii	"exitcode\000"
 4444      636F6465 
 4444      00
 4445              	.LASF84:
 4446 006d 74657374 		.ascii	"test\000"
 4446      00
 4447              	.LASF64:
 4448 0072 6D625F77 		.ascii	"mb_wrptr\000"
 4448      72707472 
 4448      00
 4449              	.LASF31:
 4450 007b 705F7072 		.ascii	"p_prio\000"
 4450      696F00
 4451              	.LASF10:
 4452 0082 6C6F6E67 		.ascii	"long long int\000"
 4452      206C6F6E 
 4452      6720696E 
 4452      7400
 4453              	.LASF1:
 4454 0090 7369676E 		.ascii	"signed char\000"
 4454      65642063 
 4454      68617200 
 4455              	.LASF47:
 4456 009c 705F6D70 		.ascii	"p_mpool\000"
 4456      6F6F6C00 
 4457              	.LASF17:
 4458 00a4 626F6F6C 		.ascii	"bool_t\000"
 4458      5F7400
 4459              	.LASF59:
 4460 00ab 6D5F7175 		.ascii	"m_queue\000"
 4460      65756500 
 4461              	.LASF95:
 4462 00b3 74657374 		.ascii	"test_emit_token\000"
ARM GAS  /tmp/ccvgYHYM.s 			page 80


 4462      5F656D69 
 4462      745F746F 
 4462      6B656E00 
 4463              	.LASF22:
 4464 00c3 74736C69 		.ascii	"tslices_t\000"
 4464      6365735F 
 4464      7400
 4465              	.LASF88:
 4466 00cd 63684D42 		.ascii	"chMBPost\000"
 4466      506F7374 
 4466      00
 4467              	.LASF7:
 4468 00d6 6C6F6E67 		.ascii	"long int\000"
 4468      20696E74 
 4468      00
 4469              	.LASF20:
 4470 00df 74737461 		.ascii	"tstate_t\000"
 4470      74655F74 
 4470      00
 4471              	.LASF79:
 4472 00e8 62756666 		.ascii	"buffer\000"
 4472      657200
 4473              	.LASF33:
 4474 00ef 705F6E65 		.ascii	"p_newer\000"
 4474      77657200 
 4475              	.LASF56:
 4476 00f7 735F7175 		.ascii	"s_queue\000"
 4476      65756500 
 4477              	.LASF8:
 4478 00ff 5F5F7569 		.ascii	"__uint32_t\000"
 4478      6E743332 
 4478      5F7400
 4479              	.LASF50:
 4480 010a 72656761 		.ascii	"regarm_t\000"
 4480      726D5F74 
 4480      00
 4481              	.LASF27:
 4482 0113 636E745F 		.ascii	"cnt_t\000"
 4482      7400
 4483              	.LASF0:
 4484 0119 756E7369 		.ascii	"unsigned int\000"
 4484      676E6564 
 4484      20696E74 
 4484      00
 4485              	.LASF101:
 4486 0126 63684D42 		.ascii	"chMBInit\000"
 4486      496E6974 
 4486      00
 4487              	.LASF80:
 4488 012f 6D736731 		.ascii	"msg1\000"
 4488      00
 4489              	.LASF81:
 4490 0134 6D736732 		.ascii	"msg2\000"
 4490      00
 4491              	.LASF9:
 4492 0139 6C6F6E67 		.ascii	"long unsigned int\000"
 4492      20756E73 
ARM GAS  /tmp/ccvgYHYM.s 			page 81


 4492      69676E65 
 4492      6420696E 
 4492      7400
 4493              	.LASF77:
 4494 014b 74656172 		.ascii	"teardown\000"
 4494      646F776E 
 4494      00
 4495              	.LASF67:
 4496 0154 6D625F65 		.ascii	"mb_emptysem\000"
 4496      6D707479 
 4496      73656D00 
 4497              	.LASF75:
 4498 0160 6E616D65 		.ascii	"name\000"
 4498      00
 4499              	.LASF57:
 4500 0165 735F636E 		.ascii	"s_cnt\000"
 4500      7400
 4501              	.LASF53:
 4502 016b 636F6E74 		.ascii	"context\000"
 4502      65787400 
 4503              	.LASF4:
 4504 0173 73686F72 		.ascii	"short unsigned int\000"
 4504      7420756E 
 4504      7369676E 
 4504      65642069 
 4504      6E7400
 4505              	.LASF94:
 4506 0186 63684D42 		.ascii	"chMBFetchI\000"
 4506      46657463 
 4506      684900
 4507              	.LASF24:
 4508 0191 6D73675F 		.ascii	"msg_t\000"
 4508      7400
 4509              	.LASF97:
 4510 0197 474E5520 		.ascii	"GNU C 4.8.2 -mcpu=cortex-m3 -mno-thumb-interwork -m"
 4510      4320342E 
 4510      382E3220 
 4510      2D6D6370 
 4510      753D636F 
 4511 01ca 7468756D 		.ascii	"thumb -ggdb -O2 -fomit-frame-pointer -ffunction-sec"
 4511      62202D67 
 4511      67646220 
 4511      2D4F3220 
 4511      2D666F6D 
 4512 01fd 74696F6E 		.ascii	"tions -fdata-sections -fno-common\000"
 4512      73202D66 
 4512      64617461 
 4512      2D736563 
 4512      74696F6E 
 4513              	.LASF19:
 4514 021f 746D6F64 		.ascii	"tmode_t\000"
 4514      655F7400 
 4515              	.LASF83:
 4516 0227 6D626F78 		.ascii	"mbox1_setup\000"
 4516      315F7365 
 4516      74757000 
 4517              	.LASF49:
ARM GAS  /tmp/ccvgYHYM.s 			page 82


 4518 0233 54687265 		.ascii	"ThreadsList\000"
 4518      6164734C 
 4518      69737400 
 4519              	.LASF25:
 4520 023f 6576656E 		.ascii	"eventmask_t\000"
 4520      746D6173 
 4520      6B5F7400 
 4521              	.LASF3:
 4522 024b 73686F72 		.ascii	"short int\000"
 4522      7420696E 
 4522      7400
 4523              	.LASF58:
 4524 0255 4D757465 		.ascii	"Mutex\000"
 4524      7800
 4525              	.LASF85:
 4526 025b 74657374 		.ascii	"testmbox1\000"
 4526      6D626F78 
 4526      3100
 4527              	.LASF51:
 4528 0265 73746B61 		.ascii	"stkalign_t\000"
 4528      6C69676E 
 4528      5F7400
 4529              	.LASF99:
 4530 0270 2F686F6D 		.ascii	"/home/caroline/Documents/PAF/elfes/Code\000"
 4530      652F6361 
 4530      726F6C69 
 4530      6E652F44 
 4530      6F63756D 
 4531              	.LASF54:
 4532 0298 73697A65 		.ascii	"sizetype\000"
 4532      74797065 
 4532      00
 4533              	.LASF65:
 4534 02a1 6D625F72 		.ascii	"mb_rdptr\000"
 4534      64707472 
 4534      00
 4535              	.LASF96:
 4536 02aa 63684D42 		.ascii	"chMBReset\000"
 4536      52657365 
 4536      7400
 4537              	.LASF34:
 4538 02b4 705F6F6C 		.ascii	"p_older\000"
 4538      64657200 
 4539              	.LASF48:
 4540 02bc 54687265 		.ascii	"ThreadsQueue\000"
 4540      61647351 
 4540      75657565 
 4540      00
 4541              	.LASF76:
 4542 02c9 73657475 		.ascii	"setup\000"
 4542      7000
 4543              	.LASF93:
 4544 02cf 5F746573 		.ascii	"_test_assert_sequence\000"
 4544      745F6173 
 4544      73657274 
 4544      5F736571 
 4544      75656E63 
ARM GAS  /tmp/ccvgYHYM.s 			page 83


 4545              	.LASF62:
 4546 02e5 6D625F62 		.ascii	"mb_buffer\000"
 4546      75666665 
 4546      7200
 4547              	.LASF82:
 4548 02ef 6D626F78 		.ascii	"mbox1_execute\000"
 4548      315F6578 
 4548      65637574 
 4548      6500
 4549              	.LASF11:
 4550 02fd 5F5F7569 		.ascii	"__uint64_t\000"
 4550      6E743634 
 4550      5F7400
 4551              	.LASF21:
 4552 0308 74726566 		.ascii	"trefs_t\000"
 4552      735F7400 
 4553              	.LASF30:
 4554 0310 705F7072 		.ascii	"p_prev\000"
 4554      657600
 4555              	.LASF78:
 4556 0317 65786563 		.ascii	"execute\000"
 4556      75746500 
 4557              	.LASF23:
 4558 031f 74707269 		.ascii	"tprio_t\000"
 4558      6F5F7400 
 4559              	.LASF18:
 4560 0327 5F426F6F 		.ascii	"_Bool\000"
 4560      6C00
 4561              	.LASF14:
 4562 032d 696E7433 		.ascii	"int32_t\000"
 4562      325F7400 
 4563              	.LASF2:
 4564 0335 756E7369 		.ascii	"unsigned char\000"
 4564      676E6564 
 4564      20636861 
 4564      7200
 4565              	.LASF63:
 4566 0343 6D625F74 		.ascii	"mb_top\000"
 4566      6F7000
 4567              	.LASF45:
 4568 034a 705F6D74 		.ascii	"p_mtxlist\000"
 4568      786C6973 
 4568      7400
 4569              	.LASF98:
 4570 0354 2E2E2F43 		.ascii	"../ChibiOS_2.6.4/test/testmbox.c\000"
 4570      68696269 
 4570      4F535F32 
 4570      2E362E34 
 4570      2F746573 
 4571              	.LASF36:
 4572 0375 705F7374 		.ascii	"p_state\000"
 4572      61746500 
 4573              	.LASF39:
 4574 037d 705F7072 		.ascii	"p_preempt\000"
 4574      65656D70 
 4574      7400
 4575              	.LASF72:
ARM GAS  /tmp/ccvgYHYM.s 			page 84


 4576 0387 65776D61 		.ascii	"ewmask\000"
 4576      736B00
 4577              	.LASF29:
 4578 038e 705F6E65 		.ascii	"p_next\000"
 4578      787400
 4579              	.LASF37:
 4580 0395 705F666C 		.ascii	"p_flags\000"
 4580      61677300 
 4581              	.LASF28:
 4582 039d 54687265 		.ascii	"Thread\000"
 4582      616400
 4583              	.LASF74:
 4584 03a4 74657374 		.ascii	"testcase\000"
 4584      63617365 
 4584      00
 4585              	.LASF44:
 4586 03ad 705F6570 		.ascii	"p_epending\000"
 4586      656E6469 
 4586      6E6700
 4587              	.LASF15:
 4588 03b8 75696E74 		.ascii	"uint32_t\000"
 4588      33325F74 
 4588      00
 4589              	.LASF73:
 4590 03c1 63686172 		.ascii	"char\000"
 4590      00
 4591              	.LASF61:
 4592 03c6 6D5F6E65 		.ascii	"m_next\000"
 4592      787400
 4593              	.LASF26:
 4594 03cd 73797374 		.ascii	"systime_t\000"
 4594      696D655F 
 4594      7400
 4595              	.LASF46:
 4596 03d7 705F7265 		.ascii	"p_realprio\000"
 4596      616C7072 
 4596      696F00
 4597              	.LASF6:
 4598 03e2 5F5F696E 		.ascii	"__int32_t\000"
 4598      7433325F 
 4598      7400
 4599              	.LASF40:
 4600 03ec 705F7469 		.ascii	"p_time\000"
 4600      6D6500
 4601              	.LASF89:
 4602 03f3 63684D42 		.ascii	"chMBPostAhead\000"
 4602      506F7374 
 4602      41686561 
 4602      6400
 4603              	.LASF52:
 4604 0401 696E7463 		.ascii	"intctx\000"
 4604      747800
 4605              	.LASF42:
 4606 0408 705F6D73 		.ascii	"p_msgqueue\000"
 4606      67717565 
 4606      756500
 4607              	.LASF92:
ARM GAS  /tmp/ccvgYHYM.s 			page 85


 4608 0413 63684D42 		.ascii	"chMBFetch\000"
 4608      46657463 
 4608      6800
 4609              	.LASF55:
 4610 041d 53656D61 		.ascii	"Semaphore\000"
 4610      70686F72 
 4610      6500
 4611              	.LASF66:
 4612 0427 6D625F66 		.ascii	"mb_fullsem\000"
 4612      756C6C73 
 4612      656D00
 4613              	.LASF100:
 4614 0432 74657374 		.ascii	"test_buffers\000"
 4614      5F627566 
 4614      66657273 
 4614      00
 4615              	.LASF38:
 4616 043f 705F7265 		.ascii	"p_refs\000"
 4616      667300
 4617              	.LASF13:
 4618 0446 75696E74 		.ascii	"uint8_t\000"
 4618      385F7400 
 4619              	.LASF71:
 4620 044e 77746F62 		.ascii	"wtobjp\000"
 4620      6A7000
 4621              	.LASF35:
 4622 0455 705F6E61 		.ascii	"p_name\000"
 4622      6D6500
 4623              	.LASF87:
 4624 045c 5F746573 		.ascii	"_test_assert\000"
 4624      745F6173 
 4624      73657274 
 4624      00
 4625              	.LASF60:
 4626 0469 6D5F6F77 		.ascii	"m_owner\000"
 4626      6E657200 
 4627              	.LASF32:
 4628 0471 705F6374 		.ascii	"p_ctx\000"
 4628      7800
 4629              	.LASF41:
 4630 0477 705F7761 		.ascii	"p_waiting\000"
 4630      6974696E 
 4630      6700
 4631              		.ident	"GCC: (4.8.2-14ubuntu1+6) 4.8.2"
ARM GAS  /tmp/ccvgYHYM.s 			page 86


DEFINED SYMBOLS
                            *ABS*:0000000000000000 testmbox.c
     /tmp/ccvgYHYM.s:19     .text.mbox1_execute:0000000000000000 $t
     /tmp/ccvgYHYM.s:23     .text.mbox1_execute:0000000000000000 mbox1_execute
     /tmp/ccvgYHYM.s:1112   .data.mb1:0000000000000000 .LANCHOR0
     /tmp/ccvgYHYM.s:1135   .rodata.str1.4:0000000000000000 .LC0
     /tmp/ccvgYHYM.s:1086   .text.mbox1_setup:0000000000000000 $t
     /tmp/ccvgYHYM.s:1090   .text.mbox1_setup:0000000000000000 mbox1_setup
     /tmp/ccvgYHYM.s:1130   .rodata.patternmbox:0000000000000000 patternmbox
     /tmp/ccvgYHYM.s:1144   .rodata.testmbox1:0000000000000000 testmbox1
     /tmp/ccvgYHYM.s:1111   .data.mb1:0000000000000000 $d
     /tmp/ccvgYHYM.s:1115   .data.mb1:0000000000000000 mb1
     /tmp/ccvgYHYM.s:1127   .rodata.patternmbox:0000000000000000 $d
     /tmp/ccvgYHYM.s:1134   .rodata.str1.4:0000000000000000 $d
     /tmp/ccvgYHYM.s:1141   .rodata.testmbox1:0000000000000000 $d
                     .debug_frame:0000000000000010 $d

UNDEFINED SYMBOLS
_test_assert
chMBPost
chMBPostAhead
chMBPostI
chMBPostAheadI
test_emit_token
chMBFetch
_test_assert_sequence
chMBFetchI
chMBReset
test
chMBInit
