ARM GAS  /tmp/ccRj6ow8.s 			page 1


   1              		.syntax unified
   2              		.cpu cortex-m3
   3              		.fpu softvfp
   4              		.eabi_attribute 20, 1
   5              		.eabi_attribute 21, 1
   6              		.eabi_attribute 23, 3
   7              		.eabi_attribute 24, 1
   8              		.eabi_attribute 25, 1
   9              		.eabi_attribute 26, 1
  10              		.eabi_attribute 30, 2
  11              		.eabi_attribute 34, 1
  12              		.eabi_attribute 18, 4
  13              		.thumb
  14              		.file	"testthd.c"
  15              		.text
  16              	.Ltext0:
  17              		.cfi_sections	.debug_frame
  18              		.section	.text.thd1_execute,"ax",%progbits
  19              		.align	2
  20              		.thumb
  21              		.thumb_func
  22              		.type	thd1_execute, %function
  23              	thd1_execute:
  24              	.LFB8:
  25              		.file 1 "../ChibiOS_2.6.4/test/testthd.c"
  26              		.loc 1 66 0
  27              		.cfi_startproc
  28              		@ args = 0, pretend = 0, frame = 0
  29              		@ frame_needed = 0, uses_anonymous_args = 0
  30 0000 F0B5     		push	{r4, r5, r6, r7, lr}
  31              		.cfi_def_cfa_offset 20
  32              		.cfi_offset 4, -20
  33              		.cfi_offset 5, -16
  34              		.cfi_offset 6, -12
  35              		.cfi_offset 7, -8
  36              		.cfi_offset 14, -4
  37              		.loc 1 68 0
  38 0002 40F20007 		movw	r7, #:lower16:rlist
  39 0006 C0F20007 		movt	r7, #:upper16:rlist
  40 000a BB69     		ldr	r3, [r7, #24]
  41 000c 40F20006 		movw	r6, #:lower16:wa
  42 0010 9A68     		ldr	r2, [r3, #8]
  43 0012 40F20005 		movw	r5, #:lower16:thread
  44 0016 40F20001 		movw	r1, #:lower16:.LC0
  45              		.loc 1 66 0
  46 001a 83B0     		sub	sp, sp, #12
  47              		.cfi_def_cfa_offset 32
  48              		.loc 1 68 0
  49 001c C0F20006 		movt	r6, #:upper16:wa
  50 0020 C0F20005 		movt	r5, #:upper16:thread
  51 0024 C0F20001 		movt	r1, #:upper16:.LC0
  52 0028 2B46     		mov	r3, r5
  53 002a 0091     		str	r1, [sp]
  54 002c 3068     		ldr	r0, [r6]
  55 002e 053A     		subs	r2, r2, #5
  56 0030 4FF4A871 		mov	r1, #336
  57 0034 FFF7FEFF 		bl	chThdCreateStatic
ARM GAS  /tmp/ccRj6ow8.s 			page 2


  58              	.LVL0:
  59              		.loc 1 69 0
  60 0038 BB69     		ldr	r3, [r7, #24]
  61              		.loc 1 68 0
  62 003a 40F20004 		movw	r4, #:lower16:threads
  63              		.loc 1 69 0
  64 003e 9A68     		ldr	r2, [r3, #8]
  65 0040 40F20001 		movw	r1, #:lower16:.LC1
  66 0044 7368     		ldr	r3, [r6, #4]
  67              		.loc 1 68 0
  68 0046 C0F20004 		movt	r4, #:upper16:threads
  69              		.loc 1 69 0
  70 004a C0F20001 		movt	r1, #:upper16:.LC1
  71              		.loc 1 68 0
  72 004e 2060     		str	r0, [r4]
  73              		.loc 1 69 0
  74 0050 0091     		str	r1, [sp]
  75 0052 043A     		subs	r2, r2, #4
  76 0054 1846     		mov	r0, r3
  77 0056 4FF4A871 		mov	r1, #336
  78 005a 2B46     		mov	r3, r5
  79 005c FFF7FEFF 		bl	chThdCreateStatic
  80              	.LVL1:
  81              		.loc 1 70 0
  82 0060 BA69     		ldr	r2, [r7, #24]
  83 0062 B368     		ldr	r3, [r6, #8]
  84 0064 9268     		ldr	r2, [r2, #8]
  85 0066 40F20001 		movw	r1, #:lower16:.LC2
  86 006a C0F20001 		movt	r1, #:upper16:.LC2
  87              		.loc 1 69 0
  88 006e 6060     		str	r0, [r4, #4]
  89              		.loc 1 70 0
  90 0070 0091     		str	r1, [sp]
  91 0072 033A     		subs	r2, r2, #3
  92 0074 1846     		mov	r0, r3
  93 0076 4FF4A871 		mov	r1, #336
  94 007a 2B46     		mov	r3, r5
  95 007c FFF7FEFF 		bl	chThdCreateStatic
  96              	.LVL2:
  97              		.loc 1 71 0
  98 0080 BA69     		ldr	r2, [r7, #24]
  99 0082 F368     		ldr	r3, [r6, #12]
 100 0084 9268     		ldr	r2, [r2, #8]
 101 0086 40F20001 		movw	r1, #:lower16:.LC3
 102 008a C0F20001 		movt	r1, #:upper16:.LC3
 103              		.loc 1 70 0
 104 008e A060     		str	r0, [r4, #8]
 105              		.loc 1 71 0
 106 0090 0091     		str	r1, [sp]
 107 0092 023A     		subs	r2, r2, #2
 108 0094 1846     		mov	r0, r3
 109 0096 4FF4A871 		mov	r1, #336
 110 009a 2B46     		mov	r3, r5
 111 009c FFF7FEFF 		bl	chThdCreateStatic
 112              	.LVL3:
 113              		.loc 1 72 0
 114 00a0 BA69     		ldr	r2, [r7, #24]
ARM GAS  /tmp/ccRj6ow8.s 			page 3


 115 00a2 3369     		ldr	r3, [r6, #16]
 116 00a4 9268     		ldr	r2, [r2, #8]
 117 00a6 40F20001 		movw	r1, #:lower16:.LC4
 118 00aa C0F20001 		movt	r1, #:upper16:.LC4
 119              		.loc 1 71 0
 120 00ae E060     		str	r0, [r4, #12]
 121              		.loc 1 72 0
 122 00b0 013A     		subs	r2, r2, #1
 123 00b2 0091     		str	r1, [sp]
 124 00b4 1846     		mov	r0, r3
 125 00b6 4FF4A871 		mov	r1, #336
 126 00ba 2B46     		mov	r3, r5
 127 00bc FFF7FEFF 		bl	chThdCreateStatic
 128              	.LVL4:
 129 00c0 2061     		str	r0, [r4, #16]
 130              		.loc 1 73 0
 131 00c2 FFF7FEFF 		bl	test_wait_threads
 132              	.LVL5:
 133              		.loc 1 74 0
 134 00c6 40F20001 		movw	r1, #:lower16:.LC5
 135 00ca C0F20001 		movt	r1, #:upper16:.LC5
 136 00ce 0120     		movs	r0, #1
 137              		.loc 1 75 0
 138 00d0 03B0     		add	sp, sp, #12
 139              		@ sp needed
 140 00d2 BDE8F040 		pop	{r4, r5, r6, r7, lr}
 141              		.loc 1 74 0
 142 00d6 FFF7FEBF 		b	_test_assert_sequence
 143              	.LVL6:
 144              		.cfi_endproc
 145              	.LFE8:
 146              		.size	thd1_execute, .-thd1_execute
 147 00da 00BF     		.section	.text.thread,"ax",%progbits
 148              		.align	2
 149              		.thumb
 150              		.thumb_func
 151              		.type	thread, %function
 152              	thread:
 153              	.LFB7:
 154              		.loc 1 60 0
 155              		.cfi_startproc
 156              		@ args = 0, pretend = 0, frame = 0
 157              		@ frame_needed = 0, uses_anonymous_args = 0
 158              	.LVL7:
 159 0000 08B5     		push	{r3, lr}
 160              		.cfi_def_cfa_offset 8
 161              		.cfi_offset 3, -8
 162              		.cfi_offset 14, -4
 163              		.loc 1 62 0
 164 0002 0078     		ldrb	r0, [r0]	@ zero_extendqisi2
 165              	.LVL8:
 166 0004 FFF7FEFF 		bl	test_emit_token
 167              	.LVL9:
 168              		.loc 1 64 0
 169 0008 0020     		movs	r0, #0
 170 000a 08BD     		pop	{r3, pc}
 171              		.cfi_endproc
ARM GAS  /tmp/ccRj6ow8.s 			page 4


 172              	.LFE7:
 173              		.size	thread, .-thread
 174              		.section	.text.thd2_execute,"ax",%progbits
 175              		.align	2
 176              		.thumb
 177              		.thumb_func
 178              		.type	thd2_execute, %function
 179              	thd2_execute:
 180              	.LFB9:
 181              		.loc 1 94 0
 182              		.cfi_startproc
 183              		@ args = 0, pretend = 0, frame = 0
 184              		@ frame_needed = 0, uses_anonymous_args = 0
 185 0000 F0B5     		push	{r4, r5, r6, r7, lr}
 186              		.cfi_def_cfa_offset 20
 187              		.cfi_offset 4, -20
 188              		.cfi_offset 5, -16
 189              		.cfi_offset 6, -12
 190              		.cfi_offset 7, -8
 191              		.cfi_offset 14, -4
 192              		.loc 1 96 0
 193 0002 40F20007 		movw	r7, #:lower16:rlist
 194 0006 C0F20007 		movt	r7, #:upper16:rlist
 195 000a BB69     		ldr	r3, [r7, #24]
 196 000c 40F20006 		movw	r6, #:lower16:wa
 197 0010 9A68     		ldr	r2, [r3, #8]
 198 0012 40F20005 		movw	r5, #:lower16:thread
 199 0016 40F20001 		movw	r1, #:lower16:.LC1
 200              		.loc 1 94 0
 201 001a 83B0     		sub	sp, sp, #12
 202              		.cfi_def_cfa_offset 32
 203              		.loc 1 96 0
 204 001c C0F20006 		movt	r6, #:upper16:wa
 205 0020 C0F20005 		movt	r5, #:upper16:thread
 206 0024 C0F20001 		movt	r1, #:upper16:.LC1
 207 0028 2B46     		mov	r3, r5
 208 002a 0091     		str	r1, [sp]
 209 002c 7068     		ldr	r0, [r6, #4]
 210 002e 043A     		subs	r2, r2, #4
 211 0030 4FF4A871 		mov	r1, #336
 212 0034 FFF7FEFF 		bl	chThdCreateStatic
 213              	.LVL10:
 214              		.loc 1 97 0
 215 0038 BB69     		ldr	r3, [r7, #24]
 216              		.loc 1 96 0
 217 003a 40F20004 		movw	r4, #:lower16:threads
 218              		.loc 1 97 0
 219 003e 9A68     		ldr	r2, [r3, #8]
 220 0040 40F20001 		movw	r1, #:lower16:.LC0
 221 0044 3368     		ldr	r3, [r6]
 222              		.loc 1 96 0
 223 0046 C0F20004 		movt	r4, #:upper16:threads
 224              		.loc 1 97 0
 225 004a C0F20001 		movt	r1, #:upper16:.LC0
 226              		.loc 1 96 0
 227 004e 6060     		str	r0, [r4, #4]
 228              		.loc 1 97 0
ARM GAS  /tmp/ccRj6ow8.s 			page 5


 229 0050 0091     		str	r1, [sp]
 230 0052 053A     		subs	r2, r2, #5
 231 0054 1846     		mov	r0, r3
 232 0056 4FF4A871 		mov	r1, #336
 233 005a 2B46     		mov	r3, r5
 234 005c FFF7FEFF 		bl	chThdCreateStatic
 235              	.LVL11:
 236              		.loc 1 98 0
 237 0060 BA69     		ldr	r2, [r7, #24]
 238 0062 3369     		ldr	r3, [r6, #16]
 239 0064 9268     		ldr	r2, [r2, #8]
 240 0066 40F20001 		movw	r1, #:lower16:.LC4
 241 006a C0F20001 		movt	r1, #:upper16:.LC4
 242              		.loc 1 97 0
 243 006e 2060     		str	r0, [r4]
 244              		.loc 1 98 0
 245 0070 0091     		str	r1, [sp]
 246 0072 013A     		subs	r2, r2, #1
 247 0074 1846     		mov	r0, r3
 248 0076 4FF4A871 		mov	r1, #336
 249 007a 2B46     		mov	r3, r5
 250 007c FFF7FEFF 		bl	chThdCreateStatic
 251              	.LVL12:
 252              		.loc 1 99 0
 253 0080 BA69     		ldr	r2, [r7, #24]
 254 0082 F368     		ldr	r3, [r6, #12]
 255 0084 9268     		ldr	r2, [r2, #8]
 256 0086 40F20001 		movw	r1, #:lower16:.LC3
 257 008a C0F20001 		movt	r1, #:upper16:.LC3
 258              		.loc 1 98 0
 259 008e 2061     		str	r0, [r4, #16]
 260              		.loc 1 99 0
 261 0090 0091     		str	r1, [sp]
 262 0092 023A     		subs	r2, r2, #2
 263 0094 1846     		mov	r0, r3
 264 0096 4FF4A871 		mov	r1, #336
 265 009a 2B46     		mov	r3, r5
 266 009c FFF7FEFF 		bl	chThdCreateStatic
 267              	.LVL13:
 268              	.LBB2:
 269              		.loc 1 101 0
 270 00a0 2023     		movs	r3, #32
 271              	.LBE2:
 272              		.loc 1 99 0
 273 00a2 E060     		str	r0, [r4, #12]
 274              	.LBB3:
 275              		.loc 1 101 0
 276              	@ 101 "../ChibiOS_2.6.4/test/testthd.c" 1
 277 00a4 83F31188 		msr     BASEPRI, r3
 278              	@ 0 "" 2
 279              		.thumb
 280              	.LBE3:
 281              		.loc 1 102 0
 282 00a8 40F20003 		movw	r3, #:lower16:rlist
 283 00ac C0F20003 		movt	r3, #:upper16:rlist
 284 00b0 9A69     		ldr	r2, [r3, #24]
 285 00b2 40F20003 		movw	r3, #:lower16:wa
ARM GAS  /tmp/ccRj6ow8.s 			page 6


 286 00b6 9268     		ldr	r2, [r2, #8]
 287 00b8 C0F20003 		movt	r3, #:upper16:wa
 288 00bc 40F20001 		movw	r1, #:lower16:.LC2
 289 00c0 9868     		ldr	r0, [r3, #8]
 290 00c2 C0F20001 		movt	r1, #:upper16:.LC2
 291 00c6 40F20003 		movw	r3, #:lower16:thread
 292 00ca 0091     		str	r1, [sp]
 293 00cc 033A     		subs	r2, r2, #3
 294 00ce C0F20003 		movt	r3, #:upper16:thread
 295 00d2 4FF4A871 		mov	r1, #336
 296 00d6 FFF7FEFF 		bl	chThdCreateI
 297              	.LVL14:
 298 00da 40F20003 		movw	r3, #:lower16:threads
 299 00de C0F20003 		movt	r3, #:upper16:threads
 300 00e2 9860     		str	r0, [r3, #8]
 301              	.LBB4:
 302              		.loc 1 103 0
 303 00e4 0023     		movs	r3, #0
 304              	@ 103 "../ChibiOS_2.6.4/test/testthd.c" 1
 305 00e6 83F31188 		msr     BASEPRI, r3
 306              	@ 0 "" 2
 307              		.thumb
 308              	.LBE4:
 309              		.loc 1 104 0
 310 00ea 40F20003 		movw	r3, #:lower16:threads
 311 00ee C0F20003 		movt	r3, #:upper16:threads
 312 00f2 9868     		ldr	r0, [r3, #8]
 313 00f4 FFF7FEFF 		bl	chThdResume
 314              	.LVL15:
 315              		.loc 1 105 0
 316 00f8 FFF7FEFF 		bl	test_wait_threads
 317              	.LVL16:
 318              		.loc 1 106 0
 319 00fc 40F20001 		movw	r1, #:lower16:.LC5
 320 0100 C0F20001 		movt	r1, #:upper16:.LC5
 321 0104 0120     		movs	r0, #1
 322              		.loc 1 107 0
 323 0106 03B0     		add	sp, sp, #12
 324              		@ sp needed
 325 0108 BDE8F040 		pop	{r4, r5, r6, r7, lr}
 326              		.loc 1 106 0
 327 010c FFF7FEBF 		b	_test_assert_sequence
 328              	.LVL17:
 329              		.cfi_endproc
 330              	.LFE9:
 331              		.size	thd2_execute, .-thd2_execute
 332              		.section	.text.thd3_execute,"ax",%progbits
 333              		.align	2
 334              		.thumb
 335              		.thumb_func
 336              		.type	thd3_execute, %function
 337              	thd3_execute:
 338              	.LFB10:
 339              		.loc 1 126 0
 340              		.cfi_startproc
 341              		@ args = 0, pretend = 0, frame = 0
 342              		@ frame_needed = 0, uses_anonymous_args = 0
ARM GAS  /tmp/ccRj6ow8.s 			page 7


 343 0000 F8B5     		push	{r3, r4, r5, r6, r7, lr}
 344              		.cfi_def_cfa_offset 24
 345              		.cfi_offset 3, -24
 346              		.cfi_offset 4, -20
 347              		.cfi_offset 5, -16
 348              		.cfi_offset 6, -12
 349              		.cfi_offset 7, -8
 350              		.cfi_offset 14, -4
 351              		.loc 1 129 0
 352 0002 40F20004 		movw	r4, #:lower16:rlist
 353 0006 C0F20004 		movt	r4, #:upper16:rlist
 354 000a A369     		ldr	r3, [r4, #24]
 355 000c 9D68     		ldr	r5, [r3, #8]
 356              	.LVL18:
 357              		.loc 1 130 0
 358 000e 6E1C     		adds	r6, r5, #1
 359 0010 3046     		mov	r0, r6
 360 0012 FFF7FEFF 		bl	chThdSetPriority
 361              	.LVL19:
 362              		.loc 1 131 0
 363 0016 B0EB050C 		subs	ip, r0, r5
 364 001a DCF10001 		rsbs	r1, ip, #0
 365              		.loc 1 130 0
 366 001e 0746     		mov	r7, r0
 367              	.LVL20:
 368              		.loc 1 131 0
 369 0020 51EB0C01 		adcs	r1, r1, ip
 370 0024 0120     		movs	r0, #1
 371              	.LVL21:
 372 0026 FFF7FEFF 		bl	_test_assert
 373              	.LVL22:
 374 002a 00B1     		cbz	r0, .L9
 375              	.LVL23:
 376              	.L4:
 377 002c F8BD     		pop	{r3, r4, r5, r6, r7, pc}
 378              	.LVL24:
 379              	.L9:
 380              		.loc 1 133 0
 381 002e A369     		ldr	r3, [r4, #24]
 382 0030 0220     		movs	r0, #2
 383 0032 9968     		ldr	r1, [r3, #8]
 384 0034 B6EB010E 		subs	lr, r6, r1
 385 0038 DEF10001 		rsbs	r1, lr, #0
 386 003c 51EB0E01 		adcs	r1, r1, lr
 387 0040 FFF7FEFF 		bl	_test_assert
 388              	.LVL25:
 389 0044 0028     		cmp	r0, #0
 390 0046 F1D1     		bne	.L4
 391              		.loc 1 135 0
 392 0048 3846     		mov	r0, r7
 393 004a FFF7FEFF 		bl	chThdSetPriority
 394              	.LVL26:
 395              		.loc 1 136 0
 396 004e 301A     		subs	r0, r6, r0
 397              	.LVL27:
 398 0050 4142     		rsbs	r1, r0, #0
 399 0052 4141     		adcs	r1, r1, r0
ARM GAS  /tmp/ccRj6ow8.s 			page 8


 400 0054 0320     		movs	r0, #3
 401 0056 FFF7FEFF 		bl	_test_assert
 402              	.LVL28:
 403 005a 0028     		cmp	r0, #0
 404 005c E6D1     		bne	.L4
 405              		.loc 1 138 0
 406 005e A369     		ldr	r3, [r4, #24]
 407 0060 0420     		movs	r0, #4
 408 0062 9968     		ldr	r1, [r3, #8]
 409 0064 4A1B     		subs	r2, r1, r5
 410 0066 5142     		rsbs	r1, r2, #0
 411 0068 5141     		adcs	r1, r1, r2
 412 006a FFF7FEFF 		bl	_test_assert
 413              	.LVL29:
 414 006e 0028     		cmp	r0, #0
 415 0070 DCD1     		bne	.L4
 416              	.LBB5:
 417              		.loc 1 143 0
 418 0072 2023     		movs	r3, #32
 419              	@ 143 "../ChibiOS_2.6.4/test/testthd.c" 1
 420 0074 83F31188 		msr     BASEPRI, r3
 421              	@ 0 "" 2
 422              		.thumb
 423              	.LBE5:
 424              		.loc 1 144 0
 425 0078 A269     		ldr	r2, [r4, #24]
 426              	.LBB6:
 427              		.loc 1 145 0
 428 007a 0023     		movs	r3, #0
 429              	.LBE6:
 430              		.loc 1 144 0
 431 007c 9168     		ldr	r1, [r2, #8]
 432 007e 0231     		adds	r1, r1, #2
 433 0080 9160     		str	r1, [r2, #8]
 434              	.LBB7:
 435              		.loc 1 145 0
 436              	@ 145 "../ChibiOS_2.6.4/test/testthd.c" 1
 437 0082 83F31188 		msr     BASEPRI, r3
 438              	@ 0 "" 2
 439              		.thumb
 440              	.LBE7:
 441              		.loc 1 146 0
 442 0086 40F20004 		movw	r4, #:lower16:rlist
 443 008a C0F20004 		movt	r4, #:upper16:rlist
 444 008e A369     		ldr	r3, [r4, #24]
 445 0090 AF1C     		adds	r7, r5, #2
 446 0092 9968     		ldr	r1, [r3, #8]
 447 0094 0520     		movs	r0, #5
 448 0096 CB1B     		subs	r3, r1, r7
 449 0098 5942     		rsbs	r1, r3, #0
 450 009a 5941     		adcs	r1, r1, r3
 451 009c FFF7FEFF 		bl	_test_assert
 452              	.LVL30:
 453 00a0 0028     		cmp	r0, #0
 454 00a2 C3D1     		bne	.L4
 455              		.loc 1 150 0
 456 00a4 3046     		mov	r0, r6
ARM GAS  /tmp/ccRj6ow8.s 			page 9


 457 00a6 FFF7FEFF 		bl	chThdSetPriority
 458              	.LVL31:
 459              		.loc 1 151 0
 460 00aa B0EB050C 		subs	ip, r0, r5
 461 00ae DCF10001 		rsbs	r1, ip, #0
 462 00b2 51EB0C01 		adcs	r1, r1, ip
 463 00b6 0620     		movs	r0, #6
 464              	.LVL32:
 465 00b8 FFF7FEFF 		bl	_test_assert
 466              	.LVL33:
 467 00bc 0028     		cmp	r0, #0
 468 00be B5D1     		bne	.L4
 469              		.loc 1 153 0
 470 00c0 A369     		ldr	r3, [r4, #24]
 471 00c2 0720     		movs	r0, #7
 472 00c4 9968     		ldr	r1, [r3, #8]
 473 00c6 B7EB010E 		subs	lr, r7, r1
 474 00ca DEF10001 		rsbs	r1, lr, #0
 475 00ce 51EB0E01 		adcs	r1, r1, lr
 476 00d2 FFF7FEFF 		bl	_test_assert
 477              	.LVL34:
 478 00d6 0028     		cmp	r0, #0
 479 00d8 A8D1     		bne	.L4
 480              		.loc 1 155 0
 481 00da A369     		ldr	r3, [r4, #24]
 482 00dc 0820     		movs	r0, #8
 483 00de 196C     		ldr	r1, [r3, #64]
 484 00e0 771A     		subs	r7, r6, r1
 485 00e2 7942     		rsbs	r1, r7, #0
 486 00e4 7941     		adcs	r1, r1, r7
 487 00e6 FFF7FEFF 		bl	_test_assert
 488              	.LVL35:
 489 00ea 0028     		cmp	r0, #0
 490 00ec 9ED1     		bne	.L4
 491              		.loc 1 159 0
 492 00ee EF1C     		adds	r7, r5, #3
 493 00f0 3846     		mov	r0, r7
 494 00f2 FFF7FEFF 		bl	chThdSetPriority
 495              	.LVL36:
 496              		.loc 1 160 0
 497 00f6 301A     		subs	r0, r6, r0
 498              	.LVL37:
 499 00f8 4142     		rsbs	r1, r0, #0
 500 00fa 4141     		adcs	r1, r1, r0
 501 00fc 0920     		movs	r0, #9
 502 00fe FFF7FEFF 		bl	_test_assert
 503              	.LVL38:
 504 0102 0028     		cmp	r0, #0
 505 0104 92D1     		bne	.L4
 506              		.loc 1 162 0
 507 0106 A369     		ldr	r3, [r4, #24]
 508 0108 0A20     		movs	r0, #10
 509 010a 9968     		ldr	r1, [r3, #8]
 510 010c 7A1A     		subs	r2, r7, r1
 511 010e 5142     		rsbs	r1, r2, #0
 512 0110 5141     		adcs	r1, r1, r2
 513 0112 FFF7FEFF 		bl	_test_assert
ARM GAS  /tmp/ccRj6ow8.s 			page 10


 514              	.LVL39:
 515 0116 0028     		cmp	r0, #0
 516 0118 88D1     		bne	.L4
 517              		.loc 1 164 0
 518 011a A369     		ldr	r3, [r4, #24]
 519 011c 0B20     		movs	r0, #11
 520 011e 196C     		ldr	r1, [r3, #64]
 521 0120 7B1A     		subs	r3, r7, r1
 522 0122 5942     		rsbs	r1, r3, #0
 523 0124 5941     		adcs	r1, r1, r3
 524 0126 FFF7FEFF 		bl	_test_assert
 525              	.LVL40:
 526 012a 0028     		cmp	r0, #0
 527 012c 7FF47EAF 		bne	.L4
 528              	.LBB8:
 529              		.loc 1 167 0
 530 0130 2023     		movs	r3, #32
 531              	@ 167 "../ChibiOS_2.6.4/test/testthd.c" 1
 532 0132 83F31188 		msr     BASEPRI, r3
 533              	@ 0 "" 2
 534              		.thumb
 535              	.LBE8:
 536              		.loc 1 168 0
 537 0136 A269     		ldr	r2, [r4, #24]
 538              	.LBB9:
 539              		.loc 1 170 0
 540 0138 0023     		movs	r3, #0
 541              	.LBE9:
 542              		.loc 1 168 0
 543 013a 9560     		str	r5, [r2, #8]
 544              		.loc 1 169 0
 545 013c 1564     		str	r5, [r2, #64]
 546              	.LBB10:
 547              		.loc 1 170 0
 548              	@ 170 "../ChibiOS_2.6.4/test/testthd.c" 1
 549 013e 83F31188 		msr     BASEPRI, r3
 550              	@ 0 "" 2
 551              		.thumb
 552 0142 73E7     		b	.L4
 553              	.LBE10:
 554              		.cfi_endproc
 555              	.LFE10:
 556              		.size	thd3_execute, .-thd3_execute
 557              		.section	.text.thd4_execute,"ax",%progbits
 558              		.align	2
 559              		.thumb
 560              		.thumb_func
 561              		.type	thd4_execute, %function
 562              	thd4_execute:
 563              	.LFB11:
 564              		.loc 1 189 0
 565              		.cfi_startproc
 566              		@ args = 0, pretend = 0, frame = 0
 567              		@ frame_needed = 0, uses_anonymous_args = 0
 568 0000 38B5     		push	{r3, r4, r5, lr}
 569              		.cfi_def_cfa_offset 16
 570              		.cfi_offset 3, -16
ARM GAS  /tmp/ccRj6ow8.s 			page 11


 571              		.cfi_offset 4, -12
 572              		.cfi_offset 5, -8
 573              		.cfi_offset 14, -4
 574              		.loc 1 195 0
 575 0002 40F20004 		movw	r4, #:lower16:vtlist
 576 0006 C0F20004 		movt	r4, #:upper16:vtlist
 577              		.loc 1 192 0
 578 000a FFF7FEFF 		bl	test_wait_tick
 579              	.LVL41:
 580              		.loc 1 195 0
 581 000e E568     		ldr	r5, [r4, #12]
 582              	.LVL42:
 583              		.loc 1 196 0
 584 0010 6420     		movs	r0, #100
 585 0012 FFF7FEFF 		bl	chThdSleep
 586              	.LVL43:
 587              		.loc 1 197 0
 588 0016 05F16401 		add	r1, r5, #100
 589 001a 05F16502 		add	r2, r5, #101
 590 001e 0120     		movs	r0, #1
 591 0020 FFF7FEFF 		bl	_test_assert_time_window
 592              	.LVL44:
 593 0024 00B1     		cbz	r0, .L14
 594              	.LVL45:
 595              	.L10:
 596 0026 38BD     		pop	{r3, r4, r5, pc}
 597              	.LVL46:
 598              	.L14:
 599              		.loc 1 200 0
 600 0028 E568     		ldr	r5, [r4, #12]
 601              	.LVL47:
 602              		.loc 1 201 0
 603 002a 6420     		movs	r0, #100
 604 002c FFF7FEFF 		bl	chThdSleep
 605              	.LVL48:
 606              		.loc 1 202 0
 607 0030 05F16401 		add	r1, r5, #100
 608 0034 05F16502 		add	r2, r5, #101
 609 0038 0220     		movs	r0, #2
 610 003a FFF7FEFF 		bl	_test_assert_time_window
 611              	.LVL49:
 612 003e 0028     		cmp	r0, #0
 613 0040 F1D1     		bne	.L10
 614              	.LBB13:
 615              	.LBB14:
 616              		.loc 1 205 0
 617 0042 E568     		ldr	r5, [r4, #12]
 618              	.LVL50:
 619              		.loc 1 206 0
 620 0044 4FF47A70 		mov	r0, #1000
 621 0048 FFF7FEFF 		bl	chThdSleep
 622              	.LVL51:
 623              		.loc 1 207 0
 624 004c 05F57A71 		add	r1, r5, #1000
 625 0050 05F2E932 		addw	r2, r5, #1001
 626 0054 0320     		movs	r0, #3
 627 0056 FFF7FEFF 		bl	_test_assert_time_window
ARM GAS  /tmp/ccRj6ow8.s 			page 12


 628              	.LVL52:
 629 005a 0028     		cmp	r0, #0
 630 005c E3D1     		bne	.L10
 631              		.loc 1 210 0
 632 005e E468     		ldr	r4, [r4, #12]
 633 0060 04F16405 		add	r5, r4, #100
 634              	.LVL53:
 635              		.loc 1 211 0
 636 0064 2846     		mov	r0, r5
 637 0066 FFF7FEFF 		bl	chThdSleepUntil
 638              	.LVL54:
 639              		.loc 1 212 0
 640 006a 2946     		mov	r1, r5
 641 006c 04F16502 		add	r2, r4, #101
 642 0070 0420     		movs	r0, #4
 643              	.LBE14:
 644              	.LBE13:
 645              		.loc 1 213 0
 646 0072 BDE83840 		pop	{r3, r4, r5, lr}
 647              	.LVL55:
 648              	.LBB16:
 649              	.LBB15:
 650              		.loc 1 212 0
 651 0076 FFF7FEBF 		b	_test_assert_time_window
 652              	.LVL56:
 653              	.LBE15:
 654              	.LBE16:
 655              		.cfi_endproc
 656              	.LFE11:
 657              		.size	thd4_execute, .-thd4_execute
 658              		.global	patternthd
 659              		.global	testthd4
 660              		.global	testthd3
 661              		.global	testthd2
 662              		.global	testthd1
 663 007a 00BF     		.section	.rodata.testthd1,"a",%progbits
 664              		.align	2
 665              		.type	testthd1, %object
 666              		.size	testthd1, 16
 667              	testthd1:
 668 0000 64000000 		.word	.LC9
 669 0004 00000000 		.word	0
 670 0008 00000000 		.word	0
 671 000c 00000000 		.word	thd1_execute
 672              		.section	.rodata.testthd2,"a",%progbits
 673              		.align	2
 674              		.type	testthd2, %object
 675              		.size	testthd2, 16
 676              	testthd2:
 677 0000 48000000 		.word	.LC8
 678 0004 00000000 		.word	0
 679 0008 00000000 		.word	0
 680 000c 00000000 		.word	thd2_execute
 681              		.section	.rodata.testthd3,"a",%progbits
 682              		.align	2
 683              		.type	testthd3, %object
 684              		.size	testthd3, 16
ARM GAS  /tmp/ccRj6ow8.s 			page 13


 685              	testthd3:
 686 0000 2C000000 		.word	.LC7
 687 0004 00000000 		.word	0
 688 0008 00000000 		.word	0
 689 000c 00000000 		.word	thd3_execute
 690              		.section	.rodata.testthd4,"a",%progbits
 691              		.align	2
 692              		.type	testthd4, %object
 693              		.size	testthd4, 16
 694              	testthd4:
 695 0000 1C000000 		.word	.LC6
 696 0004 00000000 		.word	0
 697 0008 00000000 		.word	0
 698 000c 00000000 		.word	thd4_execute
 699              		.section	.rodata.patternthd,"a",%progbits
 700              		.align	2
 701              		.type	patternthd, %object
 702              		.size	patternthd, 20
 703              	patternthd:
 704 0000 00000000 		.word	testthd1
 705 0004 00000000 		.word	testthd2
 706 0008 00000000 		.word	testthd3
 707 000c 00000000 		.word	testthd4
 708 0010 00000000 		.word	0
 709              		.section	.rodata.str1.4,"aMS",%progbits,1
 710              		.align	2
 711              	.LC0:
 712 0000 4500     		.ascii	"E\000"
 713 0002 0000     		.space	2
 714              	.LC1:
 715 0004 4400     		.ascii	"D\000"
 716 0006 0000     		.space	2
 717              	.LC2:
 718 0008 4300     		.ascii	"C\000"
 719 000a 0000     		.space	2
 720              	.LC3:
 721 000c 4200     		.ascii	"B\000"
 722 000e 0000     		.space	2
 723              	.LC4:
 724 0010 4100     		.ascii	"A\000"
 725 0012 0000     		.space	2
 726              	.LC5:
 727 0014 41424344 		.ascii	"ABCDE\000"
 727      4500
 728 001a 0000     		.space	2
 729              	.LC6:
 730 001c 54687265 		.ascii	"Threads, delays\000"
 730      6164732C 
 730      2064656C 
 730      61797300 
 731              	.LC7:
 732 002c 54687265 		.ascii	"Threads, priority change\000"
 732      6164732C 
 732      20707269 
 732      6F726974 
 732      79206368 
 733 0045 000000   		.space	3
ARM GAS  /tmp/ccRj6ow8.s 			page 14


 734              	.LC8:
 735 0048 54687265 		.ascii	"Threads, enqueuing test #2\000"
 735      6164732C 
 735      20656E71 
 735      75657569 
 735      6E672074 
 736 0063 00       		.space	1
 737              	.LC9:
 738 0064 54687265 		.ascii	"Threads, enqueuing test #1\000"
 738      6164732C 
 738      20656E71 
 738      75657569 
 738      6E672074 
 739 007f 00       		.text
 740              	.Letext0:
 741              		.file 2 "/usr/lib/gcc/arm-none-eabi/4.8.2/include/stddef.h"
 742              		.file 3 "/usr/include/newlib/machine/_default_types.h"
 743              		.file 4 "/usr/include/newlib/stdint.h"
 744              		.file 5 "../ChibiOS_2.6.4/os/ports/GCC/ARMCMx/chtypes.h"
 745              		.file 6 "../ChibiOS_2.6.4/os/kernel/include/chlists.h"
 746              		.file 7 "../ChibiOS_2.6.4/os/kernel/include/chthreads.h"
 747              		.file 8 "../ChibiOS_2.6.4/os/ports/GCC/ARMCMx/chcore_v7m.h"
 748              		.file 9 "../ChibiOS_2.6.4/os/kernel/include/chvt.h"
 749              		.file 10 "../ChibiOS_2.6.4/os/kernel/include/chschd.h"
 750              		.file 11 "../ChibiOS_2.6.4/os/kernel/include/chmtx.h"
 751              		.file 12 "../ChibiOS_2.6.4/test/test.h"