ARM GAS  /tmp/ccJSMMQ6.s 			page 1


   1              		.syntax unified
   2              		.cpu cortex-m3
   3              		.fpu softvfp
   4              		.eabi_attribute 20, 1
   5              		.eabi_attribute 21, 1
   6              		.eabi_attribute 23, 3
   7              		.eabi_attribute 24, 1
   8              		.eabi_attribute 25, 1
   9              		.eabi_attribute 26, 1
  10              		.eabi_attribute 30, 2
  11              		.eabi_attribute 34, 1
  12              		.eabi_attribute 18, 4
  13              		.thumb
  14              		.file	"testpools.c"
  15              		.text
  16              	.Ltext0:
  17              		.cfi_sections	.debug_frame
  18              		.section	.text.null_provider,"ax",%progbits
  19              		.align	2
  20              		.thumb
  21              		.thumb_func
  22              		.type	null_provider, %function
  23              	null_provider:
  24              	.LFB7:
  25              		.file 1 "../ChibiOS_2.6.4/test/testpools.c"
  26              		.loc 1 60 0
  27              		.cfi_startproc
  28              		@ args = 0, pretend = 0, frame = 0
  29              		@ frame_needed = 0, uses_anonymous_args = 0
  30              		@ link register save eliminated.
  31              	.LVL0:
  32              		.loc 1 64 0
  33 0000 0020     		movs	r0, #0
  34              	.LVL1:
  35 0002 7047     		bx	lr
  36              		.cfi_endproc
  37              	.LFE7:
  38              		.size	null_provider, .-null_provider
  39              		.section	.text.pools1_setup,"ax",%progbits
  40              		.align	2
  41              		.thumb
  42              		.thumb_func
  43              		.type	pools1_setup, %function
  44              	pools1_setup:
  45              	.LFB8:
  46              		.loc 1 66 0
  47              		.cfi_startproc
  48              		@ args = 0, pretend = 0, frame = 0
  49              		@ frame_needed = 0, uses_anonymous_args = 0
  50              		@ link register save eliminated.
  51              		.loc 1 68 0
  52 0000 40F20000 		movw	r0, #:lower16:.LANCHOR0
  53 0004 C0F20000 		movt	r0, #:upper16:.LANCHOR0
  54 0008 4FF4A871 		mov	r1, #336
  55 000c 0022     		movs	r2, #0
  56 000e FFF7FEBF 		b	chPoolInit
  57              	.LVL2:
ARM GAS  /tmp/ccJSMMQ6.s 			page 2


  58              		.cfi_endproc
  59              	.LFE8:
  60              		.size	pools1_setup, .-pools1_setup
  61 0012 00BF     		.section	.text.pools1_execute,"ax",%progbits
  62              		.align	2
  63              		.thumb
  64              		.thumb_func
  65              		.type	pools1_execute, %function
  66              	pools1_execute:
  67              	.LFB9:
  68              		.loc 1 71 0
  69              		.cfi_startproc
  70              		@ args = 0, pretend = 0, frame = 0
  71              		@ frame_needed = 0, uses_anonymous_args = 0
  72 0000 38B5     		push	{r3, r4, r5, lr}
  73              		.cfi_def_cfa_offset 16
  74              		.cfi_offset 3, -16
  75              		.cfi_offset 4, -12
  76              		.cfi_offset 5, -8
  77              		.cfi_offset 14, -4
  78              		.loc 1 75 0
  79 0002 40F20003 		movw	r3, #:lower16:wa
  80 0006 C0F20003 		movt	r3, #:upper16:wa
  81 000a 1D68     		ldr	r5, [r3]
  82 000c 40F20000 		movw	r0, #:lower16:.LANCHOR0
  83 0010 2946     		mov	r1, r5
  84 0012 C0F20000 		movt	r0, #:upper16:.LANCHOR0
  85 0016 0522     		movs	r2, #5
  86 0018 FFF7FEFF 		bl	chPoolLoadArray
  87              	.LVL3:
  88 001c 0524     		movs	r4, #5
  89              	.LVL4:
  90              	.L7:
  91              		.loc 1 79 0
  92 001e 40F20000 		movw	r0, #:lower16:.LANCHOR0
  93 0022 C0F20000 		movt	r0, #:upper16:.LANCHOR0
  94 0026 FFF7FEFF 		bl	chPoolAlloc
  95              	.LVL5:
  96 002a 011C     		adds	r1, r0, #0
  97 002c 18BF     		it	ne
  98 002e 0121     		movne	r1, #1
  99 0030 0120     		movs	r0, #1
 100 0032 FFF7FEFF 		bl	_test_assert
 101              	.LVL6:
 102 0036 0028     		cmp	r0, #0
 103 0038 46D1     		bne	.L3
 104              		.loc 1 78 0
 105 003a 013C     		subs	r4, r4, #1
 106              	.LVL7:
 107 003c EFD1     		bne	.L7
 108              		.loc 1 82 0
 109 003e 40F20000 		movw	r0, #:lower16:.LANCHOR0
 110 0042 C0F20000 		movt	r0, #:upper16:.LANCHOR0
 111 0046 FFF7FEFF 		bl	chPoolAlloc
 112              	.LVL8:
 113 004a D0F10101 		rsbs	r1, r0, #1
 114 004e 38BF     		it	cc
ARM GAS  /tmp/ccJSMMQ6.s 			page 3


 115 0050 0021     		movcc	r1, #0
 116 0052 0220     		movs	r0, #2
 117 0054 FFF7FEFF 		bl	_test_assert
 118              	.LVL9:
 119 0058 B0BB     		cbnz	r0, .L3
 120 005a 40F20004 		movw	r4, #:lower16:wa
 121              	.LVL10:
 122 005e C0F20004 		movt	r4, #:upper16:wa
 123              	.LBB4:
 124              	.LBB5:
 125              		.loc 1 86 0
 126 0062 40F20000 		movw	r0, #:lower16:.LANCHOR0
 127              	.LBE5:
 128              	.LBE4:
 129              		.loc 1 82 0
 130 0066 2946     		mov	r1, r5
 131              	.LBB8:
 132              	.LBB6:
 133              		.loc 1 86 0
 134 0068 C0F20000 		movt	r0, #:upper16:.LANCHOR0
 135 006c 04F11005 		add	r5, r4, #16
 136 0070 FFF7FEFF 		bl	chPoolFree
 137              	.LVL11:
 138              		.loc 1 85 0
 139 0074 AC42     		cmp	r4, r5
 140 0076 09D0     		beq	.L9
 141              	.L14:
 142 0078 54F8041F 		ldr	r1, [r4, #4]!
 143              		.loc 1 86 0
 144 007c 40F20000 		movw	r0, #:lower16:.LANCHOR0
 145 0080 C0F20000 		movt	r0, #:upper16:.LANCHOR0
 146 0084 FFF7FEFF 		bl	chPoolFree
 147              	.LVL12:
 148              		.loc 1 85 0
 149 0088 AC42     		cmp	r4, r5
 150 008a F5D1     		bne	.L14
 151              	.L9:
 152 008c 0524     		movs	r4, #5
 153              	.L12:
 154              	.LVL13:
 155              		.loc 1 90 0
 156 008e 40F20000 		movw	r0, #:lower16:.LANCHOR0
 157 0092 C0F20000 		movt	r0, #:upper16:.LANCHOR0
 158 0096 FFF7FEFF 		bl	chPoolAlloc
 159              	.LVL14:
 160 009a 011C     		adds	r1, r0, #0
 161 009c 18BF     		it	ne
 162 009e 0121     		movne	r1, #1
 163 00a0 0320     		movs	r0, #3
 164 00a2 FFF7FEFF 		bl	_test_assert
 165              	.LVL15:
 166 00a6 78B9     		cbnz	r0, .L3
 167              		.loc 1 89 0
 168 00a8 013C     		subs	r4, r4, #1
 169              	.LVL16:
 170 00aa F0D1     		bne	.L12
 171              		.loc 1 93 0
ARM GAS  /tmp/ccJSMMQ6.s 			page 4


 172 00ac 40F20000 		movw	r0, #:lower16:.LANCHOR0
 173 00b0 C0F20000 		movt	r0, #:upper16:.LANCHOR0
 174 00b4 FFF7FEFF 		bl	chPoolAlloc
 175              	.LVL17:
 176 00b8 D0F10101 		rsbs	r1, r0, #1
 177 00bc 38BF     		it	cc
 178 00be 0021     		movcc	r1, #0
 179 00c0 0420     		movs	r0, #4
 180 00c2 FFF7FEFF 		bl	_test_assert
 181              	.LVL18:
 182 00c6 00B1     		cbz	r0, .L15
 183              	.LVL19:
 184              	.L3:
 185 00c8 38BD     		pop	{r3, r4, r5, pc}
 186              	.LVL20:
 187              	.L15:
 188              		.loc 1 96 0
 189 00ca 40F20000 		movw	r0, #:lower16:.LANCHOR0
 190 00ce 40F20002 		movw	r2, #:lower16:null_provider
 191 00d2 1021     		movs	r1, #16
 192 00d4 C0F20000 		movt	r0, #:upper16:.LANCHOR0
 193 00d8 C0F20002 		movt	r2, #:upper16:null_provider
 194 00dc FFF7FEFF 		bl	chPoolInit
 195              	.LVL21:
 196              		.loc 1 97 0
 197 00e0 40F20000 		movw	r0, #:lower16:.LANCHOR0
 198 00e4 C0F20000 		movt	r0, #:upper16:.LANCHOR0
 199 00e8 FFF7FEFF 		bl	chPoolAlloc
 200              	.LVL22:
 201              	.LBE6:
 202              	.LBE8:
 203              		.loc 1 98 0
 204 00ec BDE83840 		pop	{r3, r4, r5, lr}
 205              	.LVL23:
 206              	.LBB9:
 207              	.LBB7:
 208              		.loc 1 97 0
 209 00f0 D0F10101 		rsbs	r1, r0, #1
 210 00f4 38BF     		it	cc
 211 00f6 0021     		movcc	r1, #0
 212 00f8 0520     		movs	r0, #5
 213 00fa FFF7FEBF 		b	_test_assert
 214              	.LVL24:
 215              	.LBE7:
 216              	.LBE9:
 217              		.cfi_endproc
 218              	.LFE9:
 219              		.size	pools1_execute, .-pools1_execute
 220              		.global	patternpools
 221              		.global	testpools1
 222 00fe 00BF     		.section	.rodata.str1.4,"aMS",%progbits,1
 223              		.align	2
 224              	.LC0:
 225 0000 4D656D6F 		.ascii	"Memory Pools, queue/dequeue\000"
 225      72792050 
 225      6F6F6C73 
 225      2C207175 
ARM GAS  /tmp/ccJSMMQ6.s 			page 5


 225      6575652F 
 226              		.section	.rodata.patternpools,"a",%progbits
 227              		.align	2
 228              		.type	patternpools, %object
 229              		.size	patternpools, 8
 230              	patternpools:
 231 0000 00000000 		.word	testpools1
 232 0004 00000000 		.word	0
 233              		.section	.data.mp1,"aw",%progbits
 234              		.align	2
 235              		.set	.LANCHOR0,. + 0
 236              		.type	mp1, %object
 237              		.size	mp1, 12
 238              	mp1:
 239 0000 00000000 		.word	0
 240 0004 50010000 		.word	336
 241 0008 00000000 		.word	0
 242              		.section	.rodata.testpools1,"a",%progbits
 243              		.align	2
 244              		.type	testpools1, %object
 245              		.size	testpools1, 16
 246              	testpools1:
 247 0000 00000000 		.word	.LC0
 248 0004 00000000 		.word	pools1_setup
 249 0008 00000000 		.word	0
 250 000c 00000000 		.word	pools1_execute
 251              		.text
 252              	.Letext0:
 253              		.file 2 "/usr/lib/gcc/arm-none-eabi/4.8.2/include/stddef.h"
 254              		.file 3 "../ChibiOS_2.6.4/os/ports/GCC/ARMCMx/chtypes.h"
 255              		.file 4 "../ChibiOS_2.6.4/os/kernel/include/chmemcore.h"
 256              		.file 5 "../ChibiOS_2.6.4/os/kernel/include/chmempools.h"
 257              		.file 6 "../ChibiOS_2.6.4/test/test.h"