ARM GAS  /tmp/ccP5o6Pk.s 			page 1


   1              		.syntax unified
   2              		.cpu cortex-m3
   3              		.fpu softvfp
   4              		.eabi_attribute 20, 1
   5              		.eabi_attribute 21, 1
   6              		.eabi_attribute 23, 3
   7              		.eabi_attribute 24, 1
   8              		.eabi_attribute 25, 1
   9              		.eabi_attribute 26, 1
  10              		.eabi_attribute 30, 2
  11              		.eabi_attribute 34, 1
  12              		.eabi_attribute 18, 4
  13              		.thumb
  14              		.file	"tm.c"
  15              		.text
  16              	.Ltext0:
  17              		.cfi_sections	.debug_frame
  18              		.section	.text.tm_start,"ax",%progbits
  19              		.align	2
  20              		.thumb
  21              		.thumb_func
  22              		.type	tm_start, %function
  23              	tm_start:
  24              	.LFB63:
  25              		.file 1 "../ChibiOS_2.6.4/os/hal/src/tm.c"
  26              		.loc 1 69 0
  27              		.cfi_startproc
  28              		@ args = 0, pretend = 0, frame = 0
  29              		@ frame_needed = 0, uses_anonymous_args = 0
  30              		@ link register save eliminated.
  31              	.LVL0:
  32              		.loc 1 71 0
  33 0000 4FF48053 		mov	r3, #4096
  34 0004 CEF20003 		movt	r3, 57344
  35 0008 5B68     		ldr	r3, [r3, #4]
  36 000a 8360     		str	r3, [r0, #8]
  37 000c 7047     		bx	lr
  38              		.cfi_endproc
  39              	.LFE63:
  40              		.size	tm_start, .-tm_start
  41 000e 00BF     		.section	.text.tm_stop,"ax",%progbits
  42              		.align	2
  43              		.thumb
  44              		.thumb_func
  45              		.type	tm_stop, %function
  46              	tm_stop:
  47              	.LFB64:
  48              		.loc 1 81 0
  49              		.cfi_startproc
  50              		@ args = 0, pretend = 0, frame = 0
  51              		@ frame_needed = 0, uses_anonymous_args = 0
  52              		@ link register save eliminated.
  53              	.LVL1:
  54              		.loc 1 83 0
  55 0000 4FF48053 		mov	r3, #4096
  56 0004 CEF20003 		movt	r3, 57344
  57              		.loc 1 84 0
ARM GAS  /tmp/ccP5o6Pk.s 			page 2


  58 0008 40F20002 		movw	r2, #:lower16:.LANCHOR0
  59              		.loc 1 83 0
  60 000c 5B68     		ldr	r3, [r3, #4]
  61              	.LVL2:
  62              		.loc 1 84 0
  63 000e 8168     		ldr	r1, [r0, #8]
  64 0010 C0F20002 		movt	r2, #:upper16:.LANCHOR0
  65              		.loc 1 81 0
  66 0014 10B4     		push	{r4}
  67              		.cfi_def_cfa_offset 4
  68              		.cfi_offset 4, -4
  69              		.loc 1 84 0
  70 0016 1468     		ldr	r4, [r2]
  71 0018 5B1A     		subs	r3, r3, r1
  72              	.LVL3:
  73              		.loc 1 85 0
  74 001a C268     		ldr	r2, [r0, #12]
  75              		.loc 1 84 0
  76 001c 1B1B     		subs	r3, r3, r4
  77              		.loc 1 85 0
  78 001e 9342     		cmp	r3, r2
  79              		.loc 1 84 0
  80 0020 8360     		str	r3, [r0, #8]
  81              		.loc 1 86 0
  82 0022 88BF     		it	hi
  83 0024 C360     		strhi	r3, [r0, #12]
  84              		.loc 1 85 0
  85 0026 03D8     		bhi	.L2
  86              		.loc 1 87 0
  87 0028 0269     		ldr	r2, [r0, #16]
  88 002a 9342     		cmp	r3, r2
  89              		.loc 1 88 0
  90 002c 38BF     		it	cc
  91 002e 0361     		strcc	r3, [r0, #16]
  92              	.L2:
  93              		.loc 1 89 0
  94 0030 5DF8044B 		ldr	r4, [sp], #4
  95 0034 7047     		bx	lr
  96              		.cfi_endproc
  97              	.LFE64:
  98              		.size	tm_stop, .-tm_stop
  99 0036 00BF     		.section	.text.tmInit,"ax",%progbits
 100              		.align	2
 101              		.global	tmInit
 102              		.thumb
 103              		.thumb_func
 104              		.type	tmInit, %function
 105              	tmInit:
 106              	.LFB65:
 107              		.loc 1 104 0
 108              		.cfi_startproc
 109              		@ args = 0, pretend = 0, frame = 24
 110              		@ frame_needed = 0, uses_anonymous_args = 0
 111 0000 10B5     		push	{r4, lr}
 112              		.cfi_def_cfa_offset 8
 113              		.cfi_offset 4, -8
 114              		.cfi_offset 14, -4
ARM GAS  /tmp/ccP5o6Pk.s 			page 3


 115              		.loc 1 110 0
 116 0002 40F20004 		movw	r4, #:lower16:.LANCHOR0
 117              		.loc 1 104 0
 118 0006 86B0     		sub	sp, sp, #24
 119              		.cfi_def_cfa_offset 32
 120              		.loc 1 110 0
 121 0008 C0F20004 		movt	r4, #:upper16:.LANCHOR0
 122 000c 0022     		movs	r2, #0
 123              	.LBB8:
 124              	.LBB9:
 125              		.loc 1 130 0
 126 000e 4FF0FF31 		mov	r1, #-1
 127              	.LBE9:
 128              	.LBE8:
 129              	.LBB14:
 130              	.LBB15:
 131              		.loc 1 71 0
 132 0012 4FF48053 		mov	r3, #4096
 133              	.LBE15:
 134              	.LBE14:
 135              		.loc 1 110 0
 136 0016 2260     		str	r2, [r4]
 137              	.LVL4:
 138              	.LBB18:
 139              	.LBB10:
 140              		.loc 1 129 0
 141 0018 0492     		str	r2, [sp, #16]
 142              		.loc 1 130 0
 143 001a 0591     		str	r1, [sp, #20]
 144              	.LVL5:
 145              	.LBE10:
 146              	.LBE18:
 147              	.LBB19:
 148              	.LBB16:
 149              		.loc 1 71 0
 150 001c CEF20003 		movt	r3, 57344
 151 0020 5968     		ldr	r1, [r3, #4]
 152              	.LBE16:
 153              	.LBE19:
 154              	.LBB20:
 155              	.LBB11:
 156              		.loc 1 126 0
 157 0022 40F20002 		movw	r2, #:lower16:tm_start
 158              		.loc 1 127 0
 159 0026 40F20003 		movw	r3, #:lower16:tm_stop
 160              		.loc 1 126 0
 161 002a C0F20002 		movt	r2, #:upper16:tm_start
 162              		.loc 1 127 0
 163 002e C0F20003 		movt	r3, #:upper16:tm_stop
 164              	.LBE11:
 165              	.LBE20:
 166              		.loc 1 113 0
 167 0032 01A8     		add	r0, sp, #4
 168              	.LVL6:
 169              	.LBB21:
 170              	.LBB12:
 171              		.loc 1 127 0
ARM GAS  /tmp/ccP5o6Pk.s 			page 4


 172 0034 0293     		str	r3, [sp, #8]
 173              	.LBE12:
 174              	.LBE21:
 175              	.LBB22:
 176              	.LBB17:
 177              		.loc 1 71 0
 178 0036 0391     		str	r1, [sp, #12]
 179              	.LBE17:
 180              	.LBE22:
 181              	.LBB23:
 182              	.LBB13:
 183              		.loc 1 126 0
 184 0038 0192     		str	r2, [sp, #4]
 185              	.LBE13:
 186              	.LBE23:
 187              		.loc 1 113 0
 188 003a FFF7FEFF 		bl	tm_stop
 189              	.LVL7:
 190              		.loc 1 114 0
 191 003e 039B     		ldr	r3, [sp, #12]
 192 0040 2360     		str	r3, [r4]
 193              		.loc 1 115 0
 194 0042 06B0     		add	sp, sp, #24
 195              		@ sp needed
 196 0044 10BD     		pop	{r4, pc}
 197              		.cfi_endproc
 198              	.LFE65:
 199              		.size	tmInit, .-tmInit
 200 0046 00BF     		.section	.text.tmObjectInit,"ax",%progbits
 201              		.align	2
 202              		.global	tmObjectInit
 203              		.thumb
 204              		.thumb_func
 205              		.type	tmObjectInit, %function
 206              	tmObjectInit:
 207              	.LFB66:
 208              		.loc 1 124 0
 209              		.cfi_startproc
 210              		@ args = 0, pretend = 0, frame = 0
 211              		@ frame_needed = 0, uses_anonymous_args = 0
 212              		@ link register save eliminated.
 213              	.LVL8:
 214              		.loc 1 126 0
 215 0000 40F20002 		movw	r2, #:lower16:tm_start
 216              		.loc 1 127 0
 217 0004 40F20003 		movw	r3, #:lower16:tm_stop
 218              		.loc 1 124 0
 219 0008 10B4     		push	{r4}
 220              		.cfi_def_cfa_offset 4
 221              		.cfi_offset 4, -4
 222              		.loc 1 128 0
 223 000a 0021     		movs	r1, #0
 224              		.loc 1 130 0
 225 000c 4FF0FF34 		mov	r4, #-1
 226              		.loc 1 126 0
 227 0010 C0F20002 		movt	r2, #:upper16:tm_start
 228              		.loc 1 127 0
ARM GAS  /tmp/ccP5o6Pk.s 			page 5


 229 0014 C0F20003 		movt	r3, #:upper16:tm_stop
 230              		.loc 1 130 0
 231 0018 0461     		str	r4, [r0, #16]
 232              		.loc 1 127 0
 233 001a 80E80C00 		stmia	r0, {r2, r3}
 234              		.loc 1 128 0
 235 001e 8160     		str	r1, [r0, #8]
 236              		.loc 1 129 0
 237 0020 C160     		str	r1, [r0, #12]
 238              		.loc 1 131 0
 239 0022 5DF8044B 		ldr	r4, [sp], #4
 240 0026 7047     		bx	lr
 241              		.cfi_endproc
 242              	.LFE66:
 243              		.size	tmObjectInit, .-tmObjectInit
 244              		.section	.bss.measurement_offset,"aw",%nobits
 245              		.align	2
 246              		.set	.LANCHOR0,. + 0
 247              		.type	measurement_offset, %object
 248              		.size	measurement_offset, 4
 249              	measurement_offset:
 250 0000 00000000 		.space	4
 251              		.text
 252              	.Letext0:
 253              		.file 2 "/usr/include/newlib/machine/_default_types.h"
 254              		.file 3 "/usr/include/newlib/stdint.h"
 255              		.file 4 "../ChibiOS_2.6.4/os/ports/common/ARMCMx/nvic.h"
 256              		.file 5 "../ChibiOS_2.6.4/os/hal/platforms/STM32L1xx/hal_lld.h"
 257              		.file 6 "../ChibiOS_2.6.4/os/hal/include/tm.h"
 258              		.file 7 "../ChibiOS_2.6.4/os/ports/common/ARMCMx/CMSIS/include/core_cm3.h"