ARM GAS  /tmp/ccR9nAE3.s 			page 1


   1              		.syntax unified
   2              		.cpu cortex-m4
   3              		.fpu softvfp
   4              		.eabi_attribute 20, 1
   5              		.eabi_attribute 21, 1
   6              		.eabi_attribute 23, 3
   7              		.eabi_attribute 24, 1
   8              		.eabi_attribute 25, 1
   9              		.eabi_attribute 26, 1
  10              		.eabi_attribute 30, 2
  11              		.eabi_attribute 34, 1
  12              		.eabi_attribute 18, 4
  13              		.thumb
  14              		.file	"api_lib.c"
  15              		.text
  16              	.Ltext0:
  17              		.cfi_sections	.debug_frame
  18              		.section	.text.netconn_recv_data,"ax",%progbits
  19              		.align	2
  20              		.p2align 4,,15
  21              		.thumb
  22              		.thumb_func
  23              		.type	netconn_recv_data, %function
  24              	netconn_recv_data:
  25              	.LFB15:
  26              		.file 1 "../../ext/lwip/src/api/api_lib.c"
  27              		.loc 1 343 0
  28              		.cfi_startproc
  29              		@ args = 0, pretend = 0, frame = 32
  30              		@ frame_needed = 0, uses_anonymous_args = 0
  31              	.LVL0:
  32 0000 F0B5     		push	{r4, r5, r6, r7, lr}
  33              		.cfi_def_cfa_offset 20
  34              		.cfi_offset 4, -20
  35              		.cfi_offset 5, -16
  36              		.cfi_offset 6, -12
  37              		.cfi_offset 7, -8
  38              		.cfi_offset 14, -4
  39 0002 89B0     		sub	sp, sp, #36
  40              		.cfi_def_cfa_offset 56
  41              		.loc 1 344 0
  42 0004 0025     		movs	r5, #0
  43              		.loc 1 351 0
  44 0006 0E46     		mov	r6, r1
  45              		.loc 1 343 0
  46 0008 0446     		mov	r4, r0
  47              		.loc 1 344 0
  48 000a 0195     		str	r5, [sp, #4]
  49              		.loc 1 351 0
  50 000c 0029     		cmp	r1, #0
  51 000e 5ED0     		beq	.L4
  52              		.loc 1 352 0
  53 0010 0D60     		str	r5, [r1]
  54              		.loc 1 353 0
  55 0012 0028     		cmp	r0, #0
  56 0014 5BD0     		beq	.L4
  57              		.loc 1 354 0
ARM GAS  /tmp/ccR9nAE3.s 			page 2


  58 0016 00F11007 		add	r7, r0, #16
  59 001a 3846     		mov	r0, r7
  60              	.LVL1:
  61 001c FFF7FEFF 		bl	sys_mbox_valid
  62              	.LVL2:
  63 0020 0028     		cmp	r0, #0
  64 0022 50D0     		beq	.L31
  65              		.loc 1 356 0
  66 0024 237A     		ldrb	r3, [r4, #8]	@ zero_extendqisi2
  67              	.LVL3:
  68              		.loc 1 357 0
  69 0026 5AB2     		sxtb	r2, r3
  70 0028 0932     		adds	r2, r2, #9
  71 002a 02DA     		bge	.L32
  72              	.LVL4:
  73              	.L3:
  74 002c 58B2     		sxtb	r0, r3
  75              		.loc 1 425 0
  76 002e 09B0     		add	sp, sp, #36
  77              		@ sp needed
  78 0030 F0BD     		pop	{r4, r5, r6, r7, pc}
  79              	.LVL5:
  80              	.L32:
  81              		.loc 1 371 0
  82 0032 3846     		mov	r0, r7
  83 0034 2A46     		mov	r2, r5
  84 0036 01A9     		add	r1, sp, #4
  85 0038 FFF7FEFF 		bl	sys_arch_mbox_fetch
  86              	.LVL6:
  87              		.loc 1 376 0
  88 003c 2378     		ldrb	r3, [r4]	@ zero_extendqisi2
  89 003e 102B     		cmp	r3, #16
  90 0040 0FD0     		beq	.L33
  91              		.loc 1 409 0
  92 0042 019B     		ldr	r3, [sp, #4]
  93 0044 002B     		cmp	r3, #0
  94 0046 3AD0     		beq	.L34
  95              	.L15:
  96              		.loc 1 410 0
  97 0048 1A68     		ldr	r2, [r3]
  98 004a 1289     		ldrh	r2, [r2, #8]
  99              	.LVL7:
 100              	.L14:
 101              		.loc 1 418 0
 102 004c A56A     		ldr	r5, [r4, #40]
 103 004e 1DB1     		cbz	r5, .L16
 104              		.loc 1 418 0 is_stmt 0 discriminator 1
 105 0050 2046     		mov	r0, r4
 106 0052 0121     		movs	r1, #1
 107 0054 A847     		blx	r5
 108              	.LVL8:
 109 0056 019B     		ldr	r3, [sp, #4]
 110              	.L16:
 111              		.loc 1 422 0 is_stmt 1
 112 0058 3360     		str	r3, [r6]
 113              		.loc 1 424 0
 114 005a 0023     		movs	r3, #0
ARM GAS  /tmp/ccR9nAE3.s 			page 3


 115 005c 58B2     		sxtb	r0, r3
 116              		.loc 1 425 0
 117 005e 09B0     		add	sp, sp, #36
 118              		@ sp needed
 119 0060 F0BD     		pop	{r4, r5, r6, r7, pc}
 120              	.LVL9:
 121              	.L33:
 122              		.loc 1 379 0
 123 0062 237F     		ldrb	r3, [r4, #28]	@ zero_extendqisi2
 124 0064 1B07     		lsls	r3, r3, #28
 125 0066 10D4     		bmi	.L7
 126              		.loc 1 383 0
 127 0068 40F20003 		movw	r3, #:lower16:do_recv
 128 006c 019A     		ldr	r2, [sp, #4]
 129              		.loc 1 384 0
 130 006e 0394     		str	r4, [sp, #12]
 131              		.loc 1 383 0
 132 0070 C0F20003 		movt	r3, #:upper16:do_recv
 133 0074 0293     		str	r3, [sp, #8]
 134              		.loc 1 385 0
 135 0076 8AB1     		cbz	r2, .L9
 136              		.loc 1 386 0
 137 0078 1389     		ldrh	r3, [r2, #8]
 138 007a 0593     		str	r3, [sp, #20]
 139              	.L12:
 140              		.loc 1 391 0
 141 007c 02A8     		add	r0, sp, #8
 142 007e FFF7FEFF 		bl	tcpip_apimsg
 143              	.LVL10:
 144              		.loc 1 395 0
 145 0082 019B     		ldr	r3, [sp, #4]
 146 0084 6BB1     		cbz	r3, .L35
 147              	.L11:
 148              		.loc 1 401 0
 149 0086 1A89     		ldrh	r2, [r3, #8]
 150              	.LVL11:
 151 0088 E0E7     		b	.L14
 152              	.LVL12:
 153              	.L7:
 154              		.loc 1 379 0 discriminator 1
 155 008a 019B     		ldr	r3, [sp, #4]
 156 008c 002B     		cmp	r3, #0
 157 008e FAD1     		bne	.L11
 158              		.loc 1 383 0
 159 0090 40F20003 		movw	r3, #:lower16:do_recv
 160 0094 C0F20003 		movt	r3, #:upper16:do_recv
 161              		.loc 1 384 0
 162 0098 0394     		str	r4, [sp, #12]
 163              		.loc 1 383 0
 164 009a 0293     		str	r3, [sp, #8]
 165              	.L9:
 166              		.loc 1 388 0
 167 009c 0123     		movs	r3, #1
 168 009e 0593     		str	r3, [sp, #20]
 169 00a0 ECE7     		b	.L12
 170              	.L35:
 171              		.loc 1 396 0
ARM GAS  /tmp/ccR9nAE3.s 			page 4


 172 00a2 A56A     		ldr	r5, [r4, #40]
 173 00a4 1DB1     		cbz	r5, .L13
 174              		.loc 1 396 0 is_stmt 0 discriminator 1
 175 00a6 1A46     		mov	r2, r3
 176 00a8 2046     		mov	r0, r4
 177 00aa 0121     		movs	r1, #1
 178 00ac A847     		blx	r5
 179              	.LVL13:
 180              	.L13:
 181              		.loc 1 398 0 is_stmt 1
 182 00ae 94F90830 		ldrsb	r3, [r4, #8]
 183 00b2 0933     		adds	r3, r3, #9
 184 00b4 4FF0F403 		mov	r3, #244
 185 00b8 A8BF     		it	ge
 186 00ba 2372     		strbge	r3, [r4, #8]
 187 00bc B6E7     		b	.L3
 188              	.L34:
 189              		.loc 1 409 0 discriminator 1
 190 00be FFF7FEFF 		bl	port_halt
 191              	.LVL14:
 192 00c2 019B     		ldr	r3, [sp, #4]
 193 00c4 C0E7     		b	.L15
 194              	.L31:
 195              		.loc 1 354 0 discriminator 1
 196 00c6 FFF7FEFF 		bl	port_halt
 197              	.LVL15:
 198 00ca F323     		movs	r3, #243
 199 00cc AEE7     		b	.L3
 200              	.LVL16:
 201              	.L4:
 202              		.loc 1 351 0 discriminator 1
 203 00ce FFF7FEFF 		bl	port_halt
 204              	.LVL17:
 205 00d2 F223     		movs	r3, #242
 206 00d4 AAE7     		b	.L3
 207              		.cfi_endproc
 208              	.LFE15:
 209              		.size	netconn_recv_data, .-netconn_recv_data
 210 00d6 00BFAFF3 		.section	.text.netconn_new_with_proto_and_callback,"ax",%progbits
 210      0080AFF3 
 210      0080
 211              		.align	2
 212              		.p2align 4,,15
 213              		.global	netconn_new_with_proto_and_callback
 214              		.thumb
 215              		.thumb_func
 216              		.type	netconn_new_with_proto_and_callback, %function
 217              	netconn_new_with_proto_and_callback:
 218              	.LFB7:
 219              		.loc 1 69 0
 220              		.cfi_startproc
 221              		@ args = 0, pretend = 0, frame = 24
 222              		@ frame_needed = 0, uses_anonymous_args = 0
 223              	.LVL18:
 224 0000 70B5     		push	{r4, r5, r6, lr}
 225              		.cfi_def_cfa_offset 16
 226              		.cfi_offset 4, -16
ARM GAS  /tmp/ccR9nAE3.s 			page 5


 227              		.cfi_offset 5, -12
 228              		.cfi_offset 6, -8
 229              		.cfi_offset 14, -4
 230 0002 0D46     		mov	r5, r1
 231 0004 86B0     		sub	sp, sp, #24
 232              		.cfi_def_cfa_offset 40
 233              		.loc 1 73 0
 234 0006 1146     		mov	r1, r2
 235              	.LVL19:
 236 0008 FFF7FEFF 		bl	netconn_alloc
 237              	.LVL20:
 238              		.loc 1 74 0
 239 000c 0446     		mov	r4, r0
 240 000e 98B3     		cbz	r0, .L50
 241              		.loc 1 75 0
 242 0010 40F20003 		movw	r3, #:lower16:do_newconn
 243 0014 C0F20003 		movt	r3, #:upper16:do_newconn
 244              		.loc 1 78 0
 245 0018 6846     		mov	r0, sp
 246              	.LVL21:
 247              		.loc 1 76 0
 248 001a 8DF80C50 		strb	r5, [sp, #12]
 249              		.loc 1 75 0
 250 001e 8DE81800 		stmia	sp, {r3, r4}
 251              		.loc 1 78 0
 252 0022 FFF7FEFF 		bl	tcpip_apimsg
 253              	.LVL22:
 254 0026 10B9     		cbnz	r0, .L51
 255 0028 2046     		mov	r0, r4
 256              		.loc 1 92 0
 257 002a 06B0     		add	sp, sp, #24
 258              		@ sp needed
 259 002c 70BD     		pop	{r4, r5, r6, pc}
 260              	.LVL23:
 261              	.L51:
 262              		.loc 1 79 0
 263 002e 6368     		ldr	r3, [r4, #4]
 264 0030 0BB1     		cbz	r3, .L38
 265              		.loc 1 79 0 is_stmt 0 discriminator 1
 266 0032 FFF7FEFF 		bl	port_halt
 267              	.LVL24:
 268              	.L38:
 269              		.loc 1 80 0 is_stmt 1
 270 0036 04F10C06 		add	r6, r4, #12
 271 003a 3046     		mov	r0, r6
 272 003c FFF7FEFF 		bl	sys_sem_valid
 273              	.LVL25:
 274 0040 08B9     		cbnz	r0, .L39
 275              		.loc 1 80 0 is_stmt 0 discriminator 1
 276 0042 FFF7FEFF 		bl	port_halt
 277              	.LVL26:
 278              	.L39:
 279              		.loc 1 81 0 is_stmt 1
 280 0046 04F11005 		add	r5, r4, #16
 281 004a 2846     		mov	r0, r5
 282 004c FFF7FEFF 		bl	sys_mbox_valid
 283              	.LVL27:
ARM GAS  /tmp/ccR9nAE3.s 			page 6


 284 0050 08B9     		cbnz	r0, .L40
 285              		.loc 1 81 0 is_stmt 0 discriminator 1
 286 0052 FFF7FEFF 		bl	port_halt
 287              	.LVL28:
 288              	.L40:
 289              		.loc 1 83 0 is_stmt 1
 290 0056 04F11400 		add	r0, r4, #20
 291 005a FFF7FEFF 		bl	sys_mbox_valid
 292              	.LVL29:
 293 005e 08B1     		cbz	r0, .L41
 294              		.loc 1 83 0 is_stmt 0 discriminator 1
 295 0060 FFF7FEFF 		bl	port_halt
 296              	.LVL30:
 297              	.L41:
 298              		.loc 1 85 0 is_stmt 1
 299 0064 3046     		mov	r0, r6
 300 0066 FFF7FEFF 		bl	sys_sem_free
 301              	.LVL31:
 302              		.loc 1 86 0
 303 006a 2846     		mov	r0, r5
 304 006c FFF7FEFF 		bl	sys_mbox_free
 305              	.LVL32:
 306              		.loc 1 87 0
 307 0070 2146     		mov	r1, r4
 308 0072 0820     		movs	r0, #8
 309 0074 FFF7FEFF 		bl	memp_free
 310              	.LVL33:
 311              	.L50:
 312              		.loc 1 88 0
 313 0078 0020     		movs	r0, #0
 314              		.loc 1 92 0
 315 007a 06B0     		add	sp, sp, #24
 316              		@ sp needed
 317 007c 70BD     		pop	{r4, r5, r6, pc}
 318              		.cfi_endproc
 319              	.LFE7:
 320              		.size	netconn_new_with_proto_and_callback, .-netconn_new_with_proto_and_callback
 321 007e 00BF     		.section	.text.netconn_delete,"ax",%progbits
 322              		.align	2
 323              		.p2align 4,,15
 324              		.global	netconn_delete
 325              		.thumb
 326              		.thumb_func
 327              		.type	netconn_delete, %function
 328              	netconn_delete:
 329              	.LFB8:
 330              		.loc 1 104 0
 331              		.cfi_startproc
 332              		@ args = 0, pretend = 0, frame = 24
 333              		@ frame_needed = 0, uses_anonymous_args = 0
 334              	.LVL34:
 335 0000 10B5     		push	{r4, lr}
 336              		.cfi_def_cfa_offset 8
 337              		.cfi_offset 4, -8
 338              		.cfi_offset 14, -4
 339              		.loc 1 108 0
 340 0002 0446     		mov	r4, r0
ARM GAS  /tmp/ccR9nAE3.s 			page 7


 341              		.loc 1 104 0
 342 0004 86B0     		sub	sp, sp, #24
 343              		.cfi_def_cfa_offset 32
 344              		.loc 1 108 0
 345 0006 58B1     		cbz	r0, .L53
 346              		.loc 1 112 0
 347 0008 40F20003 		movw	r3, #:lower16:do_delconn
 348 000c C0F20003 		movt	r3, #:upper16:do_delconn
 349              		.loc 1 114 0
 350 0010 6846     		mov	r0, sp
 351              	.LVL35:
 352              		.loc 1 112 0
 353 0012 8DE81800 		stmia	sp, {r3, r4}
 354              		.loc 1 114 0
 355 0016 FFF7FEFF 		bl	tcpip_apimsg
 356              	.LVL36:
 357              		.loc 1 116 0
 358 001a 2046     		mov	r0, r4
 359 001c FFF7FEFF 		bl	netconn_free
 360              	.LVL37:
 361              	.L53:
 362              		.loc 1 121 0
 363 0020 0020     		movs	r0, #0
 364 0022 06B0     		add	sp, sp, #24
 365              		@ sp needed
 366 0024 10BD     		pop	{r4, pc}
 367              		.cfi_endproc
 368              	.LFE8:
 369              		.size	netconn_delete, .-netconn_delete
 370 0026 00BFAFF3 		.section	.text.netconn_getaddr,"ax",%progbits
 370      0080AFF3 
 370      0080
 371              		.align	2
 372              		.p2align 4,,15
 373              		.global	netconn_getaddr
 374              		.thumb
 375              		.thumb_func
 376              		.type	netconn_getaddr, %function
 377              	netconn_getaddr:
 378              	.LFB9:
 379              		.loc 1 136 0
 380              		.cfi_startproc
 381              		@ args = 0, pretend = 0, frame = 24
 382              		@ frame_needed = 0, uses_anonymous_args = 0
 383              	.LVL38:
 384 0000 30B5     		push	{r4, r5, lr}
 385              		.cfi_def_cfa_offset 12
 386              		.cfi_offset 4, -12
 387              		.cfi_offset 5, -8
 388              		.cfi_offset 14, -4
 389              		.loc 1 140 0
 390 0002 0446     		mov	r4, r0
 391              		.loc 1 136 0
 392 0004 87B0     		sub	sp, sp, #28
 393              		.cfi_def_cfa_offset 40
 394              		.loc 1 140 0
 395 0006 B0B1     		cbz	r0, .L60
ARM GAS  /tmp/ccR9nAE3.s 			page 8


 396              		.loc 1 141 0
 397 0008 A9B1     		cbz	r1, .L60
 398              		.loc 1 142 0
 399 000a A2B1     		cbz	r2, .L60
 400              		.loc 1 144 0
 401 000c 40F20005 		movw	r5, #:lower16:do_getaddr
 402 0010 C0F20005 		movt	r5, #:upper16:do_getaddr
 403              		.loc 1 149 0
 404 0014 6846     		mov	r0, sp
 405              	.LVL39:
 406              		.loc 1 148 0
 407 0016 8DF81430 		strb	r3, [sp, #20]
 408              		.loc 1 145 0
 409 001a 0194     		str	r4, [sp, #4]
 410              		.loc 1 146 0
 411 001c 0391     		str	r1, [sp, #12]
 412              		.loc 1 147 0
 413 001e 0492     		str	r2, [sp, #16]
 414              		.loc 1 144 0
 415 0020 0095     		str	r5, [sp]
 416              		.loc 1 149 0
 417 0022 FFF7FEFF 		bl	tcpip_apimsg
 418              	.LVL40:
 419              		.loc 1 151 0
 420 0026 94F90830 		ldrsb	r3, [r4, #8]
 421 002a 0933     		adds	r3, r3, #9
 422 002c A8BF     		it	ge
 423 002e 2072     		strbge	r0, [r4, #8]
 424              	.LVL41:
 425              	.L59:
 426              		.loc 1 153 0
 427 0030 40B2     		sxtb	r0, r0
 428 0032 07B0     		add	sp, sp, #28
 429              		@ sp needed
 430 0034 30BD     		pop	{r4, r5, pc}
 431              	.LVL42:
 432              	.L60:
 433              		.loc 1 140 0 discriminator 1
 434 0036 FFF7FEFF 		bl	port_halt
 435              	.LVL43:
 436 003a F220     		movs	r0, #242
 437 003c F8E7     		b	.L59
 438              		.cfi_endproc
 439              	.LFE9:
 440              		.size	netconn_getaddr, .-netconn_getaddr
 441 003e 00BF     		.section	.text.netconn_bind,"ax",%progbits
 442              		.align	2
 443              		.p2align 4,,15
 444              		.global	netconn_bind
 445              		.thumb
 446              		.thumb_func
 447              		.type	netconn_bind, %function
 448              	netconn_bind:
 449              	.LFB10:
 450              		.loc 1 167 0
 451              		.cfi_startproc
 452              		@ args = 0, pretend = 0, frame = 24
ARM GAS  /tmp/ccR9nAE3.s 			page 9


 453              		@ frame_needed = 0, uses_anonymous_args = 0
 454              	.LVL44:
 455 0000 10B5     		push	{r4, lr}
 456              		.cfi_def_cfa_offset 8
 457              		.cfi_offset 4, -8
 458              		.cfi_offset 14, -4
 459              		.loc 1 171 0
 460 0002 0446     		mov	r4, r0
 461              		.loc 1 167 0
 462 0004 86B0     		sub	sp, sp, #24
 463              		.cfi_def_cfa_offset 32
 464              		.loc 1 171 0
 465 0006 98B1     		cbz	r0, .L72
 466              		.loc 1 173 0
 467 0008 40F20003 		movw	r3, #:lower16:do_bind
 468 000c C0F20003 		movt	r3, #:upper16:do_bind
 469              		.loc 1 177 0
 470 0010 6846     		mov	r0, sp
 471              	.LVL45:
 472              		.loc 1 173 0
 473 0012 0093     		str	r3, [sp]
 474              		.loc 1 174 0
 475 0014 0194     		str	r4, [sp, #4]
 476              		.loc 1 175 0
 477 0016 0391     		str	r1, [sp, #12]
 478              		.loc 1 176 0
 479 0018 ADF81020 		strh	r2, [sp, #16]	@ movhi
 480              		.loc 1 177 0
 481 001c FFF7FEFF 		bl	tcpip_apimsg
 482              	.LVL46:
 483              		.loc 1 179 0
 484 0020 94F90830 		ldrsb	r3, [r4, #8]
 485 0024 0933     		adds	r3, r3, #9
 486 0026 A8BF     		it	ge
 487 0028 2072     		strbge	r0, [r4, #8]
 488              	.LVL47:
 489              	.L70:
 490              		.loc 1 181 0
 491 002a 40B2     		sxtb	r0, r0
 492 002c 06B0     		add	sp, sp, #24
 493              		@ sp needed
 494 002e 10BD     		pop	{r4, pc}
 495              	.LVL48:
 496              	.L72:
 497              		.loc 1 171 0 discriminator 1
 498 0030 FFF7FEFF 		bl	port_halt
 499              	.LVL49:
 500 0034 F220     		movs	r0, #242
 501 0036 F8E7     		b	.L70
 502              		.cfi_endproc
 503              	.LFE10:
 504              		.size	netconn_bind, .-netconn_bind
 505 0038 AFF30080 		.section	.text.netconn_connect,"ax",%progbits
 505      AFF30080 
 506              		.align	2
 507              		.p2align 4,,15
 508              		.global	netconn_connect
ARM GAS  /tmp/ccR9nAE3.s 			page 10


 509              		.thumb
 510              		.thumb_func
 511              		.type	netconn_connect, %function
 512              	netconn_connect:
 513              	.LFB11:
 514              		.loc 1 193 0
 515              		.cfi_startproc
 516              		@ args = 0, pretend = 0, frame = 24
 517              		@ frame_needed = 0, uses_anonymous_args = 0
 518              	.LVL50:
 519 0000 10B5     		push	{r4, lr}
 520              		.cfi_def_cfa_offset 8
 521              		.cfi_offset 4, -8
 522              		.cfi_offset 14, -4
 523              		.loc 1 197 0
 524 0002 0446     		mov	r4, r0
 525              		.loc 1 193 0
 526 0004 86B0     		sub	sp, sp, #24
 527              		.cfi_def_cfa_offset 32
 528              		.loc 1 197 0
 529 0006 98B1     		cbz	r0, .L77
 530              		.loc 1 199 0
 531 0008 40F20003 		movw	r3, #:lower16:do_connect
 532 000c C0F20003 		movt	r3, #:upper16:do_connect
 533              		.loc 1 204 0
 534 0010 6846     		mov	r0, sp
 535              	.LVL51:
 536              		.loc 1 199 0
 537 0012 0093     		str	r3, [sp]
 538              		.loc 1 200 0
 539 0014 0194     		str	r4, [sp, #4]
 540              		.loc 1 201 0
 541 0016 0391     		str	r1, [sp, #12]
 542              		.loc 1 202 0
 543 0018 ADF81020 		strh	r2, [sp, #16]	@ movhi
 544              		.loc 1 204 0
 545 001c FFF7FEFF 		bl	tcpip_apimsg
 546              	.LVL52:
 547              		.loc 1 206 0
 548 0020 94F90830 		ldrsb	r3, [r4, #8]
 549 0024 0933     		adds	r3, r3, #9
 550 0026 A8BF     		it	ge
 551 0028 2072     		strbge	r0, [r4, #8]
 552              	.LVL53:
 553              	.L75:
 554              		.loc 1 208 0
 555 002a 40B2     		sxtb	r0, r0
 556 002c 06B0     		add	sp, sp, #24
 557              		@ sp needed
 558 002e 10BD     		pop	{r4, pc}
 559              	.LVL54:
 560              	.L77:
 561              		.loc 1 197 0 discriminator 1
 562 0030 FFF7FEFF 		bl	port_halt
 563              	.LVL55:
 564 0034 F220     		movs	r0, #242
 565 0036 F8E7     		b	.L75
ARM GAS  /tmp/ccR9nAE3.s 			page 11


 566              		.cfi_endproc
 567              	.LFE11:
 568              		.size	netconn_connect, .-netconn_connect
 569 0038 AFF30080 		.section	.text.netconn_disconnect,"ax",%progbits
 569      AFF30080 
 570              		.align	2
 571              		.p2align 4,,15
 572              		.global	netconn_disconnect
 573              		.thumb
 574              		.thumb_func
 575              		.type	netconn_disconnect, %function
 576              	netconn_disconnect:
 577              	.LFB12:
 578              		.loc 1 218 0
 579              		.cfi_startproc
 580              		@ args = 0, pretend = 0, frame = 24
 581              		@ frame_needed = 0, uses_anonymous_args = 0
 582              	.LVL56:
 583 0000 10B5     		push	{r4, lr}
 584              		.cfi_def_cfa_offset 8
 585              		.cfi_offset 4, -8
 586              		.cfi_offset 14, -4
 587              		.loc 1 222 0
 588 0002 0446     		mov	r4, r0
 589              		.loc 1 218 0
 590 0004 86B0     		sub	sp, sp, #24
 591              		.cfi_def_cfa_offset 32
 592              		.loc 1 222 0
 593 0006 80B1     		cbz	r0, .L82
 594              		.loc 1 224 0
 595 0008 40F20003 		movw	r3, #:lower16:do_disconnect
 596 000c C0F20003 		movt	r3, #:upper16:do_disconnect
 597              		.loc 1 226 0
 598 0010 6846     		mov	r0, sp
 599              	.LVL57:
 600              		.loc 1 224 0
 601 0012 8DE81800 		stmia	sp, {r3, r4}
 602              		.loc 1 226 0
 603 0016 FFF7FEFF 		bl	tcpip_apimsg
 604              	.LVL58:
 605              		.loc 1 228 0
 606 001a 94F90830 		ldrsb	r3, [r4, #8]
 607 001e 0933     		adds	r3, r3, #9
 608 0020 A8BF     		it	ge
 609 0022 2072     		strbge	r0, [r4, #8]
 610              	.LVL59:
 611              	.L80:
 612              		.loc 1 230 0
 613 0024 40B2     		sxtb	r0, r0
 614 0026 06B0     		add	sp, sp, #24
 615              		@ sp needed
 616 0028 10BD     		pop	{r4, pc}
 617              	.LVL60:
 618              	.L82:
 619              		.loc 1 222 0 discriminator 1
 620 002a FFF7FEFF 		bl	port_halt
 621              	.LVL61:
ARM GAS  /tmp/ccR9nAE3.s 			page 12


 622 002e F220     		movs	r0, #242
 623 0030 F8E7     		b	.L80
 624              		.cfi_endproc
 625              	.LFE12:
 626              		.size	netconn_disconnect, .-netconn_disconnect
 627 0032 00BFAFF3 		.section	.text.netconn_listen_with_backlog,"ax",%progbits
 627      0080AFF3 
 627      0080AFF3 
 627      0080
 628              		.align	2
 629              		.p2align 4,,15
 630              		.global	netconn_listen_with_backlog
 631              		.thumb
 632              		.thumb_func
 633              		.type	netconn_listen_with_backlog, %function
 634              	netconn_listen_with_backlog:
 635              	.LFB13:
 636              		.loc 1 242 0
 637              		.cfi_startproc
 638              		@ args = 0, pretend = 0, frame = 24
 639              		@ frame_needed = 0, uses_anonymous_args = 0
 640              	.LVL62:
 641 0000 10B5     		push	{r4, lr}
 642              		.cfi_def_cfa_offset 8
 643              		.cfi_offset 4, -8
 644              		.cfi_offset 14, -4
 645              		.loc 1 250 0
 646 0002 0446     		mov	r4, r0
 647              		.loc 1 242 0
 648 0004 86B0     		sub	sp, sp, #24
 649              		.cfi_def_cfa_offset 32
 650              		.loc 1 250 0
 651 0006 80B1     		cbz	r0, .L87
 652              		.loc 1 252 0
 653 0008 40F20003 		movw	r3, #:lower16:do_listen
 654 000c C0F20003 		movt	r3, #:upper16:do_listen
 655              		.loc 1 257 0
 656 0010 6846     		mov	r0, sp
 657              	.LVL63:
 658              		.loc 1 252 0
 659 0012 8DE81800 		stmia	sp, {r3, r4}
 660              		.loc 1 257 0
 661 0016 FFF7FEFF 		bl	tcpip_apimsg
 662              	.LVL64:
 663              		.loc 1 259 0
 664 001a 94F90830 		ldrsb	r3, [r4, #8]
 665 001e 0933     		adds	r3, r3, #9
 666 0020 A8BF     		it	ge
 667 0022 2072     		strbge	r0, [r4, #8]
 668              	.LVL65:
 669              	.L85:
 670              		.loc 1 266 0
 671 0024 40B2     		sxtb	r0, r0
 672 0026 06B0     		add	sp, sp, #24
 673              		@ sp needed
 674 0028 10BD     		pop	{r4, pc}
 675              	.LVL66:
ARM GAS  /tmp/ccR9nAE3.s 			page 13


 676              	.L87:
 677              		.loc 1 250 0 discriminator 1
 678 002a FFF7FEFF 		bl	port_halt
 679              	.LVL67:
 680 002e F220     		movs	r0, #242
 681 0030 F8E7     		b	.L85
 682              		.cfi_endproc
 683              	.LFE13:
 684              		.size	netconn_listen_with_backlog, .-netconn_listen_with_backlog
 685 0032 00BFAFF3 		.section	.text.netconn_accept,"ax",%progbits
 685      0080AFF3 
 685      0080AFF3 
 685      0080
 686              		.align	2
 687              		.p2align 4,,15
 688              		.global	netconn_accept
 689              		.thumb
 690              		.thumb_func
 691              		.type	netconn_accept, %function
 692              	netconn_accept:
 693              	.LFB14:
 694              		.loc 1 278 0
 695              		.cfi_startproc
 696              		@ args = 0, pretend = 0, frame = 8
 697              		@ frame_needed = 0, uses_anonymous_args = 0
 698              	.LVL68:
 699 0000 F0B5     		push	{r4, r5, r6, r7, lr}
 700              		.cfi_def_cfa_offset 20
 701              		.cfi_offset 4, -20
 702              		.cfi_offset 5, -16
 703              		.cfi_offset 6, -12
 704              		.cfi_offset 7, -8
 705              		.cfi_offset 14, -4
 706              		.loc 1 286 0
 707 0002 0D46     		mov	r5, r1
 708              		.loc 1 278 0
 709 0004 83B0     		sub	sp, sp, #12
 710              		.cfi_def_cfa_offset 32
 711              		.loc 1 278 0
 712 0006 0446     		mov	r4, r0
 713              		.loc 1 286 0
 714 0008 0029     		cmp	r1, #0
 715 000a 2ED0     		beq	.L91
 716              		.loc 1 287 0
 717 000c 0026     		movs	r6, #0
 718 000e 0E60     		str	r6, [r1]
 719              		.loc 1 288 0
 720 0010 0028     		cmp	r0, #0
 721 0012 2AD0     		beq	.L91
 722              		.loc 1 289 0
 723 0014 00F11407 		add	r7, r0, #20
 724 0018 3846     		mov	r0, r7
 725              	.LVL69:
 726 001a FFF7FEFF 		bl	sys_mbox_valid
 727              	.LVL70:
 728 001e 20B3     		cbz	r0, .L91
 729              		.loc 1 291 0
ARM GAS  /tmp/ccR9nAE3.s 			page 14


 730 0020 237A     		ldrb	r3, [r4, #8]	@ zero_extendqisi2
 731              	.LVL71:
 732              		.loc 1 292 0
 733 0022 5AB2     		sxtb	r2, r3
 734 0024 0932     		adds	r2, r2, #9
 735 0026 B8BF     		it	lt
 736 0028 1846     		movlt	r0, r3
 737 002a 02DA     		bge	.L105
 738              	.LVL72:
 739              	.L90:
 740              		.loc 1 330 0
 741 002c 40B2     		sxtb	r0, r0
 742 002e 03B0     		add	sp, sp, #12
 743              		@ sp needed
 744 0030 F0BD     		pop	{r4, r5, r6, r7, pc}
 745              	.LVL73:
 746              	.L105:
 747              		.loc 1 304 0
 748 0032 3846     		mov	r0, r7
 749 0034 01A9     		add	r1, sp, #4
 750 0036 3246     		mov	r2, r6
 751 0038 FFF7FEFF 		bl	sys_arch_mbox_fetch
 752              	.LVL74:
 753              		.loc 1 307 0
 754 003c A36A     		ldr	r3, [r4, #40]
 755 003e 1BB1     		cbz	r3, .L92
 756              		.loc 1 307 0 is_stmt 0 discriminator 1
 757 0040 3246     		mov	r2, r6
 758 0042 2046     		mov	r0, r4
 759 0044 0121     		movs	r1, #1
 760 0046 9847     		blx	r3
 761              	.LVL75:
 762              	.L92:
 763              		.loc 1 309 0 is_stmt 1
 764 0048 019B     		ldr	r3, [sp, #4]
 765 004a 23B1     		cbz	r3, .L106
 766              		.loc 1 324 0
 767 004c 0020     		movs	r0, #0
 768              		.loc 1 330 0
 769 004e 40B2     		sxtb	r0, r0
 770              		.loc 1 322 0
 771 0050 2B60     		str	r3, [r5]
 772              		.loc 1 330 0
 773 0052 03B0     		add	sp, sp, #12
 774              		@ sp needed
 775 0054 F0BD     		pop	{r4, r5, r6, r7, pc}
 776              	.LVL76:
 777              	.L106:
 778              		.loc 1 311 0
 779 0056 94F90830 		ldrsb	r3, [r4, #8]
 780 005a 0933     		adds	r3, r3, #9
 781              		.loc 1 312 0
 782 005c B8BF     		it	lt
 783 005e F620     		movlt	r0, #246
 784              		.loc 1 311 0
 785 0060 E4DB     		blt	.L90
 786              		.loc 1 311 0 is_stmt 0 discriminator 1
ARM GAS  /tmp/ccR9nAE3.s 			page 15


 787 0062 F623     		movs	r3, #246
 788 0064 2372     		strb	r3, [r4, #8]
 789              		.loc 1 312 0 is_stmt 1 discriminator 1
 790 0066 1846     		mov	r0, r3
 791 0068 E0E7     		b	.L90
 792              	.L91:
 793              		.loc 1 286 0 discriminator 1
 794 006a FFF7FEFF 		bl	port_halt
 795              	.LVL77:
 796 006e F220     		movs	r0, #242
 797 0070 DCE7     		b	.L90
 798              		.cfi_endproc
 799              	.LFE14:
 800              		.size	netconn_accept, .-netconn_accept
 801 0072 00BFAFF3 		.section	.text.netconn_recv_tcp_pbuf,"ax",%progbits
 801      0080AFF3 
 801      0080AFF3 
 801      0080
 802              		.align	2
 803              		.p2align 4,,15
 804              		.global	netconn_recv_tcp_pbuf
 805              		.thumb
 806              		.thumb_func
 807              		.type	netconn_recv_tcp_pbuf, %function
 808              	netconn_recv_tcp_pbuf:
 809              	.LFB16:
 810              		.loc 1 438 0
 811              		.cfi_startproc
 812              		@ args = 0, pretend = 0, frame = 0
 813              		@ frame_needed = 0, uses_anonymous_args = 0
 814              	.LVL78:
 815 0000 08B5     		push	{r3, lr}
 816              		.cfi_def_cfa_offset 8
 817              		.cfi_offset 3, -8
 818              		.cfi_offset 14, -4
 819              		.loc 1 439 0
 820 0002 30B1     		cbz	r0, .L108
 821              		.loc 1 439 0 is_stmt 0 discriminator 2
 822 0004 0378     		ldrb	r3, [r0]	@ zero_extendqisi2
 823 0006 102B     		cmp	r3, #16
 824 0008 03D1     		bne	.L108
 825              		.loc 1 443 0 is_stmt 1
 826 000a BDE80840 		pop	{r3, lr}
 827              		.loc 1 442 0
 828 000e FFF7FEBF 		b	netconn_recv_data
 829              	.LVL79:
 830              	.L108:
 831              		.loc 1 439 0 discriminator 1
 832 0012 FFF7FEFF 		bl	port_halt
 833              	.LVL80:
 834              		.loc 1 443 0 discriminator 1
 835 0016 6FF00D00 		mvn	r0, #13
 836 001a 08BD     		pop	{r3, pc}
 837              		.cfi_endproc
 838              	.LFE16:
 839              		.size	netconn_recv_tcp_pbuf, .-netconn_recv_tcp_pbuf
 840 001c AFF30080 		.section	.text.netconn_recv,"ax",%progbits
ARM GAS  /tmp/ccR9nAE3.s 			page 16


 841              		.align	2
 842              		.p2align 4,,15
 843              		.global	netconn_recv
 844              		.thumb
 845              		.thumb_func
 846              		.type	netconn_recv, %function
 847              	netconn_recv:
 848              	.LFB17:
 849              		.loc 1 455 0
 850              		.cfi_startproc
 851              		@ args = 0, pretend = 0, frame = 8
 852              		@ frame_needed = 0, uses_anonymous_args = 0
 853              	.LVL81:
 854 0000 70B5     		push	{r4, r5, r6, lr}
 855              		.cfi_def_cfa_offset 16
 856              		.cfi_offset 4, -16
 857              		.cfi_offset 5, -12
 858              		.cfi_offset 6, -8
 859              		.cfi_offset 14, -4
 860              		.loc 1 461 0
 861 0002 0D46     		mov	r5, r1
 862              		.loc 1 455 0
 863 0004 82B0     		sub	sp, sp, #8
 864              		.cfi_def_cfa_offset 24
 865              		.loc 1 455 0
 866 0006 0446     		mov	r4, r0
 867              		.loc 1 461 0
 868 0008 0029     		cmp	r1, #0
 869 000a 3AD0     		beq	.L118
 870              		.loc 1 462 0
 871 000c 0026     		movs	r6, #0
 872 000e 0E60     		str	r6, [r1]
 873              		.loc 1 463 0
 874 0010 0028     		cmp	r0, #0
 875 0012 36D0     		beq	.L118
 876              		.loc 1 464 0
 877 0014 1030     		adds	r0, r0, #16
 878              	.LVL82:
 879 0016 FFF7FEFF 		bl	sys_mbox_valid
 880              	.LVL83:
 881 001a 0028     		cmp	r0, #0
 882 001c 2DD0     		beq	.L130
 883              		.loc 1 468 0
 884 001e 2378     		ldrb	r3, [r4]	@ zero_extendqisi2
 885 0020 102B     		cmp	r3, #16
 886 0022 06D0     		beq	.L131
 887              		.loc 1 501 0
 888 0024 2046     		mov	r0, r4
 889 0026 2946     		mov	r1, r5
 890 0028 FFF7FEFF 		bl	netconn_recv_data
 891              	.LVL84:
 892              	.L117:
 893              		.loc 1 504 0
 894 002c 40B2     		sxtb	r0, r0
 895 002e 02B0     		add	sp, sp, #8
 896              		@ sp needed
 897 0030 70BD     		pop	{r4, r5, r6, pc}
ARM GAS  /tmp/ccR9nAE3.s 			page 17


 898              	.LVL85:
 899              	.L131:
 900              	.LBB2:
 901              		.loc 1 474 0
 902 0032 0720     		movs	r0, #7
 903              		.loc 1 471 0
 904 0034 0196     		str	r6, [sp, #4]
 905              		.loc 1 474 0
 906 0036 FFF7FEFF 		bl	memp_malloc
 907              	.LVL86:
 908              		.loc 1 475 0
 909 003a 0646     		mov	r6, r0
 910 003c 80B1     		cbz	r0, .L132
 911              		.loc 1 480 0
 912 003e 2046     		mov	r0, r4
 913              	.LVL87:
 914 0040 01A9     		add	r1, sp, #4
 915 0042 FFF7FEFF 		bl	netconn_recv_data
 916              	.LVL88:
 917              		.loc 1 481 0
 918 0046 0446     		mov	r4, r0
 919              	.LVL89:
 920 0048 88B9     		cbnz	r0, .L133
 921              		.loc 1 485 0
 922 004a 019B     		ldr	r3, [sp, #4]
 923 004c EBB1     		cbz	r3, .L134
 924              	.LVL90:
 925              	.L124:
 926              		.loc 1 489 0
 927 004e 0020     		movs	r0, #0
 928 0050 B081     		strh	r0, [r6, #12]	@ movhi
 929              		.loc 1 490 0
 930 0052 B060     		str	r0, [r6, #8]
 931              	.LBE2:
 932              		.loc 1 504 0
 933 0054 40B2     		sxtb	r0, r0
 934              	.LBB3:
 935              		.loc 1 487 0
 936 0056 3360     		str	r3, [r6]
 937              		.loc 1 488 0
 938 0058 7360     		str	r3, [r6, #4]
 939              		.loc 1 491 0
 940 005a 2E60     		str	r6, [r5]
 941              	.LBE3:
 942              		.loc 1 504 0
 943 005c 02B0     		add	sp, sp, #8
 944              		@ sp needed
 945 005e 70BD     		pop	{r4, r5, r6, pc}
 946              	.LVL91:
 947              	.L132:
 948              	.LBB4:
 949              		.loc 1 476 0
 950 0060 94F90830 		ldrsb	r3, [r4, #8]
 951 0064 FF20     		movs	r0, #255
 952              	.LVL92:
 953 0066 0933     		adds	r3, r3, #9
 954 0068 A8BF     		it	ge
ARM GAS  /tmp/ccR9nAE3.s 			page 18


 955 006a 2072     		strbge	r0, [r4, #8]
 956 006c DEE7     		b	.L117
 957              	.LVL93:
 958              	.L133:
 959              		.loc 1 482 0
 960 006e 0720     		movs	r0, #7
 961              	.LVL94:
 962 0070 3146     		mov	r1, r6
 963 0072 FFF7FEFF 		bl	memp_free
 964              	.LVL95:
 965              		.loc 1 483 0
 966 0076 2046     		mov	r0, r4
 967 0078 D8E7     		b	.L117
 968              	.LVL96:
 969              	.L130:
 970              	.LBE4:
 971              		.loc 1 464 0 discriminator 1
 972 007a FFF7FEFF 		bl	port_halt
 973              	.LVL97:
 974 007e F320     		movs	r0, #243
 975 0080 D4E7     		b	.L117
 976              	.LVL98:
 977              	.L118:
 978              		.loc 1 461 0 discriminator 1
 979 0082 FFF7FEFF 		bl	port_halt
 980              	.LVL99:
 981 0086 F220     		movs	r0, #242
 982 0088 D0E7     		b	.L117
 983              	.LVL100:
 984              	.L134:
 985              	.LBB5:
 986              		.loc 1 485 0 discriminator 1
 987 008a FFF7FEFF 		bl	port_halt
 988              	.LVL101:
 989 008e 019B     		ldr	r3, [sp, #4]
 990 0090 DDE7     		b	.L124
 991              	.LBE5:
 992              		.cfi_endproc
 993              	.LFE17:
 994              		.size	netconn_recv, .-netconn_recv
 995 0092 00BFAFF3 		.section	.text.netconn_recved,"ax",%progbits
 995      0080AFF3 
 995      0080AFF3 
 995      0080
 996              		.align	2
 997              		.p2align 4,,15
 998              		.global	netconn_recved
 999              		.thumb
 1000              		.thumb_func
 1001              		.type	netconn_recved, %function
 1002              	netconn_recved:
 1003              	.LFB18:
 1004              		.loc 1 518 0
 1005              		.cfi_startproc
 1006              		@ args = 0, pretend = 0, frame = 24
 1007              		@ frame_needed = 0, uses_anonymous_args = 0
 1008              	.LVL102:
ARM GAS  /tmp/ccR9nAE3.s 			page 19


 1009 0000 00B5     		push	{lr}
 1010              		.cfi_def_cfa_offset 4
 1011              		.cfi_offset 14, -4
 1012              		.loc 1 520 0
 1013 0002 0346     		mov	r3, r0
 1014              		.loc 1 518 0
 1015 0004 87B0     		sub	sp, sp, #28
 1016              		.cfi_def_cfa_offset 32
 1017              		.loc 1 520 0
 1018 0006 10B1     		cbz	r0, .L135
 1019              		.loc 1 520 0 is_stmt 0 discriminator 1
 1020 0008 0278     		ldrb	r2, [r0]	@ zero_extendqisi2
 1021 000a 102A     		cmp	r2, #16
 1022 000c 02D0     		beq	.L143
 1023              	.L135:
 1024              		.loc 1 536 0 is_stmt 1
 1025 000e 07B0     		add	sp, sp, #28
 1026              		@ sp needed
 1027 0010 5DF804FB 		ldr	pc, [sp], #4
 1028              	.L143:
 1029              		.loc 1 521 0 discriminator 1
 1030 0014 027F     		ldrb	r2, [r0, #28]	@ zero_extendqisi2
 1031              		.loc 1 520 0 discriminator 1
 1032 0016 1207     		lsls	r2, r2, #28
 1033 0018 F9D5     		bpl	.L135
 1034              	.LBB6:
 1035              		.loc 1 526 0
 1036 001a 40F20002 		movw	r2, #:lower16:do_recv
 1037 001e C0F20002 		movt	r2, #:upper16:do_recv
 1038              		.loc 1 530 0
 1039 0022 6846     		mov	r0, sp
 1040              	.LVL103:
 1041              		.loc 1 527 0
 1042 0024 0193     		str	r3, [sp, #4]
 1043              		.loc 1 528 0
 1044 0026 0391     		str	r1, [sp, #12]
 1045              		.loc 1 526 0
 1046 0028 0092     		str	r2, [sp]
 1047              		.loc 1 530 0
 1048 002a FFF7FEFF 		bl	tcpip_apimsg
 1049              	.LVL104:
 1050              	.LBE6:
 1051              		.loc 1 536 0
 1052 002e 07B0     		add	sp, sp, #28
 1053              		@ sp needed
 1054 0030 5DF804FB 		ldr	pc, [sp], #4
 1055              		.cfi_endproc
 1056              	.LFE18:
 1057              		.size	netconn_recved, .-netconn_recved
 1058 0034 AFF30080 		.section	.text.netconn_send,"ax",%progbits
 1058      AFF30080 
 1058      AFF30080 
 1059              		.align	2
 1060              		.p2align 4,,15
 1061              		.global	netconn_send
 1062              		.thumb
 1063              		.thumb_func
ARM GAS  /tmp/ccR9nAE3.s 			page 20


 1064              		.type	netconn_send, %function
 1065              	netconn_send:
 1066              	.LFB20:
 1067              		.loc 1 568 0
 1068              		.cfi_startproc
 1069              		@ args = 0, pretend = 0, frame = 24
 1070              		@ frame_needed = 0, uses_anonymous_args = 0
 1071              	.LVL105:
 1072 0000 10B5     		push	{r4, lr}
 1073              		.cfi_def_cfa_offset 8
 1074              		.cfi_offset 4, -8
 1075              		.cfi_offset 14, -4
 1076              		.loc 1 572 0
 1077 0002 0446     		mov	r4, r0
 1078              		.loc 1 568 0
 1079 0004 86B0     		sub	sp, sp, #24
 1080              		.cfi_def_cfa_offset 32
 1081              		.loc 1 572 0
 1082 0006 88B1     		cbz	r0, .L148
 1083              		.loc 1 575 0
 1084 0008 40F20003 		movw	r3, #:lower16:do_send
 1085 000c C0F20003 		movt	r3, #:upper16:do_send
 1086              		.loc 1 578 0
 1087 0010 6846     		mov	r0, sp
 1088              	.LVL106:
 1089              		.loc 1 575 0
 1090 0012 0093     		str	r3, [sp]
 1091              		.loc 1 576 0
 1092 0014 0194     		str	r4, [sp, #4]
 1093              		.loc 1 577 0
 1094 0016 0391     		str	r1, [sp, #12]
 1095              		.loc 1 578 0
 1096 0018 FFF7FEFF 		bl	tcpip_apimsg
 1097              	.LVL107:
 1098              		.loc 1 580 0
 1099 001c 94F90830 		ldrsb	r3, [r4, #8]
 1100 0020 0933     		adds	r3, r3, #9
 1101 0022 A8BF     		it	ge
 1102 0024 2072     		strbge	r0, [r4, #8]
 1103              	.LVL108:
 1104              	.L146:
 1105              		.loc 1 582 0
 1106 0026 40B2     		sxtb	r0, r0
 1107 0028 06B0     		add	sp, sp, #24
 1108              		@ sp needed
 1109 002a 10BD     		pop	{r4, pc}
 1110              	.LVL109:
 1111              	.L148:
 1112              		.loc 1 572 0 discriminator 1
 1113 002c FFF7FEFF 		bl	port_halt
 1114              	.LVL110:
 1115 0030 F220     		movs	r0, #242
 1116 0032 F8E7     		b	.L146
 1117              		.cfi_endproc
 1118              	.LFE20:
 1119              		.size	netconn_send, .-netconn_send
 1120 0034 AFF30080 		.section	.text.netconn_sendto,"ax",%progbits
ARM GAS  /tmp/ccR9nAE3.s 			page 21


 1120      AFF30080 
 1120      AFF30080 
 1121              		.align	2
 1122              		.p2align 4,,15
 1123              		.global	netconn_sendto
 1124              		.thumb
 1125              		.thumb_func
 1126              		.type	netconn_sendto, %function
 1127              	netconn_sendto:
 1128              	.LFB19:
 1129              		.loc 1 550 0
 1130              		.cfi_startproc
 1131              		@ args = 0, pretend = 0, frame = 0
 1132              		@ frame_needed = 0, uses_anonymous_args = 0
 1133              		@ link register save eliminated.
 1134              	.LVL111:
 1135              		.loc 1 551 0
 1136 0000 29B1     		cbz	r1, .L150
 1137              		.loc 1 552 0
 1138 0002 02B1     		cbz	r2, .L151
 1139              		.loc 1 552 0 is_stmt 0 discriminator 1
 1140 0004 1268     		ldr	r2, [r2]
 1141              	.LVL112:
 1142              	.L151:
 1143              		.loc 1 552 0 discriminator 3
 1144 0006 8A60     		str	r2, [r1, #8]
 1145              		.loc 1 553 0 is_stmt 1 discriminator 3
 1146 0008 8B81     		strh	r3, [r1, #12]	@ movhi
 1147              		.loc 1 554 0 discriminator 3
 1148 000a FFF7FEBF 		b	netconn_send
 1149              	.LVL113:
 1150              	.L150:
 1151              		.loc 1 557 0
 1152 000e 6FF00500 		mvn	r0, #5
 1153              	.LVL114:
 1154 0012 7047     		bx	lr
 1155              		.cfi_endproc
 1156              	.LFE19:
 1157              		.size	netconn_sendto, .-netconn_sendto
 1158 0014 AFF30080 		.section	.text.netconn_write_partly,"ax",%progbits
 1158      AFF30080 
 1158      AFF30080 
 1159              		.align	2
 1160              		.p2align 4,,15
 1161              		.global	netconn_write_partly
 1162              		.thumb
 1163              		.thumb_func
 1164              		.type	netconn_write_partly, %function
 1165              	netconn_write_partly:
 1166              	.LFB21:
 1167              		.loc 1 600 0
 1168              		.cfi_startproc
 1169              		@ args = 4, pretend = 0, frame = 32
 1170              		@ frame_needed = 0, uses_anonymous_args = 0
 1171              	.LVL115:
 1172 0000 70B5     		push	{r4, r5, r6, lr}
 1173              		.cfi_def_cfa_offset 16
ARM GAS  /tmp/ccR9nAE3.s 			page 22


 1174              		.cfi_offset 4, -16
 1175              		.cfi_offset 5, -12
 1176              		.cfi_offset 6, -8
 1177              		.cfi_offset 14, -4
 1178              		.loc 1 605 0
 1179 0002 0446     		mov	r4, r0
 1180              		.loc 1 600 0
 1181 0004 88B0     		sub	sp, sp, #32
 1182              		.cfi_def_cfa_offset 48
 1183              		.loc 1 605 0
 1184 0006 0028     		cmp	r0, #0
 1185 0008 50D0     		beq	.L168
 1186              		.loc 1 606 0
 1187 000a 0078     		ldrb	r0, [r0]	@ zero_extendqisi2
 1188              	.LVL116:
 1189 000c 1028     		cmp	r0, #16
 1190 000e 49D1     		bne	.L169
 1191              		.loc 1 607 0
 1192 0010 E2B1     		cbz	r2, .L155
 1193              		.loc 1 610 0
 1194 0012 207F     		ldrb	r0, [r4, #28]	@ zero_extendqisi2
 1195 0014 8007     		lsls	r0, r0, #30
 1196 0016 1CD5     		bpl	.L170
 1197              	.L157:
 1198              	.LVL117:
 1199              		.loc 1 611 0 discriminator 4
 1200 0018 0C98     		ldr	r0, [sp, #48]
 1201 001a 0028     		cmp	r0, #0
 1202 001c 40D0     		beq	.L171
 1203              		.loc 1 618 0
 1204 001e 40F20005 		movw	r5, #:lower16:do_write
 1205 0022 C0F20005 		movt	r5, #:upper16:do_write
 1206              		.loc 1 636 0
 1207 0026 02A8     		add	r0, sp, #8
 1208              		.loc 1 619 0
 1209 0028 0394     		str	r4, [sp, #12]
 1210              		.loc 1 620 0
 1211 002a 0591     		str	r1, [sp, #20]
 1212              		.loc 1 621 0
 1213 002c 8DF81C30 		strb	r3, [sp, #28]
 1214              		.loc 1 622 0
 1215 0030 0692     		str	r2, [sp, #24]
 1216              		.loc 1 618 0
 1217 0032 0295     		str	r5, [sp, #8]
 1218              		.loc 1 636 0
 1219 0034 FFF7FEFF 		bl	tcpip_apimsg
 1220              	.LVL118:
 1221              		.loc 1 637 0
 1222 0038 0028     		cmp	r0, #0
 1223 003a 2DD0     		beq	.L162
 1224              	.LVL119:
 1225              	.L160:
 1226              		.loc 1 651 0
 1227 003c 94F90830 		ldrsb	r3, [r4, #8]
 1228 0040 0933     		adds	r3, r3, #9
 1229 0042 A4BF     		itt	ge
 1230 0044 2072     		strbge	r0, [r4, #8]
ARM GAS  /tmp/ccR9nAE3.s 			page 23


 1231 0046 0246     		movge	r2, r0
 1232 0048 00DA     		bge	.L155
 1233 004a 0246     		mov	r2, r0
 1234              	.L155:
 1235 004c 50B2     		sxtb	r0, r2
 1236              		.loc 1 653 0
 1237 004e 08B0     		add	sp, sp, #32
 1238              		@ sp needed
 1239 0050 70BD     		pop	{r4, r5, r6, pc}
 1240              	.LVL120:
 1241              	.L170:
 1242              		.loc 1 610 0 discriminator 2
 1243 0052 03F00400 		and	r0, r3, #4
 1244 0056 00F0FF06 		and	r6, r0, #255
 1245 005a 0028     		cmp	r0, #0
 1246 005c DCD1     		bne	.L157
 1247              	.LVL121:
 1248              		.loc 1 618 0
 1249 005e 40F20005 		movw	r5, #:lower16:do_write
 1250 0062 C0F20005 		movt	r5, #:upper16:do_write
 1251              		.loc 1 636 0
 1252 0066 02A8     		add	r0, sp, #8
 1253              		.loc 1 620 0
 1254 0068 0591     		str	r1, [sp, #20]
 1255              		.loc 1 621 0
 1256 006a 8DF81C30 		strb	r3, [sp, #28]
 1257              		.loc 1 622 0
 1258 006e 0692     		str	r2, [sp, #24]
 1259              		.loc 1 636 0
 1260 0070 0192     		str	r2, [sp, #4]
 1261              		.loc 1 619 0
 1262 0072 0394     		str	r4, [sp, #12]
 1263              		.loc 1 618 0
 1264 0074 0295     		str	r5, [sp, #8]
 1265              		.loc 1 636 0
 1266 0076 FFF7FEFF 		bl	tcpip_apimsg
 1267              	.LVL122:
 1268              		.loc 1 637 0
 1269 007a 0C99     		ldr	r1, [sp, #48]
 1270 007c 019A     		ldr	r2, [sp, #4]
 1271 007e D0F10103 		rsbs	r3, r0, #1
 1272 0082 38BF     		it	cc
 1273 0084 0023     		movcc	r3, #0
 1274 0086 0029     		cmp	r1, #0
 1275 0088 08BF     		it	eq
 1276 008a 0023     		moveq	r3, #0
 1277 008c 002B     		cmp	r3, #0
 1278 008e D5D0     		beq	.L160
 1279              		.loc 1 647 0
 1280 0090 0C9B     		ldr	r3, [sp, #48]
 1281 0092 3046     		mov	r0, r6
 1282              	.LVL123:
 1283 0094 1A60     		str	r2, [r3]
 1284 0096 D1E7     		b	.L160
 1285              	.LVL124:
 1286              	.L162:
 1287              		.loc 1 644 0
ARM GAS  /tmp/ccR9nAE3.s 			page 24


 1288 0098 069B     		ldr	r3, [sp, #24]
 1289 009a 0C99     		ldr	r1, [sp, #48]
 1290 009c 0B60     		str	r3, [r1]
 1291 009e CDE7     		b	.L160
 1292              	.LVL125:
 1293              	.L171:
 1294              		.loc 1 614 0
 1295 00a0 FA22     		movs	r2, #250
 1296              	.LVL126:
 1297 00a2 D3E7     		b	.L155
 1298              	.LVL127:
 1299              	.L169:
 1300              		.loc 1 606 0 discriminator 1
 1301 00a4 FFF7FEFF 		bl	port_halt
 1302              	.LVL128:
 1303 00a8 FA22     		movs	r2, #250
 1304 00aa CFE7     		b	.L155
 1305              	.LVL129:
 1306              	.L168:
 1307              		.loc 1 605 0 discriminator 1
 1308 00ac FFF7FEFF 		bl	port_halt
 1309              	.LVL130:
 1310 00b0 F222     		movs	r2, #242
 1311 00b2 CBE7     		b	.L155
 1312              		.cfi_endproc
 1313              	.LFE21:
 1314              		.size	netconn_write_partly, .-netconn_write_partly
 1315 00b4 AFF30080 		.section	.text.netconn_close,"ax",%progbits
 1315      AFF30080 
 1315      AFF30080 
 1316              		.align	2
 1317              		.p2align 4,,15
 1318              		.global	netconn_close
 1319              		.thumb
 1320              		.thumb_func
 1321              		.type	netconn_close, %function
 1322              	netconn_close:
 1323              	.LFB23:
 1324              		.loc 1 690 0
 1325              		.cfi_startproc
 1326              		@ args = 0, pretend = 0, frame = 24
 1327              		@ frame_needed = 0, uses_anonymous_args = 0
 1328              	.LVL131:
 1329 0000 10B5     		push	{r4, lr}
 1330              		.cfi_def_cfa_offset 8
 1331              		.cfi_offset 4, -8
 1332              		.cfi_offset 14, -4
 1333              	.LBB9:
 1334              	.LBB10:
 1335              		.loc 1 668 0
 1336 0002 0446     		mov	r4, r0
 1337              	.LBE10:
 1338              	.LBE9:
 1339              		.loc 1 690 0
 1340 0004 86B0     		sub	sp, sp, #24
 1341              		.cfi_def_cfa_offset 32
 1342              	.LBB13:
ARM GAS  /tmp/ccR9nAE3.s 			page 25


 1343              	.LBB11:
 1344              		.loc 1 668 0
 1345 0006 98B1     		cbz	r0, .L176
 1346              		.loc 1 670 0
 1347 0008 40F20003 		movw	r3, #:lower16:do_close
 1348 000c C0F20003 		movt	r3, #:upper16:do_close
 1349              		.loc 1 673 0
 1350 0010 0322     		movs	r2, #3
 1351              		.loc 1 676 0
 1352 0012 6846     		mov	r0, sp
 1353              	.LVL132:
 1354              		.loc 1 670 0
 1355 0014 8DE81800 		stmia	sp, {r3, r4}
 1356              		.loc 1 673 0
 1357 0018 8DF80C20 		strb	r2, [sp, #12]
 1358              		.loc 1 676 0
 1359 001c FFF7FEFF 		bl	tcpip_apimsg
 1360              	.LVL133:
 1361              		.loc 1 678 0
 1362 0020 94F90830 		ldrsb	r3, [r4, #8]
 1363 0024 0933     		adds	r3, r3, #9
 1364 0026 A8BF     		it	ge
 1365 0028 2072     		strbge	r0, [r4, #8]
 1366              	.LVL134:
 1367              	.L174:
 1368              	.LBE11:
 1369              	.LBE13:
 1370              		.loc 1 693 0
 1371 002a 40B2     		sxtb	r0, r0
 1372 002c 06B0     		add	sp, sp, #24
 1373              		@ sp needed
 1374 002e 10BD     		pop	{r4, pc}
 1375              	.LVL135:
 1376              	.L176:
 1377              	.LBB14:
 1378              	.LBB12:
 1379              		.loc 1 668 0
 1380 0030 FFF7FEFF 		bl	port_halt
 1381              	.LVL136:
 1382 0034 F220     		movs	r0, #242
 1383 0036 F8E7     		b	.L174
 1384              	.LBE12:
 1385              	.LBE14:
 1386              		.cfi_endproc
 1387              	.LFE23:
 1388              		.size	netconn_close, .-netconn_close
 1389 0038 AFF30080 		.section	.text.netconn_shutdown,"ax",%progbits
 1389      AFF30080 
 1390              		.align	2
 1391              		.p2align 4,,15
 1392              		.global	netconn_shutdown
 1393              		.thumb
 1394              		.thumb_func
 1395              		.type	netconn_shutdown, %function
 1396              	netconn_shutdown:
 1397              	.LFB24:
 1398              		.loc 1 703 0
ARM GAS  /tmp/ccR9nAE3.s 			page 26


 1399              		.cfi_startproc
 1400              		@ args = 0, pretend = 0, frame = 24
 1401              		@ frame_needed = 0, uses_anonymous_args = 0
 1402              	.LVL137:
 1403 0000 10B5     		push	{r4, lr}
 1404              		.cfi_def_cfa_offset 8
 1405              		.cfi_offset 4, -8
 1406              		.cfi_offset 14, -4
 1407              		.loc 1 704 0
 1408 0002 002A     		cmp	r2, #0
 1409 0004 14BF     		ite	ne
 1410 0006 0222     		movne	r2, #2
 1411 0008 0022     		moveq	r2, #0
 1412              	.LVL138:
 1413              		.loc 1 703 0
 1414 000a 86B0     		sub	sp, sp, #24
 1415              		.cfi_def_cfa_offset 32
 1416              	.LBB17:
 1417              	.LBB18:
 1418              		.loc 1 668 0
 1419 000c 0446     		mov	r4, r0
 1420              	.LBE18:
 1421              	.LBE17:
 1422              		.loc 1 704 0
 1423 000e 0029     		cmp	r1, #0
 1424 0010 0CBF     		ite	eq
 1425 0012 1146     		moveq	r1, r2
 1426 0014 42F00101 		orrne	r1, r2, #1
 1427              	.LVL139:
 1428              	.LBB21:
 1429              	.LBB19:
 1430              		.loc 1 668 0
 1431 0018 90B1     		cbz	r0, .L183
 1432              		.loc 1 670 0
 1433 001a 40F20003 		movw	r3, #:lower16:do_close
 1434 001e C0F20003 		movt	r3, #:upper16:do_close
 1435              		.loc 1 676 0
 1436 0022 6846     		mov	r0, sp
 1437              	.LVL140:
 1438              		.loc 1 670 0
 1439 0024 0093     		str	r3, [sp]
 1440              		.loc 1 671 0
 1441 0026 0194     		str	r4, [sp, #4]
 1442              		.loc 1 673 0
 1443 0028 8DF80C10 		strb	r1, [sp, #12]
 1444              		.loc 1 676 0
 1445 002c FFF7FEFF 		bl	tcpip_apimsg
 1446              	.LVL141:
 1447              		.loc 1 678 0
 1448 0030 94F90830 		ldrsb	r3, [r4, #8]
 1449 0034 0933     		adds	r3, r3, #9
 1450 0036 A8BF     		it	ge
 1451 0038 2072     		strbge	r0, [r4, #8]
 1452              	.LVL142:
 1453              	.L180:
 1454              	.LBE19:
 1455              	.LBE21:
ARM GAS  /tmp/ccR9nAE3.s 			page 27


 1456              		.loc 1 705 0
 1457 003a 40B2     		sxtb	r0, r0
 1458 003c 06B0     		add	sp, sp, #24
 1459              		@ sp needed
 1460 003e 10BD     		pop	{r4, pc}
 1461              	.LVL143:
 1462              	.L183:
 1463              	.LBB22:
 1464              	.LBB20:
 1465              		.loc 1 668 0
 1466 0040 FFF7FEFF 		bl	port_halt
 1467              	.LVL144:
 1468 0044 F220     		movs	r0, #242
 1469 0046 F8E7     		b	.L180
 1470              	.LBE20:
 1471              	.LBE22:
 1472              		.cfi_endproc
 1473              	.LFE24:
 1474              		.size	netconn_shutdown, .-netconn_shutdown
 1475 0048 AFF30080 		.text
 1475      AFF30080 
 1476              	.Letext0:
 1477              		.file 2 "/usr/lib/gcc/arm-none-eabi/4.8.2/include/stddef.h"
 1478              		.file 3 "/usr/include/newlib/machine/_default_types.h"
 1479              		.file 4 "/usr/include/newlib/stdint.h"
 1480              		.file 5 "../../os/ports/GCC/ARMCMx/chtypes.h"
 1481              		.file 6 "../../os/kernel/include/chlists.h"
 1482              		.file 7 "../../os/kernel/include/chthreads.h"
 1483              		.file 8 "../../os/ports/GCC/ARMCMx/chcore_v7m.h"
 1484              		.file 9 "../../os/kernel/include/chsem.h"
 1485              		.file 10 "../../os/kernel/include/chmtx.h"
 1486              		.file 11 "../../os/kernel/include/chmboxes.h"
 1487              		.file 12 "../../os/various/lwip_bindings/arch/cc.h"
 1488              		.file 13 "../../ext/lwip/src/include/lwip/err.h"
 1489              		.file 14 "../../ext/lwip/src/include/lwip/pbuf.h"
 1490              		.file 15 "../../ext/lwip/src/include/ipv4/lwip/ip_addr.h"
 1491              		.file 16 "../../ext/lwip/src/include/lwip/netbuf.h"
 1492              		.file 17 "../../os/various/lwip_bindings/arch/sys_arch.h"
 1493              		.file 18 "../../ext/lwip/src/include/lwip/api.h"
 1494              		.file 19 "../../ext/lwip/src/include/ipv4/lwip/ip.h"
 1495              		.file 20 "../../ext/lwip/src/include/lwip/tcp.h"
 1496              		.file 21 "../../ext/lwip/src/include/lwip/udp.h"
 1497              		.file 22 "../../ext/lwip/src/include/lwip/raw.h"
 1498              		.file 23 "../../ext/lwip/src/include/lwip/api_msg.h"
 1499              		.file 24 "../../ext/lwip/src/include/lwip/memp.h"
 1500              		.file 25 "../../ext/lwip/src/include/lwip/sys.h"
 1501              		.file 26 "../../ext/lwip/src/include/lwip/tcpip.h"