ARM GAS  /tmp/ccT6pRdh.s 			page 1


   1              		.syntax unified
   2              		.cpu cortex-m4
   3              		.fpu softvfp
   4              		.eabi_attribute 20, 1
   5              		.eabi_attribute 21, 1
   6              		.eabi_attribute 23, 3
   7              		.eabi_attribute 24, 1
   8              		.eabi_attribute 25, 1
   9              		.eabi_attribute 26, 1
  10              		.eabi_attribute 30, 2
  11              		.eabi_attribute 34, 1
  12              		.eabi_attribute 18, 4
  13              		.thumb
  14              		.file	"api_msg.c"
  15              		.text
  16              	.Ltext0:
  17              		.cfi_sections	.debug_frame
  18              		.section	.text.err_tcp,"ax",%progbits
  19              		.align	2
  20              		.p2align 4,,15
  21              		.thumb
  22              		.thumb_func
  23              		.type	err_tcp, %function
  24              	err_tcp:
  25              	.LFB12:
  26              		.file 1 "../../ext/lwip/src/api/api_msg.c"
  27              		.loc 1 348 0
  28              		.cfi_startproc
  29              		@ args = 0, pretend = 0, frame = 0
  30              		@ frame_needed = 0, uses_anonymous_args = 0
  31              	.LVL0:
  32 0000 F8B5     		push	{r3, r4, r5, r6, r7, lr}
  33              		.cfi_def_cfa_offset 24
  34              		.cfi_offset 3, -24
  35              		.cfi_offset 4, -20
  36              		.cfi_offset 5, -16
  37              		.cfi_offset 6, -12
  38              		.cfi_offset 7, -8
  39              		.cfi_offset 14, -4
  40              		.loc 1 354 0
  41 0002 0446     		mov	r4, r0
  42              		.loc 1 348 0
  43 0004 0F46     		mov	r7, r1
  44              		.loc 1 354 0
  45 0006 0028     		cmp	r0, #0
  46 0008 4AD0     		beq	.L35
  47              	.LVL1:
  48              	.L2:
  49              		.loc 1 369 0
  50 000a A36A     		ldr	r3, [r4, #40]
  51              		.loc 1 364 0
  52 000c 6678     		ldrb	r6, [r4, #1]	@ zero_extendqisi2
  53              	.LVL2:
  54              		.loc 1 360 0
  55 000e 2772     		strb	r7, [r4, #8]
  56              		.loc 1 356 0
  57 0010 0025     		movs	r5, #0
ARM GAS  /tmp/ccT6pRdh.s 			page 2


  58 0012 6560     		str	r5, [r4, #4]
  59              		.loc 1 365 0
  60 0014 6570     		strb	r5, [r4, #1]
  61              	.LVL3:
  62              		.loc 1 369 0
  63 0016 7BB1     		cbz	r3, .L4
  64              		.loc 1 369 0 is_stmt 0 discriminator 1
  65 0018 2046     		mov	r0, r4
  66 001a 0421     		movs	r1, #4
  67 001c 2A46     		mov	r2, r5
  68 001e 9847     		blx	r3
  69              	.LVL4:
  70              		.loc 1 372 0 is_stmt 1 discriminator 1
  71 0020 A36A     		ldr	r3, [r4, #40]
  72 0022 4BB1     		cbz	r3, .L4
  73 0024 2046     		mov	r0, r4
  74 0026 2946     		mov	r1, r5
  75 0028 2A46     		mov	r2, r5
  76 002a 9847     		blx	r3
  77              	.LVL5:
  78              		.loc 1 373 0 discriminator 1
  79 002c A36A     		ldr	r3, [r4, #40]
  80 002e 1BB1     		cbz	r3, .L4
  81 0030 2A46     		mov	r2, r5
  82 0032 2046     		mov	r0, r4
  83 0034 0221     		movs	r1, #2
  84 0036 9847     		blx	r3
  85              	.LVL6:
  86              	.L4:
  87              		.loc 1 376 0
  88 0038 04F11005 		add	r5, r4, #16
  89 003c 2846     		mov	r0, r5
  90 003e FFF7FEFF 		bl	sys_mbox_valid
  91              	.LVL7:
  92 0042 40BB     		cbnz	r0, .L36
  93              	.L5:
  94              		.loc 1 381 0
  95 0044 04F11405 		add	r5, r4, #20
  96 0048 2846     		mov	r0, r5
  97 004a FFF7FEFF 		bl	sys_mbox_valid
  98              	.LVL8:
  99 004e E8B9     		cbnz	r0, .L37
 100              	.L6:
 101              		.loc 1 386 0
 102 0050 012E     		cmp	r6, #1
 103 0052 09D0     		beq	.L7
 104              		.loc 1 386 0 is_stmt 0 discriminator 1
 105 0054 033E     		subs	r6, r6, #3
 106              	.LVL9:
 107 0056 F6B2     		uxtb	r6, r6
 108              	.LVL10:
 109 0058 012E     		cmp	r6, #1
 110 005a 05D9     		bls	.L7
 111              		.loc 1 402 0 is_stmt 1
 112 005c 636A     		ldr	r3, [r4, #36]
 113 005e A3B1     		cbz	r3, .L1
 114              		.loc 1 404 0 discriminator 1
ARM GAS  /tmp/ccT6pRdh.s 			page 3


 115 0060 BDE8F840 		pop	{r3, r4, r5, r6, r7, lr}
 116              	.LVL11:
 117              		.loc 1 402 0 discriminator 1
 118 0064 FFF7FEBF 		b	port_halt
 119              	.LVL12:
 120              	.L7:
 121              	.LBB2:
 122              		.loc 1 390 0
 123 0068 237F     		ldrb	r3, [r4, #28]	@ zero_extendqisi2
 124              	.LVL13:
 125              		.loc 1 391 0
 126 006a 23F00402 		bic	r2, r3, #4
 127              		.loc 1 393 0
 128 006e 5B07     		lsls	r3, r3, #29
 129              	.LVL14:
 130              		.loc 1 391 0
 131 0070 2277     		strb	r2, [r4, #28]
 132              	.LVL15:
 133              		.loc 1 393 0
 134 0072 0AD4     		bmi	.L1
 135              		.loc 1 395 0
 136 0074 636A     		ldr	r3, [r4, #36]
 137 0076 B3B1     		cbz	r3, .L38
 138              	.L11:
 139              		.loc 1 396 0
 140 0078 1F71     		strb	r7, [r3, #4]
 141              		.loc 1 397 0
 142 007a 0022     		movs	r2, #0
 143              		.loc 1 399 0
 144 007c 04F10C00 		add	r0, r4, #12
 145              		.loc 1 397 0
 146 0080 6262     		str	r2, [r4, #36]
 147              	.LBE2:
 148              		.loc 1 404 0
 149 0082 BDE8F840 		pop	{r3, r4, r5, r6, r7, lr}
 150              	.LVL16:
 151              	.LBB3:
 152              		.loc 1 399 0
 153 0086 FFF7FEBF 		b	sys_sem_signal
 154              	.LVL17:
 155              	.L1:
 156 008a F8BD     		pop	{r3, r4, r5, r6, r7, pc}
 157              	.LVL18:
 158              	.L37:
 159              	.LBE3:
 160              		.loc 1 383 0
 161 008c 2846     		mov	r0, r5
 162 008e 0021     		movs	r1, #0
 163 0090 FFF7FEFF 		bl	sys_mbox_trypost
 164              	.LVL19:
 165 0094 DCE7     		b	.L6
 166              	.L36:
 167              		.loc 1 378 0
 168 0096 2846     		mov	r0, r5
 169 0098 0021     		movs	r1, #0
 170 009a FFF7FEFF 		bl	sys_mbox_trypost
 171              	.LVL20:
ARM GAS  /tmp/ccT6pRdh.s 			page 4


 172 009e D1E7     		b	.L5
 173              	.LVL21:
 174              	.L35:
 175              		.loc 1 354 0 discriminator 1
 176 00a0 FFF7FEFF 		bl	port_halt
 177              	.LVL22:
 178 00a4 B1E7     		b	.L2
 179              	.L38:
 180              	.LBB4:
 181              		.loc 1 395 0 discriminator 1
 182 00a6 FFF7FEFF 		bl	port_halt
 183              	.LVL23:
 184 00aa 636A     		ldr	r3, [r4, #36]
 185 00ac E4E7     		b	.L11
 186              	.LBE4:
 187              		.cfi_endproc
 188              	.LFE12:
 189              		.size	err_tcp, .-err_tcp
 190 00ae 00BF     		.section	.text.recv_udp,"ax",%progbits
 191              		.align	2
 192              		.p2align 4,,15
 193              		.thumb
 194              		.thumb_func
 195              		.type	recv_udp, %function
 196              	recv_udp:
 197              	.LFB8:
 198              		.loc 1 146 0
 199              		.cfi_startproc
 200              		@ args = 4, pretend = 0, frame = 8
 201              		@ frame_needed = 0, uses_anonymous_args = 0
 202              	.LVL24:
 203 0000 2DE9F043 		push	{r4, r5, r6, r7, r8, r9, lr}
 204              		.cfi_def_cfa_offset 28
 205              		.cfi_offset 4, -28
 206              		.cfi_offset 5, -24
 207              		.cfi_offset 6, -20
 208              		.cfi_offset 7, -16
 209              		.cfi_offset 8, -12
 210              		.cfi_offset 9, -8
 211              		.cfi_offset 14, -4
 212 0004 83B0     		sub	sp, sp, #12
 213              		.cfi_def_cfa_offset 40
 214              		.loc 1 146 0
 215 0006 0446     		mov	r4, r0
 216 0008 1546     		mov	r5, r2
 217 000a 9846     		mov	r8, r3
 218 000c BDF82890 		ldrh	r9, [sp, #40]
 219              		.loc 1 155 0
 220 0010 0029     		cmp	r1, #0
 221 0012 32D0     		beq	.L55
 222              	.LVL25:
 223              	.L40:
 224              		.loc 1 156 0
 225 0014 002C     		cmp	r4, #0
 226 0016 3BD0     		beq	.L56
 227              	.L41:
 228              	.LVL26:
ARM GAS  /tmp/ccT6pRdh.s 			page 5


 229              		.loc 1 158 0
 230 0018 6268     		ldr	r2, [r4, #4]
 231 001a 8A42     		cmp	r2, r1
 232 001c 01D0     		beq	.L42
 233              		.loc 1 158 0 is_stmt 0 discriminator 1
 234 001e FFF7FEFF 		bl	port_halt
 235              	.LVL27:
 236              	.L42:
 237              		.loc 1 165 0 is_stmt 1
 238 0022 04F11007 		add	r7, r4, #16
 239 0026 3846     		mov	r0, r7
 240 0028 FFF7FEFF 		bl	sys_mbox_valid
 241              	.LVL28:
 242 002c 28B9     		cbnz	r0, .L43
 243              	.L44:
 244              		.loc 1 167 0
 245 002e 2846     		mov	r0, r5
 246              		.loc 1 205 0
 247 0030 03B0     		add	sp, sp, #12
 248              		@ sp needed
 249 0032 BDE8F043 		pop	{r4, r5, r6, r7, r8, r9, lr}
 250              	.LVL29:
 251              		.loc 1 167 0
 252 0036 FFF7FEBF 		b	pbuf_free
 253              	.LVL30:
 254              	.L43:
 255              		.loc 1 171 0
 256 003a 0720     		movs	r0, #7
 257 003c FFF7FEFF 		bl	memp_malloc
 258              	.LVL31:
 259              		.loc 1 172 0
 260 0040 0646     		mov	r6, r0
 261 0042 0028     		cmp	r0, #0
 262 0044 F3D0     		beq	.L44
 263              		.loc 1 176 0
 264 0046 0560     		str	r5, [r0]
 265              		.loc 1 177 0
 266 0048 4560     		str	r5, [r0, #4]
 267              		.loc 1 178 0
 268 004a 4346     		mov	r3, r8
 269 004c B8F1000F 		cmp	r8, #0
 270 0050 01D0     		beq	.L45
 271              	.LVL32:
 272              		.loc 1 178 0 is_stmt 0 discriminator 1
 273 0052 D8F80030 		ldr	r3, [r8]
 274              	.LVL33:
 275              	.L45:
 276              		.loc 1 195 0 is_stmt 1 discriminator 3
 277 0056 3146     		mov	r1, r6
 278              		.loc 1 178 0 discriminator 3
 279 0058 B360     		str	r3, [r6, #8]
 280              		.loc 1 179 0 discriminator 3
 281 005a A6F80C90 		strh	r9, [r6, #12]	@ movhi
 282              		.loc 1 195 0 discriminator 3
 283 005e 3846     		mov	r0, r7
 284              	.LVL34:
 285              		.loc 1 194 0 discriminator 3
ARM GAS  /tmp/ccT6pRdh.s 			page 6


 286 0060 2D89     		ldrh	r5, [r5, #8]
 287              	.LVL35:
 288              		.loc 1 195 0 discriminator 3
 289 0062 FFF7FEFF 		bl	sys_mbox_trypost
 290              	.LVL36:
 291 0066 0146     		mov	r1, r0
 292 0068 60B9     		cbnz	r0, .L57
 293              		.loc 1 203 0
 294 006a A36A     		ldr	r3, [r4, #40]
 295 006c 13B1     		cbz	r3, .L39
 296              		.loc 1 203 0 is_stmt 0 discriminator 1
 297 006e 2046     		mov	r0, r4
 298 0070 2A46     		mov	r2, r5
 299 0072 9847     		blx	r3
 300              	.LVL37:
 301              	.L39:
 302              		.loc 1 205 0 is_stmt 1
 303 0074 03B0     		add	sp, sp, #12
 304              		@ sp needed
 305 0076 BDE8F083 		pop	{r4, r5, r6, r7, r8, r9, pc}
 306              	.LVL38:
 307              	.L55:
 308              		.loc 1 155 0 discriminator 1
 309 007a 0191     		str	r1, [sp, #4]
 310 007c FFF7FEFF 		bl	port_halt
 311              	.LVL39:
 312 0080 0199     		ldr	r1, [sp, #4]
 313 0082 C7E7     		b	.L40
 314              	.LVL40:
 315              	.L57:
 316              		.loc 1 196 0
 317 0084 3046     		mov	r0, r6
 318              		.loc 1 205 0
 319 0086 03B0     		add	sp, sp, #12
 320              		@ sp needed
 321 0088 BDE8F043 		pop	{r4, r5, r6, r7, r8, r9, lr}
 322              	.LVL41:
 323              		.loc 1 196 0
 324 008c FFF7FEBF 		b	netbuf_delete
 325              	.LVL42:
 326              	.L56:
 327              		.loc 1 156 0 discriminator 1
 328 0090 0191     		str	r1, [sp, #4]
 329 0092 FFF7FEFF 		bl	port_halt
 330              	.LVL43:
 331 0096 0199     		ldr	r1, [sp, #4]
 332 0098 BEE7     		b	.L41
 333              		.cfi_endproc
 334              	.LFE8:
 335              		.size	recv_udp, .-recv_udp
 336 009a 00BFAFF3 		.section	.text.recv_raw,"ax",%progbits
 336      0080
 337              		.align	2
 338              		.p2align 4,,15
 339              		.thumb
 340              		.thumb_func
 341              		.type	recv_raw, %function
ARM GAS  /tmp/ccT6pRdh.s 			page 7


 342              	recv_raw:
 343              	.LFB7:
 344              		.loc 1 80 0
 345              		.cfi_startproc
 346              		@ args = 0, pretend = 0, frame = 0
 347              		@ frame_needed = 0, uses_anonymous_args = 0
 348              	.LVL44:
 349 0000 2DE9F041 		push	{r4, r5, r6, r7, r8, lr}
 350              		.cfi_def_cfa_offset 24
 351              		.cfi_offset 4, -24
 352              		.cfi_offset 5, -20
 353              		.cfi_offset 6, -16
 354              		.cfi_offset 7, -12
 355              		.cfi_offset 8, -8
 356              		.cfi_offset 14, -4
 357              		.loc 1 88 0
 358 0004 0446     		mov	r4, r0
 359              		.loc 1 80 0
 360 0006 0F46     		mov	r7, r1
 361 0008 1646     		mov	r6, r2
 362              		.loc 1 88 0
 363 000a 28B1     		cbz	r0, .L73
 364              		.loc 1 88 0 is_stmt 0 discriminator 1
 365 000c 00F11005 		add	r5, r0, #16
 366 0010 2846     		mov	r0, r5
 367              	.LVL45:
 368 0012 FFF7FEFF 		bl	sys_mbox_valid
 369              	.LVL46:
 370 0016 10B9     		cbnz	r0, .L78
 371              	.LVL47:
 372              	.L73:
 373              		.loc 1 133 0 is_stmt 1
 374 0018 0020     		movs	r0, #0
 375 001a BDE8F081 		pop	{r4, r5, r6, r7, r8, pc}
 376              	.LVL48:
 377              	.L78:
 378              		.loc 1 97 0
 379 001e 0320     		movs	r0, #3
 380 0020 3189     		ldrh	r1, [r6, #8]
 381 0022 0022     		movs	r2, #0
 382 0024 FFF7FEFF 		bl	pbuf_alloc
 383              	.LVL49:
 384              		.loc 1 98 0
 385 0028 8046     		mov	r8, r0
 386 002a 0028     		cmp	r0, #0
 387 002c F4D0     		beq	.L73
 388              		.loc 1 99 0
 389 002e 3146     		mov	r1, r6
 390 0030 FFF7FEFF 		bl	pbuf_copy
 391              	.LVL50:
 392 0034 08BB     		cbnz	r0, .L65
 393              	.LBB5:
 394              		.loc 1 107 0
 395 0036 0720     		movs	r0, #7
 396 0038 FFF7FEFF 		bl	memp_malloc
 397              	.LVL51:
 398              		.loc 1 108 0
ARM GAS  /tmp/ccT6pRdh.s 			page 8


 399 003c 0646     		mov	r6, r0
 400              	.LVL52:
 401 003e E0B1     		cbz	r0, .L65
 402              		.loc 1 115 0
 403 0040 40F20003 		movw	r3, #:lower16:current_iphdr_src
 404 0044 C0F20003 		movt	r3, #:upper16:current_iphdr_src
 405              		.loc 1 113 0
 406 0048 C6F80080 		str	r8, [r6]
 407              		.loc 1 115 0
 408 004c 1B68     		ldr	r3, [r3]
 409              		.loc 1 114 0
 410 004e C6F80480 		str	r8, [r6, #4]
 411              		.loc 1 115 0
 412 0052 B360     		str	r3, [r6, #8]
 413              		.loc 1 116 0
 414 0054 3B7C     		ldrb	r3, [r7, #16]	@ zero_extendqisi2
 415              		.loc 1 118 0
 416 0056 B8F80870 		ldrh	r7, [r8, #8]
 417              	.LVL53:
 418              		.loc 1 116 0
 419 005a B381     		strh	r3, [r6, #12]	@ movhi
 420              		.loc 1 119 0
 421 005c 3146     		mov	r1, r6
 422 005e 2846     		mov	r0, r5
 423              	.LVL54:
 424 0060 FFF7FEFF 		bl	sys_mbox_trypost
 425              	.LVL55:
 426 0064 0146     		mov	r1, r0
 427 0066 60B9     		cbnz	r0, .L79
 428              		.loc 1 127 0
 429 0068 A36A     		ldr	r3, [r4, #40]
 430 006a 002B     		cmp	r3, #0
 431 006c D4D0     		beq	.L73
 432              		.loc 1 127 0 is_stmt 0 discriminator 1
 433 006e 2046     		mov	r0, r4
 434 0070 3A46     		mov	r2, r7
 435 0072 9847     		blx	r3
 436              	.LVL56:
 437              	.LBE5:
 438              		.loc 1 133 0 is_stmt 1 discriminator 1
 439 0074 0020     		movs	r0, #0
 440 0076 BDE8F081 		pop	{r4, r5, r6, r7, r8, pc}
 441              	.LVL57:
 442              	.L65:
 443              	.LBB6:
 444              		.loc 1 109 0
 445 007a 4046     		mov	r0, r8
 446 007c FFF7FEFF 		bl	pbuf_free
 447              	.LVL58:
 448              		.loc 1 110 0
 449 0080 CAE7     		b	.L73
 450              	.LVL59:
 451              	.L79:
 452              		.loc 1 120 0
 453 0082 3046     		mov	r0, r6
 454 0084 FFF7FEFF 		bl	netbuf_delete
 455              	.LVL60:
ARM GAS  /tmp/ccT6pRdh.s 			page 9


 456              		.loc 1 121 0
 457 0088 C6E7     		b	.L73
 458              	.LBE6:
 459              		.cfi_endproc
 460              	.LFE7:
 461              		.size	recv_raw, .-recv_raw
 462 008a 00BFAFF3 		.section	.text.setup_tcp,"ax",%progbits
 462      0080
 463              		.align	2
 464              		.p2align 4,,15
 465              		.thumb
 466              		.thumb_func
 467              		.type	setup_tcp, %function
 468              	setup_tcp:
 469              	.LFB13:
 470              		.loc 1 414 0
 471              		.cfi_startproc
 472              		@ args = 0, pretend = 0, frame = 0
 473              		@ frame_needed = 0, uses_anonymous_args = 0
 474              	.LVL61:
 475 0000 10B5     		push	{r4, lr}
 476              		.cfi_def_cfa_offset 8
 477              		.cfi_offset 4, -8
 478              		.cfi_offset 14, -4
 479              		.loc 1 417 0
 480 0002 4468     		ldr	r4, [r0, #4]
 481              	.LVL62:
 482              		.loc 1 418 0
 483 0004 0146     		mov	r1, r0
 484 0006 2046     		mov	r0, r4
 485              	.LVL63:
 486 0008 FFF7FEFF 		bl	tcp_arg
 487              	.LVL64:
 488              		.loc 1 419 0
 489 000c 40F20001 		movw	r1, #:lower16:recv_tcp
 490 0010 2046     		mov	r0, r4
 491 0012 C0F20001 		movt	r1, #:upper16:recv_tcp
 492 0016 FFF7FEFF 		bl	tcp_recv
 493              	.LVL65:
 494              		.loc 1 420 0
 495 001a 40F20001 		movw	r1, #:lower16:sent_tcp
 496 001e 2046     		mov	r0, r4
 497 0020 C0F20001 		movt	r1, #:upper16:sent_tcp
 498 0024 FFF7FEFF 		bl	tcp_sent
 499              	.LVL66:
 500              		.loc 1 421 0
 501 0028 40F20001 		movw	r1, #:lower16:poll_tcp
 502 002c 2046     		mov	r0, r4
 503 002e C0F20001 		movt	r1, #:upper16:poll_tcp
 504 0032 0422     		movs	r2, #4
 505 0034 FFF7FEFF 		bl	tcp_poll
 506              	.LVL67:
 507              		.loc 1 422 0
 508 0038 40F20001 		movw	r1, #:lower16:err_tcp
 509 003c 2046     		mov	r0, r4
 510 003e C0F20001 		movt	r1, #:upper16:err_tcp
 511              		.loc 1 423 0
ARM GAS  /tmp/ccT6pRdh.s 			page 10


 512 0042 BDE81040 		pop	{r4, lr}
 513              	.LVL68:
 514              		.loc 1 422 0
 515 0046 FFF7FEBF 		b	tcp_err
 516              	.LVL69:
 517              		.cfi_endproc
 518              	.LFE13:
 519              		.size	setup_tcp, .-setup_tcp
 520 004a 00BFAFF3 		.section	.text.do_connected,"ax",%progbits
 520      0080
 521              		.align	2
 522              		.p2align 4,,15
 523              		.thumb
 524              		.thumb_func
 525              		.type	do_connected, %function
 526              	do_connected:
 527              	.LFB23:
 528              		.loc 1 938 0
 529              		.cfi_startproc
 530              		@ args = 0, pretend = 0, frame = 0
 531              		@ frame_needed = 0, uses_anonymous_args = 0
 532              	.LVL70:
 533 0000 38B5     		push	{r3, r4, r5, lr}
 534              		.cfi_def_cfa_offset 16
 535              		.cfi_offset 3, -16
 536              		.cfi_offset 4, -12
 537              		.cfi_offset 5, -8
 538              		.cfi_offset 14, -4
 539              		.loc 1 946 0
 540 0002 0446     		mov	r4, r0
 541              		.loc 1 938 0
 542 0004 1546     		mov	r5, r2
 543              		.loc 1 946 0
 544 0006 0028     		cmp	r0, #0
 545 0008 3AD0     		beq	.L91
 546              		.loc 1 950 0
 547 000a 4378     		ldrb	r3, [r0, #1]	@ zero_extendqisi2
 548 000c 032B     		cmp	r3, #3
 549 000e 01D0     		beq	.L83
 550              		.loc 1 950 0 is_stmt 0 discriminator 1
 551 0010 FFF7FEFF 		bl	port_halt
 552              	.LVL71:
 553              	.L83:
 554              		.loc 1 951 0 is_stmt 1
 555 0014 636A     		ldr	r3, [r4, #36]
 556 0016 53B3     		cbz	r3, .L102
 557              	.L84:
 558              		.loc 1 955 0
 559 0018 1D71     		strb	r5, [r3, #4]
 560              	.L86:
 561              		.loc 1 957 0
 562 001a 2378     		ldrb	r3, [r4]	@ zero_extendqisi2
 563 001c 102B     		cmp	r3, #16
 564 001e 20D0     		beq	.L103
 565              	.L88:
 566              		.loc 1 960 0
 567 0020 237F     		ldrb	r3, [r4, #28]	@ zero_extendqisi2
ARM GAS  /tmp/ccT6pRdh.s 			page 11


 568 0022 83F00405 		eor	r5, r3, #4
 569              		.loc 1 961 0
 570 0026 23F00402 		bic	r2, r3, #4
 571              		.loc 1 960 0
 572 002a C5F38005 		ubfx	r5, r5, #2, #1
 573              	.LVL72:
 574              		.loc 1 962 0
 575 002e 0023     		movs	r3, #0
 576              		.loc 1 961 0
 577 0030 2277     		strb	r2, [r4, #28]
 578              		.loc 1 962 0
 579 0032 6362     		str	r3, [r4, #36]
 580              		.loc 1 963 0
 581 0034 6370     		strb	r3, [r4, #1]
 582              		.loc 1 964 0
 583 0036 75B1     		cbz	r5, .L104
 584              	.L89:
 585              		.loc 1 967 0
 586 0038 A36A     		ldr	r3, [r4, #40]
 587 003a 1BB1     		cbz	r3, .L90
 588              		.loc 1 967 0 is_stmt 0 discriminator 1
 589 003c 2046     		mov	r0, r4
 590 003e 0221     		movs	r1, #2
 591 0040 0022     		movs	r2, #0
 592 0042 9847     		blx	r3
 593              	.LVL73:
 594              	.L90:
 595              		.loc 1 972 0 is_stmt 1
 596 0044 2846     		mov	r0, r5
 597              		.loc 1 969 0
 598 0046 25B1     		cbz	r5, .L82
 599              	.LVL74:
 600              		.loc 1 970 0
 601 0048 04F10C00 		add	r0, r4, #12
 602              	.LVL75:
 603 004c FFF7FEFF 		bl	sys_sem_signal
 604              	.LVL76:
 605              		.loc 1 972 0
 606 0050 0020     		movs	r0, #0
 607              	.LVL77:
 608              	.L82:
 609              		.loc 1 973 0
 610 0052 40B2     		sxtb	r0, r0
 611 0054 38BD     		pop	{r3, r4, r5, pc}
 612              	.LVL78:
 613              	.L104:
 614              		.loc 1 965 0
 615 0056 94F90830 		ldrsb	r3, [r4, #8]
 616 005a 0933     		adds	r3, r3, #9
 617 005c A8BF     		it	ge
 618 005e 2572     		strbge	r5, [r4, #8]
 619 0060 EAE7     		b	.L89
 620              	.LVL79:
 621              	.L103:
 622              		.loc 1 957 0 discriminator 1
 623 0062 002D     		cmp	r5, #0
 624 0064 DCD1     		bne	.L88
ARM GAS  /tmp/ccT6pRdh.s 			page 12


 625              		.loc 1 958 0
 626 0066 2046     		mov	r0, r4
 627 0068 FFF7FEFF 		bl	setup_tcp
 628              	.LVL80:
 629 006c D8E7     		b	.L88
 630              	.L102:
 631              		.loc 1 951 0 discriminator 1
 632 006e 237F     		ldrb	r3, [r4, #28]	@ zero_extendqisi2
 633 0070 5A07     		lsls	r2, r3, #29
 634 0072 D2D4     		bmi	.L86
 635 0074 FFF7FEFF 		bl	port_halt
 636              	.LVL81:
 637              		.loc 1 954 0 discriminator 1
 638 0078 636A     		ldr	r3, [r4, #36]
 639 007a 002B     		cmp	r3, #0
 640 007c CDD0     		beq	.L86
 641 007e CBE7     		b	.L84
 642              	.LVL82:
 643              	.L91:
 644              		.loc 1 947 0
 645 0080 FA20     		movs	r0, #250
 646              	.LVL83:
 647 0082 E6E7     		b	.L82
 648              		.cfi_endproc
 649              	.LFE23:
 650              		.size	do_connected, .-do_connected
 651 0084 AFF30080 		.section	.text.do_writemore,"ax",%progbits
 651      AFF30080 
 651      AFF30080 
 652              		.align	2
 653              		.p2align 4,,15
 654              		.thumb
 655              		.thumb_func
 656              		.type	do_writemore, %function
 657              	do_writemore:
 658              	.LFB29:
 659              		.loc 1 1209 0
 660              		.cfi_startproc
 661              		@ args = 0, pretend = 0, frame = 0
 662              		@ frame_needed = 0, uses_anonymous_args = 0
 663              	.LVL84:
 664 0000 2DE9F84F 		push	{r3, r4, r5, r6, r7, r8, r9, r10, fp, lr}
 665              		.cfi_def_cfa_offset 40
 666              		.cfi_offset 3, -40
 667              		.cfi_offset 4, -36
 668              		.cfi_offset 5, -32
 669              		.cfi_offset 6, -28
 670              		.cfi_offset 7, -24
 671              		.cfi_offset 8, -20
 672              		.cfi_offset 9, -16
 673              		.cfi_offset 10, -12
 674              		.cfi_offset 11, -8
 675              		.cfi_offset 14, -4
 676              		.loc 1 1215 0
 677 0004 037F     		ldrb	r3, [r0, #28]	@ zero_extendqisi2
 678 0006 13F0020F 		tst	r3, #2
 679 000a 436A     		ldr	r3, [r0, #36]
ARM GAS  /tmp/ccT6pRdh.s 			page 13


 680              		.loc 1 1216 0
 681 000c 0CBF     		ite	eq
 682 000e 1F7C     		ldrbeq	r7, [r3, #16]	@ zero_extendqisi2
 683 0010 1F7C     		ldrbne	r7, [r3, #16]	@ zero_extendqisi2
 684              		.loc 1 1220 0
 685 0012 4378     		ldrb	r3, [r0, #1]	@ zero_extendqisi2
 686              		.loc 1 1215 0
 687 0014 14BF     		ite	ne
 688 0016 4FF00108 		movne	r8, #1
 689 001a C7F38008 		ubfxeq	r8, r7, #2, #1
 690              	.LVL85:
 691              		.loc 1 1220 0
 692 001e 012B     		cmp	r3, #1
 693              		.loc 1 1209 0
 694 0020 0446     		mov	r4, r0
 695              		.loc 1 1220 0
 696 0022 05D0     		beq	.L108
 697              		.loc 1 1220 0 is_stmt 0 discriminator 1
 698 0024 FFF7FEFF 		bl	port_halt
 699              	.LVL86:
 700              		.loc 1 1221 0 is_stmt 1 discriminator 1
 701 0028 636A     		ldr	r3, [r4, #36]
 702 002a 002B     		cmp	r3, #0
 703 002c 00F09280 		beq	.L145
 704              	.L108:
 705              		.loc 1 1222 0
 706 0030 6368     		ldr	r3, [r4, #4]
 707 0032 002B     		cmp	r3, #0
 708 0034 00F09780 		beq	.L146
 709              	.L109:
 710              		.loc 1 1223 0
 711 0038 626A     		ldr	r2, [r4, #36]
 712 003a 266A     		ldr	r6, [r4, #32]
 713 003c D368     		ldr	r3, [r2, #12]
 714 003e 9E42     		cmp	r6, r3
 715 0040 68D2     		bcs	.L147
 716              	.L110:
 717              		.loc 1 1253 0
 718 0042 6068     		ldr	r0, [r4, #4]
 719              		.loc 1 1242 0
 720 0044 9168     		ldr	r1, [r2, #8]
 721              		.loc 1 1253 0
 722 0046 B0F866A0 		ldrh	r10, [r0, #102]
 723              		.loc 1 1243 0
 724 004a 9D1B     		subs	r5, r3, r6
 725              		.loc 1 1244 0
 726 004c B5F5803F 		cmp	r5, #65536
 727              		.loc 1 1245 0
 728 0050 2ABF     		itet	cs
 729 0052 4FF6FF75 		movwcs	r5, #65535
 730              		.loc 1 1251 0
 731 0056 ADB2     		uxthcc	r5, r5
 732              		.loc 1 1249 0
 733 0058 47F00207 		orrcs	r7, r7, #2
 734              	.LVL87:
 735              		.loc 1 1254 0
 736 005c 5545     		cmp	r5, r10
ARM GAS  /tmp/ccT6pRdh.s 			page 14


 737              		.loc 1 1242 0
 738 005e 01EB060B 		add	fp, r1, r6
 739              	.LVL88:
 740              		.loc 1 1254 0
 741 0062 05D9     		bls	.L113
 742              	.LVL89:
 743              		.loc 1 1257 0
 744 0064 B8F1000F 		cmp	r8, #0
 745 0068 29D1     		bne	.L148
 746              		.loc 1 1266 0
 747 006a 47F00207 		orr	r7, r7, #2
 748              	.LVL90:
 749              	.L144:
 750 006e 5546     		mov	r5, r10
 751              	.LVL91:
 752              	.L113:
 753              		.loc 1 1269 0
 754 0070 2E44     		add	r6, r6, r5
 755 0072 9E42     		cmp	r6, r3
 756 0074 A946     		mov	r9, r5
 757 0076 53D8     		bhi	.L149
 758              	.LVL92:
 759              	.L116:
 760              		.loc 1 1270 0
 761 0078 3B46     		mov	r3, r7
 762 007a 5946     		mov	r1, fp
 763 007c 2A46     		mov	r2, r5
 764 007e FFF7FEFF 		bl	tcp_write
 765              	.LVL93:
 766              		.loc 1 1272 0
 767 0082 431C     		adds	r3, r0, #1
 768 0084 DBB2     		uxtb	r3, r3
 769 0086 012B     		cmp	r3, #1
 770              		.loc 1 1270 0
 771 0088 0646     		mov	r6, r0
 772              	.LVL94:
 773              		.loc 1 1272 0
 774 008a 4DD9     		bls	.L150
 775              	.LVL95:
 776              	.L117:
 777              		.loc 1 1297 0
 778 008c 88F00108 		eor	r8, r8, #1
 779              	.LVL96:
 780 0090 73B2     		sxtb	r3, r6
 781 0092 B3F1FF3F 		cmp	r3, #-1
 782 0096 14BF     		ite	ne
 783 0098 0023     		movne	r3, #0
 784 009a 08F00103 		andeq	r3, r8, #1
 785 009e 002B     		cmp	r3, #0
 786 00a0 32D1     		bne	.L124
 787              	.LVL97:
 788              		.loc 1 1312 0
 789 00a2 626A     		ldr	r2, [r4, #36]
 790 00a4 D360     		str	r3, [r2, #12]
 791              	.LVL98:
 792              	.L125:
 793              		.loc 1 1318 0
ARM GAS  /tmp/ccT6pRdh.s 			page 15


 794 00a6 626A     		ldr	r2, [r4, #36]
 795              		.loc 1 1319 0
 796 00a8 0023     		movs	r3, #0
 797              		.loc 1 1318 0
 798 00aa 1671     		strb	r6, [r2, #4]
 799              		.loc 1 1325 0
 800 00ac 04F10C00 		add	r0, r4, #12
 801              		.loc 1 1319 0
 802 00b0 6362     		str	r3, [r4, #36]
 803              		.loc 1 1320 0
 804 00b2 6370     		strb	r3, [r4, #1]
 805              		.loc 1 1325 0
 806 00b4 FFF7FEFF 		bl	sys_sem_signal
 807              	.LVL99:
 808              		.loc 1 1333 0
 809 00b8 0020     		movs	r0, #0
 810 00ba BDE8F88F 		pop	{r3, r4, r5, r6, r7, r8, r9, r10, fp, pc}
 811              	.LVL100:
 812              	.L148:
 813              		.loc 1 1258 0
 814 00be BAF1000F 		cmp	r10, #0
 815 00c2 D4D1     		bne	.L144
 816 00c4 D146     		mov	r9, r10
 817              		.loc 1 1259 0
 818 00c6 F926     		movs	r6, #249
 819              	.LVL101:
 820              	.L115:
 821              		.loc 1 1274 0 discriminator 1
 822 00c8 9945     		cmp	r9, r3
 823 00ca 4AD2     		bcs	.L130
 824              		.loc 1 1277 0
 825 00cc A36A     		ldr	r3, [r4, #40]
 826 00ce 1BB1     		cbz	r3, .L120
 827              		.loc 1 1277 0 is_stmt 0 discriminator 1
 828 00d0 2046     		mov	r0, r4
 829 00d2 0321     		movs	r1, #3
 830 00d4 5246     		mov	r2, r10
 831 00d6 9847     		blx	r3
 832              	.LVL102:
 833              	.L120:
 834              		.loc 1 1278 0 is_stmt 1
 835 00d8 237F     		ldrb	r3, [r4, #28]	@ zero_extendqisi2
 836 00da 43F01003 		orr	r3, r3, #16
 837 00de 5546     		mov	r5, r10
 838 00e0 2377     		strb	r3, [r4, #28]
 839              	.LVL103:
 840              	.L121:
 841              		.loc 1 1287 0
 842 00e2 002E     		cmp	r6, #0
 843 00e4 D2D1     		bne	.L117
 844              		.loc 1 1288 0
 845 00e6 226A     		ldr	r2, [r4, #32]
 846              		.loc 1 1289 0
 847 00e8 636A     		ldr	r3, [r4, #36]
 848              		.loc 1 1288 0
 849 00ea 1544     		add	r5, r5, r2
 850              	.LVL104:
ARM GAS  /tmp/ccT6pRdh.s 			page 16


 851 00ec 2562     		str	r5, [r4, #32]
 852              		.loc 1 1289 0
 853 00ee DA68     		ldr	r2, [r3, #12]
 854 00f0 9542     		cmp	r5, r2
 855 00f2 02D0     		beq	.L123
 856              		.loc 1 1289 0 is_stmt 0 discriminator 1
 857 00f4 B8F1000F 		cmp	r8, #0
 858 00f8 06D0     		beq	.L124
 859              	.L123:
 860              		.loc 1 1291 0 is_stmt 1
 861 00fa DD60     		str	r5, [r3, #12]
 862              	.LVL105:
 863              		.loc 1 1294 0
 864 00fc 0023     		movs	r3, #0
 865              		.loc 1 1296 0
 866 00fe 6068     		ldr	r0, [r4, #4]
 867              		.loc 1 1294 0
 868 0100 2362     		str	r3, [r4, #32]
 869              		.loc 1 1296 0
 870 0102 FFF7FEFF 		bl	tcp_output
 871              	.LVL106:
 872 0106 CEE7     		b	.L125
 873              	.LVL107:
 874              	.L124:
 875 0108 6068     		ldr	r0, [r4, #4]
 876 010a FFF7FEFF 		bl	tcp_output
 877              	.LVL108:
 878              		.loc 1 1333 0
 879 010e 0020     		movs	r0, #0
 880 0110 BDE8F88F 		pop	{r3, r4, r5, r6, r7, r8, r9, r10, fp, pc}
 881              	.LVL109:
 882              	.L147:
 883              		.loc 1 1223 0 discriminator 1
 884 0114 FFF7FEFF 		bl	port_halt
 885              	.LVL110:
 886 0118 626A     		ldr	r2, [r4, #36]
 887 011a 266A     		ldr	r6, [r4, #32]
 888 011c D368     		ldr	r3, [r2, #12]
 889 011e 90E7     		b	.L110
 890              	.LVL111:
 891              	.L149:
 892              		.loc 1 1269 0 discriminator 1
 893 0120 FFF7FEFF 		bl	port_halt
 894              	.LVL112:
 895 0124 6068     		ldr	r0, [r4, #4]
 896 0126 A7E7     		b	.L116
 897              	.LVL113:
 898              	.L150:
 899              	.L118:
 900              		.loc 1 1274 0
 901 0128 B8F1000F 		cmp	r8, #0
 902 012c 15D1     		bne	.L151
 903              	.LVL114:
 904              	.L119:
 905              		.loc 1 1279 0
 906 012e 6368     		ldr	r3, [r4, #4]
 907 0130 B3F86620 		ldrh	r2, [r3, #102]
ARM GAS  /tmp/ccT6pRdh.s 			page 17


 908 0134 B2F5866F 		cmp	r2, #1072
 909 0138 07D2     		bcs	.L152
 910              	.L122:
 911              		.loc 1 1283 0
 912 013a A36A     		ldr	r3, [r4, #40]
 913 013c 002B     		cmp	r3, #0
 914 013e D0D0     		beq	.L121
 915              		.loc 1 1283 0 is_stmt 0 discriminator 1
 916 0140 2046     		mov	r0, r4
 917 0142 0321     		movs	r1, #3
 918 0144 2A46     		mov	r2, r5
 919 0146 9847     		blx	r3
 920              	.LVL115:
 921 0148 CBE7     		b	.L121
 922              	.L152:
 923              		.loc 1 1279 0 is_stmt 1 discriminator 1
 924 014a B3F86830 		ldrh	r3, [r3, #104]
 925 014e 042B     		cmp	r3, #4
 926 0150 C7D9     		bls	.L121
 927 0152 F2E7     		b	.L122
 928              	.LVL116:
 929              	.L145:
 930              		.loc 1 1221 0 discriminator 1
 931 0154 FFF7FEFF 		bl	port_halt
 932              	.LVL117:
 933 0158 6AE7     		b	.L108
 934              	.LVL118:
 935              	.L151:
 936 015a 636A     		ldr	r3, [r4, #36]
 937              		.loc 1 1274 0
 938 015c AA46     		mov	r10, r5
 939              	.LVL119:
 940 015e DB68     		ldr	r3, [r3, #12]
 941 0160 B2E7     		b	.L115
 942              	.LVL120:
 943              	.L130:
 944 0162 5546     		mov	r5, r10
 945 0164 E3E7     		b	.L119
 946              	.LVL121:
 947              	.L146:
 948              		.loc 1 1222 0 discriminator 1
 949 0166 FFF7FEFF 		bl	port_halt
 950              	.LVL122:
 951 016a 65E7     		b	.L109
 952              		.cfi_endproc
 953              	.LFE29:
 954              		.size	do_writemore, .-do_writemore
 955 016c AFF30080 		.section	.text.do_close_internal,"ax",%progbits
 956              		.align	2
 957              		.p2align 4,,15
 958              		.thumb
 959              		.thumb_func
 960              		.type	do_close_internal, %function
 961              	do_close_internal:
 962              	.LFB20:
 963              		.loc 1 748 0
 964              		.cfi_startproc
ARM GAS  /tmp/ccT6pRdh.s 			page 18


 965              		@ args = 0, pretend = 0, frame = 0
 966              		@ frame_needed = 0, uses_anonymous_args = 0
 967              	.LVL123:
 968 0000 F8B5     		push	{r3, r4, r5, r6, r7, lr}
 969              		.cfi_def_cfa_offset 24
 970              		.cfi_offset 3, -24
 971              		.cfi_offset 4, -20
 972              		.cfi_offset 5, -16
 973              		.cfi_offset 6, -12
 974              		.cfi_offset 7, -8
 975              		.cfi_offset 14, -4
 976              		.loc 1 752 0
 977 0002 0446     		mov	r4, r0
 978 0004 0028     		cmp	r0, #0
 979 0006 00F0A280 		beq	.L208
 980              	.LVL124:
 981              	.L154:
 982              		.loc 1 753 0
 983 000a 2378     		ldrb	r3, [r4]	@ zero_extendqisi2
 984 000c 102B     		cmp	r3, #16
 985 000e 01D0     		beq	.L155
 986              		.loc 1 753 0 is_stmt 0 discriminator 1
 987 0010 FFF7FEFF 		bl	port_halt
 988              	.LVL125:
 989              	.L155:
 990              		.loc 1 754 0 is_stmt 1
 991 0014 6378     		ldrb	r3, [r4, #1]	@ zero_extendqisi2
 992 0016 042B     		cmp	r3, #4
 993 0018 01D0     		beq	.L156
 994              		.loc 1 754 0 is_stmt 0 discriminator 1
 995 001a FFF7FEFF 		bl	port_halt
 996              	.LVL126:
 997              	.L156:
 998              		.loc 1 755 0 is_stmt 1
 999 001e 6368     		ldr	r3, [r4, #4]
 1000 0020 002B     		cmp	r3, #0
 1001 0022 00F08D80 		beq	.L209
 1002              	.L157:
 1003              		.loc 1 756 0
 1004 0026 636A     		ldr	r3, [r4, #36]
 1005 0028 002B     		cmp	r3, #0
 1006 002a 00F08C80 		beq	.L210
 1007              	.L158:
 1008              		.loc 1 758 0
 1009 002e 197A     		ldrb	r1, [r3, #8]	@ zero_extendqisi2
 1010              	.LVL127:
 1011              		.loc 1 762 0
 1012 0030 C81E     		subs	r0, r1, #3
 1013 0032 4542     		rsbs	r5, r0, #0
 1014              		.loc 1 760 0
 1015 0034 01F00206 		and	r6, r1, #2
 1016              		.loc 1 762 0
 1017 0038 4541     		adcs	r5, r5, r0
 1018              		.loc 1 760 0
 1019 003a F6B2     		uxtb	r6, r6
 1020              		.loc 1 759 0
 1021 003c 01F00107 		and	r7, r1, #1
ARM GAS  /tmp/ccT6pRdh.s 			page 19


 1022              	.LVL128:
 1023              		.loc 1 765 0
 1024 0040 002D     		cmp	r5, #0
 1025 0042 6AD1     		bne	.L211
 1026              		.loc 1 768 0
 1027 0044 6068     		ldr	r0, [r4, #4]
 1028 0046 037E     		ldrb	r3, [r0, #24]	@ zero_extendqisi2
 1029              	.LVL129:
 1030 0048 012B     		cmp	r3, #1
 1031 004a 6ED0     		beq	.L212
 1032              	.LVL130:
 1033              	.L160:
 1034              		.loc 1 772 0
 1035 004c 002F     		cmp	r7, #0
 1036 004e 59D1     		bne	.L213
 1037              		.loc 1 776 0
 1038 0050 002E     		cmp	r6, #0
 1039 0052 45D1     		bne	.L214
 1040              	.L164:
 1041              		.loc 1 779 0
 1042 0054 002D     		cmp	r5, #0
 1043 0056 49D1     		bne	.L215
 1044              	.L165:
 1045              		.loc 1 788 0
 1046 0058 3946     		mov	r1, r7
 1047 005a 3246     		mov	r2, r6
 1048 005c FFF7FEFF 		bl	tcp_shutdown
 1049              	.LVL131:
 1050              	.L166:
 1051              		.loc 1 790 0
 1052 0060 F8B9     		cbnz	r0, .L167
 1053              		.loc 1 792 0
 1054 0062 636A     		ldr	r3, [r4, #36]
 1055 0064 1871     		strb	r0, [r3, #4]
 1056              		.loc 1 793 0
 1057 0066 6062     		str	r0, [r4, #36]
 1058              		.loc 1 794 0
 1059 0068 6070     		strb	r0, [r4, #1]
 1060              		.loc 1 795 0
 1061 006a 35B1     		cbz	r5, .L169
 1062              		.loc 1 800 0
 1063 006c A36A     		ldr	r3, [r4, #40]
 1064              		.loc 1 797 0
 1065 006e 6060     		str	r0, [r4, #4]
 1066              		.loc 1 800 0
 1067 0070 1BB1     		cbz	r3, .L169
 1068              		.loc 1 800 0 is_stmt 0 discriminator 1
 1069 0072 0246     		mov	r2, r0
 1070 0074 0421     		movs	r1, #4
 1071 0076 2046     		mov	r0, r4
 1072              	.LVL132:
 1073 0078 9847     		blx	r3
 1074              	.LVL133:
 1075              	.L169:
 1076              		.loc 1 802 0 is_stmt 1
 1077 007a 2FB1     		cbz	r7, .L171
 1078              		.loc 1 803 0
ARM GAS  /tmp/ccT6pRdh.s 			page 20


 1079 007c A36A     		ldr	r3, [r4, #40]
 1080 007e 1BB1     		cbz	r3, .L171
 1081              		.loc 1 803 0 is_stmt 0 discriminator 1
 1082 0080 0021     		movs	r1, #0
 1083 0082 0A46     		mov	r2, r1
 1084 0084 2046     		mov	r0, r4
 1085 0086 9847     		blx	r3
 1086              	.LVL134:
 1087              	.L171:
 1088              		.loc 1 805 0 is_stmt 1
 1089 0088 2EB1     		cbz	r6, .L172
 1090              		.loc 1 806 0
 1091 008a A36A     		ldr	r3, [r4, #40]
 1092 008c 1BB1     		cbz	r3, .L172
 1093              		.loc 1 806 0 is_stmt 0 discriminator 1
 1094 008e 2046     		mov	r0, r4
 1095 0090 0221     		movs	r1, #2
 1096 0092 0022     		movs	r2, #0
 1097 0094 9847     		blx	r3
 1098              	.LVL135:
 1099              	.L172:
 1100              		.loc 1 809 0 is_stmt 1
 1101 0096 04F10C00 		add	r0, r4, #12
 1102              		.loc 1 822 0
 1103 009a BDE8F840 		pop	{r3, r4, r5, r6, r7, lr}
 1104              	.LVL136:
 1105              		.loc 1 809 0
 1106 009e FFF7FEBF 		b	sys_sem_signal
 1107              	.LVL137:
 1108              	.L167:
 1109              		.loc 1 813 0
 1110 00a2 6068     		ldr	r0, [r4, #4]
 1111              	.LVL138:
 1112 00a4 037E     		ldrb	r3, [r0, #24]	@ zero_extendqisi2
 1113 00a6 012B     		cmp	r3, #1
 1114 00a8 46D0     		beq	.L216
 1115              	.L173:
 1116              		.loc 1 814 0
 1117 00aa 40F20001 		movw	r1, #:lower16:sent_tcp
 1118 00ae C0F20001 		movt	r1, #:upper16:sent_tcp
 1119 00b2 FFF7FEFF 		bl	tcp_sent
 1120              	.LVL139:
 1121              		.loc 1 815 0
 1122 00b6 40F20001 		movw	r1, #:lower16:poll_tcp
 1123 00ba 6068     		ldr	r0, [r4, #4]
 1124 00bc C0F20001 		movt	r1, #:upper16:poll_tcp
 1125 00c0 0422     		movs	r2, #4
 1126 00c2 FFF7FEFF 		bl	tcp_poll
 1127              	.LVL140:
 1128              		.loc 1 816 0
 1129 00c6 40F20001 		movw	r1, #:lower16:err_tcp
 1130 00ca 6068     		ldr	r0, [r4, #4]
 1131 00cc C0F20001 		movt	r1, #:upper16:err_tcp
 1132 00d0 FFF7FEFF 		bl	tcp_err
 1133              	.LVL141:
 1134              		.loc 1 817 0
 1135 00d4 6068     		ldr	r0, [r4, #4]
ARM GAS  /tmp/ccT6pRdh.s 			page 21


 1136 00d6 2146     		mov	r1, r4
 1137              		.loc 1 822 0
 1138 00d8 BDE8F840 		pop	{r3, r4, r5, r6, r7, lr}
 1139              	.LVL142:
 1140              		.loc 1 817 0
 1141 00dc FFF7FEBF 		b	tcp_arg
 1142              	.LVL143:
 1143              	.L214:
 1144              		.loc 1 777 0
 1145 00e0 0021     		movs	r1, #0
 1146 00e2 FFF7FEFF 		bl	tcp_sent
 1147              	.LVL144:
 1148 00e6 6068     		ldr	r0, [r4, #4]
 1149              		.loc 1 779 0
 1150 00e8 002D     		cmp	r5, #0
 1151 00ea B5D0     		beq	.L165
 1152              	.L215:
 1153              		.loc 1 780 0
 1154 00ec 0021     		movs	r1, #0
 1155 00ee 0422     		movs	r2, #4
 1156 00f0 FFF7FEFF 		bl	tcp_poll
 1157              	.LVL145:
 1158              		.loc 1 781 0
 1159 00f4 6068     		ldr	r0, [r4, #4]
 1160 00f6 0021     		movs	r1, #0
 1161 00f8 FFF7FEFF 		bl	tcp_err
 1162              	.LVL146:
 1163              	.L161:
 1164              		.loc 1 786 0
 1165 00fc 6068     		ldr	r0, [r4, #4]
 1166 00fe FFF7FEFF 		bl	tcp_close
 1167              	.LVL147:
 1168 0102 ADE7     		b	.L166
 1169              	.LVL148:
 1170              	.L213:
 1171              		.loc 1 773 0
 1172 0104 0021     		movs	r1, #0
 1173 0106 FFF7FEFF 		bl	tcp_recv
 1174              	.LVL149:
 1175              		.loc 1 774 0
 1176 010a 6068     		ldr	r0, [r4, #4]
 1177 010c 0021     		movs	r1, #0
 1178 010e FFF7FEFF 		bl	tcp_accept
 1179              	.LVL150:
 1180 0112 6068     		ldr	r0, [r4, #4]
 1181              		.loc 1 776 0
 1182 0114 002E     		cmp	r6, #0
 1183 0116 9DD0     		beq	.L164
 1184 0118 E2E7     		b	.L214
 1185              	.LVL151:
 1186              	.L211:
 1187              		.loc 1 766 0
 1188 011a 6068     		ldr	r0, [r4, #4]
 1189 011c 0021     		movs	r1, #0
 1190 011e FFF7FEFF 		bl	tcp_arg
 1191              	.LVL152:
 1192              		.loc 1 768 0
ARM GAS  /tmp/ccT6pRdh.s 			page 22


 1193 0122 6068     		ldr	r0, [r4, #4]
 1194 0124 037E     		ldrb	r3, [r0, #24]	@ zero_extendqisi2
 1195 0126 012B     		cmp	r3, #1
 1196 0128 90D1     		bne	.L160
 1197              	.L212:
 1198              		.loc 1 769 0
 1199 012a 0021     		movs	r1, #0
 1200 012c FFF7FEFF 		bl	tcp_accept
 1201              	.LVL153:
 1202              		.loc 1 785 0
 1203 0130 002D     		cmp	r5, #0
 1204 0132 E3D1     		bne	.L161
 1205 0134 6068     		ldr	r0, [r4, #4]
 1206 0136 8FE7     		b	.L165
 1207              	.L216:
 1208              		.loc 1 813 0 discriminator 1
 1209 0138 FFF7FEFF 		bl	port_halt
 1210              	.LVL154:
 1211 013c 6068     		ldr	r0, [r4, #4]
 1212 013e B4E7     		b	.L173
 1213              	.LVL155:
 1214              	.L209:
 1215              		.loc 1 755 0 discriminator 1
 1216 0140 FFF7FEFF 		bl	port_halt
 1217              	.LVL156:
 1218 0144 6FE7     		b	.L157
 1219              	.L210:
 1220              		.loc 1 756 0 discriminator 1
 1221 0146 FFF7FEFF 		bl	port_halt
 1222              	.LVL157:
 1223 014a 636A     		ldr	r3, [r4, #36]
 1224 014c 6FE7     		b	.L158
 1225              	.LVL158:
 1226              	.L208:
 1227              		.loc 1 752 0 discriminator 1
 1228 014e FFF7FEFF 		bl	port_halt
 1229              	.LVL159:
 1230 0152 5AE7     		b	.L154
 1231              		.cfi_endproc
 1232              	.LFE20:
 1233              		.size	do_close_internal, .-do_close_internal
 1234 0154 AFF30080 		.section	.text.poll_tcp,"ax",%progbits
 1234      AFF30080 
 1234      AFF30080 
 1235              		.align	2
 1236              		.p2align 4,,15
 1237              		.thumb
 1238              		.thumb_func
 1239              		.type	poll_tcp, %function
 1240              	poll_tcp:
 1241              	.LFB10:
 1242              		.loc 1 278 0
 1243              		.cfi_startproc
 1244              		@ args = 0, pretend = 0, frame = 0
 1245              		@ frame_needed = 0, uses_anonymous_args = 0
 1246              	.LVL160:
 1247 0000 38B5     		push	{r3, r4, r5, lr}
ARM GAS  /tmp/ccT6pRdh.s 			page 23


 1248              		.cfi_def_cfa_offset 16
 1249              		.cfi_offset 3, -16
 1250              		.cfi_offset 4, -12
 1251              		.cfi_offset 5, -8
 1252              		.cfi_offset 14, -4
 1253              		.loc 1 282 0
 1254 0002 0446     		mov	r4, r0
 1255 0004 28B3     		cbz	r0, .L230
 1256              	.LVL161:
 1257              	.L218:
 1258              		.loc 1 284 0
 1259 0006 6378     		ldrb	r3, [r4, #1]	@ zero_extendqisi2
 1260 0008 012B     		cmp	r3, #1
 1261 000a 1AD0     		beq	.L231
 1262              		.loc 1 286 0
 1263 000c 042B     		cmp	r3, #4
 1264 000e 1CD0     		beq	.L232
 1265              	.L220:
 1266              		.loc 1 292 0
 1267 0010 237F     		ldrb	r3, [r4, #28]	@ zero_extendqisi2
 1268 0012 DD06     		lsls	r5, r3, #27
 1269 0014 13D5     		bpl	.L222
 1270              		.loc 1 295 0
 1271 0016 6268     		ldr	r2, [r4, #4]
 1272 0018 8AB1     		cbz	r2, .L222
 1273              		.loc 1 295 0 is_stmt 0 discriminator 1
 1274 001a B2F86610 		ldrh	r1, [r2, #102]
 1275 001e B1F5866F 		cmp	r1, #1072
 1276 0022 0CD3     		bcc	.L222
 1277 0024 B2F86820 		ldrh	r2, [r2, #104]
 1278 0028 042A     		cmp	r2, #4
 1279 002a 08D8     		bhi	.L222
 1280              		.loc 1 298 0 is_stmt 1
 1281 002c A56A     		ldr	r5, [r4, #40]
 1282              		.loc 1 297 0
 1283 002e 23F01003 		bic	r3, r3, #16
 1284 0032 2377     		strb	r3, [r4, #28]
 1285              		.loc 1 298 0
 1286 0034 1DB1     		cbz	r5, .L222
 1287              		.loc 1 298 0 is_stmt 0 discriminator 1
 1288 0036 2046     		mov	r0, r4
 1289 0038 0221     		movs	r1, #2
 1290 003a 0022     		movs	r2, #0
 1291 003c A847     		blx	r5
 1292              	.LVL162:
 1293              	.L222:
 1294              		.loc 1 303 0 is_stmt 1
 1295 003e 0020     		movs	r0, #0
 1296 0040 38BD     		pop	{r3, r4, r5, pc}
 1297              	.LVL163:
 1298              	.L231:
 1299              		.loc 1 285 0
 1300 0042 2046     		mov	r0, r4
 1301 0044 FFF7FEFF 		bl	do_writemore
 1302              	.LVL164:
 1303 0048 E2E7     		b	.L220
 1304              	.L232:
ARM GAS  /tmp/ccT6pRdh.s 			page 24


 1305              		.loc 1 287 0
 1306 004a 2046     		mov	r0, r4
 1307 004c FFF7FEFF 		bl	do_close_internal
 1308              	.LVL165:
 1309 0050 DEE7     		b	.L220
 1310              	.LVL166:
 1311              	.L230:
 1312              		.loc 1 282 0 discriminator 1
 1313 0052 FFF7FEFF 		bl	port_halt
 1314              	.LVL167:
 1315 0056 D6E7     		b	.L218
 1316              		.cfi_endproc
 1317              	.LFE10:
 1318              		.size	poll_tcp, .-poll_tcp
 1319 0058 AFF30080 		.section	.text.recv_tcp,"ax",%progbits
 1319      AFF30080 
 1320              		.align	2
 1321              		.p2align 4,,15
 1322              		.thumb
 1323              		.thumb_func
 1324              		.type	recv_tcp, %function
 1325              	recv_tcp:
 1326              	.LFB9:
 1327              		.loc 1 217 0
 1328              		.cfi_startproc
 1329              		@ args = 0, pretend = 0, frame = 0
 1330              		@ frame_needed = 0, uses_anonymous_args = 0
 1331              	.LVL168:
 1332 0000 2DE9F843 		push	{r3, r4, r5, r6, r7, r8, r9, lr}
 1333              		.cfi_def_cfa_offset 32
 1334              		.cfi_offset 3, -32
 1335              		.cfi_offset 4, -28
 1336              		.cfi_offset 5, -24
 1337              		.cfi_offset 6, -20
 1338              		.cfi_offset 7, -16
 1339              		.cfi_offset 8, -12
 1340              		.cfi_offset 9, -8
 1341              		.cfi_offset 14, -4
 1342              		.loc 1 222 0
 1343 0004 0E46     		mov	r6, r1
 1344              		.loc 1 217 0
 1345 0006 0446     		mov	r4, r0
 1346 0008 1546     		mov	r5, r2
 1347 000a 9946     		mov	r9, r3
 1348              		.loc 1 222 0
 1349 000c 0029     		cmp	r1, #0
 1350 000e 37D0     		beq	.L248
 1351              	.LVL169:
 1352              	.L234:
 1353              		.loc 1 223 0
 1354 0010 002C     		cmp	r4, #0
 1355 0012 38D0     		beq	.L249
 1356              	.L235:
 1357              	.LVL170:
 1358              		.loc 1 225 0
 1359 0014 6268     		ldr	r2, [r4, #4]
 1360 0016 B242     		cmp	r2, r6
ARM GAS  /tmp/ccT6pRdh.s 			page 25


 1361 0018 01D0     		beq	.L236
 1362              		.loc 1 225 0 is_stmt 0 discriminator 1
 1363 001a FFF7FEFF 		bl	port_halt
 1364              	.LVL171:
 1365              	.L236:
 1366              		.loc 1 230 0 is_stmt 1
 1367 001e 04F11007 		add	r7, r4, #16
 1368 0022 3846     		mov	r0, r7
 1369 0024 FFF7FEFF 		bl	sys_mbox_valid
 1370              	.LVL172:
 1371 0028 8046     		mov	r8, r0
 1372 002a 78B9     		cbnz	r0, .L237
 1373              		.loc 1 232 0
 1374 002c 55B1     		cbz	r5, .L242
 1375              		.loc 1 233 0
 1376 002e 3046     		mov	r0, r6
 1377 0030 2989     		ldrh	r1, [r5, #8]
 1378 0032 FFF7FEFF 		bl	tcp_recved
 1379              	.LVL173:
 1380              		.loc 1 234 0
 1381 0036 2846     		mov	r0, r5
 1382 0038 FFF7FEFF 		bl	pbuf_free
 1383              	.LVL174:
 1384              		.loc 1 236 0
 1385 003c 4046     		mov	r0, r8
 1386              	.LVL175:
 1387              	.L239:
 1388              		.loc 1 263 0
 1389 003e 40B2     		sxtb	r0, r0
 1390 0040 BDE8F883 		pop	{r3, r4, r5, r6, r7, r8, r9, pc}
 1391              	.LVL176:
 1392              	.L242:
 1393              		.loc 1 236 0
 1394 0044 0020     		movs	r0, #0
 1395              		.loc 1 263 0
 1396 0046 40B2     		sxtb	r0, r0
 1397 0048 BDE8F883 		pop	{r3, r4, r5, r6, r7, r8, r9, pc}
 1398              	.LVL177:
 1399              	.L237:
 1400              		.loc 1 243 0
 1401 004c 94F90830 		ldrsb	r3, [r4, #8]
 1402 0050 0933     		adds	r3, r3, #9
 1403 0052 A8BF     		it	ge
 1404 0054 84F80890 		strbge	r9, [r4, #8]
 1405              		.loc 1 248 0
 1406 0058 2E46     		mov	r6, r5
 1407              	.LVL178:
 1408              		.loc 1 245 0
 1409 005a 05B1     		cbz	r5, .L241
 1410              		.loc 1 246 0
 1411 005c 2E89     		ldrh	r6, [r5, #8]
 1412              	.LVL179:
 1413              	.L241:
 1414              		.loc 1 251 0
 1415 005e 2946     		mov	r1, r5
 1416 0060 3846     		mov	r0, r7
 1417 0062 FFF7FEFF 		bl	sys_mbox_trypost
ARM GAS  /tmp/ccT6pRdh.s 			page 26


 1418              	.LVL180:
 1419 0066 0546     		mov	r5, r0
 1420              	.LVL181:
 1421 0068 80B9     		cbnz	r0, .L244
 1422              		.loc 1 259 0
 1423 006a A36A     		ldr	r3, [r4, #40]
 1424 006c 002B     		cmp	r3, #0
 1425 006e E9D0     		beq	.L242
 1426              		.loc 1 259 0 is_stmt 0 discriminator 1
 1427 0070 2046     		mov	r0, r4
 1428 0072 3246     		mov	r2, r6
 1429 0074 2946     		mov	r1, r5
 1430 0076 9847     		blx	r3
 1431              	.LVL182:
 1432              		.loc 1 262 0 is_stmt 1 discriminator 1
 1433 0078 2846     		mov	r0, r5
 1434              		.loc 1 263 0 discriminator 1
 1435 007a 40B2     		sxtb	r0, r0
 1436 007c BDE8F883 		pop	{r3, r4, r5, r6, r7, r8, r9, pc}
 1437              	.LVL183:
 1438              	.L248:
 1439              		.loc 1 222 0 discriminator 1
 1440 0080 FFF7FEFF 		bl	port_halt
 1441              	.LVL184:
 1442 0084 C4E7     		b	.L234
 1443              	.L249:
 1444              		.loc 1 223 0 discriminator 1
 1445 0086 FFF7FEFF 		bl	port_halt
 1446              	.LVL185:
 1447 008a C3E7     		b	.L235
 1448              	.LVL186:
 1449              	.L244:
 1450              		.loc 1 253 0
 1451 008c FF20     		movs	r0, #255
 1452 008e D6E7     		b	.L239
 1453              		.cfi_endproc
 1454              	.LFE9:
 1455              		.size	recv_tcp, .-recv_tcp
 1456              		.section	.text.sent_tcp,"ax",%progbits
 1457              		.align	2
 1458              		.p2align 4,,15
 1459              		.thumb
 1460              		.thumb_func
 1461              		.type	sent_tcp, %function
 1462              	sent_tcp:
 1463              	.LFB11:
 1464              		.loc 1 314 0
 1465              		.cfi_startproc
 1466              		@ args = 0, pretend = 0, frame = 0
 1467              		@ frame_needed = 0, uses_anonymous_args = 0
 1468              	.LVL187:
 1469 0000 38B5     		push	{r3, r4, r5, lr}
 1470              		.cfi_def_cfa_offset 16
 1471              		.cfi_offset 3, -16
 1472              		.cfi_offset 4, -12
 1473              		.cfi_offset 5, -8
 1474              		.cfi_offset 14, -4
ARM GAS  /tmp/ccT6pRdh.s 			page 27


 1475              		.loc 1 318 0
 1476 0002 0446     		mov	r4, r0
 1477              		.loc 1 314 0
 1478 0004 1546     		mov	r5, r2
 1479              		.loc 1 318 0
 1480 0006 18B3     		cbz	r0, .L260
 1481              	.LVL188:
 1482              	.L251:
 1483              		.loc 1 320 0
 1484 0008 6378     		ldrb	r3, [r4, #1]	@ zero_extendqisi2
 1485 000a 012B     		cmp	r3, #1
 1486 000c 18D0     		beq	.L261
 1487              		.loc 1 322 0
 1488 000e 042B     		cmp	r3, #4
 1489 0010 1AD0     		beq	.L262
 1490              	.L253:
 1491              		.loc 1 329 0
 1492 0012 6368     		ldr	r3, [r4, #4]
 1493 0014 93B1     		cbz	r3, .L255
 1494              		.loc 1 329 0 is_stmt 0 discriminator 1
 1495 0016 B3F86610 		ldrh	r1, [r3, #102]
 1496 001a B1F5866F 		cmp	r1, #1072
 1497 001e 0DD3     		bcc	.L255
 1498 0020 B3F86830 		ldrh	r3, [r3, #104]
 1499 0024 042B     		cmp	r3, #4
 1500 0026 09D8     		bhi	.L255
 1501              	.LVL189:
 1502              	.LBB9:
 1503              	.LBB10:
 1504              		.loc 1 331 0 is_stmt 1
 1505 0028 227F     		ldrb	r2, [r4, #28]	@ zero_extendqisi2
 1506              		.loc 1 332 0
 1507 002a A36A     		ldr	r3, [r4, #40]
 1508              		.loc 1 331 0
 1509 002c 22F01002 		bic	r2, r2, #16
 1510 0030 2277     		strb	r2, [r4, #28]
 1511              		.loc 1 332 0
 1512 0032 1BB1     		cbz	r3, .L255
 1513 0034 2046     		mov	r0, r4
 1514 0036 2A46     		mov	r2, r5
 1515 0038 0221     		movs	r1, #2
 1516 003a 9847     		blx	r3
 1517              	.LVL190:
 1518              	.L255:
 1519              	.LBE10:
 1520              	.LBE9:
 1521              		.loc 1 337 0
 1522 003c 0020     		movs	r0, #0
 1523 003e 38BD     		pop	{r3, r4, r5, pc}
 1524              	.LVL191:
 1525              	.L261:
 1526              		.loc 1 321 0
 1527 0040 2046     		mov	r0, r4
 1528 0042 FFF7FEFF 		bl	do_writemore
 1529              	.LVL192:
 1530 0046 E4E7     		b	.L253
 1531              	.L262:
ARM GAS  /tmp/ccT6pRdh.s 			page 28


 1532              		.loc 1 323 0
 1533 0048 2046     		mov	r0, r4
 1534 004a FFF7FEFF 		bl	do_close_internal
 1535              	.LVL193:
 1536 004e E0E7     		b	.L253
 1537              	.LVL194:
 1538              	.L260:
 1539              		.loc 1 318 0 discriminator 1
 1540 0050 FFF7FEFF 		bl	port_halt
 1541              	.LVL195:
 1542 0054 D8E7     		b	.L251
 1543              		.cfi_endproc
 1544              	.LFE11:
 1545              		.size	sent_tcp, .-sent_tcp
 1546 0056 00BFAFF3 		.section	.text.do_newconn,"ax",%progbits
 1546      0080AFF3 
 1546      0080
 1547              		.align	2
 1548              		.p2align 4,,15
 1549              		.global	do_newconn
 1550              		.thumb
 1551              		.thumb_func
 1552              		.type	do_newconn, %function
 1553              	do_newconn:
 1554              	.LFB16:
 1555              		.loc 1 549 0
 1556              		.cfi_startproc
 1557              		@ args = 0, pretend = 0, frame = 0
 1558              		@ frame_needed = 0, uses_anonymous_args = 0
 1559              	.LVL196:
 1560 0000 38B5     		push	{r3, r4, r5, lr}
 1561              		.cfi_def_cfa_offset 16
 1562              		.cfi_offset 3, -16
 1563              		.cfi_offset 4, -12
 1564              		.cfi_offset 5, -8
 1565              		.cfi_offset 14, -4
 1566              		.loc 1 550 0
 1567 0002 0023     		movs	r3, #0
 1568              		.loc 1 551 0
 1569 0004 0468     		ldr	r4, [r0]
 1570              		.loc 1 550 0
 1571 0006 0371     		strb	r3, [r0, #4]
 1572              		.loc 1 551 0
 1573 0008 6368     		ldr	r3, [r4, #4]
 1574              		.loc 1 549 0
 1575 000a 0546     		mov	r5, r0
 1576              		.loc 1 551 0
 1577 000c 2BB1     		cbz	r3, .L275
 1578              	.LVL197:
 1579              	.L264:
 1580              		.loc 1 558 0
 1581 000e 04F10C00 		add	r0, r4, #12
 1582              		.loc 1 559 0
 1583 0012 BDE83840 		pop	{r3, r4, r5, lr}
 1584              	.LVL198:
 1585              		.loc 1 558 0
 1586 0016 FFF7FEBF 		b	sys_sem_signal
ARM GAS  /tmp/ccT6pRdh.s 			page 29


 1587              	.LVL199:
 1588              	.L275:
 1589              	.LBB13:
 1590              	.LBB14:
 1591              		.loc 1 495 0
 1592 001a 2378     		ldrb	r3, [r4]	@ zero_extendqisi2
 1593 001c 03F0F003 		and	r3, r3, #240
 1594 0020 202B     		cmp	r3, #32
 1595 0022 21D0     		beq	.L266
 1596 0024 402B     		cmp	r3, #64
 1597 0026 0FD0     		beq	.L267
 1598 0028 102B     		cmp	r3, #16
 1599              		.loc 1 536 0
 1600 002a 1CBF     		itt	ne
 1601 002c FA23     		movne	r3, #250
 1602 002e 0371     		strbne	r3, [r0, #4]
 1603              		.loc 1 495 0
 1604 0030 EDD1     		bne	.L264
 1605              		.loc 1 526 0
 1606 0032 FFF7FEFF 		bl	tcp_new
 1607              	.LVL200:
 1608 0036 6060     		str	r0, [r4, #4]
 1609              		.loc 1 527 0
 1610 0038 2C68     		ldr	r4, [r5]
 1611 003a 6368     		ldr	r3, [r4, #4]
 1612 003c 5BB3     		cbz	r3, .L274
 1613              		.loc 1 531 0
 1614 003e 2046     		mov	r0, r4
 1615 0040 FFF7FEFF 		bl	setup_tcp
 1616              	.LVL201:
 1617 0044 2C68     		ldr	r4, [r5]
 1618 0046 E2E7     		b	.L264
 1619              	.LVL202:
 1620              	.L267:
 1621              		.loc 1 498 0
 1622 0048 007A     		ldrb	r0, [r0, #8]	@ zero_extendqisi2
 1623              	.LVL203:
 1624 004a FFF7FEFF 		bl	raw_new
 1625              	.LVL204:
 1626 004e 6060     		str	r0, [r4, #4]
 1627              		.loc 1 499 0
 1628 0050 2C68     		ldr	r4, [r5]
 1629 0052 6068     		ldr	r0, [r4, #4]
 1630 0054 F8B1     		cbz	r0, .L274
 1631              		.loc 1 503 0
 1632 0056 40F20001 		movw	r1, #:lower16:recv_raw
 1633 005a 2246     		mov	r2, r4
 1634 005c C0F20001 		movt	r1, #:upper16:recv_raw
 1635 0060 FFF7FEFF 		bl	raw_recv
 1636              	.LVL205:
 1637 0064 2C68     		ldr	r4, [r5]
 1638 0066 D2E7     		b	.L264
 1639              	.LVL206:
 1640              	.L266:
 1641              		.loc 1 508 0
 1642 0068 FFF7FEFF 		bl	udp_new
 1643              	.LVL207:
ARM GAS  /tmp/ccT6pRdh.s 			page 30


 1644 006c 6060     		str	r0, [r4, #4]
 1645              		.loc 1 509 0
 1646 006e 2C68     		ldr	r4, [r5]
 1647 0070 6068     		ldr	r0, [r4, #4]
 1648 0072 80B1     		cbz	r0, .L274
 1649              		.loc 1 518 0
 1650 0074 2378     		ldrb	r3, [r4]	@ zero_extendqisi2
 1651 0076 222B     		cmp	r3, #34
 1652              		.loc 1 519 0
 1653 0078 02BF     		ittt	eq
 1654 007a 0123     		moveq	r3, #1
 1655 007c 0374     		strbeq	r3, [r0, #16]
 1656 007e 2C68     		ldreq	r4, [r5]
 1657              		.loc 1 521 0
 1658 0080 40F20001 		movw	r1, #:lower16:recv_udp
 1659 0084 08BF     		it	eq
 1660 0086 6068     		ldreq	r0, [r4, #4]
 1661 0088 2246     		mov	r2, r4
 1662 008a C0F20001 		movt	r1, #:upper16:recv_udp
 1663 008e FFF7FEFF 		bl	udp_recv
 1664              	.LVL208:
 1665 0092 2C68     		ldr	r4, [r5]
 1666 0094 BBE7     		b	.L264
 1667              	.L274:
 1668              		.loc 1 528 0
 1669 0096 FF23     		movs	r3, #255
 1670 0098 2B71     		strb	r3, [r5, #4]
 1671 009a B8E7     		b	.L264
 1672              	.LBE14:
 1673              	.LBE13:
 1674              		.cfi_endproc
 1675              	.LFE16:
 1676              		.size	do_newconn, .-do_newconn
 1677 009c AFF30080 		.section	.text.netconn_alloc,"ax",%progbits
 1678              		.align	2
 1679              		.p2align 4,,15
 1680              		.global	netconn_alloc
 1681              		.thumb
 1682              		.thumb_func
 1683              		.type	netconn_alloc, %function
 1684              	netconn_alloc:
 1685              	.LFB17:
 1686              		.loc 1 573 0
 1687              		.cfi_startproc
 1688              		@ args = 0, pretend = 0, frame = 0
 1689              		@ frame_needed = 0, uses_anonymous_args = 0
 1690              	.LVL209:
 1691 0000 F8B5     		push	{r3, r4, r5, r6, r7, lr}
 1692              		.cfi_def_cfa_offset 24
 1693              		.cfi_offset 3, -24
 1694              		.cfi_offset 4, -20
 1695              		.cfi_offset 5, -16
 1696              		.cfi_offset 6, -12
 1697              		.cfi_offset 7, -8
 1698              		.cfi_offset 14, -4
 1699              		.loc 1 573 0
 1700 0002 0546     		mov	r5, r0
ARM GAS  /tmp/ccT6pRdh.s 			page 31


 1701              		.loc 1 577 0
 1702 0004 0820     		movs	r0, #8
 1703              	.LVL210:
 1704              		.loc 1 573 0
 1705 0006 0E46     		mov	r6, r1
 1706              		.loc 1 577 0
 1707 0008 FFF7FEFF 		bl	memp_malloc
 1708              	.LVL211:
 1709              		.loc 1 578 0
 1710 000c 0446     		mov	r4, r0
 1711 000e 0028     		cmp	r0, #0
 1712 0010 37D0     		beq	.L283
 1713              		.loc 1 590 0
 1714 0012 05F0F003 		and	r3, r5, #240
 1715              		.loc 1 582 0
 1716 0016 0022     		movs	r2, #0
 1717              		.loc 1 590 0
 1718 0018 202B     		cmp	r3, #32
 1719              		.loc 1 583 0
 1720 001a 0570     		strb	r5, [r0]
 1721              		.loc 1 582 0
 1722 001c 0272     		strb	r2, [r0, #8]
 1723              		.loc 1 584 0
 1724 001e 4260     		str	r2, [r0, #4]
 1725              		.loc 1 590 0
 1726 0020 29D0     		beq	.L279
 1727 0022 402B     		cmp	r3, #64
 1728 0024 27D0     		beq	.L279
 1729 0026 102B     		cmp	r3, #16
 1730 0028 07D0     		beq	.L284
 1731              		.loc 1 607 0
 1732 002a FFF7FEFF 		bl	port_halt
 1733              	.LVL212:
 1734              	.L281:
 1735              		.loc 1 646 0
 1736 002e 2146     		mov	r1, r4
 1737 0030 0820     		movs	r0, #8
 1738 0032 FFF7FEFF 		bl	memp_free
 1739              	.LVL213:
 1740              		.loc 1 647 0
 1741 0036 0020     		movs	r0, #0
 1742 0038 F8BD     		pop	{r3, r4, r5, r6, r7, pc}
 1743              	.LVL214:
 1744              	.L284:
 1745              		.loc 1 603 0
 1746 003a 2825     		movs	r5, #40
 1747              	.L280:
 1748              	.LVL215:
 1749              		.loc 1 612 0
 1750 003c 04F10C07 		add	r7, r4, #12
 1751 0040 3846     		mov	r0, r7
 1752              	.LVL216:
 1753 0042 0021     		movs	r1, #0
 1754 0044 FFF7FEFF 		bl	sys_sem_new
 1755              	.LVL217:
 1756 0048 0028     		cmp	r0, #0
 1757 004a F0D1     		bne	.L281
ARM GAS  /tmp/ccT6pRdh.s 			page 32


 1758              		.loc 1 615 0
 1759 004c 2946     		mov	r1, r5
 1760 004e 04F11000 		add	r0, r4, #16
 1761 0052 FFF7FEFF 		bl	sys_mbox_new
 1762              	.LVL218:
 1763 0056 0546     		mov	r5, r0
 1764              	.LVL219:
 1765 0058 78B9     		cbnz	r0, .L291
 1766              		.loc 1 621 0
 1767 005a 04F11400 		add	r0, r4, #20
 1768 005e FFF7FEFF 		bl	sys_mbox_set_invalid
 1769              	.LVL220:
 1770              		.loc 1 626 0
 1771 0062 4FF0FF33 		mov	r3, #-1
 1772              		.loc 1 643 0
 1773 0066 2577     		strb	r5, [r4, #28]
 1774              		.loc 1 623 0
 1775 0068 6570     		strb	r5, [r4, #1]
 1776              		.loc 1 628 0
 1777 006a A662     		str	r6, [r4, #40]
 1778              		.loc 1 630 0
 1779 006c 6562     		str	r5, [r4, #36]
 1780              		.loc 1 631 0
 1781 006e 2562     		str	r5, [r4, #32]
 1782              		.loc 1 626 0
 1783 0070 A361     		str	r3, [r4, #24]
 1784              		.loc 1 644 0
 1785 0072 2046     		mov	r0, r4
 1786 0074 F8BD     		pop	{r3, r4, r5, r6, r7, pc}
 1787              	.LVL221:
 1788              	.L279:
 1789              		.loc 1 593 0
 1790 0076 0425     		movs	r5, #4
 1791 0078 E0E7     		b	.L280
 1792              	.LVL222:
 1793              	.L291:
 1794              		.loc 1 616 0
 1795 007a 3846     		mov	r0, r7
 1796 007c FFF7FEFF 		bl	sys_sem_free
 1797              	.LVL223:
 1798              		.loc 1 617 0
 1799 0080 D5E7     		b	.L281
 1800              	.LVL224:
 1801              	.L283:
 1802              		.loc 1 648 0
 1803 0082 F8BD     		pop	{r3, r4, r5, r6, r7, pc}
 1804              		.cfi_endproc
 1805              	.LFE17:
 1806              		.size	netconn_alloc, .-netconn_alloc
 1807 0084 AFF30080 		.section	.text.netconn_free,"ax",%progbits
 1807      AFF30080 
 1807      AFF30080 
 1808              		.align	2
 1809              		.p2align 4,,15
 1810              		.global	netconn_free
 1811              		.thumb
 1812              		.thumb_func
ARM GAS  /tmp/ccT6pRdh.s 			page 33


 1813              		.type	netconn_free, %function
 1814              	netconn_free:
 1815              	.LFB18:
 1816              		.loc 1 658 0
 1817              		.cfi_startproc
 1818              		@ args = 0, pretend = 0, frame = 0
 1819              		@ frame_needed = 0, uses_anonymous_args = 0
 1820              	.LVL225:
 1821 0000 38B5     		push	{r3, r4, r5, lr}
 1822              		.cfi_def_cfa_offset 16
 1823              		.cfi_offset 3, -16
 1824              		.cfi_offset 4, -12
 1825              		.cfi_offset 5, -8
 1826              		.cfi_offset 14, -4
 1827              		.loc 1 659 0
 1828 0002 4368     		ldr	r3, [r0, #4]
 1829              		.loc 1 658 0
 1830 0004 0446     		mov	r4, r0
 1831              		.loc 1 659 0
 1832 0006 0BB1     		cbz	r3, .L293
 1833              		.loc 1 659 0 is_stmt 0 discriminator 1
 1834 0008 FFF7FEFF 		bl	port_halt
 1835              	.LVL226:
 1836              	.L293:
 1837              		.loc 1 660 0 is_stmt 1
 1838 000c 04F11000 		add	r0, r4, #16
 1839 0010 FFF7FEFF 		bl	sys_mbox_valid
 1840              	.LVL227:
 1841 0014 A0B9     		cbnz	r0, .L305
 1842              	.L294:
 1843              		.loc 1 663 0
 1844 0016 04F11400 		add	r0, r4, #20
 1845 001a FFF7FEFF 		bl	sys_mbox_valid
 1846              	.LVL228:
 1847 001e 08B1     		cbz	r0, .L295
 1848              		.loc 1 663 0 is_stmt 0 discriminator 1
 1849 0020 FFF7FEFF 		bl	port_halt
 1850              	.LVL229:
 1851              	.L295:
 1852              		.loc 1 667 0 is_stmt 1
 1853 0024 04F10C05 		add	r5, r4, #12
 1854 0028 2846     		mov	r0, r5
 1855 002a FFF7FEFF 		bl	sys_sem_free
 1856              	.LVL230:
 1857              		.loc 1 668 0
 1858 002e 2846     		mov	r0, r5
 1859 0030 FFF7FEFF 		bl	sys_sem_set_invalid
 1860              	.LVL231:
 1861              		.loc 1 670 0
 1862 0034 2146     		mov	r1, r4
 1863 0036 0820     		movs	r0, #8
 1864              		.loc 1 671 0
 1865 0038 BDE83840 		pop	{r3, r4, r5, lr}
 1866              	.LVL232:
 1867              		.loc 1 670 0
 1868 003c FFF7FEBF 		b	memp_free
 1869              	.LVL233:
ARM GAS  /tmp/ccT6pRdh.s 			page 34


 1870              	.L305:
 1871              		.loc 1 660 0 discriminator 1
 1872 0040 FFF7FEFF 		bl	port_halt
 1873              	.LVL234:
 1874 0044 E7E7     		b	.L294
 1875              		.cfi_endproc
 1876              	.LFE18:
 1877              		.size	netconn_free, .-netconn_free
 1878 0046 00BFAFF3 		.section	.text.netconn_drain,"ax",%progbits
 1878      0080AFF3 
 1878      0080
 1879              		.align	2
 1880              		.p2align 4,,15
 1881              		.thumb
 1882              		.thumb_func
 1883              		.type	netconn_drain, %function
 1884              	netconn_drain:
 1885              	.LFB19:
 1886              		.loc 1 683 0
 1887              		.cfi_startproc
 1888              		@ args = 0, pretend = 0, frame = 8
 1889              		@ frame_needed = 0, uses_anonymous_args = 0
 1890              	.LVL235:
 1891 0000 2DE9F041 		push	{r4, r5, r6, r7, r8, lr}
 1892              		.cfi_def_cfa_offset 24
 1893              		.cfi_offset 4, -24
 1894              		.cfi_offset 5, -20
 1895              		.cfi_offset 6, -16
 1896              		.cfi_offset 7, -12
 1897              		.cfi_offset 8, -8
 1898              		.cfi_offset 14, -4
 1899              		.loc 1 692 0
 1900 0004 00F11004 		add	r4, r0, #16
 1901              		.loc 1 683 0
 1902 0008 82B0     		sub	sp, sp, #8
 1903              		.cfi_def_cfa_offset 32
 1904              		.loc 1 683 0
 1905 000a 0546     		mov	r5, r0
 1906              		.loc 1 692 0
 1907 000c 2046     		mov	r0, r4
 1908              	.LVL236:
 1909 000e FFF7FEFF 		bl	sys_mbox_valid
 1910              	.LVL237:
 1911 0012 01AE     		add	r6, sp, #4
 1912 0014 0028     		cmp	r0, #0
 1913 0016 30D1     		bne	.L308
 1914              	.L307:
 1915              		.loc 1 716 0
 1916 0018 05F11407 		add	r7, r5, #20
 1917 001c 3846     		mov	r0, r7
 1918 001e FFF7FEFF 		bl	sys_mbox_valid
 1919              	.LVL238:
 1920 0022 01AE     		add	r6, sp, #4
 1921              	.LBB15:
 1922              		.loc 1 728 0
 1923 0024 4FF00008 		mov	r8, #0
 1924              	.LBE15:
ARM GAS  /tmp/ccT6pRdh.s 			page 35


 1925              		.loc 1 716 0
 1926 0028 A8B9     		cbnz	r0, .L314
 1927 002a 20E0     		b	.L306
 1928              	.L317:
 1929              	.LBB16:
 1930              		.loc 1 721 0
 1931 002c 6B68     		ldr	r3, [r5, #4]
 1932              		.loc 1 718 0
 1933 002e 019C     		ldr	r4, [sp, #4]
 1934              	.LVL239:
 1935              		.loc 1 721 0
 1936 0030 23B1     		cbz	r3, .L315
 1937              		.loc 1 722 0
 1938 0032 1B7E     		ldrb	r3, [r3, #24]	@ zero_extendqisi2
 1939 0034 012B     		cmp	r3, #1
 1940 0036 01D0     		beq	.L315
 1941              		.loc 1 722 0 is_stmt 0 discriminator 1
 1942 0038 FFF7FEFF 		bl	port_halt
 1943              	.LVL240:
 1944              	.L315:
 1945              		.loc 1 725 0 is_stmt 1
 1946 003c 2046     		mov	r0, r4
 1947 003e FFF7DFFF 		bl	netconn_drain
 1948              	.LVL241:
 1949              		.loc 1 726 0
 1950 0042 6368     		ldr	r3, [r4, #4]
 1951              		.loc 1 727 0
 1952 0044 1846     		mov	r0, r3
 1953              		.loc 1 726 0
 1954 0046 1BB1     		cbz	r3, .L316
 1955              		.loc 1 727 0
 1956 0048 FFF7FEFF 		bl	tcp_abort
 1957              	.LVL242:
 1958              		.loc 1 728 0
 1959 004c C4F80480 		str	r8, [r4, #4]
 1960              	.L316:
 1961              		.loc 1 730 0
 1962 0050 2046     		mov	r0, r4
 1963 0052 FFF7FEFF 		bl	netconn_free
 1964              	.LVL243:
 1965              	.L314:
 1966              	.LBE16:
 1967              		.loc 1 717 0 discriminator 1
 1968 0056 3846     		mov	r0, r7
 1969 0058 3146     		mov	r1, r6
 1970 005a FFF7FEFF 		bl	sys_arch_mbox_tryfetch
 1971              	.LVL244:
 1972 005e 0130     		adds	r0, r0, #1
 1973 0060 E4D1     		bne	.L317
 1974              		.loc 1 732 0
 1975 0062 3846     		mov	r0, r7
 1976 0064 FFF7FEFF 		bl	sys_mbox_free
 1977              	.LVL245:
 1978              		.loc 1 733 0
 1979 0068 3846     		mov	r0, r7
 1980 006a FFF7FEFF 		bl	sys_mbox_set_invalid
 1981              	.LVL246:
ARM GAS  /tmp/ccT6pRdh.s 			page 36


 1982              	.L306:
 1983              		.loc 1 736 0
 1984 006e 02B0     		add	sp, sp, #8
 1985              		@ sp needed
 1986 0070 BDE8F081 		pop	{r4, r5, r6, r7, r8, pc}
 1987              	.LVL247:
 1988              	.L309:
 1989              		.loc 1 707 0
 1990 0074 0198     		ldr	r0, [sp, #4]
 1991 0076 FFF7FEFF 		bl	netbuf_delete
 1992              	.LVL248:
 1993              	.L308:
 1994              		.loc 1 693 0 discriminator 1
 1995 007a 2046     		mov	r0, r4
 1996 007c 3146     		mov	r1, r6
 1997 007e FFF7FEFF 		bl	sys_arch_mbox_tryfetch
 1998              	.LVL249:
 1999 0082 0130     		adds	r0, r0, #1
 2000 0084 0FD0     		beq	.L339
 2001              		.loc 1 695 0
 2002 0086 2B78     		ldrb	r3, [r5]	@ zero_extendqisi2
 2003 0088 102B     		cmp	r3, #16
 2004 008a F3D1     		bne	.L309
 2005              		.loc 1 696 0
 2006 008c 019F     		ldr	r7, [sp, #4]
 2007              	.LVL250:
 2008 008e 002F     		cmp	r7, #0
 2009 0090 F3D0     		beq	.L308
 2010              		.loc 1 699 0
 2011 0092 6B68     		ldr	r3, [r5, #4]
 2012              		.loc 1 700 0
 2013 0094 1846     		mov	r0, r3
 2014              		.loc 1 699 0
 2015 0096 13B1     		cbz	r3, .L311
 2016              		.loc 1 700 0
 2017 0098 3989     		ldrh	r1, [r7, #8]
 2018 009a FFF7FEFF 		bl	tcp_recved
 2019              	.LVL251:
 2020              	.L311:
 2021              		.loc 1 702 0
 2022 009e 3846     		mov	r0, r7
 2023 00a0 FFF7FEFF 		bl	pbuf_free
 2024              	.LVL252:
 2025 00a4 E9E7     		b	.L308
 2026              	.LVL253:
 2027              	.L339:
 2028              		.loc 1 710 0
 2029 00a6 2046     		mov	r0, r4
 2030 00a8 FFF7FEFF 		bl	sys_mbox_free
 2031              	.LVL254:
 2032              		.loc 1 711 0
 2033 00ac 2046     		mov	r0, r4
 2034 00ae FFF7FEFF 		bl	sys_mbox_set_invalid
 2035              	.LVL255:
 2036 00b2 B1E7     		b	.L307
 2037              		.cfi_endproc
 2038              	.LFE19:
ARM GAS  /tmp/ccT6pRdh.s 			page 37


 2039              		.size	netconn_drain, .-netconn_drain
 2040 00b4 AFF30080 		.section	.text.accept_function,"ax",%progbits
 2040      AFF30080 
 2040      AFF30080 
 2041              		.align	2
 2042              		.p2align 4,,15
 2043              		.thumb
 2044              		.thumb_func
 2045              		.type	accept_function, %function
 2046              	accept_function:
 2047              	.LFB14:
 2048              		.loc 1 433 0
 2049              		.cfi_startproc
 2050              		@ args = 0, pretend = 0, frame = 0
 2051              		@ frame_needed = 0, uses_anonymous_args = 0
 2052              	.LVL256:
 2053 0000 2DE9F041 		push	{r4, r5, r6, r7, r8, lr}
 2054              		.cfi_def_cfa_offset 24
 2055              		.cfi_offset 4, -24
 2056              		.cfi_offset 5, -20
 2057              		.cfi_offset 6, -16
 2058              		.cfi_offset 7, -12
 2059              		.cfi_offset 8, -8
 2060              		.cfi_offset 14, -4
 2061              		.loc 1 439 0
 2062 0004 00F11405 		add	r5, r0, #20
 2063              		.loc 1 433 0
 2064 0008 0446     		mov	r4, r0
 2065              	.LVL257:
 2066              		.loc 1 439 0
 2067 000a 2846     		mov	r0, r5
 2068              	.LVL258:
 2069              		.loc 1 433 0
 2070 000c 8846     		mov	r8, r1
 2071 000e 1746     		mov	r7, r2
 2072              		.loc 1 439 0
 2073 0010 FFF7FEFF 		bl	sys_mbox_valid
 2074              	.LVL259:
 2075 0014 D8B1     		cbz	r0, .L343
 2076              		.loc 1 446 0
 2077 0016 2078     		ldrb	r0, [r4]	@ zero_extendqisi2
 2078 0018 A16A     		ldr	r1, [r4, #40]
 2079 001a FFF7FEFF 		bl	netconn_alloc
 2080              	.LVL260:
 2081              		.loc 1 447 0
 2082 001e 0646     		mov	r6, r0
 2083 0020 B8B1     		cbz	r0, .L344
 2084              		.loc 1 450 0
 2085 0022 C0F80480 		str	r8, [r0, #4]
 2086              		.loc 1 451 0
 2087 0026 FFF7FEFF 		bl	setup_tcp
 2088              	.LVL261:
 2089              		.loc 1 456 0
 2090 002a 2846     		mov	r0, r5
 2091              		.loc 1 454 0
 2092 002c 3772     		strb	r7, [r6, #8]
 2093              		.loc 1 456 0
ARM GAS  /tmp/ccT6pRdh.s 			page 38


 2094 002e 3146     		mov	r1, r6
 2095 0030 FFF7FEFF 		bl	sys_mbox_trypost
 2096              	.LVL262:
 2097 0034 0546     		mov	r5, r0
 2098 0036 70B9     		cbnz	r0, .L346
 2099              		.loc 1 475 0
 2100 0038 A36A     		ldr	r3, [r4, #40]
 2101              		.loc 1 478 0
 2102 003a 1846     		mov	r0, r3
 2103              		.loc 1 475 0
 2104 003c 23B1     		cbz	r3, .L341
 2105              		.loc 1 475 0 is_stmt 0 discriminator 1
 2106 003e 2046     		mov	r0, r4
 2107 0040 2946     		mov	r1, r5
 2108 0042 2A46     		mov	r2, r5
 2109 0044 9847     		blx	r3
 2110              	.LVL263:
 2111              		.loc 1 478 0 is_stmt 1 discriminator 1
 2112 0046 2846     		mov	r0, r5
 2113              	.LVL264:
 2114              	.L341:
 2115              		.loc 1 479 0
 2116 0048 40B2     		sxtb	r0, r0
 2117 004a BDE8F081 		pop	{r4, r5, r6, r7, r8, pc}
 2118              	.LVL265:
 2119              	.L343:
 2120              		.loc 1 441 0
 2121 004e FA20     		movs	r0, #250
 2122 0050 FAE7     		b	.L341
 2123              	.LVL266:
 2124              	.L344:
 2125              		.loc 1 448 0
 2126 0052 FF20     		movs	r0, #255
 2127              	.LVL267:
 2128 0054 F8E7     		b	.L341
 2129              	.L346:
 2130              	.LBB17:
 2131              		.loc 1 460 0
 2132 0056 7468     		ldr	r4, [r6, #4]
 2133              	.LVL268:
 2134              		.loc 1 461 0
 2135 0058 0021     		movs	r1, #0
 2136 005a 2046     		mov	r0, r4
 2137 005c FFF7FEFF 		bl	tcp_arg
 2138              	.LVL269:
 2139              		.loc 1 462 0
 2140 0060 2046     		mov	r0, r4
 2141 0062 0021     		movs	r1, #0
 2142 0064 FFF7FEFF 		bl	tcp_recv
 2143              	.LVL270:
 2144              		.loc 1 463 0
 2145 0068 2046     		mov	r0, r4
 2146 006a 0021     		movs	r1, #0
 2147 006c FFF7FEFF 		bl	tcp_sent
 2148              	.LVL271:
 2149              		.loc 1 464 0
 2150 0070 0422     		movs	r2, #4
ARM GAS  /tmp/ccT6pRdh.s 			page 39


 2151 0072 2046     		mov	r0, r4
 2152 0074 0021     		movs	r1, #0
 2153 0076 FFF7FEFF 		bl	tcp_poll
 2154              	.LVL272:
 2155              		.loc 1 465 0
 2156 007a 0021     		movs	r1, #0
 2157 007c 2046     		mov	r0, r4
 2158 007e FFF7FEFF 		bl	tcp_err
 2159              	.LVL273:
 2160              		.loc 1 469 0
 2161 0082 06F11004 		add	r4, r6, #16
 2162              	.LVL274:
 2163              		.loc 1 467 0
 2164 0086 0023     		movs	r3, #0
 2165 0088 7360     		str	r3, [r6, #4]
 2166              		.loc 1 469 0
 2167 008a 2046     		mov	r0, r4
 2168 008c FFF7FEFF 		bl	sys_mbox_free
 2169              	.LVL275:
 2170              		.loc 1 470 0
 2171 0090 2046     		mov	r0, r4
 2172 0092 FFF7FEFF 		bl	sys_mbox_set_invalid
 2173              	.LVL276:
 2174              		.loc 1 471 0
 2175 0096 3046     		mov	r0, r6
 2176 0098 FFF7FEFF 		bl	netconn_free
 2177              	.LVL277:
 2178              		.loc 1 472 0
 2179 009c FF20     		movs	r0, #255
 2180 009e D3E7     		b	.L341
 2181              	.LBE17:
 2182              		.cfi_endproc
 2183              	.LFE14:
 2184              		.size	accept_function, .-accept_function
 2185              		.section	.text.do_delconn,"ax",%progbits
 2186              		.align	2
 2187              		.p2align 4,,15
 2188              		.global	do_delconn
 2189              		.thumb
 2190              		.thumb_func
 2191              		.type	do_delconn, %function
 2192              	do_delconn:
 2193              	.LFB21:
 2194              		.loc 1 833 0
 2195              		.cfi_startproc
 2196              		@ args = 0, pretend = 0, frame = 0
 2197              		@ frame_needed = 0, uses_anonymous_args = 0
 2198              	.LVL278:
 2199 0000 38B5     		push	{r3, r4, r5, lr}
 2200              		.cfi_def_cfa_offset 16
 2201              		.cfi_offset 3, -16
 2202              		.cfi_offset 4, -12
 2203              		.cfi_offset 5, -8
 2204              		.cfi_offset 14, -4
 2205              		.loc 1 835 0
 2206 0002 0368     		ldr	r3, [r0]
 2207 0004 5A78     		ldrb	r2, [r3, #1]	@ zero_extendqisi2
ARM GAS  /tmp/ccT6pRdh.s 			page 40


 2208 0006 12F0FD0F 		tst	r2, #253
 2209              		.loc 1 833 0
 2210 000a 0446     		mov	r4, r0
 2211              		.loc 1 835 0
 2212 000c 16D0     		beq	.L348
 2213              		.loc 1 836 0
 2214 000e 032A     		cmp	r2, #3
 2215 0010 0ED0     		beq	.L349
 2216              		.loc 1 839 0
 2217 0012 1A78     		ldrb	r2, [r3]	@ zero_extendqisi2
 2218 0014 102A     		cmp	r2, #16
 2219 0016 02D0     		beq	.L350
 2220              		.loc 1 839 0 is_stmt 0 discriminator 1
 2221 0018 FFF7FEFF 		bl	port_halt
 2222              	.LVL279:
 2223 001c 2368     		ldr	r3, [r4]
 2224              	.L350:
 2225              		.loc 1 840 0 is_stmt 1
 2226 001e FB22     		movs	r2, #251
 2227 0020 2271     		strb	r2, [r4, #4]
 2228              	.L351:
 2229              		.loc 1 885 0
 2230 0022 03F10C00 		add	r0, r3, #12
 2231 0026 FFF7FEFF 		bl	sys_sem_valid
 2232              	.LVL280:
 2233 002a 0028     		cmp	r0, #0
 2234 002c 2ED1     		bne	.L378
 2235              	.L347:
 2236 002e 38BD     		pop	{r3, r4, r5, pc}
 2237              	.LVL281:
 2238              	.L349:
 2239              		.loc 1 842 0 discriminator 1
 2240 0030 1A7F     		ldrb	r2, [r3, #28]	@ zero_extendqisi2
 2241 0032 5207     		lsls	r2, r2, #29
 2242 0034 02D4     		bmi	.L348
 2243 0036 FFF7FEFF 		bl	port_halt
 2244              	.LVL282:
 2245 003a 2368     		ldr	r3, [r4]
 2246              	.L348:
 2247              		.loc 1 845 0
 2248 003c 1846     		mov	r0, r3
 2249 003e FFF7FEFF 		bl	netconn_drain
 2250              	.LVL283:
 2251              		.loc 1 847 0
 2252 0042 2368     		ldr	r3, [r4]
 2253 0044 5868     		ldr	r0, [r3, #4]
 2254 0046 58B1     		cbz	r0, .L352
 2255              		.loc 1 849 0
 2256 0048 1A78     		ldrb	r2, [r3]	@ zero_extendqisi2
 2257 004a 02F0F002 		and	r2, r2, #240
 2258 004e 202A     		cmp	r2, #32
 2259 0050 22D0     		beq	.L354
 2260 0052 402A     		cmp	r2, #64
 2261 0054 39D0     		beq	.L355
 2262 0056 102A     		cmp	r2, #16
 2263 0058 28D0     		beq	.L379
 2264              		.loc 1 876 0
ARM GAS  /tmp/ccT6pRdh.s 			page 41


 2265 005a 0022     		movs	r2, #0
 2266 005c 5A60     		str	r2, [r3, #4]
 2267 005e 2368     		ldr	r3, [r4]
 2268              	.L352:
 2269              		.loc 1 882 0
 2270 0060 9D6A     		ldr	r5, [r3, #40]
 2271 0062 002D     		cmp	r5, #0
 2272 0064 DDD0     		beq	.L351
 2273              		.loc 1 882 0 is_stmt 0 discriminator 1
 2274 0066 0021     		movs	r1, #0
 2275 0068 1846     		mov	r0, r3
 2276 006a 0A46     		mov	r2, r1
 2277 006c A847     		blx	r5
 2278              	.LVL284:
 2279              		.loc 1 883 0 is_stmt 1 discriminator 1
 2280 006e 2368     		ldr	r3, [r4]
 2281 0070 9D6A     		ldr	r5, [r3, #40]
 2282 0072 002D     		cmp	r5, #0
 2283 0074 D5D0     		beq	.L351
 2284 0076 1846     		mov	r0, r3
 2285 0078 0221     		movs	r1, #2
 2286 007a 0022     		movs	r2, #0
 2287 007c A847     		blx	r5
 2288              	.LVL285:
 2289 007e 2368     		ldr	r3, [r4]
 2290              		.loc 1 885 0 discriminator 1
 2291 0080 03F10C00 		add	r0, r3, #12
 2292 0084 FFF7FEFF 		bl	sys_sem_valid
 2293              	.LVL286:
 2294 0088 0028     		cmp	r0, #0
 2295 008a D0D0     		beq	.L347
 2296              	.L378:
 2297              		.loc 1 886 0
 2298 008c 2068     		ldr	r0, [r4]
 2299              		.loc 1 888 0
 2300 008e BDE83840 		pop	{r3, r4, r5, lr}
 2301              	.LVL287:
 2302              		.loc 1 886 0
 2303 0092 0C30     		adds	r0, r0, #12
 2304 0094 FFF7FEBF 		b	sys_sem_signal
 2305              	.LVL288:
 2306              	.L354:
 2307              		.loc 1 857 0
 2308 0098 0022     		movs	r2, #0
 2309 009a C261     		str	r2, [r0, #28]
 2310              		.loc 1 858 0
 2311 009c 5868     		ldr	r0, [r3, #4]
 2312 009e FFF7FEFF 		bl	udp_remove
 2313              	.LVL289:
 2314 00a2 2368     		ldr	r3, [r4]
 2315              		.loc 1 876 0
 2316 00a4 0022     		movs	r2, #0
 2317 00a6 5A60     		str	r2, [r3, #4]
 2318 00a8 2368     		ldr	r3, [r4]
 2319 00aa D9E7     		b	.L352
 2320              	.L379:
 2321              		.loc 1 863 0
ARM GAS  /tmp/ccT6pRdh.s 			page 42


 2322 00ac 5A6A     		ldr	r2, [r3, #36]
 2323 00ae 9AB1     		cbz	r2, .L380
 2324              	.L357:
 2325              		.loc 1 863 0 is_stmt 0 discriminator 1
 2326 00b0 FFF7FEFF 		bl	port_halt
 2327              	.LVL290:
 2328 00b4 2368     		ldr	r3, [r4]
 2329              	.L358:
 2330              		.loc 1 865 0 is_stmt 1
 2331 00b6 0421     		movs	r1, #4
 2332              		.loc 1 866 0
 2333 00b8 0322     		movs	r2, #3
 2334              		.loc 1 865 0
 2335 00ba 5970     		strb	r1, [r3, #1]
 2336              		.loc 1 866 0
 2337 00bc 2272     		strb	r2, [r4, #8]
 2338              		.loc 1 868 0
 2339 00be 1846     		mov	r0, r3
 2340              		.loc 1 867 0
 2341 00c0 5C62     		str	r4, [r3, #36]
 2342              		.loc 1 888 0
 2343 00c2 BDE83840 		pop	{r3, r4, r5, lr}
 2344              	.LVL291:
 2345              		.loc 1 868 0
 2346 00c6 FFF7FEBF 		b	do_close_internal
 2347              	.LVL292:
 2348              	.L355:
 2349              		.loc 1 852 0
 2350 00ca FFF7FEFF 		bl	raw_remove
 2351              	.LVL293:
 2352 00ce 2368     		ldr	r3, [r4]
 2353              		.loc 1 876 0
 2354 00d0 0022     		movs	r2, #0
 2355 00d2 5A60     		str	r2, [r3, #4]
 2356 00d4 2368     		ldr	r3, [r4]
 2357 00d6 C3E7     		b	.L352
 2358              	.L380:
 2359              		.loc 1 863 0 discriminator 2
 2360 00d8 1A6A     		ldr	r2, [r3, #32]
 2361 00da 002A     		cmp	r2, #0
 2362 00dc E8D1     		bne	.L357
 2363 00de EAE7     		b	.L358
 2364              		.cfi_endproc
 2365              	.LFE21:
 2366              		.size	do_delconn, .-do_delconn
 2367              		.section	.text.do_bind,"ax",%progbits
 2368              		.align	2
 2369              		.p2align 4,,15
 2370              		.global	do_bind
 2371              		.thumb
 2372              		.thumb_func
 2373              		.type	do_bind, %function
 2374              	do_bind:
 2375              	.LFB22:
 2376              		.loc 1 899 0
 2377              		.cfi_startproc
 2378              		@ args = 0, pretend = 0, frame = 0
ARM GAS  /tmp/ccT6pRdh.s 			page 43


 2379              		@ frame_needed = 0, uses_anonymous_args = 0
 2380              	.LVL294:
 2381 0000 10B5     		push	{r4, lr}
 2382              		.cfi_def_cfa_offset 8
 2383              		.cfi_offset 4, -8
 2384              		.cfi_offset 14, -4
 2385              		.loc 1 900 0
 2386 0002 0368     		ldr	r3, [r0]
 2387 0004 1A7A     		ldrb	r2, [r3, #8]	@ zero_extendqisi2
 2388 0006 51B2     		sxtb	r1, r2
 2389 0008 0931     		adds	r1, r1, #9
 2390              		.loc 1 899 0
 2391 000a 0446     		mov	r4, r0
 2392              		.loc 1 901 0
 2393 000c B8BF     		it	lt
 2394 000e 0271     		strblt	r2, [r0, #4]
 2395              		.loc 1 900 0
 2396 0010 0CDB     		blt	.L383
 2397              		.loc 1 903 0
 2398 0012 FA22     		movs	r2, #250
 2399 0014 0271     		strb	r2, [r0, #4]
 2400              		.loc 1 904 0
 2401 0016 5868     		ldr	r0, [r3, #4]
 2402              	.LVL295:
 2403 0018 40B1     		cbz	r0, .L383
 2404              		.loc 1 905 0
 2405 001a 1A78     		ldrb	r2, [r3]	@ zero_extendqisi2
 2406 001c 02F0F002 		and	r2, r2, #240
 2407 0020 202A     		cmp	r2, #32
 2408 0022 09D0     		beq	.L384
 2409 0024 402A     		cmp	r2, #64
 2410 0026 1FD0     		beq	.L385
 2411 0028 102A     		cmp	r2, #16
 2412 002a 11D0     		beq	.L390
 2413              	.L383:
 2414              		.loc 1 926 0
 2415 002c 03F10C00 		add	r0, r3, #12
 2416              		.loc 1 927 0
 2417 0030 BDE81040 		pop	{r4, lr}
 2418              	.LVL296:
 2419              		.loc 1 926 0
 2420 0034 FFF7FEBF 		b	sys_sem_signal
 2421              	.LVL297:
 2422              	.L384:
 2423              		.loc 1 913 0
 2424 0038 A168     		ldr	r1, [r4, #8]
 2425 003a A289     		ldrh	r2, [r4, #12]
 2426 003c FFF7FEFF 		bl	udp_bind
 2427              	.LVL298:
 2428 0040 2368     		ldr	r3, [r4]
 2429 0042 2071     		strb	r0, [r4, #4]
 2430              		.loc 1 927 0
 2431 0044 BDE81040 		pop	{r4, lr}
 2432              	.LVL299:
 2433              		.loc 1 926 0
 2434 0048 03F10C00 		add	r0, r3, #12
 2435 004c FFF7FEBF 		b	sys_sem_signal
ARM GAS  /tmp/ccT6pRdh.s 			page 44


 2436              	.LVL300:
 2437              	.L390:
 2438              		.loc 1 918 0
 2439 0050 A168     		ldr	r1, [r4, #8]
 2440 0052 A289     		ldrh	r2, [r4, #12]
 2441 0054 FFF7FEFF 		bl	tcp_bind
 2442              	.LVL301:
 2443 0058 2368     		ldr	r3, [r4]
 2444 005a 2071     		strb	r0, [r4, #4]
 2445              		.loc 1 927 0
 2446 005c BDE81040 		pop	{r4, lr}
 2447              	.LVL302:
 2448              		.loc 1 926 0
 2449 0060 03F10C00 		add	r0, r3, #12
 2450 0064 FFF7FEBF 		b	sys_sem_signal
 2451              	.LVL303:
 2452              	.L385:
 2453              		.loc 1 908 0
 2454 0068 A168     		ldr	r1, [r4, #8]
 2455 006a FFF7FEFF 		bl	raw_bind
 2456              	.LVL304:
 2457 006e 2368     		ldr	r3, [r4]
 2458 0070 2071     		strb	r0, [r4, #4]
 2459              		.loc 1 927 0
 2460 0072 BDE81040 		pop	{r4, lr}
 2461              	.LVL305:
 2462              		.loc 1 926 0
 2463 0076 03F10C00 		add	r0, r3, #12
 2464 007a FFF7FEBF 		b	sys_sem_signal
 2465              	.LVL306:
 2466              		.cfi_endproc
 2467              	.LFE22:
 2468              		.size	do_bind, .-do_bind
 2469 007e 00BF     		.section	.text.do_connect,"ax",%progbits
 2470              		.align	2
 2471              		.p2align 4,,15
 2472              		.global	do_connect
 2473              		.thumb
 2474              		.thumb_func
 2475              		.type	do_connect, %function
 2476              	do_connect:
 2477              	.LFB24:
 2478              		.loc 1 985 0
 2479              		.cfi_startproc
 2480              		@ args = 0, pretend = 0, frame = 0
 2481              		@ frame_needed = 0, uses_anonymous_args = 0
 2482              	.LVL307:
 2483 0000 10B5     		push	{r4, lr}
 2484              		.cfi_def_cfa_offset 8
 2485              		.cfi_offset 4, -8
 2486              		.cfi_offset 14, -4
 2487              		.loc 1 986 0
 2488 0002 0368     		ldr	r3, [r0]
 2489              		.loc 1 985 0
 2490 0004 0446     		mov	r4, r0
 2491              		.loc 1 986 0
 2492 0006 5868     		ldr	r0, [r3, #4]
ARM GAS  /tmp/ccT6pRdh.s 			page 45


 2493              	.LVL308:
 2494 0008 0028     		cmp	r0, #0
 2495 000a 51D0     		beq	.L404
 2496              		.loc 1 990 0
 2497 000c 1A78     		ldrb	r2, [r3]	@ zero_extendqisi2
 2498 000e 02F0F002 		and	r2, r2, #240
 2499 0012 202A     		cmp	r2, #32
 2500 0014 23D0     		beq	.L395
 2501 0016 402A     		cmp	r2, #64
 2502 0018 0CD0     		beq	.L396
 2503 001a 102A     		cmp	r2, #16
 2504 001c 15D0     		beq	.L405
 2505              		.loc 1 1027 0 discriminator 1
 2506 001e FFF7FEFF 		bl	port_halt
 2507              	.LVL309:
 2508 0022 FA22     		movs	r2, #250
 2509 0024 2368     		ldr	r3, [r4]
 2510 0026 2271     		strb	r2, [r4, #4]
 2511              	.L393:
 2512              		.loc 1 1031 0
 2513 0028 03F10C00 		add	r0, r3, #12
 2514              		.loc 1 1032 0
 2515 002c BDE81040 		pop	{r4, lr}
 2516              	.LVL310:
 2517              		.loc 1 1031 0
 2518 0030 FFF7FEBF 		b	sys_sem_signal
 2519              	.LVL311:
 2520              	.L396:
 2521              		.loc 1 993 0
 2522 0034 A168     		ldr	r1, [r4, #8]
 2523 0036 FFF7FEFF 		bl	raw_connect
 2524              	.LVL312:
 2525 003a 2368     		ldr	r3, [r4]
 2526 003c 2071     		strb	r0, [r4, #4]
 2527              		.loc 1 1032 0
 2528 003e BDE81040 		pop	{r4, lr}
 2529              	.LVL313:
 2530              		.loc 1 1031 0
 2531 0042 03F10C00 		add	r0, r3, #12
 2532 0046 FFF7FEBF 		b	sys_sem_signal
 2533              	.LVL314:
 2534              	.L405:
 2535              		.loc 1 1004 0
 2536 004a 5A78     		ldrb	r2, [r3, #1]	@ zero_extendqisi2
 2537 004c 9AB1     		cbz	r2, .L398
 2538              		.loc 1 1005 0
 2539 004e F722     		movs	r2, #247
 2540 0050 2271     		strb	r2, [r4, #4]
 2541              		.loc 1 1031 0
 2542 0052 03F10C00 		add	r0, r3, #12
 2543              		.loc 1 1032 0
 2544 0056 BDE81040 		pop	{r4, lr}
 2545              	.LVL315:
 2546              		.loc 1 1031 0
 2547 005a FFF7FEBF 		b	sys_sem_signal
 2548              	.LVL316:
 2549              	.L395:
ARM GAS  /tmp/ccT6pRdh.s 			page 46


 2550              		.loc 1 998 0
 2551 005e A168     		ldr	r1, [r4, #8]
 2552 0060 A289     		ldrh	r2, [r4, #12]
 2553 0062 FFF7FEFF 		bl	udp_connect
 2554              	.LVL317:
 2555 0066 2368     		ldr	r3, [r4]
 2556 0068 2071     		strb	r0, [r4, #4]
 2557              		.loc 1 1032 0
 2558 006a BDE81040 		pop	{r4, lr}
 2559              	.LVL318:
 2560              		.loc 1 1031 0
 2561 006e 03F10C00 		add	r0, r3, #12
 2562 0072 FFF7FEBF 		b	sys_sem_signal
 2563              	.LVL319:
 2564              	.L398:
 2565              		.loc 1 1007 0
 2566 0076 1846     		mov	r0, r3
 2567 0078 FFF7FEFF 		bl	setup_tcp
 2568              	.LVL320:
 2569              		.loc 1 1008 0
 2570 007c 2368     		ldr	r3, [r4]
 2571 007e A168     		ldr	r1, [r4, #8]
 2572 0080 5868     		ldr	r0, [r3, #4]
 2573 0082 A289     		ldrh	r2, [r4, #12]
 2574 0084 40F20003 		movw	r3, #:lower16:do_connected
 2575 0088 C0F20003 		movt	r3, #:upper16:do_connected
 2576 008c FFF7FEFF 		bl	tcp_connect
 2577              	.LVL321:
 2578              	.LBB18:
 2579              		.loc 1 1011 0
 2580 0090 2368     		ldr	r3, [r4]
 2581              	.LBE18:
 2582              		.loc 1 1008 0
 2583 0092 2071     		strb	r0, [r4, #4]
 2584              		.loc 1 1010 0
 2585 0094 0028     		cmp	r0, #0
 2586 0096 C7D1     		bne	.L393
 2587              	.LBB19:
 2588              		.loc 1 1011 0
 2589 0098 1A7F     		ldrb	r2, [r3, #28]	@ zero_extendqisi2
 2590              	.LVL322:
 2591              		.loc 1 1012 0
 2592 009a 0321     		movs	r1, #3
 2593 009c 5970     		strb	r1, [r3, #1]
 2594              		.loc 1 1013 0
 2595 009e 9107     		lsls	r1, r2, #30
 2596 00a0 0ED5     		bpl	.L400
 2597              		.loc 1 1013 0 is_stmt 0 discriminator 1
 2598 00a2 42F00402 		orr	r2, r2, #4
 2599              	.LVL323:
 2600 00a6 1A77     		strb	r2, [r3, #28]
 2601              	.LVL324:
 2602              		.loc 1 1015 0 is_stmt 1 discriminator 1
 2603 00a8 FB22     		movs	r2, #251
 2604 00aa 2368     		ldr	r3, [r4]
 2605 00ac 2271     		strb	r2, [r4, #4]
 2606 00ae BBE7     		b	.L393
ARM GAS  /tmp/ccT6pRdh.s 			page 47


 2607              	.L404:
 2608              	.LBE19:
 2609              		.loc 1 988 0
 2610 00b0 F422     		movs	r2, #244
 2611 00b2 2271     		strb	r2, [r4, #4]
 2612              		.loc 1 1031 0
 2613 00b4 03F10C00 		add	r0, r3, #12
 2614              		.loc 1 1032 0
 2615 00b8 BDE81040 		pop	{r4, lr}
 2616              	.LVL325:
 2617              		.loc 1 1031 0
 2618 00bc FFF7FEBF 		b	sys_sem_signal
 2619              	.LVL326:
 2620              	.L400:
 2621              	.LBB20:
 2622              		.loc 1 1013 0 discriminator 2
 2623 00c0 22F00402 		bic	r2, r2, #4
 2624              	.LVL327:
 2625 00c4 1A77     		strb	r2, [r3, #28]
 2626              	.LVL328:
 2627              		.loc 1 1017 0 discriminator 2
 2628 00c6 2368     		ldr	r3, [r4]
 2629 00c8 5C62     		str	r4, [r3, #36]
 2630              		.loc 1 1020 0 discriminator 2
 2631 00ca 10BD     		pop	{r4, pc}
 2632              	.LBE20:
 2633              		.cfi_endproc
 2634              	.LFE24:
 2635              		.size	do_connect, .-do_connect
 2636 00cc AFF30080 		.section	.text.do_disconnect,"ax",%progbits
 2637              		.align	2
 2638              		.p2align 4,,15
 2639              		.global	do_disconnect
 2640              		.thumb
 2641              		.thumb_func
 2642              		.type	do_disconnect, %function
 2643              	do_disconnect:
 2644              	.LFB25:
 2645              		.loc 1 1043 0
 2646              		.cfi_startproc
 2647              		@ args = 0, pretend = 0, frame = 0
 2648              		@ frame_needed = 0, uses_anonymous_args = 0
 2649              	.LVL329:
 2650 0000 10B5     		push	{r4, lr}
 2651              		.cfi_def_cfa_offset 8
 2652              		.cfi_offset 4, -8
 2653              		.cfi_offset 14, -4
 2654              		.loc 1 1043 0
 2655 0002 0446     		mov	r4, r0
 2656              		.loc 1 1045 0
 2657 0004 0068     		ldr	r0, [r0]
 2658              	.LVL330:
 2659 0006 0278     		ldrb	r2, [r0]	@ zero_extendqisi2
 2660 0008 02F0F002 		and	r2, r2, #240
 2661 000c 202A     		cmp	r2, #32
 2662              		.loc 1 1051 0
 2663 000e 1CBF     		itt	ne
ARM GAS  /tmp/ccT6pRdh.s 			page 48


 2664 0010 FA22     		movne	r2, #250
 2665 0012 2271     		strbne	r2, [r4, #4]
 2666              		.loc 1 1045 0
 2667 0014 04D0     		beq	.L409
 2668              	.L408:
 2669              		.loc 1 1053 0
 2670 0016 0C30     		adds	r0, r0, #12
 2671              		.loc 1 1054 0
 2672 0018 BDE81040 		pop	{r4, lr}
 2673              	.LVL331:
 2674              		.loc 1 1053 0
 2675 001c FFF7FEBF 		b	sys_sem_signal
 2676              	.LVL332:
 2677              	.L409:
 2678              		.loc 1 1046 0
 2679 0020 4068     		ldr	r0, [r0, #4]
 2680 0022 FFF7FEFF 		bl	udp_disconnect
 2681              	.LVL333:
 2682              		.loc 1 1047 0
 2683 0026 0023     		movs	r3, #0
 2684 0028 2371     		strb	r3, [r4, #4]
 2685 002a 2068     		ldr	r0, [r4]
 2686 002c F3E7     		b	.L408
 2687              		.cfi_endproc
 2688              	.LFE25:
 2689              		.size	do_disconnect, .-do_disconnect
 2690 002e 00BF     		.section	.text.do_listen,"ax",%progbits
 2691              		.align	2
 2692              		.p2align 4,,15
 2693              		.global	do_listen
 2694              		.thumb
 2695              		.thumb_func
 2696              		.type	do_listen, %function
 2697              	do_listen:
 2698              	.LFB26:
 2699              		.loc 1 1065 0
 2700              		.cfi_startproc
 2701              		@ args = 0, pretend = 0, frame = 0
 2702              		@ frame_needed = 0, uses_anonymous_args = 0
 2703              	.LVL334:
 2704 0000 38B5     		push	{r3, r4, r5, lr}
 2705              		.cfi_def_cfa_offset 16
 2706              		.cfi_offset 3, -16
 2707              		.cfi_offset 4, -12
 2708              		.cfi_offset 5, -8
 2709              		.cfi_offset 14, -4
 2710              		.loc 1 1066 0
 2711 0002 0368     		ldr	r3, [r0]
 2712 0004 1A7A     		ldrb	r2, [r3, #8]	@ zero_extendqisi2
 2713 0006 51B2     		sxtb	r1, r2
 2714 0008 0931     		adds	r1, r1, #9
 2715              		.loc 1 1065 0
 2716 000a 0446     		mov	r4, r0
 2717              		.loc 1 1066 0
 2718 000c 08DB     		blt	.L425
 2719              		.loc 1 1069 0
 2720 000e F322     		movs	r2, #243
ARM GAS  /tmp/ccT6pRdh.s 			page 49


 2721 0010 0271     		strb	r2, [r0, #4]
 2722              		.loc 1 1070 0
 2723 0012 5868     		ldr	r0, [r3, #4]
 2724              	.LVL335:
 2725 0014 28B1     		cbz	r0, .L412
 2726              		.loc 1 1071 0
 2727 0016 1A78     		ldrb	r2, [r3]	@ zero_extendqisi2
 2728 0018 102A     		cmp	r2, #16
 2729              		.loc 1 1105 0
 2730 001a 18BF     		it	ne
 2731 001c F222     		movne	r2, #242
 2732              		.loc 1 1071 0
 2733 001e 06D0     		beq	.L426
 2734              	.L425:
 2735              		.loc 1 1105 0
 2736 0020 2271     		strb	r2, [r4, #4]
 2737              	.L412:
 2738              		.loc 1 1109 0
 2739 0022 03F10C00 		add	r0, r3, #12
 2740              		.loc 1 1110 0
 2741 0026 BDE83840 		pop	{r3, r4, r5, lr}
 2742              	.LVL336:
 2743              		.loc 1 1109 0
 2744 002a FFF7FEBF 		b	sys_sem_signal
 2745              	.LVL337:
 2746              	.L426:
 2747              		.loc 1 1072 0
 2748 002e 5A78     		ldrb	r2, [r3, #1]	@ zero_extendqisi2
 2749 0030 002A     		cmp	r2, #0
 2750 0032 F6D1     		bne	.L412
 2751              	.LBB21:
 2752              		.loc 1 1076 0
 2753 0034 FF21     		movs	r1, #255
 2754 0036 FFF7FEFF 		bl	tcp_listen_with_backlog
 2755              	.LVL338:
 2756              		.loc 1 1078 0
 2757 003a 0546     		mov	r5, r0
 2758 003c F8B1     		cbz	r0, .L427
 2759              		.loc 1 1083 0
 2760 003e 2068     		ldr	r0, [r4]
 2761              	.LVL339:
 2762 0040 1030     		adds	r0, r0, #16
 2763 0042 FFF7FEFF 		bl	sys_mbox_valid
 2764              	.LVL340:
 2765 0046 68BB     		cbnz	r0, .L428
 2766              	.L415:
 2767              		.loc 1 1089 0
 2768 0048 2068     		ldr	r0, [r4]
 2769              		.loc 1 1088 0
 2770 004a 0023     		movs	r3, #0
 2771              		.loc 1 1089 0
 2772 004c 1430     		adds	r0, r0, #20
 2773              		.loc 1 1088 0
 2774 004e 2371     		strb	r3, [r4, #4]
 2775              		.loc 1 1089 0
 2776 0050 FFF7FEFF 		bl	sys_mbox_valid
 2777              	.LVL341:
ARM GAS  /tmp/ccT6pRdh.s 			page 50


 2778 0054 F8B1     		cbz	r0, .L416
 2779 0056 2079     		ldrb	r0, [r4, #4]	@ zero_extendqisi2
 2780              	.L417:
 2781              		.loc 1 1092 0
 2782 0058 A8B9     		cbnz	r0, .L418
 2783              		.loc 1 1093 0
 2784 005a 2368     		ldr	r3, [r4]
 2785              		.loc 1 1094 0
 2786 005c 5D60     		str	r5, [r3, #4]
 2787              		.loc 1 1095 0
 2788 005e 2168     		ldr	r1, [r4]
 2789              		.loc 1 1093 0
 2790 0060 0222     		movs	r2, #2
 2791 0062 5A70     		strb	r2, [r3, #1]
 2792              		.loc 1 1095 0
 2793 0064 4868     		ldr	r0, [r1, #4]
 2794 0066 FFF7FEFF 		bl	tcp_arg
 2795              	.LVL342:
 2796              		.loc 1 1096 0
 2797 006a 2368     		ldr	r3, [r4]
 2798 006c 40F20001 		movw	r1, #:lower16:accept_function
 2799 0070 5868     		ldr	r0, [r3, #4]
 2800 0072 C0F20001 		movt	r1, #:upper16:accept_function
 2801 0076 FFF7FEFF 		bl	tcp_accept
 2802              	.LVL343:
 2803 007a 2368     		ldr	r3, [r4]
 2804 007c D1E7     		b	.L412
 2805              	.LVL344:
 2806              	.L427:
 2807              		.loc 1 1080 0
 2808 007e FF23     		movs	r3, #255
 2809 0080 2371     		strb	r3, [r4, #4]
 2810 0082 2368     		ldr	r3, [r4]
 2811 0084 CDE7     		b	.L412
 2812              	.LVL345:
 2813              	.L418:
 2814              		.loc 1 1099 0
 2815 0086 2846     		mov	r0, r5
 2816 0088 FFF7FEFF 		bl	tcp_close
 2817              	.LVL346:
 2818              		.loc 1 1100 0
 2819 008c 2368     		ldr	r3, [r4]
 2820 008e 0022     		movs	r2, #0
 2821 0090 5A60     		str	r2, [r3, #4]
 2822 0092 2368     		ldr	r3, [r4]
 2823 0094 C5E7     		b	.L412
 2824              	.L416:
 2825              		.loc 1 1090 0
 2826 0096 2068     		ldr	r0, [r4]
 2827 0098 0421     		movs	r1, #4
 2828 009a 1430     		adds	r0, r0, #20
 2829 009c FFF7FEFF 		bl	sys_mbox_new
 2830              	.LVL347:
 2831 00a0 2071     		strb	r0, [r4, #4]
 2832 00a2 D9E7     		b	.L417
 2833              	.L428:
 2834              		.loc 1 1085 0
ARM GAS  /tmp/ccT6pRdh.s 			page 51


 2835 00a4 2068     		ldr	r0, [r4]
 2836 00a6 1030     		adds	r0, r0, #16
 2837 00a8 FFF7FEFF 		bl	sys_mbox_free
 2838              	.LVL348:
 2839              		.loc 1 1086 0
 2840 00ac 2068     		ldr	r0, [r4]
 2841 00ae 1030     		adds	r0, r0, #16
 2842 00b0 FFF7FEFF 		bl	sys_mbox_set_invalid
 2843              	.LVL349:
 2844 00b4 C8E7     		b	.L415
 2845              	.LBE21:
 2846              		.cfi_endproc
 2847              	.LFE26:
 2848              		.size	do_listen, .-do_listen
 2849 00b6 00BFAFF3 		.section	.text.do_send,"ax",%progbits
 2849      0080AFF3 
 2849      0080
 2850              		.align	2
 2851              		.p2align 4,,15
 2852              		.global	do_send
 2853              		.thumb
 2854              		.thumb_func
 2855              		.type	do_send, %function
 2856              	do_send:
 2857              	.LFB27:
 2858              		.loc 1 1121 0
 2859              		.cfi_startproc
 2860              		@ args = 0, pretend = 0, frame = 0
 2861              		@ frame_needed = 0, uses_anonymous_args = 0
 2862              	.LVL350:
 2863 0000 10B5     		push	{r4, lr}
 2864              		.cfi_def_cfa_offset 8
 2865              		.cfi_offset 4, -8
 2866              		.cfi_offset 14, -4
 2867              		.loc 1 1122 0
 2868 0002 0368     		ldr	r3, [r0]
 2869 0004 1A7A     		ldrb	r2, [r3, #8]	@ zero_extendqisi2
 2870 0006 51B2     		sxtb	r1, r2
 2871 0008 0931     		adds	r1, r1, #9
 2872              		.loc 1 1121 0
 2873 000a 0446     		mov	r4, r0
 2874              		.loc 1 1123 0
 2875 000c B8BF     		it	lt
 2876 000e 0271     		strblt	r2, [r0, #4]
 2877              		.loc 1 1122 0
 2878 0010 15DB     		blt	.L431
 2879              		.loc 1 1125 0
 2880 0012 F322     		movs	r2, #243
 2881 0014 0271     		strb	r2, [r0, #4]
 2882              		.loc 1 1126 0
 2883 0016 5868     		ldr	r0, [r3, #4]
 2884              	.LVL351:
 2885 0018 88B1     		cbz	r0, .L431
 2886              		.loc 1 1127 0
 2887 001a 1A78     		ldrb	r2, [r3]	@ zero_extendqisi2
 2888 001c 02F0F002 		and	r2, r2, #240
 2889 0020 202A     		cmp	r2, #32
ARM GAS  /tmp/ccT6pRdh.s 			page 52


 2890 0022 12D0     		beq	.L432
 2891 0024 402A     		cmp	r2, #64
 2892 0026 0AD1     		bne	.L431
 2893              		.loc 1 1130 0
 2894 0028 A368     		ldr	r3, [r4, #8]
 2895 002a 13F10802 		adds	r2, r3, #8
 2896 002e 01D0     		beq	.L434
 2897              		.loc 1 1130 0 is_stmt 0 discriminator 1
 2898 0030 9968     		ldr	r1, [r3, #8]
 2899 0032 11BB     		cbnz	r1, .L435
 2900              	.L434:
 2901              		.loc 1 1131 0 is_stmt 1
 2902 0034 1968     		ldr	r1, [r3]
 2903 0036 FFF7FEFF 		bl	raw_send
 2904              	.LVL352:
 2905 003a 2368     		ldr	r3, [r4]
 2906 003c 2071     		strb	r0, [r4, #4]
 2907              	.L431:
 2908              		.loc 1 1162 0
 2909 003e 03F10C00 		add	r0, r3, #12
 2910              		.loc 1 1163 0
 2911 0042 BDE81040 		pop	{r4, lr}
 2912              	.LVL353:
 2913              		.loc 1 1162 0
 2914 0046 FFF7FEBF 		b	sys_sem_signal
 2915              	.LVL354:
 2916              	.L432:
 2917              		.loc 1 1149 0
 2918 004a A368     		ldr	r3, [r4, #8]
 2919 004c 13F10802 		adds	r2, r3, #8
 2920 0050 01D0     		beq	.L436
 2921              		.loc 1 1149 0 is_stmt 0 discriminator 1
 2922 0052 9968     		ldr	r1, [r3, #8]
 2923 0054 51B9     		cbnz	r1, .L437
 2924              	.L436:
 2925              		.loc 1 1150 0 is_stmt 1
 2926 0056 1968     		ldr	r1, [r3]
 2927 0058 FFF7FEFF 		bl	udp_send
 2928              	.LVL355:
 2929 005c 2368     		ldr	r3, [r4]
 2930 005e 2071     		strb	r0, [r4, #4]
 2931              		.loc 1 1163 0
 2932 0060 BDE81040 		pop	{r4, lr}
 2933              	.LVL356:
 2934              		.loc 1 1162 0
 2935 0064 03F10C00 		add	r0, r3, #12
 2936 0068 FFF7FEBF 		b	sys_sem_signal
 2937              	.LVL357:
 2938              	.L437:
 2939              		.loc 1 1152 0
 2940 006c 1968     		ldr	r1, [r3]
 2941 006e 9B89     		ldrh	r3, [r3, #12]
 2942 0070 FFF7FEFF 		bl	udp_sendto
 2943              	.LVL358:
 2944 0074 2368     		ldr	r3, [r4]
 2945 0076 2071     		strb	r0, [r4, #4]
 2946 0078 E1E7     		b	.L431
ARM GAS  /tmp/ccT6pRdh.s 			page 53


 2947              	.L435:
 2948              		.loc 1 1133 0
 2949 007a 1968     		ldr	r1, [r3]
 2950 007c FFF7FEFF 		bl	raw_sendto
 2951              	.LVL359:
 2952 0080 2368     		ldr	r3, [r4]
 2953 0082 2071     		strb	r0, [r4, #4]
 2954 0084 DBE7     		b	.L431
 2955              		.cfi_endproc
 2956              	.LFE27:
 2957              		.size	do_send, .-do_send
 2958 0086 00BFAFF3 		.section	.text.do_recv,"ax",%progbits
 2958      0080AFF3 
 2958      0080
 2959              		.align	2
 2960              		.p2align 4,,15
 2961              		.global	do_recv
 2962              		.thumb
 2963              		.thumb_func
 2964              		.type	do_recv, %function
 2965              	do_recv:
 2966              	.LFB28:
 2967              		.loc 1 1174 0
 2968              		.cfi_startproc
 2969              		@ args = 0, pretend = 0, frame = 0
 2970              		@ frame_needed = 0, uses_anonymous_args = 0
 2971              	.LVL360:
 2972 0000 70B5     		push	{r4, r5, r6, lr}
 2973              		.cfi_def_cfa_offset 16
 2974              		.cfi_offset 4, -16
 2975              		.cfi_offset 5, -12
 2976              		.cfi_offset 6, -8
 2977              		.cfi_offset 14, -4
 2978              		.loc 1 1175 0
 2979 0002 0022     		movs	r2, #0
 2980              		.loc 1 1176 0
 2981 0004 0368     		ldr	r3, [r0]
 2982              		.loc 1 1175 0
 2983 0006 0271     		strb	r2, [r0, #4]
 2984              		.loc 1 1174 0
 2985 0008 0646     		mov	r6, r0
 2986              		.loc 1 1176 0
 2987 000a 5868     		ldr	r0, [r3, #4]
 2988              	.LVL361:
 2989 000c 10B1     		cbz	r0, .L448
 2990              		.loc 1 1177 0
 2991 000e 1A78     		ldrb	r2, [r3]	@ zero_extendqisi2
 2992 0010 102A     		cmp	r2, #16
 2993 0012 05D0     		beq	.L457
 2994              	.L448:
 2995              		.loc 1 1193 0
 2996 0014 03F10C00 		add	r0, r3, #12
 2997              		.loc 1 1194 0
 2998 0018 BDE87040 		pop	{r4, r5, r6, lr}
 2999              	.LVL362:
 3000              		.loc 1 1193 0
 3001 001c FFF7FEBF 		b	sys_sem_signal
ARM GAS  /tmp/ccT6pRdh.s 			page 54


 3002              	.LVL363:
 3003              	.L457:
 3004              	.LBB22:
 3005              		.loc 1 1184 0
 3006 0020 B468     		ldr	r4, [r6, #8]
 3007              	.LVL364:
 3008 0022 00E0     		b	.L451
 3009              	.LVL365:
 3010              	.L458:
 3011 0024 5868     		ldr	r0, [r3, #4]
 3012              	.L451:
 3013              	.LBB23:
 3014              		.loc 1 1186 0
 3015 0026 B4F5803F 		cmp	r4, #65536
 3016 002a 2DBF     		iteet	cs
 3017 002c 4FF6FF75 		movwcs	r5, #65535
 3018 0030 A1B2     		uxthcc	r1, r4
 3019 0032 2546     		movcc	r5, r4
 3020 0034 2946     		movcs	r1, r5
 3021              	.LVL366:
 3022              		.loc 1 1187 0
 3023 0036 FFF7FEFF 		bl	tcp_recved
 3024              	.LVL367:
 3025              	.LBE23:
 3026              		.loc 1 1189 0
 3027 003a 641B     		subs	r4, r4, r5
 3028              	.LVL368:
 3029 003c 3368     		ldr	r3, [r6]
 3030 003e F1D1     		bne	.L458
 3031              	.LBE22:
 3032              		.loc 1 1193 0
 3033 0040 03F10C00 		add	r0, r3, #12
 3034              		.loc 1 1194 0
 3035 0044 BDE87040 		pop	{r4, r5, r6, lr}
 3036              	.LVL369:
 3037              		.loc 1 1193 0
 3038 0048 FFF7FEBF 		b	sys_sem_signal
 3039              	.LVL370:
 3040              		.cfi_endproc
 3041              	.LFE28:
 3042              		.size	do_recv, .-do_recv
 3043 004c AFF30080 		.section	.text.do_write,"ax",%progbits
 3044              		.align	2
 3045              		.p2align 4,,15
 3046              		.global	do_write
 3047              		.thumb
 3048              		.thumb_func
 3049              		.type	do_write, %function
 3050              	do_write:
 3051              	.LFB30:
 3052              		.loc 1 1344 0
 3053              		.cfi_startproc
 3054              		@ args = 0, pretend = 0, frame = 8
 3055              		@ frame_needed = 0, uses_anonymous_args = 0
 3056              	.LVL371:
 3057 0000 00B5     		push	{lr}
 3058              		.cfi_def_cfa_offset 4
ARM GAS  /tmp/ccT6pRdh.s 			page 55


 3059              		.cfi_offset 14, -4
 3060              		.loc 1 1345 0
 3061 0002 0368     		ldr	r3, [r0]
 3062 0004 1A7A     		ldrb	r2, [r3, #8]	@ zero_extendqisi2
 3063 0006 51B2     		sxtb	r1, r2
 3064 0008 0931     		adds	r1, r1, #9
 3065              		.loc 1 1344 0
 3066 000a 83B0     		sub	sp, sp, #12
 3067              		.cfi_def_cfa_offset 16
 3068              		.loc 1 1345 0
 3069 000c 04DB     		blt	.L471
 3070              		.loc 1 1348 0
 3071 000e 1A78     		ldrb	r2, [r3]	@ zero_extendqisi2
 3072 0010 102A     		cmp	r2, #16
 3073              		.loc 1 1384 0
 3074 0012 18BF     		it	ne
 3075 0014 FA22     		movne	r2, #250
 3076              		.loc 1 1348 0
 3077 0016 07D0     		beq	.L472
 3078              	.L471:
 3079              		.loc 1 1384 0
 3080 0018 0271     		strb	r2, [r0, #4]
 3081              	.L461:
 3082              		.loc 1 1388 0
 3083 001a 03F10C00 		add	r0, r3, #12
 3084              	.LVL372:
 3085              		.loc 1 1389 0
 3086 001e 03B0     		add	sp, sp, #12
 3087              		@ sp needed
 3088 0020 5DF804EB 		ldr	lr, [sp], #4
 3089              		.loc 1 1388 0
 3090 0024 FFF7FEBF 		b	sys_sem_signal
 3091              	.LVL373:
 3092              	.L472:
 3093              		.loc 1 1350 0
 3094 0028 5A78     		ldrb	r2, [r3, #1]	@ zero_extendqisi2
 3095 002a 12B1     		cbz	r2, .L463
 3096              		.loc 1 1352 0
 3097 002c FB22     		movs	r2, #251
 3098 002e 0271     		strb	r2, [r0, #4]
 3099 0030 F3E7     		b	.L461
 3100              	.L463:
 3101              		.loc 1 1353 0
 3102 0032 5A68     		ldr	r2, [r3, #4]
 3103 0034 E2B1     		cbz	r2, .L464
 3104              		.loc 1 1356 0
 3105 0036 5A6A     		ldr	r2, [r3, #36]
 3106              		.loc 1 1354 0
 3107 0038 0121     		movs	r1, #1
 3108 003a 5970     		strb	r1, [r3, #1]
 3109              		.loc 1 1356 0
 3110 003c A2B1     		cbz	r2, .L473
 3111              	.L465:
 3112              		.loc 1 1356 0 is_stmt 0 discriminator 1
 3113 003e 0190     		str	r0, [sp, #4]
 3114 0040 FFF7FEFF 		bl	port_halt
 3115              	.LVL374:
ARM GAS  /tmp/ccT6pRdh.s 			page 56


 3116 0044 0198     		ldr	r0, [sp, #4]
 3117              	.L466:
 3118              		.loc 1 1358 0 is_stmt 1
 3119 0046 C368     		ldr	r3, [r0, #12]
 3120 0048 4BB1     		cbz	r3, .L474
 3121              	.L467:
 3122              		.loc 1 1359 0
 3123 004a 0368     		ldr	r3, [r0]
 3124              		.loc 1 1360 0
 3125 004c 0022     		movs	r2, #0
 3126              		.loc 1 1359 0
 3127 004e 5862     		str	r0, [r3, #36]
 3128              		.loc 1 1371 0
 3129 0050 1846     		mov	r0, r3
 3130              		.loc 1 1360 0
 3131 0052 1A62     		str	r2, [r3, #32]
 3132              		.loc 1 1389 0
 3133 0054 03B0     		add	sp, sp, #12
 3134              		@ sp needed
 3135 0056 5DF804EB 		ldr	lr, [sp], #4
 3136              		.loc 1 1371 0
 3137 005a FFF7FEBF 		b	do_writemore
 3138              	.LVL375:
 3139              	.L474:
 3140              		.loc 1 1358 0 discriminator 1
 3141 005e 0190     		str	r0, [sp, #4]
 3142 0060 FFF7FEFF 		bl	port_halt
 3143              	.LVL376:
 3144 0064 0198     		ldr	r0, [sp, #4]
 3145 0066 F0E7     		b	.L467
 3146              	.LVL377:
 3147              	.L473:
 3148              		.loc 1 1356 0 discriminator 2
 3149 0068 1B6A     		ldr	r3, [r3, #32]
 3150 006a 002B     		cmp	r3, #0
 3151 006c EBD0     		beq	.L466
 3152 006e E6E7     		b	.L465
 3153              	.L464:
 3154              		.loc 1 1377 0
 3155 0070 F322     		movs	r2, #243
 3156 0072 0271     		strb	r2, [r0, #4]
 3157 0074 D1E7     		b	.L461
 3158              		.cfi_endproc
 3159              	.LFE30:
 3160              		.size	do_write, .-do_write
 3161 0076 00BFAFF3 		.section	.text.do_getaddr,"ax",%progbits
 3161      0080AFF3 
 3161      0080
 3162              		.align	2
 3163              		.p2align 4,,15
 3164              		.global	do_getaddr
 3165              		.thumb
 3166              		.thumb_func
 3167              		.type	do_getaddr, %function
 3168              	do_getaddr:
 3169              	.LFB31:
 3170              		.loc 1 1399 0
ARM GAS  /tmp/ccT6pRdh.s 			page 57


 3171              		.cfi_startproc
 3172              		@ args = 0, pretend = 0, frame = 0
 3173              		@ frame_needed = 0, uses_anonymous_args = 0
 3174              	.LVL378:
 3175 0000 10B5     		push	{r4, lr}
 3176              		.cfi_def_cfa_offset 8
 3177              		.cfi_offset 4, -8
 3178              		.cfi_offset 14, -4
 3179              		.loc 1 1399 0
 3180 0002 0446     		mov	r4, r0
 3181              		.loc 1 1400 0
 3182 0004 0068     		ldr	r0, [r0]
 3183              	.LVL379:
 3184 0006 4368     		ldr	r3, [r0, #4]
 3185 0008 E3B1     		cbz	r3, .L476
 3186              		.loc 1 1401 0
 3187 000a 217C     		ldrb	r1, [r4, #16]	@ zero_extendqisi2
 3188 000c A268     		ldr	r2, [r4, #8]
 3189 000e A1B9     		cbnz	r1, .L490
 3190              		.loc 1 1401 0 is_stmt 0 discriminator 2
 3191 0010 5B68     		ldr	r3, [r3, #4]
 3192 0012 1360     		str	r3, [r2]
 3193              	.L478:
 3194              		.loc 1 1404 0 is_stmt 1
 3195 0014 0023     		movs	r3, #0
 3196 0016 2371     		strb	r3, [r4, #4]
 3197              		.loc 1 1405 0
 3198 0018 0378     		ldrb	r3, [r0]	@ zero_extendqisi2
 3199 001a 03F0F003 		and	r3, r3, #240
 3200 001e 202B     		cmp	r3, #32
 3201 0020 22D0     		beq	.L480
 3202 0022 402B     		cmp	r3, #64
 3203 0024 0CD0     		beq	.L481
 3204 0026 102B     		cmp	r3, #16
 3205 0028 13D0     		beq	.L491
 3206              		.loc 1 1435 0 discriminator 1
 3207 002a FFF7FEFF 		bl	port_halt
 3208              	.LVL380:
 3209 002e 2068     		ldr	r0, [r4]
 3210              	.L484:
 3211              		.loc 1 1441 0
 3212 0030 0C30     		adds	r0, r0, #12
 3213              		.loc 1 1442 0
 3214 0032 BDE81040 		pop	{r4, lr}
 3215              	.LVL381:
 3216              		.loc 1 1441 0
 3217 0036 FFF7FEBF 		b	sys_sem_signal
 3218              	.LVL382:
 3219              	.L490:
 3220              		.loc 1 1401 0 discriminator 1
 3221 003a 1B68     		ldr	r3, [r3]
 3222 003c 1360     		str	r3, [r2]
 3223 003e E9E7     		b	.L478
 3224              	.L481:
 3225              		.loc 1 1408 0
 3226 0040 237C     		ldrb	r3, [r4, #16]	@ zero_extendqisi2
 3227 0042 DBB9     		cbnz	r3, .L492
ARM GAS  /tmp/ccT6pRdh.s 			page 58


 3228              	.L476:
 3229              		.loc 1 1439 0
 3230 0044 F323     		movs	r3, #243
 3231 0046 2371     		strb	r3, [r4, #4]
 3232              		.loc 1 1441 0
 3233 0048 0C30     		adds	r0, r0, #12
 3234              		.loc 1 1442 0
 3235 004a BDE81040 		pop	{r4, lr}
 3236              	.LVL383:
 3237              		.loc 1 1441 0
 3238 004e FFF7FEBF 		b	sys_sem_signal
 3239              	.LVL384:
 3240              	.L491:
 3241              		.loc 1 1431 0
 3242 0052 227C     		ldrb	r2, [r4, #16]	@ zero_extendqisi2
 3243 0054 E368     		ldr	r3, [r4, #12]
 3244 0056 D2B9     		cbnz	r2, .L493
 3245              		.loc 1 1431 0 is_stmt 0 discriminator 2
 3246 0058 4268     		ldr	r2, [r0, #4]
 3247 005a 928B     		ldrh	r2, [r2, #28]
 3248              	.L488:
 3249              		.loc 1 1431 0 discriminator 3
 3250 005c 1A80     		strh	r2, [r3]	@ movhi
 3251              		.loc 1 1441 0 is_stmt 1 discriminator 3
 3252 005e 0C30     		adds	r0, r0, #12
 3253              		.loc 1 1442 0 discriminator 3
 3254 0060 BDE81040 		pop	{r4, lr}
 3255              	.LVL385:
 3256              		.loc 1 1441 0 discriminator 3
 3257 0064 FFF7FEBF 		b	sys_sem_signal
 3258              	.LVL386:
 3259              	.L480:
 3260              		.loc 1 1418 0
 3261 0068 237C     		ldrb	r3, [r4, #16]	@ zero_extendqisi2
 3262 006a 9BB9     		cbnz	r3, .L494
 3263              		.loc 1 1421 0
 3264 006c 4368     		ldr	r3, [r0, #4]
 3265 006e 1A7C     		ldrb	r2, [r3, #16]	@ zero_extendqisi2
 3266 0070 5207     		lsls	r2, r2, #29
 3267 0072 E7D5     		bpl	.L476
 3268              		.loc 1 1424 0
 3269 0074 E268     		ldr	r2, [r4, #12]
 3270 0076 9B8A     		ldrh	r3, [r3, #20]
 3271 0078 1380     		strh	r3, [r2]	@ movhi
 3272 007a D9E7     		b	.L484
 3273              	.L492:
 3274              		.loc 1 1409 0
 3275 007c 4368     		ldr	r3, [r0, #4]
 3276 007e E268     		ldr	r2, [r4, #12]
 3277 0080 1B7C     		ldrb	r3, [r3, #16]	@ zero_extendqisi2
 3278              		.loc 1 1441 0
 3279 0082 0C30     		adds	r0, r0, #12
 3280              		.loc 1 1409 0
 3281 0084 1380     		strh	r3, [r2]	@ movhi
 3282              		.loc 1 1442 0
 3283 0086 BDE81040 		pop	{r4, lr}
 3284              	.LVL387:
ARM GAS  /tmp/ccT6pRdh.s 			page 59


 3285              		.loc 1 1441 0
 3286 008a FFF7FEBF 		b	sys_sem_signal
 3287              	.LVL388:
 3288              	.L493:
 3289              		.loc 1 1431 0 discriminator 1
 3290 008e 4268     		ldr	r2, [r0, #4]
 3291 0090 528B     		ldrh	r2, [r2, #26]
 3292 0092 E3E7     		b	.L488
 3293              	.L494:
 3294              		.loc 1 1419 0
 3295 0094 4368     		ldr	r3, [r0, #4]
 3296 0096 E268     		ldr	r2, [r4, #12]
 3297 0098 5B8A     		ldrh	r3, [r3, #18]
 3298 009a 1380     		strh	r3, [r2]	@ movhi
 3299 009c C8E7     		b	.L484
 3300              		.cfi_endproc
 3301              	.LFE31:
 3302              		.size	do_getaddr, .-do_getaddr
 3303 009e 00BF     		.section	.text.do_close,"ax",%progbits
 3304              		.align	2
 3305              		.p2align 4,,15
 3306              		.global	do_close
 3307              		.thumb
 3308              		.thumb_func
 3309              		.type	do_close, %function
 3310              	do_close:
 3311              	.LFB32:
 3312              		.loc 1 1452 0
 3313              		.cfi_startproc
 3314              		@ args = 0, pretend = 0, frame = 0
 3315              		@ frame_needed = 0, uses_anonymous_args = 0
 3316              	.LVL389:
 3317 0000 10B5     		push	{r4, lr}
 3318              		.cfi_def_cfa_offset 8
 3319              		.cfi_offset 4, -8
 3320              		.cfi_offset 14, -4
 3321              		.loc 1 1452 0
 3322 0002 0446     		mov	r4, r0
 3323              		.loc 1 1455 0
 3324 0004 0068     		ldr	r0, [r0]
 3325              	.LVL390:
 3326 0006 4278     		ldrb	r2, [r0, #1]	@ zero_extendqisi2
 3327 0008 12F0FD0F 		tst	r2, #253
 3328 000c 0CD0     		beq	.L496
 3329              		.loc 1 1457 0
 3330 000e 0278     		ldrb	r2, [r0]	@ zero_extendqisi2
 3331 0010 102A     		cmp	r2, #16
 3332 0012 02D0     		beq	.L497
 3333              		.loc 1 1457 0 is_stmt 0 discriminator 1
 3334 0014 FFF7FEFF 		bl	port_halt
 3335              	.LVL391:
 3336 0018 2068     		ldr	r0, [r4]
 3337              	.L497:
 3338              		.loc 1 1458 0 is_stmt 1
 3339 001a FB22     		movs	r2, #251
 3340 001c 2271     		strb	r2, [r4, #4]
 3341              	.L498:
ARM GAS  /tmp/ccT6pRdh.s 			page 60


 3342              		.loc 1 1481 0
 3343 001e 0C30     		adds	r0, r0, #12
 3344              		.loc 1 1482 0
 3345 0020 BDE81040 		pop	{r4, lr}
 3346              	.LVL392:
 3347              		.loc 1 1481 0
 3348 0024 FFF7FEBF 		b	sys_sem_signal
 3349              	.LVL393:
 3350              	.L496:
 3351              		.loc 1 1459 0
 3352 0028 4168     		ldr	r1, [r0, #4]
 3353 002a 11B1     		cbz	r1, .L499
 3354              		.loc 1 1459 0 is_stmt 0 discriminator 1
 3355 002c 0178     		ldrb	r1, [r0]	@ zero_extendqisi2
 3356 002e 1029     		cmp	r1, #16
 3357 0030 06D0     		beq	.L520
 3358              	.L499:
 3359              		.loc 1 1479 0 is_stmt 1
 3360 0032 FA22     		movs	r2, #250
 3361 0034 2271     		strb	r2, [r4, #4]
 3362              		.loc 1 1481 0
 3363 0036 0C30     		adds	r0, r0, #12
 3364              		.loc 1 1482 0
 3365 0038 BDE81040 		pop	{r4, lr}
 3366              	.LVL394:
 3367              		.loc 1 1481 0
 3368 003c FFF7FEBF 		b	sys_sem_signal
 3369              	.LVL395:
 3370              	.L520:
 3371              		.loc 1 1460 0
 3372 0040 217A     		ldrb	r1, [r4, #8]	@ zero_extendqisi2
 3373 0042 0329     		cmp	r1, #3
 3374 0044 16D0     		beq	.L500
 3375              		.loc 1 1460 0 is_stmt 0 discriminator 1
 3376 0046 022A     		cmp	r2, #2
 3377              		.loc 1 1462 0 is_stmt 1 discriminator 1
 3378 0048 04BF     		itt	eq
 3379 004a F322     		moveq	r2, #243
 3380 004c 2271     		strbeq	r2, [r4, #4]
 3381              		.loc 1 1460 0 discriminator 1
 3382 004e E6D0     		beq	.L498
 3383              		.loc 1 1464 0
 3384 0050 C907     		lsls	r1, r1, #31
 3385 0052 0FD4     		bmi	.L500
 3386              	.L502:
 3387              		.loc 1 1468 0
 3388 0054 426A     		ldr	r2, [r0, #36]
 3389 0056 4AB1     		cbz	r2, .L521
 3390              	.L503:
 3391              		.loc 1 1468 0 is_stmt 0 discriminator 1
 3392 0058 FFF7FEFF 		bl	port_halt
 3393              	.LVL396:
 3394 005c 2068     		ldr	r0, [r4]
 3395              	.L504:
 3396              		.loc 1 1470 0 is_stmt 1
 3397 005e 0422     		movs	r2, #4
 3398              		.loc 1 1471 0
ARM GAS  /tmp/ccT6pRdh.s 			page 61


 3399 0060 4462     		str	r4, [r0, #36]
 3400              		.loc 1 1470 0
 3401 0062 4270     		strb	r2, [r0, #1]
 3402              		.loc 1 1482 0
 3403 0064 BDE81040 		pop	{r4, lr}
 3404              	.LVL397:
 3405              		.loc 1 1472 0
 3406 0068 FFF7FEBF 		b	do_close_internal
 3407              	.LVL398:
 3408              	.L521:
 3409              		.loc 1 1468 0 discriminator 2
 3410 006c 026A     		ldr	r2, [r0, #32]
 3411 006e 002A     		cmp	r2, #0
 3412 0070 F2D1     		bne	.L503
 3413 0072 F4E7     		b	.L504
 3414              	.L500:
 3415              		.loc 1 1466 0
 3416 0074 FFF7FEFF 		bl	netconn_drain
 3417              	.LVL399:
 3418 0078 2068     		ldr	r0, [r4]
 3419 007a EBE7     		b	.L502
 3420              		.cfi_endproc
 3421              	.LFE32:
 3422              		.size	do_close, .-do_close
 3423              		.text
 3424              	.Letext0:
 3425              		.file 2 "/usr/lib/gcc/arm-none-eabi/4.8.2/include/stddef.h"
 3426              		.file 3 "/usr/include/newlib/machine/_default_types.h"
 3427              		.file 4 "/usr/include/newlib/stdint.h"
 3428              		.file 5 "../../os/ports/GCC/ARMCMx/chtypes.h"
 3429              		.file 6 "../../os/kernel/include/chlists.h"
 3430              		.file 7 "../../os/kernel/include/chthreads.h"
 3431              		.file 8 "../../os/ports/GCC/ARMCMx/chcore_v7m.h"
 3432              		.file 9 "../../os/kernel/include/chsem.h"
 3433              		.file 10 "../../os/kernel/include/chmtx.h"
 3434              		.file 11 "../../os/kernel/include/chmboxes.h"
 3435              		.file 12 "../../os/various/lwip_bindings/arch/cc.h"
 3436              		.file 13 "../../ext/lwip/src/include/ipv4/lwip/ip_addr.h"
 3437              		.file 14 "../../ext/lwip/src/include/lwip/err.h"
 3438              		.file 15 "../../os/various/lwip_bindings/arch/sys_arch.h"
 3439              		.file 16 "../../ext/lwip/src/include/lwip/pbuf.h"
 3440              		.file 17 "../../ext/lwip/src/include/lwip/netbuf.h"
 3441              		.file 18 "../../ext/lwip/src/include/lwip/api.h"
 3442              		.file 19 "../../ext/lwip/src/include/ipv4/lwip/ip.h"
 3443              		.file 20 "../../ext/lwip/src/include/lwip/tcp.h"
 3444              		.file 21 "../../ext/lwip/src/include/lwip/udp.h"
 3445              		.file 22 "../../ext/lwip/src/include/lwip/raw.h"
 3446              		.file 23 "../../ext/lwip/src/include/lwip/api_msg.h"
 3447              		.file 24 "../../ext/lwip/src/include/lwip/memp.h"
 3448              		.file 25 "../../ext/lwip/src/include/lwip/sys.h"