ARM GAS  /tmp/ccT6pRdh.s 			page 1


   1              		.syntax unified
   2              		.cpu cortex-m4
   3              		.fpu softvfp
   4              		.eabi_attribute 20, 1
   5              		.eabi_attribute 21, 1
   6              		.eabi_attribute 23, 3
   7              		.eabi_attribute 24, 1
   8              		.eabi_attribute 25, 1
   9              		.eabi_attribute 26, 1
  10              		.eabi_attribute 30, 2
  11              		.eabi_attribute 34, 1
  12              		.eabi_attribute 18, 4
  13              		.thumb
  14              		.file	"api_msg.c"
  15              		.text
  16              	.Ltext0:
  17              		.cfi_sections	.debug_frame
  18              		.section	.text.err_tcp,"ax",%progbits
  19              		.align	2
  20              		.p2align 4,,15
  21              		.thumb
  22              		.thumb_func
  23              		.type	err_tcp, %function
  24              	err_tcp:
  25              	.LFB12:
  26              		.file 1 "../../ext/lwip/src/api/api_msg.c"
  27              		.loc 1 348 0
  28              		.cfi_startproc
  29              		@ args = 0, pretend = 0, frame = 0
  30              		@ frame_needed = 0, uses_anonymous_args = 0
  31              	.LVL0:
  32 0000 F8B5     		push	{r3, r4, r5, r6, r7, lr}
  33              		.cfi_def_cfa_offset 24
  34              		.cfi_offset 3, -24
  35              		.cfi_offset 4, -20
  36              		.cfi_offset 5, -16
  37              		.cfi_offset 6, -12
  38              		.cfi_offset 7, -8
  39              		.cfi_offset 14, -4
  40              		.loc 1 354 0
  41 0002 0446     		mov	r4, r0
  42              		.loc 1 348 0
  43 0004 0F46     		mov	r7, r1
  44              		.loc 1 354 0
  45 0006 0028     		cmp	r0, #0
  46 0008 4AD0     		beq	.L35
  47              	.LVL1:
  48              	.L2:
  49              		.loc 1 369 0
  50 000a A36A     		ldr	r3, [r4, #40]
  51              		.loc 1 364 0
  52 000c 6678     		ldrb	r6, [r4, #1]	@ zero_extendqisi2
  53              	.LVL2:
  54              		.loc 1 360 0
  55 000e 2772     		strb	r7, [r4, #8]
  56              		.loc 1 356 0
  57 0010 0025     		movs	r5, #0
ARM GAS  /tmp/ccT6pRdh.s 			page 2


  58 0012 6560     		str	r5, [r4, #4]
  59              		.loc 1 365 0
  60 0014 6570     		strb	r5, [r4, #1]
  61              	.LVL3:
  62              		.loc 1 369 0
  63 0016 7BB1     		cbz	r3, .L4
  64              		.loc 1 369 0 is_stmt 0 discriminator 1
  65 0018 2046     		mov	r0, r4
  66 001a 0421     		movs	r1, #4
  67 001c 2A46     		mov	r2, r5
  68 001e 9847     		blx	r3
  69              	.LVL4:
  70              		.loc 1 372 0 is_stmt 1 discriminator 1
  71 0020 A36A     		ldr	r3, [r4, #40]
  72 0022 4BB1     		cbz	r3, .L4
  73 0024 2046     		mov	r0, r4
  74 0026 2946     		mov	r1, r5
  75 0028 2A46     		mov	r2, r5
  76 002a 9847     		blx	r3
  77              	.LVL5:
  78              		.loc 1 373 0 discriminator 1
  79 002c A36A     		ldr	r3, [r4, #40]
  80 002e 1BB1     		cbz	r3, .L4
  81 0030 2A46     		mov	r2, r5
  82 0032 2046     		mov	r0, r4
  83 0034 0221     		movs	r1, #2
  84 0036 9847     		blx	r3
  85              	.LVL6:
  86              	.L4:
  87              		.loc 1 376 0
  88 0038 04F11005 		add	r5, r4, #16
  89 003c 2846     		mov	r0, r5
  90 003e FFF7FEFF 		bl	sys_mbox_valid
  91              	.LVL7:
  92 0042 40BB     		cbnz	r0, .L36
  93              	.L5:
  94              		.loc 1 381 0
  95 0044 04F11405 		add	r5, r4, #20
  96 0048 2846     		mov	r0, r5
  97 004a FFF7FEFF 		bl	sys_mbox_valid
  98              	.LVL8:
  99 004e E8B9     		cbnz	r0, .L37
 100              	.L6:
 101              		.loc 1 386 0
 102 0050 012E     		cmp	r6, #1
 103 0052 09D0     		beq	.L7
 104              		.loc 1 386 0 is_stmt 0 discriminator 1
 105 0054 033E     		subs	r6, r6, #3
 106              	.LVL9:
 107 0056 F6B2     		uxtb	r6, r6
 108              	.LVL10:
 109 0058 012E     		cmp	r6, #1
 110 005a 05D9     		bls	.L7
 111              		.loc 1 402 0 is_stmt 1
 112 005c 636A     		ldr	r3, [r4, #36]
 113 005e A3B1     		cbz	r3, .L1
 114              		.loc 1 404 0 discriminator 1
ARM GAS  /tmp/ccT6pRdh.s 			page 3


 115 0060 BDE8F840 		pop	{r3, r4, r5, r6, r7, lr}
 116              	.LVL11:
 117              		.loc 1 402 0 discriminator 1
 118 0064 FFF7FEBF 		b	port_halt
 119              	.LVL12:
 120              	.L7:
 121              	.LBB2:
 122              		.loc 1 390 0
 123 0068 237F     		ldrb	r3, [r4, #28]	@ zero_extendqisi2
 124              	.LVL13:
 125              		.loc 1 391 0
 126 006a 23F00402 		bic	r2, r3, #4
 127              		.loc 1 393 0
 128 006e 5B07     		lsls	r3, r3, #29
 129              	.LVL14:
 130              		.loc 1 391 0
 131 0070 2277     		strb	r2, [r4, #28]
 132              	.LVL15:
 133              		.loc 1 393 0
 134 0072 0AD4     		bmi	.L1
 135              		.loc 1 395 0
 136 0074 636A     		ldr	r3, [r4, #36]
 137 0076 B3B1     		cbz	r3, .L38
 138              	.L11:
 139              		.loc 1 396 0
 140 0078 1F71     		strb	r7, [r3, #4]
 141              		.loc 1 397 0
 142 007a 0022     		movs	r2, #0
 143              		.loc 1 399 0
 144 007c 04F10C00 		add	r0, r4, #12
 145              		.loc 1 397 0
 146 0080 6262     		str	r2, [r4, #36]
 147              	.LBE2:
 148              		.loc 1 404 0
 149 0082 BDE8F840 		pop	{r3, r4, r5, r6, r7, lr}
 150              	.LVL16:
 151              	.LBB3:
 152              		.loc 1 399 0
 153 0086 FFF7FEBF 		b	sys_sem_signal
 154              	.LVL17:
 155              	.L1:
 156 008a F8BD     		pop	{r3, r4, r5, r6, r7, pc}
 157              	.LVL18:
 158              	.L37:
 159              	.LBE3:
 160              		.loc 1 383 0
 161 008c 2846     		mov	r0, r5
 162 008e 0021     		movs	r1, #0
 163 0090 FFF7FEFF 		bl	sys_mbox_trypost
 164              	.LVL19:
 165 0094 DCE7     		b	.L6
 166              	.L36:
 167              		.loc 1 378 0
 168 0096 2846     		mov	r0, r5
 169 0098 0021     		movs	r1, #0
 170 009a FFF7FEFF 		bl	sys_mbox_trypost
 171              	.LVL20:
ARM GAS  /tmp/ccT6pRdh.s 			page 4


 172 009e D1E7     		b	.L5
 173              	.LVL21:
 174              	.L35:
 175              		.loc 1 354 0 discriminator 1
 176 00a0 FFF7FEFF 		bl	port_halt
 177              	.LVL22:
 178 00a4 B1E7     		b	.L2
 179              	.L38:
 180              	.LBB4:
 181              		.loc 1 395 0 discriminator 1
 182 00a6 FFF7FEFF 		bl	port_halt
 183              	.LVL23:
 184 00aa 636A     		ldr	r3, [r4, #36]
 185 00ac E4E7     		b	.L11
 186              	.LBE4:
 187              		.cfi_endproc
 188              	.LFE12:
 189              		.size	err_tcp, .-err_tcp
 190 00ae 00BF     		.section	.text.recv_udp,"ax",%progbits
 191              		.align	2
 192              		.p2align 4,,15
 193              		.thumb
 194              		.thumb_func
 195              		.type	recv_udp, %function
 196              	recv_udp:
 197              	.LFB8:
 198              		.loc 1 146 0
 199              		.cfi_startproc
 200              		@ args = 4, pretend = 0, frame = 8
 201              		@ frame_needed = 0, uses_anonymous_args = 0
 202              	.LVL24:
 203 0000 2DE9F043 		push	{r4, r5, r6, r7, r8, r9, lr}
 204              		.cfi_def_cfa_offset 28
 205              		.cfi_offset 4, -28
 206              		.cfi_offset 5, -24
 207              		.cfi_offset 6, -20
 208              		.cfi_offset 7, -16
 209              		.cfi_offset 8, -12
 210              		.cfi_offset 9, -8
 211              		.cfi_offset 14, -4
 212 0004 83B0     		sub	sp, sp, #12
 213              		.cfi_def_cfa_offset 40
 214              		.loc 1 146 0
 215 0006 0446     		mov	r4, r0
 216 0008 1546     		mov	r5, r2
 217 000a 9846     		mov	r8, r3
 218 000c BDF82890 		ldrh	r9, [sp, #40]
 219              		.loc 1 155 0
 220 0010 0029     		cmp	r1, #0
 221 0012 32D0     		beq	.L55
 222              	.LVL25:
 223              	.L40:
 224              		.loc 1 156 0
 225 0014 002C     		cmp	r4, #0
 226 0016 3BD0     		beq	.L56
 227              	.L41:
 228              	.LVL26:
ARM GAS  /tmp/ccT6pRdh.s 			page 5


 229              		.loc 1 158 0
 230 0018 6268     		ldr	r2, [r4, #4]
 231 001a 8A42     		cmp	r2, r1
 232 001c 01D0     		beq	.L42
 233              		.loc 1 158 0 is_stmt 0 discriminator 1
 234 001e FFF7FEFF 		bl	port_halt
 235              	.LVL27:
 236              	.L42:
 237              		.loc 1 165 0 is_stmt 1
 238 0022 04F11007 		add	r7, r4, #16
 239 0026 3846     		mov	r0, r7
 240 0028 FFF7FEFF 		bl	sys_mbox_valid
 241              	.LVL28:
 242 002c 28B9     		cbnz	r0, .L43
 243              	.L44:
 244              		.loc 1 167 0
 245 002e 2846     		mov	r0, r5
 246              		.loc 1 205 0
 247 0030 03B0     		add	sp, sp, #12
 248              		@ sp needed
 249 0032 BDE8F043 		pop	{r4, r5, r6, r7, r8, r9, lr}
 250              	.LVL29:
 251              		.loc 1 167 0
 252 0036 FFF7FEBF 		b	pbuf_free
 253              	.LVL30:
 254              	.L43:
 255              		.loc 1 171 0
 256 003a 0720     		movs	r0, #7
 257 003c FFF7FEFF 		bl	memp_malloc
 258              	.LVL31:
 259              		.loc 1 172 0
 260 0040 0646     		mov	r6, r0
 261 0042 0028     		cmp	r0, #0
 262 0044 F3D0     		beq	.L44
 263              		.loc 1 176 0
 264 0046 0560     		str	r5, [r0]
 265              		.loc 1 177 0
 266 0048 4560     		str	r5, [r0, #4]
 267              		.loc 1 178 0
 268 004a 4346     		mov	r3, r8
 269 004c B8F1000F 		cmp	r8, #0
 270 0050 01D0     		beq	.L45
 271              	.LVL32:
 272              		.loc 1 178 0 is_stmt 0 discriminator 1
 273 0052 D8F80030 		ldr	r3, [r8]
 274              	.LVL33:
 275              	.L45:
 276              		.loc 1 195 0 is_stmt 1 discriminator 3
 277 0056 3146     		mov	r1, r6
 278              		.loc 1 178 0 discriminator 3
 279 0058 B360     		str	r3, [r6, #8]
 280              		.loc 1 179 0 discriminator 3
 281 005a A6F80C90 		strh	r9, [r6, #12]	@ movhi
 282              		.loc 1 195 0 discriminator 3
 283 005e 3846     		mov	r0, r7
 284              	.LVL34:
 285              		.loc 1 194 0 discriminator 3
ARM GAS  /tmp/ccT6pRdh.s 			page 6


 286 0060 2D89     		ldrh	r5, [r5, #8]
 287              	.LVL35:
 288              		.loc 1 195 0 discriminator 3
 289 0062 FFF7FEFF 		bl	sys_mbox_trypost
 290              	.LVL36:
 291 0066 0146     		mov	r1, r0
 292 0068 60B9     		cbnz	r0, .L57
 293              		.loc 1 203 0
 294 006a A36A     		ldr	r3, [r4, #40]
 295 006c 13B1     		cbz	r3, .L39
 296              		.loc 1 203 0 is_stmt 0 discriminator 1
 297 006e 2046     		mov	r0, r4
 298 0070 2A46     		mov	r2, r5
 299 0072 9847     		blx	r3
 300              	.LVL37:
 301              	.L39:
 302              		.loc 1 205 0 is_stmt 1
 303 0074 03B0     		add	sp, sp, #12
 304              		@ sp needed
 305 0076 BDE8F083 		pop	{r4, r5, r6, r7, r8, r9, pc}
 306              	.LVL38:
 307              	.L55:
 308              		.loc 1 155 0 discriminator 1
 309 007a 0191     		str	r1, [sp, #4]
 310 007c FFF7FEFF 		bl	port_halt
 311              	.LVL39:
 312 0080 0199     		ldr	r1, [sp, #4]
 313 0082 C7E7     		b	.L40
 314              	.LVL40:
 315              	.L57:
 316              		.loc 1 196 0
 317 0084 3046     		mov	r0, r6
 318              		.loc 1 205 0
 319 0086 03B0     		add	sp, sp, #12
 320              		@ sp needed
 321 0088 BDE8F043 		pop	{r4, r5, r6, r7, r8, r9, lr}
 322              	.LVL41:
 323              		.loc 1 196 0
 324 008c FFF7FEBF 		b	netbuf_delete
 325              	.LVL42:
 326              	.L56:
 327              		.loc 1 156 0 discriminator 1
 328 0090 0191     		str	r1, [sp, #4]
 329 0092 FFF7FEFF 		bl	port_halt
 330              	.LVL43:
 331 0096 0199     		ldr	r1, [sp, #4]
 332 0098 BEE7     		b	.L41
 333              		.cfi_endproc
 334              	.LFE8:
 335              		.size	recv_udp, .-recv_udp
 336 009a 00BFAFF3 		.section	.text.recv_raw,"ax",%progbits
 336      0080
 337              		.align	2
 338              		.p2align 4,,15
 339              		.thumb
 340              		.thumb_func
 341              		.type	recv_raw, %function
ARM GAS  /tmp/ccT6pRdh.s 			page 7


 342              	recv_raw:
 343              	.LFB7:
 344              		.loc 1 80 0
 345              		.cfi_startproc
 346              		@ args = 0, pretend = 0, frame = 0
 347              		@ frame_needed = 0, uses_anonymous_args = 0
 348              	.LVL44:
 349 0000 2DE9F041 		push	{r4, r5, r6, r7, r8, lr}
 350              		.cfi_def_cfa_offset 24
 351              		.cfi_offset 4, -24
 352              		.cfi_offset 5, -20
 353              		.cfi_offset 6, -16
 354              		.cfi_offset 7, -12
 355              		.cfi_offset 8, -8
 356              		.cfi_offset 14, -4
 357              		.loc 1 88 0
 358 0004 0446     		mov	r4, r0
 359              		.loc 1 80 0
 360 0006 0F46     		mov	r7, r1
 361 0008 1646     		mov	r6, r2
 362              		.loc 1 88 0
 363 000a 28B1     		cbz	r0, .L73
 364              		.loc 1 88 0 is_stmt 0 discriminator 1
 365 000c 00F11005 		add	r5, r0, #16
 366 0010 2846     		mov	r0, r5
 367              	.LVL45:
 368 0012 FFF7FEFF 		bl	sys_mbox_valid
 369              	.LVL46:
 370 0016 10B9     		cbnz	r0, .L78
 371              	.LVL47:
 372              	.L73:
 373              		.loc 1 133 0 is_stmt 1
 374 0018 0020     		movs	r0, #0
 375 001a BDE8F081 		pop	{r4, r5, r6, r7, r8, pc}
 376              	.LVL48:
 377              	.L78:
 378              		.loc 1 97 0
 379 001e 0320     		movs	r0, #3
 380 0020 3189     		ldrh	r1, [r6, #8]
 381 0022 0022     		movs	r2, #0
 382 0024 FFF7FEFF 		bl	pbuf_alloc
 383              	.LVL49:
 384              		.loc 1 98 0
 385 0028 8046     		mov	r8, r0
 386 002a 0028     		cmp	r0, #0
 387 002c F4D0     		beq	.L73
 388              		.loc 1 99 0
 389 002e 3146     		mov	r1, r6
 390 0030 FFF7FEFF 		bl	pbuf_copy
 391              	.LVL50:
 392 0034 08BB     		cbnz	r0, .L65
 393              	.LBB5:
 394              		.loc 1 107 0
 395 0036 0720     		movs	r0, #7
 396 0038 FFF7FEFF 		bl	memp_malloc
 397              	.LVL51:
 398              		.loc 1 108 0
ARM GAS  /tmp/ccT6pRdh.s 			page 8


 399 003c 0646     		mov	r6, r0
 400              	.LVL52:
 401 003e E0B1     		cbz	r0, .L65
 402              		.loc 1 115 0
 403 0040 40F20003 		movw	r3, #:lower16:current_iphdr_src
 404 0044 C0F20003 		movt	r3, #:upper16:current_iphdr_src
 405              		.loc 1 113 0
 406 0048 C6F80080 		str	r8, [r6]
 407              		.loc 1 115 0
 408 004c 1B68     		ldr	r3, [r3]
 409              		.loc 1 114 0
 410 004e C6F80480 		str	r8, [r6, #4]
 411              		.loc 1 115 0
 412 0052 B360     		str	r3, [r6, #8]
 413              		.loc 1 116 0
 414 0054 3B7C     		ldrb	r3, [r7, #16]	@ zero_extendqisi2
 415              		.loc 1 118 0
 416 0056 B8F80870 		ldrh	r7, [r8, #8]
 417              	.LVL53:
 418              		.loc 1 116 0
 419 005a B381     		strh	r3, [r6, #12]	@ movhi
 420              		.loc 1 119 0
 421 005c 3146     		mov	r1, r6
 422 005e 2846     		mov	r0, r5
 423              	.LVL54:
 424 0060 FFF7FEFF 		bl	sys_mbox_trypost
 425              	.LVL55:
 426 0064 0146     		mov	r1, r0
 427 0066 60B9     		cbnz	r0, .L79
 428              		.loc 1 127 0
 429 0068 A36A     		ldr	r3, [r4, #40]
 430 006a 002B     		cmp	r3, #0
 431 006c D4D0     		beq	.L73
 432              		.loc 1 127 0 is_stmt 0 discriminator 1
 433 006e 2046     		mov	r0, r4
 434 0070 3A46     		mov	r2, r7
 435 0072 9847     		blx	r3
 436              	.LVL56:
 437              	.LBE5:
 438              		.loc 1 133 0 is_stmt 1 discriminator 1
 439 0074 0020     		movs	r0, #0
 440 0076 BDE8F081 		pop	{r4, r5, r6, r7, r8, pc}
 441              	.LVL57:
 442              	.L65:
 443              	.LBB6:
 444              		.loc 1 109 0
 445 007a 4046     		mov	r0, r8
 446 007c FFF7FEFF 		bl	pbuf_free
 447              	.LVL58:
 448              		.loc 1 110 0
 449 0080 CAE7     		b	.L73
 450              	.LVL59:
 451              	.L79:
 452              		.loc 1 120 0
 453 0082 3046     		mov	r0, r6
 454 0084 FFF7FEFF 		bl	netbuf_delete
 455              	.LVL60:
ARM GAS  /tmp/ccT6pRdh.s 			page 9


 456              		.loc 1 121 0
 457 0088 C6E7     		b	.L73
 458              	.LBE6:
 459              		.cfi_endproc
 460              	.LFE7:
 461              		.size	recv_raw, .-recv_raw
 462 008a 00BFAFF3 		.section	.text.setup_tcp,"ax",%progbits
 462      0080
 463              		.align	2
 464              		.p2align 4,,15
 465              		.thumb
 466              		.thumb_func
 467              		.type	setup_tcp, %function
 468              	setup_tcp:
 469              	.LFB13:
 470              		.loc 1 414 0
 471              		.cfi_startproc
 472              		@ args = 0, pretend = 0, frame = 0
 473              		@ frame_needed = 0, uses_anonymous_args = 0
 474              	.LVL61:
 475 0000 10B5     		push	{r4, lr}
 476              		.cfi_def_cfa_offset 8
 477              		.cfi_offset 4, -8
 478              		.cfi_offset 14, -4
 479              		.loc 1 417 0
 480 0002 4468     		ldr	r4, [r0, #4]
 481              	.LVL62:
 482              		.loc 1 418 0
 483 0004 0146     		mov	r1, r0
 484 0006 2046     		mov	r0, r4
 485              	.LVL63:
 486 0008 FFF7FEFF 		bl	tcp_arg
 487              	.LVL64:
 488              		.loc 1 419 0
 489 000c 40F20001 		movw	r1, #:lower16:recv_tcp
 490 0010 2046     		mov	r0, r4
 491 0012 C0F20001 		movt	r1, #:upper16:recv_tcp
 492 0016 FFF7FEFF 		bl	tcp_recv
 493              	.LVL65:
 494              		.loc 1 420 0
 495 001a 40F20001 		movw	r1, #:lower16:sent_tcp
 496 001e 2046     		mov	r0, r4
 497 0020 C0F20001 		movt	r1, #:upper16:sent_tcp
 498 0024 FFF7FEFF 		bl	tcp_sent
 499              	.LVL66:
 500              		.loc 1 421 0
 501 0028 40F20001 		movw	r1, #:lower16:poll_tcp
 502 002c 2046     		mov	r0, r4
 503 002e C0F20001 		movt	r1, #:upper16:poll_tcp
 504 0032 0422     		movs	r2, #4
 505 0034 FFF7FEFF 		bl	tcp_poll
 506              	.LVL67:
 507              		.loc 1 422 0
 508 0038 40F20001 		movw	r1, #:lower16:err_tcp
 509 003c 2046     		mov	r0, r4
 510 003e C0F20001 		movt	r1, #:upper16:err_tcp
 511              		.loc 1 423 0
ARM GAS  /tmp/ccT6pRdh.s 			page 10


 512 0042 BDE81040 		pop	{r4, lr}
 513              	.LVL68:
 514              		.loc 1 422 0
 515 0046 FFF7FEBF 		b	tcp_err
 516              	.LVL69:
 517              		.cfi_endproc
 518              	.LFE13:
 519              		.size	setup_tcp, .-setup_tcp
 520 004a 00BFAFF3 		.section	.text.do_connected,"ax",%progbits
 520      0080
 521              		.align	2
 522              		.p2align 4,,15
 523              		.thumb
 524              		.thumb_func
 525              		.type	do_connected, %function
 526              	do_connected:
 527              	.LFB23:
 528              		.loc 1 938 0
 529              		.cfi_startproc
 530              		@ args = 0, pretend = 0, frame = 0
 531              		@ frame_needed = 0, uses_anonymous_args = 0
 532              	.LVL70:
 533 0000 38B5     		push	{r3, r4, r5, lr}
 534              		.cfi_def_cfa_offset 16
 535              		.cfi_offset 3, -16
 536              		.cfi_offset 4, -12
 537              		.cfi_offset 5, -8
 538              		.cfi_offset 14, -4
 539              		.loc 1 946 0
 540 0002 0446     		mov	r4, r0
 541              		.loc 1 938 0
 542 0004 1546     		mov	r5, r2
 543              		.loc 1 946 0
 544 0006 0028     		cmp	r0, #0
 545 0008 3AD0     		beq	.L91
 546              		.loc 1 950 0
 547 000a 4378     		ldrb	r3, [r0, #1]	@ zero_extendqisi2
 548 000c 032B     		cmp	r3, #3
 549 000e 01D0     		beq	.L83
 550              		.loc 1 950 0 is_stmt 0 discriminator 1
 551 0010 FFF7FEFF 		bl	port_halt
 552              	.LVL71:
 553              	.L83:
 554              		.loc 1 951 0 is_stmt 1
 555 0014 636A     		ldr	r3, [r4, #36]
 556 0016 53B3     		cbz	r3, .L102
 557              	.L84:
 558              		.loc 1 955 0
 559 0018 1D71     		strb	r5, [r3, #4]
 560              	.L86:
 561              		.loc 1 957 0
 562 001a 2378     		ldrb	r3, [r4]	@ zero_extendqisi2
 563 001c 102B     		cmp	r3, #16
 564 001e 20D0     		beq	.L103
 565              	.L88:
 566              		.loc 1 960 0
 567 0020 237F     		ldrb	r3, [r4, #28]	@ zero_extendqisi2
ARM GAS  /tmp/ccT6pRdh.s 			page 11


 568 0022 83F00405 		eor	r5, r3, #4
 569              		.loc 1 961 0
 570 0026 23F00402 		bic	r2, r3, #4
 571              		.loc 1 960 0
 572 002a C5F38005 		ubfx	r5, r5, #2, #1
 573              	.LVL72:
 574              		.loc 1 962 0
 575 002e 0023     		movs	r3, #0
 576              		.loc 1 961 0
 577 0030 2277     		strb	r2, [r4, #28]
 578              		.loc 1 962 0
 579 0032 6362     		str	r3, [r4, #36]
 580              		.loc 1 963 0
 581 0034 6370     		strb	r3, [r4, #1]
 582              		.loc 1 964 0
 583 0036 75B1     		cbz	r5, .L104
 584              	.L89:
 585              		.loc 1 967 0
 586 0038 A36A     		ldr	r3, [r4, #40]
 587 003a 1BB1     		cbz	r3, .L90
 588              		.loc 1 967 0 is_stmt 0 discriminator 1
 589 003c 2046     		mov	r0, r4
 590 003e 0221     		movs	r1, #2
 591 0040 0022     		movs	r2, #0
 592 0042 9847     		blx	r3
 593              	.LVL73:
 594              	.L90:
 595              		.loc 1 972 0 is_stmt 1
 596 0044 2846     		mov	r0, r5
 597              		.loc 1 969 0
 598 0046 25B1     		cbz	r5, .L82
 599              	.LVL74:
 600              		.loc 1 970 0
 601 0048 04F10C00 		add	r0, r4, #12
 602              	.LVL75:
 603 004c FFF7FEFF 		bl	sys_sem_signal
 604              	.LVL76:
 605              		.loc 1 972 0
 606 0050 0020     		movs	r0, #0
 607              	.LVL77:
 608              	.L82:
 609              		.loc 1 973 0
 610 0052 40B2     		sxtb	r0, r0
 611 0054 38BD     		pop	{r3, r4, r5, pc}
 612              	.LVL78:
 613              	.L104:
 614              		.loc 1 965 0
 615 0056 94F90830 		ldrsb	r3, [r4, #8]
 616 005a 0933     		adds	r3, r3, #9
 617 005c A8BF     		it	ge
 618 005e 2572     		strbge	r5, [r4, #8]
 619 0060 EAE7     		b	.L89
 620              	.LVL79:
 621              	.L103:
 622              		.loc 1 957 0 discriminator 1
 623 0062 002D     		cmp	r5, #0
 624 0064 DCD1     		bne	.L88
ARM GAS  /tmp/ccT6pRdh.s 			page 12


 625              		.loc 1 958 0
 626 0066 2046     		mov	r0, r4
 627 0068 FFF7FEFF 		bl	setup_tcp
 628              	.LVL80:
 629 006c D8E7     		b	.L88
 630              	.L102:
 631              		.loc 1 951 0 discriminator 1
 632 006e 237F     		ldrb	r3, [r4, #28]	@ zero_extendqisi2
 633 0070 5A07     		lsls	r2, r3, #29
 634 0072 D2D4     		bmi	.L86
 635 0074 FFF7FEFF 		bl	port_halt
 636              	.LVL81:
 637              		.loc 1 954 0 discriminator 1
 638 0078 636A     		ldr	r3, [r4, #36]
 639 007a 002B     		cmp	r3, #0
 640 007c CDD0     		beq	.L86
 641 007e CBE7     		b	.L84
 642              	.LVL82:
 643              	.L91:
 644              		.loc 1 947 0
 645 0080 FA20     		movs	r0, #250
 646              	.LVL83:
 647 0082 E6E7     		b	.L82
 648              		.cfi_endproc
 649              	.LFE23:
 650              		.size	do_connected, .-do_connected
 651 0084 AFF30080 		.section	.text.do_writemore,"ax",%progbits
 651      AFF30080 
 651      AFF30080 
 652              		.align	2
 653              		.p2align 4,,15
 654              		.thumb
 655              		.thumb_func
 656              		.type	do_writemore, %function
 657              	do_writemore:
 658              	.LFB29:
 659              		.loc 1 1209 0
 660              		.cfi_startproc
 661              		@ args = 0, pretend = 0, frame = 0
 662              		@ frame_needed = 0, uses_anonymous_args = 0
 663              	.LVL84:
 664 0000 2DE9F84F 		push	{r3, r4, r5, r6, r7, r8, r9, r10, fp, lr}
 665              		.cfi_def_cfa_offset 40
 666              		.cfi_offset 3, -40
 667              		.cfi_offset 4, -36
 668              		.cfi_offset 5, -32
 669              		.cfi_offset 6, -28
 670              		.cfi_offset 7, -24
 671              		.cfi_offset 8, -20
 672              		.cfi_offset 9, -16
 673              		.cfi_offset 10, -12
 674              		.cfi_offset 11, -8
 675              		.cfi_offset 14, -4
 676              		.loc 1 1215 0
 677 0004 037F     		ldrb	r3, [r0, #28]	@ zero_extendqisi2
 678 0006 13F0020F 		tst	r3, #2
 679 000a 436A     		ldr	r3, [r0, #36]
ARM GAS  /tmp/ccT6pRdh.s 			page 13


 680              		.loc 1 1216 0
 681 000c 0CBF     		ite	eq
 682 000e 1F7C     		ldrbeq	r7, [r3, #16]	@ zero_extendqisi2
 683 0010 1F7C     		ldrbne	r7, [r3, #16]	@ zero_extendqisi2
 684              		.loc 1 1220 0
 685 0012 4378     		ldrb	r3, [r0, #1]	@ zero_extendqisi2
 686              		.loc 1 1215 0
 687 0014 14BF     		ite	ne
 688 0016 4FF00108 		movne	r8, #1
 689 001a C7F38008 		ubfxeq	r8, r7, #2, #1
 690              	.LVL85:
 691              		.loc 1 1220 0
 692 001e 012B     		cmp	r3, #1
 693              		.loc 1 1209 0
 694 0020 0446     		mov	r4, r0
 695              		.loc 1 1220 0
 696 0022 05D0     		beq	.L108
 697              		.loc 1 1220 0 is_stmt 0 discriminator 1
 698 0024 FFF7FEFF 		bl	port_halt
 699              	.LVL86:
 700              		.loc 1 1221 0 is_stmt 1 discriminator 1
 701 0028 636A     		ldr	r3, [r4, #36]
 702 002a 002B     		cmp	r3, #0
 703 002c 00F09280 		beq	.L145
 704              	.L108:
 705              		.loc 1 1222 0
 706 0030 6368     		ldr	r3, [r4, #4]
 707 0032 002B     		cmp	r3, #0
 708 0034 00F09780 		beq	.L146
 709              	.L109:
 710              		.loc 1 1223 0
 711 0038 626A     		ldr	r2, [r4, #36]
 712 003a 266A     		ldr	r6, [r4, #32]
 713 003c D368     		ldr	r3, [r2, #12]
 714 003e 9E42     		cmp	r6, r3
 715 0040 68D2     		bcs	.L147
 716              	.L110:
 717              		.loc 1 1253 0
 718 0042 6068     		ldr	r0, [r4, #4]
 719              		.loc 1 1242 0
 720 0044 9168     		ldr	r1, [r2, #8]
 721              		.loc 1 1253 0
 722 0046 B0F866A0 		ldrh	r10, [r0, #102]
 723              		.loc 1 1243 0
 724 004a 9D1B     		subs	r5, r3, r6
 725              		.loc 1 1244 0
 726 004c B5F5803F 		cmp	r5, #65536
 727              		.loc 1 1245 0
 728 0050 2ABF     		itet	cs
 729 0052 4FF6FF75 		movwcs	r5, #65535
 730              		.loc 1 1251 0
 731 0056 ADB2     		uxthcc	r5, r5
 732              		.loc 1 1249 0
 733 0058 47F00207 		orrcs	r7, r7, #2
 734              	.LVL87:
 735              		.loc 1 1254 0
 736 005c 5545     		cmp	r5, r10
ARM GAS  /tmp/ccT6pRdh.s 			page 14


 737              		.loc 1 1242 0
 738 005e 01EB060B 		add	fp, r1, r6
 739              	.LVL88:
 740              		.loc 1 1254 0
 741 0062 05D9     		bls	.L113
 742              	.LVL89:
 743              		.loc 1 1257 0
 744 0064 B8F1000F 		cmp	r8, #0
 745 0068 29D1     		bne	.L148
 746              		.loc 1 1266 0
 747 006a 47F00207 		orr	r7, r7, #2
 748              	.LVL90:
 749              	.L144:
 750 006e 5546     		mov	r5, r10
 751              	.LVL91:
 752              	.L113:
 753              		.loc 1 1269 0
 754 0070 2E44     		add	r6, r6, r5
 755 0072 9E42     		cmp	r6, r3
 756 0074 A946     		mov	r9, r5
 757 0076 53D8     		bhi	.L149
 758              	.LVL92:
 759              	.L116:
 760              		.loc 1 1270 0
 761 0078 3B46     		mov	r3, r7
 762 007a 5946     		mov	r1, fp
 763 007c 2A46     		mov	r2, r5
 764 007e FFF7FEFF 		bl	tcp_write
 765              	.LVL93:
 766              		.loc 1 1272 0
 767 0082 431C     		adds	r3, r0, #1
 768 0084 DBB2     		uxtb	r3, r3
 769 0086 012B     		cmp	r3, #1
 770              		.loc 1 1270 0
 771 0088 0646     		mov	r6, r0
 772              	.LVL94:
 773              		.loc 1 1272 0
 774 008a 4DD9     		bls	.L150
 775              	.LVL95:
 776              	.L117:
 777              		.loc 1 1297 0
 778 008c 88F00108 		eor	r8, r8, #1
 779              	.LVL96:
 780 0090 73B2     		sxtb	r3, r6
 781 0092 B3F1FF3F 		cmp	r3, #-1
 782 0096 14BF     		ite	ne
 783 0098 0023     		movne	r3, #0
 784 009a 08F00103 		andeq	r3, r8, #1
 785 009e 002B     		cmp	r3, #0
 786 00a0 32D1     		bne	.L124
 787              	.LVL97:
 788              		.loc 1 1312 0
 789 00a2 626A     		ldr	r2, [r4, #36]
 790 00a4 D360     		str	r3, [r2, #12]
 791              	.LVL98:
 792              	.L125:
 793              		.loc 1 1318 0
ARM GAS  /tmp/ccT6pRdh.s 			page 15


 794 00a6 626A     		ldr	r2, [r4, #36]
 795              		.loc 1 1319 0
 796 00a8 0023     		movs	r3, #0
 797              		.loc 1 1318 0
 798 00aa 1671     		strb	r6, [r2, #4]
 799              		.loc 1 1325 0
 800 00ac 04F10C00 		add	r0, r4, #12
 801              		.loc 1 1319 0
 802 00b0 6362     		str	r3, [r4, #36]
 803              		.loc 1 1320 0
 804 00b2 6370     		strb	r3, [r4, #1]
 805              		.loc 1 1325 0
 806 00b4 FFF7FEFF 		bl	sys_sem_signal
 807              	.LVL99:
 808              		.loc 1 1333 0
 809 00b8 0020     		movs	r0, #0
 810 00ba BDE8F88F 		pop	{r3, r4, r5, r6, r7, r8, r9, r10, fp, pc}
 811              	.LVL100:
 812              	.L148:
 813              		.loc 1 1258 0
 814 00be BAF1000F 		cmp	r10, #0
 815 00c2 D4D1     		bne	.L144
 816 00c4 D146     		mov	r9, r10
 817              		.loc 1 1259 0
 818 00c6 F926     		movs	r6, #249
 819              	.LVL101:
 820              	.L115:
 821              		.loc 1 1274 0 discriminator 1
 822 00c8 9945     		cmp	r9, r3
 823 00ca 4AD2     		bcs	.L130
 824              		.loc 1 1277 0
 825 00cc A36A     		ldr	r3, [r4, #40]
 826 00ce 1BB1     		cbz	r3, .L120
 827              		.loc 1 1277 0 is_stmt 0 discriminator 1
 828 00d0 2046     		mov	r0, r4
 829 00d2 0321     		movs	r1, #3
 830 00d4 5246     		mov	r2, r10
 831 00d6 9847     		blx	r3
 832              	.LVL102:
 833              	.L120:
 834              		.loc 1 1278 0 is_stmt 1
 835 00d8 237F     		ldrb	r3, [r4, #28]	@ zero_extendqisi2
 836 00da 43F01003 		orr	r3, r3, #16
 837 00de 5546     		mov	r5, r10
 838 00e0 2377     		strb	r3, [r4, #28]
 839              	.LVL103:
 840              	.L121:
 841              		.loc 1 1287 0
 842 00e2 002E     		cmp	r6, #0
 843 00e4 D2D1     		bne	.L117
 844              		.loc 1 1288 0
 845 00e6 226A     		ldr	r2, [r4, #32]
 846              		.loc 1 1289 0
 847 00e8 636A     		ldr	r3, [r4, #36]
 848              		.loc 1 1288 0
 849 00ea 1544     		add	r5, r5, r2
 850              	.LVL104:
ARM GAS  /tmp/ccT6pRdh.s 			page 16


 851 00ec 2562     		str	r5, [r4, #32]
 852              		.loc 1 1289 0
 853 00ee DA68     		ldr	r2, [r3, #12]
 854 00f0 9542     		cmp	r5, r2
 855 00f2 02D0     		beq	.L123
 856              		.loc 1 1289 0 is_stmt 0 discriminator 1
 857 00f4 B8F1000F 		cmp	r8, #0
 858 00f8 06D0     		beq	.L124
 859              	.L123:
 860              		.loc 1 1291 0 is_stmt 1
 861 00fa DD60     		str	r5, [r3, #12]
 862              	.LVL105:
 863              		.loc 1 1294 0
 864 00fc 0023     		movs	r3, #0
 865              		.loc 1 1296 0
 866 00fe 6068     		ldr	r0, [r4, #4]
 867              		.loc 1 1294 0
 868 0100 2362     		str	r3, [r4, #32]
 869              		.loc 1 1296 0
 870 0102 FFF7FEFF 		bl	tcp_output
 871              	.LVL106:
 872 0106 CEE7     		b	.L125
 873              	.LVL107:
 874              	.L124:
 875 0108 6068     		ldr	r0, [r4, #4]
 876 010a FFF7FEFF 		bl	tcp_output
 877              	.LVL108:
 878              		.loc 1 1333 0
 879 010e 0020     		movs	r0, #0
 880 0110 BDE8F88F 		pop	{r3, r4, r5, r6, r7, r8, r9, r10, fp, pc}
 881              	.LVL109:
 882              	.L147:
 883              		.loc 1 1223 0 discriminator 1
 884 0114 FFF7FEFF 		bl	port_halt
 885              	.LVL110:
 886 0118 626A     		ldr	r2, [r4, #36]
 887 011a 266A     		ldr	r6, [r4, #32]
 888 011c D368     		ldr	r3, [r2, #12]
 889 011e 90E7     		b	.L110
 890              	.LVL111:
 891              	.L149:
 892              		.loc 1 1269 0 discriminator 1
 893 0120 FFF7FEFF 		bl	port_halt
 894              	.LVL112:
 895 0124 6068     		ldr	r0, [r4, #4]
 896 0126 A7E7     		b	.L116
 897              	.LVL113:
 898              	.L150:
 899              	.L118:
 900              		.loc 1 1274 0
 901 0128 B8F1000F 		cmp	r8, #0
 902 012c 15D1     		bne	.L151
 903              	.LVL114:
 904              	.L119:
 905              		.loc 1 1279 0
 906 012e 6368     		ldr	r3, [r4, #4]
 907 0130 B3F86620 		ldrh	r2, [r3, #102]
ARM GAS  /tmp/ccT6pRdh.s 			page 17


 908 0134 B2F5866F 		cmp	r2, #1072
 909 0138 07D2     		bcs	.L152
 910              	.L122:
 911              		.loc 1 1283 0
 912 013a A36A     		ldr	r3, [r4, #40]
 913 013c 002B     		cmp	r3, #0
 914 013e D0D0     		beq	.L121
 915              		.loc 1 1283 0 is_stmt 0 discriminator 1
 916 0140 2046     		mov	r0, r4
 917 0142 0321     		movs	r1, #3
 918 0144 2A46     		mov	r2, r5
 919 0146 9847     		blx	r3
 920              	.LVL115:
 921 0148 CBE7     		b	.L121
 922              	.L152:
 923              		.loc 1 1279 0 is_stmt 1 discriminator 1
 924 014a B3F86830 		ldrh	r3, [r3, #104]
 925 014e 042B     		cmp	r3, #4
 926 0150 C7D9     		bls	.L121
 927 0152 F2E7     		b	.L122
 928              	.LVL116:
 929              	.L145:
 930              		.loc 1 1221 0 discriminator 1
 931 0154 FFF7FEFF 		bl	port_halt
 932              	.LVL117:
 933 0158 6AE7     		b	.L108
 934              	.LVL118:
 935              	.L151:
 936 015a 636A     		ldr	r3, [r4, #36]
 937              		.loc 1 1274 0
 938 015c AA46     		mov	r10, r5
 939              	.LVL119:
 940 015e DB68     		ldr	r3, [r3, #12]
 941 0160 B2E7     		b	.L115
 942              	.LVL120:
 943              	.L130:
 944 0162 5546     		mov	r5, r10
 945 0164 E3E7     		b	.L119
 946              	.LVL121:
 947              	.L146:
 948              		.loc 1 1222 0 discriminator 1
 949 0166 FFF7FEFF 		bl	port_halt
 950              	.LVL122:
 951 016a 65E7     		b	.L109
 952              		.cfi_endproc
 953              	.LFE29:
 954              		.size	do_writemore, .-do_writemore
 955 016c AFF30080 		.section	.text.do_close_internal,"ax",%progbits
 956              		.align	2
 957              		.p2align 4,,15
 958              		.thumb
 959              		.thumb_func
 960              		.type	do_close_internal, %function
 961              	do_close_internal:
 962              	.LFB20:
 963              		.loc 1 748 0
 964              		.cfi_startproc
ARM GAS  /tmp/ccT6pRdh.s 			page 18


 965              		@ args = 0, pretend = 0, frame = 0
 966              		@ frame_needed = 0, uses_anonymous_args = 0
 967              	.LVL123:
 968 0000 F8B5     		push	{r3, r4, r5, r6, r7, lr}
 969              		.cfi_def_cfa_offset 24
 970              		.cfi_offset 3, -24
 971              		.cfi_offset 4, -20
 972              		.cfi_offset 5, -16
 973              		.cfi_offset 6, -12
 974              		.cfi_offset 7, -8
 975              		.cfi_offset 14, -4
 976              		.loc 1 752 0
 977 0002 0446     		mov	r4, r0
 978 0004 0028     		cmp	r0, #0
 979 0006 00F0A280 		beq	.L208
 980              	.LVL124:
 981              	.L154:
 982              		.loc 1 753 0
 983 000a 2378     		ldrb	r3, [r4]	@ zero_extendqisi2
 984 000c 102B     		cmp	r3, #16
 985 000e 01D0     		beq	.L155
 986              		.loc 1 753 0 is_stmt 0 discriminator 1
 987 0010 FFF7FEFF 		bl	port_halt
 988              	.LVL125:
 989              	.L155:
 990              		.loc 1 754 0 is_stmt 1
 991 0014 6378     		ldrb	r3, [r4, #1]	@ zero_extendqisi2
 992 0016 042B     		cmp	r3, #4
 993 0018 01D0     		beq	.L156
 994              		.loc 1 754 0 is_stmt 0 discriminator 1
 995 001a FFF7FEFF 		bl	port_halt
 996              	.LVL126:
 997              	.L156:
 998              		.loc 1 755 0 is_stmt 1
 999 001e 6368     		ldr	r3, [r4, #4]
 1000 0020 002B     		cmp	r3, #0
 1001 0022 00F08D80 		beq	.L209
 1002              	.L157:
 1003              		.loc 1 756 0
 1004 0026 636A     		ldr	r3, [r4, #36]
 1005 0028 002B     		cmp	r3, #0
 1006 002a 00F08C80 		beq	.L210
 1007              	.L158:
 1008              		.loc 1 758 0
 1009 002e 197A     		ldrb	r1, [r3, #8]	@ zero_extendqisi2
 1010              	.LVL127:
 1011              		.loc 1 762 0
 1012 0030 C81E     		subs	r0, r1, #3
 1013 0032 4542     		rsbs	r5, r0, #0
 1014              		.loc 1 760 0
 1015 0034 01F00206 		and	r6, r1, #2
 1016              		.loc 1 762 0
 1017 0038 4541     		adcs	r5, r5, r0
 1018              		.loc 1 760 0
 1019 003a F6B2     		uxtb	r6, r6
 1020              		.loc 1 759 0
 1021 003c 01F00107 		and	r7, r1, #1
ARM GAS  /tmp/ccT6pRdh.s 			page 19


 1022              	.LVL128:
 1023              		.loc 1 765 0
 1024 0040 002D     		cmp	r5, #0
 1025 0042 6AD1     		bne	.L211
 1026              		.loc 1 768 0
 1027 0044 6068     		ldr	r0, [r4, #4]
 1028 0046 037E     		ldrb	r3, [r0, #24]	@ zero_extendqisi2
 1029              	.LVL129:
 1030 0048 012B     		cmp	r3, #1
 1031 004a 6ED0     		beq	.L212
 1032              	.LVL130:
 1033              	.L160:
 1034              		.loc 1 772 0
 1035 004c 002F     		cmp	r7, #0
 1036 004e 59D1     		bne	.L213
 1037              		.loc 1 776 0
 1038 0050 002E     		cmp	r6, #0
 1039 0052 45D1     		bne	.L214
 1040              	.L164:
 1041              		.loc 1 779 0
 1042 0054 002D     		cmp	r5, #0
 1043 0056 49D1     		bne	.L215
 1044              	.L165:
 1045              		.loc 1 788 0
 1046 0058 3946     		mov	r1, r7
 1047 005a 3246     		mov	r2, r6
 1048 005c FFF7FEFF 		bl	tcp_shutdown
 1049              	.LVL131:
 1050              	.L166:
 1051              		.loc 1 790 0
 1052 0060 F8B9     		cbnz	r0, .L167
 1053              		.loc 1 792 0
 1054 0062 636A     		ldr	r3, [r4, #36]
 1055 0064 1871     		strb	r0, [r3, #4]
 1056              		.loc 1 793 0
 1057 0066 6062     		str	r0, [r4, #36]
 1058              		.loc 1 794 0
 1059 0068 6070     		strb	r0, [r4, #1]
 1060              		.loc 1 795 0
 1061 006a 35B1     		cbz	r5, .L169
 1062              		.loc 1 800 0
 1063 006c A36A     		ldr	r3, [r4, #40]
 1064              		.loc 1 797 0
 1065 006e 6060     		str	r0, [r4, #4]
 1066              		.loc 1 800 0
 1067 0070 1BB1     		cbz	r3, .L169
 1068              		.loc 1 800 0 is_stmt 0 discriminator 1
 1069 0072 0246     		mov	r2, r0
 1070 0074 0421     		movs	r1, #4
 1071 0076 2046     		mov	r0, r4
 1072              	.LVL132:
 1073 0078 9847     		blx	r3
 1074              	.LVL133:
 1075              	.L169:
 1076              		.loc 1 802 0 is_stmt 1
 1077 007a 2FB1     		cbz	r7, .L171
 1078              		.loc 1 803 0
ARM GAS  /tmp/ccT6pRdh.s 			page 20


 1079 007c A36A     		ldr	r3, [r4, #40]
 1080 007e 1BB1     		cbz	r3, .L171
 1081              		.loc 1 803 0 is_stmt 0 discriminator 1
 1082 0080 0021     		movs	r1, #0
 1083 0082 0A46     		mov	r2, r1
 1084 0084 2046     		mov	r0, r4
 1085 0086 9847     		blx	r3
 1086              	.LVL134:
 1087              	.L171:
 1088              		.loc 1 805 0 is_stmt 1
 1089 0088 2EB1     		cbz	r6, .L172
 1090              		.loc 1 806 0
 1091 008a A36A     		ldr	r3, [r4, #40]
 1092 008c 1BB1     		cbz	r3, .L172
 1093              		.loc 1 806 0 is_stmt 0 discriminator 1
 1094 008e 2046     		mov	r0, r4
 1095 0090 0221     		movs	r1, #2
 1096 0092 0022     		movs	r2, #0
 1097 0094 9847     		blx	r3
 1098              	.LVL135:
 1099              	.L172:
 1100              		.loc 1 809 0 is_stmt 1
 1101 0096 04F10C00 		add	r0, r4, #12
 1102              		.loc 1 822 0
 1103 009a BDE8F840 		pop	{r3, r4, r5, r6, r7, lr}
 1104              	.LVL136:
 1105              		.loc 1 809 0
 1106 009e FFF7FEBF 		b	sys_sem_signal
 1107              	.LVL137:
 1108              	.L167:
 1109              		.loc 1 813 0
 1110 00a2 6068     		ldr	r0, [r4, #4]
 1111              	.LVL138:
 1112 00a4 037E     		ldrb	r3, [r0, #24]	@ zero_extendqisi2
 1113 00a6 012B     		cmp	r3, #1
 1114 00a8 46D0     		beq	.L216
 1115              	.L173:
 1116              		.loc 1 814 0
 1117 00aa 40F20001 		movw	r1, #:lower16:sent_tcp
 1118 00ae C0F20001 		movt	r1, #:upper16:sent_tcp
 1119 00b2 FFF7FEFF 		bl	tcp_sent
 1120              	.LVL139:
 1121              		.loc 1 815 0
 1122 00b6 40F20001 		movw	r1, #:lower16:poll_tcp
 1123 00ba 6068     		ldr	r0, [r4, #4]
 1124 00bc C0F20001 		movt	r1, #:upper16:poll_tcp
 1125 00c0 0422     		movs	r2, #4
 1126 00c2 FFF7FEFF 		bl	tcp_poll
 1127              	.LVL140:
 1128              		.loc 1 816 0
 1129 00c6 40F20001 		movw	r1, #:lower16:err_tcp
 1130 00ca 6068     		ldr	r0, [r4, #4]
 1131 00cc C0F20001 		movt	r1, #:upper16:err_tcp
 1132 00d0 FFF7FEFF 		bl	tcp_err
 1133              	.LVL141:
 1134              		.loc 1 817 0
 1135 00d4 6068     		ldr	r0, [r4, #4]
ARM GAS  /tmp/ccT6pRdh.s 			page 21


 1136 00d6 2146     		mov	r1, r4
 1137              		.loc 1 822 0
 1138 00d8 BDE8F840 		pop	{r3, r4, r5, r6, r7, lr}
 1139              	.LVL142:
 1140              		.loc 1 817 0
 1141 00dc FFF7FEBF 		b	tcp_arg
 1142              	.LVL143:
 1143              	.L214:
 1144              		.loc 1 777 0
 1145 00e0 0021     		movs	r1, #0
 1146 00e2 FFF7FEFF 		bl	tcp_sent
 1147              	.LVL144:
 1148 00e6 6068     		ldr	r0, [r4, #4]
 1149              		.loc 1 779 0
 1150 00e8 002D     		cmp	r5, #0
 1151 00ea B5D0     		beq	.L165
 1152              	.L215:
 1153              		.loc 1 780 0
 1154 00ec 0021     		movs	r1, #0
 1155 00ee 0422     		movs	r2, #4
 1156 00f0 FFF7FEFF 		bl	tcp_poll
 1157              	.LVL145:
 1158              		.loc 1 781 0
 1159 00f4 6068     		ldr	r0, [r4, #4]
 1160 00f6 0021     		movs	r1, #0
 1161 00f8 FFF7FEFF 		bl	tcp_err
 1162              	.LVL146:
 1163              	.L161:
 1164              		.loc 1 786 0
 1165 00fc 6068     		ldr	r0, [r4, #4]
 1166 00fe FFF7FEFF 		bl	tcp_close
 1167              	.LVL147:
 1168 0102 ADE7     		b	.L166
 1169              	.LVL148:
 1170              	.L213:
 1171              		.loc 1 773 0
 1172 0104 0021     		movs	r1, #0
 1173 0106 FFF7FEFF 		bl	tcp_recv
 1174              	.LVL149:
 1175              		.loc 1 774 0
 1176 010a 6068     		ldr	r0, [r4, #4]
 1177 010c 0021     		movs	r1, #0
 1178 010e FFF7FEFF 		bl	tcp_accept
 1179              	.LVL150:
 1180 0112 6068     		ldr	r0, [r4, #4]
 1181              		.loc 1 776 0
 1182 0114 002E     		cmp	r6, #0
 1183 0116 9DD0     		beq	.L164
 1184 0118 E2E7     		b	.L214
 1185              	.LVL151:
 1186              	.L211:
 1187              		.loc 1 766 0
 1188 011a 6068     		ldr	r0, [r4, #4]
 1189 011c 0021     		movs	r1, #0
 1190 011e FFF7FEFF 		bl	tcp_arg
 1191              	.LVL152:
 1192              		.loc 1 768 0
ARM GAS  /tmp/ccT6pRdh.s 			page 22


 1193 0122 6068     		ldr	r0, [r4, #4]
 1194 0124 037E     		ldrb	r3, [r0, #24]	@ zero_extendqisi2
 1195 0126 012B     		cmp	r3, #1
 1196 0128 90D1     		bne	.L160
 1197              	.L212:
 1198              		.loc 1 769 0
 1199 012a 0021     		movs	r1, #0
 1200 012c FFF7FEFF 		bl	tcp_accept
 1201              	.LVL153:
 1202              		.loc 1 785 0
 1203 0130 002D     		cmp	r5, #0
 1204 0132 E3D1     		bne	.L161
 1205 0134 6068     		ldr	r0, [r4, #4]
 1206 0136 8FE7     		b	.L165
 1207              	.L216:
 1208              		.loc 1 813 0 discriminator 1
 1209 0138 FFF7FEFF 		bl	port_halt
 1210              	.LVL154:
 1211 013c 6068     		ldr	r0, [r4, #4]
 1212 013e B4E7     		b	.L173
 1213              	.LVL155:
 1214              	.L209:
 1215              		.loc 1 755 0 discriminator 1
 1216 0140 FFF7FEFF 		bl	port_halt
 1217              	.LVL156:
 1218 0144 6FE7     		b	.L157
 1219              	.L210:
 1220              		.loc 1 756 0 discriminator 1
 1221 0146 FFF7FEFF 		bl	port_halt
 1222              	.LVL157:
 1223 014a 636A     		ldr	r3, [r4, #36]
 1224 014c 6FE7     		b	.L158
 1225              	.LVL158:
 1226              	.L208:
 1227              		.loc 1 752 0 discriminator 1
 1228 014e FFF7FEFF 		bl	port_halt
 1229              	.LVL159:
 1230 0152 5AE7     		b	.L154
 1231              		.cfi_endproc
 1232              	.LFE20:
 1233              		.size	do_close_internal, .-do_close_internal
 1234 0154 AFF30080 		.section	.text.poll_tcp,"ax",%progbits
 1234      AFF30080 
 1234      AFF30080 
 1235              		.align	2
 1236              		.p2align 4,,15
 1237              		.thumb
 1238              		.thumb_func
 1239              		.type	poll_tcp, %function
 1240              	poll_tcp:
 1241              	.LFB10:
 1242              		.loc 1 278 0
 1243              		.cfi_startproc
 1244              		@ args = 0, pretend = 0, frame = 0
 1245              		@ frame_needed = 0, uses_anonymous_args = 0
 1246              	.LVL160:
 1247 0000 38B5     		push	{r3, r4, r5, lr}
ARM GAS  /tmp/ccT6pRdh.s 			page 23


 1248              		.cfi_def_cfa_offset 16
 1249              		.cfi_offset 3, -16
 1250              		.cfi_offset 4, -12
 1251              		.cfi_offset 5, -8
 1252              		.cfi_offset 14, -4
 1253              		.loc 1 282 0
 1254 0002 0446     		mov	r4, r0
 1255 0004 28B3     		cbz	r0, .L230
 1256              	.LVL161:
 1257              	.L218:
 1258              		.loc 1 284 0
 1259 0006 6378     		ldrb	r3, [r4, #1]	@ zero_extendqisi2
 1260 0008 012B     		cmp	r3, #1
 1261 000a 1AD0     		beq	.L231
 1262              		.loc 1 286 0
 1263 000c 042B     		cmp	r3, #4
 1264 000e 1CD0     		beq	.L232
 1265              	.L220:
 1266              		.loc 1 292 0
 1267 0010 237F     		ldrb	r3, [r4, #28]	@ zero_extendqisi2
 1268 0012 DD06     		lsls	r5, r3, #27
 1269 0014 13D5     		bpl	.L222
 1270              		.loc 1 295 0
 1271 0016 6268     		ldr	r2, [r4, #4]
 1272 0018 8AB1     		cbz	r2, .L222
 1273              		.loc 1 295 0 is_stmt 0 discriminator 1
 1274 001a B2F86610 		ldrh	r1, [r2, #102]
 1275 001e B1F5866F 		cmp	r1, #1072
 1276 0022 0CD3     		bcc	.L222
 1277 0024 B2F86820 		ldrh	r2, [r2, #104]
 1278 0028 042A     		cmp	r2, #4
 1279 002a 08D8     		bhi	.L222
 1280              		.loc 1 298 0 is_stmt 1
 1281 002c A56A     		ldr	r5, [r4, #40]
 1282              		.loc 1 297 0
 1283 002e 23F01003 		bic	r3, r3, #16
 1284 0032 2377     		strb	r3, [r4, #28]
 1285              		.loc 1 298 0
 1286 0034 1DB1     		cbz	r5, .L222
 1287              		.loc 1 298 0 is_stmt 0 discriminator 1
 1288 0036 2046     		mov	r0, r4
 1289 0038 0221     		movs	r1, #2
 1290 003a 0022     		movs	r2, #0
 1291 003c A847     		blx	r5
 1292              	.LVL162:
 1293              	.L222:
 1294              		.loc 1 303 0 is_stmt 1
 1295 003e 0020     		movs	r0, #0
 1296 0040 38BD     		pop	{r3, r4, r5, pc}
 1297              	.LVL163:
 1298              	.L231:
 1299              		.loc 1 285 0
 1300 0042 2046     		mov	r0, r4
 1301 0044 FFF7FEFF 		bl	do_writemore
 1302              	.LVL164:
 1303 0048 E2E7     		b	.L220
 1304              	.L232:
ARM GAS  /tmp/ccT6pRdh.s 			page 24


 1305              		.loc 1 287 0
 1306 004a 2046     		mov	r0, r4
 1307 004c FFF7FEFF 		bl	do_close_internal
 1308              	.LVL165:
 1309 0050 DEE7     		b	.L220
 1310              	.LVL166:
 1311              	.L230:
 1312              		.loc 1 282 0 discriminator 1
 1313 0052 FFF7FEFF 		bl	port_halt
 1314              	.LVL167:
 1315 0056 D6E7     		b	.L218
 1316              		.cfi_endproc
 1317              	.LFE10:
 1318              		.size	poll_tcp, .-poll_tcp
 1319 0058 AFF30080 		.section	.text.recv_tcp,"ax",%progbits
 1319      AFF30080 
 1320              		.align	2
 1321              		.p2align 4,,15
 1322              		.thumb
 1323              		.thumb_func
 1324              		.type	recv_tcp, %function
 1325              	recv_tcp:
 1326              	.LFB9:
 1327              		.loc 1 217 0
 1328              		.cfi_startproc
 1329              		@ args = 0, pretend = 0, frame = 0
 1330              		@ frame_needed = 0, uses_anonymous_args = 0
 1331              	.LVL168:
 1332 0000 2DE9F843 		push	{r3, r4, r5, r6, r7, r8, r9, lr}
 1333              		.cfi_def_cfa_offset 32
 1334              		.cfi_offset 3, -32
 1335              		.cfi_offset 4, -28
 1336              		.cfi_offset 5, -24
 1337              		.cfi_offset 6, -20
 1338              		.cfi_offset 7, -16
 1339              		.cfi_offset 8, -12
 1340              		.cfi_offset 9, -8
 1341              		.cfi_offset 14, -4
 1342              		.loc 1 222 0
 1343 0004 0E46     		mov	r6, r1
 1344              		.loc 1 217 0
 1345 0006 0446     		mov	r4, r0
 1346 0008 1546     		mov	r5, r2
 1347 000a 9946     		mov	r9, r3
 1348              		.loc 1 222 0
 1349 000c 0029     		cmp	r1, #0
 1350 000e 37D0     		beq	.L248
 1351              	.LVL169:
 1352              	.L234:
 1353              		.loc 1 223 0
 1354 0010 002C     		cmp	r4, #0
 1355 0012 38D0     		beq	.L249
 1356              	.L235:
 1357              	.LVL170:
 1358              		.loc 1 225 0
 1359 0014 6268     		ldr	r2, [r4, #4]
 1360 0016 B242     		cmp	r2, r6
ARM GAS  /tmp/ccT6pRdh.s 			page 25


 1361 0018 01D0     		beq	.L236
 1362              		.loc 1 225 0 is_stmt 0 discriminator 1
 1363 001a FFF7FEFF 		bl	port_halt
 1364              	.LVL171:
 1365              	.L236:
 1366              		.loc 1 230 0 is_stmt 1
 1367 001e 04F11007 		add	r7, r4, #16
 1368 0022 3846     		mov	r0, r7
 1369 0024 FFF7FEFF 		bl	sys_mbox_valid
 1370              	.LVL172:
 1371 0028 8046     		mov	r8, r0
 1372 002a 78B9     		cbnz	r0, .L237
 1373              		.loc 1 232 0
 1374 002c 55B1     		cbz	r5, .L242
 1375              		.loc 1 233 0
 1376 002e 3046     		mov	r0, r6
 1377 0030 2989     		ldrh	r1, [r5, #8]
 1378 0032 FFF7FEFF 		bl	tcp_recved
 1379              	.LVL173:
 1380              		.loc 1 234 0
 1381 0036 2846     		mov	r0, r5
 1382 0038 FFF7FEFF 		bl	pbuf_free
 1383              	.LVL174:
 1384              		.loc 1 236 0
 1385 003c 4046     		mov	r0, r8
 1386              	.LVL175:
 1387              	.L239:
 1388              		.loc 1 263 0
 1389 003e 40B2     		sxtb	r0, r0
 1390 0040 BDE8F883 		pop	{r3, r4, r5, r6, r7, r8, r9, pc}
 1391              	.LVL176:
 1392              	.L242:
 1393              		.loc 1 236 0
 1394 0044 0020     		movs	r0, #0
 1395              		.loc 1 263 0
 1396 0046 40B2     		sxtb	r0, r0
 1397 0048 BDE8F883 		pop	{r3, r4, r5, r6, r7, r8, r9, pc}
 1398              	.LVL177:
 1399              	.L237:
 1400              		.loc 1 243 0
 1401 004c 94F90830 		ldrsb	r3, [r4, #8]
 1402 0050 0933     		adds	r3, r3, #9
 1403 0052 A8BF     		it	ge
 1404 0054 84F80890 		strbge	r9, [r4, #8]
 1405              		.loc 1 248 0
 1406 0058 2E46     		mov	r6, r5
 1407              	.LVL178:
 1408              		.loc 1 245 0
 1409 005a 05B1     		cbz	r5, .L241
 1410              		.loc 1 246 0
 1411 005c 2E89     		ldrh	r6, [r5, #8]
 1412              	.LVL179:
 1413              	.L241:
 1414              		.loc 1 251 0
 1415 005e 2946     		mov	r1, r5
 1416 0060 3846     		mov	r0, r7
 1417 0062 FFF7FEFF 		bl	sys_mbox_trypost
ARM GAS  /tmp/ccT6pRdh.s 			page 26


 1418              	.LVL180:
 1419 0066 0546     		mov	r5, r0
 1420              	.LVL181:
 1421 0068 80B9     		cbnz	r0, .L244
 1422              		.loc 1 259 0
 1423 006a A36A     		ldr	r3, [r4, #40]
 1424 006c 002B     		cmp	r3, #0
 1425 006e E9D0     		beq	.L242
 1426              		.loc 1 259 0 is_stmt 0 discriminator 1
 1427 0070 2046     		mov	r0, r4
 1428 0072 3246     		mov	r2, r6
 1429 0074 2946     		mov	r1, r5
 1430 0076 9847     		blx	r3
 1431              	.LVL182:
 1432              		.loc 1 262 0 is_stmt 1 discriminator 1
 1433 0078 2846     		mov	r0, r5
 1434              		.loc 1 263 0 discriminator 1
 1435 007a 40B2     		sxtb	r0, r0
 1436 007c BDE8F883 		pop	{r3, r4, r5, r6, r7, r8, r9, pc}
 1437              	.LVL183:
 1438              	.L248:
 1439              		.loc 1 222 0 discriminator 1
 1440 0080 FFF7FEFF 		bl	port_halt
 1441              	.LVL184:
 1442 0084 C4E7     		b	.L234
 1443              	.L249:
 1444              		.loc 1 223 0 discriminator 1
 1445 0086 FFF7FEFF 		bl	port_halt
 1446              	.LVL185:
 1447 008a C3E7     		b	.L235
 1448              	.LVL186:
 1449              	.L244:
 1450              		.loc 1 253 0
 1451 008c FF20     		movs	r0, #255
 1452 008e D6E7     		b	.L239
 1453              		.cfi_endproc
 1454              	.LFE9:
 1455              		.size	recv_tcp, .-recv_tcp
 1456              		.section	.text.sent_tcp,"ax",%progbits
 1457              		.align	2
 1458              		.p2align 4,,15
 1459              		.thumb
 1460              		.thumb_func
 1461              		.type	sent_tcp, %function
 1462              	sent_tcp:
 1463              	.LFB11:
 1464              		.loc 1 314 0
 1465              		.cfi_startproc
 1466              		@ args = 0, pretend = 0, frame = 0
 1467              		@ frame_needed = 0, uses_anonymous_args = 0
 1468              	.LVL187:
 1469 0000 38B5     		push	{r3, r4, r5, lr}
 1470              		.cfi_def_cfa_offset 16
 1471              		.cfi_offset 3, -16
 1472              		.cfi_offset 4, -12
 1473              		.cfi_offset 5, -8
 1474              		.cfi_offset 14, -4
ARM GAS  /tmp/ccT6pRdh.s 			page 27


 1475              		.loc 1 318 0
 1476 0002 0446     		mov	r4, r0
 1477              		.loc 1 314 0
 1478 0004 1546     		mov	r5, r2
 1479              		.loc 1 318 0
 1480 0006 18B3     		cbz	r0, .L260
 1481              	.LVL188:
 1482              	.L251:
 1483              		.loc 1 320 0
 1484 0008 6378     		ldrb	r3, [r4, #1]	@ zero_extendqisi2
 1485 000a 012B     		cmp	r3, #1
 1486 000c 18D0     		beq	.L261
 1487              		.loc 1 322 0
 1488 000e 042B     		cmp	r3, #4
 1489 0010 1AD0     		beq	.L262
 1490              	.L253:
 1491              		.loc 1 329 0
 1492 0012 6368     		ldr	r3, [r4, #4]
 1493 0014 93B1     		cbz	r3, .L255
 1494              		.loc 1 329 0 is_stmt 0 discriminator 1
 1495 0016 B3F86610 		ldrh	r1, [r3, #102]
 1496 001a B1F5866F 		cmp	r1, #1072
 1497 001e 0DD3     		bcc	.L255
 1498 0020 B3F86830 		ldrh	r3, [r3, #104]
 1499 0024 042B     		cmp	r3, #4
 1500 0026 09D8     		bhi	.L255
 1501              	.LVL189:
 1502              	.LBB9:
 1503              	.LBB10:
 1504              		.loc 1 331 0 is_stmt 1
 1505 0028 227F     		ldrb	r2, [r4, #28]	@ zero_extendqisi2
 1506              		.loc 1 332 0
 1507 002a A36A     		ldr	r3, [r4, #40]
 1508              		.loc 1 331 0
 1509 002c 22F01002 		bic	r2, r2, #16
 1510 0030 2277     		strb	r2, [r4, #28]
 1511              		.loc 1 332 0
 1512 0032 1BB1     		cbz	r3, .L255
 1513 0034 2046     		mov	r0, r4
 1514 0036 2A46     		mov	r2, r5
 1515 0038 0221     		movs	r1, #2
 1516 003a 9847     		blx	r3
 1517              	.LVL190:
 1518              	.L255:
 1519              	.LBE10:
 1520              	.LBE9:
 1521              		.loc 1 337 0
 1522 003c 0020     		movs	r0, #0
 1523 003e 38BD     		pop	{r3, r4, r5, pc}
 1524              	.LVL191:
 1525              	.L261:
 1526              		.loc 1 321 0
 1527 0040 2046     		mov	r0, r4
 1528 0042 FFF7FEFF 		bl	do_writemore
 1529              	.LVL192:
 1530 0046 E4E7     		b	.L253
 1531              	.L262:
ARM GAS  /tmp/ccT6pRdh.s 			page 28


 1532              		.loc 1 323 0
 1533 0048 2046     		mov	r0, r4
 1534 004a FFF7FEFF 		bl	do_close_internal
 1535              	.LVL193:
 1536 004e E0E7     		b	.L253
 1537              	.LVL194:
 1538              	.L260:
 1539              		.loc 1 318 0 discriminator 1
 1540 0050 FFF7FEFF 		bl	port_halt
 1541              	.LVL195:
 1542 0054 D8E7     		b	.L251
 1543              		.cfi_endproc
 1544              	.LFE11:
 1545              		.size	sent_tcp, .-sent_tcp
 1546 0056 00BFAFF3 		.section	.text.do_newconn,"ax",%progbits
 1546      0080AFF3 
 1546      0080
 1547              		.align	2
 1548              		.p2align 4,,15
 1549              		.global	do_newconn
 1550              		.thumb
 1551              		.thumb_func
 1552              		.type	do_newconn, %function
 1553              	do_newconn:
 1554              	.LFB16:
 1555              		.loc 1 549 0
 1556              		.cfi_startproc
 1557              		@ args = 0, pretend = 0, frame = 0
 1558              		@ frame_needed = 0, uses_anonymous_args = 0
 1559              	.LVL196:
 1560 0000 38B5     		push	{r3, r4, r5, lr}
 1561              		.cfi_def_cfa_offset 16
 1562              		.cfi_offset 3, -16
 1563              		.cfi_offset 4, -12
 1564              		.cfi_offset 5, -8
 1565              		.cfi_offset 14, -4
 1566              		.loc 1 550 0
 1567 0002 0023     		movs	r3, #0
 1568              		.loc 1 551 0
 1569 0004 0468     		ldr	r4, [r0]
 1570              		.loc 1 550 0
 1571 0006 0371     		strb	r3, [r0, #4]
 1572              		.loc 1 551 0
 1573 0008 6368     		ldr	r3, [r4, #4]
 1574              		.loc 1 549 0
 1575 000a 0546     		mov	r5, r0
 1576              		.loc 1 551 0
 1577 000c 2BB1     		cbz	r3, .L275
 1578              	.LVL197:
 1579              	.L264:
 1580              		.loc 1 558 0
 1581 000e 04F10C00 		add	r0, r4, #12
 1582              		.loc 1 559 0
 1583 0012 BDE83840 		pop	{r3, r4, r5, lr}
 1584              	.LVL198:
 1585              		.loc 1 558 0
 1586 0016 FFF7FEBF 		b	sys_sem_signal
ARM GAS  /tmp/ccT6pRdh.s 			page 29


 1587              	.LVL199:
 1588              	.L275:
 1589              	.LBB13:
 1590              	.LBB14:
 1591              		.loc 1 495 0
 1592 001a 2378     		ldrb	r3, [r4]	@ zero_extendqisi2
 1593 001c 03F0F003 		and	r3, r3, #240
 1594 0020 202B     		cmp	r3, #32
 1595 0022 21D0     		beq	.L266
 1596 0024 402B     		cmp	r3, #64
 1597 0026 0FD0     		beq	.L267
 1598 0028 102B     		cmp	r3, #16
 1599              		.loc 1 536 0
 1600 002a 1CBF     		itt	ne
 1601 002c FA23     		movne	r3, #250
 1602 002e 0371     		strbne	r3, [r0, #4]
 1603              		.loc 1 495 0
 1604 0030 EDD1     		bne	.L264
 1605              		.loc 1 526 0
 1606 0032 FFF7FEFF 		bl	tcp_new
 1607              	.LVL200:
 1608 0036 6060     		str	r0, [r4, #4]
 1609              		.loc 1 527 0
 1610 0038 2C68     		ldr	r4, [r5]
 1611 003a 6368     		ldr	r3, [r4, #4]
 1612 003c 5BB3     		cbz	r3, .L274
 1613              		.loc 1 531 0
 1614 003e 2046     		mov	r0, r4
 1615 0040 FFF7FEFF 		bl	setup_tcp
 1616              	.LVL201:
 1617 0044 2C68     		ldr	r4, [r5]
 1618 0046 E2E7     		b	.L264
 1619              	.LVL202:
 1620              	.L267:
 1621              		.loc 1 498 0
 1622 0048 007A     		ldrb	r0, [r0, #8]	@ zero_extendqisi2
 1623              	.LVL203:
 1624 004a FFF7FEFF 		bl	raw_new
 1625              	.LVL204:
 1626 004e 6060     		str	r0, [r4, #4]
 1627              		.loc 1 499 0
 1628 0050 2C68     		ldr	r4, [r5]
 1629 0052 6068     		ldr	r0, [r4, #4]
 1630 0054 F8B1     		cbz	r0, .L274
 1631              		.loc 1 503 0
 1632 0056 40F20001 		movw	r1, #:lower16:recv_raw
 1633 005a 2246     		mov	r2, r4
 1634 005c C0F20001 		movt	r1, #:upper16:recv_raw
 1635 0060 FFF7FEFF 		bl	raw_recv
 1636              	.LVL205:
 1637 0064 2C68     		ldr	r4, [r5]
 1638 0066 D2E7     		b	.L264
 1639              	.LVL206:
 1640              	.L266:
 1641              		.loc 1 508 0
 1642 0068 FFF7FEFF 		bl	udp_new
 1643              	.LVL207:
ARM GAS  /tmp/ccT6pRdh.s 			page 30


 1644 006c 6060     		str	r0, [r4, #4]
 1645              		.loc 1 509 0
 1646 006e 2C68     		ldr	r4, [r5]
 1647 0070 6068     		ldr	r0, [r4, #4]
 1648 0072 80B1     		cbz	r0, .L274
 1649              		.loc 1 518 0
 1650 0074 2378     		ldrb	r3, [r4]	@ zero_extendqisi2
 1651 0076 222B     		cmp	r3, #34
 1652              		.loc 1 519 0
 1653 0078 02BF     		ittt	eq
 1654 007a 0123     		moveq	r3, #1
 1655 007c 0374     		strbeq	r3, [r0, #16]
 1656 007e 2C68     		ldreq	r4, [r5]
 1657              		.loc 1 521 0
 1658 0080 40F20001 		movw	r1, #:lower16:recv_udp
 1659 0084 08BF     		it	eq
 1660 0086 6068     		ldreq	r0, [r4, #4]
 1661 0088 2246     		mov	r2, r4
 1662 008a C0F20001 		movt	r1, #:upper16:recv_udp
 1663 008e FFF7FEFF 		bl	udp_recv
 1664              	.LVL208:
 1665 0092 2C68     		ldr	r4, [r5]
 1666 0094 BBE7     		b	.L264
 1667              	.L274:
 1668              		.loc 1 528 0
 1669 0096 FF23     		movs	r3, #255
 1670 0098 2B71     		strb	r3, [r5, #4]
 1671 009a B8E7     		b	.L264
 1672              	.LBE14:
 1673              	.LBE13:
 1674              		.cfi_endproc
 1675              	.LFE16:
 1676              		.size	do_newconn, .-do_newconn
 1677 009c AFF30080 		.section	.text.netconn_alloc,"ax",%progbits
 1678              		.align	2
 1679              		.p2align 4,,15
 1680              		.global	netconn_alloc
 1681              		.thumb
 1682              		.thumb_func
 1683              		.type	netconn_alloc, %function
 1684              	netconn_alloc:
 1685              	.LFB17:
 1686              		.loc 1 573 0
 1687              		.cfi_startproc
 1688              		@ args = 0, pretend = 0, frame = 0
 1689              		@ frame_needed = 0, uses_anonymous_args = 0
 1690              	.LVL209:
 1691 0000 F8B5     		push	{r3, r4, r5, r6, r7, lr}
 1692              		.cfi_def_cfa_offset 24
 1693              		.cfi_offset 3, -24
 1694              		.cfi_offset 4, -20
 1695              		.cfi_offset 5, -16
 1696              		.cfi_offset 6, -12
 1697              		.cfi_offset 7, -8
 1698              		.cfi_offset 14, -4
 1699              		.loc 1 573 0
 1700 0002 0546     		mov	r5, r0
ARM GAS  /tmp/ccT6pRdh.s 			page 31


 1701              		.loc 1 577 0
 1702 0004 0820     		movs	r0, #8
 1703              	.LVL210:
 1704              		.loc 1 573 0
 1705 0006 0E46     		mov	r6, r1
 1706              		.loc 1 577 0
 1707 0008 FFF7FEFF 		bl	memp_malloc
 1708              	.LVL211:
 1709              		.loc 1 578 0
 1710 000c 0446     		mov	r4, r0
 1711 000e 0028     		cmp	r0, #0
 1712 0010 37D0     		beq	.L283
 1713              		.loc 1 590 0
 1714 0012 05F0F003 		and	r3, r5, #240
 1715              		.loc 1 582 0
 1716 0016 0022     		movs	r2, #0
 1717              		.loc 1 590 0
 1718 0018 202B     		cmp	r3, #32
 1719              		.loc 1 583 0
 1720 001a 0570     		strb	r5, [r0]
 1721              		.loc 1 582 0
 1722 001c 0272     		strb	r2, [r0, #8]
 1723              		.loc 1 584 0
 1724 001e 4260     		str	r2, [r0, #4]
 1725              		.loc 1 590 0
 1726 0020 29D0     		beq	.L279
 1727 0022 402B     		cmp	r3, #64
 1728 0024 27D0     		beq	.L279
 1729 0026 102B     		cmp	r3, #16
 1730 0028 07D0     		beq	.L284
 1731              		.loc 1 607 0
 1732 002a FFF7FEFF 		bl	port_halt
 1733              	.LVL212:
 1734              	.L281:
 1735              		.loc 1 646 0
 1736 002e 2146     		mov	r1, r4
 1737 0030 0820     		movs	r0, #8
 1738 0032 FFF7FEFF 		bl	memp_free
 1739              	.LVL213:
 1740              		.loc 1 647 0
 1741 0036 0020     		movs	r0, #0
 1742 0038 F8BD     		pop	{r3, r4, r5, r6, r7, pc}
 1743              	.LVL214:
 1744              	.L284:
 1745              		.loc 1 603 0
 1746 003a 2825     		movs	r5, #40
 1747              	.L280:
 1748              	.LVL215:
 1749              		.loc 1 612 0
 1750 003c 04F10C07 		add	r7, r4, #12
 1751 0040 3846     		mov	r0, r7
 1752              	.LVL216:
 1753 0042 0021     		movs	r1, #0
 1754 0044 FFF7FEFF 		bl	sys_sem_new
 1755              	.LVL217:
 1756 0048 0028     		cmp	r0, #0
 1757 004a F0D1     		bne	.L281
ARM GAS  /tmp/ccT6pRdh.s 			page 32


 1758              		.loc 1 615 0
 1759 004c 2946     		mov	r1, r5
 1760 004e 04F11000 		add	r0, r4, #16
 1761 0052 FFF7FEFF 		bl	sys_mbox_new
 1762              	.LVL218:
 1763 0056 0546     		mov	r5, r0
 1764              	.LVL219:
 1765 0058 78B9     		cbnz	r0, .L291
 1766              		.loc 1 621 0
 1767 005a 04F11400 		add	r0, r4, #20
 1768 005e FFF7FEFF 		bl	sys_mbox_set_invalid
 1769              	.LVL220:
 1770              		.loc 1 626 0
 1771 0062 4FF0FF33 		mov	r3, #-1
 1772              		.loc 1 643 0
 1773 0066 2577     		strb	r5, [r4, #28]
 1774              		.loc 1 623 0
 1775 0068 6570     		strb	r5, [r4, #1]
 1776              		.loc 1 628 0
 1777 006a A662     		str	r6, [r4, #40]
 1778              		.loc 1 630 0
 1779 006c 6562     		str	r5, [r4, #36]
 1780              		.loc 1 631 0
 1781 006e 2562     		str	r5, [r4, #32]
 1782              		.loc 1 626 0
 1783 0070 A361     		str	r3, [r4, #24]
 1784              		.loc 1 644 0
 1785 0072 2046     		mov	r0, r4
 1786 0074 F8BD     		pop	{r3, r4, r5, r6, r7, pc}
 1787              	.LVL221:
 1788              	.L279:
 1789              		.loc 1 593 0
 1790 0076 0425     		movs	r5, #4
 1791 0078 E0E7     		b	.L280
 1792              	.LVL222:
 1793              	.L291:
 1794              		.loc 1 616 0
 1795 007a 3846     		mov	r0, r7
 1796 007c FFF7FEFF 		bl	sys_sem_free
 1797              	.LVL223:
 1798              		.loc 1 617 0
 1799 0080 D5E7     		b	.L281
 1800              	.LVL224:
 1801              	.L283:
 1802              		.loc 1 648 0
 1803 0082 F8BD     		pop	{r3, r4, r5, r6, r7, pc}
 1804              		.cfi_endproc
 1805              	.LFE17:
 1806              		.size	netconn_alloc, .-netconn_alloc
 1807 0084 AFF30080 		.section	.text.netconn_free,"ax",%progbits
 1807      AFF30080 
 1807      AFF30080 
 1808              		.align	2
 1809              		.p2align 4,,15
 1810              		.global	netconn_free
 1811              		.thumb
 1812              		.thumb_func
ARM GAS  /tmp/ccT6pRdh.s 			page 33


 1813              		.type	netconn_free, %function
 1814              	netconn_free:
 1815              	.LFB18:
 1816              		.loc 1 658 0
 1817              		.cfi_startproc
 1818              		@ args = 0, pretend = 0, frame = 0
 1819              		@ frame_needed = 0, uses_anonymous_args = 0
 1820              	.LVL225:
 1821 0000 38B5     		push	{r3, r4, r5, lr}
 1822              		.cfi_def_cfa_offset 16
 1823              		.cfi_offset 3, -16
 1824              		.cfi_offset 4, -12
 1825              		.cfi_offset 5, -8
 1826              		.cfi_offset 14, -4
 1827              		.loc 1 659 0
 1828 0002 4368     		ldr	r3, [r0, #4]
 1829              		.loc 1 658 0
 1830 0004 0446     		mov	r4, r0
 1831              		.loc 1 659 0
 1832 0006 0BB1     		cbz	r3, .L293
 1833              		.loc 1 659 0 is_stmt 0 discriminator 1
 1834 0008 FFF7FEFF 		bl	port_halt
 1835              	.LVL226:
 1836              	.L293:
 1837              		.loc 1 660 0 is_stmt 1
 1838 000c 04F11000 		add	r0, r4, #16
 1839 0010 FFF7FEFF 		bl	sys_mbox_valid
 1840              	.LVL227:
 1841 0014 A0B9     		cbnz	r0, .L305
 1842              	.L294:
 1843              		.loc 1 663 0
 1844 0016 04F11400 		add	r0, r4, #20
 1845 001a FFF7FEFF 		bl	sys_mbox_valid
 1846              	.LVL228:
 1847 001e 08B1     		cbz	r0, .L295
 1848              		.loc 1 663 0 is_stmt 0 discriminator 1
 1849 0020 FFF7FEFF 		bl	port_halt
 1850              	.LVL229:
 1851              	.L295:
 1852              		.loc 1 667 0 is_stmt 1
 1853 0024 04F10C05 		add	r5, r4, #12
 1854 0028 2846     		mov	r0, r5
 1855 002a FFF7FEFF 		bl	sys_sem_free
 1856              	.LVL230:
 1857              		.loc 1 668 0
 1858 002e 2846     		mov	r0, r5
 1859 0030 FFF7FEFF 		bl	sys_sem_set_invalid
 1860              	.LVL231:
 1861              		.loc 1 670 0
 1862 0034 2146     		mov	r1, r4
 1863 0036 0820     		movs	r0, #8
 1864              		.loc 1 671 0
 1865 0038 BDE83840 		pop	{r3, r4, r5, lr}
 1866              	.LVL232:
 1867              		.loc 1 670 0
 1868 003c FFF7FEBF 		b	memp_free
 1869              	.LVL233:
ARM GAS  /tmp/ccT6pRdh.s 			page 34


 1870              	.L305:
 1871              		.loc 1 660 0 discriminator 1
 1872 0040 FFF7FEFF 		bl	port_halt
 1873              	.LVL234:
 1874 0044 E7E7     		b	.L294
 1875              		.cfi_endproc
 1876              	.LFE18:
 1877              		.size	netconn_free, .-netconn_free
 1878 0046 00BFAFF3 		.section	.text.netconn_drain,"ax",%progbits
 1878      0080AFF3 
 1878      0080
 1879              		.align	2
 1880              		.p2align 4,,15
 1881              		.thumb
 1882              		.thumb_func
 1883              		.type	netconn_drain, %function
 1884              	netconn_drain:
 1885              	.LFB19:
 1886              		.loc 1 683 0
 1887              		.cfi_startproc
 1888              		@ args = 0, pretend = 0, frame = 8
 1889              		@ frame_needed = 0, uses_anonymous_args = 0
 1890              	.LVL235:
 1891 0000 2DE9F041 		push	{r4, r5, r6, r7, r8, lr}
 1892              		.cfi_def_cfa_offset 24
 1893              		.cfi_offset 4, -24
 1894              		.cfi_offset 5, -20
 1895              		.cfi_offset 6, -16
 1896              		.cfi_offset 7, -12
 1897              		.cfi_offset 8, -8
 1898              		.cfi_offset 14, -4
 1899              		.loc 1 692 0
 1900 0004 00F11004 		add	r4, r0, #16
 1901              		.loc 1 683 0
 1902 0008 82B0     		sub	sp, sp, #8
 1903              		.cfi_def_cfa_offset 32
 1904              		.loc 1 683 0
 1905 000a 0546     		mov	r5, r0
 1906              		.loc 1 692 0
 1907 000c 2046     		mov	r0, r4
 1908              	.LVL236:
 1909 000e FFF7FEFF 		bl	sys_mbox_valid
 1910              	.LVL237:
 1911 0012 01AE     		add	r6, sp, #4
 1912 0014 0028     		cmp	r0, #0
 1913 0016 30D1     		bne	.L308
 1914              	.L307:
 1915              		.loc 1 716 0
 1916 0018 05F11407 		add	r7, r5, #20
 1917 001c 3846     		mov	r0, r7
 1918 001e FFF7FEFF 		bl	sys_mbox_valid
 1919              	.LVL238:
 1920 0022 01AE     		add	r6, sp, #4
 1921              	.LBB15:
 1922              		.loc 1 728 0
 1923 0024 4FF00008 		mov	r8, #0
 1924              	.LBE15:
ARM GAS  /tmp/ccT6pRdh.s 			page 35


 1925              		.loc 1 716 0
 1926 0028 A8B9     		cbnz	r0, .L314
 1927 002a 20E0     		b	.L306
 1928              	.L317:
 1929              	.LBB16:
 1930              		.loc 1 721 0
 1931 002c 6B68     		ldr	r3, [r5, #4]
 1932              		.loc 1 718 0
 1933 002e 019C     		ldr	r4, [sp, #4]
 1934              	.LVL239:
 1935              		.loc 1 721 0
 1936 0030 23B1     		cbz	r3, .L315
 1937              		.loc 1 722 0
 1938 0032 1B7E     		ldrb	r3, [r3, #24]	@ zero_extendqisi2
 1939 0034 012B     		cmp	r3, #1
 1940 0036 01D0     		beq	.L315
 1941              		.loc 1 722 0 is_stmt 0 discriminator 1
 1942 0038 FFF7FEFF 		bl	port_halt
 1943              	.LVL240:
 1944              	.L315:
 1945              		.loc 1 725 0 is_stmt 1
 1946 003c 2046     		mov	r0, r4
 1947 003e FFF7DFFF 		bl	netconn_drain
 1948              	.LVL241:
 1949              		.loc 1 726 0
 1950 0042 6368     		ldr	r3, [r4, #4]
 1951              		.loc 1 727 0
 1952 0044 1846     		mov	r0, r3
 1953              		.loc 1 726 0
 1954 0046 1BB1     		cbz	r3, .L316
 1955              		.loc 1 727 0
 1956 0048 FFF7FEFF 		bl	tcp_abort
 1957              	.LVL242:
 1958              		.loc 1 728 0
 1959 004c C4F80480 		str	r8, [r4, #4]
 1960              	.L316:
 1961              		.loc 1 730 0
 1962 0050 2046     		mov	r0, r4
 1963 0052 FFF7FEFF 		bl	netconn_free
 1964              	.LVL243:
 1965              	.L314:
 1966              	.LBE16:
 1967              		.loc 1 717 0 discriminator 1
 1968 0056 3846     		mov	r0, r7
 1969 0058 3146     		mov	r1, r6
 1970 005a FFF7FEFF 		bl	sys_arch_mbox_tryfetch
 1971              	.LVL244:
 1972 005e 0130     		adds	r0, r0, #1
 1973 0060 E4D1     		bne	.L317
 1974              		.loc 1 732 0
 1975 0062 3846     		mov	r0, r7
 1976 0064 FFF7FEFF 		bl	sys_mbox_free
 1977              	.LVL245:
 1978              		.loc 1 733 0
 1979 0068 3846     		mov	r0, r7
 1980 006a FFF7FEFF 		bl	sys_mbox_set_invalid
 1981              	.LVL246:
ARM GAS  /tmp/ccT6pRdh.s 			page 36


 1982              	.L306:
 1983              		.loc 1 736 0
 1984 006e 02B0     		add	sp, sp, #8
 1985              		@ sp needed
 1986 0070 BDE8F081 		pop	{r4, r5, r6, r7, r8, pc}
 1987              	.LVL247:
 1988              	.L309:
 1989              		.loc 1 707 0
 1990 0074 0198     		ldr	r0, [sp, #4]
 1991 0076 FFF7FEFF 		bl	netbuf_delete
 1992              	.LVL248:
 1993              	.L308:
 1994              		.loc 1 693 0 discriminator 1
 1995 007a 2046     		mov	r0, r4
 1996 007c 3146     		mov	r1, r6
 1997 007e FFF7FEFF 		bl	sys_arch_mbox_tryfetch
 1998              	.LVL249:
 1999 0082 0130     		adds	r0, r0, #1
 2000 0084 0FD0     		beq	.L339
 2001              		.loc 1 695 0
 2002 0086 2B78     		ldrb	r3, [r5]	@ zero_extendqisi2
 2003 0088 102B     		cmp	r3, #16
 2004 008a F3D1     		bne	.L309
 2005              		.loc 1 696 0
 2006 008c 019F     		ldr	r7, [sp, #4]
 2007              	.LVL250:
 2008 008e 002F     		cmp	r7, #0
 2009 0090 F3D0     		beq	.L308
 2010              		.loc 1 699 0
 2011 0092 6B68     		ldr	r3, [r5, #4]
 2012              		.loc 1 700 0
 2013 0094 1846     		mov	r0, r3
 2014              		.loc 1 699 0
 2015 0096 13B1     		cbz	r3, .L311
 2016              		.loc 1 700 0
 2017 0098 3989     		ldrh	r1, [r7, #8]
 2018 009a FFF7FEFF 		bl	tcp_recved
 2019              	.LVL251:
 2020              	.L311:
 2021              		.loc 1 702 0
 2022 009e 3846     		mov	r0, r7
 2023 00a0 FFF7FEFF 		bl	pbuf_free
 2024              	.LVL252:
 2025 00a4 E9E7     		b	.L308
 2026              	.LVL253:
 2027              	.L339:
 2028              		.loc 1 710 0
 2029 00a6 2046     		mov	r0, r4
 2030 00a8 FFF7FEFF 		bl	sys_mbox_free
 2031              	.LVL254:
 2032              		.loc 1 711 0
 2033 00ac 2046     		mov	r0, r4
 2034 00ae FFF7FEFF 		bl	sys_mbox_set_invalid
 2035              	.LVL255:
 2036 00b2 B1E7     		b	.L307
 2037              		.cfi_endproc
 2038              	.LFE19:
ARM GAS  /tmp/ccT6pRdh.s 			page 37


 2039              		.size	netconn_drain, .-netconn_drain
 2040 00b4 AFF30080 		.section	.text.accept_function,"ax",%progbits
 2040      AFF30080 
 2040      AFF30080 
 2041              		.align	2
 2042              		.p2align 4,,15
 2043              		.thumb
 2044              		.thumb_func
 2045              		.type	accept_function, %function
 2046              	accept_function:
 2047              	.LFB14:
 2048              		.loc 1 433 0
 2049              		.cfi_startproc
 2050              		@ args = 0, pretend = 0, frame = 0
 2051              		@ frame_needed = 0, uses_anonymous_args = 0
 2052              	.LVL256:
 2053 0000 2DE9F041 		push	{r4, r5, r6, r7, r8, lr}
 2054              		.cfi_def_cfa_offset 24
 2055              		.cfi_offset 4, -24
 2056              		.cfi_offset 5, -20
 2057              		.cfi_offset 6, -16
 2058              		.cfi_offset 7, -12
 2059              		.cfi_offset 8, -8
 2060              		.cfi_offset 14, -4
 2061              		.loc 1 439 0
 2062 0004 00F11405 		add	r5, r0, #20
 2063              		.loc 1 433 0
 2064 0008 0446     		mov	r4, r0
 2065              	.LVL257:
 2066              		.loc 1 439 0
 2067 000a 2846     		mov	r0, r5
 2068              	.LVL258:
 2069              		.loc 1 433 0
 2070 000c 8846     		mov	r8, r1
 2071 000e 1746     		mov	r7, r2
 2072              		.loc 1 439 0
 2073 0010 FFF7FEFF 		bl	sys_mbox_valid
 2074              	.LVL259:
 2075 0014 D8B1     		cbz	r0, .L343
 2076              		.loc 1 446 0
 2077 0016 2078     		ldrb	r0, [r4]	@ zero_extendqisi2
 2078 0018 A16A     		ldr	r1, [r4, #40]
 2079 001a FFF7FEFF 		bl	netconn_alloc
 2080              	.LVL260:
 2081              		.loc 1 447 0
 2082 001e 0646     		mov	r6, r0
 2083 0020 B8B1     		cbz	r0, .L344
 2084              		.loc 1 450 0
 2085 0022 C0F80480 		str	r8, [r0, #4]
 2086              		.loc 1 451 0
 2087 0026 FFF7FEFF 		bl	setup_tcp
 2088              	.LVL261:
 2089              		.loc 1 456 0
 2090 002a 2846     		mov	r0, r5
 2091              		.loc 1 454 0
 2092 002c 3772     		strb	r7, [r6, #8]
 2093              		.loc 1 456 0
ARM GAS  /tmp/ccT6pRdh.s 			page 38


 2094 002e 3146     		mov	r1, r6
 2095 0030 FFF7FEFF 		bl	sys_mbox_trypost
 2096              	.LVL262:
 2097 0034 0546     		mov	r5, r0
 2098 0036 70B9     		cbnz	r0, .L346
 2099              		.loc 1 475 0
 2100 0038 A36A     		ldr	r3, [r4, #40]
 2101              		.loc 1 478 0
 2102 003a 1846     		mov	r0, r3
 2103              		.loc 1 475 0
 2104 003c 23B1     		cbz	r3, .L341
 2105              		.loc 1 475 0 is_stmt 0 discriminator 1
 2106 003e 2046     		mov	r0, r4
 2107 0040 2946     		mov	r1, r5
 2108 0042 2A46     		mov	r2, r5
 2109 0044 9847     		blx	r3
 2110              	.LVL263:
 2111              		.loc 1 478 0 is_stmt 1 discriminator 1
 2112 0046 2846     		mov	r0, r5
 2113              	.LVL264:
 2114              	.L341:
 2115              		.loc 1 479 0
 2116 0048 40B2     		sxtb	r0, r0
 2117 004a BDE8F081 		pop	{r4, r5, r6, r7, r8, pc}
 2118              	.LVL265:
 2119              	.L343:
 2120              		.loc 1 441 0
 2121 004e FA20     		movs	r0, #250
 2122 0050 FAE7     		b	.L341
 2123              	.LVL266:
 2124              	.L344:
 2125              		.loc 1 448 0
 2126 0052 FF20     		movs	r0, #255
 2127              	.LVL267:
 2128 0054 F8E7     		b	.L341
 2129              	.L346:
 2130              	.LBB17:
 2131              		.loc 1 460 0
 2132 0056 7468     		ldr	r4, [r6, #4]
 2133              	.LVL268:
 2134              		.loc 1 461 0
 2135 0058 0021     		movs	r1, #0
 2136 005a 2046     		mov	r0, r4
 2137 005c FFF7FEFF 		bl	tcp_arg
 2138              	.LVL269:
 2139              		.loc 1 462 0
 2140 0060 2046     		mov	r0, r4
 2141 0062 0021     		movs	r1, #0
 2142 0064 FFF7FEFF 		bl	tcp_recv
 2143              	.LVL270:
 2144              		.loc 1 463 0
 2145 0068 2046     		mov	r0, r4
 2146 006a 0021     		movs	r1, #0
 2147 006c FFF7FEFF 		bl	tcp_sent
 2148              	.LVL271:
 2149              		.loc 1 464 0
 2150 0070 0422     		movs	r2, #4
ARM GAS  /tmp/ccT6pRdh.s 			page 39


 2151 0072 2046     		mov	r0, r4
 2152 0074 0021     		movs	r1, #0
 2153 0076 FFF7FEFF 		bl	tcp_poll
 2154              	.LVL272:
 2155              		.loc 1 465 0
 2156 007a 0021     		movs	r1, #0
 2157 007c 2046     		mov	r0, r4
 2158 007e FFF7FEFF 		bl	tcp_err
 2159              	.LVL273:
 2160              		.loc 1 469 0
 2161 0082 06F11004 		add	r4, r6, #16
 2162              	.LVL274:
 2163              		.loc 1 467 0
 2164 0086 0023     		movs	r3, #0
 2165 0088 7360     		str	r3, [r6, #4]
 2166              		.loc 1 469 0
 2167 008a 2046     		mov	r0, r4
 2168 008c FFF7FEFF 		bl	sys_mbox_free
 2169              	.LVL275:
 2170              		.loc 1 470 0
 2171 0090 2046     		mov	r0, r4
 2172 0092 FFF7FEFF 		bl	sys_mbox_set_invalid
 2173              	.LVL276:
 2174              		.loc 1 471 0
 2175 0096 3046     		mov	r0, r6
 2176 0098 FFF7FEFF 		bl	netconn_free
 2177              	.LVL277:
 2178              		.loc 1 472 0
 2179 009c FF20     		movs	r0, #255
 2180 009e D3E7     		b	.L341
 2181              	.LBE17:
 2182              		.cfi_endproc
 2183              	.LFE14:
 2184              		.size	accept_function, .-accept_function
 2185              		.section	.text.do_delconn,"ax",%progbits
 2186              		.align	2
 2187              		.p2align 4,,15
 2188              		.global	do_delconn
 2189              		.thumb
 2190              		.thumb_func
 2191              		.type	do_delconn, %function
 2192              	do_delconn:
 2193              	.LFB21:
 2194              		.loc 1 833 0
 2195              		.cfi_startproc
 2196              		@ args = 0, pretend = 0, frame = 0
 2197              		@ frame_needed = 0, uses_anonymous_args = 0
 2198              	.LVL278:
 2199 0000 38B5     		push	{r3, r4, r5, lr}
 2200              		.cfi_def_cfa_offset 16
 2201              		.cfi_offset 3, -16
 2202              		.cfi_offset 4, -12
 2203              		.cfi_offset 5, -8
 2204              		.cfi_offset 14, -4
 2205              		.loc 1 835 0
 2206 0002 0368     		ldr	r3, [r0]
 2207 0004 5A78     		ldrb	r2, [r3, #1]	@ zero_extendqisi2
ARM GAS  /tmp/ccT6pRdh.s 			page 40


 2208 0006 12F0FD0F 		tst	r2, #253
 2209              		.loc 1 833 0
 2210 000a 0446     		mov	r4, r0
 2211              		.loc 1 835 0
 2212 000c 16D0     		beq	.L348
 2213              		.loc 1 836 0
 2214 000e 032A     		cmp	r2, #3
 2215 0010 0ED0     		beq	.L349
 2216              		.loc 1 839 0
 2217 0012 1A78     		ldrb	r2, [r3]	@ zero_extendqisi2
 2218 0014 102A     		cmp	r2, #16
 2219 0016 02D0     		beq	.L350
 2220              		.loc 1 839 0 is_stmt 0 discriminator 1
 2221 0018 FFF7FEFF 		bl	port_halt
 2222              	.LVL279:
 2223 001c 2368     		ldr	r3, [r4]
 2224              	.L350:
 2225              		.loc 1 840 0 is_stmt 1
 2226 001e FB22     		movs	r2, #251
 2227 0020 2271     		strb	r2, [r4, #4]
 2228              	.L351:
 2229              		.loc 1 885 0
 2230 0022 03F10C00 		add	r0, r3, #12
 2231 0026 FFF7FEFF 		bl	sys_sem_valid
 2232              	.LVL280:
 2233 002a 0028     		cmp	r0, #0
 2234 002c 2ED1     		bne	.L378
 2235              	.L347:
 2236 002e 38BD     		pop	{r3, r4, r5, pc}
 2237              	.LVL281:
 2238              	.L349:
 2239              		.loc 1 842 0 discriminator 1
 2240 0030 1A7F     		ldrb	r2, [r3, #28]	@ zero_extendqisi2
 2241 0032 5207     		lsls	r2, r2, #29
 2242 0034 02D4     		bmi	.L348
 2243 0036 FFF7FEFF 		bl	port_halt
 2244              	.LVL282:
 2245 003a 2368     		ldr	r3, [r4]
 2246              	.L348:
 2247              		.loc 1 845 0
 2248 003c 1846     		mov	r0, r3
 2249 003e FFF7FEFF 		bl	netconn_drain
 2250              	.LVL283:
 2251              		.loc 1 847 0
 2252 0042 2368     		ldr	r3, [r4]
 2253 0044 5868     		ldr	r0, [r3, #4]
 2254 0046 58B1     		cbz	r0, .L352
 2255              		.loc 1 849 0
 2256 0048 1A78     		ldrb	r2, [r3]	@ zero_extendqisi2
 2257 004a 02F0F002 		and	r2, r2, #240
 2258 004e 202A     		cmp	r2, #32
 2259 0050 22D0     		beq	.L354
 2260 0052 402A     		cmp	r2, #64
 2261 0054 39D0     		beq	.L355
 2262 0056 102A     		cmp	r2, #16
 2263 0058 28D0     		beq	.L379
 2264              		.loc 1 876 0
ARM GAS  /tmp/ccT6pRdh.s 			page 41


 2265 005a 0022     		movs	r2, #0
 2266 005c 5A60     		str	r2, [r3, #4]
 2267 005e 2368     		ldr	r3, [r4]
 2268              	.L352:
 2269              		.loc 1 882 0
 2270 0060 9D6A     		ldr	r5, [r3, #40]
 2271 0062 002D     		cmp	r5, #0
 2272 0064 DDD0     		beq	.L351
 2273              		.loc 1 882 0 is_stmt 0 discriminator 1
 2274 0066 0021     		movs	r1, #0
 2275 0068 1846     		mov	r0, r3
 2276 006a 0A46     		mov	r2, r1
 2277 006c A847     		blx	r5
 2278              	.LVL284:
 2279              		.loc 1 883 0 is_stmt 1 discriminator 1
 2280 006e 2368     		ldr	r3, [r4]
 2281 0070 9D6A     		ldr	r5, [r3, #40]
 2282 0072 002D     		cmp	r5, #0
 2283 0074 D5D0     		beq	.L351
 2284 0076 1846     		mov	r0, r3
 2285 0078 0221     		movs	r1, #2
 2286 007a 0022     		movs	r2, #0
 2287 007c A847     		blx	r5
 2288              	.LVL285:
 2289 007e 2368     		ldr	r3, [r4]
 2290              		.loc 1 885 0 discriminator 1
 2291 0080 03F10C00 		add	r0, r3, #12
 2292 0084 FFF7FEFF 		bl	sys_sem_valid
 2293              	.LVL286:
 2294 0088 0028     		cmp	r0, #0
 2295 008a D0D0     		beq	.L347
 2296              	.L378:
 2297              		.loc 1 886 0
 2298 008c 2068     		ldr	r0, [r4]
 2299              		.loc 1 888 0
 2300 008e BDE83840 		pop	{r3, r4, r5, lr}
 2301              	.LVL287:
 2302              		.loc 1 886 0
 2303 0092 0C30     		adds	r0, r0, #12
 2304 0094 FFF7FEBF 		b	sys_sem_signal
 2305              	.LVL288:
 2306              	.L354:
 2307              		.loc 1 857 0
 2308 0098 0022     		movs	r2, #0
 2309 009a C261     		str	r2, [r0, #28]
 2310              		.loc 1 858 0
 2311 009c 5868     		ldr	r0, [r3, #4]
 2312 009e FFF7FEFF 		bl	udp_remove
 2313              	.LVL289:
 2314 00a2 2368     		ldr	r3, [r4]
 2315              		.loc 1 876 0
 2316 00a4 0022     		movs	r2, #0
 2317 00a6 5A60     		str	r2, [r3, #4]
 2318 00a8 2368     		ldr	r3, [r4]
 2319 00aa D9E7     		b	.L352
 2320              	.L379:
 2321              		.loc 1 863 0
ARM GAS  /tmp/ccT6pRdh.s 			page 42


 2322 00ac 5A6A     		ldr	r2, [r3, #36]
 2323 00ae 9AB1     		cbz	r2, .L380
 2324              	.L357:
 2325              		.loc 1 863 0 is_stmt 0 discriminator 1
 2326 00b0 FFF7FEFF 		bl	port_halt
 2327              	.LVL290:
 2328 00b4 2368     		ldr	r3, [r4]
 2329              	.L358:
 2330              		.loc 1 865 0 is_stmt 1
 2331 00b6 0421     		movs	r1, #4
 2332              		.loc 1 866 0
 2333 00b8 0322     		movs	r2, #3
 2334              		.loc 1 865 0
 2335 00ba 5970     		strb	r1, [r3, #1]
 2336              		.loc 1 866 0
 2337 00bc 2272     		strb	r2, [r4, #8]
 2338              		.loc 1 868 0
 2339 00be 1846     		mov	r0, r3
 2340              		.loc 1 867 0
 2341 00c0 5C62     		str	r4, [r3, #36]
 2342              		.loc 1 888 0
 2343 00c2 BDE83840 		pop	{r3, r4, r5, lr}
 2344              	.LVL291:
 2345              		.loc 1 868 0
 2346 00c6 FFF7FEBF 		b	do_close_internal
 2347              	.LVL292:
 2348              	.L355:
 2349              		.loc 1 852 0
 2350 00ca FFF7FEFF 		bl	raw_remove
 2351              	.LVL293:
 2352 00ce 2368     		ldr	r3, [r4]
 2353              		.loc 1 876 0
 2354 00d0 0022     		movs	r2, #0
 2355 00d2 5A60     		str	r2, [r3, #4]
 2356 00d4 2368     		ldr	r3, [r4]
 2357 00d6 C3E7     		b	.L352
 2358              	.L380:
 2359              		.loc 1 863 0 discriminator 2
 2360 00d8 1A6A     		ldr	r2, [r3, #32]
 2361 00da 002A     		cmp	r2, #0
 2362 00dc E8D1     		bne	.L357
 2363 00de EAE7     		b	.L358
 2364              		.cfi_endproc
 2365              	.LFE21:
 2366              		.size	do_delconn, .-do_delconn
 2367              		.section	.text.do_bind,"ax",%progbits
 2368              		.align	2
 2369              		.p2align 4,,15
 2370              		.global	do_bind
 2371              		.thumb
 2372              		.thumb_func
 2373              		.type	do_bind, %function
 2374              	do_bind:
 2375              	.LFB22:
 2376              		.loc 1 899 0
 2377              		.cfi_startproc
 2378              		@ args = 0, pretend = 0, frame = 0
ARM GAS  /tmp/ccT6pRdh.s 			page 43


 2379              		@ frame_needed = 0, uses_anonymous_args = 0
 2380              	.LVL294:
 2381 0000 10B5     		push	{r4, lr}
 2382              		.cfi_def_cfa_offset 8
 2383              		.cfi_offset 4, -8
 2384              		.cfi_offset 14, -4
 2385              		.loc 1 900 0
 2386 0002 0368     		ldr	r3, [r0]
 2387 0004 1A7A     		ldrb	r2, [r3, #8]	@ zero_extendqisi2
 2388 0006 51B2     		sxtb	r1, r2
 2389 0008 0931     		adds	r1, r1, #9
 2390              		.loc 1 899 0
 2391 000a 0446     		mov	r4, r0
 2392              		.loc 1 901 0
 2393 000c B8BF     		it	lt
 2394 000e 0271     		strblt	r2, [r0, #4]
 2395              		.loc 1 900 0
 2396 0010 0CDB     		blt	.L383
 2397              		.loc 1 903 0
 2398 0012 FA22     		movs	r2, #250
 2399 0014 0271     		strb	r2, [r0, #4]
 2400              		.loc 1 904 0
 2401 0016 5868     		ldr	r0, [r3, #4]
 2402              	.LVL295:
 2403 0018 40B1     		cbz	r0, .L383
 2404              		.loc 1 905 0
 2405 001a 1A78     		ldrb	r2, [r3]	@ zero_extendqisi2
 2406 001c 02F0F002 		and	r2, r2, #240
 2407 0020 202A     		cmp	r2, #32
 2408 0022 09D0     		beq	.L384
 2409 0024 402A     		cmp	r2, #64
 2410 0026 1FD0     		beq	.L385
 2411 0028 102A     		cmp	r2, #16
 2412 002a 11D0     		beq	.L390
 2413              	.L383:
 2414              		.loc 1 926 0
 2415 002c 03F10C00 		add	r0, r3, #12
 2416              		.loc 1 927 0
 2417 0030 BDE81040 		pop	{r4, lr}
 2418              	.LVL296:
 2419              		.loc 1 926 0
 2420 0034 FFF7FEBF 		b	sys_sem_signal
 2421              	.LVL297:
 2422              	.L384:
 2423              		.loc 1 913 0
 2424 0038 A168     		ldr	r1, [r4, #8]
 2425 003a A289     		ldrh	r2, [r4, #12]
 2426 003c FFF7FEFF 		bl	udp_bind
 2427              	.LVL298:
 2428 0040 2368     		ldr	r3, [r4]
 2429 0042 2071     		strb	r0, [r4, #4]
 2430              		.loc 1 927 0
 2431 0044 BDE81040 		pop	{r4, lr}
 2432              	.LVL299:
 2433              		.loc 1 926 0
 2434 0048 03F10C00 		add	r0, r3, #12
 2435 004c FFF7FEBF 		b	sys_sem_signal
ARM GAS  /tmp/ccT6pRdh.s 			page 44


 2436              	.LVL300:
 2437              	.L390:
 2438              		.loc 1 918 0
 2439 0050 A168     		ldr	r1, [r4, #8]
 2440 0052 A289     		ldrh	r2, [r4, #12]
 2441 0054 FFF7FEFF 		bl	tcp_bind
 2442              	.LVL301:
 2443 0058 2368     		ldr	r3, [r4]
 2444 005a 2071     		strb	r0, [r4, #4]
 2445              		.loc 1 927 0
 2446 005c BDE81040 		pop	{r4, lr}
 2447              	.LVL302:
 2448              		.loc 1 926 0
 2449 0060 03F10C00 		add	r0, r3, #12
 2450 0064 FFF7FEBF 		b	sys_sem_signal
 2451              	.LVL303:
 2452              	.L385:
 2453              		.loc 1 908 0
 2454 0068 A168     		ldr	r1, [r4, #8]
 2455 006a FFF7FEFF 		bl	raw_bind
 2456              	.LVL304:
 2457 006e 2368     		ldr	r3, [r4]
 2458 0070 2071     		strb	r0, [r4, #4]
 2459              		.loc 1 927 0
 2460 0072 BDE81040 		pop	{r4, lr}
 2461              	.LVL305:
 2462              		.loc 1 926 0
 2463 0076 03F10C00 		add	r0, r3, #12
 2464 007a FFF7FEBF 		b	sys_sem_signal
 2465              	.LVL306:
 2466              		.cfi_endproc
 2467              	.LFE22:
 2468              		.size	do_bind, .-do_bind
 2469 007e 00BF     		.section	.text.do_connect,"ax",%progbits
 2470              		.align	2
 2471              		.p2align 4,,15
 2472              		.global	do_connect
 2473              		.thumb
 2474              		.thumb_func
 2475              		.type	do_connect, %function
 2476              	do_connect:
 2477              	.LFB24:
 2478              		.loc 1 985 0
 2479              		.cfi_startproc
 2480              		@ args = 0, pretend = 0, frame = 0
 2481              		@ frame_needed = 0, uses_anonymous_args = 0
 2482              	.LVL307:
 2483 0000 10B5     		push	{r4, lr}
 2484              		.cfi_def_cfa_offset 8
 2485              		.cfi_offset 4, -8
 2486              		.cfi_offset 14, -4
 2487              		.loc 1 986 0
 2488 0002 0368     		ldr	r3, [r0]
 2489              		.loc 1 985 0
 2490 0004 0446     		mov	r4, r0
 2491              		.loc 1 986 0
 2492 0006 5868     		ldr	r0, [r3, #4]
ARM GAS  /tmp/ccT6pRdh.s 			page 45


 2493              	.LVL308:
 2494 0008 0028     		cmp	r0, #0
 2495 000a 51D0     		beq	.L404
 2496              		.loc 1 990 0
 2497 000c 1A78     		ldrb	r2, [r3]	@ zero_extendqisi2
 2498 000e 02F0F002 		and	r2, r2, #240
 2499 0012 202A     		cmp	r2, #32
 2500 0014 23D0     		beq	.L395
 2501 0016 402A     		cmp	r2, #64
 2502 0018 0CD0     		beq	.L396
 2503 001a 102A     		cmp	r2, #16
 2504 001c 15D0     		beq	.L405
 2505              		.loc 1 1027 0 discriminator 1
 2506 001e FFF7FEFF 		bl	port_halt
 2507              	.LVL309:
 2508 0022 FA22     		movs	r2, #250
 2509 0024 2368     		ldr	r3, [r4]
 2510 0026 2271     		strb	r2, [r4, #4]
 2511              	.L393:
 2512              		.loc 1 1031 0
 2513 0028 03F10C00 		add	r0, r3, #12
 2514              		.loc 1 1032 0
 2515 002c BDE81040 		pop	{r4, lr}
 2516              	.LVL310:
 2517              		.loc 1 1031 0
 2518 0030 FFF7FEBF 		b	sys_sem_signal
 2519              	.LVL311:
 2520              	.L396:
 2521              		.loc 1 993 0
 2522 0034 A168     		ldr	r1, [r4, #8]
 2523 0036 FFF7FEFF 		bl	raw_connect
 2524              	.LVL312:
 2525 003a 2368     		ldr	r3, [r4]
 2526 003c 2071     		strb	r0, [r4, #4]
 2527              		.loc 1 1032 0
 2528 003e BDE81040 		pop	{r4, lr}
 2529              	.LVL313:
 2530              		.loc 1 1031 0
 2531 0042 03F10C00 		add	r0, r3, #12
 2532 0046 FFF7FEBF 		b	sys_sem_signal
 2533              	.LVL314:
 2534              	.L405:
 2535              		.loc 1 1004 0
 2536 004a 5A78     		ldrb	r2, [r3, #1]	@ zero_extendqisi2
 2537 004c 9AB1     		cbz	r2, .L398
 2538              		.loc 1 1005 0
 2539 004e F722     		movs	r2, #247
 2540 0050 2271     		strb	r2, [r4, #4]
 2541              		.loc 1 1031 0
 2542 0052 03F10C00 		add	r0, r3, #12
 2543              		.loc 1 1032 0
 2544 0056 BDE81040 		pop	{r4, lr}
 2545              	.LVL315:
 2546              		.loc 1 1031 0
 2547 005a FFF7FEBF 		b	sys_sem_signal
 2548              	.LVL316:
 2549              	.L395:
ARM GAS  /tmp/ccT6pRdh.s 			page 46


 2550              		.loc 1 998 0
 2551 005e A168     		ldr	r1, [r4, #8]
 2552 0060 A289     		ldrh	r2, [r4, #12]
 2553 0062 FFF7FEFF 		bl	udp_connect
 2554              	.LVL317:
 2555 0066 2368     		ldr	r3, [r4]
 2556 0068 2071     		strb	r0, [r4, #4]
 2557              		.loc 1 1032 0
 2558 006a BDE81040 		pop	{r4, lr}
 2559              	.LVL318:
 2560              		.loc 1 1031 0
 2561 006e 03F10C00 		add	r0, r3, #12
 2562 0072 FFF7FEBF 		b	sys_sem_signal
 2563              	.LVL319:
 2564              	.L398:
 2565              		.loc 1 1007 0
 2566 0076 1846     		mov	r0, r3
 2567 0078 FFF7FEFF 		bl	setup_tcp
 2568              	.LVL320:
 2569              		.loc 1 1008 0
 2570 007c 2368     		ldr	r3, [r4]
 2571 007e A168     		ldr	r1, [r4, #8]
 2572 0080 5868     		ldr	r0, [r3, #4]
 2573 0082 A289     		ldrh	r2, [r4, #12]
 2574 0084 40F20003 		movw	r3, #:lower16:do_connected
 2575 0088 C0F20003 		movt	r3, #:upper16:do_connected
 2576 008c FFF7FEFF 		bl	tcp_connect
 2577              	.LVL321:
 2578              	.LBB18:
 2579              		.loc 1 1011 0
 2580 0090 2368     		ldr	r3, [r4]
 2581              	.LBE18:
 2582              		.loc 1 1008 0
 2583 0092 2071     		strb	r0, [r4, #4]
 2584              		.loc 1 1010 0
 2585 0094 0028     		cmp	r0, #0
 2586 0096 C7D1     		bne	.L393
 2587              	.LBB19:
 2588              		.loc 1 1011 0
 2589 0098 1A7F     		ldrb	r2, [r3, #28]	@ zero_extendqisi2
 2590              	.LVL322:
 2591              		.loc 1 1012 0
 2592 009a 0321     		movs	r1, #3
 2593 009c 5970     		strb	r1, [r3, #1]
 2594              		.loc 1 1013 0
 2595 009e 9107     		lsls	r1, r2, #30
 2596 00a0 0ED5     		bpl	.L400
 2597              		.loc 1 1013 0 is_stmt 0 discriminator 1
 2598 00a2 42F00402 		orr	r2, r2, #4
 2599              	.LVL323:
 2600 00a6 1A77     		strb	r2, [r3, #28]
 2601              	.LVL324:
 2602              		.loc 1 1015 0 is_stmt 1 discriminator 1
 2603 00a8 FB22     		movs	r2, #251
 2604 00aa 2368     		ldr	r3, [r4]
 2605 00ac 2271     		strb	r2, [r4, #4]
 2606 00ae BBE7     		b	.L393
ARM GAS  /tmp/ccT6pRdh.s 			page 47


 2607              	.L404:
 2608              	.LBE19:
 2609              		.loc 1 988 0
 2610 00b0 F422     		movs	r2, #244
 2611 00b2 2271     		strb	r2, [r4, #4]
 2612              		.loc 1 1031 0
 2613 00b4 03F10C00 		add	r0, r3, #12
 2614              		.loc 1 1032 0
 2615 00b8 BDE81040 		pop	{r4, lr}
 2616              	.LVL325:
 2617              		.loc 1 1031 0
 2618 00bc FFF7FEBF 		b	sys_sem_signal
 2619              	.LVL326:
 2620              	.L400:
 2621              	.LBB20:
 2622              		.loc 1 1013 0 discriminator 2
 2623 00c0 22F00402 		bic	r2, r2, #4
 2624              	.LVL327:
 2625 00c4 1A77     		strb	r2, [r3, #28]
 2626              	.LVL328:
 2627              		.loc 1 1017 0 discriminator 2
 2628 00c6 2368     		ldr	r3, [r4]
 2629 00c8 5C62     		str	r4, [r3, #36]
 2630              		.loc 1 1020 0 discriminator 2
 2631 00ca 10BD     		pop	{r4, pc}
 2632              	.LBE20:
 2633              		.cfi_endproc
 2634              	.LFE24:
 2635              		.size	do_connect, .-do_connect
 2636 00cc AFF30080 		.section	.text.do_disconnect,"ax",%progbits
 2637              		.align	2
 2638              		.p2align 4,,15
 2639              		.global	do_disconnect
 2640              		.thumb
 2641              		.thumb_func
 2642              		.type	do_disconnect, %function
 2643              	do_disconnect:
 2644              	.LFB25:
 2645              		.loc 1 1043 0
 2646              		.cfi_startproc
 2647              		@ args = 0, pretend = 0, frame = 0
 2648              		@ frame_needed = 0, uses_anonymous_args = 0
 2649              	.LVL329:
 2650 0000 10B5     		push	{r4, lr}
 2651              		.cfi_def_cfa_offset 8
 2652              		.cfi_offset 4, -8
 2653              		.cfi_offset 14, -4
 2654              		.loc 1 1043 0
 2655 0002 0446     		mov	r4, r0
 2656              		.loc 1 1045 0
 2657 0004 0068     		ldr	r0, [r0]
 2658              	.LVL330:
 2659 0006 0278     		ldrb	r2, [r0]	@ zero_extendqisi2
 2660 0008 02F0F002 		and	r2, r2, #240
 2661 000c 202A     		cmp	r2, #32
 2662              		.loc 1 1051 0
 2663 000e 1CBF     		itt	ne
ARM GAS  /tmp/ccT6pRdh.s 			page 48


 2664 0010 FA22     		movne	r2, #250
 2665 0012 2271     		strbne	r2, [r4, #4]
 2666              		.loc 1 1045 0
 2667 0014 04D0     		beq	.L409
 2668              	.L408:
 2669              		.loc 1 1053 0
 2670 0016 0C30     		adds	r0, r0, #12
 2671              		.loc 1 1054 0
 2672 0018 BDE81040 		pop	{r4, lr}
 2673              	.LVL331:
 2674              		.loc 1 1053 0
 2675 001c FFF7FEBF 		b	sys_sem_signal
 2676              	.LVL332:
 2677              	.L409:
 2678              		.loc 1 1046 0
 2679 0020 4068     		ldr	r0, [r0, #4]
 2680 0022 FFF7FEFF 		bl	udp_disconnect
 2681              	.LVL333:
 2682              		.loc 1 1047 0
 2683 0026 0023     		movs	r3, #0
 2684 0028 2371     		strb	r3, [r4, #4]
 2685 002a 2068     		ldr	r0, [r4]
 2686 002c F3E7     		b	.L408
 2687              		.cfi_endproc
 2688              	.LFE25:
 2689              		.size	do_disconnect, .-do_disconnect
 2690 002e 00BF     		.section	.text.do_listen,"ax",%progbits
 2691              		.align	2
 2692              		.p2align 4,,15
 2693              		.global	do_listen
 2694              		.thumb
 2695              		.thumb_func
 2696              		.type	do_listen, %function
 2697              	do_listen:
 2698              	.LFB26:
 2699              		.loc 1 1065 0
 2700              		.cfi_startproc
 2701              		@ args = 0, pretend = 0, frame = 0
 2702              		@ frame_needed = 0, uses_anonymous_args = 0
 2703              	.LVL334:
 2704 0000 38B5     		push	{r3, r4, r5, lr}
 2705              		.cfi_def_cfa_offset 16
 2706              		.cfi_offset 3, -16
 2707              		.cfi_offset 4, -12
 2708              		.cfi_offset 5, -8
 2709              		.cfi_offset 14, -4
 2710              		.loc 1 1066 0
 2711 0002 0368     		ldr	r3, [r0]
 2712 0004 1A7A     		ldrb	r2, [r3, #8]	@ zero_extendqisi2
 2713 0006 51B2     		sxtb	r1, r2
 2714 0008 0931     		adds	r1, r1, #9
 2715              		.loc 1 1065 0
 2716 000a 0446     		mov	r4, r0
 2717              		.loc 1 1066 0
 2718 000c 08DB     		blt	.L425
 2719              		.loc 1 1069 0
 2720 000e F322     		movs	r2, #243
ARM GAS  /tmp/ccT6pRdh.s 			page 49


 2721 0010 0271     		strb	r2, [r0, #4]
 2722              		.loc 1 1070 0
 2723 0012 5868     		ldr	r0, [r3, #4]
 2724              	.LVL335:
 2725 0014 28B1     		cbz	r0, .L412
 2726              		.loc 1 1071 0
 2727 0016 1A78     		ldrb	r2, [r3]	@ zero_extendqisi2
 2728 0018 102A     		cmp	r2, #16
 2729              		.loc 1 1105 0
 2730 001a 18BF     		it	ne
 2731 001c F222     		movne	r2, #242
 2732              		.loc 1 1071 0
 2733 001e 06D0     		beq	.L426
 2734              	.L425:
 2735              		.loc 1 1105 0
 2736 0020 2271     		strb	r2, [r4, #4]
 2737              	.L412:
 2738              		.loc 1 1109 0
 2739 0022 03F10C00 		add	r0, r3, #12
 2740              		.loc 1 1110 0
 2741 0026 BDE83840 		pop	{r3, r4, r5, lr}
 2742              	.LVL336:
 2743              		.loc 1 1109 0
 2744 002a FFF7FEBF 		b	sys_sem_signal
 2745              	.LVL337:
 2746              	.L426:
 2747              		.loc 1 1072 0
 2748 002e 5A78     		ldrb	r2, [r3, #1]	@ zero_extendqisi2
 2749 0030 002A     		cmp	r2, #0
 2750 0032 F6D1     		bne	.L412
 2751              	.LBB21:
 2752              		.loc 1 1076 0
 2753 0034 FF21     		movs	r1, #255
 2754 0036 FFF7FEFF 		bl	tcp_listen_with_backlog
 2755              	.LVL338:
 2756              		.loc 1 1078 0
 2757 003a 0546     		mov	r5, r0
 2758 003c F8B1     		cbz	r0, .L427
 2759              		.loc 1 1083 0
 2760 003e 2068     		ldr	r0, [r4]
 2761              	.LVL339:
 2762 0040 1030     		adds	r0, r0, #16
 2763 0042 FFF7FEFF 		bl	sys_mbox_valid
 2764              	.LVL340:
 2765 0046 68BB     		cbnz	r0, .L428
 2766              	.L415:
 2767              		.loc 1 1089 0
 2768 0048 2068     		ldr	r0, [r4]
 2769              		.loc 1 1088 0
 2770 004a 0023     		movs	r3, #0
 2771              		.loc 1 1089 0
 2772 004c 1430     		adds	r0, r0, #20
 2773              		.loc 1 1088 0
 2774 004e 2371     		strb	r3, [r4, #4]
 2775              		.loc 1 1089 0
 2776 0050 FFF7FEFF 		bl	sys_mbox_valid
 2777              	.LVL341:
ARM GAS  /tmp/ccT6pRdh.s 			page 50


 2778 0054 F8B1     		cbz	r0, .L416
 2779 0056 2079     		ldrb	r0, [r4, #4]	@ zero_extendqisi2
 2780              	.L417:
 2781              		.loc 1 1092 0
 2782 0058 A8B9     		cbnz	r0, .L418
 2783              		.loc 1 1093 0
 2784 005a 2368     		ldr	r3, [r4]
 2785              		.loc 1 1094 0
 2786 005c 5D60     		str	r5, [r3, #4]
 2787              		.loc 1 1095 0
 2788 005e 2168     		ldr	r1, [r4]
 2789              		.loc 1 1093 0
 2790 0060 0222     		movs	r2, #2
 2791 0062 5A70     		strb	r2, [r3, #1]
 2792              		.loc 1 1095 0
 2793 0064 4868     		ldr	r0, [r1, #4]
 2794 0066 FFF7FEFF 		bl	tcp_arg
 2795              	.LVL342:
 2796              		.loc 1 1096 0
 2797 006a 2368     		ldr	r3, [r4]
 2798 006c 40F20001 		movw	r1, #:lower16:accept_function
 2799 0070 5868     		ldr	r0, [r3, #4]
 2800 0072 C0F20001 		movt	r1, #:upper16:accept_function
 2801 0076 FFF7FEFF 		bl	tcp_accept
 2802              	.LVL343:
 2803 007a 2368     		ldr	r3, [r4]
 2804 007c D1E7     		b	.L412
 2805              	.LVL344:
 2806              	.L427:
 2807              		.loc 1 1080 0
 2808 007e FF23     		movs	r3, #255
 2809 0080 2371     		strb	r3, [r4, #4]
 2810 0082 2368     		ldr	r3, [r4]
 2811 0084 CDE7     		b	.L412
 2812              	.LVL345:
 2813              	.L418:
 2814              		.loc 1 1099 0
 2815 0086 2846     		mov	r0, r5
 2816 0088 FFF7FEFF 		bl	tcp_close
 2817              	.LVL346:
 2818              		.loc 1 1100 0
 2819 008c 2368     		ldr	r3, [r4]
 2820 008e 0022     		movs	r2, #0
 2821 0090 5A60     		str	r2, [r3, #4]
 2822 0092 2368     		ldr	r3, [r4]
 2823 0094 C5E7     		b	.L412
 2824              	.L416:
 2825              		.loc 1 1090 0
 2826 0096 2068     		ldr	r0, [r4]
 2827 0098 0421     		movs	r1, #4
 2828 009a 1430     		adds	r0, r0, #20
 2829 009c FFF7FEFF 		bl	sys_mbox_new
 2830              	.LVL347:
 2831 00a0 2071     		strb	r0, [r4, #4]
 2832 00a2 D9E7     		b	.L417
 2833              	.L428:
 2834              		.loc 1 1085 0
ARM GAS  /tmp/ccT6pRdh.s 			page 51


 2835 00a4 2068     		ldr	r0, [r4]
 2836 00a6 1030     		adds	r0, r0, #16
 2837 00a8 FFF7FEFF 		bl	sys_mbox_free
 2838              	.LVL348:
 2839              		.loc 1 1086 0
 2840 00ac 2068     		ldr	r0, [r4]
 2841 00ae 1030     		adds	r0, r0, #16
 2842 00b0 FFF7FEFF 		bl	sys_mbox_set_invalid
 2843              	.LVL349:
 2844 00b4 C8E7     		b	.L415
 2845              	.LBE21:
 2846              		.cfi_endproc
 2847              	.LFE26:
 2848              		.size	do_listen, .-do_listen
 2849 00b6 00BFAFF3 		.section	.text.do_send,"ax",%progbits
 2849      0080AFF3 
 2849      0080
 2850              		.align	2
 2851              		.p2align 4,,15
 2852              		.global	do_send
 2853              		.thumb
 2854              		.thumb_func
 2855              		.type	do_send, %function
 2856              	do_send:
 2857              	.LFB27:
 2858              		.loc 1 1121 0
 2859              		.cfi_startproc
 2860              		@ args = 0, pretend = 0, frame = 0
 2861              		@ frame_needed = 0, uses_anonymous_args = 0
 2862              	.LVL350:
 2863 0000 10B5     		push	{r4, lr}
 2864              		.cfi_def_cfa_offset 8
 2865              		.cfi_offset 4, -8
 2866              		.cfi_offset 14, -4
 2867              		.loc 1 1122 0
 2868 0002 0368     		ldr	r3, [r0]
 2869 0004 1A7A     		ldrb	r2, [r3, #8]	@ zero_extendqisi2
 2870 0006 51B2     		sxtb	r1, r2
 2871 0008 0931     		adds	r1, r1, #9
 2872              		.loc 1 1121 0
 2873 000a 0446     		mov	r4, r0
 2874              		.loc 1 1123 0
 2875 000c B8BF     		it	lt
 2876 000e 0271     		strblt	r2, [r0, #4]
 2877              		.loc 1 1122 0
 2878 0010 15DB     		blt	.L431
 2879              		.loc 1 1125 0
 2880 0012 F322     		movs	r2, #243
 2881 0014 0271     		strb	r2, [r0, #4]
 2882              		.loc 1 1126 0
 2883 0016 5868     		ldr	r0, [r3, #4]
 2884              	.LVL351:
 2885 0018 88B1     		cbz	r0, .L431
 2886              		.loc 1 1127 0
 2887 001a 1A78     		ldrb	r2, [r3]	@ zero_extendqisi2
 2888 001c 02F0F002 		and	r2, r2, #240
 2889 0020 202A     		cmp	r2, #32
ARM GAS  /tmp/ccT6pRdh.s 			page 52


 2890 0022 12D0     		beq	.L432
 2891 0024 402A     		cmp	r2, #64
 2892 0026 0AD1     		bne	.L431
 2893              		.loc 1 1130 0
 2894 0028 A368     		ldr	r3, [r4, #8]
 2895 002a 13F10802 		adds	r2, r3, #8
 2896 002e 01D0     		beq	.L434
 2897              		.loc 1 1130 0 is_stmt 0 discriminator 1
 2898 0030 9968     		ldr	r1, [r3, #8]
 2899 0032 11BB     		cbnz	r1, .L435
 2900              	.L434:
 2901              		.loc 1 1131 0 is_stmt 1
 2902 0034 1968     		ldr	r1, [r3]
 2903 0036 FFF7FEFF 		bl	raw_send
 2904              	.LVL352:
 2905 003a 2368     		ldr	r3, [r4]
 2906 003c 2071     		strb	r0, [r4, #4]
 2907              	.L431:
 2908              		.loc 1 1162 0
 2909 003e 03F10C00 		add	r0, r3, #12
 2910              		.loc 1 1163 0
 2911 0042 BDE81040 		pop	{r4, lr}
 2912              	.LVL353:
 2913              		.loc 1 1162 0
 2914 0046 FFF7FEBF 		b	sys_sem_signal
 2915              	.LVL354:
 2916              	.L432:
 2917              		.loc 1 1149 0
 2918 004a A368     		ldr	r3, [r4, #8]
 2919 004c 13F10802 		adds	r2, r3, #8
 2920 0050 01D0     		beq	.L436
 2921              		.loc 1 1149 0 is_stmt 0 discriminator 1
 2922 0052 9968     		ldr	r1, [r3, #8]
 2923 0054 51B9     		cbnz	r1, .L437
 2924              	.L436:
 2925              		.loc 1 1150 0 is_stmt 1
 2926 0056 1968     		ldr	r1, [r3]
 2927 0058 FFF7FEFF 		bl	udp_send
 2928              	.LVL355:
 2929 005c 2368     		ldr	r3, [r4]
 2930 005e 2071     		strb	r0, [r4, #4]
 2931              		.loc 1 1163 0
 2932 0060 BDE81040 		pop	{r4, lr}
 2933              	.LVL356:
 2934              		.loc 1 1162 0
 2935 0064 03F10C00 		add	r0, r3, #12
 2936 0068 FFF7FEBF 		b	sys_sem_signal
 2937              	.LVL357:
 2938              	.L437:
 2939              		.loc 1 1152 0
 2940 006c 1968     		ldr	r1, [r3]
 2941 006e 9B89     		ldrh	r3, [r3, #12]
 2942 0070 FFF7FEFF 		bl	udp_sendto
 2943              	.LVL358:
 2944 0074 2368     		ldr	r3, [r4]
 2945 0076 2071     		strb	r0, [r4, #4]
 2946 0078 E1E7     		b	.L431
ARM GAS  /tmp/ccT6pRdh.s 			page 53


 2947              	.L435:
 2948              		.loc 1 1133 0
 2949 007a 1968     		ldr	r1, [r3]
 2950 007c FFF7FEFF 		bl	raw_sendto
 2951              	.LVL359:
 2952 0080 2368     		ldr	r3, [r4]
 2953 0082 2071     		strb	r0, [r4, #4]
 2954 0084 DBE7     		b	.L431
 2955              		.cfi_endproc
 2956              	.LFE27:
 2957              		.size	do_send, .-do_send
 2958 0086 00BFAFF3 		.section	.text.do_recv,"ax",%progbits
 2958      0080AFF3 
 2958      0080
 2959              		.align	2
 2960              		.p2align 4,,15
 2961              		.global	do_recv
 2962              		.thumb
 2963              		.thumb_func
 2964              		.type	do_recv, %function
 2965              	do_recv:
 2966              	.LFB28:
 2967              		.loc 1 1174 0
 2968              		.cfi_startproc
 2969              		@ args = 0, pretend = 0, frame = 0
 2970              		@ frame_needed = 0, uses_anonymous_args = 0
 2971              	.LVL360:
 2972 0000 70B5     		push	{r4, r5, r6, lr}
 2973              		.cfi_def_cfa_offset 16
 2974              		.cfi_offset 4, -16
 2975              		.cfi_offset 5, -12
 2976              		.cfi_offset 6, -8
 2977              		.cfi_offset 14, -4
 2978              		.loc 1 1175 0
 2979 0002 0022     		movs	r2, #0
 2980              		.loc 1 1176 0
 2981 0004 0368     		ldr	r3, [r0]
 2982              		.loc 1 1175 0
 2983 0006 0271     		strb	r2, [r0, #4]
 2984              		.loc 1 1174 0
 2985 0008 0646     		mov	r6, r0
 2986              		.loc 1 1176 0
 2987 000a 5868     		ldr	r0, [r3, #4]
 2988              	.LVL361:
 2989 000c 10B1     		cbz	r0, .L448
 2990              		.loc 1 1177 0
 2991 000e 1A78     		ldrb	r2, [r3]	@ zero_extendqisi2
 2992 0010 102A     		cmp	r2, #16
 2993 0012 05D0     		beq	.L457
 2994              	.L448:
 2995              		.loc 1 1193 0
 2996 0014 03F10C00 		add	r0, r3, #12
 2997              		.loc 1 1194 0
 2998 0018 BDE87040 		pop	{r4, r5, r6, lr}
 2999              	.LVL362:
 3000              		.loc 1 1193 0
 3001 001c FFF7FEBF 		b	sys_sem_signal
ARM GAS  /tmp/ccT6pRdh.s 			page 54


 3002              	.LVL363:
 3003              	.L457:
 3004              	.LBB22:
 3005              		.loc 1 1184 0
 3006 0020 B468     		ldr	r4, [r6, #8]
 3007              	.LVL364:
 3008 0022 00E0     		b	.L451
 3009              	.LVL365:
 3010              	.L458:
 3011 0024 5868     		ldr	r0, [r3, #4]
 3012              	.L451:
 3013              	.LBB23:
 3014              		.loc 1 1186 0
 3015 0026 B4F5803F 		cmp	r4, #65536
 3016 002a 2DBF     		iteet	cs
 3017 002c 4FF6FF75 		movwcs	r5, #65535
 3018 0030 A1B2     		uxthcc	r1, r4
 3019 0032 2546     		movcc	r5, r4
 3020 0034 2946     		movcs	r1, r5
 3021              	.LVL366:
 3022              		.loc 1 1187 0
 3023 0036 FFF7FEFF 		bl	tcp_recved
 3024              	.LVL367:
 3025              	.LBE23:
 3026              		.loc 1 1189 0
 3027 003a 641B     		subs	r4, r4, r5
 3028              	.LVL368:
 3029 003c 3368     		ldr	r3, [r6]
 3030 003e F1D1     		bne	.L458
 3031              	.LBE22:
 3032              		.loc 1 1193 0
 3033 0040 03F10C00 		add	r0, r3, #12
 3034              		.loc 1 1194 0
 3035 0044 BDE87040 		pop	{r4, r5, r6, lr}
 3036              	.LVL369:
 3037              		.loc 1 1193 0
 3038 0048 FFF7FEBF 		b	sys_sem_signal
 3039              	.LVL370:
 3040              		.cfi_endproc
 3041              	.LFE28:
 3042              		.size	do_recv, .-do_recv
 3043 004c AFF30080 		.section	.text.do_write,"ax",%progbits
 3044              		.align	2
 3045              		.p2align 4,,15
 3046              		.global	do_write
 3047              		.thumb
 3048              		.thumb_func
 3049              		.type	do_write, %function
 3050              	do_write:
 3051              	.LFB30:
 3052              		.loc 1 1344 0
 3053              		.cfi_startproc
 3054              		@ args = 0, pretend = 0, frame = 8
 3055              		@ frame_needed = 0, uses_anonymous_args = 0
 3056              	.LVL371:
 3057 0000 00B5     		push	{lr}
 3058              		.cfi_def_cfa_offset 4
ARM GAS  /tmp/ccT6pRdh.s 			page 55


 3059              		.cfi_offset 14, -4
 3060              		.loc 1 1345 0
 3061 0002 0368     		ldr	r3, [r0]
 3062 0004 1A7A     		ldrb	r2, [r3, #8]	@ zero_extendqisi2
 3063 0006 51B2     		sxtb	r1, r2
 3064 0008 0931     		adds	r1, r1, #9
 3065              		.loc 1 1344 0
 3066 000a 83B0     		sub	sp, sp, #12
 3067              		.cfi_def_cfa_offset 16
 3068              		.loc 1 1345 0
 3069 000c 04DB     		blt	.L471
 3070              		.loc 1 1348 0
 3071 000e 1A78     		ldrb	r2, [r3]	@ zero_extendqisi2
 3072 0010 102A     		cmp	r2, #16
 3073              		.loc 1 1384 0
 3074 0012 18BF     		it	ne
 3075 0014 FA22     		movne	r2, #250
 3076              		.loc 1 1348 0
 3077 0016 07D0     		beq	.L472
 3078              	.L471:
 3079              		.loc 1 1384 0
 3080 0018 0271     		strb	r2, [r0, #4]
 3081              	.L461:
 3082              		.loc 1 1388 0
 3083 001a 03F10C00 		add	r0, r3, #12
 3084              	.LVL372:
 3085              		.loc 1 1389 0
 3086 001e 03B0     		add	sp, sp, #12
 3087              		@ sp needed
 3088 0020 5DF804EB 		ldr	lr, [sp], #4
 3089              		.loc 1 1388 0
 3090 0024 FFF7FEBF 		b	sys_sem_signal
 3091              	.LVL373:
 3092              	.L472:
 3093              		.loc 1 1350 0
 3094 0028 5A78     		ldrb	r2, [r3, #1]	@ zero_extendqisi2
 3095 002a 12B1     		cbz	r2, .L463
 3096              		.loc 1 1352 0
 3097 002c FB22     		movs	r2, #251
 3098 002e 0271     		strb	r2, [r0, #4]
 3099 0030 F3E7     		b	.L461
 3100              	.L463:
 3101              		.loc 1 1353 0
 3102 0032 5A68     		ldr	r2, [r3, #4]
 3103 0034 E2B1     		cbz	r2, .L464
 3104              		.loc 1 1356 0
 3105 0036 5A6A     		ldr	r2, [r3, #36]
 3106              		.loc 1 1354 0
 3107 0038 0121     		movs	r1, #1
 3108 003a 5970     		strb	r1, [r3, #1]
 3109              		.loc 1 1356 0
 3110 003c A2B1     		cbz	r2, .L473
 3111              	.L465:
 3112              		.loc 1 1356 0 is_stmt 0 discriminator 1
 3113 003e 0190     		str	r0, [sp, #4]
 3114 0040 FFF7FEFF 		bl	port_halt
 3115              	.LVL374:
ARM GAS  /tmp/ccT6pRdh.s 			page 56


 3116 0044 0198     		ldr	r0, [sp, #4]
 3117              	.L466:
 3118              		.loc 1 1358 0 is_stmt 1
 3119 0046 C368     		ldr	r3, [r0, #12]
 3120 0048 4BB1     		cbz	r3, .L474
 3121              	.L467:
 3122              		.loc 1 1359 0
 3123 004a 0368     		ldr	r3, [r0]
 3124              		.loc 1 1360 0
 3125 004c 0022     		movs	r2, #0
 3126              		.loc 1 1359 0
 3127 004e 5862     		str	r0, [r3, #36]
 3128              		.loc 1 1371 0
 3129 0050 1846     		mov	r0, r3
 3130              		.loc 1 1360 0
 3131 0052 1A62     		str	r2, [r3, #32]
 3132              		.loc 1 1389 0
 3133 0054 03B0     		add	sp, sp, #12
 3134              		@ sp needed
 3135 0056 5DF804EB 		ldr	lr, [sp], #4
 3136              		.loc 1 1371 0
 3137 005a FFF7FEBF 		b	do_writemore
 3138              	.LVL375:
 3139              	.L474:
 3140              		.loc 1 1358 0 discriminator 1
 3141 005e 0190     		str	r0, [sp, #4]
 3142 0060 FFF7FEFF 		bl	port_halt
 3143              	.LVL376:
 3144 0064 0198     		ldr	r0, [sp, #4]
 3145 0066 F0E7     		b	.L467
 3146              	.LVL377:
 3147              	.L473:
 3148              		.loc 1 1356 0 discriminator 2
 3149 0068 1B6A     		ldr	r3, [r3, #32]
 3150 006a 002B     		cmp	r3, #0
 3151 006c EBD0     		beq	.L466
 3152 006e E6E7     		b	.L465
 3153              	.L464:
 3154              		.loc 1 1377 0
 3155 0070 F322     		movs	r2, #243
 3156 0072 0271     		strb	r2, [r0, #4]
 3157 0074 D1E7     		b	.L461
 3158              		.cfi_endproc
 3159              	.LFE30:
 3160              		.size	do_write, .-do_write
 3161 0076 00BFAFF3 		.section	.text.do_getaddr,"ax",%progbits
 3161      0080AFF3 
 3161      0080
 3162              		.align	2
 3163              		.p2align 4,,15
 3164              		.global	do_getaddr
 3165              		.thumb
 3166              		.thumb_func
 3167              		.type	do_getaddr, %function
 3168              	do_getaddr:
 3169              	.LFB31:
 3170              		.loc 1 1399 0
ARM GAS  /tmp/ccT6pRdh.s 			page 57


 3171              		.cfi_startproc
 3172              		@ args = 0, pretend = 0, frame = 0
 3173              		@ frame_needed = 0, uses_anonymous_args = 0
 3174              	.LVL378:
 3175 0000 10B5     		push	{r4, lr}
 3176              		.cfi_def_cfa_offset 8
 3177              		.cfi_offset 4, -8
 3178              		.cfi_offset 14, -4
 3179              		.loc 1 1399 0
 3180 0002 0446     		mov	r4, r0
 3181              		.loc 1 1400 0
 3182 0004 0068     		ldr	r0, [r0]
 3183              	.LVL379:
 3184 0006 4368     		ldr	r3, [r0, #4]
 3185 0008 E3B1     		cbz	r3, .L476
 3186              		.loc 1 1401 0
 3187 000a 217C     		ldrb	r1, [r4, #16]	@ zero_extendqisi2
 3188 000c A268     		ldr	r2, [r4, #8]
 3189 000e A1B9     		cbnz	r1, .L490
 3190              		.loc 1 1401 0 is_stmt 0 discriminator 2
 3191 0010 5B68     		ldr	r3, [r3, #4]
 3192 0012 1360     		str	r3, [r2]
 3193              	.L478:
 3194              		.loc 1 1404 0 is_stmt 1
 3195 0014 0023     		movs	r3, #0
 3196 0016 2371     		strb	r3, [r4, #4]
 3197              		.loc 1 1405 0
 3198 0018 0378     		ldrb	r3, [r0]	@ zero_extendqisi2
 3199 001a 03F0F003 		and	r3, r3, #240
 3200 001e 202B     		cmp	r3, #32
 3201 0020 22D0     		beq	.L480
 3202 0022 402B     		cmp	r3, #64
 3203 0024 0CD0     		beq	.L481
 3204 0026 102B     		cmp	r3, #16
 3205 0028 13D0     		beq	.L491
 3206              		.loc 1 1435 0 discriminator 1
 3207 002a FFF7FEFF 		bl	port_halt
 3208              	.LVL380:
 3209 002e 2068     		ldr	r0, [r4]
 3210              	.L484:
 3211              		.loc 1 1441 0
 3212 0030 0C30     		adds	r0, r0, #12
 3213              		.loc 1 1442 0
 3214 0032 BDE81040 		pop	{r4, lr}
 3215              	.LVL381:
 3216              		.loc 1 1441 0
 3217 0036 FFF7FEBF 		b	sys_sem_signal
 3218              	.LVL382:
 3219              	.L490:
 3220              		.loc 1 1401 0 discriminator 1
 3221 003a 1B68     		ldr	r3, [r3]
 3222 003c 1360     		str	r3, [r2]
 3223 003e E9E7     		b	.L478
 3224              	.L481:
 3225              		.loc 1 1408 0
 3226 0040 237C     		ldrb	r3, [r4, #16]	@ zero_extendqisi2
 3227 0042 DBB9     		cbnz	r3, .L492
ARM GAS  /tmp/ccT6pRdh.s 			page 58


 3228              	.L476:
 3229              		.loc 1 1439 0
 3230 0044 F323     		movs	r3, #243
 3231 0046 2371     		strb	r3, [r4, #4]
 3232              		.loc 1 1441 0
 3233 0048 0C30     		adds	r0, r0, #12
 3234              		.loc 1 1442 0
 3235 004a BDE81040 		pop	{r4, lr}
 3236              	.LVL383:
 3237              		.loc 1 1441 0
 3238 004e FFF7FEBF 		b	sys_sem_signal
 3239              	.LVL384:
 3240              	.L491:
 3241              		.loc 1 1431 0
 3242 0052 227C     		ldrb	r2, [r4, #16]	@ zero_extendqisi2
 3243 0054 E368     		ldr	r3, [r4, #12]
 3244 0056 D2B9     		cbnz	r2, .L493
 3245              		.loc 1 1431 0 is_stmt 0 discriminator 2
 3246 0058 4268     		ldr	r2, [r0, #4]
 3247 005a 928B     		ldrh	r2, [r2, #28]
 3248              	.L488:
 3249              		.loc 1 1431 0 discriminator 3
 3250 005c 1A80     		strh	r2, [r3]	@ movhi
 3251              		.loc 1 1441 0 is_stmt 1 discriminator 3
 3252 005e 0C30     		adds	r0, r0, #12
 3253              		.loc 1 1442 0 discriminator 3
 3254 0060 BDE81040 		pop	{r4, lr}
 3255              	.LVL385:
 3256              		.loc 1 1441 0 discriminator 3
 3257 0064 FFF7FEBF 		b	sys_sem_signal
 3258              	.LVL386:
 3259              	.L480:
 3260              		.loc 1 1418 0
 3261 0068 237C     		ldrb	r3, [r4, #16]	@ zero_extendqisi2
 3262 006a 9BB9     		cbnz	r3, .L494
 3263              		.loc 1 1421 0
 3264 006c 4368     		ldr	r3, [r0, #4]
 3265 006e 1A7C     		ldrb	r2, [r3, #16]	@ zero_extendqisi2
 3266 0070 5207     		lsls	r2, r2, #29
 3267 0072 E7D5     		bpl	.L476
 3268              		.loc 1 1424 0
 3269 0074 E268     		ldr	r2, [r4, #12]
 3270 0076 9B8A     		ldrh	r3, [r3, #20]
 3271 0078 1380     		strh	r3, [r2]	@ movhi
 3272 007a D9E7     		b	.L484
 3273              	.L492:
 3274              		.loc 1 1409 0
 3275 007c 4368     		ldr	r3, [r0, #4]
 3276 007e E268     		ldr	r2, [r4, #12]
 3277 0080 1B7C     		ldrb	r3, [r3, #16]	@ zero_extendqisi2
 3278              		.loc 1 1441 0
 3279 0082 0C30     		adds	r0, r0, #12
 3280              		.loc 1 1409 0
 3281 0084 1380     		strh	r3, [r2]	@ movhi
 3282              		.loc 1 1442 0
 3283 0086 BDE81040 		pop	{r4, lr}
 3284              	.LVL387:
ARM GAS  /tmp/ccT6pRdh.s 			page 59


 3285              		.loc 1 1441 0
 3286 008a FFF7FEBF 		b	sys_sem_signal
 3287              	.LVL388:
 3288              	.L493:
 3289              		.loc 1 1431 0 discriminator 1
 3290 008e 4268     		ldr	r2, [r0, #4]
 3291 0090 528B     		ldrh	r2, [r2, #26]
 3292 0092 E3E7     		b	.L488
 3293              	.L494:
 3294              		.loc 1 1419 0
 3295 0094 4368     		ldr	r3, [r0, #4]
 3296 0096 E268     		ldr	r2, [r4, #12]
 3297 0098 5B8A     		ldrh	r3, [r3, #18]
 3298 009a 1380     		strh	r3, [r2]	@ movhi
 3299 009c C8E7     		b	.L484
 3300              		.cfi_endproc
 3301              	.LFE31:
 3302              		.size	do_getaddr, .-do_getaddr
 3303 009e 00BF     		.section	.text.do_close,"ax",%progbits
 3304              		.align	2
 3305              		.p2align 4,,15
 3306              		.global	do_close
 3307              		.thumb
 3308              		.thumb_func
 3309              		.type	do_close, %function
 3310              	do_close:
 3311              	.LFB32:
 3312              		.loc 1 1452 0
 3313              		.cfi_startproc
 3314              		@ args = 0, pretend = 0, frame = 0
 3315              		@ frame_needed = 0, uses_anonymous_args = 0
 3316              	.LVL389:
 3317 0000 10B5     		push	{r4, lr}
 3318              		.cfi_def_cfa_offset 8
 3319              		.cfi_offset 4, -8
 3320              		.cfi_offset 14, -4
 3321              		.loc 1 1452 0
 3322 0002 0446     		mov	r4, r0
 3323              		.loc 1 1455 0
 3324 0004 0068     		ldr	r0, [r0]
 3325              	.LVL390:
 3326 0006 4278     		ldrb	r2, [r0, #1]	@ zero_extendqisi2
 3327 0008 12F0FD0F 		tst	r2, #253
 3328 000c 0CD0     		beq	.L496
 3329              		.loc 1 1457 0
 3330 000e 0278     		ldrb	r2, [r0]	@ zero_extendqisi2
 3331 0010 102A     		cmp	r2, #16
 3332 0012 02D0     		beq	.L497
 3333              		.loc 1 1457 0 is_stmt 0 discriminator 1
 3334 0014 FFF7FEFF 		bl	port_halt
 3335              	.LVL391:
 3336 0018 2068     		ldr	r0, [r4]
 3337              	.L497:
 3338              		.loc 1 1458 0 is_stmt 1
 3339 001a FB22     		movs	r2, #251
 3340 001c 2271     		strb	r2, [r4, #4]
 3341              	.L498:
ARM GAS  /tmp/ccT6pRdh.s 			page 60


 3342              		.loc 1 1481 0
 3343 001e 0C30     		adds	r0, r0, #12
 3344              		.loc 1 1482 0
 3345 0020 BDE81040 		pop	{r4, lr}
 3346              	.LVL392:
 3347              		.loc 1 1481 0
 3348 0024 FFF7FEBF 		b	sys_sem_signal
 3349              	.LVL393:
 3350              	.L496:
 3351              		.loc 1 1459 0
 3352 0028 4168     		ldr	r1, [r0, #4]
 3353 002a 11B1     		cbz	r1, .L499
 3354              		.loc 1 1459 0 is_stmt 0 discriminator 1
 3355 002c 0178     		ldrb	r1, [r0]	@ zero_extendqisi2
 3356 002e 1029     		cmp	r1, #16
 3357 0030 06D0     		beq	.L520
 3358              	.L499:
 3359              		.loc 1 1479 0 is_stmt 1
 3360 0032 FA22     		movs	r2, #250
 3361 0034 2271     		strb	r2, [r4, #4]
 3362              		.loc 1 1481 0
 3363 0036 0C30     		adds	r0, r0, #12
 3364              		.loc 1 1482 0
 3365 0038 BDE81040 		pop	{r4, lr}
 3366              	.LVL394:
 3367              		.loc 1 1481 0
 3368 003c FFF7FEBF 		b	sys_sem_signal
 3369              	.LVL395:
 3370              	.L520:
 3371              		.loc 1 1460 0
 3372 0040 217A     		ldrb	r1, [r4, #8]	@ zero_extendqisi2
 3373 0042 0329     		cmp	r1, #3
 3374 0044 16D0     		beq	.L500
 3375              		.loc 1 1460 0 is_stmt 0 discriminator 1
 3376 0046 022A     		cmp	r2, #2
 3377              		.loc 1 1462 0 is_stmt 1 discriminator 1
 3378 0048 04BF     		itt	eq
 3379 004a F322     		moveq	r2, #243
 3380 004c 2271     		strbeq	r2, [r4, #4]
 3381              		.loc 1 1460 0 discriminator 1
 3382 004e E6D0     		beq	.L498
 3383              		.loc 1 1464 0
 3384 0050 C907     		lsls	r1, r1, #31
 3385 0052 0FD4     		bmi	.L500
 3386              	.L502:
 3387              		.loc 1 1468 0
 3388 0054 426A     		ldr	r2, [r0, #36]
 3389 0056 4AB1     		cbz	r2, .L521
 3390              	.L503:
 3391              		.loc 1 1468 0 is_stmt 0 discriminator 1
 3392 0058 FFF7FEFF 		bl	port_halt
 3393              	.LVL396:
 3394 005c 2068     		ldr	r0, [r4]
 3395              	.L504:
 3396              		.loc 1 1470 0 is_stmt 1
 3397 005e 0422     		movs	r2, #4
 3398              		.loc 1 1471 0
ARM GAS  /tmp/ccT6pRdh.s 			page 61


 3399 0060 4462     		str	r4, [r0, #36]
 3400              		.loc 1 1470 0
 3401 0062 4270     		strb	r2, [r0, #1]
 3402              		.loc 1 1482 0
 3403 0064 BDE81040 		pop	{r4, lr}
 3404              	.LVL397:
 3405              		.loc 1 1472 0
 3406 0068 FFF7FEBF 		b	do_close_internal
 3407              	.LVL398:
 3408              	.L521:
 3409              		.loc 1 1468 0 discriminator 2
 3410 006c 026A     		ldr	r2, [r0, #32]
 3411 006e 002A     		cmp	r2, #0
 3412 0070 F2D1     		bne	.L503
 3413 0072 F4E7     		b	.L504
 3414              	.L500:
 3415              		.loc 1 1466 0
 3416 0074 FFF7FEFF 		bl	netconn_drain
 3417              	.LVL399:
 3418 0078 2068     		ldr	r0, [r4]
 3419 007a EBE7     		b	.L502
 3420              		.cfi_endproc
 3421              	.LFE32:
 3422              		.size	do_close, .-do_close
 3423              		.text
 3424              	.Letext0:
 3425              		.file 2 "/usr/lib/gcc/arm-none-eabi/4.8.2/include/stddef.h"
 3426              		.file 3 "/usr/include/newlib/machine/_default_types.h"
 3427              		.file 4 "/usr/include/newlib/stdint.h"
 3428              		.file 5 "../../os/ports/GCC/ARMCMx/chtypes.h"
 3429              		.file 6 "../../os/kernel/include/chlists.h"
 3430              		.file 7 "../../os/kernel/include/chthreads.h"
 3431              		.file 8 "../../os/ports/GCC/ARMCMx/chcore_v7m.h"
 3432              		.file 9 "../../os/kernel/include/chsem.h"
 3433              		.file 10 "../../os/kernel/include/chmtx.h"
 3434              		.file 11 "../../os/kernel/include/chmboxes.h"
 3435              		.file 12 "../../os/various/lwip_bindings/arch/cc.h"
 3436              		.file 13 "../../ext/lwip/src/include/ipv4/lwip/ip_addr.h"
 3437              		.file 14 "../../ext/lwip/src/include/lwip/err.h"
 3438              		.file 15 "../../os/various/lwip_bindings/arch/sys_arch.h"
 3439              		.file 16 "../../ext/lwip/src/include/lwip/pbuf.h"
 3440              		.file 17 "../../ext/lwip/src/include/lwip/netbuf.h"
 3441              		.file 18 "../../ext/lwip/src/include/lwip/api.h"
 3442              		.file 19 "../../ext/lwip/src/include/ipv4/lwip/ip.h"
 3443              		.file 20 "../../ext/lwip/src/include/lwip/tcp.h"
 3444              		.file 21 "../../ext/lwip/src/include/lwip/udp.h"
 3445              		.file 22 "../../ext/lwip/src/include/lwip/raw.h"
 3446              		.file 23 "../../ext/lwip/src/include/lwip/api_msg.h"
 3447              		.file 24 "../../ext/lwip/src/include/lwip/memp.h"
 3448              		.file 25 "../../ext/lwip/src/include/lwip/sys.h"
 3449              		.section	.debug_info,"",%progbits
 3450              	.Ldebug_info0:
 3451 0000 DD280000 		.4byte	0x28dd
 3452 0004 0400     		.2byte	0x4
 3453 0006 00000000 		.4byte	.Ldebug_abbrev0
 3454 000a 04       		.byte	0x4
 3455 000b 01       		.uleb128 0x1
ARM GAS  /tmp/ccT6pRdh.s 			page 62


 3456 000c A1070000 		.4byte	.LASF322
 3457 0010 01       		.byte	0x1
 3458 0011 61030000 		.4byte	.LASF323
 3459 0015 560B0000 		.4byte	.LASF324
 3460 0019 70000000 		.4byte	.Ldebug_ranges0+0x70
 3461 001d 00000000 		.4byte	0
 3462 0021 00000000 		.4byte	.Ldebug_line0
 3463 0025 02       		.uleb128 0x2
 3464 0026 04       		.byte	0x4
 3465 0027 05       		.byte	0x5
 3466 0028 696E7400 		.ascii	"int\000"
 3467 002c 03       		.uleb128 0x3
 3468 002d 11000000 		.4byte	.LASF1
 3469 0031 02       		.byte	0x2
 3470 0032 D4       		.byte	0xd4
 3471 0033 37000000 		.4byte	0x37
 3472 0037 04       		.uleb128 0x4
 3473 0038 04       		.byte	0x4
 3474 0039 07       		.byte	0x7
 3475 003a 42070000 		.4byte	.LASF0
 3476 003e 03       		.uleb128 0x3
 3477 003f 47090000 		.4byte	.LASF2
 3478 0043 03       		.byte	0x3
 3479 0044 1B       		.byte	0x1b
 3480 0045 49000000 		.4byte	0x49
 3481 0049 04       		.uleb128 0x4
 3482 004a 01       		.byte	0x1
 3483 004b 06       		.byte	0x6
 3484 004c 9E020000 		.4byte	.LASF3
 3485 0050 03       		.uleb128 0x3
 3486 0051 7A010000 		.4byte	.LASF4
 3487 0055 03       		.byte	0x3
 3488 0056 1C       		.byte	0x1c
 3489 0057 5B000000 		.4byte	0x5b
 3490 005b 04       		.uleb128 0x4
 3491 005c 01       		.byte	0x1
 3492 005d 08       		.byte	0x8
 3493 005e 0E030000 		.4byte	.LASF5
 3494 0062 03       		.uleb128 0x3
 3495 0063 AA0A0000 		.4byte	.LASF6
 3496 0067 03       		.byte	0x3
 3497 0068 25       		.byte	0x25
 3498 0069 6D000000 		.4byte	0x6d
 3499 006d 04       		.uleb128 0x4
 3500 006e 02       		.byte	0x2
 3501 006f 05       		.byte	0x5
 3502 0070 D00B0000 		.4byte	.LASF7
 3503 0074 03       		.uleb128 0x3
 3504 0075 E4030000 		.4byte	.LASF8
 3505 0079 03       		.byte	0x3
 3506 007a 26       		.byte	0x26
 3507 007b 7F000000 		.4byte	0x7f
 3508 007f 04       		.uleb128 0x4
 3509 0080 02       		.byte	0x2
 3510 0081 07       		.byte	0x7
 3511 0082 340D0000 		.4byte	.LASF9
 3512 0086 03       		.uleb128 0x3
ARM GAS  /tmp/ccT6pRdh.s 			page 63


 3513 0087 6E0D0000 		.4byte	.LASF10
 3514 008b 03       		.byte	0x3
 3515 008c 37       		.byte	0x37
 3516 008d 91000000 		.4byte	0x91
 3517 0091 04       		.uleb128 0x4
 3518 0092 04       		.byte	0x4
 3519 0093 05       		.byte	0x5
 3520 0094 D8010000 		.4byte	.LASF11
 3521 0098 03       		.uleb128 0x3
 3522 0099 84060000 		.4byte	.LASF12
 3523 009d 03       		.byte	0x3
 3524 009e 38       		.byte	0x38
 3525 009f A3000000 		.4byte	0xa3
 3526 00a3 04       		.uleb128 0x4
 3527 00a4 04       		.byte	0x4
 3528 00a5 07       		.byte	0x7
 3529 00a6 A0050000 		.4byte	.LASF13
 3530 00aa 04       		.uleb128 0x4
 3531 00ab 08       		.byte	0x8
 3532 00ac 05       		.byte	0x5
 3533 00ad AF060000 		.4byte	.LASF14
 3534 00b1 04       		.uleb128 0x4
 3535 00b2 08       		.byte	0x8
 3536 00b3 07       		.byte	0x7
 3537 00b4 77090000 		.4byte	.LASF15
 3538 00b8 03       		.uleb128 0x3
 3539 00b9 00000000 		.4byte	.LASF16
 3540 00bd 04       		.byte	0x4
 3541 00be 29       		.byte	0x29
 3542 00bf 3E000000 		.4byte	0x3e
 3543 00c3 03       		.uleb128 0x3
 3544 00c4 B4020000 		.4byte	.LASF17
 3545 00c8 04       		.byte	0x4
 3546 00c9 2A       		.byte	0x2a
 3547 00ca 50000000 		.4byte	0x50
 3548 00ce 03       		.uleb128 0x3
 3549 00cf 0F0C0000 		.4byte	.LASF18
 3550 00d3 04       		.byte	0x4
 3551 00d4 35       		.byte	0x35
 3552 00d5 62000000 		.4byte	0x62
 3553 00d9 03       		.uleb128 0x3
 3554 00da C4090000 		.4byte	.LASF19
 3555 00de 04       		.byte	0x4
 3556 00df 36       		.byte	0x36
 3557 00e0 74000000 		.4byte	0x74
 3558 00e4 03       		.uleb128 0x3
 3559 00e5 80000000 		.4byte	.LASF20
 3560 00e9 04       		.byte	0x4
 3561 00ea 41       		.byte	0x41
 3562 00eb 86000000 		.4byte	0x86
 3563 00ef 03       		.uleb128 0x3
 3564 00f0 D20C0000 		.4byte	.LASF21
 3565 00f4 04       		.byte	0x4
 3566 00f5 42       		.byte	0x42
 3567 00f6 98000000 		.4byte	0x98
 3568 00fa 04       		.uleb128 0x4
 3569 00fb 01       		.byte	0x1
ARM GAS  /tmp/ccT6pRdh.s 			page 64


 3570 00fc 02       		.byte	0x2
 3571 00fd 50030000 		.4byte	.LASF22
 3572 0101 03       		.uleb128 0x3
 3573 0102 1E0B0000 		.4byte	.LASF23
 3574 0106 05       		.byte	0x5
 3575 0107 2C       		.byte	0x2c
 3576 0108 C3000000 		.4byte	0xc3
 3577 010c 03       		.uleb128 0x3
 3578 010d 0F020000 		.4byte	.LASF24
 3579 0111 05       		.byte	0x5
 3580 0112 2D       		.byte	0x2d
 3581 0113 C3000000 		.4byte	0xc3
 3582 0117 03       		.uleb128 0x3
 3583 0118 B20C0000 		.4byte	.LASF25
 3584 011c 05       		.byte	0x5
 3585 011d 2E       		.byte	0x2e
 3586 011e C3000000 		.4byte	0xc3
 3587 0122 03       		.uleb128 0x3
 3588 0123 080A0000 		.4byte	.LASF26
 3589 0127 05       		.byte	0x5
 3590 0128 2F       		.byte	0x2f
 3591 0129 C3000000 		.4byte	0xc3
 3592 012d 03       		.uleb128 0x3
 3593 012e 46000000 		.4byte	.LASF27
 3594 0132 05       		.byte	0x5
 3595 0133 30       		.byte	0x30
 3596 0134 EF000000 		.4byte	0xef
 3597 0138 03       		.uleb128 0x3
 3598 0139 DD090000 		.4byte	.LASF28
 3599 013d 05       		.byte	0x5
 3600 013e 31       		.byte	0x31
 3601 013f E4000000 		.4byte	0xe4
 3602 0143 03       		.uleb128 0x3
 3603 0144 E3020000 		.4byte	.LASF29
 3604 0148 05       		.byte	0x5
 3605 0149 33       		.byte	0x33
 3606 014a EF000000 		.4byte	0xef
 3607 014e 03       		.uleb128 0x3
 3608 014f 2A000000 		.4byte	.LASF30
 3609 0153 05       		.byte	0x5
 3610 0154 35       		.byte	0x35
 3611 0155 EF000000 		.4byte	0xef
 3612 0159 03       		.uleb128 0x3
 3613 015a A1040000 		.4byte	.LASF31
 3614 015e 05       		.byte	0x5
 3615 015f 36       		.byte	0x36
 3616 0160 E4000000 		.4byte	0xe4
 3617 0164 03       		.uleb128 0x3
 3618 0165 590C0000 		.4byte	.LASF32
 3619 0169 06       		.byte	0x6
 3620 016a 2A       		.byte	0x2a
 3621 016b 6F010000 		.4byte	0x16f
 3622 016f 05       		.uleb128 0x5
 3623 0170 590C0000 		.4byte	.LASF32
 3624 0174 48       		.byte	0x48
 3625 0175 07       		.byte	0x7
 3626 0176 5E       		.byte	0x5e
ARM GAS  /tmp/ccT6pRdh.s 			page 65


 3627 0177 6C020000 		.4byte	0x26c
 3628 017b 06       		.uleb128 0x6
 3629 017c E1010000 		.4byte	.LASF33
 3630 0180 07       		.byte	0x7
 3631 0181 5F       		.byte	0x5f
 3632 0182 8D020000 		.4byte	0x28d
 3633 0186 00       		.byte	0
 3634 0187 06       		.uleb128 0x6
 3635 0188 F0010000 		.4byte	.LASF34
 3636 018c 07       		.byte	0x7
 3637 018d 61       		.byte	0x61
 3638 018e 8D020000 		.4byte	0x28d
 3639 0192 04       		.byte	0x4
 3640 0193 06       		.uleb128 0x6
 3641 0194 D4030000 		.4byte	.LASF35
 3642 0198 07       		.byte	0x7
 3643 0199 63       		.byte	0x63
 3644 019a 2D010000 		.4byte	0x12d
 3645 019e 08       		.byte	0x8
 3646 019f 06       		.uleb128 0x6
 3647 01a0 40000000 		.4byte	.LASF36
 3648 01a4 07       		.byte	0x7
 3649 01a5 64       		.byte	0x64
 3650 01a6 47030000 		.4byte	0x347
 3651 01aa 0C       		.byte	0xc
 3652 01ab 06       		.uleb128 0x6
 3653 01ac BE010000 		.4byte	.LASF37
 3654 01b0 07       		.byte	0x7
 3655 01b1 66       		.byte	0x66
 3656 01b2 8D020000 		.4byte	0x28d
 3657 01b6 10       		.byte	0x10
 3658 01b7 06       		.uleb128 0x6
 3659 01b8 AF090000 		.4byte	.LASF38
 3660 01bc 07       		.byte	0x7
 3661 01bd 67       		.byte	0x67
 3662 01be 8D020000 		.4byte	0x28d
 3663 01c2 14       		.byte	0x14
 3664 01c3 06       		.uleb128 0x6
 3665 01c4 D30D0000 		.4byte	.LASF39
 3666 01c8 07       		.byte	0x7
 3667 01c9 6E       		.byte	0x6e
 3668 01ca 7D040000 		.4byte	0x47d
 3669 01ce 18       		.byte	0x18
 3670 01cf 06       		.uleb128 0x6
 3671 01d0 4B0E0000 		.4byte	.LASF40
 3672 01d4 07       		.byte	0x7
 3673 01d5 79       		.byte	0x79
 3674 01d6 0C010000 		.4byte	0x10c
 3675 01da 1C       		.byte	0x1c
 3676 01db 06       		.uleb128 0x6
 3677 01dc 31070000 		.4byte	.LASF41
 3678 01e0 07       		.byte	0x7
 3679 01e1 7D       		.byte	0x7d
 3680 01e2 01010000 		.4byte	0x101
 3681 01e6 1D       		.byte	0x1d
 3682 01e7 06       		.uleb128 0x6
 3683 01e8 92070000 		.4byte	.LASF42
ARM GAS  /tmp/ccT6pRdh.s 			page 66


 3684 01ec 07       		.byte	0x7
 3685 01ed 82       		.byte	0x82
 3686 01ee 17010000 		.4byte	0x117
 3687 01f2 1E       		.byte	0x1e
 3688 01f3 06       		.uleb128 0x6
 3689 01f4 AA020000 		.4byte	.LASF43
 3690 01f8 07       		.byte	0x7
 3691 01f9 88       		.byte	0x88
 3692 01fa 22010000 		.4byte	0x122
 3693 01fe 1F       		.byte	0x1f
 3694 01ff 06       		.uleb128 0x6
 3695 0200 93080000 		.4byte	.LASF44
 3696 0204 07       		.byte	0x7
 3697 0205 8F       		.byte	0x8f
 3698 0206 6F030000 		.4byte	0x36f
 3699 020a 20       		.byte	0x20
 3700 020b 07       		.uleb128 0x7
 3701 020c 705F7500 		.ascii	"p_u\000"
 3702 0210 07       		.byte	0x7
 3703 0211 B4       		.byte	0xb4
 3704 0212 48040000 		.4byte	0x448
 3705 0216 24       		.byte	0x24
 3706 0217 06       		.uleb128 0x6
 3707 0218 22070000 		.4byte	.LASF45
 3708 021c 07       		.byte	0x7
 3709 021d B9       		.byte	0xb9
 3710 021e B3020000 		.4byte	0x2b3
 3711 0222 28       		.byte	0x28
 3712 0223 06       		.uleb128 0x6
 3713 0224 6F000000 		.4byte	.LASF46
 3714 0228 07       		.byte	0x7
 3715 0229 BF       		.byte	0xbf
 3716 022a 93020000 		.4byte	0x293
 3717 022e 2C       		.byte	0x2c
 3718 022f 06       		.uleb128 0x6
 3719 0230 450E0000 		.4byte	.LASF47
 3720 0234 07       		.byte	0x7
 3721 0235 C3       		.byte	0xc3
 3722 0236 38010000 		.4byte	0x138
 3723 023a 34       		.byte	0x34
 3724 023b 06       		.uleb128 0x6
 3725 023c 1B050000 		.4byte	.LASF48
 3726 0240 07       		.byte	0x7
 3727 0241 C9       		.byte	0xc9
 3728 0242 43010000 		.4byte	0x143
 3729 0246 38       		.byte	0x38
 3730 0247 06       		.uleb128 0x6
 3731 0248 21020000 		.4byte	.LASF49
 3732 024c 07       		.byte	0x7
 3733 024d D0       		.byte	0xd0
 3734 024e 8F040000 		.4byte	0x48f
 3735 0252 3C       		.byte	0x3c
 3736 0253 06       		.uleb128 0x6
 3737 0254 FC080000 		.4byte	.LASF50
 3738 0258 07       		.byte	0x7
 3739 0259 D4       		.byte	0xd4
 3740 025a 2D010000 		.4byte	0x12d
ARM GAS  /tmp/ccT6pRdh.s 			page 67


 3741 025e 40       		.byte	0x40
 3742 025f 06       		.uleb128 0x6
 3743 0260 6E070000 		.4byte	.LASF51
 3744 0264 07       		.byte	0x7
 3745 0265 DA       		.byte	0xda
 3746 0266 C9020000 		.4byte	0x2c9
 3747 026a 44       		.byte	0x44
 3748 026b 00       		.byte	0
 3749 026c 08       		.uleb128 0x8
 3750 026d 08       		.byte	0x8
 3751 026e 06       		.byte	0x6
 3752 026f 61       		.byte	0x61
 3753 0270 8D020000 		.4byte	0x28d
 3754 0274 06       		.uleb128 0x6
 3755 0275 E1010000 		.4byte	.LASF33
 3756 0279 06       		.byte	0x6
 3757 027a 62       		.byte	0x62
 3758 027b 8D020000 		.4byte	0x28d
 3759 027f 00       		.byte	0
 3760 0280 06       		.uleb128 0x6
 3761 0281 F0010000 		.4byte	.LASF34
 3762 0285 06       		.byte	0x6
 3763 0286 64       		.byte	0x64
 3764 0287 8D020000 		.4byte	0x28d
 3765 028b 04       		.byte	0x4
 3766 028c 00       		.byte	0
 3767 028d 09       		.uleb128 0x9
 3768 028e 04       		.byte	0x4
 3769 028f 64010000 		.4byte	0x164
 3770 0293 03       		.uleb128 0x3
 3771 0294 030D0000 		.4byte	.LASF52
 3772 0298 06       		.byte	0x6
 3773 0299 66       		.byte	0x66
 3774 029a 6C020000 		.4byte	0x26c
 3775 029e 08       		.uleb128 0x8
 3776 029f 04       		.byte	0x4
 3777 02a0 06       		.byte	0x6
 3778 02a1 6B       		.byte	0x6b
 3779 02a2 B3020000 		.4byte	0x2b3
 3780 02a6 06       		.uleb128 0x6
 3781 02a7 E1010000 		.4byte	.LASF33
 3782 02ab 06       		.byte	0x6
 3783 02ac 6D       		.byte	0x6d
 3784 02ad 8D020000 		.4byte	0x28d
 3785 02b1 00       		.byte	0
 3786 02b2 00       		.byte	0
 3787 02b3 03       		.uleb128 0x3
 3788 02b4 51080000 		.4byte	.LASF53
 3789 02b8 06       		.byte	0x6
 3790 02b9 70       		.byte	0x70
 3791 02ba 9E020000 		.4byte	0x29e
 3792 02be 03       		.uleb128 0x3
 3793 02bf 2B020000 		.4byte	.LASF54
 3794 02c3 08       		.byte	0x8
 3795 02c4 E5       		.byte	0xe5
 3796 02c5 C9020000 		.4byte	0x2c9
 3797 02c9 0A       		.uleb128 0xa
ARM GAS  /tmp/ccT6pRdh.s 			page 68


 3798 02ca 04       		.byte	0x4
 3799 02cb 0B       		.uleb128 0xb
 3800 02cc 14050000 		.4byte	.LASF55
 3801 02d0 24       		.byte	0x24
 3802 02d1 08       		.byte	0x8
 3803 02d2 0C01     		.2byte	0x10c
 3804 02d4 47030000 		.4byte	0x347
 3805 02d8 0C       		.uleb128 0xc
 3806 02d9 723400   		.ascii	"r4\000"
 3807 02dc 08       		.byte	0x8
 3808 02dd 1F01     		.2byte	0x11f
 3809 02df BE020000 		.4byte	0x2be
 3810 02e3 00       		.byte	0
 3811 02e4 0C       		.uleb128 0xc
 3812 02e5 723500   		.ascii	"r5\000"
 3813 02e8 08       		.byte	0x8
 3814 02e9 2001     		.2byte	0x120
 3815 02eb BE020000 		.4byte	0x2be
 3816 02ef 04       		.byte	0x4
 3817 02f0 0C       		.uleb128 0xc
 3818 02f1 723600   		.ascii	"r6\000"
 3819 02f4 08       		.byte	0x8
 3820 02f5 2101     		.2byte	0x121
 3821 02f7 BE020000 		.4byte	0x2be
 3822 02fb 08       		.byte	0x8
 3823 02fc 0C       		.uleb128 0xc
 3824 02fd 723700   		.ascii	"r7\000"
 3825 0300 08       		.byte	0x8
 3826 0301 2201     		.2byte	0x122
 3827 0303 BE020000 		.4byte	0x2be
 3828 0307 0C       		.byte	0xc
 3829 0308 0C       		.uleb128 0xc
 3830 0309 723800   		.ascii	"r8\000"
 3831 030c 08       		.byte	0x8
 3832 030d 2301     		.2byte	0x123
 3833 030f BE020000 		.4byte	0x2be
 3834 0313 10       		.byte	0x10
 3835 0314 0C       		.uleb128 0xc
 3836 0315 723900   		.ascii	"r9\000"
 3837 0318 08       		.byte	0x8
 3838 0319 2401     		.2byte	0x124
 3839 031b BE020000 		.4byte	0x2be
 3840 031f 14       		.byte	0x14
 3841 0320 0C       		.uleb128 0xc
 3842 0321 72313000 		.ascii	"r10\000"
 3843 0325 08       		.byte	0x8
 3844 0326 2501     		.2byte	0x125
 3845 0328 BE020000 		.4byte	0x2be
 3846 032c 18       		.byte	0x18
 3847 032d 0C       		.uleb128 0xc
 3848 032e 72313100 		.ascii	"r11\000"
 3849 0332 08       		.byte	0x8
 3850 0333 2601     		.2byte	0x126
 3851 0335 BE020000 		.4byte	0x2be
 3852 0339 1C       		.byte	0x1c
 3853 033a 0C       		.uleb128 0xc
 3854 033b 6C7200   		.ascii	"lr\000"
ARM GAS  /tmp/ccT6pRdh.s 			page 69


 3855 033e 08       		.byte	0x8
 3856 033f 2701     		.2byte	0x127
 3857 0341 BE020000 		.4byte	0x2be
 3858 0345 20       		.byte	0x20
 3859 0346 00       		.byte	0
 3860 0347 0B       		.uleb128 0xb
 3861 0348 EF020000 		.4byte	.LASF56
 3862 034c 04       		.byte	0x4
 3863 034d 08       		.byte	0x8
 3864 034e 3101     		.2byte	0x131
 3865 0350 62030000 		.4byte	0x362
 3866 0354 0C       		.uleb128 0xc
 3867 0355 72313300 		.ascii	"r13\000"
 3868 0359 08       		.byte	0x8
 3869 035a 3201     		.2byte	0x132
 3870 035c 62030000 		.4byte	0x362
 3871 0360 00       		.byte	0
 3872 0361 00       		.byte	0
 3873 0362 09       		.uleb128 0x9
 3874 0363 04       		.byte	0x4
 3875 0364 CB020000 		.4byte	0x2cb
 3876 0368 04       		.uleb128 0x4
 3877 0369 04       		.byte	0x4
 3878 036a 07       		.byte	0x7
 3879 036b 18000000 		.4byte	.LASF57
 3880 036f 0D       		.uleb128 0xd
 3881 0370 4E010000 		.4byte	0x14e
 3882 0374 05       		.uleb128 0x5
 3883 0375 F2080000 		.4byte	.LASF58
 3884 0379 0C       		.byte	0xc
 3885 037a 09       		.byte	0x9
 3886 037b 2C       		.byte	0x2c
 3887 037c 99030000 		.4byte	0x399
 3888 0380 06       		.uleb128 0x6
 3889 0381 9D0B0000 		.4byte	.LASF59
 3890 0385 09       		.byte	0x9
 3891 0386 2D       		.byte	0x2d
 3892 0387 93020000 		.4byte	0x293
 3893 038b 00       		.byte	0
 3894 038c 06       		.uleb128 0x6
 3895 038d 41090000 		.4byte	.LASF60
 3896 0391 09       		.byte	0x9
 3897 0392 2F       		.byte	0x2f
 3898 0393 59010000 		.4byte	0x159
 3899 0397 08       		.byte	0x8
 3900 0398 00       		.byte	0
 3901 0399 03       		.uleb128 0x3
 3902 039a F2080000 		.4byte	.LASF58
 3903 039e 09       		.byte	0x9
 3904 039f 30       		.byte	0x30
 3905 03a0 74030000 		.4byte	0x374
 3906 03a4 05       		.uleb128 0x5
 3907 03a5 8F060000 		.4byte	.LASF61
 3908 03a9 10       		.byte	0x10
 3909 03aa 0A       		.byte	0xa
 3910 03ab 2C       		.byte	0x2c
 3911 03ac D5030000 		.4byte	0x3d5
ARM GAS  /tmp/ccT6pRdh.s 			page 70


 3912 03b0 06       		.uleb128 0x6
 3913 03b1 D2060000 		.4byte	.LASF62
 3914 03b5 0A       		.byte	0xa
 3915 03b6 2D       		.byte	0x2d
 3916 03b7 93020000 		.4byte	0x293
 3917 03bb 00       		.byte	0
 3918 03bc 06       		.uleb128 0x6
 3919 03bd 61010000 		.4byte	.LASF63
 3920 03c1 0A       		.byte	0xa
 3921 03c2 2F       		.byte	0x2f
 3922 03c3 8D020000 		.4byte	0x28d
 3923 03c7 08       		.byte	0x8
 3924 03c8 06       		.uleb128 0x6
 3925 03c9 DF0D0000 		.4byte	.LASF64
 3926 03cd 0A       		.byte	0xa
 3927 03ce 31       		.byte	0x31
 3928 03cf D5030000 		.4byte	0x3d5
 3929 03d3 0C       		.byte	0xc
 3930 03d4 00       		.byte	0
 3931 03d5 09       		.uleb128 0x9
 3932 03d6 04       		.byte	0x4
 3933 03d7 A4030000 		.4byte	0x3a4
 3934 03db 03       		.uleb128 0x3
 3935 03dc 8F060000 		.4byte	.LASF61
 3936 03e0 0A       		.byte	0xa
 3937 03e1 33       		.byte	0x33
 3938 03e2 A4030000 		.4byte	0x3a4
 3939 03e6 08       		.uleb128 0x8
 3940 03e7 28       		.byte	0x28
 3941 03e8 0B       		.byte	0xb
 3942 03e9 33       		.byte	0x33
 3943 03ea 37040000 		.4byte	0x437
 3944 03ee 06       		.uleb128 0x6
 3945 03ef C1000000 		.4byte	.LASF65
 3946 03f3 0B       		.byte	0xb
 3947 03f4 34       		.byte	0x34
 3948 03f5 37040000 		.4byte	0x437
 3949 03f9 00       		.byte	0
 3950 03fa 06       		.uleb128 0x6
 3951 03fb 20090000 		.4byte	.LASF66
 3952 03ff 0B       		.byte	0xb
 3953 0400 36       		.byte	0x36
 3954 0401 37040000 		.4byte	0x437
 3955 0405 04       		.byte	0x4
 3956 0406 06       		.uleb128 0x6
 3957 0407 EB060000 		.4byte	.LASF67
 3958 040b 0B       		.byte	0xb
 3959 040c 38       		.byte	0x38
 3960 040d 37040000 		.4byte	0x437
 3961 0411 08       		.byte	0x8
 3962 0412 06       		.uleb128 0x6
 3963 0413 DA020000 		.4byte	.LASF68
 3964 0417 0B       		.byte	0xb
 3965 0418 39       		.byte	0x39
 3966 0419 37040000 		.4byte	0x437
 3967 041d 0C       		.byte	0xc
 3968 041e 06       		.uleb128 0x6
ARM GAS  /tmp/ccT6pRdh.s 			page 71


 3969 041f 44060000 		.4byte	.LASF69
 3970 0423 0B       		.byte	0xb
 3971 0424 3A       		.byte	0x3a
 3972 0425 99030000 		.4byte	0x399
 3973 0429 10       		.byte	0x10
 3974 042a 06       		.uleb128 0x6
 3975 042b EF030000 		.4byte	.LASF70
 3976 042f 0B       		.byte	0xb
 3977 0430 3C       		.byte	0x3c
 3978 0431 99030000 		.4byte	0x399
 3979 0435 1C       		.byte	0x1c
 3980 0436 00       		.byte	0
 3981 0437 09       		.uleb128 0x9
 3982 0438 04       		.byte	0x4
 3983 0439 38010000 		.4byte	0x138
 3984 043d 03       		.uleb128 0x3
 3985 043e 71050000 		.4byte	.LASF71
 3986 0442 0B       		.byte	0xb
 3987 0443 3E       		.byte	0x3e
 3988 0444 E6030000 		.4byte	0x3e6
 3989 0448 0E       		.uleb128 0xe
 3990 0449 04       		.byte	0x4
 3991 044a 07       		.byte	0x7
 3992 044b 96       		.byte	0x96
 3993 044c 7D040000 		.4byte	0x47d
 3994 0450 0F       		.uleb128 0xf
 3995 0451 2D0D0000 		.4byte	.LASF72
 3996 0455 07       		.byte	0x7
 3997 0456 9D       		.byte	0x9d
 3998 0457 38010000 		.4byte	0x138
 3999 045b 0F       		.uleb128 0xf
 4000 045c 71010000 		.4byte	.LASF73
 4001 0460 07       		.byte	0x7
 4002 0461 A4       		.byte	0xa4
 4003 0462 38010000 		.4byte	0x138
 4004 0466 0F       		.uleb128 0xf
 4005 0467 FB030000 		.4byte	.LASF74
 4006 046b 07       		.byte	0x7
 4007 046c AB       		.byte	0xab
 4008 046d C9020000 		.4byte	0x2c9
 4009 0471 0F       		.uleb128 0xf
 4010 0472 8C010000 		.4byte	.LASF75
 4011 0476 07       		.byte	0x7
 4012 0477 B2       		.byte	0xb2
 4013 0478 43010000 		.4byte	0x143
 4014 047c 00       		.byte	0
 4015 047d 09       		.uleb128 0x9
 4016 047e 04       		.byte	0x4
 4017 047f 83040000 		.4byte	0x483
 4018 0483 10       		.uleb128 0x10
 4019 0484 88040000 		.4byte	0x488
 4020 0488 04       		.uleb128 0x4
 4021 0489 01       		.byte	0x1
 4022 048a 08       		.byte	0x8
 4023 048b C0030000 		.4byte	.LASF76
 4024 048f 09       		.uleb128 0x9
 4025 0490 04       		.byte	0x4
ARM GAS  /tmp/ccT6pRdh.s 			page 72


 4026 0491 DB030000 		.4byte	0x3db
 4027 0495 03       		.uleb128 0x3
 4028 0496 4C0D0000 		.4byte	.LASF77
 4029 049a 0C       		.byte	0xc
 4030 049b 38       		.byte	0x38
 4031 049c C3000000 		.4byte	0xc3
 4032 04a0 03       		.uleb128 0x3
 4033 04a1 470D0000 		.4byte	.LASF78
 4034 04a5 0C       		.byte	0xc
 4035 04a6 39       		.byte	0x39
 4036 04a7 B8000000 		.4byte	0xb8
 4037 04ab 03       		.uleb128 0x3
 4038 04ac 5E070000 		.4byte	.LASF79
 4039 04b0 0C       		.byte	0xc
 4040 04b1 3A       		.byte	0x3a
 4041 04b2 D9000000 		.4byte	0xd9
 4042 04b6 03       		.uleb128 0x3
 4043 04b7 AC0C0000 		.4byte	.LASF80
 4044 04bb 0C       		.byte	0xc
 4045 04bc 3B       		.byte	0x3b
 4046 04bd CE000000 		.4byte	0xce
 4047 04c1 03       		.uleb128 0x3
 4048 04c2 180B0000 		.4byte	.LASF81
 4049 04c6 0C       		.byte	0xc
 4050 04c7 3C       		.byte	0x3c
 4051 04c8 EF000000 		.4byte	0xef
 4052 04cc 05       		.uleb128 0x5
 4053 04cd 47040000 		.4byte	.LASF82
 4054 04d1 04       		.byte	0x4
 4055 04d2 0D       		.byte	0xd
 4056 04d3 2C       		.byte	0x2c
 4057 04d4 E5040000 		.4byte	0x4e5
 4058 04d8 06       		.uleb128 0x6
 4059 04d9 2C070000 		.4byte	.LASF83
 4060 04dd 0D       		.byte	0xd
 4061 04de 2D       		.byte	0x2d
 4062 04df C1040000 		.4byte	0x4c1
 4063 04e3 00       		.byte	0
 4064 04e4 00       		.byte	0
 4065 04e5 03       		.uleb128 0x3
 4066 04e6 E8080000 		.4byte	.LASF84
 4067 04ea 0D       		.byte	0xd
 4068 04eb 40       		.byte	0x40
 4069 04ec CC040000 		.4byte	0x4cc
 4070 04f0 03       		.uleb128 0x3
 4071 04f1 07090000 		.4byte	.LASF85
 4072 04f5 0E       		.byte	0xe
 4073 04f6 2F       		.byte	0x2f
 4074 04f7 A0040000 		.4byte	0x4a0
 4075 04fb 03       		.uleb128 0x3
 4076 04fc 05020000 		.4byte	.LASF86
 4077 0500 0F       		.byte	0xf
 4078 0501 38       		.byte	0x38
 4079 0502 06050000 		.4byte	0x506
 4080 0506 09       		.uleb128 0x9
 4081 0507 04       		.byte	0x4
 4082 0508 99030000 		.4byte	0x399
ARM GAS  /tmp/ccT6pRdh.s 			page 73


 4083 050c 03       		.uleb128 0x3
 4084 050d 79060000 		.4byte	.LASF87
 4085 0511 0F       		.byte	0xf
 4086 0512 39       		.byte	0x39
 4087 0513 17050000 		.4byte	0x517
 4088 0517 09       		.uleb128 0x9
 4089 0518 04       		.byte	0x4
 4090 0519 3D040000 		.4byte	0x43d
 4091 051d 11       		.uleb128 0x11
 4092 051e 01       		.byte	0x1
 4093 051f 10       		.byte	0x10
 4094 0520 32       		.byte	0x32
 4095 0521 3E050000 		.4byte	0x53e
 4096 0525 12       		.uleb128 0x12
 4097 0526 F40C0000 		.4byte	.LASF88
 4098 052a 00       		.sleb128 0
 4099 052b 12       		.uleb128 0x12
 4100 052c 8A070000 		.4byte	.LASF89
 4101 0530 01       		.sleb128 1
 4102 0531 12       		.uleb128 0x12
 4103 0532 3B0E0000 		.4byte	.LASF90
 4104 0536 02       		.sleb128 2
 4105 0537 12       		.uleb128 0x12
 4106 0538 CA0D0000 		.4byte	.LASF91
 4107 053c 03       		.sleb128 3
 4108 053d 00       		.byte	0
 4109 053e 03       		.uleb128 0x3
 4110 053f 980A0000 		.4byte	.LASF92
 4111 0543 10       		.byte	0x10
 4112 0544 37       		.byte	0x37
 4113 0545 1D050000 		.4byte	0x51d
 4114 0549 11       		.uleb128 0x11
 4115 054a 01       		.byte	0x1
 4116 054b 10       		.byte	0x10
 4117 054c 39       		.byte	0x39
 4118 054d 6A050000 		.4byte	0x56a
 4119 0551 12       		.uleb128 0x12
 4120 0552 B30D0000 		.4byte	.LASF93
 4121 0556 00       		.sleb128 0
 4122 0557 12       		.uleb128 0x12
 4123 0558 B2050000 		.4byte	.LASF94
 4124 055c 01       		.sleb128 1
 4125 055d 12       		.uleb128 0x12
 4126 055e 14010000 		.4byte	.LASF95
 4127 0562 02       		.sleb128 2
 4128 0563 12       		.uleb128 0x12
 4129 0564 82030000 		.4byte	.LASF96
 4130 0568 03       		.sleb128 3
 4131 0569 00       		.byte	0
 4132 056a 03       		.uleb128 0x3
 4133 056b 68080000 		.4byte	.LASF97
 4134 056f 10       		.byte	0x10
 4135 0570 3E       		.byte	0x3e
 4136 0571 49050000 		.4byte	0x549
 4137 0575 05       		.uleb128 0x5
 4138 0576 C5030000 		.4byte	.LASF98
 4139 057a 10       		.byte	0x10
ARM GAS  /tmp/ccT6pRdh.s 			page 74


 4140 057b 10       		.byte	0x10
 4141 057c 4F       		.byte	0x4f
 4142 057d D6050000 		.4byte	0x5d6
 4143 0581 06       		.uleb128 0x6
 4144 0582 DA0D0000 		.4byte	.LASF99
 4145 0586 10       		.byte	0x10
 4146 0587 51       		.byte	0x51
 4147 0588 D6050000 		.4byte	0x5d6
 4148 058c 00       		.byte	0
 4149 058d 06       		.uleb128 0x6
 4150 058e 19060000 		.4byte	.LASF100
 4151 0592 10       		.byte	0x10
 4152 0593 54       		.byte	0x54
 4153 0594 C9020000 		.4byte	0x2c9
 4154 0598 04       		.byte	0x4
 4155 0599 06       		.uleb128 0x6
 4156 059a D2080000 		.4byte	.LASF101
 4157 059e 10       		.byte	0x10
 4158 059f 5D       		.byte	0x5d
 4159 05a0 AB040000 		.4byte	0x4ab
 4160 05a4 08       		.byte	0x8
 4161 05a5 07       		.uleb128 0x7
 4162 05a6 6C656E00 		.ascii	"len\000"
 4163 05aa 10       		.byte	0x10
 4164 05ab 60       		.byte	0x60
 4165 05ac AB040000 		.4byte	0x4ab
 4166 05b0 0A       		.byte	0xa
 4167 05b1 06       		.uleb128 0x6
 4168 05b2 FF000000 		.4byte	.LASF102
 4169 05b6 10       		.byte	0x10
 4170 05b7 63       		.byte	0x63
 4171 05b8 95040000 		.4byte	0x495
 4172 05bc 0C       		.byte	0xc
 4173 05bd 06       		.uleb128 0x6
 4174 05be 22040000 		.4byte	.LASF103
 4175 05c2 10       		.byte	0x10
 4176 05c3 66       		.byte	0x66
 4177 05c4 95040000 		.4byte	0x495
 4178 05c8 0D       		.byte	0xd
 4179 05c9 07       		.uleb128 0x7
 4180 05ca 72656600 		.ascii	"ref\000"
 4181 05ce 10       		.byte	0x10
 4182 05cf 6D       		.byte	0x6d
 4183 05d0 AB040000 		.4byte	0x4ab
 4184 05d4 0E       		.byte	0xe
 4185 05d5 00       		.byte	0
 4186 05d6 09       		.uleb128 0x9
 4187 05d7 04       		.byte	0x4
 4188 05d8 75050000 		.4byte	0x575
 4189 05dc 09       		.uleb128 0x9
 4190 05dd 04       		.byte	0x4
 4191 05de E5040000 		.4byte	0x4e5
 4192 05e2 05       		.uleb128 0x5
 4193 05e3 30040000 		.4byte	.LASF104
 4194 05e7 10       		.byte	0x10
 4195 05e8 11       		.byte	0x11
 4196 05e9 30       		.byte	0x30
ARM GAS  /tmp/ccT6pRdh.s 			page 75


 4197 05ea 1D060000 		.4byte	0x61d
 4198 05ee 07       		.uleb128 0x7
 4199 05ef 7000     		.ascii	"p\000"
 4200 05f1 11       		.byte	0x11
 4201 05f2 31       		.byte	0x31
 4202 05f3 D6050000 		.4byte	0x5d6
 4203 05f7 00       		.byte	0
 4204 05f8 07       		.uleb128 0x7
 4205 05f9 70747200 		.ascii	"ptr\000"
 4206 05fd 11       		.byte	0x11
 4207 05fe 31       		.byte	0x31
 4208 05ff D6050000 		.4byte	0x5d6
 4209 0603 04       		.byte	0x4
 4210 0604 06       		.uleb128 0x6
 4211 0605 2C070000 		.4byte	.LASF83
 4212 0609 11       		.byte	0x11
 4213 060a 32       		.byte	0x32
 4214 060b E5040000 		.4byte	0x4e5
 4215 060f 08       		.byte	0x8
 4216 0610 06       		.uleb128 0x6
 4217 0611 A50B0000 		.4byte	.LASF105
 4218 0615 11       		.byte	0x11
 4219 0616 33       		.byte	0x33
 4220 0617 AB040000 		.4byte	0x4ab
 4221 061b 0C       		.byte	0xc
 4222 061c 00       		.byte	0
 4223 061d 13       		.uleb128 0x13
 4224 061e 15040000 		.4byte	.LASF112
 4225 0622 01       		.byte	0x1
 4226 0623 12       		.byte	0x12
 4227 0624 53       		.byte	0x53
 4228 0625 4F060000 		.4byte	0x64f
 4229 0629 12       		.uleb128 0x12
 4230 062a 4C010000 		.4byte	.LASF106
 4231 062e 00       		.sleb128 0
 4232 062f 12       		.uleb128 0x12
 4233 0630 95030000 		.4byte	.LASF107
 4234 0634 10       		.sleb128 16
 4235 0635 12       		.uleb128 0x12
 4236 0636 95060000 		.4byte	.LASF108
 4237 063a 20       		.sleb128 32
 4238 063b 12       		.uleb128 0x12
 4239 063c F70B0000 		.4byte	.LASF109
 4240 0640 21       		.sleb128 33
 4241 0641 12       		.uleb128 0x12
 4242 0642 63040000 		.4byte	.LASF110
 4243 0646 22       		.sleb128 34
 4244 0647 12       		.uleb128 0x12
 4245 0648 4A0B0000 		.4byte	.LASF111
 4246 064c C000     		.sleb128 64
 4247 064e 00       		.byte	0
 4248 064f 13       		.uleb128 0x13
 4249 0650 14070000 		.4byte	.LASF113
 4250 0654 01       		.byte	0x1
 4251 0655 12       		.byte	0x12
 4252 0656 61       		.byte	0x61
 4253 0657 7A060000 		.4byte	0x67a
ARM GAS  /tmp/ccT6pRdh.s 			page 76


 4254 065b 12       		.uleb128 0x12
 4255 065c 6C0C0000 		.4byte	.LASF114
 4256 0660 00       		.sleb128 0
 4257 0661 12       		.uleb128 0x12
 4258 0662 F7010000 		.4byte	.LASF115
 4259 0666 01       		.sleb128 1
 4260 0667 12       		.uleb128 0x12
 4261 0668 DA0B0000 		.4byte	.LASF116
 4262 066c 02       		.sleb128 2
 4263 066d 12       		.uleb128 0x12
 4264 066e C2080000 		.4byte	.LASF117
 4265 0672 03       		.sleb128 3
 4266 0673 12       		.uleb128 0x12
 4267 0674 86050000 		.4byte	.LASF118
 4268 0678 04       		.sleb128 4
 4269 0679 00       		.byte	0
 4270 067a 13       		.uleb128 0x13
 4271 067b 34020000 		.4byte	.LASF119
 4272 067f 01       		.byte	0x1
 4273 0680 12       		.byte	0x12
 4274 0681 6A       		.byte	0x6a
 4275 0682 A5060000 		.4byte	0x6a5
 4276 0686 12       		.uleb128 0x12
 4277 0687 190D0000 		.4byte	.LASF120
 4278 068b 00       		.sleb128 0
 4279 068c 12       		.uleb128 0x12
 4280 068d 830A0000 		.4byte	.LASF121
 4281 0691 01       		.sleb128 1
 4282 0692 12       		.uleb128 0x12
 4283 0693 BB050000 		.4byte	.LASF122
 4284 0697 02       		.sleb128 2
 4285 0698 12       		.uleb128 0x12
 4286 0699 330A0000 		.4byte	.LASF123
 4287 069d 03       		.sleb128 3
 4288 069e 12       		.uleb128 0x12
 4289 069f C6010000 		.4byte	.LASF124
 4290 06a3 04       		.sleb128 4
 4291 06a4 00       		.byte	0
 4292 06a5 03       		.uleb128 0x3
 4293 06a6 DB0C0000 		.4byte	.LASF125
 4294 06aa 12       		.byte	0x12
 4295 06ab 83       		.byte	0x83
 4296 06ac B0060000 		.4byte	0x6b0
 4297 06b0 09       		.uleb128 0x9
 4298 06b1 04       		.byte	0x4
 4299 06b2 B6060000 		.4byte	0x6b6
 4300 06b6 14       		.uleb128 0x14
 4301 06b7 CB060000 		.4byte	0x6cb
 4302 06bb 15       		.uleb128 0x15
 4303 06bc CB060000 		.4byte	0x6cb
 4304 06c0 15       		.uleb128 0x15
 4305 06c1 7A060000 		.4byte	0x67a
 4306 06c5 15       		.uleb128 0x15
 4307 06c6 AB040000 		.4byte	0x4ab
 4308 06ca 00       		.byte	0
 4309 06cb 09       		.uleb128 0x9
 4310 06cc 04       		.byte	0x4
ARM GAS  /tmp/ccT6pRdh.s 			page 77


 4311 06cd D1060000 		.4byte	0x6d1
 4312 06d1 05       		.uleb128 0x5
 4313 06d2 93010000 		.4byte	.LASF126
 4314 06d6 2C       		.byte	0x2c
 4315 06d7 12       		.byte	0x12
 4316 06d8 86       		.byte	0x86
 4317 06d9 6E070000 		.4byte	0x76e
 4318 06dd 06       		.uleb128 0x6
 4319 06de FF000000 		.4byte	.LASF102
 4320 06e2 12       		.byte	0x12
 4321 06e3 88       		.byte	0x88
 4322 06e4 1D060000 		.4byte	0x61d
 4323 06e8 00       		.byte	0
 4324 06e9 06       		.uleb128 0x6
 4325 06ea D2000000 		.4byte	.LASF127
 4326 06ee 12       		.byte	0x12
 4327 06ef 8A       		.byte	0x8a
 4328 06f0 4F060000 		.4byte	0x64f
 4329 06f4 01       		.byte	0x1
 4330 06f5 07       		.uleb128 0x7
 4331 06f6 70636200 		.ascii	"pcb\000"
 4332 06fa 12       		.byte	0x12
 4333 06fb 91       		.byte	0x91
 4334 06fc 6E070000 		.4byte	0x76e
 4335 0700 04       		.byte	0x4
 4336 0701 06       		.uleb128 0x6
 4337 0702 0C0E0000 		.4byte	.LASF128
 4338 0706 12       		.byte	0x12
 4339 0707 93       		.byte	0x93
 4340 0708 F0040000 		.4byte	0x4f0
 4341 070c 08       		.byte	0x8
 4342 070d 06       		.uleb128 0x6
 4343 070e B1010000 		.4byte	.LASF129
 4344 0712 12       		.byte	0x12
 4345 0713 95       		.byte	0x95
 4346 0714 FB040000 		.4byte	0x4fb
 4347 0718 0C       		.byte	0xc
 4348 0719 06       		.uleb128 0x6
 4349 071a 100D0000 		.4byte	.LASF130
 4350 071e 12       		.byte	0x12
 4351 071f 98       		.byte	0x98
 4352 0720 0C050000 		.4byte	0x50c
 4353 0724 10       		.byte	0x10
 4354 0725 06       		.uleb128 0x6
 4355 0726 F1050000 		.4byte	.LASF131
 4356 072a 12       		.byte	0x12
 4357 072b 9C       		.byte	0x9c
 4358 072c 0C050000 		.4byte	0x50c
 4359 0730 14       		.byte	0x14
 4360 0731 06       		.uleb128 0x6
 4361 0732 9D0C0000 		.4byte	.LASF132
 4362 0736 12       		.byte	0x12
 4363 0737 A0       		.byte	0xa0
 4364 0738 25000000 		.4byte	0x25
 4365 073c 18       		.byte	0x18
 4366 073d 06       		.uleb128 0x6
 4367 073e 22040000 		.4byte	.LASF103
ARM GAS  /tmp/ccT6pRdh.s 			page 78


 4368 0742 12       		.byte	0x12
 4369 0743 B6       		.byte	0xb6
 4370 0744 95040000 		.4byte	0x495
 4371 0748 1C       		.byte	0x1c
 4372 0749 06       		.uleb128 0x6
 4373 074a 260B0000 		.4byte	.LASF133
 4374 074e 12       		.byte	0x12
 4375 074f BA       		.byte	0xba
 4376 0750 2C000000 		.4byte	0x2c
 4377 0754 20       		.byte	0x20
 4378 0755 06       		.uleb128 0x6
 4379 0756 94050000 		.4byte	.LASF134
 4380 075a 12       		.byte	0x12
 4381 075b BE       		.byte	0xbe
 4382 075c F00B0000 		.4byte	0xbf0
 4383 0760 24       		.byte	0x24
 4384 0761 06       		.uleb128 0x6
 4385 0762 05060000 		.4byte	.LASF135
 4386 0766 12       		.byte	0x12
 4387 0767 C1       		.byte	0xc1
 4388 0768 A5060000 		.4byte	0x6a5
 4389 076c 28       		.byte	0x28
 4390 076d 00       		.byte	0
 4391 076e 0E       		.uleb128 0xe
 4392 076f 04       		.byte	0x4
 4393 0770 12       		.byte	0x12
 4394 0771 8C       		.byte	0x8c
 4395 0772 A2070000 		.4byte	0x7a2
 4396 0776 16       		.uleb128 0x16
 4397 0777 697000   		.ascii	"ip\000"
 4398 077a 12       		.byte	0x12
 4399 077b 8D       		.byte	0x8d
 4400 077c EB070000 		.4byte	0x7eb
 4401 0780 16       		.uleb128 0x16
 4402 0781 74637000 		.ascii	"tcp\000"
 4403 0785 12       		.byte	0x12
 4404 0786 8E       		.byte	0x8e
 4405 0787 A30A0000 		.4byte	0xaa3
 4406 078b 16       		.uleb128 0x16
 4407 078c 75647000 		.ascii	"udp\000"
 4408 0790 12       		.byte	0x12
 4409 0791 8F       		.byte	0x8f
 4410 0792 3A0B0000 		.4byte	0xb3a
 4411 0796 16       		.uleb128 0x16
 4412 0797 72617700 		.ascii	"raw\000"
 4413 079b 12       		.byte	0x12
 4414 079c 90       		.byte	0x90
 4415 079d B90B0000 		.4byte	0xbb9
 4416 07a1 00       		.byte	0
 4417 07a2 05       		.uleb128 0x5
 4418 07a3 BD060000 		.4byte	.LASF136
 4419 07a7 0C       		.byte	0xc
 4420 07a8 13       		.byte	0x13
 4421 07a9 59       		.byte	0x59
 4422 07aa EB070000 		.4byte	0x7eb
 4423 07ae 06       		.uleb128 0x6
 4424 07af F7020000 		.4byte	.LASF137
ARM GAS  /tmp/ccT6pRdh.s 			page 79


 4425 07b3 13       		.byte	0x13
 4426 07b4 5B       		.byte	0x5b
 4427 07b5 E5040000 		.4byte	0x4e5
 4428 07b9 00       		.byte	0
 4429 07ba 06       		.uleb128 0x6
 4430 07bb F40A0000 		.4byte	.LASF138
 4431 07bf 13       		.byte	0x13
 4432 07c0 5B       		.byte	0x5b
 4433 07c1 E5040000 		.4byte	0x4e5
 4434 07c5 04       		.byte	0x4
 4435 07c6 06       		.uleb128 0x6
 4436 07c7 A5000000 		.4byte	.LASF139
 4437 07cb 13       		.byte	0x13
 4438 07cc 5B       		.byte	0x5b
 4439 07cd 95040000 		.4byte	0x495
 4440 07d1 08       		.byte	0x8
 4441 07d2 07       		.uleb128 0x7
 4442 07d3 746F7300 		.ascii	"tos\000"
 4443 07d7 13       		.byte	0x13
 4444 07d8 5B       		.byte	0x5b
 4445 07d9 95040000 		.4byte	0x495
 4446 07dd 09       		.byte	0x9
 4447 07de 07       		.uleb128 0x7
 4448 07df 74746C00 		.ascii	"ttl\000"
 4449 07e3 13       		.byte	0x13
 4450 07e4 5B       		.byte	0x5b
 4451 07e5 95040000 		.4byte	0x495
 4452 07e9 0A       		.byte	0xa
 4453 07ea 00       		.byte	0
 4454 07eb 09       		.uleb128 0x9
 4455 07ec 04       		.byte	0x4
 4456 07ed A2070000 		.4byte	0x7a2
 4457 07f1 05       		.uleb128 0x5
 4458 07f2 28040000 		.4byte	.LASF140
 4459 07f6 98       		.byte	0x98
 4460 07f7 14       		.byte	0x14
 4461 07f8 A8       		.byte	0xa8
 4462 07f9 A30A0000 		.4byte	0xaa3
 4463 07fd 06       		.uleb128 0x6
 4464 07fe F7020000 		.4byte	.LASF137
 4465 0802 14       		.byte	0x14
 4466 0803 AA       		.byte	0xaa
 4467 0804 E5040000 		.4byte	0x4e5
 4468 0808 00       		.byte	0
 4469 0809 06       		.uleb128 0x6
 4470 080a F40A0000 		.4byte	.LASF138
 4471 080e 14       		.byte	0x14
 4472 080f AA       		.byte	0xaa
 4473 0810 E5040000 		.4byte	0x4e5
 4474 0814 04       		.byte	0x4
 4475 0815 06       		.uleb128 0x6
 4476 0816 A5000000 		.4byte	.LASF139
 4477 081a 14       		.byte	0x14
 4478 081b AA       		.byte	0xaa
 4479 081c 95040000 		.4byte	0x495
 4480 0820 08       		.byte	0x8
 4481 0821 07       		.uleb128 0x7
ARM GAS  /tmp/ccT6pRdh.s 			page 80


 4482 0822 746F7300 		.ascii	"tos\000"
 4483 0826 14       		.byte	0x14
 4484 0827 AA       		.byte	0xaa
 4485 0828 95040000 		.4byte	0x495
 4486 082c 09       		.byte	0x9
 4487 082d 07       		.uleb128 0x7
 4488 082e 74746C00 		.ascii	"ttl\000"
 4489 0832 14       		.byte	0x14
 4490 0833 AA       		.byte	0xaa
 4491 0834 95040000 		.4byte	0x495
 4492 0838 0A       		.byte	0xa
 4493 0839 06       		.uleb128 0x6
 4494 083a DA0D0000 		.4byte	.LASF99
 4495 083e 14       		.byte	0x14
 4496 083f AC       		.byte	0xac
 4497 0840 A30A0000 		.4byte	0xaa3
 4498 0844 0C       		.byte	0xc
 4499 0845 06       		.uleb128 0x6
 4500 0846 170C0000 		.4byte	.LASF141
 4501 084a 14       		.byte	0x14
 4502 084b AC       		.byte	0xac
 4503 084c C9020000 		.4byte	0x2c9
 4504 0850 10       		.byte	0x10
 4505 0851 06       		.uleb128 0x6
 4506 0852 520C0000 		.4byte	.LASF142
 4507 0856 14       		.byte	0x14
 4508 0857 AC       		.byte	0xac
 4509 0858 3E0D0000 		.4byte	0xd3e
 4510 085c 14       		.byte	0x14
 4511 085d 06       		.uleb128 0x6
 4512 085e D2000000 		.4byte	.LASF127
 4513 0862 14       		.byte	0x14
 4514 0863 AC       		.byte	0xac
 4515 0864 120E0000 		.4byte	0xe12
 4516 0868 18       		.byte	0x18
 4517 0869 06       		.uleb128 0x6
 4518 086a 5C010000 		.4byte	.LASF143
 4519 086e 14       		.byte	0x14
 4520 086f AC       		.byte	0xac
 4521 0870 95040000 		.4byte	0x495
 4522 0874 19       		.byte	0x19
 4523 0875 06       		.uleb128 0x6
 4524 0876 0A040000 		.4byte	.LASF144
 4525 087a 14       		.byte	0x14
 4526 087b AC       		.byte	0xac
 4527 087c AB040000 		.4byte	0x4ab
 4528 0880 1A       		.byte	0x1a
 4529 0881 06       		.uleb128 0x6
 4530 0882 9B090000 		.4byte	.LASF145
 4531 0886 14       		.byte	0x14
 4532 0887 AF       		.byte	0xaf
 4533 0888 AB040000 		.4byte	0x4ab
 4534 088c 1C       		.byte	0x1c
 4535 088d 06       		.uleb128 0x6
 4536 088e 22040000 		.4byte	.LASF103
 4537 0892 14       		.byte	0x14
 4538 0893 B1       		.byte	0xb1
ARM GAS  /tmp/ccT6pRdh.s 			page 81


 4539 0894 95040000 		.4byte	0x495
 4540 0898 1E       		.byte	0x1e
 4541 0899 06       		.uleb128 0x6
 4542 089a 69010000 		.4byte	.LASF146
 4543 089e 14       		.byte	0x14
 4544 089f BF       		.byte	0xbf
 4545 08a0 95040000 		.4byte	0x495
 4546 08a4 1F       		.byte	0x1f
 4547 08a5 06       		.uleb128 0x6
 4548 08a6 07070000 		.4byte	.LASF147
 4549 08aa 14       		.byte	0x14
 4550 08ab BF       		.byte	0xbf
 4551 08ac 95040000 		.4byte	0x495
 4552 08b0 20       		.byte	0x20
 4553 08b1 06       		.uleb128 0x6
 4554 08b2 4D050000 		.4byte	.LASF148
 4555 08b6 14       		.byte	0x14
 4556 08b7 C0       		.byte	0xc0
 4557 08b8 95040000 		.4byte	0x495
 4558 08bc 21       		.byte	0x21
 4559 08bd 07       		.uleb128 0x7
 4560 08be 746D7200 		.ascii	"tmr\000"
 4561 08c2 14       		.byte	0x14
 4562 08c3 C1       		.byte	0xc1
 4563 08c4 C1040000 		.4byte	0x4c1
 4564 08c8 24       		.byte	0x24
 4565 08c9 06       		.uleb128 0x6
 4566 08ca 82070000 		.4byte	.LASF149
 4567 08ce 14       		.byte	0x14
 4568 08cf C4       		.byte	0xc4
 4569 08d0 C1040000 		.4byte	0x4c1
 4570 08d4 28       		.byte	0x28
 4571 08d5 06       		.uleb128 0x6
 4572 08d6 9D000000 		.4byte	.LASF150
 4573 08da 14       		.byte	0x14
 4574 08db C5       		.byte	0xc5
 4575 08dc AB040000 		.4byte	0x4ab
 4576 08e0 2C       		.byte	0x2c
 4577 08e1 06       		.uleb128 0x6
 4578 08e2 34000000 		.4byte	.LASF151
 4579 08e6 14       		.byte	0x14
 4580 08e7 C6       		.byte	0xc6
 4581 08e8 AB040000 		.4byte	0x4ab
 4582 08ec 2E       		.byte	0x2e
 4583 08ed 06       		.uleb128 0x6
 4584 08ee 01050000 		.4byte	.LASF152
 4585 08f2 14       		.byte	0x14
 4586 08f3 C7       		.byte	0xc7
 4587 08f4 C1040000 		.4byte	0x4c1
 4588 08f8 30       		.byte	0x30
 4589 08f9 06       		.uleb128 0x6
 4590 08fa 84080000 		.4byte	.LASF153
 4591 08fe 14       		.byte	0x14
 4592 08ff CA       		.byte	0xca
 4593 0900 B6040000 		.4byte	0x4b6
 4594 0904 34       		.byte	0x34
 4595 0905 07       		.uleb128 0x7
ARM GAS  /tmp/ccT6pRdh.s 			page 82


 4596 0906 6D737300 		.ascii	"mss\000"
 4597 090a 14       		.byte	0x14
 4598 090b CC       		.byte	0xcc
 4599 090c AB040000 		.4byte	0x4ab
 4600 0910 36       		.byte	0x36
 4601 0911 06       		.uleb128 0x6
 4602 0912 40040000 		.4byte	.LASF154
 4603 0916 14       		.byte	0x14
 4604 0917 CF       		.byte	0xcf
 4605 0918 C1040000 		.4byte	0x4c1
 4606 091c 38       		.byte	0x38
 4607 091d 06       		.uleb128 0x6
 4608 091e 26050000 		.4byte	.LASF155
 4609 0922 14       		.byte	0x14
 4610 0923 D0       		.byte	0xd0
 4611 0924 C1040000 		.4byte	0x4c1
 4612 0928 3C       		.byte	0x3c
 4613 0929 07       		.uleb128 0x7
 4614 092a 736100   		.ascii	"sa\000"
 4615 092d 14       		.byte	0x14
 4616 092e D1       		.byte	0xd1
 4617 092f B6040000 		.4byte	0x4b6
 4618 0933 40       		.byte	0x40
 4619 0934 07       		.uleb128 0x7
 4620 0935 737600   		.ascii	"sv\000"
 4621 0938 14       		.byte	0x14
 4622 0939 D1       		.byte	0xd1
 4623 093a B6040000 		.4byte	0x4b6
 4624 093e 42       		.byte	0x42
 4625 093f 07       		.uleb128 0x7
 4626 0940 72746F00 		.ascii	"rto\000"
 4627 0944 14       		.byte	0x14
 4628 0945 D3       		.byte	0xd3
 4629 0946 B6040000 		.4byte	0x4b6
 4630 094a 44       		.byte	0x44
 4631 094b 06       		.uleb128 0x6
 4632 094c 21060000 		.4byte	.LASF156
 4633 0950 14       		.byte	0x14
 4634 0951 D4       		.byte	0xd4
 4635 0952 95040000 		.4byte	0x495
 4636 0956 46       		.byte	0x46
 4637 0957 06       		.uleb128 0x6
 4638 0958 A40C0000 		.4byte	.LASF157
 4639 095c 14       		.byte	0x14
 4640 095d D7       		.byte	0xd7
 4641 095e 95040000 		.4byte	0x495
 4642 0962 47       		.byte	0x47
 4643 0963 06       		.uleb128 0x6
 4644 0964 4F060000 		.4byte	.LASF158
 4645 0968 14       		.byte	0x14
 4646 0969 D8       		.byte	0xd8
 4647 096a C1040000 		.4byte	0x4c1
 4648 096e 48       		.byte	0x48
 4649 096f 06       		.uleb128 0x6
 4650 0970 030A0000 		.4byte	.LASF159
 4651 0974 14       		.byte	0x14
 4652 0975 DB       		.byte	0xdb
ARM GAS  /tmp/ccT6pRdh.s 			page 83


 4653 0976 AB040000 		.4byte	0x4ab
 4654 097a 4C       		.byte	0x4c
 4655 097b 06       		.uleb128 0x6
 4656 097c F6000000 		.4byte	.LASF160
 4657 0980 14       		.byte	0x14
 4658 0981 DC       		.byte	0xdc
 4659 0982 AB040000 		.4byte	0x4ab
 4660 0986 4E       		.byte	0x4e
 4661 0987 06       		.uleb128 0x6
 4662 0988 57060000 		.4byte	.LASF161
 4663 098c 14       		.byte	0x14
 4664 098d DF       		.byte	0xdf
 4665 098e C1040000 		.4byte	0x4c1
 4666 0992 50       		.byte	0x50
 4667 0993 06       		.uleb128 0x6
 4668 0994 790C0000 		.4byte	.LASF162
 4669 0998 14       		.byte	0x14
 4670 0999 E0       		.byte	0xe0
 4671 099a C1040000 		.4byte	0x4c1
 4672 099e 54       		.byte	0x54
 4673 099f 06       		.uleb128 0x6
 4674 09a0 810C0000 		.4byte	.LASF163
 4675 09a4 14       		.byte	0x14
 4676 09a5 E0       		.byte	0xe0
 4677 09a6 C1040000 		.4byte	0x4c1
 4678 09aa 58       		.byte	0x58
 4679 09ab 06       		.uleb128 0x6
 4680 09ac 8E040000 		.4byte	.LASF164
 4681 09b0 14       		.byte	0x14
 4682 09b1 E2       		.byte	0xe2
 4683 09b2 C1040000 		.4byte	0x4c1
 4684 09b6 5C       		.byte	0x5c
 4685 09b7 06       		.uleb128 0x6
 4686 09b8 9B0D0000 		.4byte	.LASF165
 4687 09bc 14       		.byte	0x14
 4688 09bd E3       		.byte	0xe3
 4689 09be AB040000 		.4byte	0x4ab
 4690 09c2 60       		.byte	0x60
 4691 09c3 06       		.uleb128 0x6
 4692 09c4 76070000 		.4byte	.LASF166
 4693 09c8 14       		.byte	0x14
 4694 09c9 E4       		.byte	0xe4
 4695 09ca AB040000 		.4byte	0x4ab
 4696 09ce 62       		.byte	0x62
 4697 09cf 06       		.uleb128 0x6
 4698 09d0 B40B0000 		.4byte	.LASF167
 4699 09d4 14       		.byte	0x14
 4700 09d5 E6       		.byte	0xe6
 4701 09d6 AB040000 		.4byte	0x4ab
 4702 09da 64       		.byte	0x64
 4703 09db 06       		.uleb128 0x6
 4704 09dc 810D0000 		.4byte	.LASF168
 4705 09e0 14       		.byte	0x14
 4706 09e1 E8       		.byte	0xe8
 4707 09e2 AB040000 		.4byte	0x4ab
 4708 09e6 66       		.byte	0x66
 4709 09e7 06       		.uleb128 0x6
ARM GAS  /tmp/ccT6pRdh.s 			page 84


 4710 09e8 490A0000 		.4byte	.LASF169
 4711 09ec 14       		.byte	0x14
 4712 09ed EA       		.byte	0xea
 4713 09ee AB040000 		.4byte	0x4ab
 4714 09f2 68       		.byte	0x68
 4715 09f3 06       		.uleb128 0x6
 4716 09f4 BC0A0000 		.4byte	.LASF170
 4717 09f8 14       		.byte	0x14
 4718 09f9 EE       		.byte	0xee
 4719 09fa AB040000 		.4byte	0x4ab
 4720 09fe 6A       		.byte	0x6a
 4721 09ff 06       		.uleb128 0x6
 4722 0a00 A30A0000 		.4byte	.LASF171
 4723 0a04 14       		.byte	0x14
 4724 0a05 F2       		.byte	0xf2
 4725 0a06 660E0000 		.4byte	0xe66
 4726 0a0a 6C       		.byte	0x6c
 4727 0a0b 06       		.uleb128 0x6
 4728 0a0c 070C0000 		.4byte	.LASF172
 4729 0a10 14       		.byte	0x14
 4730 0a11 F3       		.byte	0xf3
 4731 0a12 660E0000 		.4byte	0xe66
 4732 0a16 70       		.byte	0x70
 4733 0a17 06       		.uleb128 0x6
 4734 0a18 1E0E0000 		.4byte	.LASF173
 4735 0a1c 14       		.byte	0x14
 4736 0a1d F5       		.byte	0xf5
 4737 0a1e 660E0000 		.4byte	0xe66
 4738 0a22 74       		.byte	0x74
 4739 0a23 06       		.uleb128 0x6
 4740 0a24 260A0000 		.4byte	.LASF174
 4741 0a28 14       		.byte	0x14
 4742 0a29 F8       		.byte	0xf8
 4743 0a2a D6050000 		.4byte	0x5d6
 4744 0a2e 78       		.byte	0x78
 4745 0a2f 06       		.uleb128 0x6
 4746 0a30 AA060000 		.4byte	.LASF175
 4747 0a34 14       		.byte	0x14
 4748 0a35 FC       		.byte	0xfc
 4749 0a36 970D0000 		.4byte	0xd97
 4750 0a3a 7C       		.byte	0x7c
 4751 0a3b 06       		.uleb128 0x6
 4752 0a3c BD080000 		.4byte	.LASF176
 4753 0a40 14       		.byte	0x14
 4754 0a41 FE       		.byte	0xfe
 4755 0a42 680D0000 		.4byte	0xd68
 4756 0a46 80       		.byte	0x80
 4757 0a47 17       		.uleb128 0x17
 4758 0a48 EE0D0000 		.4byte	.LASF177
 4759 0a4c 14       		.byte	0x14
 4760 0a4d 0001     		.2byte	0x100
 4761 0a4f 070E0000 		.4byte	0xe07
 4762 0a53 84       		.byte	0x84
 4763 0a54 17       		.uleb128 0x17
 4764 0a55 72080000 		.4byte	.LASF178
 4765 0a59 14       		.byte	0x14
 4766 0a5a 0201     		.2byte	0x102
ARM GAS  /tmp/ccT6pRdh.s 			page 85


 4767 0a5c C10D0000 		.4byte	0xdc1
 4768 0a60 88       		.byte	0x88
 4769 0a61 17       		.uleb128 0x17
 4770 0a62 440C0000 		.4byte	.LASF179
 4771 0a66 14       		.byte	0x14
 4772 0a67 0401     		.2byte	0x104
 4773 0a69 E60D0000 		.4byte	0xde6
 4774 0a6d 8C       		.byte	0x8c
 4775 0a6e 17       		.uleb128 0x17
 4776 0a6f C60B0000 		.4byte	.LASF180
 4777 0a73 14       		.byte	0x14
 4778 0a74 0D01     		.2byte	0x10d
 4779 0a76 C1040000 		.4byte	0x4c1
 4780 0a7a 90       		.byte	0x90
 4781 0a7b 17       		.uleb128 0x17
 4782 0a7c BF040000 		.4byte	.LASF181
 4783 0a80 14       		.byte	0x14
 4784 0a81 1401     		.2byte	0x114
 4785 0a83 95040000 		.4byte	0x495
 4786 0a87 94       		.byte	0x94
 4787 0a88 17       		.uleb128 0x17
 4788 0a89 CD090000 		.4byte	.LASF182
 4789 0a8d 14       		.byte	0x14
 4790 0a8e 1601     		.2byte	0x116
 4791 0a90 95040000 		.4byte	0x495
 4792 0a94 95       		.byte	0x95
 4793 0a95 17       		.uleb128 0x17
 4794 0a96 CC020000 		.4byte	.LASF183
 4795 0a9a 14       		.byte	0x14
 4796 0a9b 1901     		.2byte	0x119
 4797 0a9d 95040000 		.4byte	0x495
 4798 0aa1 96       		.byte	0x96
 4799 0aa2 00       		.byte	0
 4800 0aa3 09       		.uleb128 0x9
 4801 0aa4 04       		.byte	0x4
 4802 0aa5 F1070000 		.4byte	0x7f1
 4803 0aa9 05       		.uleb128 0x5
 4804 0aaa 02040000 		.4byte	.LASF184
 4805 0aae 20       		.byte	0x20
 4806 0aaf 15       		.byte	0x15
 4807 0ab0 5B       		.byte	0x5b
 4808 0ab1 3A0B0000 		.4byte	0xb3a
 4809 0ab5 06       		.uleb128 0x6
 4810 0ab6 F7020000 		.4byte	.LASF137
 4811 0aba 15       		.byte	0x15
 4812 0abb 5D       		.byte	0x5d
 4813 0abc E5040000 		.4byte	0x4e5
 4814 0ac0 00       		.byte	0
 4815 0ac1 06       		.uleb128 0x6
 4816 0ac2 F40A0000 		.4byte	.LASF138
 4817 0ac6 15       		.byte	0x15
 4818 0ac7 5D       		.byte	0x5d
 4819 0ac8 E5040000 		.4byte	0x4e5
 4820 0acc 04       		.byte	0x4
 4821 0acd 06       		.uleb128 0x6
 4822 0ace A5000000 		.4byte	.LASF139
 4823 0ad2 15       		.byte	0x15
ARM GAS  /tmp/ccT6pRdh.s 			page 86


 4824 0ad3 5D       		.byte	0x5d
 4825 0ad4 95040000 		.4byte	0x495
 4826 0ad8 08       		.byte	0x8
 4827 0ad9 07       		.uleb128 0x7
 4828 0ada 746F7300 		.ascii	"tos\000"
 4829 0ade 15       		.byte	0x15
 4830 0adf 5D       		.byte	0x5d
 4831 0ae0 95040000 		.4byte	0x495
 4832 0ae4 09       		.byte	0x9
 4833 0ae5 07       		.uleb128 0x7
 4834 0ae6 74746C00 		.ascii	"ttl\000"
 4835 0aea 15       		.byte	0x15
 4836 0aeb 5D       		.byte	0x5d
 4837 0aec 95040000 		.4byte	0x495
 4838 0af0 0A       		.byte	0xa
 4839 0af1 06       		.uleb128 0x6
 4840 0af2 DA0D0000 		.4byte	.LASF99
 4841 0af6 15       		.byte	0x15
 4842 0af7 61       		.byte	0x61
 4843 0af8 3A0B0000 		.4byte	0xb3a
 4844 0afc 0C       		.byte	0xc
 4845 0afd 06       		.uleb128 0x6
 4846 0afe 22040000 		.4byte	.LASF103
 4847 0b02 15       		.byte	0x15
 4848 0b03 63       		.byte	0x63
 4849 0b04 95040000 		.4byte	0x495
 4850 0b08 10       		.byte	0x10
 4851 0b09 06       		.uleb128 0x6
 4852 0b0a 0A040000 		.4byte	.LASF144
 4853 0b0e 15       		.byte	0x15
 4854 0b0f 65       		.byte	0x65
 4855 0b10 AB040000 		.4byte	0x4ab
 4856 0b14 12       		.byte	0x12
 4857 0b15 06       		.uleb128 0x6
 4858 0b16 9B090000 		.4byte	.LASF145
 4859 0b1a 15       		.byte	0x15
 4860 0b1b 65       		.byte	0x65
 4861 0b1c AB040000 		.4byte	0x4ab
 4862 0b20 14       		.byte	0x14
 4863 0b21 06       		.uleb128 0x6
 4864 0b22 BD080000 		.4byte	.LASF176
 4865 0b26 15       		.byte	0x15
 4866 0b27 72       		.byte	0x72
 4867 0b28 0E0D0000 		.4byte	0xd0e
 4868 0b2c 18       		.byte	0x18
 4869 0b2d 06       		.uleb128 0x6
 4870 0b2e 6D0A0000 		.4byte	.LASF185
 4871 0b32 15       		.byte	0x15
 4872 0b33 74       		.byte	0x74
 4873 0b34 C9020000 		.4byte	0x2c9
 4874 0b38 1C       		.byte	0x1c
 4875 0b39 00       		.byte	0
 4876 0b3a 09       		.uleb128 0x9
 4877 0b3b 04       		.byte	0x4
 4878 0b3c A90A0000 		.4byte	0xaa9
 4879 0b40 05       		.uleb128 0x5
 4880 0b41 BA0C0000 		.4byte	.LASF186
ARM GAS  /tmp/ccT6pRdh.s 			page 87


 4881 0b45 1C       		.byte	0x1c
 4882 0b46 16       		.byte	0x16
 4883 0b47 3F       		.byte	0x3f
 4884 0b48 B90B0000 		.4byte	0xbb9
 4885 0b4c 06       		.uleb128 0x6
 4886 0b4d F7020000 		.4byte	.LASF137
 4887 0b51 16       		.byte	0x16
 4888 0b52 41       		.byte	0x41
 4889 0b53 E5040000 		.4byte	0x4e5
 4890 0b57 00       		.byte	0
 4891 0b58 06       		.uleb128 0x6
 4892 0b59 F40A0000 		.4byte	.LASF138
 4893 0b5d 16       		.byte	0x16
 4894 0b5e 41       		.byte	0x41
 4895 0b5f E5040000 		.4byte	0x4e5
 4896 0b63 04       		.byte	0x4
 4897 0b64 06       		.uleb128 0x6
 4898 0b65 A5000000 		.4byte	.LASF139
 4899 0b69 16       		.byte	0x16
 4900 0b6a 41       		.byte	0x41
 4901 0b6b 95040000 		.4byte	0x495
 4902 0b6f 08       		.byte	0x8
 4903 0b70 07       		.uleb128 0x7
 4904 0b71 746F7300 		.ascii	"tos\000"
 4905 0b75 16       		.byte	0x16
 4906 0b76 41       		.byte	0x41
 4907 0b77 95040000 		.4byte	0x495
 4908 0b7b 09       		.byte	0x9
 4909 0b7c 07       		.uleb128 0x7
 4910 0b7d 74746C00 		.ascii	"ttl\000"
 4911 0b81 16       		.byte	0x16
 4912 0b82 41       		.byte	0x41
 4913 0b83 95040000 		.4byte	0x495
 4914 0b87 0A       		.byte	0xa
 4915 0b88 06       		.uleb128 0x6
 4916 0b89 DA0D0000 		.4byte	.LASF99
 4917 0b8d 16       		.byte	0x16
 4918 0b8e 43       		.byte	0x43
 4919 0b8f B90B0000 		.4byte	0xbb9
 4920 0b93 0C       		.byte	0xc
 4921 0b94 06       		.uleb128 0x6
 4922 0b95 A1060000 		.4byte	.LASF187
 4923 0b99 16       		.byte	0x16
 4924 0b9a 45       		.byte	0x45
 4925 0b9b 95040000 		.4byte	0x495
 4926 0b9f 10       		.byte	0x10
 4927 0ba0 06       		.uleb128 0x6
 4928 0ba1 BD080000 		.4byte	.LASF176
 4929 0ba5 16       		.byte	0x16
 4930 0ba6 48       		.byte	0x48
 4931 0ba7 6C0E0000 		.4byte	0xe6c
 4932 0bab 14       		.byte	0x14
 4933 0bac 06       		.uleb128 0x6
 4934 0bad 6D0A0000 		.4byte	.LASF185
 4935 0bb1 16       		.byte	0x16
 4936 0bb2 4A       		.byte	0x4a
 4937 0bb3 C9020000 		.4byte	0x2c9
ARM GAS  /tmp/ccT6pRdh.s 			page 88


 4938 0bb7 18       		.byte	0x18
 4939 0bb8 00       		.byte	0
 4940 0bb9 09       		.uleb128 0x9
 4941 0bba 04       		.byte	0x4
 4942 0bbb 400B0000 		.4byte	0xb40
 4943 0bbf 05       		.uleb128 0x5
 4944 0bc0 DF0A0000 		.4byte	.LASF188
 4945 0bc4 14       		.byte	0x14
 4946 0bc5 17       		.byte	0x17
 4947 0bc6 3E       		.byte	0x3e
 4948 0bc7 F00B0000 		.4byte	0xbf0
 4949 0bcb 06       		.uleb128 0x6
 4950 0bcc 3D010000 		.4byte	.LASF189
 4951 0bd0 17       		.byte	0x17
 4952 0bd1 41       		.byte	0x41
 4953 0bd2 CB060000 		.4byte	0x6cb
 4954 0bd6 00       		.byte	0
 4955 0bd7 07       		.uleb128 0x7
 4956 0bd8 65727200 		.ascii	"err\000"
 4957 0bdc 17       		.byte	0x17
 4958 0bdd 43       		.byte	0x43
 4959 0bde F0040000 		.4byte	0x4f0
 4960 0be2 04       		.byte	0x4
 4961 0be3 07       		.uleb128 0x7
 4962 0be4 6D736700 		.ascii	"msg\000"
 4963 0be8 17       		.byte	0x17
 4964 0be9 75       		.byte	0x75
 4965 0bea BD0C0000 		.4byte	0xcbd
 4966 0bee 08       		.byte	0x8
 4967 0bef 00       		.byte	0
 4968 0bf0 09       		.uleb128 0x9
 4969 0bf1 04       		.byte	0x4
 4970 0bf2 BF0B0000 		.4byte	0xbbf
 4971 0bf6 08       		.uleb128 0x8
 4972 0bf7 01       		.byte	0x1
 4973 0bf8 17       		.byte	0x17
 4974 0bf9 49       		.byte	0x49
 4975 0bfa 0B0C0000 		.4byte	0xc0b
 4976 0bfe 06       		.uleb128 0x6
 4977 0bff 7A000000 		.4byte	.LASF190
 4978 0c03 17       		.byte	0x17
 4979 0c04 4A       		.byte	0x4a
 4980 0c05 95040000 		.4byte	0x495
 4981 0c09 00       		.byte	0
 4982 0c0a 00       		.byte	0
 4983 0c0b 08       		.uleb128 0x8
 4984 0c0c 08       		.byte	0x8
 4985 0c0d 17       		.byte	0x17
 4986 0c0e 4D       		.byte	0x4d
 4987 0c0f 2C0C0000 		.4byte	0xc2c
 4988 0c13 06       		.uleb128 0x6
 4989 0c14 9B010000 		.4byte	.LASF191
 4990 0c18 17       		.byte	0x17
 4991 0c19 4E       		.byte	0x4e
 4992 0c1a DC050000 		.4byte	0x5dc
 4993 0c1e 00       		.byte	0
 4994 0c1f 06       		.uleb128 0x6
ARM GAS  /tmp/ccT6pRdh.s 			page 89


 4995 0c20 A50B0000 		.4byte	.LASF105
 4996 0c24 17       		.byte	0x17
 4997 0c25 4F       		.byte	0x4f
 4998 0c26 AB040000 		.4byte	0x4ab
 4999 0c2a 04       		.byte	0x4
 5000 0c2b 00       		.byte	0
 5001 0c2c 08       		.uleb128 0x8
 5002 0c2d 0C       		.byte	0xc
 5003 0c2e 17       		.byte	0x17
 5004 0c2f 52       		.byte	0x52
 5005 0c30 590C0000 		.4byte	0xc59
 5006 0c34 06       		.uleb128 0x6
 5007 0c35 9B010000 		.4byte	.LASF191
 5008 0c39 17       		.byte	0x17
 5009 0c3a 53       		.byte	0x53
 5010 0c3b DC050000 		.4byte	0x5dc
 5011 0c3f 00       		.byte	0
 5012 0c40 06       		.uleb128 0x6
 5013 0c41 A50B0000 		.4byte	.LASF105
 5014 0c45 17       		.byte	0x17
 5015 0c46 54       		.byte	0x54
 5016 0c47 590C0000 		.4byte	0xc59
 5017 0c4b 04       		.byte	0x4
 5018 0c4c 06       		.uleb128 0x6
 5019 0c4d 0E010000 		.4byte	.LASF192
 5020 0c51 17       		.byte	0x17
 5021 0c52 55       		.byte	0x55
 5022 0c53 95040000 		.4byte	0x495
 5023 0c57 08       		.byte	0x8
 5024 0c58 00       		.byte	0
 5025 0c59 09       		.uleb128 0x9
 5026 0c5a 04       		.byte	0x4
 5027 0c5b AB040000 		.4byte	0x4ab
 5028 0c5f 08       		.uleb128 0x8
 5029 0c60 0C       		.byte	0xc
 5030 0c61 17       		.byte	0x17
 5031 0c62 58       		.byte	0x58
 5032 0c63 8C0C0000 		.4byte	0xc8c
 5033 0c67 06       		.uleb128 0x6
 5034 0c68 EC0C0000 		.4byte	.LASF193
 5035 0c6c 17       		.byte	0x17
 5036 0c6d 59       		.byte	0x59
 5037 0c6e 8C0C0000 		.4byte	0xc8c
 5038 0c72 00       		.byte	0
 5039 0c73 07       		.uleb128 0x7
 5040 0c74 6C656E00 		.ascii	"len\000"
 5041 0c78 17       		.byte	0x17
 5042 0c79 5A       		.byte	0x5a
 5043 0c7a 2C000000 		.4byte	0x2c
 5044 0c7e 04       		.byte	0x4
 5045 0c7f 06       		.uleb128 0x6
 5046 0c80 490C0000 		.4byte	.LASF194
 5047 0c84 17       		.byte	0x17
 5048 0c85 5B       		.byte	0x5b
 5049 0c86 95040000 		.4byte	0x495
 5050 0c8a 08       		.byte	0x8
 5051 0c8b 00       		.byte	0
ARM GAS  /tmp/ccT6pRdh.s 			page 90


 5052 0c8c 09       		.uleb128 0x9
 5053 0c8d 04       		.byte	0x4
 5054 0c8e 920C0000 		.4byte	0xc92
 5055 0c92 18       		.uleb128 0x18
 5056 0c93 08       		.uleb128 0x8
 5057 0c94 04       		.byte	0x4
 5058 0c95 17       		.byte	0x17
 5059 0c96 61       		.byte	0x61
 5060 0c97 A80C0000 		.4byte	0xca8
 5061 0c9b 07       		.uleb128 0x7
 5062 0c9c 6C656E00 		.ascii	"len\000"
 5063 0ca0 17       		.byte	0x17
 5064 0ca1 62       		.byte	0x62
 5065 0ca2 C1040000 		.4byte	0x4c1
 5066 0ca6 00       		.byte	0
 5067 0ca7 00       		.byte	0
 5068 0ca8 08       		.uleb128 0x8
 5069 0ca9 01       		.byte	0x1
 5070 0caa 17       		.byte	0x17
 5071 0cab 65       		.byte	0x65
 5072 0cac BD0C0000 		.4byte	0xcbd
 5073 0cb0 06       		.uleb128 0x6
 5074 0cb1 4F040000 		.4byte	.LASF195
 5075 0cb5 17       		.byte	0x17
 5076 0cb6 66       		.byte	0x66
 5077 0cb7 95040000 		.4byte	0x495
 5078 0cbb 00       		.byte	0
 5079 0cbc 00       		.byte	0
 5080 0cbd 0E       		.uleb128 0xe
 5081 0cbe 0C       		.byte	0xc
 5082 0cbf 17       		.byte	0x17
 5083 0cc0 45       		.byte	0x45
 5084 0cc1 080D0000 		.4byte	0xd08
 5085 0cc5 16       		.uleb128 0x16
 5086 0cc6 6200     		.ascii	"b\000"
 5087 0cc8 17       		.byte	0x17
 5088 0cc9 47       		.byte	0x47
 5089 0cca 080D0000 		.4byte	0xd08
 5090 0cce 16       		.uleb128 0x16
 5091 0ccf 6E00     		.ascii	"n\000"
 5092 0cd1 17       		.byte	0x17
 5093 0cd2 4B       		.byte	0x4b
 5094 0cd3 F60B0000 		.4byte	0xbf6
 5095 0cd7 16       		.uleb128 0x16
 5096 0cd8 626300   		.ascii	"bc\000"
 5097 0cdb 17       		.byte	0x17
 5098 0cdc 50       		.byte	0x50
 5099 0cdd 0B0C0000 		.4byte	0xc0b
 5100 0ce1 16       		.uleb128 0x16
 5101 0ce2 616400   		.ascii	"ad\000"
 5102 0ce5 17       		.byte	0x17
 5103 0ce6 56       		.byte	0x56
 5104 0ce7 2C0C0000 		.4byte	0xc2c
 5105 0ceb 16       		.uleb128 0x16
 5106 0cec 7700     		.ascii	"w\000"
 5107 0cee 17       		.byte	0x17
 5108 0cef 5F       		.byte	0x5f
ARM GAS  /tmp/ccT6pRdh.s 			page 91


 5109 0cf0 5F0C0000 		.4byte	0xc5f
 5110 0cf4 16       		.uleb128 0x16
 5111 0cf5 7200     		.ascii	"r\000"
 5112 0cf7 17       		.byte	0x17
 5113 0cf8 63       		.byte	0x63
 5114 0cf9 930C0000 		.4byte	0xc93
 5115 0cfd 16       		.uleb128 0x16
 5116 0cfe 736400   		.ascii	"sd\000"
 5117 0d01 17       		.byte	0x17
 5118 0d02 67       		.byte	0x67
 5119 0d03 A80C0000 		.4byte	0xca8
 5120 0d07 00       		.byte	0
 5121 0d08 09       		.uleb128 0x9
 5122 0d09 04       		.byte	0x4
 5123 0d0a E2050000 		.4byte	0x5e2
 5124 0d0e 03       		.uleb128 0x3
 5125 0d0f 14090000 		.4byte	.LASF196
 5126 0d13 15       		.byte	0x15
 5127 0d14 57       		.byte	0x57
 5128 0d15 190D0000 		.4byte	0xd19
 5129 0d19 09       		.uleb128 0x9
 5130 0d1a 04       		.byte	0x4
 5131 0d1b 1F0D0000 		.4byte	0xd1f
 5132 0d1f 14       		.uleb128 0x14
 5133 0d20 3E0D0000 		.4byte	0xd3e
 5134 0d24 15       		.uleb128 0x15
 5135 0d25 C9020000 		.4byte	0x2c9
 5136 0d29 15       		.uleb128 0x15
 5137 0d2a 3A0B0000 		.4byte	0xb3a
 5138 0d2e 15       		.uleb128 0x15
 5139 0d2f D6050000 		.4byte	0x5d6
 5140 0d33 15       		.uleb128 0x15
 5141 0d34 DC050000 		.4byte	0x5dc
 5142 0d38 15       		.uleb128 0x15
 5143 0d39 AB040000 		.4byte	0x4ab
 5144 0d3d 00       		.byte	0
 5145 0d3e 03       		.uleb128 0x3
 5146 0d3f BC0D0000 		.4byte	.LASF197
 5147 0d43 14       		.byte	0x14
 5148 0d44 3C       		.byte	0x3c
 5149 0d45 490D0000 		.4byte	0xd49
 5150 0d49 09       		.uleb128 0x9
 5151 0d4a 04       		.byte	0x4
 5152 0d4b 4F0D0000 		.4byte	0xd4f
 5153 0d4f 19       		.uleb128 0x19
 5154 0d50 F0040000 		.4byte	0x4f0
 5155 0d54 680D0000 		.4byte	0xd68
 5156 0d58 15       		.uleb128 0x15
 5157 0d59 C9020000 		.4byte	0x2c9
 5158 0d5d 15       		.uleb128 0x15
 5159 0d5e A30A0000 		.4byte	0xaa3
 5160 0d62 15       		.uleb128 0x15
 5161 0d63 F0040000 		.4byte	0x4f0
 5162 0d67 00       		.byte	0
 5163 0d68 03       		.uleb128 0x3
 5164 0d69 600C0000 		.4byte	.LASF198
 5165 0d6d 14       		.byte	0x14
ARM GAS  /tmp/ccT6pRdh.s 			page 92


 5166 0d6e 48       		.byte	0x48
 5167 0d6f 730D0000 		.4byte	0xd73
 5168 0d73 09       		.uleb128 0x9
 5169 0d74 04       		.byte	0x4
 5170 0d75 790D0000 		.4byte	0xd79
 5171 0d79 19       		.uleb128 0x19
 5172 0d7a F0040000 		.4byte	0x4f0
 5173 0d7e 970D0000 		.4byte	0xd97
 5174 0d82 15       		.uleb128 0x15
 5175 0d83 C9020000 		.4byte	0x2c9
 5176 0d87 15       		.uleb128 0x15
 5177 0d88 A30A0000 		.4byte	0xaa3
 5178 0d8c 15       		.uleb128 0x15
 5179 0d8d D6050000 		.4byte	0x5d6
 5180 0d91 15       		.uleb128 0x15
 5181 0d92 F0040000 		.4byte	0x4f0
 5182 0d96 00       		.byte	0
 5183 0d97 03       		.uleb128 0x3
 5184 0d98 78020000 		.4byte	.LASF199
 5185 0d9c 14       		.byte	0x14
 5186 0d9d 56       		.byte	0x56
 5187 0d9e A20D0000 		.4byte	0xda2
 5188 0da2 09       		.uleb128 0x9
 5189 0da3 04       		.byte	0x4
 5190 0da4 A80D0000 		.4byte	0xda8
 5191 0da8 19       		.uleb128 0x19
 5192 0da9 F0040000 		.4byte	0x4f0
 5193 0dad C10D0000 		.4byte	0xdc1
 5194 0db1 15       		.uleb128 0x15
 5195 0db2 C9020000 		.4byte	0x2c9
 5196 0db6 15       		.uleb128 0x15
 5197 0db7 A30A0000 		.4byte	0xaa3
 5198 0dbb 15       		.uleb128 0x15
 5199 0dbc AB040000 		.4byte	0x4ab
 5200 0dc0 00       		.byte	0
 5201 0dc1 03       		.uleb128 0x3
 5202 0dc2 DB050000 		.4byte	.LASF200
 5203 0dc6 14       		.byte	0x14
 5204 0dc7 62       		.byte	0x62
 5205 0dc8 CC0D0000 		.4byte	0xdcc
 5206 0dcc 09       		.uleb128 0x9
 5207 0dcd 04       		.byte	0x4
 5208 0dce D20D0000 		.4byte	0xdd2
 5209 0dd2 19       		.uleb128 0x19
 5210 0dd3 F0040000 		.4byte	0x4f0
 5211 0dd7 E60D0000 		.4byte	0xde6
 5212 0ddb 15       		.uleb128 0x15
 5213 0ddc C9020000 		.4byte	0x2c9
 5214 0de0 15       		.uleb128 0x15
 5215 0de1 A30A0000 		.4byte	0xaa3
 5216 0de5 00       		.byte	0
 5217 0de6 03       		.uleb128 0x3
 5218 0de7 84020000 		.4byte	.LASF201
 5219 0deb 14       		.byte	0x14
 5220 0dec 6E       		.byte	0x6e
 5221 0ded F10D0000 		.4byte	0xdf1
 5222 0df1 09       		.uleb128 0x9
ARM GAS  /tmp/ccT6pRdh.s 			page 93


 5223 0df2 04       		.byte	0x4
 5224 0df3 F70D0000 		.4byte	0xdf7
 5225 0df7 14       		.uleb128 0x14
 5226 0df8 070E0000 		.4byte	0xe07
 5227 0dfc 15       		.uleb128 0x15
 5228 0dfd C9020000 		.4byte	0x2c9
 5229 0e01 15       		.uleb128 0x15
 5230 0e02 F0040000 		.4byte	0x4f0
 5231 0e06 00       		.byte	0
 5232 0e07 03       		.uleb128 0x3
 5233 0e08 070B0000 		.4byte	.LASF202
 5234 0e0c 14       		.byte	0x14
 5235 0e0d 7C       		.byte	0x7c
 5236 0e0e 490D0000 		.4byte	0xd49
 5237 0e12 13       		.uleb128 0x13
 5238 0e13 42010000 		.4byte	.LASF203
 5239 0e17 01       		.byte	0x1
 5240 0e18 14       		.byte	0x14
 5241 0e19 7E       		.byte	0x7e
 5242 0e1a 610E0000 		.4byte	0xe61
 5243 0e1e 12       		.uleb128 0x12
 5244 0e1f 960C0000 		.4byte	.LASF204
 5245 0e23 00       		.sleb128 0
 5246 0e24 12       		.uleb128 0x12
 5247 0e25 CB000000 		.4byte	.LASF205
 5248 0e29 01       		.sleb128 1
 5249 0e2a 12       		.uleb128 0x12
 5250 0e2b AB030000 		.4byte	.LASF206
 5251 0e2f 02       		.sleb128 2
 5252 0e30 12       		.uleb128 0x12
 5253 0e31 8A080000 		.4byte	.LASF207
 5254 0e35 03       		.sleb128 3
 5255 0e36 12       		.uleb128 0x12
 5256 0e37 6B090000 		.4byte	.LASF208
 5257 0e3b 04       		.sleb128 4
 5258 0e3c 12       		.uleb128 0x12
 5259 0e3d 56030000 		.4byte	.LASF209
 5260 0e41 05       		.sleb128 5
 5261 0e42 12       		.uleb128 0x12
 5262 0e43 6E060000 		.4byte	.LASF210
 5263 0e47 06       		.sleb128 6
 5264 0e48 12       		.uleb128 0x12
 5265 0e49 E3040000 		.4byte	.LASF211
 5266 0e4d 07       		.sleb128 7
 5267 0e4e 12       		.uleb128 0x12
 5268 0e4f 660D0000 		.4byte	.LASF212
 5269 0e53 08       		.sleb128 8
 5270 0e54 12       		.uleb128 0x12
 5271 0e55 DB030000 		.4byte	.LASF213
 5272 0e59 09       		.sleb128 9
 5273 0e5a 12       		.uleb128 0x12
 5274 0e5b 33010000 		.4byte	.LASF214
 5275 0e5f 0A       		.sleb128 10
 5276 0e60 00       		.byte	0
 5277 0e61 1A       		.uleb128 0x1a
 5278 0e62 E60D0000 		.4byte	.LASF325
 5279 0e66 09       		.uleb128 0x9
ARM GAS  /tmp/ccT6pRdh.s 			page 94


 5280 0e67 04       		.byte	0x4
 5281 0e68 610E0000 		.4byte	0xe61
 5282 0e6c 03       		.uleb128 0x3
 5283 0e6d 4F020000 		.4byte	.LASF215
 5284 0e71 16       		.byte	0x16
 5285 0e72 3C       		.byte	0x3c
 5286 0e73 770E0000 		.4byte	0xe77
 5287 0e77 09       		.uleb128 0x9
 5288 0e78 04       		.byte	0x4
 5289 0e79 7D0E0000 		.4byte	0xe7d
 5290 0e7d 19       		.uleb128 0x19
 5291 0e7e 95040000 		.4byte	0x495
 5292 0e82 9B0E0000 		.4byte	0xe9b
 5293 0e86 15       		.uleb128 0x15
 5294 0e87 C9020000 		.4byte	0x2c9
 5295 0e8b 15       		.uleb128 0x15
 5296 0e8c B90B0000 		.4byte	0xbb9
 5297 0e90 15       		.uleb128 0x15
 5298 0e91 D6050000 		.4byte	0x5d6
 5299 0e95 15       		.uleb128 0x15
 5300 0e96 DC050000 		.4byte	0x5dc
 5301 0e9a 00       		.byte	0
 5302 0e9b 11       		.uleb128 0x11
 5303 0e9c 01       		.byte	0x1
 5304 0e9d 18       		.byte	0x18
 5305 0e9e 2B       		.byte	0x2b
 5306 0e9f FE0E0000 		.4byte	0xefe
 5307 0ea3 12       		.uleb128 0x12
 5308 0ea4 79050000 		.4byte	.LASF216
 5309 0ea8 00       		.sleb128 0
 5310 0ea9 12       		.uleb128 0x12
 5311 0eaa 8E090000 		.4byte	.LASF217
 5312 0eae 01       		.sleb128 1
 5313 0eaf 12       		.uleb128 0x12
 5314 0eb0 4E000000 		.4byte	.LASF218
 5315 0eb4 02       		.sleb128 2
 5316 0eb5 12       		.uleb128 0x12
 5317 0eb6 F80D0000 		.4byte	.LASF219
 5318 0eba 03       		.sleb128 3
 5319 0ebb 12       		.uleb128 0x12
 5320 0ebc B7090000 		.4byte	.LASF220
 5321 0ec0 04       		.sleb128 4
 5322 0ec1 12       		.uleb128 0x12
 5323 0ec2 27090000 		.4byte	.LASF221
 5324 0ec6 05       		.sleb128 5
 5325 0ec7 12       		.uleb128 0x12
 5326 0ec8 50090000 		.4byte	.LASF222
 5327 0ecc 06       		.sleb128 6
 5328 0ecd 12       		.uleb128 0x12
 5329 0ece 39030000 		.4byte	.LASF223
 5330 0ed2 07       		.sleb128 7
 5331 0ed3 12       		.uleb128 0x12
 5332 0ed4 CB040000 		.4byte	.LASF224
 5333 0ed8 08       		.sleb128 8
 5334 0ed9 12       		.uleb128 0x12
 5335 0eda 310C0000 		.4byte	.LASF225
 5336 0ede 09       		.sleb128 9
ARM GAS  /tmp/ccT6pRdh.s 			page 95


 5337 0edf 12       		.uleb128 0x12
 5338 0ee0 E3090000 		.4byte	.LASF226
 5339 0ee4 0A       		.sleb128 10
 5340 0ee5 12       		.uleb128 0x12
 5341 0ee6 B0000000 		.4byte	.LASF227
 5342 0eea 0B       		.sleb128 11
 5343 0eeb 12       		.uleb128 0x12
 5344 0eec AA0B0000 		.4byte	.LASF228
 5345 0ef0 0C       		.sleb128 12
 5346 0ef1 12       		.uleb128 0x12
 5347 0ef2 8F020000 		.4byte	.LASF229
 5348 0ef6 0D       		.sleb128 13
 5349 0ef7 12       		.uleb128 0x12
 5350 0ef8 D60A0000 		.4byte	.LASF230
 5351 0efc 0E       		.sleb128 14
 5352 0efd 00       		.byte	0
 5353 0efe 03       		.uleb128 0x3
 5354 0eff 0D090000 		.4byte	.LASF231
 5355 0f03 18       		.byte	0x18
 5356 0f04 2F       		.byte	0x2f
 5357 0f05 9B0E0000 		.4byte	0xe9b
 5358 0f09 09       		.uleb128 0x9
 5359 0f0a 04       		.byte	0x4
 5360 0f0b FB040000 		.4byte	0x4fb
 5361 0f0f 1B       		.uleb128 0x1b
 5362 0f10 FE0A0000 		.4byte	.LASF326
 5363 0f14 01       		.byte	0x1
 5364 0f15 3901     		.2byte	0x139
 5365 0f17 F0040000 		.4byte	0x4f0
 5366 0f1b 01       		.byte	0x1
 5367 0f1c 510F0000 		.4byte	0xf51
 5368 0f20 1C       		.uleb128 0x1c
 5369 0f21 61726700 		.ascii	"arg\000"
 5370 0f25 01       		.byte	0x1
 5371 0f26 3901     		.2byte	0x139
 5372 0f28 C9020000 		.4byte	0x2c9
 5373 0f2c 1C       		.uleb128 0x1c
 5374 0f2d 70636200 		.ascii	"pcb\000"
 5375 0f31 01       		.byte	0x1
 5376 0f32 3901     		.2byte	0x139
 5377 0f34 A30A0000 		.4byte	0xaa3
 5378 0f38 1C       		.uleb128 0x1c
 5379 0f39 6C656E00 		.ascii	"len\000"
 5380 0f3d 01       		.byte	0x1
 5381 0f3e 3901     		.2byte	0x139
 5382 0f40 AB040000 		.4byte	0x4ab
 5383 0f44 1D       		.uleb128 0x1d
 5384 0f45 3D010000 		.4byte	.LASF189
 5385 0f49 01       		.byte	0x1
 5386 0f4a 3B01     		.2byte	0x13b
 5387 0f4c CB060000 		.4byte	0x6cb
 5388 0f50 00       		.byte	0
 5389 0f51 1E       		.uleb128 0x1e
 5390 0f52 49080000 		.4byte	.LASF234
 5391 0f56 01       		.byte	0x1
 5392 0f57 5B01     		.2byte	0x15b
 5393 0f59 00000000 		.4byte	.LFB12
ARM GAS  /tmp/ccT6pRdh.s 			page 96


 5394 0f5d AE000000 		.4byte	.LFE12-.LFB12
 5395 0f61 01       		.uleb128 0x1
 5396 0f62 9C       		.byte	0x9c
 5397 0f63 A0100000 		.4byte	0x10a0
 5398 0f67 1F       		.uleb128 0x1f
 5399 0f68 61726700 		.ascii	"arg\000"
 5400 0f6c 01       		.byte	0x1
 5401 0f6d 5B01     		.2byte	0x15b
 5402 0f6f C9020000 		.4byte	0x2c9
 5403 0f73 00000000 		.4byte	.LLST0
 5404 0f77 1F       		.uleb128 0x1f
 5405 0f78 65727200 		.ascii	"err\000"
 5406 0f7c 01       		.byte	0x1
 5407 0f7d 5B01     		.2byte	0x15b
 5408 0f7f F0040000 		.4byte	0x4f0
 5409 0f83 73000000 		.4byte	.LLST1
 5410 0f87 20       		.uleb128 0x20
 5411 0f88 3D010000 		.4byte	.LASF189
 5412 0f8c 01       		.byte	0x1
 5413 0f8d 5D01     		.2byte	0x15d
 5414 0f8f CB060000 		.4byte	0x6cb
 5415 0f93 00000000 		.4byte	.LLST0
 5416 0f97 20       		.uleb128 0x20
 5417 0f98 A2010000 		.4byte	.LASF232
 5418 0f9c 01       		.byte	0x1
 5419 0f9d 5E01     		.2byte	0x15e
 5420 0f9f 4F060000 		.4byte	0x64f
 5421 0fa3 AD000000 		.4byte	.LLST3
 5422 0fa7 21       		.uleb128 0x21
 5423 0fa8 00000000 		.4byte	.Ldebug_ranges0+0
 5424 0fac E10F0000 		.4byte	0xfe1
 5425 0fb0 20       		.uleb128 0x20
 5426 0fb1 A7040000 		.4byte	.LASF233
 5427 0fb5 01       		.byte	0x1
 5428 0fb6 8601     		.2byte	0x186
 5429 0fb8 25000000 		.4byte	0x25
 5430 0fbc E4000000 		.4byte	.LLST4
 5431 0fc0 22       		.uleb128 0x22
 5432 0fc1 8A000000 		.4byte	.LVL17
 5433 0fc5 58240000 		.4byte	0x2458
 5434 0fc9 D70F0000 		.4byte	0xfd7
 5435 0fcd 23       		.uleb128 0x23
 5436 0fce 01       		.uleb128 0x1
 5437 0fcf 50       		.byte	0x50
 5438 0fd0 05       		.uleb128 0x5
 5439 0fd1 F3       		.byte	0xf3
 5440 0fd2 01       		.uleb128 0x1
 5441 0fd3 50       		.byte	0x50
 5442 0fd4 23       		.byte	0x23
 5443 0fd5 0C       		.uleb128 0xc
 5444 0fd6 00       		.byte	0
 5445 0fd7 24       		.uleb128 0x24
 5446 0fd8 AA000000 		.4byte	.LVL23
 5447 0fdc 69240000 		.4byte	0x2469
 5448 0fe0 00       		.byte	0
 5449 0fe1 25       		.uleb128 0x25
 5450 0fe2 20000000 		.4byte	.LVL4
ARM GAS  /tmp/ccT6pRdh.s 			page 97


 5451 0fe6 FC0F0000 		.4byte	0xffc
 5452 0fea 23       		.uleb128 0x23
 5453 0feb 01       		.uleb128 0x1
 5454 0fec 52       		.byte	0x52
 5455 0fed 02       		.uleb128 0x2
 5456 0fee 75       		.byte	0x75
 5457 0fef 00       		.sleb128 0
 5458 0ff0 23       		.uleb128 0x23
 5459 0ff1 01       		.uleb128 0x1
 5460 0ff2 51       		.byte	0x51
 5461 0ff3 01       		.uleb128 0x1
 5462 0ff4 34       		.byte	0x34
 5463 0ff5 23       		.uleb128 0x23
 5464 0ff6 01       		.uleb128 0x1
 5465 0ff7 50       		.byte	0x50
 5466 0ff8 02       		.uleb128 0x2
 5467 0ff9 74       		.byte	0x74
 5468 0ffa 00       		.sleb128 0
 5469 0ffb 00       		.byte	0
 5470 0ffc 25       		.uleb128 0x25
 5471 0ffd 2C000000 		.4byte	.LVL5
 5472 1001 18100000 		.4byte	0x1018
 5473 1005 23       		.uleb128 0x23
 5474 1006 01       		.uleb128 0x1
 5475 1007 52       		.byte	0x52
 5476 1008 02       		.uleb128 0x2
 5477 1009 75       		.byte	0x75
 5478 100a 00       		.sleb128 0
 5479 100b 23       		.uleb128 0x23
 5480 100c 01       		.uleb128 0x1
 5481 100d 51       		.byte	0x51
 5482 100e 02       		.uleb128 0x2
 5483 100f 75       		.byte	0x75
 5484 1010 00       		.sleb128 0
 5485 1011 23       		.uleb128 0x23
 5486 1012 01       		.uleb128 0x1
 5487 1013 50       		.byte	0x50
 5488 1014 02       		.uleb128 0x2
 5489 1015 74       		.byte	0x74
 5490 1016 00       		.sleb128 0
 5491 1017 00       		.byte	0
 5492 1018 25       		.uleb128 0x25
 5493 1019 38000000 		.4byte	.LVL6
 5494 101d 33100000 		.4byte	0x1033
 5495 1021 23       		.uleb128 0x23
 5496 1022 01       		.uleb128 0x1
 5497 1023 52       		.byte	0x52
 5498 1024 02       		.uleb128 0x2
 5499 1025 75       		.byte	0x75
 5500 1026 00       		.sleb128 0
 5501 1027 23       		.uleb128 0x23
 5502 1028 01       		.uleb128 0x1
 5503 1029 51       		.byte	0x51
 5504 102a 01       		.uleb128 0x1
 5505 102b 32       		.byte	0x32
 5506 102c 23       		.uleb128 0x23
 5507 102d 01       		.uleb128 0x1
ARM GAS  /tmp/ccT6pRdh.s 			page 98


 5508 102e 50       		.byte	0x50
 5509 102f 02       		.uleb128 0x2
 5510 1030 74       		.byte	0x74
 5511 1031 00       		.sleb128 0
 5512 1032 00       		.byte	0
 5513 1033 26       		.uleb128 0x26
 5514 1034 42000000 		.4byte	.LVL7
 5515 1038 71240000 		.4byte	0x2471
 5516 103c 47100000 		.4byte	0x1047
 5517 1040 23       		.uleb128 0x23
 5518 1041 01       		.uleb128 0x1
 5519 1042 50       		.byte	0x50
 5520 1043 02       		.uleb128 0x2
 5521 1044 75       		.byte	0x75
 5522 1045 00       		.sleb128 0
 5523 1046 00       		.byte	0
 5524 1047 26       		.uleb128 0x26
 5525 1048 4E000000 		.4byte	.LVL8
 5526 104c 71240000 		.4byte	0x2471
 5527 1050 5B100000 		.4byte	0x105b
 5528 1054 23       		.uleb128 0x23
 5529 1055 01       		.uleb128 0x1
 5530 1056 50       		.byte	0x50
 5531 1057 02       		.uleb128 0x2
 5532 1058 75       		.byte	0x75
 5533 1059 00       		.sleb128 0
 5534 105a 00       		.byte	0
 5535 105b 27       		.uleb128 0x27
 5536 105c 68000000 		.4byte	.LVL12
 5537 1060 69240000 		.4byte	0x2469
 5538 1064 26       		.uleb128 0x26
 5539 1065 94000000 		.4byte	.LVL19
 5540 1069 8C240000 		.4byte	0x248c
 5541 106d 7D100000 		.4byte	0x107d
 5542 1071 23       		.uleb128 0x23
 5543 1072 01       		.uleb128 0x1
 5544 1073 51       		.byte	0x51
 5545 1074 01       		.uleb128 0x1
 5546 1075 30       		.byte	0x30
 5547 1076 23       		.uleb128 0x23
 5548 1077 01       		.uleb128 0x1
 5549 1078 50       		.byte	0x50
 5550 1079 02       		.uleb128 0x2
 5551 107a 75       		.byte	0x75
 5552 107b 00       		.sleb128 0
 5553 107c 00       		.byte	0
 5554 107d 26       		.uleb128 0x26
 5555 107e 9E000000 		.4byte	.LVL20
 5556 1082 8C240000 		.4byte	0x248c
 5557 1086 96100000 		.4byte	0x1096
 5558 108a 23       		.uleb128 0x23
 5559 108b 01       		.uleb128 0x1
 5560 108c 51       		.byte	0x51
 5561 108d 01       		.uleb128 0x1
 5562 108e 30       		.byte	0x30
 5563 108f 23       		.uleb128 0x23
 5564 1090 01       		.uleb128 0x1
ARM GAS  /tmp/ccT6pRdh.s 			page 99


 5565 1091 50       		.byte	0x50
 5566 1092 02       		.uleb128 0x2
 5567 1093 75       		.byte	0x75
 5568 1094 00       		.sleb128 0
 5569 1095 00       		.byte	0
 5570 1096 24       		.uleb128 0x24
 5571 1097 A4000000 		.4byte	.LVL22
 5572 109b 69240000 		.4byte	0x2469
 5573 109f 00       		.byte	0
 5574 10a0 28       		.uleb128 0x28
 5575 10a1 37040000 		.4byte	.LASF235
 5576 10a5 01       		.byte	0x1
 5577 10a6 90       		.byte	0x90
 5578 10a7 00000000 		.4byte	.LFB8
 5579 10ab 9A000000 		.4byte	.LFE8-.LFB8
 5580 10af 01       		.uleb128 0x1
 5581 10b0 9C       		.byte	0x9c
 5582 10b1 BC110000 		.4byte	0x11bc
 5583 10b5 29       		.uleb128 0x29
 5584 10b6 61726700 		.ascii	"arg\000"
 5585 10ba 01       		.byte	0x1
 5586 10bb 90       		.byte	0x90
 5587 10bc C9020000 		.4byte	0x2c9
 5588 10c0 1A010000 		.4byte	.LLST5
 5589 10c4 29       		.uleb128 0x29
 5590 10c5 70636200 		.ascii	"pcb\000"
 5591 10c9 01       		.byte	0x1
 5592 10ca 90       		.byte	0x90
 5593 10cb 3A0B0000 		.4byte	0xb3a
 5594 10cf 80010000 		.4byte	.LLST6
 5595 10d3 29       		.uleb128 0x29
 5596 10d4 7000     		.ascii	"p\000"
 5597 10d6 01       		.byte	0x1
 5598 10d7 90       		.byte	0x90
 5599 10d8 D6050000 		.4byte	0x5d6
 5600 10dc BA010000 		.4byte	.LLST7
 5601 10e0 2A       		.uleb128 0x2a
 5602 10e1 2C070000 		.4byte	.LASF83
 5603 10e5 01       		.byte	0x1
 5604 10e6 91       		.byte	0x91
 5605 10e7 DC050000 		.4byte	0x5dc
 5606 10eb 45020000 		.4byte	.LLST8
 5607 10ef 2A       		.uleb128 0x2a
 5608 10f0 A50B0000 		.4byte	.LASF105
 5609 10f4 01       		.byte	0x1
 5610 10f5 91       		.byte	0x91
 5611 10f6 AB040000 		.4byte	0x4ab
 5612 10fa C1020000 		.4byte	.LLST9
 5613 10fe 2B       		.uleb128 0x2b
 5614 10ff 62756600 		.ascii	"buf\000"
 5615 1103 01       		.byte	0x1
 5616 1104 93       		.byte	0x93
 5617 1105 080D0000 		.4byte	0xd08
 5618 1109 05030000 		.4byte	.LLST10
 5619 110d 2C       		.uleb128 0x2c
 5620 110e 3D010000 		.4byte	.LASF189
 5621 1112 01       		.byte	0x1
ARM GAS  /tmp/ccT6pRdh.s 			page 100


 5622 1113 94       		.byte	0x94
 5623 1114 CB060000 		.4byte	0x6cb
 5624 1118 39030000 		.4byte	.LLST11
 5625 111c 2B       		.uleb128 0x2b
 5626 111d 6C656E00 		.ascii	"len\000"
 5627 1121 01       		.byte	0x1
 5628 1122 95       		.byte	0x95
 5629 1123 AB040000 		.4byte	0x4ab
 5630 1127 7E030000 		.4byte	.LLST12
 5631 112b 24       		.uleb128 0x24
 5632 112c 22000000 		.4byte	.LVL27
 5633 1130 69240000 		.4byte	0x2469
 5634 1134 26       		.uleb128 0x26
 5635 1135 2C000000 		.4byte	.LVL28
 5636 1139 71240000 		.4byte	0x2471
 5637 113d 48110000 		.4byte	0x1148
 5638 1141 23       		.uleb128 0x23
 5639 1142 01       		.uleb128 0x1
 5640 1143 50       		.byte	0x50
 5641 1144 02       		.uleb128 0x2
 5642 1145 77       		.byte	0x77
 5643 1146 00       		.sleb128 0
 5644 1147 00       		.byte	0
 5645 1148 22       		.uleb128 0x22
 5646 1149 3A000000 		.4byte	.LVL30
 5647 114d A6240000 		.4byte	0x24a6
 5648 1151 5D110000 		.4byte	0x115d
 5649 1155 23       		.uleb128 0x23
 5650 1156 01       		.uleb128 0x1
 5651 1157 50       		.byte	0x50
 5652 1158 03       		.uleb128 0x3
 5653 1159 F3       		.byte	0xf3
 5654 115a 01       		.uleb128 0x1
 5655 115b 52       		.byte	0x52
 5656 115c 00       		.byte	0
 5657 115d 26       		.uleb128 0x26
 5658 115e 40000000 		.4byte	.LVL31
 5659 1162 BB240000 		.4byte	0x24bb
 5660 1166 70110000 		.4byte	0x1170
 5661 116a 23       		.uleb128 0x23
 5662 116b 01       		.uleb128 0x1
 5663 116c 50       		.byte	0x50
 5664 116d 01       		.uleb128 0x1
 5665 116e 37       		.byte	0x37
 5666 116f 00       		.byte	0
 5667 1170 26       		.uleb128 0x26
 5668 1171 66000000 		.4byte	.LVL36
 5669 1175 8C240000 		.4byte	0x248c
 5670 1179 8A110000 		.4byte	0x118a
 5671 117d 23       		.uleb128 0x23
 5672 117e 01       		.uleb128 0x1
 5673 117f 51       		.byte	0x51
 5674 1180 02       		.uleb128 0x2
 5675 1181 76       		.byte	0x76
 5676 1182 00       		.sleb128 0
 5677 1183 23       		.uleb128 0x23
 5678 1184 01       		.uleb128 0x1
ARM GAS  /tmp/ccT6pRdh.s 			page 101


 5679 1185 50       		.byte	0x50
 5680 1186 02       		.uleb128 0x2
 5681 1187 77       		.byte	0x77
 5682 1188 00       		.sleb128 0
 5683 1189 00       		.byte	0
 5684 118a 25       		.uleb128 0x25
 5685 118b 74000000 		.4byte	.LVL37
 5686 118f A0110000 		.4byte	0x11a0
 5687 1193 23       		.uleb128 0x23
 5688 1194 01       		.uleb128 0x1
 5689 1195 52       		.byte	0x52
 5690 1196 02       		.uleb128 0x2
 5691 1197 75       		.byte	0x75
 5692 1198 00       		.sleb128 0
 5693 1199 23       		.uleb128 0x23
 5694 119a 01       		.uleb128 0x1
 5695 119b 50       		.byte	0x50
 5696 119c 02       		.uleb128 0x2
 5697 119d 74       		.byte	0x74
 5698 119e 00       		.sleb128 0
 5699 119f 00       		.byte	0
 5700 11a0 24       		.uleb128 0x24
 5701 11a1 80000000 		.4byte	.LVL39
 5702 11a5 69240000 		.4byte	0x2469
 5703 11a9 27       		.uleb128 0x27
 5704 11aa 90000000 		.4byte	.LVL42
 5705 11ae D0240000 		.4byte	0x24d0
 5706 11b2 24       		.uleb128 0x24
 5707 11b3 96000000 		.4byte	.LVL43
 5708 11b7 69240000 		.4byte	0x2469
 5709 11bb 00       		.byte	0
 5710 11bc 2D       		.uleb128 0x2d
 5711 11bd 18020000 		.4byte	.LASF237
 5712 11c1 01       		.byte	0x1
 5713 11c2 4E       		.byte	0x4e
 5714 11c3 95040000 		.4byte	0x495
 5715 11c7 00000000 		.4byte	.LFB7
 5716 11cb 8A000000 		.4byte	.LFE7-.LFB7
 5717 11cf 01       		.uleb128 0x1
 5718 11d0 9C       		.byte	0x9c
 5719 11d1 FD120000 		.4byte	0x12fd
 5720 11d5 29       		.uleb128 0x29
 5721 11d6 61726700 		.ascii	"arg\000"
 5722 11da 01       		.byte	0x1
 5723 11db 4E       		.byte	0x4e
 5724 11dc C9020000 		.4byte	0x2c9
 5725 11e0 AB030000 		.4byte	.LLST13
 5726 11e4 29       		.uleb128 0x29
 5727 11e5 70636200 		.ascii	"pcb\000"
 5728 11e9 01       		.byte	0x1
 5729 11ea 4E       		.byte	0x4e
 5730 11eb B90B0000 		.4byte	0xbb9
 5731 11ef C9030000 		.4byte	.LLST14
 5732 11f3 29       		.uleb128 0x29
 5733 11f4 7000     		.ascii	"p\000"
 5734 11f6 01       		.byte	0x1
 5735 11f7 4E       		.byte	0x4e
ARM GAS  /tmp/ccT6pRdh.s 			page 102


 5736 11f8 D6050000 		.4byte	0x5d6
 5737 11fc 27040000 		.4byte	.LLST15
 5738 1200 2A       		.uleb128 0x2a
 5739 1201 2C070000 		.4byte	.LASF83
 5740 1205 01       		.byte	0x1
 5741 1206 4F       		.byte	0x4f
 5742 1207 DC050000 		.4byte	0x5dc
 5743 120b 6C040000 		.4byte	.LLST16
 5744 120f 2B       		.uleb128 0x2b
 5745 1210 7100     		.ascii	"q\000"
 5746 1212 01       		.byte	0x1
 5747 1213 51       		.byte	0x51
 5748 1214 D6050000 		.4byte	0x5d6
 5749 1218 8D040000 		.4byte	.LLST17
 5750 121c 2B       		.uleb128 0x2b
 5751 121d 62756600 		.ascii	"buf\000"
 5752 1221 01       		.byte	0x1
 5753 1222 52       		.byte	0x52
 5754 1223 080D0000 		.4byte	0xd08
 5755 1227 AB040000 		.4byte	.LLST18
 5756 122b 2C       		.uleb128 0x2c
 5757 122c 3D010000 		.4byte	.LASF189
 5758 1230 01       		.byte	0x1
 5759 1231 53       		.byte	0x53
 5760 1232 CB060000 		.4byte	0x6cb
 5761 1236 AB030000 		.4byte	.LLST13
 5762 123a 21       		.uleb128 0x21
 5763 123b 20000000 		.4byte	.Ldebug_ranges0+0x20
 5764 123f BA120000 		.4byte	0x12ba
 5765 1243 2B       		.uleb128 0x2b
 5766 1244 6C656E00 		.ascii	"len\000"
 5767 1248 01       		.byte	0x1
 5768 1249 6A       		.byte	0x6a
 5769 124a AB040000 		.4byte	0x4ab
 5770 124e DF040000 		.4byte	.LLST20
 5771 1252 26       		.uleb128 0x26
 5772 1253 3C000000 		.4byte	.LVL51
 5773 1257 BB240000 		.4byte	0x24bb
 5774 125b 65120000 		.4byte	0x1265
 5775 125f 23       		.uleb128 0x23
 5776 1260 01       		.uleb128 0x1
 5777 1261 50       		.byte	0x50
 5778 1262 01       		.uleb128 0x1
 5779 1263 37       		.byte	0x37
 5780 1264 00       		.byte	0
 5781 1265 26       		.uleb128 0x26
 5782 1266 64000000 		.4byte	.LVL55
 5783 126a 8C240000 		.4byte	0x248c
 5784 126e 7F120000 		.4byte	0x127f
 5785 1272 23       		.uleb128 0x23
 5786 1273 01       		.uleb128 0x1
 5787 1274 51       		.byte	0x51
 5788 1275 02       		.uleb128 0x2
 5789 1276 76       		.byte	0x76
 5790 1277 00       		.sleb128 0
 5791 1278 23       		.uleb128 0x23
 5792 1279 01       		.uleb128 0x1
ARM GAS  /tmp/ccT6pRdh.s 			page 103


 5793 127a 50       		.byte	0x50
 5794 127b 02       		.uleb128 0x2
 5795 127c 75       		.byte	0x75
 5796 127d 00       		.sleb128 0
 5797 127e 00       		.byte	0
 5798 127f 25       		.uleb128 0x25
 5799 1280 74000000 		.4byte	.LVL56
 5800 1284 95120000 		.4byte	0x1295
 5801 1288 23       		.uleb128 0x23
 5802 1289 01       		.uleb128 0x1
 5803 128a 52       		.byte	0x52
 5804 128b 02       		.uleb128 0x2
 5805 128c 77       		.byte	0x77
 5806 128d 00       		.sleb128 0
 5807 128e 23       		.uleb128 0x23
 5808 128f 01       		.uleb128 0x1
 5809 1290 50       		.byte	0x50
 5810 1291 02       		.uleb128 0x2
 5811 1292 74       		.byte	0x74
 5812 1293 00       		.sleb128 0
 5813 1294 00       		.byte	0
 5814 1295 26       		.uleb128 0x26
 5815 1296 80000000 		.4byte	.LVL58
 5816 129a A6240000 		.4byte	0x24a6
 5817 129e A9120000 		.4byte	0x12a9
 5818 12a2 23       		.uleb128 0x23
 5819 12a3 01       		.uleb128 0x1
 5820 12a4 50       		.byte	0x50
 5821 12a5 02       		.uleb128 0x2
 5822 12a6 78       		.byte	0x78
 5823 12a7 00       		.sleb128 0
 5824 12a8 00       		.byte	0
 5825 12a9 2E       		.uleb128 0x2e
 5826 12aa 88000000 		.4byte	.LVL60
 5827 12ae D0240000 		.4byte	0x24d0
 5828 12b2 23       		.uleb128 0x23
 5829 12b3 01       		.uleb128 0x1
 5830 12b4 50       		.byte	0x50
 5831 12b5 02       		.uleb128 0x2
 5832 12b6 76       		.byte	0x76
 5833 12b7 00       		.sleb128 0
 5834 12b8 00       		.byte	0
 5835 12b9 00       		.byte	0
 5836 12ba 26       		.uleb128 0x26
 5837 12bb 16000000 		.4byte	.LVL46
 5838 12bf 71240000 		.4byte	0x2471
 5839 12c3 CE120000 		.4byte	0x12ce
 5840 12c7 23       		.uleb128 0x23
 5841 12c8 01       		.uleb128 0x1
 5842 12c9 50       		.byte	0x50
 5843 12ca 02       		.uleb128 0x2
 5844 12cb 75       		.byte	0x75
 5845 12cc 00       		.sleb128 0
 5846 12cd 00       		.byte	0
 5847 12ce 26       		.uleb128 0x26
 5848 12cf 28000000 		.4byte	.LVL49
 5849 12d3 E1240000 		.4byte	0x24e1
ARM GAS  /tmp/ccT6pRdh.s 			page 104


 5850 12d7 E6120000 		.4byte	0x12e6
 5851 12db 23       		.uleb128 0x23
 5852 12dc 01       		.uleb128 0x1
 5853 12dd 52       		.byte	0x52
 5854 12de 01       		.uleb128 0x1
 5855 12df 30       		.byte	0x30
 5856 12e0 23       		.uleb128 0x23
 5857 12e1 01       		.uleb128 0x1
 5858 12e2 50       		.byte	0x50
 5859 12e3 01       		.uleb128 0x1
 5860 12e4 33       		.byte	0x33
 5861 12e5 00       		.byte	0
 5862 12e6 2E       		.uleb128 0x2e
 5863 12e7 34000000 		.4byte	.LVL50
 5864 12eb 00250000 		.4byte	0x2500
 5865 12ef 23       		.uleb128 0x23
 5866 12f0 01       		.uleb128 0x1
 5867 12f1 51       		.byte	0x51
 5868 12f2 02       		.uleb128 0x2
 5869 12f3 76       		.byte	0x76
 5870 12f4 00       		.sleb128 0
 5871 12f5 23       		.uleb128 0x23
 5872 12f6 01       		.uleb128 0x1
 5873 12f7 50       		.byte	0x50
 5874 12f8 02       		.uleb128 0x2
 5875 12f9 78       		.byte	0x78
 5876 12fa 00       		.sleb128 0
 5877 12fb 00       		.byte	0
 5878 12fc 00       		.byte	0
 5879 12fd 1E       		.uleb128 0x1e
 5880 12fe B3080000 		.4byte	.LASF236
 5881 1302 01       		.byte	0x1
 5882 1303 9D01     		.2byte	0x19d
 5883 1305 00000000 		.4byte	.LFB13
 5884 1309 4A000000 		.4byte	.LFE13-.LFB13
 5885 130d 01       		.uleb128 0x1
 5886 130e 9C       		.byte	0x9c
 5887 130f BE130000 		.4byte	0x13be
 5888 1313 2F       		.uleb128 0x2f
 5889 1314 3D010000 		.4byte	.LASF189
 5890 1318 01       		.byte	0x1
 5891 1319 9D01     		.2byte	0x19d
 5892 131b CB060000 		.4byte	0x6cb
 5893 131f 09050000 		.4byte	.LLST21
 5894 1323 30       		.uleb128 0x30
 5895 1324 70636200 		.ascii	"pcb\000"
 5896 1328 01       		.byte	0x1
 5897 1329 9F01     		.2byte	0x19f
 5898 132b A30A0000 		.4byte	0xaa3
 5899 132f 35050000 		.4byte	.LLST22
 5900 1333 26       		.uleb128 0x26
 5901 1334 0C000000 		.4byte	.LVL64
 5902 1338 1A250000 		.4byte	0x251a
 5903 133c 4E130000 		.4byte	0x134e
 5904 1340 23       		.uleb128 0x23
 5905 1341 01       		.uleb128 0x1
 5906 1342 51       		.byte	0x51
ARM GAS  /tmp/ccT6pRdh.s 			page 105


 5907 1343 03       		.uleb128 0x3
 5908 1344 F3       		.byte	0xf3
 5909 1345 01       		.uleb128 0x1
 5910 1346 50       		.byte	0x50
 5911 1347 23       		.uleb128 0x23
 5912 1348 01       		.uleb128 0x1
 5913 1349 50       		.byte	0x50
 5914 134a 02       		.uleb128 0x2
 5915 134b 74       		.byte	0x74
 5916 134c 00       		.sleb128 0
 5917 134d 00       		.byte	0
 5918 134e 26       		.uleb128 0x26
 5919 134f 1A000000 		.4byte	.LVL65
 5920 1353 31250000 		.4byte	0x2531
 5921 1357 6B130000 		.4byte	0x136b
 5922 135b 23       		.uleb128 0x23
 5923 135c 01       		.uleb128 0x1
 5924 135d 51       		.byte	0x51
 5925 135e 05       		.uleb128 0x5
 5926 135f 03       		.byte	0x3
 5927 1360 00000000 		.4byte	recv_tcp
 5928 1364 23       		.uleb128 0x23
 5929 1365 01       		.uleb128 0x1
 5930 1366 50       		.byte	0x50
 5931 1367 02       		.uleb128 0x2
 5932 1368 74       		.byte	0x74
 5933 1369 00       		.sleb128 0
 5934 136a 00       		.byte	0
 5935 136b 26       		.uleb128 0x26
 5936 136c 28000000 		.4byte	.LVL66
 5937 1370 48250000 		.4byte	0x2548
 5938 1374 88130000 		.4byte	0x1388
 5939 1378 23       		.uleb128 0x23
 5940 1379 01       		.uleb128 0x1
 5941 137a 51       		.byte	0x51
 5942 137b 05       		.uleb128 0x5
 5943 137c 03       		.byte	0x3
 5944 137d 00000000 		.4byte	sent_tcp
 5945 1381 23       		.uleb128 0x23
 5946 1382 01       		.uleb128 0x1
 5947 1383 50       		.byte	0x50
 5948 1384 02       		.uleb128 0x2
 5949 1385 74       		.byte	0x74
 5950 1386 00       		.sleb128 0
 5951 1387 00       		.byte	0
 5952 1388 26       		.uleb128 0x26
 5953 1389 38000000 		.4byte	.LVL67
 5954 138d 5F250000 		.4byte	0x255f
 5955 1391 AA130000 		.4byte	0x13aa
 5956 1395 23       		.uleb128 0x23
 5957 1396 01       		.uleb128 0x1
 5958 1397 52       		.byte	0x52
 5959 1398 01       		.uleb128 0x1
 5960 1399 34       		.byte	0x34
 5961 139a 23       		.uleb128 0x23
 5962 139b 01       		.uleb128 0x1
 5963 139c 51       		.byte	0x51
ARM GAS  /tmp/ccT6pRdh.s 			page 106


 5964 139d 05       		.uleb128 0x5
 5965 139e 03       		.byte	0x3
 5966 139f 00000000 		.4byte	poll_tcp
 5967 13a3 23       		.uleb128 0x23
 5968 13a4 01       		.uleb128 0x1
 5969 13a5 50       		.byte	0x50
 5970 13a6 02       		.uleb128 0x2
 5971 13a7 74       		.byte	0x74
 5972 13a8 00       		.sleb128 0
 5973 13a9 00       		.byte	0
 5974 13aa 31       		.uleb128 0x31
 5975 13ab 4A000000 		.4byte	.LVL69
 5976 13af 7B250000 		.4byte	0x257b
 5977 13b3 23       		.uleb128 0x23
 5978 13b4 01       		.uleb128 0x1
 5979 13b5 51       		.byte	0x51
 5980 13b6 05       		.uleb128 0x5
 5981 13b7 03       		.byte	0x3
 5982 13b8 00000000 		.4byte	err_tcp
 5983 13bc 00       		.byte	0
 5984 13bd 00       		.byte	0
 5985 13be 32       		.uleb128 0x32
 5986 13bf 510D0000 		.4byte	.LASF238
 5987 13c3 01       		.byte	0x1
 5988 13c4 A903     		.2byte	0x3a9
 5989 13c6 F0040000 		.4byte	0x4f0
 5990 13ca 00000000 		.4byte	.LFB23
 5991 13ce 84000000 		.4byte	.LFE23-.LFB23
 5992 13d2 01       		.uleb128 0x1
 5993 13d3 9C       		.byte	0x9c
 5994 13d4 7D140000 		.4byte	0x147d
 5995 13d8 1F       		.uleb128 0x1f
 5996 13d9 61726700 		.ascii	"arg\000"
 5997 13dd 01       		.byte	0x1
 5998 13de A903     		.2byte	0x3a9
 5999 13e0 C9020000 		.4byte	0x2c9
 6000 13e4 53050000 		.4byte	.LLST23
 6001 13e8 1F       		.uleb128 0x1f
 6002 13e9 70636200 		.ascii	"pcb\000"
 6003 13ed 01       		.byte	0x1
 6004 13ee A903     		.2byte	0x3a9
 6005 13f0 A30A0000 		.4byte	0xaa3
 6006 13f4 87050000 		.4byte	.LLST24
 6007 13f8 1F       		.uleb128 0x1f
 6008 13f9 65727200 		.ascii	"err\000"
 6009 13fd 01       		.byte	0x1
 6010 13fe A903     		.2byte	0x3a9
 6011 1400 F0040000 		.4byte	0x4f0
 6012 1404 B3050000 		.4byte	.LLST25
 6013 1408 20       		.uleb128 0x20
 6014 1409 3D010000 		.4byte	.LASF189
 6015 140d 01       		.byte	0x1
 6016 140e AB03     		.2byte	0x3ab
 6017 1410 CB060000 		.4byte	0x6cb
 6018 1414 53050000 		.4byte	.LLST23
 6019 1418 20       		.uleb128 0x20
 6020 1419 760A0000 		.4byte	.LASF239
ARM GAS  /tmp/ccT6pRdh.s 			page 107


 6021 141d 01       		.byte	0x1
 6022 141e AC03     		.2byte	0x3ac
 6023 1420 25000000 		.4byte	0x25
 6024 1424 DF050000 		.4byte	.LLST27
 6025 1428 24       		.uleb128 0x24
 6026 1429 14000000 		.4byte	.LVL71
 6027 142d 69240000 		.4byte	0x2469
 6028 1431 25       		.uleb128 0x25
 6029 1432 44000000 		.4byte	.LVL73
 6030 1436 4B140000 		.4byte	0x144b
 6031 143a 23       		.uleb128 0x23
 6032 143b 01       		.uleb128 0x1
 6033 143c 52       		.byte	0x52
 6034 143d 01       		.uleb128 0x1
 6035 143e 30       		.byte	0x30
 6036 143f 23       		.uleb128 0x23
 6037 1440 01       		.uleb128 0x1
 6038 1441 51       		.byte	0x51
 6039 1442 01       		.uleb128 0x1
 6040 1443 32       		.byte	0x32
 6041 1444 23       		.uleb128 0x23
 6042 1445 01       		.uleb128 0x1
 6043 1446 50       		.byte	0x50
 6044 1447 02       		.uleb128 0x2
 6045 1448 74       		.byte	0x74
 6046 1449 00       		.sleb128 0
 6047 144a 00       		.byte	0
 6048 144b 26       		.uleb128 0x26
 6049 144c 50000000 		.4byte	.LVL76
 6050 1450 58240000 		.4byte	0x2458
 6051 1454 5F140000 		.4byte	0x145f
 6052 1458 23       		.uleb128 0x23
 6053 1459 01       		.uleb128 0x1
 6054 145a 50       		.byte	0x50
 6055 145b 02       		.uleb128 0x2
 6056 145c 74       		.byte	0x74
 6057 145d 0C       		.sleb128 12
 6058 145e 00       		.byte	0
 6059 145f 26       		.uleb128 0x26
 6060 1460 6C000000 		.4byte	.LVL80
 6061 1464 FD120000 		.4byte	0x12fd
 6062 1468 73140000 		.4byte	0x1473
 6063 146c 23       		.uleb128 0x23
 6064 146d 01       		.uleb128 0x1
 6065 146e 50       		.byte	0x50
 6066 146f 02       		.uleb128 0x2
 6067 1470 74       		.byte	0x74
 6068 1471 00       		.sleb128 0
 6069 1472 00       		.byte	0
 6070 1473 24       		.uleb128 0x24
 6071 1474 78000000 		.4byte	.LVL81
 6072 1478 69240000 		.4byte	0x2469
 6073 147c 00       		.byte	0
 6074 147d 32       		.uleb128 0x32
 6075 147e 240C0000 		.4byte	.LASF240
 6076 1482 01       		.byte	0x1
 6077 1483 B804     		.2byte	0x4b8
ARM GAS  /tmp/ccT6pRdh.s 			page 108


 6078 1485 F0040000 		.4byte	0x4f0
 6079 1489 00000000 		.4byte	.LFB29
 6080 148d 6C010000 		.4byte	.LFE29-.LFB29
 6081 1491 01       		.uleb128 0x1
 6082 1492 9C       		.byte	0x9c
 6083 1493 DB150000 		.4byte	0x15db
 6084 1497 2F       		.uleb128 0x2f
 6085 1498 3D010000 		.4byte	.LASF189
 6086 149c 01       		.byte	0x1
 6087 149d B804     		.2byte	0x4b8
 6088 149f CB060000 		.4byte	0x6cb
 6089 14a3 13060000 		.4byte	.LLST28
 6090 14a7 30       		.uleb128 0x30
 6091 14a8 65727200 		.ascii	"err\000"
 6092 14ac 01       		.byte	0x1
 6093 14ad BA04     		.2byte	0x4ba
 6094 14af F0040000 		.4byte	0x4f0
 6095 14b3 31060000 		.4byte	.LLST29
 6096 14b7 20       		.uleb128 0x20
 6097 14b8 EC0C0000 		.4byte	.LASF193
 6098 14bc 01       		.byte	0x1
 6099 14bd BB04     		.2byte	0x4bb
 6100 14bf C9020000 		.4byte	0x2c9
 6101 14c3 7B060000 		.4byte	.LLST30
 6102 14c7 30       		.uleb128 0x30
 6103 14c8 6C656E00 		.ascii	"len\000"
 6104 14cc 01       		.byte	0x1
 6105 14cd BC04     		.2byte	0x4bc
 6106 14cf AB040000 		.4byte	0x4ab
 6107 14d3 A4060000 		.4byte	.LLST31
 6108 14d7 20       		.uleb128 0x20
 6109 14d8 E7050000 		.4byte	.LASF241
 6110 14dc 01       		.byte	0x1
 6111 14dd BC04     		.2byte	0x4bc
 6112 14df AB040000 		.4byte	0x4ab
 6113 14e3 13070000 		.4byte	.LLST32
 6114 14e7 20       		.uleb128 0x20
 6115 14e8 40020000 		.4byte	.LASF242
 6116 14ec 01       		.byte	0x1
 6117 14ed BD04     		.2byte	0x4bd
 6118 14ef 95040000 		.4byte	0x495
 6119 14f3 63070000 		.4byte	.LLST33
 6120 14f7 33       		.uleb128 0x33
 6121 14f8 AC010000 		.4byte	.LASF243
 6122 14fc 01       		.byte	0x1
 6123 14fd BE04     		.2byte	0x4be
 6124 14ff 2C000000 		.4byte	0x2c
 6125 1503 01       		.uleb128 0x1
 6126 1504 55       		.byte	0x55
 6127 1505 20       		.uleb128 0x20
 6128 1506 5F060000 		.4byte	.LASF244
 6129 150a 01       		.byte	0x1
 6130 150b BF04     		.2byte	0x4bf
 6131 150d 95040000 		.4byte	0x495
 6132 1511 A7070000 		.4byte	.LLST34
 6133 1515 20       		.uleb128 0x20
 6134 1516 490C0000 		.4byte	.LASF194
ARM GAS  /tmp/ccT6pRdh.s 			page 109


 6135 151a 01       		.byte	0x1
 6136 151b C104     		.2byte	0x4c1
 6137 151d 95040000 		.4byte	0x495
 6138 1521 DF070000 		.4byte	.LLST35
 6139 1525 34       		.uleb128 0x34
 6140 1526 31030000 		.4byte	.LASF252
 6141 152a 01       		.byte	0x1
 6142 152b F904     		.2byte	0x4f9
 6143 152d 28010000 		.4byte	.L118
 6144 1531 24       		.uleb128 0x24
 6145 1532 28000000 		.4byte	.LVL86
 6146 1536 69240000 		.4byte	0x2469
 6147 153a 26       		.uleb128 0x26
 6148 153b 82000000 		.4byte	.LVL93
 6149 153f 92250000 		.4byte	0x2592
 6150 1543 5A150000 		.4byte	0x155a
 6151 1547 23       		.uleb128 0x23
 6152 1548 01       		.uleb128 0x1
 6153 1549 53       		.byte	0x53
 6154 154a 02       		.uleb128 0x2
 6155 154b 77       		.byte	0x77
 6156 154c 00       		.sleb128 0
 6157 154d 23       		.uleb128 0x23
 6158 154e 01       		.uleb128 0x1
 6159 154f 52       		.byte	0x52
 6160 1550 02       		.uleb128 0x2
 6161 1551 75       		.byte	0x75
 6162 1552 00       		.sleb128 0
 6163 1553 23       		.uleb128 0x23
 6164 1554 01       		.uleb128 0x1
 6165 1555 51       		.byte	0x51
 6166 1556 02       		.uleb128 0x2
 6167 1557 7B       		.byte	0x7b
 6168 1558 00       		.sleb128 0
 6169 1559 00       		.byte	0
 6170 155a 26       		.uleb128 0x26
 6171 155b B8000000 		.4byte	.LVL99
 6172 155f 58240000 		.4byte	0x2458
 6173 1563 6E150000 		.4byte	0x156e
 6174 1567 23       		.uleb128 0x23
 6175 1568 01       		.uleb128 0x1
 6176 1569 50       		.byte	0x50
 6177 156a 02       		.uleb128 0x2
 6178 156b 74       		.byte	0x74
 6179 156c 0C       		.sleb128 12
 6180 156d 00       		.byte	0
 6181 156e 25       		.uleb128 0x25
 6182 156f D8000000 		.4byte	.LVL102
 6183 1573 89150000 		.4byte	0x1589
 6184 1577 23       		.uleb128 0x23
 6185 1578 01       		.uleb128 0x1
 6186 1579 52       		.byte	0x52
 6187 157a 02       		.uleb128 0x2
 6188 157b 7A       		.byte	0x7a
 6189 157c 00       		.sleb128 0
 6190 157d 23       		.uleb128 0x23
 6191 157e 01       		.uleb128 0x1
ARM GAS  /tmp/ccT6pRdh.s 			page 110


 6192 157f 51       		.byte	0x51
 6193 1580 01       		.uleb128 0x1
 6194 1581 33       		.byte	0x33
 6195 1582 23       		.uleb128 0x23
 6196 1583 01       		.uleb128 0x1
 6197 1584 50       		.byte	0x50
 6198 1585 02       		.uleb128 0x2
 6199 1586 74       		.byte	0x74
 6200 1587 00       		.sleb128 0
 6201 1588 00       		.byte	0
 6202 1589 24       		.uleb128 0x24
 6203 158a 06010000 		.4byte	.LVL106
 6204 158e B7250000 		.4byte	0x25b7
 6205 1592 24       		.uleb128 0x24
 6206 1593 0E010000 		.4byte	.LVL108
 6207 1597 B7250000 		.4byte	0x25b7
 6208 159b 24       		.uleb128 0x24
 6209 159c 18010000 		.4byte	.LVL110
 6210 15a0 69240000 		.4byte	0x2469
 6211 15a4 24       		.uleb128 0x24
 6212 15a5 24010000 		.4byte	.LVL112
 6213 15a9 69240000 		.4byte	0x2469
 6214 15ad 25       		.uleb128 0x25
 6215 15ae 48010000 		.4byte	.LVL115
 6216 15b2 C8150000 		.4byte	0x15c8
 6217 15b6 23       		.uleb128 0x23
 6218 15b7 01       		.uleb128 0x1
 6219 15b8 52       		.byte	0x52
 6220 15b9 02       		.uleb128 0x2
 6221 15ba 75       		.byte	0x75
 6222 15bb 00       		.sleb128 0
 6223 15bc 23       		.uleb128 0x23
 6224 15bd 01       		.uleb128 0x1
 6225 15be 51       		.byte	0x51
 6226 15bf 01       		.uleb128 0x1
 6227 15c0 33       		.byte	0x33
 6228 15c1 23       		.uleb128 0x23
 6229 15c2 01       		.uleb128 0x1
 6230 15c3 50       		.byte	0x50
 6231 15c4 02       		.uleb128 0x2
 6232 15c5 74       		.byte	0x74
 6233 15c6 00       		.sleb128 0
 6234 15c7 00       		.byte	0
 6235 15c8 24       		.uleb128 0x24
 6236 15c9 58010000 		.4byte	.LVL117
 6237 15cd 69240000 		.4byte	0x2469
 6238 15d1 24       		.uleb128 0x24
 6239 15d2 6A010000 		.4byte	.LVL122
 6240 15d6 69240000 		.4byte	0x2469
 6241 15da 00       		.byte	0
 6242 15db 1E       		.uleb128 0x1e
 6243 15dc 890D0000 		.4byte	.LASF245
 6244 15e0 01       		.byte	0x1
 6245 15e1 EB02     		.2byte	0x2eb
 6246 15e3 00000000 		.4byte	.LFB20
 6247 15e7 54010000 		.4byte	.LFE20-.LFB20
 6248 15eb 01       		.uleb128 0x1
ARM GAS  /tmp/ccT6pRdh.s 			page 111


 6249 15ec 9C       		.byte	0x9c
 6250 15ed F4170000 		.4byte	0x17f4
 6251 15f1 2F       		.uleb128 0x2f
 6252 15f2 3D010000 		.4byte	.LASF189
 6253 15f6 01       		.byte	0x1
 6254 15f7 EB02     		.2byte	0x2eb
 6255 15f9 CB060000 		.4byte	0x6cb
 6256 15fd 29080000 		.4byte	.LLST36
 6257 1601 30       		.uleb128 0x30
 6258 1602 65727200 		.ascii	"err\000"
 6259 1606 01       		.byte	0x1
 6260 1607 ED02     		.2byte	0x2ed
 6261 1609 F0040000 		.4byte	0x4f0
 6262 160d A7080000 		.4byte	.LLST37
 6263 1611 20       		.uleb128 0x20
 6264 1612 4F040000 		.4byte	.LASF195
 6265 1616 01       		.byte	0x1
 6266 1617 EE02     		.2byte	0x2ee
 6267 1619 95040000 		.4byte	0x495
 6268 161d DB080000 		.4byte	.LLST38
 6269 1621 20       		.uleb128 0x20
 6270 1622 C20C0000 		.4byte	.LASF246
 6271 1626 01       		.byte	0x1
 6272 1627 EE02     		.2byte	0x2ee
 6273 1629 95040000 		.4byte	0x495
 6274 162d 06090000 		.4byte	.LLST39
 6275 1631 20       		.uleb128 0x20
 6276 1632 A30D0000 		.4byte	.LASF247
 6277 1636 01       		.byte	0x1
 6278 1637 EE02     		.2byte	0x2ee
 6279 1639 95040000 		.4byte	0x495
 6280 163d 2F090000 		.4byte	.LLST40
 6281 1641 20       		.uleb128 0x20
 6282 1642 F4060000 		.4byte	.LASF248
 6283 1646 01       		.byte	0x1
 6284 1647 EE02     		.2byte	0x2ee
 6285 1649 95040000 		.4byte	0x495
 6286 164d 58090000 		.4byte	.LLST41
 6287 1651 24       		.uleb128 0x24
 6288 1652 14000000 		.4byte	.LVL125
 6289 1656 69240000 		.4byte	0x2469
 6290 165a 24       		.uleb128 0x24
 6291 165b 1E000000 		.4byte	.LVL126
 6292 165f 69240000 		.4byte	0x2469
 6293 1663 26       		.uleb128 0x26
 6294 1664 60000000 		.4byte	.LVL131
 6295 1668 CD250000 		.4byte	0x25cd
 6296 166c 7D160000 		.4byte	0x167d
 6297 1670 23       		.uleb128 0x23
 6298 1671 01       		.uleb128 0x1
 6299 1672 52       		.byte	0x52
 6300 1673 02       		.uleb128 0x2
 6301 1674 76       		.byte	0x76
 6302 1675 00       		.sleb128 0
 6303 1676 23       		.uleb128 0x23
 6304 1677 01       		.uleb128 0x1
 6305 1678 51       		.byte	0x51
ARM GAS  /tmp/ccT6pRdh.s 			page 112


 6306 1679 02       		.uleb128 0x2
 6307 167a 77       		.byte	0x77
 6308 167b 00       		.sleb128 0
 6309 167c 00       		.byte	0
 6310 167d 25       		.uleb128 0x25
 6311 167e 7A000000 		.4byte	.LVL133
 6312 1682 92160000 		.4byte	0x1692
 6313 1686 23       		.uleb128 0x23
 6314 1687 01       		.uleb128 0x1
 6315 1688 51       		.byte	0x51
 6316 1689 01       		.uleb128 0x1
 6317 168a 34       		.byte	0x34
 6318 168b 23       		.uleb128 0x23
 6319 168c 01       		.uleb128 0x1
 6320 168d 50       		.byte	0x50
 6321 168e 02       		.uleb128 0x2
 6322 168f 74       		.byte	0x74
 6323 1690 00       		.sleb128 0
 6324 1691 00       		.byte	0
 6325 1692 25       		.uleb128 0x25
 6326 1693 88000000 		.4byte	.LVL134
 6327 1697 AC160000 		.4byte	0x16ac
 6328 169b 23       		.uleb128 0x23
 6329 169c 01       		.uleb128 0x1
 6330 169d 52       		.byte	0x52
 6331 169e 01       		.uleb128 0x1
 6332 169f 30       		.byte	0x30
 6333 16a0 23       		.uleb128 0x23
 6334 16a1 01       		.uleb128 0x1
 6335 16a2 51       		.byte	0x51
 6336 16a3 01       		.uleb128 0x1
 6337 16a4 30       		.byte	0x30
 6338 16a5 23       		.uleb128 0x23
 6339 16a6 01       		.uleb128 0x1
 6340 16a7 50       		.byte	0x50
 6341 16a8 02       		.uleb128 0x2
 6342 16a9 74       		.byte	0x74
 6343 16aa 00       		.sleb128 0
 6344 16ab 00       		.byte	0
 6345 16ac 25       		.uleb128 0x25
 6346 16ad 96000000 		.4byte	.LVL135
 6347 16b1 C6160000 		.4byte	0x16c6
 6348 16b5 23       		.uleb128 0x23
 6349 16b6 01       		.uleb128 0x1
 6350 16b7 52       		.byte	0x52
 6351 16b8 01       		.uleb128 0x1
 6352 16b9 30       		.byte	0x30
 6353 16ba 23       		.uleb128 0x23
 6354 16bb 01       		.uleb128 0x1
 6355 16bc 51       		.byte	0x51
 6356 16bd 01       		.uleb128 0x1
 6357 16be 32       		.byte	0x32
 6358 16bf 23       		.uleb128 0x23
 6359 16c0 01       		.uleb128 0x1
 6360 16c1 50       		.byte	0x50
 6361 16c2 02       		.uleb128 0x2
 6362 16c3 74       		.byte	0x74
ARM GAS  /tmp/ccT6pRdh.s 			page 113


 6363 16c4 00       		.sleb128 0
 6364 16c5 00       		.byte	0
 6365 16c6 22       		.uleb128 0x22
 6366 16c7 A2000000 		.4byte	.LVL137
 6367 16cb 58240000 		.4byte	0x2458
 6368 16cf DD160000 		.4byte	0x16dd
 6369 16d3 23       		.uleb128 0x23
 6370 16d4 01       		.uleb128 0x1
 6371 16d5 50       		.byte	0x50
 6372 16d6 05       		.uleb128 0x5
 6373 16d7 F3       		.byte	0xf3
 6374 16d8 01       		.uleb128 0x1
 6375 16d9 50       		.byte	0x50
 6376 16da 23       		.byte	0x23
 6377 16db 0C       		.uleb128 0xc
 6378 16dc 00       		.byte	0
 6379 16dd 26       		.uleb128 0x26
 6380 16de B6000000 		.4byte	.LVL139
 6381 16e2 48250000 		.4byte	0x2548
 6382 16e6 F4160000 		.4byte	0x16f4
 6383 16ea 23       		.uleb128 0x23
 6384 16eb 01       		.uleb128 0x1
 6385 16ec 51       		.byte	0x51
 6386 16ed 05       		.uleb128 0x5
 6387 16ee 03       		.byte	0x3
 6388 16ef 00000000 		.4byte	sent_tcp
 6389 16f3 00       		.byte	0
 6390 16f4 26       		.uleb128 0x26
 6391 16f5 C6000000 		.4byte	.LVL140
 6392 16f9 5F250000 		.4byte	0x255f
 6393 16fd 10170000 		.4byte	0x1710
 6394 1701 23       		.uleb128 0x23
 6395 1702 01       		.uleb128 0x1
 6396 1703 52       		.byte	0x52
 6397 1704 01       		.uleb128 0x1
 6398 1705 34       		.byte	0x34
 6399 1706 23       		.uleb128 0x23
 6400 1707 01       		.uleb128 0x1
 6401 1708 51       		.byte	0x51
 6402 1709 05       		.uleb128 0x5
 6403 170a 03       		.byte	0x3
 6404 170b 00000000 		.4byte	poll_tcp
 6405 170f 00       		.byte	0
 6406 1710 26       		.uleb128 0x26
 6407 1711 D4000000 		.4byte	.LVL141
 6408 1715 7B250000 		.4byte	0x257b
 6409 1719 27170000 		.4byte	0x1727
 6410 171d 23       		.uleb128 0x23
 6411 171e 01       		.uleb128 0x1
 6412 171f 51       		.byte	0x51
 6413 1720 05       		.uleb128 0x5
 6414 1721 03       		.byte	0x3
 6415 1722 00000000 		.4byte	err_tcp
 6416 1726 00       		.byte	0
 6417 1727 22       		.uleb128 0x22
 6418 1728 E0000000 		.4byte	.LVL143
 6419 172c 1A250000 		.4byte	0x251a
ARM GAS  /tmp/ccT6pRdh.s 			page 114


 6420 1730 3C170000 		.4byte	0x173c
 6421 1734 23       		.uleb128 0x23
 6422 1735 01       		.uleb128 0x1
 6423 1736 51       		.byte	0x51
 6424 1737 03       		.uleb128 0x3
 6425 1738 F3       		.byte	0xf3
 6426 1739 01       		.uleb128 0x1
 6427 173a 50       		.byte	0x50
 6428 173b 00       		.byte	0
 6429 173c 26       		.uleb128 0x26
 6430 173d E6000000 		.4byte	.LVL144
 6431 1741 48250000 		.4byte	0x2548
 6432 1745 4F170000 		.4byte	0x174f
 6433 1749 23       		.uleb128 0x23
 6434 174a 01       		.uleb128 0x1
 6435 174b 51       		.byte	0x51
 6436 174c 01       		.uleb128 0x1
 6437 174d 30       		.byte	0x30
 6438 174e 00       		.byte	0
 6439 174f 26       		.uleb128 0x26
 6440 1750 F4000000 		.4byte	.LVL145
 6441 1754 5F250000 		.4byte	0x255f
 6442 1758 67170000 		.4byte	0x1767
 6443 175c 23       		.uleb128 0x23
 6444 175d 01       		.uleb128 0x1
 6445 175e 52       		.byte	0x52
 6446 175f 01       		.uleb128 0x1
 6447 1760 34       		.byte	0x34
 6448 1761 23       		.uleb128 0x23
 6449 1762 01       		.uleb128 0x1
 6450 1763 51       		.byte	0x51
 6451 1764 01       		.uleb128 0x1
 6452 1765 30       		.byte	0x30
 6453 1766 00       		.byte	0
 6454 1767 26       		.uleb128 0x26
 6455 1768 FC000000 		.4byte	.LVL146
 6456 176c 7B250000 		.4byte	0x257b
 6457 1770 7A170000 		.4byte	0x177a
 6458 1774 23       		.uleb128 0x23
 6459 1775 01       		.uleb128 0x1
 6460 1776 51       		.byte	0x51
 6461 1777 01       		.uleb128 0x1
 6462 1778 30       		.byte	0x30
 6463 1779 00       		.byte	0
 6464 177a 24       		.uleb128 0x24
 6465 177b 02010000 		.4byte	.LVL147
 6466 177f ED250000 		.4byte	0x25ed
 6467 1783 26       		.uleb128 0x26
 6468 1784 0A010000 		.4byte	.LVL149
 6469 1788 31250000 		.4byte	0x2531
 6470 178c 96170000 		.4byte	0x1796
 6471 1790 23       		.uleb128 0x23
 6472 1791 01       		.uleb128 0x1
 6473 1792 51       		.byte	0x51
 6474 1793 01       		.uleb128 0x1
 6475 1794 30       		.byte	0x30
 6476 1795 00       		.byte	0
ARM GAS  /tmp/ccT6pRdh.s 			page 115


 6477 1796 26       		.uleb128 0x26
 6478 1797 12010000 		.4byte	.LVL150
 6479 179b 03260000 		.4byte	0x2603
 6480 179f A9170000 		.4byte	0x17a9
 6481 17a3 23       		.uleb128 0x23
 6482 17a4 01       		.uleb128 0x1
 6483 17a5 51       		.byte	0x51
 6484 17a6 01       		.uleb128 0x1
 6485 17a7 30       		.byte	0x30
 6486 17a8 00       		.byte	0
 6487 17a9 26       		.uleb128 0x26
 6488 17aa 22010000 		.4byte	.LVL152
 6489 17ae 1A250000 		.4byte	0x251a
 6490 17b2 BC170000 		.4byte	0x17bc
 6491 17b6 23       		.uleb128 0x23
 6492 17b7 01       		.uleb128 0x1
 6493 17b8 51       		.byte	0x51
 6494 17b9 01       		.uleb128 0x1
 6495 17ba 30       		.byte	0x30
 6496 17bb 00       		.byte	0
 6497 17bc 26       		.uleb128 0x26
 6498 17bd 30010000 		.4byte	.LVL153
 6499 17c1 03260000 		.4byte	0x2603
 6500 17c5 CF170000 		.4byte	0x17cf
 6501 17c9 23       		.uleb128 0x23
 6502 17ca 01       		.uleb128 0x1
 6503 17cb 51       		.byte	0x51
 6504 17cc 01       		.uleb128 0x1
 6505 17cd 30       		.byte	0x30
 6506 17ce 00       		.byte	0
 6507 17cf 24       		.uleb128 0x24
 6508 17d0 3C010000 		.4byte	.LVL154
 6509 17d4 69240000 		.4byte	0x2469
 6510 17d8 24       		.uleb128 0x24
 6511 17d9 44010000 		.4byte	.LVL156
 6512 17dd 69240000 		.4byte	0x2469
 6513 17e1 24       		.uleb128 0x24
 6514 17e2 4A010000 		.4byte	.LVL157
 6515 17e6 69240000 		.4byte	0x2469
 6516 17ea 24       		.uleb128 0x24
 6517 17eb 52010000 		.4byte	.LVL159
 6518 17ef 69240000 		.4byte	0x2469
 6519 17f3 00       		.byte	0
 6520 17f4 32       		.uleb128 0x32
 6521 17f5 D8000000 		.4byte	.LASF249
 6522 17f9 01       		.byte	0x1
 6523 17fa 1501     		.2byte	0x115
 6524 17fc F0040000 		.4byte	0x4f0
 6525 1800 00000000 		.4byte	.LFB10
 6526 1804 58000000 		.4byte	.LFE10-.LFB10
 6527 1808 01       		.uleb128 0x1
 6528 1809 9C       		.byte	0x9c
 6529 180a 8D180000 		.4byte	0x188d
 6530 180e 1F       		.uleb128 0x1f
 6531 180f 61726700 		.ascii	"arg\000"
 6532 1813 01       		.byte	0x1
 6533 1814 1501     		.2byte	0x115
ARM GAS  /tmp/ccT6pRdh.s 			page 116


 6534 1816 C9020000 		.4byte	0x2c9
 6535 181a 81090000 		.4byte	.LLST42
 6536 181e 1F       		.uleb128 0x1f
 6537 181f 70636200 		.ascii	"pcb\000"
 6538 1823 01       		.byte	0x1
 6539 1824 1501     		.2byte	0x115
 6540 1826 A30A0000 		.4byte	0xaa3
 6541 182a B5090000 		.4byte	.LLST43
 6542 182e 20       		.uleb128 0x20
 6543 182f 3D010000 		.4byte	.LASF189
 6544 1833 01       		.byte	0x1
 6545 1834 1701     		.2byte	0x117
 6546 1836 CB060000 		.4byte	0x6cb
 6547 183a 81090000 		.4byte	.LLST42
 6548 183e 35       		.uleb128 0x35
 6549 183f 3E000000 		.4byte	.LVL162
 6550 1843 02       		.uleb128 0x2
 6551 1844 75       		.byte	0x75
 6552 1845 00       		.sleb128 0
 6553 1846 5B180000 		.4byte	0x185b
 6554 184a 23       		.uleb128 0x23
 6555 184b 01       		.uleb128 0x1
 6556 184c 52       		.byte	0x52
 6557 184d 01       		.uleb128 0x1
 6558 184e 30       		.byte	0x30
 6559 184f 23       		.uleb128 0x23
 6560 1850 01       		.uleb128 0x1
 6561 1851 51       		.byte	0x51
 6562 1852 01       		.uleb128 0x1
 6563 1853 32       		.byte	0x32
 6564 1854 23       		.uleb128 0x23
 6565 1855 01       		.uleb128 0x1
 6566 1856 50       		.byte	0x50
 6567 1857 02       		.uleb128 0x2
 6568 1858 74       		.byte	0x74
 6569 1859 00       		.sleb128 0
 6570 185a 00       		.byte	0
 6571 185b 26       		.uleb128 0x26
 6572 185c 48000000 		.4byte	.LVL164
 6573 1860 7D140000 		.4byte	0x147d
 6574 1864 6F180000 		.4byte	0x186f
 6575 1868 23       		.uleb128 0x23
 6576 1869 01       		.uleb128 0x1
 6577 186a 50       		.byte	0x50
 6578 186b 02       		.uleb128 0x2
 6579 186c 74       		.byte	0x74
 6580 186d 00       		.sleb128 0
 6581 186e 00       		.byte	0
 6582 186f 26       		.uleb128 0x26
 6583 1870 50000000 		.4byte	.LVL165
 6584 1874 DB150000 		.4byte	0x15db
 6585 1878 83180000 		.4byte	0x1883
 6586 187c 23       		.uleb128 0x23
 6587 187d 01       		.uleb128 0x1
 6588 187e 50       		.byte	0x50
 6589 187f 02       		.uleb128 0x2
 6590 1880 74       		.byte	0x74
ARM GAS  /tmp/ccT6pRdh.s 			page 117


 6591 1881 00       		.sleb128 0
 6592 1882 00       		.byte	0
 6593 1883 24       		.uleb128 0x24
 6594 1884 56000000 		.4byte	.LVL167
 6595 1888 69240000 		.4byte	0x2469
 6596 188c 00       		.byte	0
 6597 188d 2D       		.uleb128 0x2d
 6598 188e E1000000 		.4byte	.LASF250
 6599 1892 01       		.byte	0x1
 6600 1893 D8       		.byte	0xd8
 6601 1894 F0040000 		.4byte	0x4f0
 6602 1898 00000000 		.4byte	.LFB9
 6603 189c 90000000 		.4byte	.LFE9-.LFB9
 6604 18a0 01       		.uleb128 0x1
 6605 18a1 9C       		.byte	0x9c
 6606 18a2 8C190000 		.4byte	0x198c
 6607 18a6 29       		.uleb128 0x29
 6608 18a7 61726700 		.ascii	"arg\000"
 6609 18ab 01       		.byte	0x1
 6610 18ac D8       		.byte	0xd8
 6611 18ad C9020000 		.4byte	0x2c9
 6612 18b1 EF090000 		.4byte	.LLST45
 6613 18b5 29       		.uleb128 0x29
 6614 18b6 70636200 		.ascii	"pcb\000"
 6615 18ba 01       		.byte	0x1
 6616 18bb D8       		.byte	0xd8
 6617 18bc A30A0000 		.4byte	0xaa3
 6618 18c0 230A0000 		.4byte	.LLST46
 6619 18c4 29       		.uleb128 0x29
 6620 18c5 7000     		.ascii	"p\000"
 6621 18c7 01       		.byte	0x1
 6622 18c8 D8       		.byte	0xd8
 6623 18c9 D6050000 		.4byte	0x5d6
 6624 18cd 8C0A0000 		.4byte	.LLST47
 6625 18d1 29       		.uleb128 0x29
 6626 18d2 65727200 		.ascii	"err\000"
 6627 18d6 01       		.byte	0x1
 6628 18d7 D8       		.byte	0xd8
 6629 18d8 F0040000 		.4byte	0x4f0
 6630 18dc F50A0000 		.4byte	.LLST48
 6631 18e0 2C       		.uleb128 0x2c
 6632 18e1 3D010000 		.4byte	.LASF189
 6633 18e5 01       		.byte	0x1
 6634 18e6 DA       		.byte	0xda
 6635 18e7 CB060000 		.4byte	0x6cb
 6636 18eb 2F0B0000 		.4byte	.LLST49
 6637 18ef 2B       		.uleb128 0x2b
 6638 18f0 6C656E00 		.ascii	"len\000"
 6639 18f4 01       		.byte	0x1
 6640 18f5 DB       		.byte	0xdb
 6641 18f6 AB040000 		.4byte	0x4ab
 6642 18fa 4D0B0000 		.4byte	.LLST50
 6643 18fe 24       		.uleb128 0x24
 6644 18ff 1E000000 		.4byte	.LVL171
 6645 1903 69240000 		.4byte	0x2469
 6646 1907 26       		.uleb128 0x26
 6647 1908 28000000 		.4byte	.LVL172
ARM GAS  /tmp/ccT6pRdh.s 			page 118


 6648 190c 71240000 		.4byte	0x2471
 6649 1910 1B190000 		.4byte	0x191b
 6650 1914 23       		.uleb128 0x23
 6651 1915 01       		.uleb128 0x1
 6652 1916 50       		.byte	0x50
 6653 1917 02       		.uleb128 0x2
 6654 1918 77       		.byte	0x77
 6655 1919 00       		.sleb128 0
 6656 191a 00       		.byte	0
 6657 191b 26       		.uleb128 0x26
 6658 191c 36000000 		.4byte	.LVL173
 6659 1920 1A260000 		.4byte	0x261a
 6660 1924 2F190000 		.4byte	0x192f
 6661 1928 23       		.uleb128 0x23
 6662 1929 01       		.uleb128 0x1
 6663 192a 50       		.byte	0x50
 6664 192b 02       		.uleb128 0x2
 6665 192c 76       		.byte	0x76
 6666 192d 00       		.sleb128 0
 6667 192e 00       		.byte	0
 6668 192f 26       		.uleb128 0x26
 6669 1930 3C000000 		.4byte	.LVL174
 6670 1934 A6240000 		.4byte	0x24a6
 6671 1938 43190000 		.4byte	0x1943
 6672 193c 23       		.uleb128 0x23
 6673 193d 01       		.uleb128 0x1
 6674 193e 50       		.byte	0x50
 6675 193f 02       		.uleb128 0x2
 6676 1940 75       		.byte	0x75
 6677 1941 00       		.sleb128 0
 6678 1942 00       		.byte	0
 6679 1943 26       		.uleb128 0x26
 6680 1944 66000000 		.4byte	.LVL180
 6681 1948 8C240000 		.4byte	0x248c
 6682 194c 5D190000 		.4byte	0x195d
 6683 1950 23       		.uleb128 0x23
 6684 1951 01       		.uleb128 0x1
 6685 1952 51       		.byte	0x51
 6686 1953 02       		.uleb128 0x2
 6687 1954 75       		.byte	0x75
 6688 1955 00       		.sleb128 0
 6689 1956 23       		.uleb128 0x23
 6690 1957 01       		.uleb128 0x1
 6691 1958 50       		.byte	0x50
 6692 1959 02       		.uleb128 0x2
 6693 195a 77       		.byte	0x77
 6694 195b 00       		.sleb128 0
 6695 195c 00       		.byte	0
 6696 195d 25       		.uleb128 0x25
 6697 195e 78000000 		.4byte	.LVL182
 6698 1962 79190000 		.4byte	0x1979
 6699 1966 23       		.uleb128 0x23
 6700 1967 01       		.uleb128 0x1
 6701 1968 52       		.byte	0x52
 6702 1969 02       		.uleb128 0x2
 6703 196a 76       		.byte	0x76
 6704 196b 00       		.sleb128 0
ARM GAS  /tmp/ccT6pRdh.s 			page 119


 6705 196c 23       		.uleb128 0x23
 6706 196d 01       		.uleb128 0x1
 6707 196e 51       		.byte	0x51
 6708 196f 02       		.uleb128 0x2
 6709 1970 75       		.byte	0x75
 6710 1971 00       		.sleb128 0
 6711 1972 23       		.uleb128 0x23
 6712 1973 01       		.uleb128 0x1
 6713 1974 50       		.byte	0x50
 6714 1975 02       		.uleb128 0x2
 6715 1976 74       		.byte	0x74
 6716 1977 00       		.sleb128 0
 6717 1978 00       		.byte	0
 6718 1979 24       		.uleb128 0x24
 6719 197a 84000000 		.4byte	.LVL184
 6720 197e 69240000 		.4byte	0x2469
 6721 1982 24       		.uleb128 0x24
 6722 1983 8A000000 		.4byte	.LVL185
 6723 1987 69240000 		.4byte	0x2469
 6724 198b 00       		.byte	0
 6725 198c 36       		.uleb128 0x36
 6726 198d 0F0F0000 		.4byte	0xf0f
 6727 1991 00000000 		.4byte	.LFB11
 6728 1995 56000000 		.4byte	.LFE11-.LFB11
 6729 1999 01       		.uleb128 0x1
 6730 199a 9C       		.byte	0x9c
 6731 199b 441A0000 		.4byte	0x1a44
 6732 199f 37       		.uleb128 0x37
 6733 19a0 200F0000 		.4byte	0xf20
 6734 19a4 6B0B0000 		.4byte	.LLST51
 6735 19a8 37       		.uleb128 0x37
 6736 19a9 2C0F0000 		.4byte	0xf2c
 6737 19ad 9F0B0000 		.4byte	.LLST52
 6738 19b1 37       		.uleb128 0x37
 6739 19b2 380F0000 		.4byte	0xf38
 6740 19b6 D90B0000 		.4byte	.LLST53
 6741 19ba 38       		.uleb128 0x38
 6742 19bb 440F0000 		.4byte	0xf44
 6743 19bf 6B0B0000 		.4byte	.LLST51
 6744 19c3 39       		.uleb128 0x39
 6745 19c4 28000000 		.4byte	.LBB9
 6746 19c8 14000000 		.4byte	.LBE9-.LBB9
 6747 19cc 121A0000 		.4byte	0x1a12
 6748 19d0 37       		.uleb128 0x37
 6749 19d1 2C0F0000 		.4byte	0xf2c
 6750 19d5 130C0000 		.4byte	.LLST55
 6751 19d9 37       		.uleb128 0x37
 6752 19da 380F0000 		.4byte	0xf38
 6753 19de 290C0000 		.4byte	.LLST56
 6754 19e2 37       		.uleb128 0x37
 6755 19e3 200F0000 		.4byte	0xf20
 6756 19e7 3C0C0000 		.4byte	.LLST57
 6757 19eb 3A       		.uleb128 0x3a
 6758 19ec 28000000 		.4byte	.LBB10
 6759 19f0 14000000 		.4byte	.LBE10-.LBB10
 6760 19f4 3B       		.uleb128 0x3b
 6761 19f5 440F0000 		.4byte	0xf44
ARM GAS  /tmp/ccT6pRdh.s 			page 120


 6762 19f9 3C       		.uleb128 0x3c
 6763 19fa 3C000000 		.4byte	.LVL190
 6764 19fe 23       		.uleb128 0x23
 6765 19ff 01       		.uleb128 0x1
 6766 1a00 52       		.byte	0x52
 6767 1a01 02       		.uleb128 0x2
 6768 1a02 75       		.byte	0x75
 6769 1a03 00       		.sleb128 0
 6770 1a04 23       		.uleb128 0x23
 6771 1a05 01       		.uleb128 0x1
 6772 1a06 51       		.byte	0x51
 6773 1a07 01       		.uleb128 0x1
 6774 1a08 32       		.byte	0x32
 6775 1a09 23       		.uleb128 0x23
 6776 1a0a 01       		.uleb128 0x1
 6777 1a0b 50       		.byte	0x50
 6778 1a0c 02       		.uleb128 0x2
 6779 1a0d 74       		.byte	0x74
 6780 1a0e 00       		.sleb128 0
 6781 1a0f 00       		.byte	0
 6782 1a10 00       		.byte	0
 6783 1a11 00       		.byte	0
 6784 1a12 26       		.uleb128 0x26
 6785 1a13 46000000 		.4byte	.LVL192
 6786 1a17 7D140000 		.4byte	0x147d
 6787 1a1b 261A0000 		.4byte	0x1a26
 6788 1a1f 23       		.uleb128 0x23
 6789 1a20 01       		.uleb128 0x1
 6790 1a21 50       		.byte	0x50
 6791 1a22 02       		.uleb128 0x2
 6792 1a23 74       		.byte	0x74
 6793 1a24 00       		.sleb128 0
 6794 1a25 00       		.byte	0
 6795 1a26 26       		.uleb128 0x26
 6796 1a27 4E000000 		.4byte	.LVL193
 6797 1a2b DB150000 		.4byte	0x15db
 6798 1a2f 3A1A0000 		.4byte	0x1a3a
 6799 1a33 23       		.uleb128 0x23
 6800 1a34 01       		.uleb128 0x1
 6801 1a35 50       		.byte	0x50
 6802 1a36 02       		.uleb128 0x2
 6803 1a37 74       		.byte	0x74
 6804 1a38 00       		.sleb128 0
 6805 1a39 00       		.byte	0
 6806 1a3a 24       		.uleb128 0x24
 6807 1a3b 54000000 		.4byte	.LVL195
 6808 1a3f 69240000 		.4byte	0x2469
 6809 1a43 00       		.byte	0
 6810 1a44 3D       		.uleb128 0x3d
 6811 1a45 5E0D0000 		.4byte	.LASF327
 6812 1a49 01       		.byte	0x1
 6813 1a4a EA01     		.2byte	0x1ea
 6814 1a4c 01       		.byte	0x1
 6815 1a4d 5E1A0000 		.4byte	0x1a5e
 6816 1a51 1C       		.uleb128 0x1c
 6817 1a52 6D736700 		.ascii	"msg\000"
 6818 1a56 01       		.byte	0x1
ARM GAS  /tmp/ccT6pRdh.s 			page 121


 6819 1a57 EA01     		.2byte	0x1ea
 6820 1a59 F00B0000 		.4byte	0xbf0
 6821 1a5d 00       		.byte	0
 6822 1a5e 3E       		.uleb128 0x3e
 6823 1a5f 330B0000 		.4byte	.LASF254
 6824 1a63 01       		.byte	0x1
 6825 1a64 2402     		.2byte	0x224
 6826 1a66 00000000 		.4byte	.LFB16
 6827 1a6a 9C000000 		.4byte	.LFE16-.LFB16
 6828 1a6e 01       		.uleb128 0x1
 6829 1a6f 9C       		.byte	0x9c
 6830 1a70 111B0000 		.4byte	0x1b11
 6831 1a74 1F       		.uleb128 0x1f
 6832 1a75 6D736700 		.ascii	"msg\000"
 6833 1a79 01       		.byte	0x1
 6834 1a7a 2402     		.2byte	0x224
 6835 1a7c F00B0000 		.4byte	0xbf0
 6836 1a80 4F0C0000 		.4byte	.LLST58
 6837 1a84 3F       		.uleb128 0x3f
 6838 1a85 441A0000 		.4byte	0x1a44
 6839 1a89 1A000000 		.4byte	.LBB13
 6840 1a8d 82000000 		.4byte	.LBE13-.LBB13
 6841 1a91 01       		.byte	0x1
 6842 1a92 2802     		.2byte	0x228
 6843 1a94 071B0000 		.4byte	0x1b07
 6844 1a98 37       		.uleb128 0x37
 6845 1a99 511A0000 		.4byte	0x1a51
 6846 1a9d BD0C0000 		.4byte	.LLST59
 6847 1aa1 24       		.uleb128 0x24
 6848 1aa2 36000000 		.4byte	.LVL200
 6849 1aa6 31260000 		.4byte	0x2631
 6850 1aaa 26       		.uleb128 0x26
 6851 1aab 44000000 		.4byte	.LVL201
 6852 1aaf FD120000 		.4byte	0x12fd
 6853 1ab3 BE1A0000 		.4byte	0x1abe
 6854 1ab7 23       		.uleb128 0x23
 6855 1ab8 01       		.uleb128 0x1
 6856 1ab9 50       		.byte	0x50
 6857 1aba 02       		.uleb128 0x2
 6858 1abb 74       		.byte	0x74
 6859 1abc 00       		.sleb128 0
 6860 1abd 00       		.byte	0
 6861 1abe 24       		.uleb128 0x24
 6862 1abf 4E000000 		.4byte	.LVL204
 6863 1ac3 3D260000 		.4byte	0x263d
 6864 1ac7 26       		.uleb128 0x26
 6865 1ac8 64000000 		.4byte	.LVL205
 6866 1acc 52260000 		.4byte	0x2652
 6867 1ad0 E41A0000 		.4byte	0x1ae4
 6868 1ad4 23       		.uleb128 0x23
 6869 1ad5 01       		.uleb128 0x1
 6870 1ad6 52       		.byte	0x52
 6871 1ad7 02       		.uleb128 0x2
 6872 1ad8 74       		.byte	0x74
 6873 1ad9 00       		.sleb128 0
 6874 1ada 23       		.uleb128 0x23
 6875 1adb 01       		.uleb128 0x1
ARM GAS  /tmp/ccT6pRdh.s 			page 122


 6876 1adc 51       		.byte	0x51
 6877 1add 05       		.uleb128 0x5
 6878 1ade 03       		.byte	0x3
 6879 1adf 00000000 		.4byte	recv_raw
 6880 1ae3 00       		.byte	0
 6881 1ae4 24       		.uleb128 0x24
 6882 1ae5 6C000000 		.4byte	.LVL207
 6883 1ae9 6D260000 		.4byte	0x266d
 6884 1aed 2E       		.uleb128 0x2e
 6885 1aee 92000000 		.4byte	.LVL208
 6886 1af2 78260000 		.4byte	0x2678
 6887 1af6 23       		.uleb128 0x23
 6888 1af7 01       		.uleb128 0x1
 6889 1af8 52       		.byte	0x52
 6890 1af9 02       		.uleb128 0x2
 6891 1afa 74       		.byte	0x74
 6892 1afb 00       		.sleb128 0
 6893 1afc 23       		.uleb128 0x23
 6894 1afd 01       		.uleb128 0x1
 6895 1afe 51       		.byte	0x51
 6896 1aff 05       		.uleb128 0x5
 6897 1b00 03       		.byte	0x3
 6898 1b01 00000000 		.4byte	recv_udp
 6899 1b05 00       		.byte	0
 6900 1b06 00       		.byte	0
 6901 1b07 27       		.uleb128 0x27
 6902 1b08 1A000000 		.4byte	.LVL199
 6903 1b0c 58240000 		.4byte	0x2458
 6904 1b10 00       		.byte	0
 6905 1b11 40       		.uleb128 0x40
 6906 1b12 1D010000 		.4byte	.LASF328
 6907 1b16 01       		.byte	0x1
 6908 1b17 3C02     		.2byte	0x23c
 6909 1b19 CB060000 		.4byte	0x6cb
 6910 1b1d 00000000 		.4byte	.LFB17
 6911 1b21 84000000 		.4byte	.LFE17-.LFB17
 6912 1b25 01       		.uleb128 0x1
 6913 1b26 9C       		.byte	0x9c
 6914 1b27 021C0000 		.4byte	0x1c02
 6915 1b2b 1F       		.uleb128 0x1f
 6916 1b2c 7400     		.ascii	"t\000"
 6917 1b2e 01       		.byte	0x1
 6918 1b2f 3C02     		.2byte	0x23c
 6919 1b31 1D060000 		.4byte	0x61d
 6920 1b35 070D0000 		.4byte	.LLST60
 6921 1b39 2F       		.uleb128 0x2f
 6922 1b3a 05060000 		.4byte	.LASF135
 6923 1b3e 01       		.byte	0x1
 6924 1b3f 3C02     		.2byte	0x23c
 6925 1b41 A5060000 		.4byte	0x6a5
 6926 1b45 280D0000 		.4byte	.LLST61
 6927 1b49 20       		.uleb128 0x20
 6928 1b4a 3D010000 		.4byte	.LASF189
 6929 1b4e 01       		.byte	0x1
 6930 1b4f 3E02     		.2byte	0x23e
 6931 1b51 CB060000 		.4byte	0x6cb
 6932 1b55 460D0000 		.4byte	.LLST62
ARM GAS  /tmp/ccT6pRdh.s 			page 123


 6933 1b59 20       		.uleb128 0x20
 6934 1b5a 5F090000 		.4byte	.LASF251
 6935 1b5e 01       		.byte	0x1
 6936 1b5f 3F02     		.2byte	0x23f
 6937 1b61 25000000 		.4byte	0x25
 6938 1b65 9B0D0000 		.4byte	.LLST63
 6939 1b69 34       		.uleb128 0x34
 6940 1b6a BC020000 		.4byte	.LASF253
 6941 1b6e 01       		.byte	0x1
 6942 1b6f 8502     		.2byte	0x285
 6943 1b71 2E000000 		.4byte	.L281
 6944 1b75 26       		.uleb128 0x26
 6945 1b76 0C000000 		.4byte	.LVL211
 6946 1b7a BB240000 		.4byte	0x24bb
 6947 1b7e 881B0000 		.4byte	0x1b88
 6948 1b82 23       		.uleb128 0x23
 6949 1b83 01       		.uleb128 0x1
 6950 1b84 50       		.byte	0x50
 6951 1b85 01       		.uleb128 0x1
 6952 1b86 38       		.byte	0x38
 6953 1b87 00       		.byte	0
 6954 1b88 24       		.uleb128 0x24
 6955 1b89 2E000000 		.4byte	.LVL212
 6956 1b8d 69240000 		.4byte	0x2469
 6957 1b91 26       		.uleb128 0x26
 6958 1b92 36000000 		.4byte	.LVL213
 6959 1b96 93260000 		.4byte	0x2693
 6960 1b9a AA1B0000 		.4byte	0x1baa
 6961 1b9e 23       		.uleb128 0x23
 6962 1b9f 01       		.uleb128 0x1
 6963 1ba0 51       		.byte	0x51
 6964 1ba1 02       		.uleb128 0x2
 6965 1ba2 74       		.byte	0x74
 6966 1ba3 00       		.sleb128 0
 6967 1ba4 23       		.uleb128 0x23
 6968 1ba5 01       		.uleb128 0x1
 6969 1ba6 50       		.byte	0x50
 6970 1ba7 01       		.uleb128 0x1
 6971 1ba8 38       		.byte	0x38
 6972 1ba9 00       		.byte	0
 6973 1baa 26       		.uleb128 0x26
 6974 1bab 48000000 		.4byte	.LVL217
 6975 1baf A9260000 		.4byte	0x26a9
 6976 1bb3 C31B0000 		.4byte	0x1bc3
 6977 1bb7 23       		.uleb128 0x23
 6978 1bb8 01       		.uleb128 0x1
 6979 1bb9 51       		.byte	0x51
 6980 1bba 01       		.uleb128 0x1
 6981 1bbb 30       		.byte	0x30
 6982 1bbc 23       		.uleb128 0x23
 6983 1bbd 01       		.uleb128 0x1
 6984 1bbe 50       		.byte	0x50
 6985 1bbf 02       		.uleb128 0x2
 6986 1bc0 77       		.byte	0x77
 6987 1bc1 00       		.sleb128 0
 6988 1bc2 00       		.byte	0
 6989 1bc3 26       		.uleb128 0x26
ARM GAS  /tmp/ccT6pRdh.s 			page 124


 6990 1bc4 56000000 		.4byte	.LVL218
 6991 1bc8 C3260000 		.4byte	0x26c3
 6992 1bcc DD1B0000 		.4byte	0x1bdd
 6993 1bd0 23       		.uleb128 0x23
 6994 1bd1 01       		.uleb128 0x1
 6995 1bd2 51       		.byte	0x51
 6996 1bd3 02       		.uleb128 0x2
 6997 1bd4 75       		.byte	0x75
 6998 1bd5 00       		.sleb128 0
 6999 1bd6 23       		.uleb128 0x23
 7000 1bd7 01       		.uleb128 0x1
 7001 1bd8 50       		.byte	0x50
 7002 1bd9 02       		.uleb128 0x2
 7003 1bda 74       		.byte	0x74
 7004 1bdb 10       		.sleb128 16
 7005 1bdc 00       		.byte	0
 7006 1bdd 26       		.uleb128 0x26
 7007 1bde 62000000 		.4byte	.LVL220
 7008 1be2 DD260000 		.4byte	0x26dd
 7009 1be6 F11B0000 		.4byte	0x1bf1
 7010 1bea 23       		.uleb128 0x23
 7011 1beb 01       		.uleb128 0x1
 7012 1bec 50       		.byte	0x50
 7013 1bed 02       		.uleb128 0x2
 7014 1bee 74       		.byte	0x74
 7015 1bef 14       		.sleb128 20
 7016 1bf0 00       		.byte	0
 7017 1bf1 2E       		.uleb128 0x2e
 7018 1bf2 80000000 		.4byte	.LVL223
 7019 1bf6 EE260000 		.4byte	0x26ee
 7020 1bfa 23       		.uleb128 0x23
 7021 1bfb 01       		.uleb128 0x1
 7022 1bfc 50       		.byte	0x50
 7023 1bfd 02       		.uleb128 0x2
 7024 1bfe 77       		.byte	0x77
 7025 1bff 00       		.sleb128 0
 7026 1c00 00       		.byte	0
 7027 1c01 00       		.byte	0
 7028 1c02 3E       		.uleb128 0x3e
 7029 1c03 890C0000 		.4byte	.LASF255
 7030 1c07 01       		.byte	0x1
 7031 1c08 9102     		.2byte	0x291
 7032 1c0a 00000000 		.4byte	.LFB18
 7033 1c0e 46000000 		.4byte	.LFE18-.LFB18
 7034 1c12 01       		.uleb128 0x1
 7035 1c13 9C       		.byte	0x9c
 7036 1c14 AE1C0000 		.4byte	0x1cae
 7037 1c18 2F       		.uleb128 0x2f
 7038 1c19 3D010000 		.4byte	.LASF189
 7039 1c1d 01       		.byte	0x1
 7040 1c1e 9102     		.2byte	0x291
 7041 1c20 CB060000 		.4byte	0x6cb
 7042 1c24 AE0D0000 		.4byte	.LLST64
 7043 1c28 24       		.uleb128 0x24
 7044 1c29 0C000000 		.4byte	.LVL226
 7045 1c2d 69240000 		.4byte	0x2469
 7046 1c31 26       		.uleb128 0x26
ARM GAS  /tmp/ccT6pRdh.s 			page 125


 7047 1c32 14000000 		.4byte	.LVL227
 7048 1c36 71240000 		.4byte	0x2471
 7049 1c3a 451C0000 		.4byte	0x1c45
 7050 1c3e 23       		.uleb128 0x23
 7051 1c3f 01       		.uleb128 0x1
 7052 1c40 50       		.byte	0x50
 7053 1c41 02       		.uleb128 0x2
 7054 1c42 74       		.byte	0x74
 7055 1c43 10       		.sleb128 16
 7056 1c44 00       		.byte	0
 7057 1c45 26       		.uleb128 0x26
 7058 1c46 1E000000 		.4byte	.LVL228
 7059 1c4a 71240000 		.4byte	0x2471
 7060 1c4e 591C0000 		.4byte	0x1c59
 7061 1c52 23       		.uleb128 0x23
 7062 1c53 01       		.uleb128 0x1
 7063 1c54 50       		.byte	0x50
 7064 1c55 02       		.uleb128 0x2
 7065 1c56 74       		.byte	0x74
 7066 1c57 14       		.sleb128 20
 7067 1c58 00       		.byte	0
 7068 1c59 24       		.uleb128 0x24
 7069 1c5a 24000000 		.4byte	.LVL229
 7070 1c5e 69240000 		.4byte	0x2469
 7071 1c62 26       		.uleb128 0x26
 7072 1c63 2E000000 		.4byte	.LVL230
 7073 1c67 EE260000 		.4byte	0x26ee
 7074 1c6b 761C0000 		.4byte	0x1c76
 7075 1c6f 23       		.uleb128 0x23
 7076 1c70 01       		.uleb128 0x1
 7077 1c71 50       		.byte	0x50
 7078 1c72 02       		.uleb128 0x2
 7079 1c73 75       		.byte	0x75
 7080 1c74 00       		.sleb128 0
 7081 1c75 00       		.byte	0
 7082 1c76 26       		.uleb128 0x26
 7083 1c77 34000000 		.4byte	.LVL231
 7084 1c7b FF260000 		.4byte	0x26ff
 7085 1c7f 8A1C0000 		.4byte	0x1c8a
 7086 1c83 23       		.uleb128 0x23
 7087 1c84 01       		.uleb128 0x1
 7088 1c85 50       		.byte	0x50
 7089 1c86 02       		.uleb128 0x2
 7090 1c87 75       		.byte	0x75
 7091 1c88 00       		.sleb128 0
 7092 1c89 00       		.byte	0
 7093 1c8a 22       		.uleb128 0x22
 7094 1c8b 40000000 		.4byte	.LVL233
 7095 1c8f 93260000 		.4byte	0x2693
 7096 1c93 A41C0000 		.4byte	0x1ca4
 7097 1c97 23       		.uleb128 0x23
 7098 1c98 01       		.uleb128 0x1
 7099 1c99 51       		.byte	0x51
 7100 1c9a 03       		.uleb128 0x3
 7101 1c9b F3       		.byte	0xf3
 7102 1c9c 01       		.uleb128 0x1
 7103 1c9d 50       		.byte	0x50
ARM GAS  /tmp/ccT6pRdh.s 			page 126


 7104 1c9e 23       		.uleb128 0x23
 7105 1c9f 01       		.uleb128 0x1
 7106 1ca0 50       		.byte	0x50
 7107 1ca1 01       		.uleb128 0x1
 7108 1ca2 38       		.byte	0x38
 7109 1ca3 00       		.byte	0
 7110 1ca4 24       		.uleb128 0x24
 7111 1ca5 44000000 		.4byte	.LVL234
 7112 1ca9 69240000 		.4byte	0x2469
 7113 1cad 00       		.byte	0
 7114 1cae 1E       		.uleb128 0x1e
 7115 1caf C4060000 		.4byte	.LASF256
 7116 1cb3 01       		.byte	0x1
 7117 1cb4 AA02     		.2byte	0x2aa
 7118 1cb6 00000000 		.4byte	.LFB19
 7119 1cba B4000000 		.4byte	.LFE19-.LFB19
 7120 1cbe 01       		.uleb128 0x1
 7121 1cbf 9C       		.byte	0x9c
 7122 1cc0 101E0000 		.4byte	0x1e10
 7123 1cc4 2F       		.uleb128 0x2f
 7124 1cc5 3D010000 		.4byte	.LASF189
 7125 1cc9 01       		.byte	0x1
 7126 1cca AA02     		.2byte	0x2aa
 7127 1ccc CB060000 		.4byte	0x6cb
 7128 1cd0 F00D0000 		.4byte	.LLST65
 7129 1cd4 41       		.uleb128 0x41
 7130 1cd5 6D656D00 		.ascii	"mem\000"
 7131 1cd9 01       		.byte	0x1
 7132 1cda AC02     		.2byte	0x2ac
 7133 1cdc C9020000 		.4byte	0x2c9
 7134 1ce0 02       		.uleb128 0x2
 7135 1ce1 91       		.byte	0x91
 7136 1ce2 64       		.sleb128 -28
 7137 1ce3 30       		.uleb128 0x30
 7138 1ce4 7000     		.ascii	"p\000"
 7139 1ce6 01       		.byte	0x1
 7140 1ce7 AE02     		.2byte	0x2ae
 7141 1ce9 D6050000 		.4byte	0x5d6
 7142 1ced 0E0E0000 		.4byte	.LLST66
 7143 1cf1 21       		.uleb128 0x21
 7144 1cf2 38000000 		.4byte	.Ldebug_ranges0+0x38
 7145 1cf6 411D0000 		.4byte	0x1d41
 7146 1cfa 20       		.uleb128 0x20
 7147 1cfb E8010000 		.4byte	.LASF257
 7148 1cff 01       		.byte	0x1
 7149 1d00 CE02     		.2byte	0x2ce
 7150 1d02 CB060000 		.4byte	0x6cb
 7151 1d06 210E0000 		.4byte	.LLST67
 7152 1d0a 24       		.uleb128 0x24
 7153 1d0b 3C000000 		.4byte	.LVL240
 7154 1d0f 69240000 		.4byte	0x2469
 7155 1d13 26       		.uleb128 0x26
 7156 1d14 42000000 		.4byte	.LVL241
 7157 1d18 AE1C0000 		.4byte	0x1cae
 7158 1d1c 271D0000 		.4byte	0x1d27
 7159 1d20 23       		.uleb128 0x23
 7160 1d21 01       		.uleb128 0x1
ARM GAS  /tmp/ccT6pRdh.s 			page 127


 7161 1d22 50       		.byte	0x50
 7162 1d23 02       		.uleb128 0x2
 7163 1d24 74       		.byte	0x74
 7164 1d25 00       		.sleb128 0
 7165 1d26 00       		.byte	0
 7166 1d27 24       		.uleb128 0x24
 7167 1d28 4C000000 		.4byte	.LVL242
 7168 1d2c 10270000 		.4byte	0x2710
 7169 1d30 2E       		.uleb128 0x2e
 7170 1d31 56000000 		.4byte	.LVL243
 7171 1d35 021C0000 		.4byte	0x1c02
 7172 1d39 23       		.uleb128 0x23
 7173 1d3a 01       		.uleb128 0x1
 7174 1d3b 50       		.byte	0x50
 7175 1d3c 02       		.uleb128 0x2
 7176 1d3d 74       		.byte	0x74
 7177 1d3e 00       		.sleb128 0
 7178 1d3f 00       		.byte	0
 7179 1d40 00       		.byte	0
 7180 1d41 26       		.uleb128 0x26
 7181 1d42 12000000 		.4byte	.LVL237
 7182 1d46 71240000 		.4byte	0x2471
 7183 1d4a 551D0000 		.4byte	0x1d55
 7184 1d4e 23       		.uleb128 0x23
 7185 1d4f 01       		.uleb128 0x1
 7186 1d50 50       		.byte	0x50
 7187 1d51 02       		.uleb128 0x2
 7188 1d52 74       		.byte	0x74
 7189 1d53 00       		.sleb128 0
 7190 1d54 00       		.byte	0
 7191 1d55 26       		.uleb128 0x26
 7192 1d56 22000000 		.4byte	.LVL238
 7193 1d5a 71240000 		.4byte	0x2471
 7194 1d5e 691D0000 		.4byte	0x1d69
 7195 1d62 23       		.uleb128 0x23
 7196 1d63 01       		.uleb128 0x1
 7197 1d64 50       		.byte	0x50
 7198 1d65 02       		.uleb128 0x2
 7199 1d66 77       		.byte	0x77
 7200 1d67 00       		.sleb128 0
 7201 1d68 00       		.byte	0
 7202 1d69 26       		.uleb128 0x26
 7203 1d6a 5E000000 		.4byte	.LVL244
 7204 1d6e 22270000 		.4byte	0x2722
 7205 1d72 831D0000 		.4byte	0x1d83
 7206 1d76 23       		.uleb128 0x23
 7207 1d77 01       		.uleb128 0x1
 7208 1d78 51       		.byte	0x51
 7209 1d79 02       		.uleb128 0x2
 7210 1d7a 76       		.byte	0x76
 7211 1d7b 00       		.sleb128 0
 7212 1d7c 23       		.uleb128 0x23
 7213 1d7d 01       		.uleb128 0x1
 7214 1d7e 50       		.byte	0x50
 7215 1d7f 02       		.uleb128 0x2
 7216 1d80 77       		.byte	0x77
 7217 1d81 00       		.sleb128 0
ARM GAS  /tmp/ccT6pRdh.s 			page 128


 7218 1d82 00       		.byte	0
 7219 1d83 26       		.uleb128 0x26
 7220 1d84 68000000 		.4byte	.LVL245
 7221 1d88 42270000 		.4byte	0x2742
 7222 1d8c 971D0000 		.4byte	0x1d97
 7223 1d90 23       		.uleb128 0x23
 7224 1d91 01       		.uleb128 0x1
 7225 1d92 50       		.byte	0x50
 7226 1d93 02       		.uleb128 0x2
 7227 1d94 77       		.byte	0x77
 7228 1d95 00       		.sleb128 0
 7229 1d96 00       		.byte	0
 7230 1d97 26       		.uleb128 0x26
 7231 1d98 6E000000 		.4byte	.LVL246
 7232 1d9c DD260000 		.4byte	0x26dd
 7233 1da0 AB1D0000 		.4byte	0x1dab
 7234 1da4 23       		.uleb128 0x23
 7235 1da5 01       		.uleb128 0x1
 7236 1da6 50       		.byte	0x50
 7237 1da7 02       		.uleb128 0x2
 7238 1da8 77       		.byte	0x77
 7239 1da9 00       		.sleb128 0
 7240 1daa 00       		.byte	0
 7241 1dab 24       		.uleb128 0x24
 7242 1dac 7A000000 		.4byte	.LVL248
 7243 1db0 D0240000 		.4byte	0x24d0
 7244 1db4 26       		.uleb128 0x26
 7245 1db5 82000000 		.4byte	.LVL249
 7246 1db9 22270000 		.4byte	0x2722
 7247 1dbd CE1D0000 		.4byte	0x1dce
 7248 1dc1 23       		.uleb128 0x23
 7249 1dc2 01       		.uleb128 0x1
 7250 1dc3 51       		.byte	0x51
 7251 1dc4 02       		.uleb128 0x2
 7252 1dc5 76       		.byte	0x76
 7253 1dc6 00       		.sleb128 0
 7254 1dc7 23       		.uleb128 0x23
 7255 1dc8 01       		.uleb128 0x1
 7256 1dc9 50       		.byte	0x50
 7257 1dca 02       		.uleb128 0x2
 7258 1dcb 74       		.byte	0x74
 7259 1dcc 00       		.sleb128 0
 7260 1dcd 00       		.byte	0
 7261 1dce 24       		.uleb128 0x24
 7262 1dcf 9E000000 		.4byte	.LVL251
 7263 1dd3 1A260000 		.4byte	0x261a
 7264 1dd7 26       		.uleb128 0x26
 7265 1dd8 A4000000 		.4byte	.LVL252
 7266 1ddc A6240000 		.4byte	0x24a6
 7267 1de0 EB1D0000 		.4byte	0x1deb
 7268 1de4 23       		.uleb128 0x23
 7269 1de5 01       		.uleb128 0x1
 7270 1de6 50       		.byte	0x50
 7271 1de7 02       		.uleb128 0x2
 7272 1de8 77       		.byte	0x77
 7273 1de9 00       		.sleb128 0
 7274 1dea 00       		.byte	0
ARM GAS  /tmp/ccT6pRdh.s 			page 129


 7275 1deb 26       		.uleb128 0x26
 7276 1dec AC000000 		.4byte	.LVL254
 7277 1df0 42270000 		.4byte	0x2742
 7278 1df4 FF1D0000 		.4byte	0x1dff
 7279 1df8 23       		.uleb128 0x23
 7280 1df9 01       		.uleb128 0x1
 7281 1dfa 50       		.byte	0x50
 7282 1dfb 02       		.uleb128 0x2
 7283 1dfc 74       		.byte	0x74
 7284 1dfd 00       		.sleb128 0
 7285 1dfe 00       		.byte	0
 7286 1dff 2E       		.uleb128 0x2e
 7287 1e00 B2000000 		.4byte	.LVL255
 7288 1e04 DD260000 		.4byte	0x26dd
 7289 1e08 23       		.uleb128 0x23
 7290 1e09 01       		.uleb128 0x1
 7291 1e0a 50       		.byte	0x50
 7292 1e0b 02       		.uleb128 0x2
 7293 1e0c 74       		.byte	0x74
 7294 1e0d 00       		.sleb128 0
 7295 1e0e 00       		.byte	0
 7296 1e0f 00       		.byte	0
 7297 1e10 32       		.uleb128 0x32
 7298 1e11 61050000 		.4byte	.LASF258
 7299 1e15 01       		.byte	0x1
 7300 1e16 B001     		.2byte	0x1b0
 7301 1e18 F0040000 		.4byte	0x4f0
 7302 1e1c 00000000 		.4byte	.LFB14
 7303 1e20 A0000000 		.4byte	.LFE14-.LFB14
 7304 1e24 01       		.uleb128 0x1
 7305 1e25 9C       		.byte	0x9c
 7306 1e26 B61F0000 		.4byte	0x1fb6
 7307 1e2a 1F       		.uleb128 0x1f
 7308 1e2b 61726700 		.ascii	"arg\000"
 7309 1e2f 01       		.byte	0x1
 7310 1e30 B001     		.2byte	0x1b0
 7311 1e32 C9020000 		.4byte	0x2c9
 7312 1e36 340E0000 		.4byte	.LLST68
 7313 1e3a 2F       		.uleb128 0x2f
 7314 1e3b 57070000 		.4byte	.LASF259
 7315 1e3f 01       		.byte	0x1
 7316 1e40 B001     		.2byte	0x1b0
 7317 1e42 A30A0000 		.4byte	0xaa3
 7318 1e46 790E0000 		.4byte	.LLST69
 7319 1e4a 1F       		.uleb128 0x1f
 7320 1e4b 65727200 		.ascii	"err\000"
 7321 1e4f 01       		.byte	0x1
 7322 1e50 B001     		.2byte	0x1b0
 7323 1e52 F0040000 		.4byte	0x4f0
 7324 1e56 970E0000 		.4byte	.LLST70
 7325 1e5a 20       		.uleb128 0x20
 7326 1e5b E8010000 		.4byte	.LASF257
 7327 1e5f 01       		.byte	0x1
 7328 1e60 B201     		.2byte	0x1b2
 7329 1e62 CB060000 		.4byte	0x6cb
 7330 1e66 B80E0000 		.4byte	.LLST71
 7331 1e6a 20       		.uleb128 0x20
ARM GAS  /tmp/ccT6pRdh.s 			page 130


 7332 1e6b 3D010000 		.4byte	.LASF189
 7333 1e6f 01       		.byte	0x1
 7334 1e70 B301     		.2byte	0x1b3
 7335 1e72 CB060000 		.4byte	0x6cb
 7336 1e76 EC0E0000 		.4byte	.LLST72
 7337 1e7a 39       		.uleb128 0x39
 7338 1e7b 56000000 		.4byte	.LBB17
 7339 1e7f 4A000000 		.4byte	.LBE17-.LBB17
 7340 1e83 521F0000 		.4byte	0x1f52
 7341 1e87 30       		.uleb128 0x30
 7342 1e88 70636200 		.ascii	"pcb\000"
 7343 1e8c 01       		.byte	0x1
 7344 1e8d CC01     		.2byte	0x1cc
 7345 1e8f A30A0000 		.4byte	0xaa3
 7346 1e93 310F0000 		.4byte	.LLST73
 7347 1e97 26       		.uleb128 0x26
 7348 1e98 60000000 		.4byte	.LVL269
 7349 1e9c 1A250000 		.4byte	0x251a
 7350 1ea0 B01E0000 		.4byte	0x1eb0
 7351 1ea4 23       		.uleb128 0x23
 7352 1ea5 01       		.uleb128 0x1
 7353 1ea6 51       		.byte	0x51
 7354 1ea7 01       		.uleb128 0x1
 7355 1ea8 30       		.byte	0x30
 7356 1ea9 23       		.uleb128 0x23
 7357 1eaa 01       		.uleb128 0x1
 7358 1eab 50       		.byte	0x50
 7359 1eac 02       		.uleb128 0x2
 7360 1ead 74       		.byte	0x74
 7361 1eae 00       		.sleb128 0
 7362 1eaf 00       		.byte	0
 7363 1eb0 26       		.uleb128 0x26
 7364 1eb1 68000000 		.4byte	.LVL270
 7365 1eb5 31250000 		.4byte	0x2531
 7366 1eb9 C91E0000 		.4byte	0x1ec9
 7367 1ebd 23       		.uleb128 0x23
 7368 1ebe 01       		.uleb128 0x1
 7369 1ebf 51       		.byte	0x51
 7370 1ec0 01       		.uleb128 0x1
 7371 1ec1 30       		.byte	0x30
 7372 1ec2 23       		.uleb128 0x23
 7373 1ec3 01       		.uleb128 0x1
 7374 1ec4 50       		.byte	0x50
 7375 1ec5 02       		.uleb128 0x2
 7376 1ec6 74       		.byte	0x74
 7377 1ec7 00       		.sleb128 0
 7378 1ec8 00       		.byte	0
 7379 1ec9 26       		.uleb128 0x26
 7380 1eca 70000000 		.4byte	.LVL271
 7381 1ece 48250000 		.4byte	0x2548
 7382 1ed2 E21E0000 		.4byte	0x1ee2
 7383 1ed6 23       		.uleb128 0x23
 7384 1ed7 01       		.uleb128 0x1
 7385 1ed8 51       		.byte	0x51
 7386 1ed9 01       		.uleb128 0x1
 7387 1eda 30       		.byte	0x30
 7388 1edb 23       		.uleb128 0x23
ARM GAS  /tmp/ccT6pRdh.s 			page 131


 7389 1edc 01       		.uleb128 0x1
 7390 1edd 50       		.byte	0x50
 7391 1ede 02       		.uleb128 0x2
 7392 1edf 74       		.byte	0x74
 7393 1ee0 00       		.sleb128 0
 7394 1ee1 00       		.byte	0
 7395 1ee2 26       		.uleb128 0x26
 7396 1ee3 7A000000 		.4byte	.LVL272
 7397 1ee7 5F250000 		.4byte	0x255f
 7398 1eeb 001F0000 		.4byte	0x1f00
 7399 1eef 23       		.uleb128 0x23
 7400 1ef0 01       		.uleb128 0x1
 7401 1ef1 52       		.byte	0x52
 7402 1ef2 01       		.uleb128 0x1
 7403 1ef3 34       		.byte	0x34
 7404 1ef4 23       		.uleb128 0x23
 7405 1ef5 01       		.uleb128 0x1
 7406 1ef6 51       		.byte	0x51
 7407 1ef7 01       		.uleb128 0x1
 7408 1ef8 30       		.byte	0x30
 7409 1ef9 23       		.uleb128 0x23
 7410 1efa 01       		.uleb128 0x1
 7411 1efb 50       		.byte	0x50
 7412 1efc 02       		.uleb128 0x2
 7413 1efd 74       		.byte	0x74
 7414 1efe 00       		.sleb128 0
 7415 1eff 00       		.byte	0
 7416 1f00 26       		.uleb128 0x26
 7417 1f01 82000000 		.4byte	.LVL273
 7418 1f05 7B250000 		.4byte	0x257b
 7419 1f09 191F0000 		.4byte	0x1f19
 7420 1f0d 23       		.uleb128 0x23
 7421 1f0e 01       		.uleb128 0x1
 7422 1f0f 51       		.byte	0x51
 7423 1f10 01       		.uleb128 0x1
 7424 1f11 30       		.byte	0x30
 7425 1f12 23       		.uleb128 0x23
 7426 1f13 01       		.uleb128 0x1
 7427 1f14 50       		.byte	0x50
 7428 1f15 02       		.uleb128 0x2
 7429 1f16 74       		.byte	0x74
 7430 1f17 00       		.sleb128 0
 7431 1f18 00       		.byte	0
 7432 1f19 26       		.uleb128 0x26
 7433 1f1a 90000000 		.4byte	.LVL275
 7434 1f1e 42270000 		.4byte	0x2742
 7435 1f22 2D1F0000 		.4byte	0x1f2d
 7436 1f26 23       		.uleb128 0x23
 7437 1f27 01       		.uleb128 0x1
 7438 1f28 50       		.byte	0x50
 7439 1f29 02       		.uleb128 0x2
 7440 1f2a 74       		.byte	0x74
 7441 1f2b 00       		.sleb128 0
 7442 1f2c 00       		.byte	0
 7443 1f2d 26       		.uleb128 0x26
 7444 1f2e 96000000 		.4byte	.LVL276
 7445 1f32 DD260000 		.4byte	0x26dd
ARM GAS  /tmp/ccT6pRdh.s 			page 132


 7446 1f36 411F0000 		.4byte	0x1f41
 7447 1f3a 23       		.uleb128 0x23
 7448 1f3b 01       		.uleb128 0x1
 7449 1f3c 50       		.byte	0x50
 7450 1f3d 02       		.uleb128 0x2
 7451 1f3e 74       		.byte	0x74
 7452 1f3f 00       		.sleb128 0
 7453 1f40 00       		.byte	0
 7454 1f41 2E       		.uleb128 0x2e
 7455 1f42 9C000000 		.4byte	.LVL277
 7456 1f46 021C0000 		.4byte	0x1c02
 7457 1f4a 23       		.uleb128 0x23
 7458 1f4b 01       		.uleb128 0x1
 7459 1f4c 50       		.byte	0x50
 7460 1f4d 02       		.uleb128 0x2
 7461 1f4e 76       		.byte	0x76
 7462 1f4f 00       		.sleb128 0
 7463 1f50 00       		.byte	0
 7464 1f51 00       		.byte	0
 7465 1f52 26       		.uleb128 0x26
 7466 1f53 14000000 		.4byte	.LVL259
 7467 1f57 71240000 		.4byte	0x2471
 7468 1f5b 661F0000 		.4byte	0x1f66
 7469 1f5f 23       		.uleb128 0x23
 7470 1f60 01       		.uleb128 0x1
 7471 1f61 50       		.byte	0x50
 7472 1f62 02       		.uleb128 0x2
 7473 1f63 75       		.byte	0x75
 7474 1f64 00       		.sleb128 0
 7475 1f65 00       		.byte	0
 7476 1f66 24       		.uleb128 0x24
 7477 1f67 1E000000 		.4byte	.LVL260
 7478 1f6b 111B0000 		.4byte	0x1b11
 7479 1f6f 26       		.uleb128 0x26
 7480 1f70 2A000000 		.4byte	.LVL261
 7481 1f74 FD120000 		.4byte	0x12fd
 7482 1f78 831F0000 		.4byte	0x1f83
 7483 1f7c 23       		.uleb128 0x23
 7484 1f7d 01       		.uleb128 0x1
 7485 1f7e 50       		.byte	0x50
 7486 1f7f 02       		.uleb128 0x2
 7487 1f80 76       		.byte	0x76
 7488 1f81 00       		.sleb128 0
 7489 1f82 00       		.byte	0
 7490 1f83 26       		.uleb128 0x26
 7491 1f84 34000000 		.4byte	.LVL262
 7492 1f88 8C240000 		.4byte	0x248c
 7493 1f8c 9D1F0000 		.4byte	0x1f9d
 7494 1f90 23       		.uleb128 0x23
 7495 1f91 01       		.uleb128 0x1
 7496 1f92 51       		.byte	0x51
 7497 1f93 02       		.uleb128 0x2
 7498 1f94 76       		.byte	0x76
 7499 1f95 00       		.sleb128 0
 7500 1f96 23       		.uleb128 0x23
 7501 1f97 01       		.uleb128 0x1
 7502 1f98 50       		.byte	0x50
ARM GAS  /tmp/ccT6pRdh.s 			page 133


 7503 1f99 02       		.uleb128 0x2
 7504 1f9a 75       		.byte	0x75
 7505 1f9b 00       		.sleb128 0
 7506 1f9c 00       		.byte	0
 7507 1f9d 3C       		.uleb128 0x3c
 7508 1f9e 46000000 		.4byte	.LVL263
 7509 1fa2 23       		.uleb128 0x23
 7510 1fa3 01       		.uleb128 0x1
 7511 1fa4 52       		.byte	0x52
 7512 1fa5 02       		.uleb128 0x2
 7513 1fa6 75       		.byte	0x75
 7514 1fa7 00       		.sleb128 0
 7515 1fa8 23       		.uleb128 0x23
 7516 1fa9 01       		.uleb128 0x1
 7517 1faa 51       		.byte	0x51
 7518 1fab 02       		.uleb128 0x2
 7519 1fac 75       		.byte	0x75
 7520 1fad 00       		.sleb128 0
 7521 1fae 23       		.uleb128 0x23
 7522 1faf 01       		.uleb128 0x1
 7523 1fb0 50       		.byte	0x50
 7524 1fb1 02       		.uleb128 0x2
 7525 1fb2 74       		.byte	0x74
 7526 1fb3 00       		.sleb128 0
 7527 1fb4 00       		.byte	0
 7528 1fb5 00       		.byte	0
 7529 1fb6 3E       		.uleb128 0x3e
 7530 1fb7 36090000 		.4byte	.LASF260
 7531 1fbb 01       		.byte	0x1
 7532 1fbc 4003     		.2byte	0x340
 7533 1fbe 00000000 		.4byte	.LFB21
 7534 1fc2 E0000000 		.4byte	.LFE21-.LFB21
 7535 1fc6 01       		.uleb128 0x1
 7536 1fc7 9C       		.byte	0x9c
 7537 1fc8 65200000 		.4byte	0x2065
 7538 1fcc 1F       		.uleb128 0x1f
 7539 1fcd 6D736700 		.ascii	"msg\000"
 7540 1fd1 01       		.byte	0x1
 7541 1fd2 4003     		.2byte	0x340
 7542 1fd4 F00B0000 		.4byte	0xbf0
 7543 1fd8 440F0000 		.4byte	.LLST74
 7544 1fdc 24       		.uleb128 0x24
 7545 1fdd 1C000000 		.4byte	.LVL279
 7546 1fe1 69240000 		.4byte	0x2469
 7547 1fe5 24       		.uleb128 0x24
 7548 1fe6 2A000000 		.4byte	.LVL280
 7549 1fea 53270000 		.4byte	0x2753
 7550 1fee 24       		.uleb128 0x24
 7551 1fef 3A000000 		.4byte	.LVL282
 7552 1ff3 69240000 		.4byte	0x2469
 7553 1ff7 24       		.uleb128 0x24
 7554 1ff8 42000000 		.4byte	.LVL283
 7555 1ffc AE1C0000 		.4byte	0x1cae
 7556 2000 35       		.uleb128 0x35
 7557 2001 6E000000 		.4byte	.LVL284
 7558 2005 02       		.uleb128 0x2
 7559 2006 75       		.byte	0x75
ARM GAS  /tmp/ccT6pRdh.s 			page 134


 7560 2007 00       		.sleb128 0
 7561 2008 17200000 		.4byte	0x2017
 7562 200c 23       		.uleb128 0x23
 7563 200d 01       		.uleb128 0x1
 7564 200e 52       		.byte	0x52
 7565 200f 01       		.uleb128 0x1
 7566 2010 30       		.byte	0x30
 7567 2011 23       		.uleb128 0x23
 7568 2012 01       		.uleb128 0x1
 7569 2013 51       		.byte	0x51
 7570 2014 01       		.uleb128 0x1
 7571 2015 30       		.byte	0x30
 7572 2016 00       		.byte	0
 7573 2017 35       		.uleb128 0x35
 7574 2018 7E000000 		.4byte	.LVL285
 7575 201c 02       		.uleb128 0x2
 7576 201d 75       		.byte	0x75
 7577 201e 00       		.sleb128 0
 7578 201f 2E200000 		.4byte	0x202e
 7579 2023 23       		.uleb128 0x23
 7580 2024 01       		.uleb128 0x1
 7581 2025 52       		.byte	0x52
 7582 2026 01       		.uleb128 0x1
 7583 2027 30       		.byte	0x30
 7584 2028 23       		.uleb128 0x23
 7585 2029 01       		.uleb128 0x1
 7586 202a 51       		.byte	0x51
 7587 202b 01       		.uleb128 0x1
 7588 202c 32       		.byte	0x32
 7589 202d 00       		.byte	0
 7590 202e 24       		.uleb128 0x24
 7591 202f 88000000 		.4byte	.LVL286
 7592 2033 53270000 		.4byte	0x2753
 7593 2037 27       		.uleb128 0x27
 7594 2038 98000000 		.4byte	.LVL288
 7595 203c 58240000 		.4byte	0x2458
 7596 2040 24       		.uleb128 0x24
 7597 2041 A2000000 		.4byte	.LVL289
 7598 2045 68270000 		.4byte	0x2768
 7599 2049 24       		.uleb128 0x24
 7600 204a B4000000 		.4byte	.LVL290
 7601 204e 69240000 		.4byte	0x2469
 7602 2052 27       		.uleb128 0x27
 7603 2053 CA000000 		.4byte	.LVL292
 7604 2057 DB150000 		.4byte	0x15db
 7605 205b 24       		.uleb128 0x24
 7606 205c CE000000 		.4byte	.LVL293
 7607 2060 79270000 		.4byte	0x2779
 7608 2064 00       		.byte	0
 7609 2065 3E       		.uleb128 0x3e
 7610 2066 2B010000 		.4byte	.LASF261
 7611 206a 01       		.byte	0x1
 7612 206b 8203     		.2byte	0x382
 7613 206d 00000000 		.4byte	.LFB22
 7614 2071 7E000000 		.4byte	.LFE22-.LFB22
 7615 2075 01       		.uleb128 0x1
 7616 2076 9C       		.byte	0x9c
ARM GAS  /tmp/ccT6pRdh.s 			page 135


 7617 2077 CB200000 		.4byte	0x20cb
 7618 207b 1F       		.uleb128 0x1f
 7619 207c 6D736700 		.ascii	"msg\000"
 7620 2080 01       		.byte	0x1
 7621 2081 8203     		.2byte	0x382
 7622 2083 F00B0000 		.4byte	0xbf0
 7623 2087 B60F0000 		.4byte	.LLST75
 7624 208b 27       		.uleb128 0x27
 7625 208c 38000000 		.4byte	.LVL297
 7626 2090 58240000 		.4byte	0x2458
 7627 2094 24       		.uleb128 0x24
 7628 2095 40000000 		.4byte	.LVL298
 7629 2099 8A270000 		.4byte	0x278a
 7630 209d 27       		.uleb128 0x27
 7631 209e 50000000 		.4byte	.LVL300
 7632 20a2 58240000 		.4byte	0x2458
 7633 20a6 24       		.uleb128 0x24
 7634 20a7 58000000 		.4byte	.LVL301
 7635 20ab A9270000 		.4byte	0x27a9
 7636 20af 27       		.uleb128 0x27
 7637 20b0 68000000 		.4byte	.LVL303
 7638 20b4 58240000 		.4byte	0x2458
 7639 20b8 24       		.uleb128 0x24
 7640 20b9 6E000000 		.4byte	.LVL304
 7641 20bd C9270000 		.4byte	0x27c9
 7642 20c1 27       		.uleb128 0x27
 7643 20c2 7E000000 		.4byte	.LVL306
 7644 20c6 58240000 		.4byte	0x2458
 7645 20ca 00       		.byte	0
 7646 20cb 3E       		.uleb128 0x3e
 7647 20cc 9A080000 		.4byte	.LASF262
 7648 20d0 01       		.byte	0x1
 7649 20d1 D803     		.2byte	0x3d8
 7650 20d3 00000000 		.4byte	.LFB24
 7651 20d7 CC000000 		.4byte	.LFE24-.LFB24
 7652 20db 01       		.uleb128 0x1
 7653 20dc 9C       		.byte	0x9c
 7654 20dd 74210000 		.4byte	0x2174
 7655 20e1 1F       		.uleb128 0x1f
 7656 20e2 6D736700 		.ascii	"msg\000"
 7657 20e6 01       		.byte	0x1
 7658 20e7 D803     		.2byte	0x3d8
 7659 20e9 F00B0000 		.4byte	0xbf0
 7660 20ed 2D100000 		.4byte	.LLST76
 7661 20f1 21       		.uleb128 0x21
 7662 20f2 50000000 		.4byte	.Ldebug_ranges0+0x50
 7663 20f6 0B210000 		.4byte	0x210b
 7664 20fa 20       		.uleb128 0x20
 7665 20fb 600A0000 		.4byte	.LASF263
 7666 20ff 01       		.byte	0x1
 7667 2100 F303     		.2byte	0x3f3
 7668 2102 95040000 		.4byte	0x495
 7669 2106 C8100000 		.4byte	.LLST77
 7670 210a 00       		.byte	0
 7671 210b 24       		.uleb128 0x24
 7672 210c 22000000 		.4byte	.LVL309
 7673 2110 69240000 		.4byte	0x2469
ARM GAS  /tmp/ccT6pRdh.s 			page 136


 7674 2114 27       		.uleb128 0x27
 7675 2115 34000000 		.4byte	.LVL311
 7676 2119 58240000 		.4byte	0x2458
 7677 211d 24       		.uleb128 0x24
 7678 211e 3A000000 		.4byte	.LVL312
 7679 2122 E3270000 		.4byte	0x27e3
 7680 2126 27       		.uleb128 0x27
 7681 2127 4A000000 		.4byte	.LVL314
 7682 212b 58240000 		.4byte	0x2458
 7683 212f 27       		.uleb128 0x27
 7684 2130 5E000000 		.4byte	.LVL316
 7685 2134 58240000 		.4byte	0x2458
 7686 2138 24       		.uleb128 0x24
 7687 2139 66000000 		.4byte	.LVL317
 7688 213d FD270000 		.4byte	0x27fd
 7689 2141 27       		.uleb128 0x27
 7690 2142 76000000 		.4byte	.LVL319
 7691 2146 58240000 		.4byte	0x2458
 7692 214a 24       		.uleb128 0x24
 7693 214b 7C000000 		.4byte	.LVL320
 7694 214f FD120000 		.4byte	0x12fd
 7695 2153 26       		.uleb128 0x26
 7696 2154 90000000 		.4byte	.LVL321
 7697 2158 1C280000 		.4byte	0x281c
 7698 215c 6A210000 		.4byte	0x216a
 7699 2160 23       		.uleb128 0x23
 7700 2161 01       		.uleb128 0x1
 7701 2162 53       		.byte	0x53
 7702 2163 05       		.uleb128 0x5
 7703 2164 03       		.byte	0x3
 7704 2165 00000000 		.4byte	do_connected
 7705 2169 00       		.byte	0
 7706 216a 27       		.uleb128 0x27
 7707 216b C0000000 		.4byte	.LVL326
 7708 216f 58240000 		.4byte	0x2458
 7709 2173 00       		.byte	0
 7710 2174 3E       		.uleb128 0x3e
 7711 2175 E90B0000 		.4byte	.LASF264
 7712 2179 01       		.byte	0x1
 7713 217a 1204     		.2byte	0x412
 7714 217c 00000000 		.4byte	.LFB25
 7715 2180 2E000000 		.4byte	.LFE25-.LFB25
 7716 2184 01       		.uleb128 0x1
 7717 2185 9C       		.byte	0x9c
 7718 2186 AD210000 		.4byte	0x21ad
 7719 218a 1F       		.uleb128 0x1f
 7720 218b 6D736700 		.ascii	"msg\000"
 7721 218f 01       		.byte	0x1
 7722 2190 1204     		.2byte	0x412
 7723 2192 F00B0000 		.4byte	0xbf0
 7724 2196 20110000 		.4byte	.LLST78
 7725 219a 27       		.uleb128 0x27
 7726 219b 20000000 		.4byte	.LVL332
 7727 219f 58240000 		.4byte	0x2458
 7728 21a3 24       		.uleb128 0x24
 7729 21a4 26000000 		.4byte	.LVL333
 7730 21a8 41280000 		.4byte	0x2841
ARM GAS  /tmp/ccT6pRdh.s 			page 137


 7731 21ac 00       		.byte	0
 7732 21ad 3E       		.uleb128 0x3e
 7733 21ae F7040000 		.4byte	.LASF265
 7734 21b2 01       		.byte	0x1
 7735 21b3 2804     		.2byte	0x428
 7736 21b5 00000000 		.4byte	.LFB26
 7737 21b9 B6000000 		.4byte	.LFE26-.LFB26
 7738 21bd 01       		.uleb128 0x1
 7739 21be 9C       		.byte	0x9c
 7740 21bf 7A220000 		.4byte	0x227a
 7741 21c3 1F       		.uleb128 0x1f
 7742 21c4 6D736700 		.ascii	"msg\000"
 7743 21c8 01       		.byte	0x1
 7744 21c9 2804     		.2byte	0x428
 7745 21cb F00B0000 		.4byte	0xbf0
 7746 21cf 57110000 		.4byte	.LLST79
 7747 21d3 39       		.uleb128 0x39
 7748 21d4 34000000 		.4byte	.LBB21
 7749 21d8 82000000 		.4byte	.LBE21-.LBB21
 7750 21dc 70220000 		.4byte	0x2270
 7751 21e0 20       		.uleb128 0x20
 7752 21e1 69060000 		.4byte	.LASF266
 7753 21e5 01       		.byte	0x1
 7754 21e6 3404     		.2byte	0x434
 7755 21e8 A30A0000 		.4byte	0xaa3
 7756 21ec 8E110000 		.4byte	.LLST80
 7757 21f0 26       		.uleb128 0x26
 7758 21f1 3A000000 		.4byte	.LVL338
 7759 21f5 52280000 		.4byte	0x2852
 7760 21f9 04220000 		.4byte	0x2204
 7761 21fd 23       		.uleb128 0x23
 7762 21fe 01       		.uleb128 0x1
 7763 21ff 51       		.byte	0x51
 7764 2200 02       		.uleb128 0x2
 7765 2201 09       		.byte	0x9
 7766 2202 FF       		.byte	0xff
 7767 2203 00       		.byte	0
 7768 2204 24       		.uleb128 0x24
 7769 2205 46000000 		.4byte	.LVL340
 7770 2209 71240000 		.4byte	0x2471
 7771 220d 24       		.uleb128 0x24
 7772 220e 54000000 		.4byte	.LVL341
 7773 2212 71240000 		.4byte	0x2471
 7774 2216 24       		.uleb128 0x24
 7775 2217 6A000000 		.4byte	.LVL342
 7776 221b 1A250000 		.4byte	0x251a
 7777 221f 26       		.uleb128 0x26
 7778 2220 7A000000 		.4byte	.LVL343
 7779 2224 03260000 		.4byte	0x2603
 7780 2228 36220000 		.4byte	0x2236
 7781 222c 23       		.uleb128 0x23
 7782 222d 01       		.uleb128 0x1
 7783 222e 51       		.byte	0x51
 7784 222f 05       		.uleb128 0x5
 7785 2230 03       		.byte	0x3
 7786 2231 00000000 		.4byte	accept_function
 7787 2235 00       		.byte	0
ARM GAS  /tmp/ccT6pRdh.s 			page 138


 7788 2236 26       		.uleb128 0x26
 7789 2237 8C000000 		.4byte	.LVL346
 7790 223b ED250000 		.4byte	0x25ed
 7791 223f 4A220000 		.4byte	0x224a
 7792 2243 23       		.uleb128 0x23
 7793 2244 01       		.uleb128 0x1
 7794 2245 50       		.byte	0x50
 7795 2246 02       		.uleb128 0x2
 7796 2247 75       		.byte	0x75
 7797 2248 00       		.sleb128 0
 7798 2249 00       		.byte	0
 7799 224a 26       		.uleb128 0x26
 7800 224b A0000000 		.4byte	.LVL347
 7801 224f C3260000 		.4byte	0x26c3
 7802 2253 5D220000 		.4byte	0x225d
 7803 2257 23       		.uleb128 0x23
 7804 2258 01       		.uleb128 0x1
 7805 2259 51       		.byte	0x51
 7806 225a 01       		.uleb128 0x1
 7807 225b 34       		.byte	0x34
 7808 225c 00       		.byte	0
 7809 225d 24       		.uleb128 0x24
 7810 225e AC000000 		.4byte	.LVL348
 7811 2262 42270000 		.4byte	0x2742
 7812 2266 24       		.uleb128 0x24
 7813 2267 B4000000 		.4byte	.LVL349
 7814 226b DD260000 		.4byte	0x26dd
 7815 226f 00       		.byte	0
 7816 2270 27       		.uleb128 0x27
 7817 2271 2E000000 		.4byte	.LVL337
 7818 2275 58240000 		.4byte	0x2458
 7819 2279 00       		.byte	0
 7820 227a 3E       		.uleb128 0x3e
 7821 227b B40A0000 		.4byte	.LASF267
 7822 227f 01       		.byte	0x1
 7823 2280 6004     		.2byte	0x460
 7824 2282 00000000 		.4byte	.LFB27
 7825 2286 86000000 		.4byte	.LFE27-.LFB27
 7826 228a 01       		.uleb128 0x1
 7827 228b 9C       		.byte	0x9c
 7828 228c D7220000 		.4byte	0x22d7
 7829 2290 1F       		.uleb128 0x1f
 7830 2291 6D736700 		.ascii	"msg\000"
 7831 2295 01       		.byte	0x1
 7832 2296 6004     		.2byte	0x460
 7833 2298 F00B0000 		.4byte	0xbf0
 7834 229c C2110000 		.4byte	.LLST81
 7835 22a0 24       		.uleb128 0x24
 7836 22a1 3A000000 		.4byte	.LVL352
 7837 22a5 6D280000 		.4byte	0x286d
 7838 22a9 27       		.uleb128 0x27
 7839 22aa 4A000000 		.4byte	.LVL354
 7840 22ae 58240000 		.4byte	0x2458
 7841 22b2 24       		.uleb128 0x24
 7842 22b3 5C000000 		.4byte	.LVL355
 7843 22b7 87280000 		.4byte	0x2887
 7844 22bb 27       		.uleb128 0x27
ARM GAS  /tmp/ccT6pRdh.s 			page 139


 7845 22bc 6C000000 		.4byte	.LVL357
 7846 22c0 58240000 		.4byte	0x2458
 7847 22c4 24       		.uleb128 0x24
 7848 22c5 74000000 		.4byte	.LVL358
 7849 22c9 A1280000 		.4byte	0x28a1
 7850 22cd 24       		.uleb128 0x24
 7851 22ce 80000000 		.4byte	.LVL359
 7852 22d2 C5280000 		.4byte	0x28c5
 7853 22d6 00       		.byte	0
 7854 22d7 3E       		.uleb128 0x3e
 7855 22d8 CA0C0000 		.4byte	.LASF268
 7856 22dc 01       		.byte	0x1
 7857 22dd 9504     		.2byte	0x495
 7858 22df 00000000 		.4byte	.LFB28
 7859 22e3 4C000000 		.4byte	.LFE28-.LFB28
 7860 22e7 01       		.uleb128 0x1
 7861 22e8 9C       		.byte	0x9c
 7862 22e9 51230000 		.4byte	0x2351
 7863 22ed 1F       		.uleb128 0x1f
 7864 22ee 6D736700 		.ascii	"msg\000"
 7865 22f2 01       		.byte	0x1
 7866 22f3 9504     		.2byte	0x495
 7867 22f5 F00B0000 		.4byte	0xbf0
 7868 22f9 12120000 		.4byte	.LLST82
 7869 22fd 39       		.uleb128 0x39
 7870 22fe 20000000 		.4byte	.LBB22
 7871 2302 20000000 		.4byte	.LBE22-.LBB22
 7872 2306 3E230000 		.4byte	0x233e
 7873 230a 20       		.uleb128 0x20
 7874 230b CA030000 		.4byte	.LASF269
 7875 230f 01       		.byte	0x1
 7876 2310 A004     		.2byte	0x4a0
 7877 2312 C1040000 		.4byte	0x4c1
 7878 2316 57120000 		.4byte	.LLST83
 7879 231a 3A       		.uleb128 0x3a
 7880 231b 26000000 		.4byte	.LBB23
 7881 231f 14000000 		.4byte	.LBE23-.LBB23
 7882 2323 20       		.uleb128 0x20
 7883 2324 64090000 		.4byte	.LASF270
 7884 2328 01       		.byte	0x1
 7885 2329 A204     		.2byte	0x4a2
 7886 232b AB040000 		.4byte	0x4ab
 7887 232f 85120000 		.4byte	.LLST84
 7888 2333 24       		.uleb128 0x24
 7889 2334 3A000000 		.4byte	.LVL367
 7890 2338 1A260000 		.4byte	0x261a
 7891 233c 00       		.byte	0
 7892 233d 00       		.byte	0
 7893 233e 27       		.uleb128 0x27
 7894 233f 20000000 		.4byte	.LVL363
 7895 2343 58240000 		.4byte	0x2458
 7896 2347 27       		.uleb128 0x27
 7897 2348 4C000000 		.4byte	.LVL370
 7898 234c 58240000 		.4byte	0x2458
 7899 2350 00       		.byte	0
 7900 2351 3E       		.uleb128 0x3e
 7901 2352 21000000 		.4byte	.LASF271
ARM GAS  /tmp/ccT6pRdh.s 			page 140


 7902 2356 01       		.byte	0x1
 7903 2357 3F05     		.2byte	0x53f
 7904 2359 00000000 		.4byte	.LFB30
 7905 235d 76000000 		.4byte	.LFE30-.LFB30
 7906 2361 01       		.uleb128 0x1
 7907 2362 9C       		.byte	0x9c
 7908 2363 9C230000 		.4byte	0x239c
 7909 2367 1F       		.uleb128 0x1f
 7910 2368 6D736700 		.ascii	"msg\000"
 7911 236c 01       		.byte	0x1
 7912 236d 3F05     		.2byte	0x53f
 7913 236f F00B0000 		.4byte	0xbf0
 7914 2373 98120000 		.4byte	.LLST85
 7915 2377 27       		.uleb128 0x27
 7916 2378 28000000 		.4byte	.LVL373
 7917 237c 58240000 		.4byte	0x2458
 7918 2380 24       		.uleb128 0x24
 7919 2381 44000000 		.4byte	.LVL374
 7920 2385 69240000 		.4byte	0x2469
 7921 2389 27       		.uleb128 0x27
 7922 238a 5E000000 		.4byte	.LVL375
 7923 238e 7D140000 		.4byte	0x147d
 7924 2392 24       		.uleb128 0x24
 7925 2393 64000000 		.4byte	.LVL376
 7926 2397 69240000 		.4byte	0x2469
 7927 239b 00       		.byte	0
 7928 239c 3E       		.uleb128 0x3e
 7929 239d 5B000000 		.4byte	.LASF272
 7930 23a1 01       		.byte	0x1
 7931 23a2 7605     		.2byte	0x576
 7932 23a4 00000000 		.4byte	.LFB31
 7933 23a8 9E000000 		.4byte	.LFE31-.LFB31
 7934 23ac 01       		.uleb128 0x1
 7935 23ad 9C       		.byte	0x9c
 7936 23ae F0230000 		.4byte	0x23f0
 7937 23b2 1F       		.uleb128 0x1f
 7938 23b3 6D736700 		.ascii	"msg\000"
 7939 23b7 01       		.byte	0x1
 7940 23b8 7605     		.2byte	0x576
 7941 23ba F00B0000 		.4byte	0xbf0
 7942 23be DD120000 		.4byte	.LLST86
 7943 23c2 24       		.uleb128 0x24
 7944 23c3 2E000000 		.4byte	.LVL380
 7945 23c7 69240000 		.4byte	0x2469
 7946 23cb 27       		.uleb128 0x27
 7947 23cc 3A000000 		.4byte	.LVL382
 7948 23d0 58240000 		.4byte	0x2458
 7949 23d4 27       		.uleb128 0x27
 7950 23d5 52000000 		.4byte	.LVL384
 7951 23d9 58240000 		.4byte	0x2458
 7952 23dd 27       		.uleb128 0x27
 7953 23de 68000000 		.4byte	.LVL386
 7954 23e2 58240000 		.4byte	0x2458
 7955 23e6 27       		.uleb128 0x27
 7956 23e7 8E000000 		.4byte	.LVL388
 7957 23eb 58240000 		.4byte	0x2458
 7958 23ef 00       		.byte	0
ARM GAS  /tmp/ccT6pRdh.s 			page 141


 7959 23f0 3E       		.uleb128 0x3e
 7960 23f1 8C030000 		.4byte	.LASF273
 7961 23f5 01       		.byte	0x1
 7962 23f6 AB05     		.2byte	0x5ab
 7963 23f8 00000000 		.4byte	.LFB32
 7964 23fc 7C000000 		.4byte	.LFE32-.LFB32
 7965 2400 01       		.uleb128 0x1
 7966 2401 9C       		.byte	0x9c
 7967 2402 4D240000 		.4byte	0x244d
 7968 2406 1F       		.uleb128 0x1f
 7969 2407 6D736700 		.ascii	"msg\000"
 7970 240b 01       		.byte	0x1
 7971 240c AB05     		.2byte	0x5ab
 7972 240e F00B0000 		.4byte	0xbf0
 7973 2412 5F130000 		.4byte	.LLST87
 7974 2416 24       		.uleb128 0x24
 7975 2417 18000000 		.4byte	.LVL391
 7976 241b 69240000 		.4byte	0x2469
 7977 241f 27       		.uleb128 0x27
 7978 2420 28000000 		.4byte	.LVL393
 7979 2424 58240000 		.4byte	0x2458
 7980 2428 27       		.uleb128 0x27
 7981 2429 40000000 		.4byte	.LVL395
 7982 242d 58240000 		.4byte	0x2458
 7983 2431 24       		.uleb128 0x24
 7984 2432 5C000000 		.4byte	.LVL396
 7985 2436 69240000 		.4byte	0x2469
 7986 243a 27       		.uleb128 0x27
 7987 243b 6C000000 		.4byte	.LVL398
 7988 243f DB150000 		.4byte	0x15db
 7989 2443 24       		.uleb128 0x24
 7990 2444 78000000 		.4byte	.LVL399
 7991 2448 AE1C0000 		.4byte	0x1cae
 7992 244c 00       		.byte	0
 7993 244d 42       		.uleb128 0x42
 7994 244e 5B020000 		.4byte	.LASF329
 7995 2452 13       		.byte	0x13
 7996 2453 AA       		.byte	0xaa
 7997 2454 E5040000 		.4byte	0x4e5
 7998 2458 43       		.uleb128 0x43
 7999 2459 54040000 		.4byte	.LASF278
 8000 245d 19       		.byte	0x19
 8001 245e 8E       		.byte	0x8e
 8002 245f 69240000 		.4byte	0x2469
 8003 2463 15       		.uleb128 0x15
 8004 2464 090F0000 		.4byte	0xf09
 8005 2468 00       		.byte	0
 8006 2469 44       		.uleb128 0x44
 8007 246a A1030000 		.4byte	.LASF330
 8008 246e 08       		.byte	0x8
 8009 246f 0102     		.2byte	0x201
 8010 2471 45       		.uleb128 0x45
 8011 2472 35060000 		.4byte	.LASF274
 8012 2476 19       		.byte	0x19
 8013 2477 D5       		.byte	0xd5
 8014 2478 25000000 		.4byte	0x25
 8015 247c 86240000 		.4byte	0x2486
ARM GAS  /tmp/ccT6pRdh.s 			page 142


 8016 2480 15       		.uleb128 0x15
 8017 2481 86240000 		.4byte	0x2486
 8018 2485 00       		.byte	0
 8019 2486 09       		.uleb128 0x9
 8020 2487 04       		.byte	0x4
 8021 2488 0C050000 		.4byte	0x50c
 8022 248c 45       		.uleb128 0x45
 8023 248d DA060000 		.4byte	.LASF275
 8024 2491 19       		.byte	0x19
 8025 2492 BA       		.byte	0xba
 8026 2493 F0040000 		.4byte	0x4f0
 8027 2497 A6240000 		.4byte	0x24a6
 8028 249b 15       		.uleb128 0x15
 8029 249c 86240000 		.4byte	0x2486
 8030 24a0 15       		.uleb128 0x15
 8031 24a1 C9020000 		.4byte	0x2c9
 8032 24a5 00       		.byte	0
 8033 24a6 45       		.uleb128 0x45
 8034 24a7 CC0A0000 		.4byte	.LASF276
 8035 24ab 10       		.byte	0x10
 8036 24ac 9B       		.byte	0x9b
 8037 24ad 95040000 		.4byte	0x495
 8038 24b1 BB240000 		.4byte	0x24bb
 8039 24b5 15       		.uleb128 0x15
 8040 24b6 D6050000 		.4byte	0x5d6
 8041 24ba 00       		.byte	0
 8042 24bb 45       		.uleb128 0x45
 8043 24bc B4030000 		.4byte	.LASF277
 8044 24c0 18       		.byte	0x18
 8045 24c1 6A       		.byte	0x6a
 8046 24c2 C9020000 		.4byte	0x2c9
 8047 24c6 D0240000 		.4byte	0x24d0
 8048 24ca 15       		.uleb128 0x15
 8049 24cb FE0E0000 		.4byte	0xefe
 8050 24cf 00       		.byte	0
 8051 24d0 43       		.uleb128 0x43
 8052 24d1 00030000 		.4byte	.LASF279
 8053 24d5 11       		.byte	0x11
 8054 24d6 41       		.byte	0x41
 8055 24d7 E1240000 		.4byte	0x24e1
 8056 24db 15       		.uleb128 0x15
 8057 24dc 080D0000 		.4byte	0xd08
 8058 24e0 00       		.byte	0
 8059 24e1 45       		.uleb128 0x45
 8060 24e2 F8090000 		.4byte	.LASF280
 8061 24e6 10       		.byte	0x10
 8062 24e7 92       		.byte	0x92
 8063 24e8 D6050000 		.4byte	0x5d6
 8064 24ec 00250000 		.4byte	0x2500
 8065 24f0 15       		.uleb128 0x15
 8066 24f1 3E050000 		.4byte	0x53e
 8067 24f5 15       		.uleb128 0x15
 8068 24f6 AB040000 		.4byte	0x4ab
 8069 24fa 15       		.uleb128 0x15
 8070 24fb 6A050000 		.4byte	0x56a
 8071 24ff 00       		.byte	0
 8072 2500 45       		.uleb128 0x45
ARM GAS  /tmp/ccT6pRdh.s 			page 143


 8073 2501 07000000 		.4byte	.LASF281
 8074 2505 10       		.byte	0x10
 8075 2506 A0       		.byte	0xa0
 8076 2507 F0040000 		.4byte	0x4f0
 8077 250b 1A250000 		.4byte	0x251a
 8078 250f 15       		.uleb128 0x15
 8079 2510 D6050000 		.4byte	0x5d6
 8080 2514 15       		.uleb128 0x15
 8081 2515 D6050000 		.4byte	0x5d6
 8082 2519 00       		.byte	0
 8083 251a 46       		.uleb128 0x46
 8084 251b A7090000 		.4byte	.LASF282
 8085 251f 14       		.byte	0x14
 8086 2520 3E01     		.2byte	0x13e
 8087 2522 31250000 		.4byte	0x2531
 8088 2526 15       		.uleb128 0x15
 8089 2527 A30A0000 		.4byte	0xaa3
 8090 252b 15       		.uleb128 0x15
 8091 252c C9020000 		.4byte	0x2c9
 8092 2530 00       		.byte	0
 8093 2531 46       		.uleb128 0x46
 8094 2532 58050000 		.4byte	.LASF283
 8095 2536 14       		.byte	0x14
 8096 2537 4001     		.2byte	0x140
 8097 2539 48250000 		.4byte	0x2548
 8098 253d 15       		.uleb128 0x15
 8099 253e A30A0000 		.4byte	0xaa3
 8100 2542 15       		.uleb128 0x15
 8101 2543 680D0000 		.4byte	0xd68
 8102 2547 00       		.byte	0
 8103 2548 46       		.uleb128 0x46
 8104 2549 39070000 		.4byte	.LASF284
 8105 254d 14       		.byte	0x14
 8106 254e 4101     		.2byte	0x141
 8107 2550 5F250000 		.4byte	0x255f
 8108 2554 15       		.uleb128 0x15
 8109 2555 A30A0000 		.4byte	0xaa3
 8110 2559 15       		.uleb128 0x15
 8111 255a 970D0000 		.4byte	0xd97
 8112 255e 00       		.byte	0
 8113 255f 46       		.uleb128 0x46
 8114 2560 150E0000 		.4byte	.LASF285
 8115 2564 14       		.byte	0x14
 8116 2565 4201     		.2byte	0x142
 8117 2567 7B250000 		.4byte	0x257b
 8118 256b 15       		.uleb128 0x15
 8119 256c A30A0000 		.4byte	0xaa3
 8120 2570 15       		.uleb128 0x15
 8121 2571 C10D0000 		.4byte	0xdc1
 8122 2575 15       		.uleb128 0x15
 8123 2576 95040000 		.4byte	0x495
 8124 257a 00       		.byte	0
 8125 257b 46       		.uleb128 0x46
 8126 257c 99070000 		.4byte	.LASF286
 8127 2580 14       		.byte	0x14
 8128 2581 4301     		.2byte	0x143
 8129 2583 92250000 		.4byte	0x2592
ARM GAS  /tmp/ccT6pRdh.s 			page 144


 8130 2587 15       		.uleb128 0x15
 8131 2588 A30A0000 		.4byte	0xaa3
 8132 258c 15       		.uleb128 0x15
 8133 258d E60D0000 		.4byte	0xde6
 8134 2591 00       		.byte	0
 8135 2592 47       		.uleb128 0x47
 8136 2593 04010000 		.4byte	.LASF287
 8137 2597 14       		.byte	0x14
 8138 2598 6601     		.2byte	0x166
 8139 259a F0040000 		.4byte	0x4f0
 8140 259e B7250000 		.4byte	0x25b7
 8141 25a2 15       		.uleb128 0x15
 8142 25a3 A30A0000 		.4byte	0xaa3
 8143 25a7 15       		.uleb128 0x15
 8144 25a8 8C0C0000 		.4byte	0xc8c
 8145 25ac 15       		.uleb128 0x15
 8146 25ad AB040000 		.4byte	0x4ab
 8147 25b1 15       		.uleb128 0x15
 8148 25b2 95040000 		.4byte	0x495
 8149 25b6 00       		.byte	0
 8150 25b7 47       		.uleb128 0x47
 8151 25b8 0E060000 		.4byte	.LASF288
 8152 25bc 14       		.byte	0x14
 8153 25bd 6F01     		.2byte	0x16f
 8154 25bf F0040000 		.4byte	0x4f0
 8155 25c3 CD250000 		.4byte	0x25cd
 8156 25c7 15       		.uleb128 0x15
 8157 25c8 A30A0000 		.4byte	0xaa3
 8158 25cc 00       		.byte	0
 8159 25cd 47       		.uleb128 0x47
 8160 25ce FA060000 		.4byte	.LASF289
 8161 25d2 14       		.byte	0x14
 8162 25d3 6001     		.2byte	0x160
 8163 25d5 F0040000 		.4byte	0x4f0
 8164 25d9 ED250000 		.4byte	0x25ed
 8165 25dd 15       		.uleb128 0x15
 8166 25de A30A0000 		.4byte	0xaa3
 8167 25e2 15       		.uleb128 0x15
 8168 25e3 25000000 		.4byte	0x25
 8169 25e7 15       		.uleb128 0x15
 8170 25e8 25000000 		.4byte	0x25
 8171 25ec 00       		.byte	0
 8172 25ed 47       		.uleb128 0x47
 8173 25ee 77040000 		.4byte	.LASF290
 8174 25f2 14       		.byte	0x14
 8175 25f3 5F01     		.2byte	0x15f
 8176 25f5 F0040000 		.4byte	0x4f0
 8177 25f9 03260000 		.4byte	0x2603
 8178 25fd 15       		.uleb128 0x15
 8179 25fe A30A0000 		.4byte	0xaa3
 8180 2602 00       		.byte	0
 8181 2603 46       		.uleb128 0x46
 8182 2604 D8040000 		.4byte	.LASF291
 8183 2608 14       		.byte	0x14
 8184 2609 3F01     		.2byte	0x13f
 8185 260b 1A260000 		.4byte	0x261a
 8186 260f 15       		.uleb128 0x15
ARM GAS  /tmp/ccT6pRdh.s 			page 145


 8187 2610 A30A0000 		.4byte	0xaa3
 8188 2614 15       		.uleb128 0x15
 8189 2615 3E0D0000 		.4byte	0xd3e
 8190 2619 00       		.byte	0
 8191 261a 46       		.uleb128 0x46
 8192 261b 6D020000 		.4byte	.LASF292
 8193 261f 14       		.byte	0x14
 8194 2620 5501     		.2byte	0x155
 8195 2622 31260000 		.4byte	0x2631
 8196 2626 15       		.uleb128 0x15
 8197 2627 A30A0000 		.4byte	0xaa3
 8198 262b 15       		.uleb128 0x15
 8199 262c AB040000 		.4byte	0x4ab
 8200 2630 00       		.byte	0
 8201 2631 48       		.uleb128 0x48
 8202 2632 84010000 		.4byte	.LASF295
 8203 2636 14       		.byte	0x14
 8204 2637 3C01     		.2byte	0x13c
 8205 2639 A30A0000 		.4byte	0xaa3
 8206 263d 45       		.uleb128 0x45
 8207 263e 4F070000 		.4byte	.LASF293
 8208 2642 16       		.byte	0x16
 8209 2643 4F       		.byte	0x4f
 8210 2644 B90B0000 		.4byte	0xbb9
 8211 2648 52260000 		.4byte	0x2652
 8212 264c 15       		.uleb128 0x15
 8213 264d 95040000 		.4byte	0x495
 8214 2651 00       		.byte	0
 8215 2652 43       		.uleb128 0x43
 8216 2653 780D0000 		.4byte	.LASF294
 8217 2657 16       		.byte	0x16
 8218 2658 54       		.byte	0x54
 8219 2659 6D260000 		.4byte	0x266d
 8220 265d 15       		.uleb128 0x15
 8221 265e B90B0000 		.4byte	0xbb9
 8222 2662 15       		.uleb128 0x15
 8223 2663 6C0E0000 		.4byte	0xe6c
 8224 2667 15       		.uleb128 0x15
 8225 2668 C9020000 		.4byte	0x2c9
 8226 266c 00       		.byte	0
 8227 266d 49       		.uleb128 0x49
 8228 266e AB0D0000 		.4byte	.LASF296
 8229 2672 15       		.byte	0x15
 8230 2673 7B       		.byte	0x7b
 8231 2674 3A0B0000 		.4byte	0xb3a
 8232 2678 43       		.uleb128 0x43
 8233 2679 44050000 		.4byte	.LASF297
 8234 267d 15       		.byte	0x15
 8235 267e 82       		.byte	0x82
 8236 267f 93260000 		.4byte	0x2693
 8237 2683 15       		.uleb128 0x15
 8238 2684 3A0B0000 		.4byte	0xb3a
 8239 2688 15       		.uleb128 0x15
 8240 2689 0E0D0000 		.4byte	0xd0e
 8241 268d 15       		.uleb128 0x15
 8242 268e C9020000 		.4byte	0x2c9
 8243 2692 00       		.byte	0
ARM GAS  /tmp/ccT6pRdh.s 			page 146


 8244 2693 43       		.uleb128 0x43
 8245 2694 560A0000 		.4byte	.LASF298
 8246 2698 18       		.byte	0x18
 8247 2699 6C       		.byte	0x6c
 8248 269a A9260000 		.4byte	0x26a9
 8249 269e 15       		.uleb128 0x15
 8250 269f FE0E0000 		.4byte	0xefe
 8251 26a3 15       		.uleb128 0x15
 8252 26a4 C9020000 		.4byte	0x2c9
 8253 26a8 00       		.byte	0
 8254 26a9 45       		.uleb128 0x45
 8255 26aa BA0B0000 		.4byte	.LASF299
 8256 26ae 19       		.byte	0x19
 8257 26af 8B       		.byte	0x8b
 8258 26b0 F0040000 		.4byte	0x4f0
 8259 26b4 C3260000 		.4byte	0x26c3
 8260 26b8 15       		.uleb128 0x15
 8261 26b9 090F0000 		.4byte	0xf09
 8262 26bd 15       		.uleb128 0x15
 8263 26be 95040000 		.4byte	0x495
 8264 26c2 00       		.byte	0
 8265 26c3 45       		.uleb128 0x45
 8266 26c4 81040000 		.4byte	.LASF300
 8267 26c8 19       		.byte	0x19
 8268 26c9 B1       		.byte	0xb1
 8269 26ca F0040000 		.4byte	0x4f0
 8270 26ce DD260000 		.4byte	0x26dd
 8271 26d2 15       		.uleb128 0x15
 8272 26d3 86240000 		.4byte	0x2486
 8273 26d7 15       		.uleb128 0x15
 8274 26d8 25000000 		.4byte	0x25
 8275 26dc 00       		.byte	0
 8276 26dd 43       		.uleb128 0x43
 8277 26de 88000000 		.4byte	.LASF301
 8278 26e2 19       		.byte	0x19
 8279 26e3 D9       		.byte	0xd9
 8280 26e4 EE260000 		.4byte	0x26ee
 8281 26e8 15       		.uleb128 0x15
 8282 26e9 86240000 		.4byte	0x2486
 8283 26ed 00       		.byte	0
 8284 26ee 43       		.uleb128 0x43
 8285 26ef 77080000 		.4byte	.LASF302
 8286 26f3 19       		.byte	0x19
 8287 26f4 9A       		.byte	0x9a
 8288 26f5 FF260000 		.4byte	0x26ff
 8289 26f9 15       		.uleb128 0x15
 8290 26fa 090F0000 		.4byte	0xf09
 8291 26fe 00       		.byte	0
 8292 26ff 43       		.uleb128 0x43
 8293 2700 120A0000 		.4byte	.LASF303
 8294 2704 19       		.byte	0x19
 8295 2705 A3       		.byte	0xa3
 8296 2706 10270000 		.4byte	0x2710
 8297 270a 15       		.uleb128 0x15
 8298 270b 090F0000 		.4byte	0xf09
 8299 270f 00       		.byte	0
 8300 2710 46       		.uleb128 0x46
ARM GAS  /tmp/ccT6pRdh.s 			page 147


 8301 2711 64070000 		.4byte	.LASF304
 8302 2715 14       		.byte	0x14
 8303 2716 5E01     		.2byte	0x15e
 8304 2718 22270000 		.4byte	0x2722
 8305 271c 15       		.uleb128 0x15
 8306 271d A30A0000 		.4byte	0xaa3
 8307 2721 00       		.byte	0
 8308 2722 45       		.uleb128 0x45
 8309 2723 240E0000 		.4byte	.LASF305
 8310 2727 19       		.byte	0x19
 8311 2728 CB       		.byte	0xcb
 8312 2729 C1040000 		.4byte	0x4c1
 8313 272d 3C270000 		.4byte	0x273c
 8314 2731 15       		.uleb128 0x15
 8315 2732 86240000 		.4byte	0x2486
 8316 2736 15       		.uleb128 0x15
 8317 2737 3C270000 		.4byte	0x273c
 8318 273b 00       		.byte	0
 8319 273c 09       		.uleb128 0x9
 8320 273d 04       		.byte	0x4
 8321 273e C9020000 		.4byte	0x2c9
 8322 2742 43       		.uleb128 0x43
 8323 2743 DA080000 		.4byte	.LASF306
 8324 2747 19       		.byte	0x19
 8325 2748 D1       		.byte	0xd1
 8326 2749 53270000 		.4byte	0x2753
 8327 274d 15       		.uleb128 0x15
 8328 274e 86240000 		.4byte	0x2486
 8329 2752 00       		.byte	0
 8330 2753 45       		.uleb128 0x45
 8331 2754 A5080000 		.4byte	.LASF307
 8332 2758 19       		.byte	0x19
 8333 2759 9F       		.byte	0x9f
 8334 275a 25000000 		.4byte	0x25
 8335 275e 68270000 		.4byte	0x2768
 8336 2762 15       		.uleb128 0x15
 8337 2763 090F0000 		.4byte	0xf09
 8338 2767 00       		.byte	0
 8339 2768 43       		.uleb128 0x43
 8340 2769 D0050000 		.4byte	.LASF308
 8341 276d 15       		.byte	0x15
 8342 276e 7C       		.byte	0x7c
 8343 276f 79270000 		.4byte	0x2779
 8344 2773 15       		.uleb128 0x15
 8345 2774 3A0B0000 		.4byte	0xb3a
 8346 2778 00       		.byte	0
 8347 2779 43       		.uleb128 0x43
 8348 277a 96040000 		.4byte	.LASF309
 8349 277e 16       		.byte	0x16
 8350 277f 50       		.byte	0x50
 8351 2780 8A270000 		.4byte	0x278a
 8352 2784 15       		.uleb128 0x15
 8353 2785 B90B0000 		.4byte	0xbb9
 8354 2789 00       		.byte	0
 8355 278a 45       		.uleb128 0x45
 8356 278b FC050000 		.4byte	.LASF310
 8357 278f 15       		.byte	0x15
ARM GAS  /tmp/ccT6pRdh.s 			page 148


 8358 2790 7D       		.byte	0x7d
 8359 2791 F0040000 		.4byte	0x4f0
 8360 2795 A9270000 		.4byte	0x27a9
 8361 2799 15       		.uleb128 0x15
 8362 279a 3A0B0000 		.4byte	0xb3a
 8363 279e 15       		.uleb128 0x15
 8364 279f DC050000 		.4byte	0x5dc
 8365 27a3 15       		.uleb128 0x15
 8366 27a4 AB040000 		.4byte	0x4ab
 8367 27a8 00       		.byte	0
 8368 27a9 47       		.uleb128 0x47
 8369 27aa EB0A0000 		.4byte	.LASF311
 8370 27ae 14       		.byte	0x14
 8371 27af 5601     		.2byte	0x156
 8372 27b1 F0040000 		.4byte	0x4f0
 8373 27b5 C9270000 		.4byte	0x27c9
 8374 27b9 15       		.uleb128 0x15
 8375 27ba A30A0000 		.4byte	0xaa3
 8376 27be 15       		.uleb128 0x15
 8377 27bf DC050000 		.4byte	0x5dc
 8378 27c3 15       		.uleb128 0x15
 8379 27c4 AB040000 		.4byte	0x4ab
 8380 27c8 00       		.byte	0
 8381 27c9 45       		.uleb128 0x45
 8382 27ca 66000000 		.4byte	.LASF312
 8383 27ce 16       		.byte	0x16
 8384 27cf 51       		.byte	0x51
 8385 27d0 F0040000 		.4byte	0x4f0
 8386 27d4 E3270000 		.4byte	0x27e3
 8387 27d8 15       		.uleb128 0x15
 8388 27d9 B90B0000 		.4byte	0xbb9
 8389 27dd 15       		.uleb128 0x15
 8390 27de DC050000 		.4byte	0x5dc
 8391 27e2 00       		.byte	0
 8392 27e3 45       		.uleb128 0x45
 8393 27e4 1C030000 		.4byte	.LASF313
 8394 27e8 16       		.byte	0x16
 8395 27e9 52       		.byte	0x52
 8396 27ea F0040000 		.4byte	0x4f0
 8397 27ee FD270000 		.4byte	0x27fd
 8398 27f2 15       		.uleb128 0x15
 8399 27f3 B90B0000 		.4byte	0xbb9
 8400 27f7 15       		.uleb128 0x15
 8401 27f8 DC050000 		.4byte	0x5dc
 8402 27fc 00       		.byte	0
 8403 27fd 45       		.uleb128 0x45
 8404 27fe EA000000 		.4byte	.LASF314
 8405 2802 15       		.byte	0x15
 8406 2803 7F       		.byte	0x7f
 8407 2804 F0040000 		.4byte	0x4f0
 8408 2808 1C280000 		.4byte	0x281c
 8409 280c 15       		.uleb128 0x15
 8410 280d 3A0B0000 		.4byte	0xb3a
 8411 2811 15       		.uleb128 0x15
 8412 2812 DC050000 		.4byte	0x5dc
 8413 2816 15       		.uleb128 0x15
 8414 2817 AB040000 		.4byte	0x4ab
ARM GAS  /tmp/ccT6pRdh.s 			page 149


 8415 281b 00       		.byte	0
 8416 281c 47       		.uleb128 0x47
 8417 281d 3E0B0000 		.4byte	.LASF315
 8418 2821 14       		.byte	0x14
 8419 2822 5801     		.2byte	0x158
 8420 2824 F0040000 		.4byte	0x4f0
 8421 2828 41280000 		.4byte	0x2841
 8422 282c 15       		.uleb128 0x15
 8423 282d A30A0000 		.4byte	0xaa3
 8424 2831 15       		.uleb128 0x15
 8425 2832 DC050000 		.4byte	0x5dc
 8426 2836 15       		.uleb128 0x15
 8427 2837 AB040000 		.4byte	0x4ab
 8428 283b 15       		.uleb128 0x15
 8429 283c 070E0000 		.4byte	0xe07
 8430 2840 00       		.byte	0
 8431 2841 43       		.uleb128 0x43
 8432 2842 26060000 		.4byte	.LASF316
 8433 2846 15       		.byte	0x15
 8434 2847 81       		.byte	0x81
 8435 2848 52280000 		.4byte	0x2852
 8436 284c 15       		.uleb128 0x15
 8437 284d 3A0B0000 		.4byte	0xb3a
 8438 2851 00       		.byte	0
 8439 2852 47       		.uleb128 0x47
 8440 2853 2C050000 		.4byte	.LASF317
 8441 2857 14       		.byte	0x14
 8442 2858 5B01     		.2byte	0x15b
 8443 285a A30A0000 		.4byte	0xaa3
 8444 285e 6D280000 		.4byte	0x286d
 8445 2862 15       		.uleb128 0x15
 8446 2863 A30A0000 		.4byte	0xaa3
 8447 2867 15       		.uleb128 0x15
 8448 2868 95040000 		.4byte	0x495
 8449 286c 00       		.byte	0
 8450 286d 45       		.uleb128 0x45
 8451 286e EE040000 		.4byte	.LASF318
 8452 2872 16       		.byte	0x16
 8453 2873 56       		.byte	0x56
 8454 2874 F0040000 		.4byte	0x4f0
 8455 2878 87280000 		.4byte	0x2887
 8456 287c 15       		.uleb128 0x15
 8457 287d B90B0000 		.4byte	0xbb9
 8458 2881 15       		.uleb128 0x15
 8459 2882 D6050000 		.4byte	0x5d6
 8460 2886 00       		.byte	0
 8461 2887 45       		.uleb128 0x45
 8462 2888 28030000 		.4byte	.LASF319
 8463 288c 15       		.byte	0x15
 8464 288d 89       		.byte	0x89
 8465 288e F0040000 		.4byte	0x4f0
 8466 2892 A1280000 		.4byte	0x28a1
 8467 2896 15       		.uleb128 0x15
 8468 2897 3A0B0000 		.4byte	0xb3a
 8469 289b 15       		.uleb128 0x15
 8470 289c D6050000 		.4byte	0x5d6
 8471 28a0 00       		.byte	0
ARM GAS  /tmp/ccT6pRdh.s 			page 150


 8472 28a1 45       		.uleb128 0x45
 8473 28a2 5D080000 		.4byte	.LASF320
 8474 28a6 15       		.byte	0x15
 8475 28a7 87       		.byte	0x87
 8476 28a8 F0040000 		.4byte	0x4f0
 8477 28ac C5280000 		.4byte	0x28c5
 8478 28b0 15       		.uleb128 0x15
 8479 28b1 3A0B0000 		.4byte	0xb3a
 8480 28b5 15       		.uleb128 0x15
 8481 28b6 D6050000 		.4byte	0x5d6
 8482 28ba 15       		.uleb128 0x15
 8483 28bb DC050000 		.4byte	0x5dc
 8484 28bf 15       		.uleb128 0x15
 8485 28c0 AB040000 		.4byte	0x4ab
 8486 28c4 00       		.byte	0
 8487 28c5 4A       		.uleb128 0x4a
 8488 28c6 45030000 		.4byte	.LASF321
 8489 28ca 16       		.byte	0x16
 8490 28cb 55       		.byte	0x55
 8491 28cc F0040000 		.4byte	0x4f0
 8492 28d0 15       		.uleb128 0x15
 8493 28d1 B90B0000 		.4byte	0xbb9
 8494 28d5 15       		.uleb128 0x15
 8495 28d6 D6050000 		.4byte	0x5d6
 8496 28da 15       		.uleb128 0x15
 8497 28db DC050000 		.4byte	0x5dc
 8498 28df 00       		.byte	0
 8499 28e0 00       		.byte	0
 8500              		.section	.debug_abbrev,"",%progbits
 8501              	.Ldebug_abbrev0:
 8502 0000 01       		.uleb128 0x1
 8503 0001 11       		.uleb128 0x11
 8504 0002 01       		.byte	0x1
 8505 0003 25       		.uleb128 0x25
 8506 0004 0E       		.uleb128 0xe
 8507 0005 13       		.uleb128 0x13
 8508 0006 0B       		.uleb128 0xb
 8509 0007 03       		.uleb128 0x3
 8510 0008 0E       		.uleb128 0xe
 8511 0009 1B       		.uleb128 0x1b
 8512 000a 0E       		.uleb128 0xe
 8513 000b 55       		.uleb128 0x55
 8514 000c 17       		.uleb128 0x17
 8515 000d 11       		.uleb128 0x11
 8516 000e 01       		.uleb128 0x1
 8517 000f 10       		.uleb128 0x10
 8518 0010 17       		.uleb128 0x17
 8519 0011 00       		.byte	0
 8520 0012 00       		.byte	0
 8521 0013 02       		.uleb128 0x2
 8522 0014 24       		.uleb128 0x24
 8523 0015 00       		.byte	0
 8524 0016 0B       		.uleb128 0xb
 8525 0017 0B       		.uleb128 0xb
 8526 0018 3E       		.uleb128 0x3e
 8527 0019 0B       		.uleb128 0xb
 8528 001a 03       		.uleb128 0x3
ARM GAS  /tmp/ccT6pRdh.s 			page 151


 8529 001b 08       		.uleb128 0x8
 8530 001c 00       		.byte	0
 8531 001d 00       		.byte	0
 8532 001e 03       		.uleb128 0x3
 8533 001f 16       		.uleb128 0x16
 8534 0020 00       		.byte	0
 8535 0021 03       		.uleb128 0x3
 8536 0022 0E       		.uleb128 0xe
 8537 0023 3A       		.uleb128 0x3a
 8538 0024 0B       		.uleb128 0xb
 8539 0025 3B       		.uleb128 0x3b
 8540 0026 0B       		.uleb128 0xb
 8541 0027 49       		.uleb128 0x49
 8542 0028 13       		.uleb128 0x13
 8543 0029 00       		.byte	0
 8544 002a 00       		.byte	0
 8545 002b 04       		.uleb128 0x4
 8546 002c 24       		.uleb128 0x24
 8547 002d 00       		.byte	0
 8548 002e 0B       		.uleb128 0xb
 8549 002f 0B       		.uleb128 0xb
 8550 0030 3E       		.uleb128 0x3e
 8551 0031 0B       		.uleb128 0xb
 8552 0032 03       		.uleb128 0x3
 8553 0033 0E       		.uleb128 0xe
 8554 0034 00       		.byte	0
 8555 0035 00       		.byte	0
 8556 0036 05       		.uleb128 0x5
 8557 0037 13       		.uleb128 0x13
 8558 0038 01       		.byte	0x1
 8559 0039 03       		.uleb128 0x3
 8560 003a 0E       		.uleb128 0xe
 8561 003b 0B       		.uleb128 0xb
 8562 003c 0B       		.uleb128 0xb
 8563 003d 3A       		.uleb128 0x3a
 8564 003e 0B       		.uleb128 0xb
 8565 003f 3B       		.uleb128 0x3b
 8566 0040 0B       		.uleb128 0xb
 8567 0041 01       		.uleb128 0x1
 8568 0042 13       		.uleb128 0x13
 8569 0043 00       		.byte	0
 8570 0044 00       		.byte	0
 8571 0045 06       		.uleb128 0x6
 8572 0046 0D       		.uleb128 0xd
 8573 0047 00       		.byte	0
 8574 0048 03       		.uleb128 0x3
 8575 0049 0E       		.uleb128 0xe
 8576 004a 3A       		.uleb128 0x3a
 8577 004b 0B       		.uleb128 0xb
 8578 004c 3B       		.uleb128 0x3b
 8579 004d 0B       		.uleb128 0xb
 8580 004e 49       		.uleb128 0x49
 8581 004f 13       		.uleb128 0x13
 8582 0050 38       		.uleb128 0x38
 8583 0051 0B       		.uleb128 0xb
 8584 0052 00       		.byte	0
 8585 0053 00       		.byte	0
ARM GAS  /tmp/ccT6pRdh.s 			page 152


 8586 0054 07       		.uleb128 0x7
 8587 0055 0D       		.uleb128 0xd
 8588 0056 00       		.byte	0
 8589 0057 03       		.uleb128 0x3
 8590 0058 08       		.uleb128 0x8
 8591 0059 3A       		.uleb128 0x3a
 8592 005a 0B       		.uleb128 0xb
 8593 005b 3B       		.uleb128 0x3b
 8594 005c 0B       		.uleb128 0xb
 8595 005d 49       		.uleb128 0x49
 8596 005e 13       		.uleb128 0x13
 8597 005f 38       		.uleb128 0x38
 8598 0060 0B       		.uleb128 0xb
 8599 0061 00       		.byte	0
 8600 0062 00       		.byte	0
 8601 0063 08       		.uleb128 0x8
 8602 0064 13       		.uleb128 0x13
 8603 0065 01       		.byte	0x1
 8604 0066 0B       		.uleb128 0xb
 8605 0067 0B       		.uleb128 0xb
 8606 0068 3A       		.uleb128 0x3a
 8607 0069 0B       		.uleb128 0xb
 8608 006a 3B       		.uleb128 0x3b
 8609 006b 0B       		.uleb128 0xb
 8610 006c 01       		.uleb128 0x1
 8611 006d 13       		.uleb128 0x13
 8612 006e 00       		.byte	0
 8613 006f 00       		.byte	0
 8614 0070 09       		.uleb128 0x9
 8615 0071 0F       		.uleb128 0xf
 8616 0072 00       		.byte	0
 8617 0073 0B       		.uleb128 0xb
 8618 0074 0B       		.uleb128 0xb
 8619 0075 49       		.uleb128 0x49
 8620 0076 13       		.uleb128 0x13
 8621 0077 00       		.byte	0
 8622 0078 00       		.byte	0
 8623 0079 0A       		.uleb128 0xa
 8624 007a 0F       		.uleb128 0xf
 8625 007b 00       		.byte	0
 8626 007c 0B       		.uleb128 0xb
 8627 007d 0B       		.uleb128 0xb
 8628 007e 00       		.byte	0
 8629 007f 00       		.byte	0
 8630 0080 0B       		.uleb128 0xb
 8631 0081 13       		.uleb128 0x13
 8632 0082 01       		.byte	0x1
 8633 0083 03       		.uleb128 0x3
 8634 0084 0E       		.uleb128 0xe
 8635 0085 0B       		.uleb128 0xb
 8636 0086 0B       		.uleb128 0xb
 8637 0087 3A       		.uleb128 0x3a
 8638 0088 0B       		.uleb128 0xb
 8639 0089 3B       		.uleb128 0x3b
 8640 008a 05       		.uleb128 0x5
 8641 008b 01       		.uleb128 0x1
 8642 008c 13       		.uleb128 0x13
ARM GAS  /tmp/ccT6pRdh.s 			page 153


 8643 008d 00       		.byte	0
 8644 008e 00       		.byte	0
 8645 008f 0C       		.uleb128 0xc
 8646 0090 0D       		.uleb128 0xd
 8647 0091 00       		.byte	0
 8648 0092 03       		.uleb128 0x3
 8649 0093 08       		.uleb128 0x8
 8650 0094 3A       		.uleb128 0x3a
 8651 0095 0B       		.uleb128 0xb
 8652 0096 3B       		.uleb128 0x3b
 8653 0097 05       		.uleb128 0x5
 8654 0098 49       		.uleb128 0x49
 8655 0099 13       		.uleb128 0x13
 8656 009a 38       		.uleb128 0x38
 8657 009b 0B       		.uleb128 0xb
 8658 009c 00       		.byte	0
 8659 009d 00       		.byte	0
 8660 009e 0D       		.uleb128 0xd
 8661 009f 35       		.uleb128 0x35
 8662 00a0 00       		.byte	0
 8663 00a1 49       		.uleb128 0x49
 8664 00a2 13       		.uleb128 0x13
 8665 00a3 00       		.byte	0
 8666 00a4 00       		.byte	0
 8667 00a5 0E       		.uleb128 0xe
 8668 00a6 17       		.uleb128 0x17
 8669 00a7 01       		.byte	0x1
 8670 00a8 0B       		.uleb128 0xb
 8671 00a9 0B       		.uleb128 0xb
 8672 00aa 3A       		.uleb128 0x3a
 8673 00ab 0B       		.uleb128 0xb
 8674 00ac 3B       		.uleb128 0x3b
 8675 00ad 0B       		.uleb128 0xb
 8676 00ae 01       		.uleb128 0x1
 8677 00af 13       		.uleb128 0x13
 8678 00b0 00       		.byte	0
 8679 00b1 00       		.byte	0
 8680 00b2 0F       		.uleb128 0xf
 8681 00b3 0D       		.uleb128 0xd
 8682 00b4 00       		.byte	0
 8683 00b5 03       		.uleb128 0x3
 8684 00b6 0E       		.uleb128 0xe
 8685 00b7 3A       		.uleb128 0x3a
 8686 00b8 0B       		.uleb128 0xb
 8687 00b9 3B       		.uleb128 0x3b
 8688 00ba 0B       		.uleb128 0xb
 8689 00bb 49       		.uleb128 0x49
 8690 00bc 13       		.uleb128 0x13
 8691 00bd 00       		.byte	0
 8692 00be 00       		.byte	0
 8693 00bf 10       		.uleb128 0x10
 8694 00c0 26       		.uleb128 0x26
 8695 00c1 00       		.byte	0
 8696 00c2 49       		.uleb128 0x49
 8697 00c3 13       		.uleb128 0x13
 8698 00c4 00       		.byte	0
 8699 00c5 00       		.byte	0
ARM GAS  /tmp/ccT6pRdh.s 			page 154


 8700 00c6 11       		.uleb128 0x11
 8701 00c7 04       		.uleb128 0x4
 8702 00c8 01       		.byte	0x1
 8703 00c9 0B       		.uleb128 0xb
 8704 00ca 0B       		.uleb128 0xb
 8705 00cb 3A       		.uleb128 0x3a
 8706 00cc 0B       		.uleb128 0xb
 8707 00cd 3B       		.uleb128 0x3b
 8708 00ce 0B       		.uleb128 0xb
 8709 00cf 01       		.uleb128 0x1
 8710 00d0 13       		.uleb128 0x13
 8711 00d1 00       		.byte	0
 8712 00d2 00       		.byte	0
 8713 00d3 12       		.uleb128 0x12
 8714 00d4 28       		.uleb128 0x28
 8715 00d5 00       		.byte	0
 8716 00d6 03       		.uleb128 0x3
 8717 00d7 0E       		.uleb128 0xe
 8718 00d8 1C       		.uleb128 0x1c
 8719 00d9 0D       		.uleb128 0xd
 8720 00da 00       		.byte	0
 8721 00db 00       		.byte	0
 8722 00dc 13       		.uleb128 0x13
 8723 00dd 04       		.uleb128 0x4
 8724 00de 01       		.byte	0x1
 8725 00df 03       		.uleb128 0x3
 8726 00e0 0E       		.uleb128 0xe
 8727 00e1 0B       		.uleb128 0xb
 8728 00e2 0B       		.uleb128 0xb
 8729 00e3 3A       		.uleb128 0x3a
 8730 00e4 0B       		.uleb128 0xb
 8731 00e5 3B       		.uleb128 0x3b
 8732 00e6 0B       		.uleb128 0xb
 8733 00e7 01       		.uleb128 0x1
 8734 00e8 13       		.uleb128 0x13
 8735 00e9 00       		.byte	0
 8736 00ea 00       		.byte	0
 8737 00eb 14       		.uleb128 0x14
 8738 00ec 15       		.uleb128 0x15
 8739 00ed 01       		.byte	0x1
 8740 00ee 27       		.uleb128 0x27
 8741 00ef 19       		.uleb128 0x19
 8742 00f0 01       		.uleb128 0x1
 8743 00f1 13       		.uleb128 0x13
 8744 00f2 00       		.byte	0
 8745 00f3 00       		.byte	0
 8746 00f4 15       		.uleb128 0x15
 8747 00f5 05       		.uleb128 0x5
 8748 00f6 00       		.byte	0
 8749 00f7 49       		.uleb128 0x49
 8750 00f8 13       		.uleb128 0x13
 8751 00f9 00       		.byte	0
 8752 00fa 00       		.byte	0
 8753 00fb 16       		.uleb128 0x16
 8754 00fc 0D       		.uleb128 0xd
 8755 00fd 00       		.byte	0
 8756 00fe 03       		.uleb128 0x3
ARM GAS  /tmp/ccT6pRdh.s 			page 155


 8757 00ff 08       		.uleb128 0x8
 8758 0100 3A       		.uleb128 0x3a
 8759 0101 0B       		.uleb128 0xb
 8760 0102 3B       		.uleb128 0x3b
 8761 0103 0B       		.uleb128 0xb
 8762 0104 49       		.uleb128 0x49
 8763 0105 13       		.uleb128 0x13
 8764 0106 00       		.byte	0
 8765 0107 00       		.byte	0
 8766 0108 17       		.uleb128 0x17
 8767 0109 0D       		.uleb128 0xd
 8768 010a 00       		.byte	0
 8769 010b 03       		.uleb128 0x3
 8770 010c 0E       		.uleb128 0xe
 8771 010d 3A       		.uleb128 0x3a
 8772 010e 0B       		.uleb128 0xb
 8773 010f 3B       		.uleb128 0x3b
 8774 0110 05       		.uleb128 0x5
 8775 0111 49       		.uleb128 0x49
 8776 0112 13       		.uleb128 0x13
 8777 0113 38       		.uleb128 0x38
 8778 0114 0B       		.uleb128 0xb
 8779 0115 00       		.byte	0
 8780 0116 00       		.byte	0
 8781 0117 18       		.uleb128 0x18
 8782 0118 26       		.uleb128 0x26
 8783 0119 00       		.byte	0
 8784 011a 00       		.byte	0
 8785 011b 00       		.byte	0
 8786 011c 19       		.uleb128 0x19
 8787 011d 15       		.uleb128 0x15
 8788 011e 01       		.byte	0x1
 8789 011f 27       		.uleb128 0x27
 8790 0120 19       		.uleb128 0x19
 8791 0121 49       		.uleb128 0x49
 8792 0122 13       		.uleb128 0x13
 8793 0123 01       		.uleb128 0x1
 8794 0124 13       		.uleb128 0x13
 8795 0125 00       		.byte	0
 8796 0126 00       		.byte	0
 8797 0127 1A       		.uleb128 0x1a
 8798 0128 13       		.uleb128 0x13
 8799 0129 00       		.byte	0
 8800 012a 03       		.uleb128 0x3
 8801 012b 0E       		.uleb128 0xe
 8802 012c 3C       		.uleb128 0x3c
 8803 012d 19       		.uleb128 0x19
 8804 012e 00       		.byte	0
 8805 012f 00       		.byte	0
 8806 0130 1B       		.uleb128 0x1b
 8807 0131 2E       		.uleb128 0x2e
 8808 0132 01       		.byte	0x1
 8809 0133 03       		.uleb128 0x3
 8810 0134 0E       		.uleb128 0xe
 8811 0135 3A       		.uleb128 0x3a
 8812 0136 0B       		.uleb128 0xb
 8813 0137 3B       		.uleb128 0x3b
ARM GAS  /tmp/ccT6pRdh.s 			page 156


 8814 0138 05       		.uleb128 0x5
 8815 0139 27       		.uleb128 0x27
 8816 013a 19       		.uleb128 0x19
 8817 013b 49       		.uleb128 0x49
 8818 013c 13       		.uleb128 0x13
 8819 013d 20       		.uleb128 0x20
 8820 013e 0B       		.uleb128 0xb
 8821 013f 01       		.uleb128 0x1
 8822 0140 13       		.uleb128 0x13
 8823 0141 00       		.byte	0
 8824 0142 00       		.byte	0
 8825 0143 1C       		.uleb128 0x1c
 8826 0144 05       		.uleb128 0x5
 8827 0145 00       		.byte	0
 8828 0146 03       		.uleb128 0x3
 8829 0147 08       		.uleb128 0x8
 8830 0148 3A       		.uleb128 0x3a
 8831 0149 0B       		.uleb128 0xb
 8832 014a 3B       		.uleb128 0x3b
 8833 014b 05       		.uleb128 0x5
 8834 014c 49       		.uleb128 0x49
 8835 014d 13       		.uleb128 0x13
 8836 014e 00       		.byte	0
 8837 014f 00       		.byte	0
 8838 0150 1D       		.uleb128 0x1d
 8839 0151 34       		.uleb128 0x34
 8840 0152 00       		.byte	0
 8841 0153 03       		.uleb128 0x3
 8842 0154 0E       		.uleb128 0xe
 8843 0155 3A       		.uleb128 0x3a
 8844 0156 0B       		.uleb128 0xb
 8845 0157 3B       		.uleb128 0x3b
 8846 0158 05       		.uleb128 0x5
 8847 0159 49       		.uleb128 0x49
 8848 015a 13       		.uleb128 0x13
 8849 015b 00       		.byte	0
 8850 015c 00       		.byte	0
 8851 015d 1E       		.uleb128 0x1e
 8852 015e 2E       		.uleb128 0x2e
 8853 015f 01       		.byte	0x1
 8854 0160 03       		.uleb128 0x3
 8855 0161 0E       		.uleb128 0xe
 8856 0162 3A       		.uleb128 0x3a
 8857 0163 0B       		.uleb128 0xb
 8858 0164 3B       		.uleb128 0x3b
 8859 0165 05       		.uleb128 0x5
 8860 0166 27       		.uleb128 0x27
 8861 0167 19       		.uleb128 0x19
 8862 0168 11       		.uleb128 0x11
 8863 0169 01       		.uleb128 0x1
 8864 016a 12       		.uleb128 0x12
 8865 016b 06       		.uleb128 0x6
 8866 016c 40       		.uleb128 0x40
 8867 016d 18       		.uleb128 0x18
 8868 016e 9742     		.uleb128 0x2117
 8869 0170 19       		.uleb128 0x19
 8870 0171 01       		.uleb128 0x1
ARM GAS  /tmp/ccT6pRdh.s 			page 157


 8871 0172 13       		.uleb128 0x13
 8872 0173 00       		.byte	0
 8873 0174 00       		.byte	0
 8874 0175 1F       		.uleb128 0x1f
 8875 0176 05       		.uleb128 0x5
 8876 0177 00       		.byte	0
 8877 0178 03       		.uleb128 0x3
 8878 0179 08       		.uleb128 0x8
 8879 017a 3A       		.uleb128 0x3a
 8880 017b 0B       		.uleb128 0xb
 8881 017c 3B       		.uleb128 0x3b
 8882 017d 05       		.uleb128 0x5
 8883 017e 49       		.uleb128 0x49
 8884 017f 13       		.uleb128 0x13
 8885 0180 02       		.uleb128 0x2
 8886 0181 17       		.uleb128 0x17
 8887 0182 00       		.byte	0
 8888 0183 00       		.byte	0
 8889 0184 20       		.uleb128 0x20
 8890 0185 34       		.uleb128 0x34
 8891 0186 00       		.byte	0
 8892 0187 03       		.uleb128 0x3
 8893 0188 0E       		.uleb128 0xe
 8894 0189 3A       		.uleb128 0x3a
 8895 018a 0B       		.uleb128 0xb
 8896 018b 3B       		.uleb128 0x3b
 8897 018c 05       		.uleb128 0x5
 8898 018d 49       		.uleb128 0x49
 8899 018e 13       		.uleb128 0x13
 8900 018f 02       		.uleb128 0x2
 8901 0190 17       		.uleb128 0x17
 8902 0191 00       		.byte	0
 8903 0192 00       		.byte	0
 8904 0193 21       		.uleb128 0x21
 8905 0194 0B       		.uleb128 0xb
 8906 0195 01       		.byte	0x1
 8907 0196 55       		.uleb128 0x55
 8908 0197 17       		.uleb128 0x17
 8909 0198 01       		.uleb128 0x1
 8910 0199 13       		.uleb128 0x13
 8911 019a 00       		.byte	0
 8912 019b 00       		.byte	0
 8913 019c 22       		.uleb128 0x22
 8914 019d 898201   		.uleb128 0x4109
 8915 01a0 01       		.byte	0x1
 8916 01a1 11       		.uleb128 0x11
 8917 01a2 01       		.uleb128 0x1
 8918 01a3 9542     		.uleb128 0x2115
 8919 01a5 19       		.uleb128 0x19
 8920 01a6 31       		.uleb128 0x31
 8921 01a7 13       		.uleb128 0x13
 8922 01a8 01       		.uleb128 0x1
 8923 01a9 13       		.uleb128 0x13
 8924 01aa 00       		.byte	0
 8925 01ab 00       		.byte	0
 8926 01ac 23       		.uleb128 0x23
 8927 01ad 8A8201   		.uleb128 0x410a
ARM GAS  /tmp/ccT6pRdh.s 			page 158


 8928 01b0 00       		.byte	0
 8929 01b1 02       		.uleb128 0x2
 8930 01b2 18       		.uleb128 0x18
 8931 01b3 9142     		.uleb128 0x2111
 8932 01b5 18       		.uleb128 0x18
 8933 01b6 00       		.byte	0
 8934 01b7 00       		.byte	0
 8935 01b8 24       		.uleb128 0x24
 8936 01b9 898201   		.uleb128 0x4109
 8937 01bc 00       		.byte	0
 8938 01bd 11       		.uleb128 0x11
 8939 01be 01       		.uleb128 0x1
 8940 01bf 31       		.uleb128 0x31
 8941 01c0 13       		.uleb128 0x13
 8942 01c1 00       		.byte	0
 8943 01c2 00       		.byte	0
 8944 01c3 25       		.uleb128 0x25
 8945 01c4 898201   		.uleb128 0x4109
 8946 01c7 01       		.byte	0x1
 8947 01c8 11       		.uleb128 0x11
 8948 01c9 01       		.uleb128 0x1
 8949 01ca 01       		.uleb128 0x1
 8950 01cb 13       		.uleb128 0x13
 8951 01cc 00       		.byte	0
 8952 01cd 00       		.byte	0
 8953 01ce 26       		.uleb128 0x26
 8954 01cf 898201   		.uleb128 0x4109
 8955 01d2 01       		.byte	0x1
 8956 01d3 11       		.uleb128 0x11
 8957 01d4 01       		.uleb128 0x1
 8958 01d5 31       		.uleb128 0x31
 8959 01d6 13       		.uleb128 0x13
 8960 01d7 01       		.uleb128 0x1
 8961 01d8 13       		.uleb128 0x13
 8962 01d9 00       		.byte	0
 8963 01da 00       		.byte	0
 8964 01db 27       		.uleb128 0x27
 8965 01dc 898201   		.uleb128 0x4109
 8966 01df 00       		.byte	0
 8967 01e0 11       		.uleb128 0x11
 8968 01e1 01       		.uleb128 0x1
 8969 01e2 9542     		.uleb128 0x2115
 8970 01e4 19       		.uleb128 0x19
 8971 01e5 31       		.uleb128 0x31
 8972 01e6 13       		.uleb128 0x13
 8973 01e7 00       		.byte	0
 8974 01e8 00       		.byte	0
 8975 01e9 28       		.uleb128 0x28
 8976 01ea 2E       		.uleb128 0x2e
 8977 01eb 01       		.byte	0x1
 8978 01ec 03       		.uleb128 0x3
 8979 01ed 0E       		.uleb128 0xe
 8980 01ee 3A       		.uleb128 0x3a
 8981 01ef 0B       		.uleb128 0xb
 8982 01f0 3B       		.uleb128 0x3b
 8983 01f1 0B       		.uleb128 0xb
 8984 01f2 27       		.uleb128 0x27
ARM GAS  /tmp/ccT6pRdh.s 			page 159


 8985 01f3 19       		.uleb128 0x19
 8986 01f4 11       		.uleb128 0x11
 8987 01f5 01       		.uleb128 0x1
 8988 01f6 12       		.uleb128 0x12
 8989 01f7 06       		.uleb128 0x6
 8990 01f8 40       		.uleb128 0x40
 8991 01f9 18       		.uleb128 0x18
 8992 01fa 9742     		.uleb128 0x2117
 8993 01fc 19       		.uleb128 0x19
 8994 01fd 01       		.uleb128 0x1
 8995 01fe 13       		.uleb128 0x13
 8996 01ff 00       		.byte	0
 8997 0200 00       		.byte	0
 8998 0201 29       		.uleb128 0x29
 8999 0202 05       		.uleb128 0x5
 9000 0203 00       		.byte	0
 9001 0204 03       		.uleb128 0x3
 9002 0205 08       		.uleb128 0x8
 9003 0206 3A       		.uleb128 0x3a
 9004 0207 0B       		.uleb128 0xb
 9005 0208 3B       		.uleb128 0x3b
 9006 0209 0B       		.uleb128 0xb
 9007 020a 49       		.uleb128 0x49
 9008 020b 13       		.uleb128 0x13
 9009 020c 02       		.uleb128 0x2
 9010 020d 17       		.uleb128 0x17
 9011 020e 00       		.byte	0
 9012 020f 00       		.byte	0
 9013 0210 2A       		.uleb128 0x2a
 9014 0211 05       		.uleb128 0x5
 9015 0212 00       		.byte	0
 9016 0213 03       		.uleb128 0x3
 9017 0214 0E       		.uleb128 0xe
 9018 0215 3A       		.uleb128 0x3a
 9019 0216 0B       		.uleb128 0xb
 9020 0217 3B       		.uleb128 0x3b
 9021 0218 0B       		.uleb128 0xb
 9022 0219 49       		.uleb128 0x49
 9023 021a 13       		.uleb128 0x13
 9024 021b 02       		.uleb128 0x2
 9025 021c 17       		.uleb128 0x17
 9026 021d 00       		.byte	0
 9027 021e 00       		.byte	0
 9028 021f 2B       		.uleb128 0x2b
 9029 0220 34       		.uleb128 0x34
 9030 0221 00       		.byte	0
 9031 0222 03       		.uleb128 0x3
 9032 0223 08       		.uleb128 0x8
 9033 0224 3A       		.uleb128 0x3a
 9034 0225 0B       		.uleb128 0xb
 9035 0226 3B       		.uleb128 0x3b
 9036 0227 0B       		.uleb128 0xb
 9037 0228 49       		.uleb128 0x49
 9038 0229 13       		.uleb128 0x13
 9039 022a 02       		.uleb128 0x2
 9040 022b 17       		.uleb128 0x17
 9041 022c 00       		.byte	0
ARM GAS  /tmp/ccT6pRdh.s 			page 160


 9042 022d 00       		.byte	0
 9043 022e 2C       		.uleb128 0x2c
 9044 022f 34       		.uleb128 0x34
 9045 0230 00       		.byte	0
 9046 0231 03       		.uleb128 0x3
 9047 0232 0E       		.uleb128 0xe
 9048 0233 3A       		.uleb128 0x3a
 9049 0234 0B       		.uleb128 0xb
 9050 0235 3B       		.uleb128 0x3b
 9051 0236 0B       		.uleb128 0xb
 9052 0237 49       		.uleb128 0x49
 9053 0238 13       		.uleb128 0x13
 9054 0239 02       		.uleb128 0x2
 9055 023a 17       		.uleb128 0x17
 9056 023b 00       		.byte	0
 9057 023c 00       		.byte	0
 9058 023d 2D       		.uleb128 0x2d
 9059 023e 2E       		.uleb128 0x2e
 9060 023f 01       		.byte	0x1
 9061 0240 03       		.uleb128 0x3
 9062 0241 0E       		.uleb128 0xe
 9063 0242 3A       		.uleb128 0x3a
 9064 0243 0B       		.uleb128 0xb
 9065 0244 3B       		.uleb128 0x3b
 9066 0245 0B       		.uleb128 0xb
 9067 0246 27       		.uleb128 0x27
 9068 0247 19       		.uleb128 0x19
 9069 0248 49       		.uleb128 0x49
 9070 0249 13       		.uleb128 0x13
 9071 024a 11       		.uleb128 0x11
 9072 024b 01       		.uleb128 0x1
 9073 024c 12       		.uleb128 0x12
 9074 024d 06       		.uleb128 0x6
 9075 024e 40       		.uleb128 0x40
 9076 024f 18       		.uleb128 0x18
 9077 0250 9742     		.uleb128 0x2117
 9078 0252 19       		.uleb128 0x19
 9079 0253 01       		.uleb128 0x1
 9080 0254 13       		.uleb128 0x13
 9081 0255 00       		.byte	0
 9082 0256 00       		.byte	0
 9083 0257 2E       		.uleb128 0x2e
 9084 0258 898201   		.uleb128 0x4109
 9085 025b 01       		.byte	0x1
 9086 025c 11       		.uleb128 0x11
 9087 025d 01       		.uleb128 0x1
 9088 025e 31       		.uleb128 0x31
 9089 025f 13       		.uleb128 0x13
 9090 0260 00       		.byte	0
 9091 0261 00       		.byte	0
 9092 0262 2F       		.uleb128 0x2f
 9093 0263 05       		.uleb128 0x5
 9094 0264 00       		.byte	0
 9095 0265 03       		.uleb128 0x3
 9096 0266 0E       		.uleb128 0xe
 9097 0267 3A       		.uleb128 0x3a
 9098 0268 0B       		.uleb128 0xb
ARM GAS  /tmp/ccT6pRdh.s 			page 161


 9099 0269 3B       		.uleb128 0x3b
 9100 026a 05       		.uleb128 0x5
 9101 026b 49       		.uleb128 0x49
 9102 026c 13       		.uleb128 0x13
 9103 026d 02       		.uleb128 0x2
 9104 026e 17       		.uleb128 0x17
 9105 026f 00       		.byte	0
 9106 0270 00       		.byte	0
 9107 0271 30       		.uleb128 0x30
 9108 0272 34       		.uleb128 0x34
 9109 0273 00       		.byte	0
 9110 0274 03       		.uleb128 0x3
 9111 0275 08       		.uleb128 0x8
 9112 0276 3A       		.uleb128 0x3a
 9113 0277 0B       		.uleb128 0xb
 9114 0278 3B       		.uleb128 0x3b
 9115 0279 05       		.uleb128 0x5
 9116 027a 49       		.uleb128 0x49
 9117 027b 13       		.uleb128 0x13
 9118 027c 02       		.uleb128 0x2
 9119 027d 17       		.uleb128 0x17
 9120 027e 00       		.byte	0
 9121 027f 00       		.byte	0
 9122 0280 31       		.uleb128 0x31
 9123 0281 898201   		.uleb128 0x4109
 9124 0284 01       		.byte	0x1
 9125 0285 11       		.uleb128 0x11
 9126 0286 01       		.uleb128 0x1
 9127 0287 9542     		.uleb128 0x2115
 9128 0289 19       		.uleb128 0x19
 9129 028a 31       		.uleb128 0x31
 9130 028b 13       		.uleb128 0x13
 9131 028c 00       		.byte	0
 9132 028d 00       		.byte	0
 9133 028e 32       		.uleb128 0x32
 9134 028f 2E       		.uleb128 0x2e
 9135 0290 01       		.byte	0x1
 9136 0291 03       		.uleb128 0x3
 9137 0292 0E       		.uleb128 0xe
 9138 0293 3A       		.uleb128 0x3a
 9139 0294 0B       		.uleb128 0xb
 9140 0295 3B       		.uleb128 0x3b
 9141 0296 05       		.uleb128 0x5
 9142 0297 27       		.uleb128 0x27
 9143 0298 19       		.uleb128 0x19
 9144 0299 49       		.uleb128 0x49
 9145 029a 13       		.uleb128 0x13
 9146 029b 11       		.uleb128 0x11
 9147 029c 01       		.uleb128 0x1
 9148 029d 12       		.uleb128 0x12
 9149 029e 06       		.uleb128 0x6
 9150 029f 40       		.uleb128 0x40
 9151 02a0 18       		.uleb128 0x18
 9152 02a1 9742     		.uleb128 0x2117
 9153 02a3 19       		.uleb128 0x19
 9154 02a4 01       		.uleb128 0x1
 9155 02a5 13       		.uleb128 0x13
ARM GAS  /tmp/ccT6pRdh.s 			page 162


 9156 02a6 00       		.byte	0
 9157 02a7 00       		.byte	0
 9158 02a8 33       		.uleb128 0x33
 9159 02a9 34       		.uleb128 0x34
 9160 02aa 00       		.byte	0
 9161 02ab 03       		.uleb128 0x3
 9162 02ac 0E       		.uleb128 0xe
 9163 02ad 3A       		.uleb128 0x3a
 9164 02ae 0B       		.uleb128 0xb
 9165 02af 3B       		.uleb128 0x3b
 9166 02b0 05       		.uleb128 0x5
 9167 02b1 49       		.uleb128 0x49
 9168 02b2 13       		.uleb128 0x13
 9169 02b3 02       		.uleb128 0x2
 9170 02b4 18       		.uleb128 0x18
 9171 02b5 00       		.byte	0
 9172 02b6 00       		.byte	0
 9173 02b7 34       		.uleb128 0x34
 9174 02b8 0A       		.uleb128 0xa
 9175 02b9 00       		.byte	0
 9176 02ba 03       		.uleb128 0x3
 9177 02bb 0E       		.uleb128 0xe
 9178 02bc 3A       		.uleb128 0x3a
 9179 02bd 0B       		.uleb128 0xb
 9180 02be 3B       		.uleb128 0x3b
 9181 02bf 05       		.uleb128 0x5
 9182 02c0 11       		.uleb128 0x11
 9183 02c1 01       		.uleb128 0x1
 9184 02c2 00       		.byte	0
 9185 02c3 00       		.byte	0
 9186 02c4 35       		.uleb128 0x35
 9187 02c5 898201   		.uleb128 0x4109
 9188 02c8 01       		.byte	0x1
 9189 02c9 11       		.uleb128 0x11
 9190 02ca 01       		.uleb128 0x1
 9191 02cb 9342     		.uleb128 0x2113
 9192 02cd 18       		.uleb128 0x18
 9193 02ce 01       		.uleb128 0x1
 9194 02cf 13       		.uleb128 0x13
 9195 02d0 00       		.byte	0
 9196 02d1 00       		.byte	0
 9197 02d2 36       		.uleb128 0x36
 9198 02d3 2E       		.uleb128 0x2e
 9199 02d4 01       		.byte	0x1
 9200 02d5 31       		.uleb128 0x31
 9201 02d6 13       		.uleb128 0x13
 9202 02d7 11       		.uleb128 0x11
 9203 02d8 01       		.uleb128 0x1
 9204 02d9 12       		.uleb128 0x12
 9205 02da 06       		.uleb128 0x6
 9206 02db 40       		.uleb128 0x40
 9207 02dc 18       		.uleb128 0x18
 9208 02dd 9742     		.uleb128 0x2117
 9209 02df 19       		.uleb128 0x19
 9210 02e0 01       		.uleb128 0x1
 9211 02e1 13       		.uleb128 0x13
 9212 02e2 00       		.byte	0
ARM GAS  /tmp/ccT6pRdh.s 			page 163


 9213 02e3 00       		.byte	0
 9214 02e4 37       		.uleb128 0x37
 9215 02e5 05       		.uleb128 0x5
 9216 02e6 00       		.byte	0
 9217 02e7 31       		.uleb128 0x31
 9218 02e8 13       		.uleb128 0x13
 9219 02e9 02       		.uleb128 0x2
 9220 02ea 17       		.uleb128 0x17
 9221 02eb 00       		.byte	0
 9222 02ec 00       		.byte	0
 9223 02ed 38       		.uleb128 0x38
 9224 02ee 34       		.uleb128 0x34
 9225 02ef 00       		.byte	0
 9226 02f0 31       		.uleb128 0x31
 9227 02f1 13       		.uleb128 0x13
 9228 02f2 02       		.uleb128 0x2
 9229 02f3 17       		.uleb128 0x17
 9230 02f4 00       		.byte	0
 9231 02f5 00       		.byte	0
 9232 02f6 39       		.uleb128 0x39
 9233 02f7 0B       		.uleb128 0xb
 9234 02f8 01       		.byte	0x1
 9235 02f9 11       		.uleb128 0x11
 9236 02fa 01       		.uleb128 0x1
 9237 02fb 12       		.uleb128 0x12
 9238 02fc 06       		.uleb128 0x6
 9239 02fd 01       		.uleb128 0x1
 9240 02fe 13       		.uleb128 0x13
 9241 02ff 00       		.byte	0
 9242 0300 00       		.byte	0
 9243 0301 3A       		.uleb128 0x3a
 9244 0302 0B       		.uleb128 0xb
 9245 0303 01       		.byte	0x1
 9246 0304 11       		.uleb128 0x11
 9247 0305 01       		.uleb128 0x1
 9248 0306 12       		.uleb128 0x12
 9249 0307 06       		.uleb128 0x6
 9250 0308 00       		.byte	0
 9251 0309 00       		.byte	0
 9252 030a 3B       		.uleb128 0x3b
 9253 030b 34       		.uleb128 0x34
 9254 030c 00       		.byte	0
 9255 030d 31       		.uleb128 0x31
 9256 030e 13       		.uleb128 0x13
 9257 030f 00       		.byte	0
 9258 0310 00       		.byte	0
 9259 0311 3C       		.uleb128 0x3c
 9260 0312 898201   		.uleb128 0x4109
 9261 0315 01       		.byte	0x1
 9262 0316 11       		.uleb128 0x11
 9263 0317 01       		.uleb128 0x1
 9264 0318 00       		.byte	0
 9265 0319 00       		.byte	0
 9266 031a 3D       		.uleb128 0x3d
 9267 031b 2E       		.uleb128 0x2e
 9268 031c 01       		.byte	0x1
 9269 031d 03       		.uleb128 0x3
ARM GAS  /tmp/ccT6pRdh.s 			page 164


 9270 031e 0E       		.uleb128 0xe
 9271 031f 3A       		.uleb128 0x3a
 9272 0320 0B       		.uleb128 0xb
 9273 0321 3B       		.uleb128 0x3b
 9274 0322 05       		.uleb128 0x5
 9275 0323 27       		.uleb128 0x27
 9276 0324 19       		.uleb128 0x19
 9277 0325 20       		.uleb128 0x20
 9278 0326 0B       		.uleb128 0xb
 9279 0327 01       		.uleb128 0x1
 9280 0328 13       		.uleb128 0x13
 9281 0329 00       		.byte	0
 9282 032a 00       		.byte	0
 9283 032b 3E       		.uleb128 0x3e
 9284 032c 2E       		.uleb128 0x2e
 9285 032d 01       		.byte	0x1
 9286 032e 3F       		.uleb128 0x3f
 9287 032f 19       		.uleb128 0x19
 9288 0330 03       		.uleb128 0x3
 9289 0331 0E       		.uleb128 0xe
 9290 0332 3A       		.uleb128 0x3a
 9291 0333 0B       		.uleb128 0xb
 9292 0334 3B       		.uleb128 0x3b
 9293 0335 05       		.uleb128 0x5
 9294 0336 27       		.uleb128 0x27
 9295 0337 19       		.uleb128 0x19
 9296 0338 11       		.uleb128 0x11
 9297 0339 01       		.uleb128 0x1
 9298 033a 12       		.uleb128 0x12
 9299 033b 06       		.uleb128 0x6
 9300 033c 40       		.uleb128 0x40
 9301 033d 18       		.uleb128 0x18
 9302 033e 9742     		.uleb128 0x2117
 9303 0340 19       		.uleb128 0x19
 9304 0341 01       		.uleb128 0x1
 9305 0342 13       		.uleb128 0x13
 9306 0343 00       		.byte	0
 9307 0344 00       		.byte	0
 9308 0345 3F       		.uleb128 0x3f
 9309 0346 1D       		.uleb128 0x1d
 9310 0347 01       		.byte	0x1
 9311 0348 31       		.uleb128 0x31
 9312 0349 13       		.uleb128 0x13
 9313 034a 11       		.uleb128 0x11
 9314 034b 01       		.uleb128 0x1
 9315 034c 12       		.uleb128 0x12
 9316 034d 06       		.uleb128 0x6
 9317 034e 58       		.uleb128 0x58
 9318 034f 0B       		.uleb128 0xb
 9319 0350 59       		.uleb128 0x59
 9320 0351 05       		.uleb128 0x5
 9321 0352 01       		.uleb128 0x1
 9322 0353 13       		.uleb128 0x13
 9323 0354 00       		.byte	0
 9324 0355 00       		.byte	0
 9325 0356 40       		.uleb128 0x40
 9326 0357 2E       		.uleb128 0x2e
ARM GAS  /tmp/ccT6pRdh.s 			page 165


 9327 0358 01       		.byte	0x1
 9328 0359 3F       		.uleb128 0x3f
 9329 035a 19       		.uleb128 0x19
 9330 035b 03       		.uleb128 0x3
 9331 035c 0E       		.uleb128 0xe
 9332 035d 3A       		.uleb128 0x3a
 9333 035e 0B       		.uleb128 0xb
 9334 035f 3B       		.uleb128 0x3b
 9335 0360 05       		.uleb128 0x5
 9336 0361 27       		.uleb128 0x27
 9337 0362 19       		.uleb128 0x19
 9338 0363 49       		.uleb128 0x49
 9339 0364 13       		.uleb128 0x13
 9340 0365 11       		.uleb128 0x11
 9341 0366 01       		.uleb128 0x1
 9342 0367 12       		.uleb128 0x12
 9343 0368 06       		.uleb128 0x6
 9344 0369 40       		.uleb128 0x40
 9345 036a 18       		.uleb128 0x18
 9346 036b 9742     		.uleb128 0x2117
 9347 036d 19       		.uleb128 0x19
 9348 036e 01       		.uleb128 0x1
 9349 036f 13       		.uleb128 0x13
 9350 0370 00       		.byte	0
 9351 0371 00       		.byte	0
 9352 0372 41       		.uleb128 0x41
 9353 0373 34       		.uleb128 0x34
 9354 0374 00       		.byte	0
 9355 0375 03       		.uleb128 0x3
 9356 0376 08       		.uleb128 0x8
 9357 0377 3A       		.uleb128 0x3a
 9358 0378 0B       		.uleb128 0xb
 9359 0379 3B       		.uleb128 0x3b
 9360 037a 05       		.uleb128 0x5
 9361 037b 49       		.uleb128 0x49
 9362 037c 13       		.uleb128 0x13
 9363 037d 02       		.uleb128 0x2
 9364 037e 18       		.uleb128 0x18
 9365 037f 00       		.byte	0
 9366 0380 00       		.byte	0
 9367 0381 42       		.uleb128 0x42
 9368 0382 34       		.uleb128 0x34
 9369 0383 00       		.byte	0
 9370 0384 03       		.uleb128 0x3
 9371 0385 0E       		.uleb128 0xe
 9372 0386 3A       		.uleb128 0x3a
 9373 0387 0B       		.uleb128 0xb
 9374 0388 3B       		.uleb128 0x3b
 9375 0389 0B       		.uleb128 0xb
 9376 038a 49       		.uleb128 0x49
 9377 038b 13       		.uleb128 0x13
 9378 038c 3F       		.uleb128 0x3f
 9379 038d 19       		.uleb128 0x19
 9380 038e 3C       		.uleb128 0x3c
 9381 038f 19       		.uleb128 0x19
 9382 0390 00       		.byte	0
 9383 0391 00       		.byte	0
ARM GAS  /tmp/ccT6pRdh.s 			page 166


 9384 0392 43       		.uleb128 0x43
 9385 0393 2E       		.uleb128 0x2e
 9386 0394 01       		.byte	0x1
 9387 0395 3F       		.uleb128 0x3f
 9388 0396 19       		.uleb128 0x19
 9389 0397 03       		.uleb128 0x3
 9390 0398 0E       		.uleb128 0xe
 9391 0399 3A       		.uleb128 0x3a
 9392 039a 0B       		.uleb128 0xb
 9393 039b 3B       		.uleb128 0x3b
 9394 039c 0B       		.uleb128 0xb
 9395 039d 27       		.uleb128 0x27
 9396 039e 19       		.uleb128 0x19
 9397 039f 3C       		.uleb128 0x3c
 9398 03a0 19       		.uleb128 0x19
 9399 03a1 01       		.uleb128 0x1
 9400 03a2 13       		.uleb128 0x13
 9401 03a3 00       		.byte	0
 9402 03a4 00       		.byte	0
 9403 03a5 44       		.uleb128 0x44
 9404 03a6 2E       		.uleb128 0x2e
 9405 03a7 00       		.byte	0
 9406 03a8 3F       		.uleb128 0x3f
 9407 03a9 19       		.uleb128 0x19
 9408 03aa 03       		.uleb128 0x3
 9409 03ab 0E       		.uleb128 0xe
 9410 03ac 3A       		.uleb128 0x3a
 9411 03ad 0B       		.uleb128 0xb
 9412 03ae 3B       		.uleb128 0x3b
 9413 03af 05       		.uleb128 0x5
 9414 03b0 27       		.uleb128 0x27
 9415 03b1 19       		.uleb128 0x19
 9416 03b2 3C       		.uleb128 0x3c
 9417 03b3 19       		.uleb128 0x19
 9418 03b4 00       		.byte	0
 9419 03b5 00       		.byte	0
 9420 03b6 45       		.uleb128 0x45
 9421 03b7 2E       		.uleb128 0x2e
 9422 03b8 01       		.byte	0x1
 9423 03b9 3F       		.uleb128 0x3f
 9424 03ba 19       		.uleb128 0x19
 9425 03bb 03       		.uleb128 0x3
 9426 03bc 0E       		.uleb128 0xe
 9427 03bd 3A       		.uleb128 0x3a
 9428 03be 0B       		.uleb128 0xb
 9429 03bf 3B       		.uleb128 0x3b
 9430 03c0 0B       		.uleb128 0xb
 9431 03c1 27       		.uleb128 0x27
 9432 03c2 19       		.uleb128 0x19
 9433 03c3 49       		.uleb128 0x49
 9434 03c4 13       		.uleb128 0x13
 9435 03c5 3C       		.uleb128 0x3c
 9436 03c6 19       		.uleb128 0x19
 9437 03c7 01       		.uleb128 0x1
 9438 03c8 13       		.uleb128 0x13
 9439 03c9 00       		.byte	0
 9440 03ca 00       		.byte	0
ARM GAS  /tmp/ccT6pRdh.s 			page 167


 9441 03cb 46       		.uleb128 0x46
 9442 03cc 2E       		.uleb128 0x2e
 9443 03cd 01       		.byte	0x1
 9444 03ce 3F       		.uleb128 0x3f
 9445 03cf 19       		.uleb128 0x19
 9446 03d0 03       		.uleb128 0x3
 9447 03d1 0E       		.uleb128 0xe
 9448 03d2 3A       		.uleb128 0x3a
 9449 03d3 0B       		.uleb128 0xb
 9450 03d4 3B       		.uleb128 0x3b
 9451 03d5 05       		.uleb128 0x5
 9452 03d6 27       		.uleb128 0x27
 9453 03d7 19       		.uleb128 0x19
 9454 03d8 3C       		.uleb128 0x3c
 9455 03d9 19       		.uleb128 0x19
 9456 03da 01       		.uleb128 0x1
 9457 03db 13       		.uleb128 0x13
 9458 03dc 00       		.byte	0
 9459 03dd 00       		.byte	0
 9460 03de 47       		.uleb128 0x47
 9461 03df 2E       		.uleb128 0x2e
 9462 03e0 01       		.byte	0x1
 9463 03e1 3F       		.uleb128 0x3f
 9464 03e2 19       		.uleb128 0x19
 9465 03e3 03       		.uleb128 0x3
 9466 03e4 0E       		.uleb128 0xe
 9467 03e5 3A       		.uleb128 0x3a
 9468 03e6 0B       		.uleb128 0xb
 9469 03e7 3B       		.uleb128 0x3b
 9470 03e8 05       		.uleb128 0x5
 9471 03e9 27       		.uleb128 0x27
 9472 03ea 19       		.uleb128 0x19
 9473 03eb 49       		.uleb128 0x49
 9474 03ec 13       		.uleb128 0x13
 9475 03ed 3C       		.uleb128 0x3c
 9476 03ee 19       		.uleb128 0x19
 9477 03ef 01       		.uleb128 0x1
 9478 03f0 13       		.uleb128 0x13
 9479 03f1 00       		.byte	0
 9480 03f2 00       		.byte	0
 9481 03f3 48       		.uleb128 0x48
 9482 03f4 2E       		.uleb128 0x2e
 9483 03f5 00       		.byte	0
 9484 03f6 3F       		.uleb128 0x3f
 9485 03f7 19       		.uleb128 0x19
 9486 03f8 03       		.uleb128 0x3
 9487 03f9 0E       		.uleb128 0xe
 9488 03fa 3A       		.uleb128 0x3a
 9489 03fb 0B       		.uleb128 0xb
 9490 03fc 3B       		.uleb128 0x3b
 9491 03fd 05       		.uleb128 0x5
 9492 03fe 27       		.uleb128 0x27
 9493 03ff 19       		.uleb128 0x19
 9494 0400 49       		.uleb128 0x49
 9495 0401 13       		.uleb128 0x13
 9496 0402 3C       		.uleb128 0x3c
 9497 0403 19       		.uleb128 0x19
ARM GAS  /tmp/ccT6pRdh.s 			page 168


 9498 0404 00       		.byte	0
 9499 0405 00       		.byte	0
 9500 0406 49       		.uleb128 0x49
 9501 0407 2E       		.uleb128 0x2e
 9502 0408 00       		.byte	0
 9503 0409 3F       		.uleb128 0x3f
 9504 040a 19       		.uleb128 0x19
 9505 040b 03       		.uleb128 0x3
 9506 040c 0E       		.uleb128 0xe
 9507 040d 3A       		.uleb128 0x3a
 9508 040e 0B       		.uleb128 0xb
 9509 040f 3B       		.uleb128 0x3b
 9510 0410 0B       		.uleb128 0xb
 9511 0411 27       		.uleb128 0x27
 9512 0412 19       		.uleb128 0x19
 9513 0413 49       		.uleb128 0x49
 9514 0414 13       		.uleb128 0x13
 9515 0415 3C       		.uleb128 0x3c
 9516 0416 19       		.uleb128 0x19
 9517 0417 00       		.byte	0
 9518 0418 00       		.byte	0
 9519 0419 4A       		.uleb128 0x4a
 9520 041a 2E       		.uleb128 0x2e
 9521 041b 01       		.byte	0x1
 9522 041c 3F       		.uleb128 0x3f
 9523 041d 19       		.uleb128 0x19
 9524 041e 03       		.uleb128 0x3
 9525 041f 0E       		.uleb128 0xe
 9526 0420 3A       		.uleb128 0x3a
 9527 0421 0B       		.uleb128 0xb
 9528 0422 3B       		.uleb128 0x3b
 9529 0423 0B       		.uleb128 0xb
 9530 0424 27       		.uleb128 0x27
 9531 0425 19       		.uleb128 0x19
 9532 0426 49       		.uleb128 0x49
 9533 0427 13       		.uleb128 0x13
 9534 0428 3C       		.uleb128 0x3c
 9535 0429 19       		.uleb128 0x19
 9536 042a 00       		.byte	0
 9537 042b 00       		.byte	0
 9538 042c 00       		.byte	0
 9539              		.section	.debug_loc,"",%progbits
 9540              	.Ldebug_loc0:
 9541              	.LLST0:
 9542 0000 00000000 		.4byte	.LVL0
 9543 0004 0A000000 		.4byte	.LVL1
 9544 0008 0100     		.2byte	0x1
 9545 000a 50       		.byte	0x50
 9546 000b 0A000000 		.4byte	.LVL1
 9547 000f 64000000 		.4byte	.LVL11
 9548 0013 0100     		.2byte	0x1
 9549 0015 54       		.byte	0x54
 9550 0016 64000000 		.4byte	.LVL11
 9551 001a 68000000 		.4byte	.LVL12
 9552 001e 0400     		.2byte	0x4
 9553 0020 F3       		.byte	0xf3
 9554 0021 01       		.uleb128 0x1
ARM GAS  /tmp/ccT6pRdh.s 			page 169


 9555 0022 50       		.byte	0x50
 9556 0023 9F       		.byte	0x9f
 9557 0024 68000000 		.4byte	.LVL12
 9558 0028 86000000 		.4byte	.LVL16
 9559 002c 0100     		.2byte	0x1
 9560 002e 54       		.byte	0x54
 9561 002f 86000000 		.4byte	.LVL16
 9562 0033 89000000 		.4byte	.LVL17-1
 9563 0037 0300     		.2byte	0x3
 9564 0039 70       		.byte	0x70
 9565 003a 74       		.sleb128 -12
 9566 003b 9F       		.byte	0x9f
 9567 003c 89000000 		.4byte	.LVL17-1
 9568 0040 8A000000 		.4byte	.LVL17
 9569 0044 0400     		.2byte	0x4
 9570 0046 F3       		.byte	0xf3
 9571 0047 01       		.uleb128 0x1
 9572 0048 50       		.byte	0x50
 9573 0049 9F       		.byte	0x9f
 9574 004a 8A000000 		.4byte	.LVL17
 9575 004e A0000000 		.4byte	.LVL21
 9576 0052 0100     		.2byte	0x1
 9577 0054 54       		.byte	0x54
 9578 0055 A0000000 		.4byte	.LVL21
 9579 0059 A3000000 		.4byte	.LVL22-1
 9580 005d 0100     		.2byte	0x1
 9581 005f 50       		.byte	0x50
 9582 0060 A3000000 		.4byte	.LVL22-1
 9583 0064 AE000000 		.4byte	.LFE12
 9584 0068 0100     		.2byte	0x1
 9585 006a 54       		.byte	0x54
 9586 006b 00000000 		.4byte	0
 9587 006f 00000000 		.4byte	0
 9588              	.LLST1:
 9589 0073 00000000 		.4byte	.LVL0
 9590 0077 0A000000 		.4byte	.LVL1
 9591 007b 0100     		.2byte	0x1
 9592 007d 51       		.byte	0x51
 9593 007e 0A000000 		.4byte	.LVL1
 9594 0082 A0000000 		.4byte	.LVL21
 9595 0086 0400     		.2byte	0x4
 9596 0088 F3       		.byte	0xf3
 9597 0089 01       		.uleb128 0x1
 9598 008a 51       		.byte	0x51
 9599 008b 9F       		.byte	0x9f
 9600 008c A0000000 		.4byte	.LVL21
 9601 0090 A3000000 		.4byte	.LVL22-1
 9602 0094 0100     		.2byte	0x1
 9603 0096 51       		.byte	0x51
 9604 0097 A3000000 		.4byte	.LVL22-1
 9605 009b AE000000 		.4byte	.LFE12
 9606 009f 0400     		.2byte	0x4
 9607 00a1 F3       		.byte	0xf3
 9608 00a2 01       		.uleb128 0x1
 9609 00a3 51       		.byte	0x51
 9610 00a4 9F       		.byte	0x9f
 9611 00a5 00000000 		.4byte	0
ARM GAS  /tmp/ccT6pRdh.s 			page 170


 9612 00a9 00000000 		.4byte	0
 9613              	.LLST3:
 9614 00ad 0E000000 		.4byte	.LVL2
 9615 00b1 16000000 		.4byte	.LVL3
 9616 00b5 0200     		.2byte	0x2
 9617 00b7 74       		.byte	0x74
 9618 00b8 01       		.sleb128 1
 9619 00b9 16000000 		.4byte	.LVL3
 9620 00bd 56000000 		.4byte	.LVL9
 9621 00c1 0100     		.2byte	0x1
 9622 00c3 56       		.byte	0x56
 9623 00c4 56000000 		.4byte	.LVL9
 9624 00c8 58000000 		.4byte	.LVL10
 9625 00cc 0300     		.2byte	0x3
 9626 00ce 76       		.byte	0x76
 9627 00cf 03       		.sleb128 3
 9628 00d0 9F       		.byte	0x9f
 9629 00d1 8C000000 		.4byte	.LVL18
 9630 00d5 A0000000 		.4byte	.LVL21
 9631 00d9 0100     		.2byte	0x1
 9632 00db 56       		.byte	0x56
 9633 00dc 00000000 		.4byte	0
 9634 00e0 00000000 		.4byte	0
 9635              	.LLST4:
 9636 00e4 6A000000 		.4byte	.LVL13
 9637 00e8 70000000 		.4byte	.LVL14
 9638 00ec 0C00     		.2byte	0xc
 9639 00ee 73       		.byte	0x73
 9640 00ef 00       		.sleb128 0
 9641 00f0 34       		.byte	0x34
 9642 00f1 1A       		.byte	0x1a
 9643 00f2 48       		.byte	0x48
 9644 00f3 24       		.byte	0x24
 9645 00f4 30       		.byte	0x30
 9646 00f5 2E       		.byte	0x2e
 9647 00f6 08       		.byte	0x8
 9648 00f7 FF       		.byte	0xff
 9649 00f8 1A       		.byte	0x1a
 9650 00f9 9F       		.byte	0x9f
 9651 00fa 70000000 		.4byte	.LVL14
 9652 00fe 72000000 		.4byte	.LVL15
 9653 0102 0E00     		.2byte	0xe
 9654 0104 74       		.byte	0x74
 9655 0105 1C       		.sleb128 28
 9656 0106 94       		.byte	0x94
 9657 0107 01       		.byte	0x1
 9658 0108 34       		.byte	0x34
 9659 0109 1A       		.byte	0x1a
 9660 010a 48       		.byte	0x48
 9661 010b 24       		.byte	0x24
 9662 010c 30       		.byte	0x30
 9663 010d 2E       		.byte	0x2e
 9664 010e 08       		.byte	0x8
 9665 010f FF       		.byte	0xff
 9666 0110 1A       		.byte	0x1a
 9667 0111 9F       		.byte	0x9f
 9668 0112 00000000 		.4byte	0
ARM GAS  /tmp/ccT6pRdh.s 			page 171


 9669 0116 00000000 		.4byte	0
 9670              	.LLST5:
 9671 011a 00000000 		.4byte	.LVL24
 9672 011e 14000000 		.4byte	.LVL25
 9673 0122 0100     		.2byte	0x1
 9674 0124 50       		.byte	0x50
 9675 0125 14000000 		.4byte	.LVL25
 9676 0129 36000000 		.4byte	.LVL29
 9677 012d 0100     		.2byte	0x1
 9678 012f 54       		.byte	0x54
 9679 0130 36000000 		.4byte	.LVL29
 9680 0134 3A000000 		.4byte	.LVL30
 9681 0138 0400     		.2byte	0x4
 9682 013a F3       		.byte	0xf3
 9683 013b 01       		.uleb128 0x1
 9684 013c 50       		.byte	0x50
 9685 013d 9F       		.byte	0x9f
 9686 013e 3A000000 		.4byte	.LVL30
 9687 0142 7A000000 		.4byte	.LVL38
 9688 0146 0100     		.2byte	0x1
 9689 0148 54       		.byte	0x54
 9690 0149 7A000000 		.4byte	.LVL38
 9691 014d 7F000000 		.4byte	.LVL39-1
 9692 0151 0100     		.2byte	0x1
 9693 0153 50       		.byte	0x50
 9694 0154 7F000000 		.4byte	.LVL39-1
 9695 0158 8C000000 		.4byte	.LVL41
 9696 015c 0100     		.2byte	0x1
 9697 015e 54       		.byte	0x54
 9698 015f 8C000000 		.4byte	.LVL41
 9699 0163 90000000 		.4byte	.LVL42
 9700 0167 0400     		.2byte	0x4
 9701 0169 F3       		.byte	0xf3
 9702 016a 01       		.uleb128 0x1
 9703 016b 50       		.byte	0x50
 9704 016c 9F       		.byte	0x9f
 9705 016d 90000000 		.4byte	.LVL42
 9706 0171 9A000000 		.4byte	.LFE8
 9707 0175 0100     		.2byte	0x1
 9708 0177 54       		.byte	0x54
 9709 0178 00000000 		.4byte	0
 9710 017c 00000000 		.4byte	0
 9711              	.LLST6:
 9712 0180 00000000 		.4byte	.LVL24
 9713 0184 14000000 		.4byte	.LVL25
 9714 0188 0100     		.2byte	0x1
 9715 018a 51       		.byte	0x51
 9716 018b 14000000 		.4byte	.LVL25
 9717 018f 7A000000 		.4byte	.LVL38
 9718 0193 0400     		.2byte	0x4
 9719 0195 F3       		.byte	0xf3
 9720 0196 01       		.uleb128 0x1
 9721 0197 51       		.byte	0x51
 9722 0198 9F       		.byte	0x9f
 9723 0199 7A000000 		.4byte	.LVL38
 9724 019d 7F000000 		.4byte	.LVL39-1
 9725 01a1 0100     		.2byte	0x1
ARM GAS  /tmp/ccT6pRdh.s 			page 172


 9726 01a3 51       		.byte	0x51
 9727 01a4 7F000000 		.4byte	.LVL39-1
 9728 01a8 9A000000 		.4byte	.LFE8
 9729 01ac 0400     		.2byte	0x4
 9730 01ae F3       		.byte	0xf3
 9731 01af 01       		.uleb128 0x1
 9732 01b0 51       		.byte	0x51
 9733 01b1 9F       		.byte	0x9f
 9734 01b2 00000000 		.4byte	0
 9735 01b6 00000000 		.4byte	0
 9736              	.LLST7:
 9737 01ba 00000000 		.4byte	.LVL24
 9738 01be 14000000 		.4byte	.LVL25
 9739 01c2 0100     		.2byte	0x1
 9740 01c4 52       		.byte	0x52
 9741 01c5 14000000 		.4byte	.LVL25
 9742 01c9 36000000 		.4byte	.LVL29
 9743 01cd 0100     		.2byte	0x1
 9744 01cf 55       		.byte	0x55
 9745 01d0 36000000 		.4byte	.LVL29
 9746 01d4 39000000 		.4byte	.LVL30-1
 9747 01d8 0100     		.2byte	0x1
 9748 01da 50       		.byte	0x50
 9749 01db 39000000 		.4byte	.LVL30-1
 9750 01df 3A000000 		.4byte	.LVL30
 9751 01e3 0400     		.2byte	0x4
 9752 01e5 F3       		.byte	0xf3
 9753 01e6 01       		.uleb128 0x1
 9754 01e7 52       		.byte	0x52
 9755 01e8 9F       		.byte	0x9f
 9756 01e9 3A000000 		.4byte	.LVL30
 9757 01ed 62000000 		.4byte	.LVL35
 9758 01f1 0100     		.2byte	0x1
 9759 01f3 55       		.byte	0x55
 9760 01f4 62000000 		.4byte	.LVL35
 9761 01f8 65000000 		.4byte	.LVL36-1
 9762 01fc 0200     		.2byte	0x2
 9763 01fe 76       		.byte	0x76
 9764 01ff 00       		.sleb128 0
 9765 0200 65000000 		.4byte	.LVL36-1
 9766 0204 7A000000 		.4byte	.LVL38
 9767 0208 0400     		.2byte	0x4
 9768 020a F3       		.byte	0xf3
 9769 020b 01       		.uleb128 0x1
 9770 020c 52       		.byte	0x52
 9771 020d 9F       		.byte	0x9f
 9772 020e 7A000000 		.4byte	.LVL38
 9773 0212 7F000000 		.4byte	.LVL39-1
 9774 0216 0100     		.2byte	0x1
 9775 0218 52       		.byte	0x52
 9776 0219 7F000000 		.4byte	.LVL39-1
 9777 021d 84000000 		.4byte	.LVL40
 9778 0221 0100     		.2byte	0x1
 9779 0223 55       		.byte	0x55
 9780 0224 84000000 		.4byte	.LVL40
 9781 0228 90000000 		.4byte	.LVL42
 9782 022c 0400     		.2byte	0x4
ARM GAS  /tmp/ccT6pRdh.s 			page 173


 9783 022e F3       		.byte	0xf3
 9784 022f 01       		.uleb128 0x1
 9785 0230 52       		.byte	0x52
 9786 0231 9F       		.byte	0x9f
 9787 0232 90000000 		.4byte	.LVL42
 9788 0236 9A000000 		.4byte	.LFE8
 9789 023a 0100     		.2byte	0x1
 9790 023c 55       		.byte	0x55
 9791 023d 00000000 		.4byte	0
 9792 0241 00000000 		.4byte	0
 9793              	.LLST8:
 9794 0245 00000000 		.4byte	.LVL24
 9795 0249 14000000 		.4byte	.LVL25
 9796 024d 0100     		.2byte	0x1
 9797 024f 53       		.byte	0x53
 9798 0250 14000000 		.4byte	.LVL25
 9799 0254 36000000 		.4byte	.LVL29
 9800 0258 0100     		.2byte	0x1
 9801 025a 58       		.byte	0x58
 9802 025b 36000000 		.4byte	.LVL29
 9803 025f 3A000000 		.4byte	.LVL30
 9804 0263 0400     		.2byte	0x4
 9805 0265 F3       		.byte	0xf3
 9806 0266 01       		.uleb128 0x1
 9807 0267 53       		.byte	0x53
 9808 0268 9F       		.byte	0x9f
 9809 0269 3A000000 		.4byte	.LVL30
 9810 026d 52000000 		.4byte	.LVL32
 9811 0271 0100     		.2byte	0x1
 9812 0273 58       		.byte	0x58
 9813 0274 52000000 		.4byte	.LVL32
 9814 0278 56000000 		.4byte	.LVL33
 9815 027c 0100     		.2byte	0x1
 9816 027e 53       		.byte	0x53
 9817 027f 56000000 		.4byte	.LVL33
 9818 0283 7A000000 		.4byte	.LVL38
 9819 0287 0100     		.2byte	0x1
 9820 0289 58       		.byte	0x58
 9821 028a 7A000000 		.4byte	.LVL38
 9822 028e 7F000000 		.4byte	.LVL39-1
 9823 0292 0100     		.2byte	0x1
 9824 0294 53       		.byte	0x53
 9825 0295 7F000000 		.4byte	.LVL39-1
 9826 0299 8C000000 		.4byte	.LVL41
 9827 029d 0100     		.2byte	0x1
 9828 029f 58       		.byte	0x58
 9829 02a0 8C000000 		.4byte	.LVL41
 9830 02a4 90000000 		.4byte	.LVL42
 9831 02a8 0400     		.2byte	0x4
 9832 02aa F3       		.byte	0xf3
 9833 02ab 01       		.uleb128 0x1
 9834 02ac 53       		.byte	0x53
 9835 02ad 9F       		.byte	0x9f
 9836 02ae 90000000 		.4byte	.LVL42
 9837 02b2 9A000000 		.4byte	.LFE8
 9838 02b6 0100     		.2byte	0x1
 9839 02b8 58       		.byte	0x58
ARM GAS  /tmp/ccT6pRdh.s 			page 174


 9840 02b9 00000000 		.4byte	0
 9841 02bd 00000000 		.4byte	0
 9842              	.LLST9:
 9843 02c1 00000000 		.4byte	.LVL24
 9844 02c5 36000000 		.4byte	.LVL29
 9845 02c9 0200     		.2byte	0x2
 9846 02cb 91       		.byte	0x91
 9847 02cc 00       		.sleb128 0
 9848 02cd 36000000 		.4byte	.LVL29
 9849 02d1 3A000000 		.4byte	.LVL30
 9850 02d5 0200     		.2byte	0x2
 9851 02d7 7D       		.byte	0x7d
 9852 02d8 00       		.sleb128 0
 9853 02d9 3A000000 		.4byte	.LVL30
 9854 02dd 8C000000 		.4byte	.LVL41
 9855 02e1 0200     		.2byte	0x2
 9856 02e3 91       		.byte	0x91
 9857 02e4 00       		.sleb128 0
 9858 02e5 8C000000 		.4byte	.LVL41
 9859 02e9 90000000 		.4byte	.LVL42
 9860 02ed 0200     		.2byte	0x2
 9861 02ef 7D       		.byte	0x7d
 9862 02f0 00       		.sleb128 0
 9863 02f1 90000000 		.4byte	.LVL42
 9864 02f5 9A000000 		.4byte	.LFE8
 9865 02f9 0200     		.2byte	0x2
 9866 02fb 91       		.byte	0x91
 9867 02fc 00       		.sleb128 0
 9868 02fd 00000000 		.4byte	0
 9869 0301 00000000 		.4byte	0
 9870              	.LLST10:
 9871 0305 40000000 		.4byte	.LVL31
 9872 0309 60000000 		.4byte	.LVL34
 9873 030d 0100     		.2byte	0x1
 9874 030f 50       		.byte	0x50
 9875 0310 60000000 		.4byte	.LVL34
 9876 0314 7A000000 		.4byte	.LVL38
 9877 0318 0100     		.2byte	0x1
 9878 031a 56       		.byte	0x56
 9879 031b 84000000 		.4byte	.LVL40
 9880 031f 8C000000 		.4byte	.LVL41
 9881 0323 0100     		.2byte	0x1
 9882 0325 56       		.byte	0x56
 9883 0326 8C000000 		.4byte	.LVL41
 9884 032a 8F000000 		.4byte	.LVL42-1
 9885 032e 0100     		.2byte	0x1
 9886 0330 50       		.byte	0x50
 9887 0331 00000000 		.4byte	0
 9888 0335 00000000 		.4byte	0
 9889              	.LLST11:
 9890 0339 18000000 		.4byte	.LVL26
 9891 033d 36000000 		.4byte	.LVL29
 9892 0341 0100     		.2byte	0x1
 9893 0343 54       		.byte	0x54
 9894 0344 36000000 		.4byte	.LVL29
 9895 0348 3A000000 		.4byte	.LVL30
 9896 034c 0400     		.2byte	0x4
ARM GAS  /tmp/ccT6pRdh.s 			page 175


 9897 034e F3       		.byte	0xf3
 9898 034f 01       		.uleb128 0x1
 9899 0350 50       		.byte	0x50
 9900 0351 9F       		.byte	0x9f
 9901 0352 3A000000 		.4byte	.LVL30
 9902 0356 7A000000 		.4byte	.LVL38
 9903 035a 0100     		.2byte	0x1
 9904 035c 54       		.byte	0x54
 9905 035d 84000000 		.4byte	.LVL40
 9906 0361 8C000000 		.4byte	.LVL41
 9907 0365 0100     		.2byte	0x1
 9908 0367 54       		.byte	0x54
 9909 0368 8C000000 		.4byte	.LVL41
 9910 036c 90000000 		.4byte	.LVL42
 9911 0370 0400     		.2byte	0x4
 9912 0372 F3       		.byte	0xf3
 9913 0373 01       		.uleb128 0x1
 9914 0374 50       		.byte	0x50
 9915 0375 9F       		.byte	0x9f
 9916 0376 00000000 		.4byte	0
 9917 037a 00000000 		.4byte	0
 9918              	.LLST12:
 9919 037e 62000000 		.4byte	.LVL35
 9920 0382 65000000 		.4byte	.LVL36-1
 9921 0386 0500     		.2byte	0x5
 9922 0388 76       		.byte	0x76
 9923 0389 00       		.sleb128 0
 9924 038a 06       		.byte	0x6
 9925 038b 23       		.byte	0x23
 9926 038c 08       		.uleb128 0x8
 9927 038d 65000000 		.4byte	.LVL36-1
 9928 0391 7A000000 		.4byte	.LVL38
 9929 0395 0100     		.2byte	0x1
 9930 0397 55       		.byte	0x55
 9931 0398 84000000 		.4byte	.LVL40
 9932 039c 8C000000 		.4byte	.LVL41
 9933 03a0 0100     		.2byte	0x1
 9934 03a2 55       		.byte	0x55
 9935 03a3 00000000 		.4byte	0
 9936 03a7 00000000 		.4byte	0
 9937              	.LLST13:
 9938 03ab 00000000 		.4byte	.LVL44
 9939 03af 12000000 		.4byte	.LVL45
 9940 03b3 0100     		.2byte	0x1
 9941 03b5 50       		.byte	0x50
 9942 03b6 12000000 		.4byte	.LVL45
 9943 03ba 8A000000 		.4byte	.LFE7
 9944 03be 0100     		.2byte	0x1
 9945 03c0 54       		.byte	0x54
 9946 03c1 00000000 		.4byte	0
 9947 03c5 00000000 		.4byte	0
 9948              	.LLST14:
 9949 03c9 00000000 		.4byte	.LVL44
 9950 03cd 15000000 		.4byte	.LVL46-1
 9951 03d1 0100     		.2byte	0x1
 9952 03d3 51       		.byte	0x51
 9953 03d4 15000000 		.4byte	.LVL46-1
ARM GAS  /tmp/ccT6pRdh.s 			page 176


 9954 03d8 18000000 		.4byte	.LVL47
 9955 03dc 0100     		.2byte	0x1
 9956 03de 57       		.byte	0x57
 9957 03df 18000000 		.4byte	.LVL47
 9958 03e3 1E000000 		.4byte	.LVL48
 9959 03e7 0400     		.2byte	0x4
 9960 03e9 F3       		.byte	0xf3
 9961 03ea 01       		.uleb128 0x1
 9962 03eb 51       		.byte	0x51
 9963 03ec 9F       		.byte	0x9f
 9964 03ed 1E000000 		.4byte	.LVL48
 9965 03f1 5A000000 		.4byte	.LVL53
 9966 03f5 0100     		.2byte	0x1
 9967 03f7 57       		.byte	0x57
 9968 03f8 5A000000 		.4byte	.LVL53
 9969 03fc 7A000000 		.4byte	.LVL57
 9970 0400 0400     		.2byte	0x4
 9971 0402 F3       		.byte	0xf3
 9972 0403 01       		.uleb128 0x1
 9973 0404 51       		.byte	0x51
 9974 0405 9F       		.byte	0x9f
 9975 0406 7A000000 		.4byte	.LVL57
 9976 040a 82000000 		.4byte	.LVL59
 9977 040e 0100     		.2byte	0x1
 9978 0410 57       		.byte	0x57
 9979 0411 82000000 		.4byte	.LVL59
 9980 0415 8A000000 		.4byte	.LFE7
 9981 0419 0400     		.2byte	0x4
 9982 041b F3       		.byte	0xf3
 9983 041c 01       		.uleb128 0x1
 9984 041d 51       		.byte	0x51
 9985 041e 9F       		.byte	0x9f
 9986 041f 00000000 		.4byte	0
 9987 0423 00000000 		.4byte	0
 9988              	.LLST15:
 9989 0427 00000000 		.4byte	.LVL44
 9990 042b 15000000 		.4byte	.LVL46-1
 9991 042f 0100     		.2byte	0x1
 9992 0431 52       		.byte	0x52
 9993 0432 15000000 		.4byte	.LVL46-1
 9994 0436 18000000 		.4byte	.LVL47
 9995 043a 0100     		.2byte	0x1
 9996 043c 56       		.byte	0x56
 9997 043d 18000000 		.4byte	.LVL47
 9998 0441 1E000000 		.4byte	.LVL48
 9999 0445 0400     		.2byte	0x4
 10000 0447 F3       		.byte	0xf3
 10001 0448 01       		.uleb128 0x1
 10002 0449 52       		.byte	0x52
 10003 044a 9F       		.byte	0x9f
 10004 044b 1E000000 		.4byte	.LVL48
 10005 044f 3E000000 		.4byte	.LVL52
 10006 0453 0100     		.2byte	0x1
 10007 0455 56       		.byte	0x56
 10008 0456 3E000000 		.4byte	.LVL52
 10009 045a 8A000000 		.4byte	.LFE7
 10010 045e 0400     		.2byte	0x4
ARM GAS  /tmp/ccT6pRdh.s 			page 177


 10011 0460 F3       		.byte	0xf3
 10012 0461 01       		.uleb128 0x1
 10013 0462 52       		.byte	0x52
 10014 0463 9F       		.byte	0x9f
 10015 0464 00000000 		.4byte	0
 10016 0468 00000000 		.4byte	0
 10017              	.LLST16:
 10018 046c 00000000 		.4byte	.LVL44
 10019 0470 15000000 		.4byte	.LVL46-1
 10020 0474 0100     		.2byte	0x1
 10021 0476 53       		.byte	0x53
 10022 0477 15000000 		.4byte	.LVL46-1
 10023 047b 8A000000 		.4byte	.LFE7
 10024 047f 0400     		.2byte	0x4
 10025 0481 F3       		.byte	0xf3
 10026 0482 01       		.uleb128 0x1
 10027 0483 53       		.byte	0x53
 10028 0484 9F       		.byte	0x9f
 10029 0485 00000000 		.4byte	0
 10030 0489 00000000 		.4byte	0
 10031              	.LLST17:
 10032 048d 28000000 		.4byte	.LVL49
 10033 0491 33000000 		.4byte	.LVL50-1
 10034 0495 0100     		.2byte	0x1
 10035 0497 50       		.byte	0x50
 10036 0498 33000000 		.4byte	.LVL50-1
 10037 049c 8A000000 		.4byte	.LFE7
 10038 04a0 0100     		.2byte	0x1
 10039 04a2 58       		.byte	0x58
 10040 04a3 00000000 		.4byte	0
 10041 04a7 00000000 		.4byte	0
 10042              	.LLST18:
 10043 04ab 3C000000 		.4byte	.LVL51
 10044 04af 60000000 		.4byte	.LVL54
 10045 04b3 0100     		.2byte	0x1
 10046 04b5 50       		.byte	0x50
 10047 04b6 60000000 		.4byte	.LVL54
 10048 04ba 63000000 		.4byte	.LVL55-1
 10049 04be 0100     		.2byte	0x1
 10050 04c0 51       		.byte	0x51
 10051 04c1 63000000 		.4byte	.LVL55-1
 10052 04c5 7A000000 		.4byte	.LVL57
 10053 04c9 0100     		.2byte	0x1
 10054 04cb 56       		.byte	0x56
 10055 04cc 82000000 		.4byte	.LVL59
 10056 04d0 8A000000 		.4byte	.LFE7
 10057 04d4 0100     		.2byte	0x1
 10058 04d6 56       		.byte	0x56
 10059 04d7 00000000 		.4byte	0
 10060 04db 00000000 		.4byte	0
 10061              	.LLST20:
 10062 04df 5A000000 		.4byte	.LVL53
 10063 04e3 63000000 		.4byte	.LVL55-1
 10064 04e7 0200     		.2byte	0x2
 10065 04e9 78       		.byte	0x78
 10066 04ea 08       		.sleb128 8
 10067 04eb 63000000 		.4byte	.LVL55-1
ARM GAS  /tmp/ccT6pRdh.s 			page 178


 10068 04ef 7A000000 		.4byte	.LVL57
 10069 04f3 0100     		.2byte	0x1
 10070 04f5 57       		.byte	0x57
 10071 04f6 82000000 		.4byte	.LVL59
 10072 04fa 8A000000 		.4byte	.LFE7
 10073 04fe 0100     		.2byte	0x1
 10074 0500 57       		.byte	0x57
 10075 0501 00000000 		.4byte	0
 10076 0505 00000000 		.4byte	0
 10077              	.LLST21:
 10078 0509 00000000 		.4byte	.LVL61
 10079 050d 08000000 		.4byte	.LVL63
 10080 0511 0100     		.2byte	0x1
 10081 0513 50       		.byte	0x50
 10082 0514 08000000 		.4byte	.LVL63
 10083 0518 0B000000 		.4byte	.LVL64-1
 10084 051c 0100     		.2byte	0x1
 10085 051e 51       		.byte	0x51
 10086 051f 0B000000 		.4byte	.LVL64-1
 10087 0523 4A000000 		.4byte	.LFE13
 10088 0527 0400     		.2byte	0x4
 10089 0529 F3       		.byte	0xf3
 10090 052a 01       		.uleb128 0x1
 10091 052b 50       		.byte	0x50
 10092 052c 9F       		.byte	0x9f
 10093 052d 00000000 		.4byte	0
 10094 0531 00000000 		.4byte	0
 10095              	.LLST22:
 10096 0535 04000000 		.4byte	.LVL62
 10097 0539 46000000 		.4byte	.LVL68
 10098 053d 0100     		.2byte	0x1
 10099 053f 54       		.byte	0x54
 10100 0540 46000000 		.4byte	.LVL68
 10101 0544 49000000 		.4byte	.LVL69-1
 10102 0548 0100     		.2byte	0x1
 10103 054a 50       		.byte	0x50
 10104 054b 00000000 		.4byte	0
 10105 054f 00000000 		.4byte	0
 10106              	.LLST23:
 10107 0553 00000000 		.4byte	.LVL70
 10108 0557 13000000 		.4byte	.LVL71-1
 10109 055b 0100     		.2byte	0x1
 10110 055d 50       		.byte	0x50
 10111 055e 13000000 		.4byte	.LVL71-1
 10112 0562 80000000 		.4byte	.LVL82
 10113 0566 0100     		.2byte	0x1
 10114 0568 54       		.byte	0x54
 10115 0569 80000000 		.4byte	.LVL82
 10116 056d 82000000 		.4byte	.LVL83
 10117 0571 0100     		.2byte	0x1
 10118 0573 50       		.byte	0x50
 10119 0574 82000000 		.4byte	.LVL83
 10120 0578 84000000 		.4byte	.LFE23
 10121 057c 0100     		.2byte	0x1
 10122 057e 54       		.byte	0x54
 10123 057f 00000000 		.4byte	0
 10124 0583 00000000 		.4byte	0
ARM GAS  /tmp/ccT6pRdh.s 			page 179


 10125              	.LLST24:
 10126 0587 00000000 		.4byte	.LVL70
 10127 058b 13000000 		.4byte	.LVL71-1
 10128 058f 0100     		.2byte	0x1
 10129 0591 51       		.byte	0x51
 10130 0592 13000000 		.4byte	.LVL71-1
 10131 0596 80000000 		.4byte	.LVL82
 10132 059a 0400     		.2byte	0x4
 10133 059c F3       		.byte	0xf3
 10134 059d 01       		.uleb128 0x1
 10135 059e 51       		.byte	0x51
 10136 059f 9F       		.byte	0x9f
 10137 05a0 80000000 		.4byte	.LVL82
 10138 05a4 84000000 		.4byte	.LFE23
 10139 05a8 0100     		.2byte	0x1
 10140 05aa 51       		.byte	0x51
 10141 05ab 00000000 		.4byte	0
 10142 05af 00000000 		.4byte	0
 10143              	.LLST25:
 10144 05b3 00000000 		.4byte	.LVL70
 10145 05b7 13000000 		.4byte	.LVL71-1
 10146 05bb 0100     		.2byte	0x1
 10147 05bd 52       		.byte	0x52
 10148 05be 13000000 		.4byte	.LVL71-1
 10149 05c2 80000000 		.4byte	.LVL82
 10150 05c6 0400     		.2byte	0x4
 10151 05c8 F3       		.byte	0xf3
 10152 05c9 01       		.uleb128 0x1
 10153 05ca 52       		.byte	0x52
 10154 05cb 9F       		.byte	0x9f
 10155 05cc 80000000 		.4byte	.LVL82
 10156 05d0 84000000 		.4byte	.LFE23
 10157 05d4 0100     		.2byte	0x1
 10158 05d6 52       		.byte	0x52
 10159 05d7 00000000 		.4byte	0
 10160 05db 00000000 		.4byte	0
 10161              	.LLST27:
 10162 05df 2E000000 		.4byte	.LVL72
 10163 05e3 48000000 		.4byte	.LVL74
 10164 05e7 0100     		.2byte	0x1
 10165 05e9 55       		.byte	0x55
 10166 05ea 48000000 		.4byte	.LVL74
 10167 05ee 4C000000 		.4byte	.LVL75
 10168 05f2 0100     		.2byte	0x1
 10169 05f4 50       		.byte	0x50
 10170 05f5 4C000000 		.4byte	.LVL75
 10171 05f9 52000000 		.4byte	.LVL77
 10172 05fd 0100     		.2byte	0x1
 10173 05ff 55       		.byte	0x55
 10174 0600 56000000 		.4byte	.LVL78
 10175 0604 62000000 		.4byte	.LVL79
 10176 0608 0100     		.2byte	0x1
 10177 060a 55       		.byte	0x55
 10178 060b 00000000 		.4byte	0
 10179 060f 00000000 		.4byte	0
 10180              	.LLST28:
 10181 0613 00000000 		.4byte	.LVL84
ARM GAS  /tmp/ccT6pRdh.s 			page 180


 10182 0617 27000000 		.4byte	.LVL86-1
 10183 061b 0100     		.2byte	0x1
 10184 061d 50       		.byte	0x50
 10185 061e 27000000 		.4byte	.LVL86-1
 10186 0622 6C010000 		.4byte	.LFE29
 10187 0626 0100     		.2byte	0x1
 10188 0628 54       		.byte	0x54
 10189 0629 00000000 		.4byte	0
 10190 062d 00000000 		.4byte	0
 10191              	.LLST29:
 10192 0631 8A000000 		.4byte	.LVL94
 10193 0635 8C000000 		.4byte	.LVL95
 10194 0639 0100     		.2byte	0x1
 10195 063b 50       		.byte	0x50
 10196 063c 8C000000 		.4byte	.LVL95
 10197 0640 A6000000 		.4byte	.LVL98
 10198 0644 0100     		.2byte	0x1
 10199 0646 56       		.byte	0x56
 10200 0647 C8000000 		.4byte	.LVL101
 10201 064b 08010000 		.4byte	.LVL107
 10202 064f 0100     		.2byte	0x1
 10203 0651 56       		.byte	0x56
 10204 0652 28010000 		.4byte	.LVL113
 10205 0656 2E010000 		.4byte	.LVL114
 10206 065a 0100     		.2byte	0x1
 10207 065c 50       		.byte	0x50
 10208 065d 5A010000 		.4byte	.LVL118
 10209 0661 62010000 		.4byte	.LVL120
 10210 0665 0100     		.2byte	0x1
 10211 0667 50       		.byte	0x50
 10212 0668 62010000 		.4byte	.LVL120
 10213 066c 66010000 		.4byte	.LVL121
 10214 0670 0100     		.2byte	0x1
 10215 0672 56       		.byte	0x56
 10216 0673 00000000 		.4byte	0
 10217 0677 00000000 		.4byte	0
 10218              	.LLST30:
 10219 067b 62000000 		.4byte	.LVL88
 10220 067f 14010000 		.4byte	.LVL109
 10221 0683 0100     		.2byte	0x1
 10222 0685 5B       		.byte	0x5b
 10223 0686 20010000 		.4byte	.LVL111
 10224 068a 54010000 		.4byte	.LVL116
 10225 068e 0100     		.2byte	0x1
 10226 0690 5B       		.byte	0x5b
 10227 0691 5A010000 		.4byte	.LVL118
 10228 0695 66010000 		.4byte	.LVL121
 10229 0699 0100     		.2byte	0x1
 10230 069b 5B       		.byte	0x5b
 10231 069c 00000000 		.4byte	0
 10232 06a0 00000000 		.4byte	0
 10233              	.LLST31:
 10234 06a4 62000000 		.4byte	.LVL88
 10235 06a8 64000000 		.4byte	.LVL89
 10236 06ac 0100     		.2byte	0x1
 10237 06ae 55       		.byte	0x55
 10238 06af 64000000 		.4byte	.LVL89
ARM GAS  /tmp/ccT6pRdh.s 			page 181


 10239 06b3 70000000 		.4byte	.LVL91
 10240 06b7 0300     		.2byte	0x3
 10241 06b9 70       		.byte	0x70
 10242 06ba E600     		.sleb128 102
 10243 06bc 70000000 		.4byte	.LVL91
 10244 06c0 8C000000 		.4byte	.LVL95
 10245 06c4 0100     		.2byte	0x1
 10246 06c6 55       		.byte	0x55
 10247 06c7 BE000000 		.4byte	.LVL100
 10248 06cb C8000000 		.4byte	.LVL101
 10249 06cf 0300     		.2byte	0x3
 10250 06d1 70       		.byte	0x70
 10251 06d2 E600     		.sleb128 102
 10252 06d4 C8000000 		.4byte	.LVL101
 10253 06d8 E2000000 		.4byte	.LVL103
 10254 06dc 0100     		.2byte	0x1
 10255 06de 5A       		.byte	0x5a
 10256 06df E2000000 		.4byte	.LVL103
 10257 06e3 EC000000 		.4byte	.LVL104
 10258 06e7 0100     		.2byte	0x1
 10259 06e9 55       		.byte	0x55
 10260 06ea 20010000 		.4byte	.LVL111
 10261 06ee 2E010000 		.4byte	.LVL114
 10262 06f2 0100     		.2byte	0x1
 10263 06f4 55       		.byte	0x55
 10264 06f5 5A010000 		.4byte	.LVL118
 10265 06f9 62010000 		.4byte	.LVL120
 10266 06fd 0100     		.2byte	0x1
 10267 06ff 55       		.byte	0x55
 10268 0700 62010000 		.4byte	.LVL120
 10269 0704 66010000 		.4byte	.LVL121
 10270 0708 0100     		.2byte	0x1
 10271 070a 5A       		.byte	0x5a
 10272 070b 00000000 		.4byte	0
 10273 070f 00000000 		.4byte	0
 10274              	.LLST32:
 10275 0713 62000000 		.4byte	.LVL88
 10276 0717 78000000 		.4byte	.LVL92
 10277 071b 0300     		.2byte	0x3
 10278 071d 70       		.byte	0x70
 10279 071e E600     		.sleb128 102
 10280 0720 78000000 		.4byte	.LVL92
 10281 0724 8C000000 		.4byte	.LVL95
 10282 0728 0100     		.2byte	0x1
 10283 072a 5A       		.byte	0x5a
 10284 072b BE000000 		.4byte	.LVL100
 10285 072f C8000000 		.4byte	.LVL101
 10286 0733 0300     		.2byte	0x3
 10287 0735 70       		.byte	0x70
 10288 0736 E600     		.sleb128 102
 10289 0738 20010000 		.4byte	.LVL111
 10290 073c 23010000 		.4byte	.LVL112-1
 10291 0740 0300     		.2byte	0x3
 10292 0742 70       		.byte	0x70
 10293 0743 E600     		.sleb128 102
 10294 0745 23010000 		.4byte	.LVL112-1
 10295 0749 2E010000 		.4byte	.LVL114
ARM GAS  /tmp/ccT6pRdh.s 			page 182


 10296 074d 0100     		.2byte	0x1
 10297 074f 5A       		.byte	0x5a
 10298 0750 5A010000 		.4byte	.LVL118
 10299 0754 5E010000 		.4byte	.LVL119
 10300 0758 0100     		.2byte	0x1
 10301 075a 5A       		.byte	0x5a
 10302 075b 00000000 		.4byte	0
 10303 075f 00000000 		.4byte	0
 10304              	.LLST33:
 10305 0763 00000000 		.4byte	.LVL84
 10306 0767 A2000000 		.4byte	.LVL97
 10307 076b 0200     		.2byte	0x2
 10308 076d 30       		.byte	0x30
 10309 076e 9F       		.byte	0x9f
 10310 076f A2000000 		.4byte	.LVL97
 10311 0773 A6000000 		.4byte	.LVL98
 10312 0777 0200     		.2byte	0x2
 10313 0779 31       		.byte	0x31
 10314 077a 9F       		.byte	0x9f
 10315 077b BE000000 		.4byte	.LVL100
 10316 077f FC000000 		.4byte	.LVL105
 10317 0783 0200     		.2byte	0x2
 10318 0785 30       		.byte	0x30
 10319 0786 9F       		.byte	0x9f
 10320 0787 FC000000 		.4byte	.LVL105
 10321 078b 08010000 		.4byte	.LVL107
 10322 078f 0200     		.2byte	0x2
 10323 0791 31       		.byte	0x31
 10324 0792 9F       		.byte	0x9f
 10325 0793 08010000 		.4byte	.LVL107
 10326 0797 6C010000 		.4byte	.LFE29
 10327 079b 0200     		.2byte	0x2
 10328 079d 30       		.byte	0x30
 10329 079e 9F       		.byte	0x9f
 10330 079f 00000000 		.4byte	0
 10331 07a3 00000000 		.4byte	0
 10332              	.LLST34:
 10333 07a7 1E000000 		.4byte	.LVL85
 10334 07ab 90000000 		.4byte	.LVL96
 10335 07af 0100     		.2byte	0x1
 10336 07b1 58       		.byte	0x58
 10337 07b2 90000000 		.4byte	.LVL96
 10338 07b6 A6000000 		.4byte	.LVL98
 10339 07ba 0500     		.2byte	0x5
 10340 07bc 78       		.byte	0x78
 10341 07bd 00       		.sleb128 0
 10342 07be 31       		.byte	0x31
 10343 07bf 27       		.byte	0x27
 10344 07c0 9F       		.byte	0x9f
 10345 07c1 BE000000 		.4byte	.LVL100
 10346 07c5 08010000 		.4byte	.LVL107
 10347 07c9 0100     		.2byte	0x1
 10348 07cb 58       		.byte	0x58
 10349 07cc 14010000 		.4byte	.LVL109
 10350 07d0 6C010000 		.4byte	.LFE29
 10351 07d4 0100     		.2byte	0x1
 10352 07d6 58       		.byte	0x58
ARM GAS  /tmp/ccT6pRdh.s 			page 183


 10353 07d7 00000000 		.4byte	0
 10354 07db 00000000 		.4byte	0
 10355              	.LLST35:
 10356 07df 1E000000 		.4byte	.LVL85
 10357 07e3 5C000000 		.4byte	.LVL87
 10358 07e7 0100     		.2byte	0x1
 10359 07e9 57       		.byte	0x57
 10360 07ea 62000000 		.4byte	.LVL88
 10361 07ee 8C000000 		.4byte	.LVL95
 10362 07f2 0100     		.2byte	0x1
 10363 07f4 57       		.byte	0x57
 10364 07f5 BE000000 		.4byte	.LVL100
 10365 07f9 C8000000 		.4byte	.LVL101
 10366 07fd 0100     		.2byte	0x1
 10367 07ff 57       		.byte	0x57
 10368 0800 14010000 		.4byte	.LVL109
 10369 0804 2E010000 		.4byte	.LVL114
 10370 0808 0100     		.2byte	0x1
 10371 080a 57       		.byte	0x57
 10372 080b 54010000 		.4byte	.LVL116
 10373 080f 62010000 		.4byte	.LVL120
 10374 0813 0100     		.2byte	0x1
 10375 0815 57       		.byte	0x57
 10376 0816 66010000 		.4byte	.LVL121
 10377 081a 6C010000 		.4byte	.LFE29
 10378 081e 0100     		.2byte	0x1
 10379 0820 57       		.byte	0x57
 10380 0821 00000000 		.4byte	0
 10381 0825 00000000 		.4byte	0
 10382              	.LLST36:
 10383 0829 00000000 		.4byte	.LVL123
 10384 082d 0A000000 		.4byte	.LVL124
 10385 0831 0100     		.2byte	0x1
 10386 0833 50       		.byte	0x50
 10387 0834 0A000000 		.4byte	.LVL124
 10388 0838 9E000000 		.4byte	.LVL136
 10389 083c 0100     		.2byte	0x1
 10390 083e 54       		.byte	0x54
 10391 083f 9E000000 		.4byte	.LVL136
 10392 0843 A1000000 		.4byte	.LVL137-1
 10393 0847 0300     		.2byte	0x3
 10394 0849 70       		.byte	0x70
 10395 084a 74       		.sleb128 -12
 10396 084b 9F       		.byte	0x9f
 10397 084c A1000000 		.4byte	.LVL137-1
 10398 0850 A2000000 		.4byte	.LVL137
 10399 0854 0400     		.2byte	0x4
 10400 0856 F3       		.byte	0xf3
 10401 0857 01       		.uleb128 0x1
 10402 0858 50       		.byte	0x50
 10403 0859 9F       		.byte	0x9f
 10404 085a A2000000 		.4byte	.LVL137
 10405 085e DC000000 		.4byte	.LVL142
 10406 0862 0100     		.2byte	0x1
 10407 0864 54       		.byte	0x54
 10408 0865 DC000000 		.4byte	.LVL142
 10409 0869 DF000000 		.4byte	.LVL143-1
ARM GAS  /tmp/ccT6pRdh.s 			page 184


 10410 086d 0100     		.2byte	0x1
 10411 086f 51       		.byte	0x51
 10412 0870 DF000000 		.4byte	.LVL143-1
 10413 0874 E0000000 		.4byte	.LVL143
 10414 0878 0400     		.2byte	0x4
 10415 087a F3       		.byte	0xf3
 10416 087b 01       		.uleb128 0x1
 10417 087c 50       		.byte	0x50
 10418 087d 9F       		.byte	0x9f
 10419 087e E0000000 		.4byte	.LVL143
 10420 0882 4E010000 		.4byte	.LVL158
 10421 0886 0100     		.2byte	0x1
 10422 0888 54       		.byte	0x54
 10423 0889 4E010000 		.4byte	.LVL158
 10424 088d 51010000 		.4byte	.LVL159-1
 10425 0891 0100     		.2byte	0x1
 10426 0893 50       		.byte	0x50
 10427 0894 51010000 		.4byte	.LVL159-1
 10428 0898 54010000 		.4byte	.LFE20
 10429 089c 0100     		.2byte	0x1
 10430 089e 54       		.byte	0x54
 10431 089f 00000000 		.4byte	0
 10432 08a3 00000000 		.4byte	0
 10433              	.LLST37:
 10434 08a7 60000000 		.4byte	.LVL131
 10435 08ab 78000000 		.4byte	.LVL132
 10436 08af 0100     		.2byte	0x1
 10437 08b1 50       		.byte	0x50
 10438 08b2 78000000 		.4byte	.LVL132
 10439 08b6 79000000 		.4byte	.LVL133-1
 10440 08ba 0100     		.2byte	0x1
 10441 08bc 52       		.byte	0x52
 10442 08bd A2000000 		.4byte	.LVL137
 10443 08c1 A4000000 		.4byte	.LVL138
 10444 08c5 0100     		.2byte	0x1
 10445 08c7 50       		.byte	0x50
 10446 08c8 02010000 		.4byte	.LVL147
 10447 08cc 04010000 		.4byte	.LVL148
 10448 08d0 0100     		.2byte	0x1
 10449 08d2 50       		.byte	0x50
 10450 08d3 00000000 		.4byte	0
 10451 08d7 00000000 		.4byte	0
 10452              	.LLST38:
 10453 08db 30000000 		.4byte	.LVL127
 10454 08df 48000000 		.4byte	.LVL129
 10455 08e3 0200     		.2byte	0x2
 10456 08e5 73       		.byte	0x73
 10457 08e6 08       		.sleb128 8
 10458 08e7 48000000 		.4byte	.LVL129
 10459 08eb 4C000000 		.4byte	.LVL130
 10460 08ef 0100     		.2byte	0x1
 10461 08f1 51       		.byte	0x51
 10462 08f2 1A010000 		.4byte	.LVL151
 10463 08f6 21010000 		.4byte	.LVL152-1
 10464 08fa 0200     		.2byte	0x2
 10465 08fc 73       		.byte	0x73
 10466 08fd 08       		.sleb128 8
ARM GAS  /tmp/ccT6pRdh.s 			page 185


 10467 08fe 00000000 		.4byte	0
 10468 0902 00000000 		.4byte	0
 10469              	.LLST39:
 10470 0906 40000000 		.4byte	.LVL128
 10471 090a 9E000000 		.4byte	.LVL136
 10472 090e 0100     		.2byte	0x1
 10473 0910 57       		.byte	0x57
 10474 0911 A2000000 		.4byte	.LVL137
 10475 0915 DC000000 		.4byte	.LVL142
 10476 0919 0100     		.2byte	0x1
 10477 091b 57       		.byte	0x57
 10478 091c E0000000 		.4byte	.LVL143
 10479 0920 40010000 		.4byte	.LVL155
 10480 0924 0100     		.2byte	0x1
 10481 0926 57       		.byte	0x57
 10482 0927 00000000 		.4byte	0
 10483 092b 00000000 		.4byte	0
 10484              	.LLST40:
 10485 092f 40000000 		.4byte	.LVL128
 10486 0933 9E000000 		.4byte	.LVL136
 10487 0937 0100     		.2byte	0x1
 10488 0939 56       		.byte	0x56
 10489 093a A2000000 		.4byte	.LVL137
 10490 093e DC000000 		.4byte	.LVL142
 10491 0942 0100     		.2byte	0x1
 10492 0944 56       		.byte	0x56
 10493 0945 E0000000 		.4byte	.LVL143
 10494 0949 40010000 		.4byte	.LVL155
 10495 094d 0100     		.2byte	0x1
 10496 094f 56       		.byte	0x56
 10497 0950 00000000 		.4byte	0
 10498 0954 00000000 		.4byte	0
 10499              	.LLST41:
 10500 0958 40000000 		.4byte	.LVL128
 10501 095c 9E000000 		.4byte	.LVL136
 10502 0960 0100     		.2byte	0x1
 10503 0962 55       		.byte	0x55
 10504 0963 A2000000 		.4byte	.LVL137
 10505 0967 DC000000 		.4byte	.LVL142
 10506 096b 0100     		.2byte	0x1
 10507 096d 55       		.byte	0x55
 10508 096e E0000000 		.4byte	.LVL143
 10509 0972 40010000 		.4byte	.LVL155
 10510 0976 0100     		.2byte	0x1
 10511 0978 55       		.byte	0x55
 10512 0979 00000000 		.4byte	0
 10513 097d 00000000 		.4byte	0
 10514              	.LLST42:
 10515 0981 00000000 		.4byte	.LVL160
 10516 0985 06000000 		.4byte	.LVL161
 10517 0989 0100     		.2byte	0x1
 10518 098b 50       		.byte	0x50
 10519 098c 06000000 		.4byte	.LVL161
 10520 0990 52000000 		.4byte	.LVL166
 10521 0994 0100     		.2byte	0x1
 10522 0996 54       		.byte	0x54
 10523 0997 52000000 		.4byte	.LVL166
ARM GAS  /tmp/ccT6pRdh.s 			page 186


 10524 099b 55000000 		.4byte	.LVL167-1
 10525 099f 0100     		.2byte	0x1
 10526 09a1 50       		.byte	0x50
 10527 09a2 55000000 		.4byte	.LVL167-1
 10528 09a6 58000000 		.4byte	.LFE10
 10529 09aa 0100     		.2byte	0x1
 10530 09ac 54       		.byte	0x54
 10531 09ad 00000000 		.4byte	0
 10532 09b1 00000000 		.4byte	0
 10533              	.LLST43:
 10534 09b5 00000000 		.4byte	.LVL160
 10535 09b9 06000000 		.4byte	.LVL161
 10536 09bd 0100     		.2byte	0x1
 10537 09bf 51       		.byte	0x51
 10538 09c0 06000000 		.4byte	.LVL161
 10539 09c4 52000000 		.4byte	.LVL166
 10540 09c8 0400     		.2byte	0x4
 10541 09ca F3       		.byte	0xf3
 10542 09cb 01       		.uleb128 0x1
 10543 09cc 51       		.byte	0x51
 10544 09cd 9F       		.byte	0x9f
 10545 09ce 52000000 		.4byte	.LVL166
 10546 09d2 55000000 		.4byte	.LVL167-1
 10547 09d6 0100     		.2byte	0x1
 10548 09d8 51       		.byte	0x51
 10549 09d9 55000000 		.4byte	.LVL167-1
 10550 09dd 58000000 		.4byte	.LFE10
 10551 09e1 0400     		.2byte	0x4
 10552 09e3 F3       		.byte	0xf3
 10553 09e4 01       		.uleb128 0x1
 10554 09e5 51       		.byte	0x51
 10555 09e6 9F       		.byte	0x9f
 10556 09e7 00000000 		.4byte	0
 10557 09eb 00000000 		.4byte	0
 10558              	.LLST45:
 10559 09ef 00000000 		.4byte	.LVL168
 10560 09f3 10000000 		.4byte	.LVL169
 10561 09f7 0100     		.2byte	0x1
 10562 09f9 50       		.byte	0x50
 10563 09fa 10000000 		.4byte	.LVL169
 10564 09fe 80000000 		.4byte	.LVL183
 10565 0a02 0100     		.2byte	0x1
 10566 0a04 54       		.byte	0x54
 10567 0a05 80000000 		.4byte	.LVL183
 10568 0a09 83000000 		.4byte	.LVL184-1
 10569 0a0d 0100     		.2byte	0x1
 10570 0a0f 50       		.byte	0x50
 10571 0a10 83000000 		.4byte	.LVL184-1
 10572 0a14 90000000 		.4byte	.LFE9
 10573 0a18 0100     		.2byte	0x1
 10574 0a1a 54       		.byte	0x54
 10575 0a1b 00000000 		.4byte	0
 10576 0a1f 00000000 		.4byte	0
 10577              	.LLST46:
 10578 0a23 00000000 		.4byte	.LVL168
 10579 0a27 10000000 		.4byte	.LVL169
 10580 0a2b 0100     		.2byte	0x1
ARM GAS  /tmp/ccT6pRdh.s 			page 187


 10581 0a2d 51       		.byte	0x51
 10582 0a2e 10000000 		.4byte	.LVL169
 10583 0a32 3E000000 		.4byte	.LVL175
 10584 0a36 0100     		.2byte	0x1
 10585 0a38 56       		.byte	0x56
 10586 0a39 3E000000 		.4byte	.LVL175
 10587 0a3d 4C000000 		.4byte	.LVL177
 10588 0a41 0400     		.2byte	0x4
 10589 0a43 F3       		.byte	0xf3
 10590 0a44 01       		.uleb128 0x1
 10591 0a45 51       		.byte	0x51
 10592 0a46 9F       		.byte	0x9f
 10593 0a47 4C000000 		.4byte	.LVL177
 10594 0a4b 5A000000 		.4byte	.LVL178
 10595 0a4f 0100     		.2byte	0x1
 10596 0a51 56       		.byte	0x56
 10597 0a52 5A000000 		.4byte	.LVL178
 10598 0a56 80000000 		.4byte	.LVL183
 10599 0a5a 0400     		.2byte	0x4
 10600 0a5c F3       		.byte	0xf3
 10601 0a5d 01       		.uleb128 0x1
 10602 0a5e 51       		.byte	0x51
 10603 0a5f 9F       		.byte	0x9f
 10604 0a60 80000000 		.4byte	.LVL183
 10605 0a64 83000000 		.4byte	.LVL184-1
 10606 0a68 0100     		.2byte	0x1
 10607 0a6a 51       		.byte	0x51
 10608 0a6b 83000000 		.4byte	.LVL184-1
 10609 0a6f 8C000000 		.4byte	.LVL186
 10610 0a73 0100     		.2byte	0x1
 10611 0a75 56       		.byte	0x56
 10612 0a76 8C000000 		.4byte	.LVL186
 10613 0a7a 90000000 		.4byte	.LFE9
 10614 0a7e 0400     		.2byte	0x4
 10615 0a80 F3       		.byte	0xf3
 10616 0a81 01       		.uleb128 0x1
 10617 0a82 51       		.byte	0x51
 10618 0a83 9F       		.byte	0x9f
 10619 0a84 00000000 		.4byte	0
 10620 0a88 00000000 		.4byte	0
 10621              	.LLST47:
 10622 0a8c 00000000 		.4byte	.LVL168
 10623 0a90 10000000 		.4byte	.LVL169
 10624 0a94 0100     		.2byte	0x1
 10625 0a96 52       		.byte	0x52
 10626 0a97 10000000 		.4byte	.LVL169
 10627 0a9b 3E000000 		.4byte	.LVL175
 10628 0a9f 0100     		.2byte	0x1
 10629 0aa1 55       		.byte	0x55
 10630 0aa2 3E000000 		.4byte	.LVL175
 10631 0aa6 4C000000 		.4byte	.LVL177
 10632 0aaa 0400     		.2byte	0x4
 10633 0aac F3       		.byte	0xf3
 10634 0aad 01       		.uleb128 0x1
 10635 0aae 52       		.byte	0x52
 10636 0aaf 9F       		.byte	0x9f
 10637 0ab0 4C000000 		.4byte	.LVL177
ARM GAS  /tmp/ccT6pRdh.s 			page 188


 10638 0ab4 68000000 		.4byte	.LVL181
 10639 0ab8 0100     		.2byte	0x1
 10640 0aba 55       		.byte	0x55
 10641 0abb 68000000 		.4byte	.LVL181
 10642 0abf 80000000 		.4byte	.LVL183
 10643 0ac3 0400     		.2byte	0x4
 10644 0ac5 F3       		.byte	0xf3
 10645 0ac6 01       		.uleb128 0x1
 10646 0ac7 52       		.byte	0x52
 10647 0ac8 9F       		.byte	0x9f
 10648 0ac9 80000000 		.4byte	.LVL183
 10649 0acd 83000000 		.4byte	.LVL184-1
 10650 0ad1 0100     		.2byte	0x1
 10651 0ad3 52       		.byte	0x52
 10652 0ad4 83000000 		.4byte	.LVL184-1
 10653 0ad8 8C000000 		.4byte	.LVL186
 10654 0adc 0100     		.2byte	0x1
 10655 0ade 55       		.byte	0x55
 10656 0adf 8C000000 		.4byte	.LVL186
 10657 0ae3 90000000 		.4byte	.LFE9
 10658 0ae7 0400     		.2byte	0x4
 10659 0ae9 F3       		.byte	0xf3
 10660 0aea 01       		.uleb128 0x1
 10661 0aeb 52       		.byte	0x52
 10662 0aec 9F       		.byte	0x9f
 10663 0aed 00000000 		.4byte	0
 10664 0af1 00000000 		.4byte	0
 10665              	.LLST48:
 10666 0af5 00000000 		.4byte	.LVL168
 10667 0af9 10000000 		.4byte	.LVL169
 10668 0afd 0100     		.2byte	0x1
 10669 0aff 53       		.byte	0x53
 10670 0b00 10000000 		.4byte	.LVL169
 10671 0b04 80000000 		.4byte	.LVL183
 10672 0b08 0400     		.2byte	0x4
 10673 0b0a F3       		.byte	0xf3
 10674 0b0b 01       		.uleb128 0x1
 10675 0b0c 53       		.byte	0x53
 10676 0b0d 9F       		.byte	0x9f
 10677 0b0e 80000000 		.4byte	.LVL183
 10678 0b12 83000000 		.4byte	.LVL184-1
 10679 0b16 0100     		.2byte	0x1
 10680 0b18 53       		.byte	0x53
 10681 0b19 83000000 		.4byte	.LVL184-1
 10682 0b1d 90000000 		.4byte	.LFE9
 10683 0b21 0400     		.2byte	0x4
 10684 0b23 F3       		.byte	0xf3
 10685 0b24 01       		.uleb128 0x1
 10686 0b25 53       		.byte	0x53
 10687 0b26 9F       		.byte	0x9f
 10688 0b27 00000000 		.4byte	0
 10689 0b2b 00000000 		.4byte	0
 10690              	.LLST49:
 10691 0b2f 14000000 		.4byte	.LVL170
 10692 0b33 80000000 		.4byte	.LVL183
 10693 0b37 0100     		.2byte	0x1
 10694 0b39 54       		.byte	0x54
ARM GAS  /tmp/ccT6pRdh.s 			page 189


 10695 0b3a 8C000000 		.4byte	.LVL186
 10696 0b3e 90000000 		.4byte	.LFE9
 10697 0b42 0100     		.2byte	0x1
 10698 0b44 54       		.byte	0x54
 10699 0b45 00000000 		.4byte	0
 10700 0b49 00000000 		.4byte	0
 10701              	.LLST50:
 10702 0b4d 5E000000 		.4byte	.LVL179
 10703 0b51 80000000 		.4byte	.LVL183
 10704 0b55 0100     		.2byte	0x1
 10705 0b57 56       		.byte	0x56
 10706 0b58 8C000000 		.4byte	.LVL186
 10707 0b5c 90000000 		.4byte	.LFE9
 10708 0b60 0100     		.2byte	0x1
 10709 0b62 56       		.byte	0x56
 10710 0b63 00000000 		.4byte	0
 10711 0b67 00000000 		.4byte	0
 10712              	.LLST51:
 10713 0b6b 00000000 		.4byte	.LVL187
 10714 0b6f 08000000 		.4byte	.LVL188
 10715 0b73 0100     		.2byte	0x1
 10716 0b75 50       		.byte	0x50
 10717 0b76 08000000 		.4byte	.LVL188
 10718 0b7a 50000000 		.4byte	.LVL194
 10719 0b7e 0100     		.2byte	0x1
 10720 0b80 54       		.byte	0x54
 10721 0b81 50000000 		.4byte	.LVL194
 10722 0b85 53000000 		.4byte	.LVL195-1
 10723 0b89 0100     		.2byte	0x1
 10724 0b8b 50       		.byte	0x50
 10725 0b8c 53000000 		.4byte	.LVL195-1
 10726 0b90 56000000 		.4byte	.LFE11
 10727 0b94 0100     		.2byte	0x1
 10728 0b96 54       		.byte	0x54
 10729 0b97 00000000 		.4byte	0
 10730 0b9b 00000000 		.4byte	0
 10731              	.LLST52:
 10732 0b9f 00000000 		.4byte	.LVL187
 10733 0ba3 08000000 		.4byte	.LVL188
 10734 0ba7 0100     		.2byte	0x1
 10735 0ba9 51       		.byte	0x51
 10736 0baa 08000000 		.4byte	.LVL188
 10737 0bae 50000000 		.4byte	.LVL194
 10738 0bb2 0400     		.2byte	0x4
 10739 0bb4 F3       		.byte	0xf3
 10740 0bb5 01       		.uleb128 0x1
 10741 0bb6 51       		.byte	0x51
 10742 0bb7 9F       		.byte	0x9f
 10743 0bb8 50000000 		.4byte	.LVL194
 10744 0bbc 53000000 		.4byte	.LVL195-1
 10745 0bc0 0100     		.2byte	0x1
 10746 0bc2 51       		.byte	0x51
 10747 0bc3 53000000 		.4byte	.LVL195-1
 10748 0bc7 56000000 		.4byte	.LFE11
 10749 0bcb 0400     		.2byte	0x4
 10750 0bcd F3       		.byte	0xf3
 10751 0bce 01       		.uleb128 0x1
ARM GAS  /tmp/ccT6pRdh.s 			page 190


 10752 0bcf 51       		.byte	0x51
 10753 0bd0 9F       		.byte	0x9f
 10754 0bd1 00000000 		.4byte	0
 10755 0bd5 00000000 		.4byte	0
 10756              	.LLST53:
 10757 0bd9 00000000 		.4byte	.LVL187
 10758 0bdd 08000000 		.4byte	.LVL188
 10759 0be1 0100     		.2byte	0x1
 10760 0be3 52       		.byte	0x52
 10761 0be4 08000000 		.4byte	.LVL188
 10762 0be8 50000000 		.4byte	.LVL194
 10763 0bec 0400     		.2byte	0x4
 10764 0bee F3       		.byte	0xf3
 10765 0bef 01       		.uleb128 0x1
 10766 0bf0 52       		.byte	0x52
 10767 0bf1 9F       		.byte	0x9f
 10768 0bf2 50000000 		.4byte	.LVL194
 10769 0bf6 53000000 		.4byte	.LVL195-1
 10770 0bfa 0100     		.2byte	0x1
 10771 0bfc 52       		.byte	0x52
 10772 0bfd 53000000 		.4byte	.LVL195-1
 10773 0c01 56000000 		.4byte	.LFE11
 10774 0c05 0400     		.2byte	0x4
 10775 0c07 F3       		.byte	0xf3
 10776 0c08 01       		.uleb128 0x1
 10777 0c09 52       		.byte	0x52
 10778 0c0a 9F       		.byte	0x9f
 10779 0c0b 00000000 		.4byte	0
 10780 0c0f 00000000 		.4byte	0
 10781              	.LLST55:
 10782 0c13 28000000 		.4byte	.LVL189
 10783 0c17 3C000000 		.4byte	.LVL190
 10784 0c1b 0400     		.2byte	0x4
 10785 0c1d F3       		.byte	0xf3
 10786 0c1e 01       		.uleb128 0x1
 10787 0c1f 51       		.byte	0x51
 10788 0c20 9F       		.byte	0x9f
 10789 0c21 00000000 		.4byte	0
 10790 0c25 00000000 		.4byte	0
 10791              	.LLST56:
 10792 0c29 28000000 		.4byte	.LVL189
 10793 0c2d 3C000000 		.4byte	.LVL190
 10794 0c31 0100     		.2byte	0x1
 10795 0c33 55       		.byte	0x55
 10796 0c34 00000000 		.4byte	0
 10797 0c38 00000000 		.4byte	0
 10798              	.LLST57:
 10799 0c3c 28000000 		.4byte	.LVL189
 10800 0c40 3C000000 		.4byte	.LVL190
 10801 0c44 0100     		.2byte	0x1
 10802 0c46 54       		.byte	0x54
 10803 0c47 00000000 		.4byte	0
 10804 0c4b 00000000 		.4byte	0
 10805              	.LLST58:
 10806 0c4f 00000000 		.4byte	.LVL196
 10807 0c53 0E000000 		.4byte	.LVL197
 10808 0c57 0100     		.2byte	0x1
ARM GAS  /tmp/ccT6pRdh.s 			page 191


 10809 0c59 50       		.byte	0x50
 10810 0c5a 0E000000 		.4byte	.LVL197
 10811 0c5e 16000000 		.4byte	.LVL198
 10812 0c62 0100     		.2byte	0x1
 10813 0c64 55       		.byte	0x55
 10814 0c65 16000000 		.4byte	.LVL198
 10815 0c69 1A000000 		.4byte	.LVL199
 10816 0c6d 0400     		.2byte	0x4
 10817 0c6f F3       		.byte	0xf3
 10818 0c70 01       		.uleb128 0x1
 10819 0c71 50       		.byte	0x50
 10820 0c72 9F       		.byte	0x9f
 10821 0c73 1A000000 		.4byte	.LVL199
 10822 0c77 35000000 		.4byte	.LVL200-1
 10823 0c7b 0100     		.2byte	0x1
 10824 0c7d 50       		.byte	0x50
 10825 0c7e 35000000 		.4byte	.LVL200-1
 10826 0c82 48000000 		.4byte	.LVL202
 10827 0c86 0100     		.2byte	0x1
 10828 0c88 55       		.byte	0x55
 10829 0c89 48000000 		.4byte	.LVL202
 10830 0c8d 4A000000 		.4byte	.LVL203
 10831 0c91 0100     		.2byte	0x1
 10832 0c93 50       		.byte	0x50
 10833 0c94 4A000000 		.4byte	.LVL203
 10834 0c98 68000000 		.4byte	.LVL206
 10835 0c9c 0100     		.2byte	0x1
 10836 0c9e 55       		.byte	0x55
 10837 0c9f 68000000 		.4byte	.LVL206
 10838 0ca3 6B000000 		.4byte	.LVL207-1
 10839 0ca7 0100     		.2byte	0x1
 10840 0ca9 50       		.byte	0x50
 10841 0caa 6B000000 		.4byte	.LVL207-1
 10842 0cae 9C000000 		.4byte	.LFE16
 10843 0cb2 0100     		.2byte	0x1
 10844 0cb4 55       		.byte	0x55
 10845 0cb5 00000000 		.4byte	0
 10846 0cb9 00000000 		.4byte	0
 10847              	.LLST59:
 10848 0cbd 1A000000 		.4byte	.LVL199
 10849 0cc1 35000000 		.4byte	.LVL200-1
 10850 0cc5 0100     		.2byte	0x1
 10851 0cc7 50       		.byte	0x50
 10852 0cc8 35000000 		.4byte	.LVL200-1
 10853 0ccc 48000000 		.4byte	.LVL202
 10854 0cd0 0100     		.2byte	0x1
 10855 0cd2 55       		.byte	0x55
 10856 0cd3 48000000 		.4byte	.LVL202
 10857 0cd7 4A000000 		.4byte	.LVL203
 10858 0cdb 0100     		.2byte	0x1
 10859 0cdd 50       		.byte	0x50
 10860 0cde 4A000000 		.4byte	.LVL203
 10861 0ce2 68000000 		.4byte	.LVL206
 10862 0ce6 0100     		.2byte	0x1
 10863 0ce8 55       		.byte	0x55
 10864 0ce9 68000000 		.4byte	.LVL206
 10865 0ced 6B000000 		.4byte	.LVL207-1
ARM GAS  /tmp/ccT6pRdh.s 			page 192


 10866 0cf1 0100     		.2byte	0x1
 10867 0cf3 50       		.byte	0x50
 10868 0cf4 6B000000 		.4byte	.LVL207-1
 10869 0cf8 9C000000 		.4byte	.LFE16
 10870 0cfc 0100     		.2byte	0x1
 10871 0cfe 55       		.byte	0x55
 10872 0cff 00000000 		.4byte	0
 10873 0d03 00000000 		.4byte	0
 10874              	.LLST60:
 10875 0d07 00000000 		.4byte	.LVL209
 10876 0d0b 06000000 		.4byte	.LVL210
 10877 0d0f 0100     		.2byte	0x1
 10878 0d11 50       		.byte	0x50
 10879 0d12 06000000 		.4byte	.LVL210
 10880 0d16 84000000 		.4byte	.LFE17
 10881 0d1a 0400     		.2byte	0x4
 10882 0d1c F3       		.byte	0xf3
 10883 0d1d 01       		.uleb128 0x1
 10884 0d1e 50       		.byte	0x50
 10885 0d1f 9F       		.byte	0x9f
 10886 0d20 00000000 		.4byte	0
 10887 0d24 00000000 		.4byte	0
 10888              	.LLST61:
 10889 0d28 00000000 		.4byte	.LVL209
 10890 0d2c 0B000000 		.4byte	.LVL211-1
 10891 0d30 0100     		.2byte	0x1
 10892 0d32 51       		.byte	0x51
 10893 0d33 0B000000 		.4byte	.LVL211-1
 10894 0d37 84000000 		.4byte	.LFE17
 10895 0d3b 0100     		.2byte	0x1
 10896 0d3d 56       		.byte	0x56
 10897 0d3e 00000000 		.4byte	0
 10898 0d42 00000000 		.4byte	0
 10899              	.LLST62:
 10900 0d46 0C000000 		.4byte	.LVL211
 10901 0d4a 2D000000 		.4byte	.LVL212-1
 10902 0d4e 0100     		.2byte	0x1
 10903 0d50 50       		.byte	0x50
 10904 0d51 2D000000 		.4byte	.LVL212-1
 10905 0d55 3A000000 		.4byte	.LVL214
 10906 0d59 0100     		.2byte	0x1
 10907 0d5b 54       		.byte	0x54
 10908 0d5c 3A000000 		.4byte	.LVL214
 10909 0d60 42000000 		.4byte	.LVL216
 10910 0d64 0100     		.2byte	0x1
 10911 0d66 50       		.byte	0x50
 10912 0d67 42000000 		.4byte	.LVL216
 10913 0d6b 76000000 		.4byte	.LVL221
 10914 0d6f 0100     		.2byte	0x1
 10915 0d71 54       		.byte	0x54
 10916 0d72 76000000 		.4byte	.LVL221
 10917 0d76 7A000000 		.4byte	.LVL222
 10918 0d7a 0100     		.2byte	0x1
 10919 0d7c 50       		.byte	0x50
 10920 0d7d 7A000000 		.4byte	.LVL222
 10921 0d81 82000000 		.4byte	.LVL224
 10922 0d85 0100     		.2byte	0x1
ARM GAS  /tmp/ccT6pRdh.s 			page 193


 10923 0d87 54       		.byte	0x54
 10924 0d88 82000000 		.4byte	.LVL224
 10925 0d8c 84000000 		.4byte	.LFE17
 10926 0d90 0100     		.2byte	0x1
 10927 0d92 50       		.byte	0x50
 10928 0d93 00000000 		.4byte	0
 10929 0d97 00000000 		.4byte	0
 10930              	.LLST63:
 10931 0d9b 3C000000 		.4byte	.LVL215
 10932 0d9f 58000000 		.4byte	.LVL219
 10933 0da3 0100     		.2byte	0x1
 10934 0da5 55       		.byte	0x55
 10935 0da6 00000000 		.4byte	0
 10936 0daa 00000000 		.4byte	0
 10937              	.LLST64:
 10938 0dae 00000000 		.4byte	.LVL225
 10939 0db2 0B000000 		.4byte	.LVL226-1
 10940 0db6 0100     		.2byte	0x1
 10941 0db8 50       		.byte	0x50
 10942 0db9 0B000000 		.4byte	.LVL226-1
 10943 0dbd 3C000000 		.4byte	.LVL232
 10944 0dc1 0100     		.2byte	0x1
 10945 0dc3 54       		.byte	0x54
 10946 0dc4 3C000000 		.4byte	.LVL232
 10947 0dc8 3F000000 		.4byte	.LVL233-1
 10948 0dcc 0100     		.2byte	0x1
 10949 0dce 51       		.byte	0x51
 10950 0dcf 3F000000 		.4byte	.LVL233-1
 10951 0dd3 40000000 		.4byte	.LVL233
 10952 0dd7 0400     		.2byte	0x4
 10953 0dd9 F3       		.byte	0xf3
 10954 0dda 01       		.uleb128 0x1
 10955 0ddb 50       		.byte	0x50
 10956 0ddc 9F       		.byte	0x9f
 10957 0ddd 40000000 		.4byte	.LVL233
 10958 0de1 46000000 		.4byte	.LFE18
 10959 0de5 0100     		.2byte	0x1
 10960 0de7 54       		.byte	0x54
 10961 0de8 00000000 		.4byte	0
 10962 0dec 00000000 		.4byte	0
 10963              	.LLST65:
 10964 0df0 00000000 		.4byte	.LVL235
 10965 0df4 0E000000 		.4byte	.LVL236
 10966 0df8 0100     		.2byte	0x1
 10967 0dfa 50       		.byte	0x50
 10968 0dfb 0E000000 		.4byte	.LVL236
 10969 0dff B4000000 		.4byte	.LFE19
 10970 0e03 0100     		.2byte	0x1
 10971 0e05 55       		.byte	0x55
 10972 0e06 00000000 		.4byte	0
 10973 0e0a 00000000 		.4byte	0
 10974              	.LLST66:
 10975 0e0e 8E000000 		.4byte	.LVL250
 10976 0e12 A6000000 		.4byte	.LVL253
 10977 0e16 0100     		.2byte	0x1
 10978 0e18 57       		.byte	0x57
 10979 0e19 00000000 		.4byte	0
ARM GAS  /tmp/ccT6pRdh.s 			page 194


 10980 0e1d 00000000 		.4byte	0
 10981              	.LLST67:
 10982 0e21 30000000 		.4byte	.LVL239
 10983 0e25 56000000 		.4byte	.LVL243
 10984 0e29 0100     		.2byte	0x1
 10985 0e2b 54       		.byte	0x54
 10986 0e2c 00000000 		.4byte	0
 10987 0e30 00000000 		.4byte	0
 10988              	.LLST68:
 10989 0e34 00000000 		.4byte	.LVL256
 10990 0e38 0C000000 		.4byte	.LVL258
 10991 0e3c 0100     		.2byte	0x1
 10992 0e3e 50       		.byte	0x50
 10993 0e3f 0C000000 		.4byte	.LVL258
 10994 0e43 48000000 		.4byte	.LVL264
 10995 0e47 0100     		.2byte	0x1
 10996 0e49 54       		.byte	0x54
 10997 0e4a 48000000 		.4byte	.LVL264
 10998 0e4e 4E000000 		.4byte	.LVL265
 10999 0e52 0400     		.2byte	0x4
 11000 0e54 F3       		.byte	0xf3
 11001 0e55 01       		.uleb128 0x1
 11002 0e56 50       		.byte	0x50
 11003 0e57 9F       		.byte	0x9f
 11004 0e58 4E000000 		.4byte	.LVL265
 11005 0e5c 58000000 		.4byte	.LVL268
 11006 0e60 0100     		.2byte	0x1
 11007 0e62 54       		.byte	0x54
 11008 0e63 58000000 		.4byte	.LVL268
 11009 0e67 A0000000 		.4byte	.LFE14
 11010 0e6b 0400     		.2byte	0x4
 11011 0e6d F3       		.byte	0xf3
 11012 0e6e 01       		.uleb128 0x1
 11013 0e6f 50       		.byte	0x50
 11014 0e70 9F       		.byte	0x9f
 11015 0e71 00000000 		.4byte	0
 11016 0e75 00000000 		.4byte	0
 11017              	.LLST69:
 11018 0e79 00000000 		.4byte	.LVL256
 11019 0e7d 13000000 		.4byte	.LVL259-1
 11020 0e81 0100     		.2byte	0x1
 11021 0e83 51       		.byte	0x51
 11022 0e84 13000000 		.4byte	.LVL259-1
 11023 0e88 A0000000 		.4byte	.LFE14
 11024 0e8c 0100     		.2byte	0x1
 11025 0e8e 58       		.byte	0x58
 11026 0e8f 00000000 		.4byte	0
 11027 0e93 00000000 		.4byte	0
 11028              	.LLST70:
 11029 0e97 00000000 		.4byte	.LVL256
 11030 0e9b 13000000 		.4byte	.LVL259-1
 11031 0e9f 0100     		.2byte	0x1
 11032 0ea1 52       		.byte	0x52
 11033 0ea2 13000000 		.4byte	.LVL259-1
 11034 0ea6 A0000000 		.4byte	.LFE14
 11035 0eaa 0400     		.2byte	0x4
 11036 0eac F3       		.byte	0xf3
ARM GAS  /tmp/ccT6pRdh.s 			page 195


 11037 0ead 01       		.uleb128 0x1
 11038 0eae 52       		.byte	0x52
 11039 0eaf 9F       		.byte	0x9f
 11040 0eb0 00000000 		.4byte	0
 11041 0eb4 00000000 		.4byte	0
 11042              	.LLST71:
 11043 0eb8 1E000000 		.4byte	.LVL260
 11044 0ebc 29000000 		.4byte	.LVL261-1
 11045 0ec0 0100     		.2byte	0x1
 11046 0ec2 50       		.byte	0x50
 11047 0ec3 29000000 		.4byte	.LVL261-1
 11048 0ec7 48000000 		.4byte	.LVL264
 11049 0ecb 0100     		.2byte	0x1
 11050 0ecd 56       		.byte	0x56
 11051 0ece 52000000 		.4byte	.LVL266
 11052 0ed2 54000000 		.4byte	.LVL267
 11053 0ed6 0100     		.2byte	0x1
 11054 0ed8 50       		.byte	0x50
 11055 0ed9 54000000 		.4byte	.LVL267
 11056 0edd A0000000 		.4byte	.LFE14
 11057 0ee1 0100     		.2byte	0x1
 11058 0ee3 56       		.byte	0x56
 11059 0ee4 00000000 		.4byte	0
 11060 0ee8 00000000 		.4byte	0
 11061              	.LLST72:
 11062 0eec 0A000000 		.4byte	.LVL257
 11063 0ef0 0C000000 		.4byte	.LVL258
 11064 0ef4 0100     		.2byte	0x1
 11065 0ef6 50       		.byte	0x50
 11066 0ef7 0C000000 		.4byte	.LVL258
 11067 0efb 48000000 		.4byte	.LVL264
 11068 0eff 0100     		.2byte	0x1
 11069 0f01 54       		.byte	0x54
 11070 0f02 48000000 		.4byte	.LVL264
 11071 0f06 4E000000 		.4byte	.LVL265
 11072 0f0a 0400     		.2byte	0x4
 11073 0f0c F3       		.byte	0xf3
 11074 0f0d 01       		.uleb128 0x1
 11075 0f0e 50       		.byte	0x50
 11076 0f0f 9F       		.byte	0x9f
 11077 0f10 4E000000 		.4byte	.LVL265
 11078 0f14 58000000 		.4byte	.LVL268
 11079 0f18 0100     		.2byte	0x1
 11080 0f1a 54       		.byte	0x54
 11081 0f1b 58000000 		.4byte	.LVL268
 11082 0f1f A0000000 		.4byte	.LFE14
 11083 0f23 0400     		.2byte	0x4
 11084 0f25 F3       		.byte	0xf3
 11085 0f26 01       		.uleb128 0x1
 11086 0f27 50       		.byte	0x50
 11087 0f28 9F       		.byte	0x9f
 11088 0f29 00000000 		.4byte	0
 11089 0f2d 00000000 		.4byte	0
 11090              	.LLST73:
 11091 0f31 58000000 		.4byte	.LVL268
 11092 0f35 86000000 		.4byte	.LVL274
 11093 0f39 0100     		.2byte	0x1
ARM GAS  /tmp/ccT6pRdh.s 			page 196


 11094 0f3b 54       		.byte	0x54
 11095 0f3c 00000000 		.4byte	0
 11096 0f40 00000000 		.4byte	0
 11097              	.LLST74:
 11098 0f44 00000000 		.4byte	.LVL278
 11099 0f48 1B000000 		.4byte	.LVL279-1
 11100 0f4c 0100     		.2byte	0x1
 11101 0f4e 50       		.byte	0x50
 11102 0f4f 1B000000 		.4byte	.LVL279-1
 11103 0f53 30000000 		.4byte	.LVL281
 11104 0f57 0100     		.2byte	0x1
 11105 0f59 54       		.byte	0x54
 11106 0f5a 30000000 		.4byte	.LVL281
 11107 0f5e 39000000 		.4byte	.LVL282-1
 11108 0f62 0100     		.2byte	0x1
 11109 0f64 50       		.byte	0x50
 11110 0f65 39000000 		.4byte	.LVL282-1
 11111 0f69 92000000 		.4byte	.LVL287
 11112 0f6d 0100     		.2byte	0x1
 11113 0f6f 54       		.byte	0x54
 11114 0f70 92000000 		.4byte	.LVL287
 11115 0f74 98000000 		.4byte	.LVL288
 11116 0f78 0400     		.2byte	0x4
 11117 0f7a F3       		.byte	0xf3
 11118 0f7b 01       		.uleb128 0x1
 11119 0f7c 50       		.byte	0x50
 11120 0f7d 9F       		.byte	0x9f
 11121 0f7e 98000000 		.4byte	.LVL288
 11122 0f82 C6000000 		.4byte	.LVL291
 11123 0f86 0100     		.2byte	0x1
 11124 0f88 54       		.byte	0x54
 11125 0f89 C6000000 		.4byte	.LVL291
 11126 0f8d C9000000 		.4byte	.LVL292-1
 11127 0f91 0200     		.2byte	0x2
 11128 0f93 70       		.byte	0x70
 11129 0f94 24       		.sleb128 36
 11130 0f95 C9000000 		.4byte	.LVL292-1
 11131 0f99 CA000000 		.4byte	.LVL292
 11132 0f9d 0400     		.2byte	0x4
 11133 0f9f F3       		.byte	0xf3
 11134 0fa0 01       		.uleb128 0x1
 11135 0fa1 50       		.byte	0x50
 11136 0fa2 9F       		.byte	0x9f
 11137 0fa3 CA000000 		.4byte	.LVL292
 11138 0fa7 E0000000 		.4byte	.LFE21
 11139 0fab 0100     		.2byte	0x1
 11140 0fad 54       		.byte	0x54
 11141 0fae 00000000 		.4byte	0
 11142 0fb2 00000000 		.4byte	0
 11143              	.LLST75:
 11144 0fb6 00000000 		.4byte	.LVL294
 11145 0fba 18000000 		.4byte	.LVL295
 11146 0fbe 0100     		.2byte	0x1
 11147 0fc0 50       		.byte	0x50
 11148 0fc1 18000000 		.4byte	.LVL295
 11149 0fc5 34000000 		.4byte	.LVL296
 11150 0fc9 0100     		.2byte	0x1
ARM GAS  /tmp/ccT6pRdh.s 			page 197


 11151 0fcb 54       		.byte	0x54
 11152 0fcc 34000000 		.4byte	.LVL296
 11153 0fd0 38000000 		.4byte	.LVL297
 11154 0fd4 0400     		.2byte	0x4
 11155 0fd6 F3       		.byte	0xf3
 11156 0fd7 01       		.uleb128 0x1
 11157 0fd8 50       		.byte	0x50
 11158 0fd9 9F       		.byte	0x9f
 11159 0fda 38000000 		.4byte	.LVL297
 11160 0fde 48000000 		.4byte	.LVL299
 11161 0fe2 0100     		.2byte	0x1
 11162 0fe4 54       		.byte	0x54
 11163 0fe5 48000000 		.4byte	.LVL299
 11164 0fe9 50000000 		.4byte	.LVL300
 11165 0fed 0400     		.2byte	0x4
 11166 0fef F3       		.byte	0xf3
 11167 0ff0 01       		.uleb128 0x1
 11168 0ff1 50       		.byte	0x50
 11169 0ff2 9F       		.byte	0x9f
 11170 0ff3 50000000 		.4byte	.LVL300
 11171 0ff7 60000000 		.4byte	.LVL302
 11172 0ffb 0100     		.2byte	0x1
 11173 0ffd 54       		.byte	0x54
 11174 0ffe 60000000 		.4byte	.LVL302
 11175 1002 68000000 		.4byte	.LVL303
 11176 1006 0400     		.2byte	0x4
 11177 1008 F3       		.byte	0xf3
 11178 1009 01       		.uleb128 0x1
 11179 100a 50       		.byte	0x50
 11180 100b 9F       		.byte	0x9f
 11181 100c 68000000 		.4byte	.LVL303
 11182 1010 76000000 		.4byte	.LVL305
 11183 1014 0100     		.2byte	0x1
 11184 1016 54       		.byte	0x54
 11185 1017 76000000 		.4byte	.LVL305
 11186 101b 7E000000 		.4byte	.LFE22
 11187 101f 0400     		.2byte	0x4
 11188 1021 F3       		.byte	0xf3
 11189 1022 01       		.uleb128 0x1
 11190 1023 50       		.byte	0x50
 11191 1024 9F       		.byte	0x9f
 11192 1025 00000000 		.4byte	0
 11193 1029 00000000 		.4byte	0
 11194              	.LLST76:
 11195 102d 00000000 		.4byte	.LVL307
 11196 1031 08000000 		.4byte	.LVL308
 11197 1035 0100     		.2byte	0x1
 11198 1037 50       		.byte	0x50
 11199 1038 08000000 		.4byte	.LVL308
 11200 103c 30000000 		.4byte	.LVL310
 11201 1040 0100     		.2byte	0x1
 11202 1042 54       		.byte	0x54
 11203 1043 30000000 		.4byte	.LVL310
 11204 1047 34000000 		.4byte	.LVL311
 11205 104b 0400     		.2byte	0x4
 11206 104d F3       		.byte	0xf3
 11207 104e 01       		.uleb128 0x1
ARM GAS  /tmp/ccT6pRdh.s 			page 198


 11208 104f 50       		.byte	0x50
 11209 1050 9F       		.byte	0x9f
 11210 1051 34000000 		.4byte	.LVL311
 11211 1055 42000000 		.4byte	.LVL313
 11212 1059 0100     		.2byte	0x1
 11213 105b 54       		.byte	0x54
 11214 105c 42000000 		.4byte	.LVL313
 11215 1060 4A000000 		.4byte	.LVL314
 11216 1064 0400     		.2byte	0x4
 11217 1066 F3       		.byte	0xf3
 11218 1067 01       		.uleb128 0x1
 11219 1068 50       		.byte	0x50
 11220 1069 9F       		.byte	0x9f
 11221 106a 4A000000 		.4byte	.LVL314
 11222 106e 5A000000 		.4byte	.LVL315
 11223 1072 0100     		.2byte	0x1
 11224 1074 54       		.byte	0x54
 11225 1075 5A000000 		.4byte	.LVL315
 11226 1079 5E000000 		.4byte	.LVL316
 11227 107d 0400     		.2byte	0x4
 11228 107f F3       		.byte	0xf3
 11229 1080 01       		.uleb128 0x1
 11230 1081 50       		.byte	0x50
 11231 1082 9F       		.byte	0x9f
 11232 1083 5E000000 		.4byte	.LVL316
 11233 1087 6E000000 		.4byte	.LVL318
 11234 108b 0100     		.2byte	0x1
 11235 108d 54       		.byte	0x54
 11236 108e 6E000000 		.4byte	.LVL318
 11237 1092 76000000 		.4byte	.LVL319
 11238 1096 0400     		.2byte	0x4
 11239 1098 F3       		.byte	0xf3
 11240 1099 01       		.uleb128 0x1
 11241 109a 50       		.byte	0x50
 11242 109b 9F       		.byte	0x9f
 11243 109c 76000000 		.4byte	.LVL319
 11244 10a0 BC000000 		.4byte	.LVL325
 11245 10a4 0100     		.2byte	0x1
 11246 10a6 54       		.byte	0x54
 11247 10a7 BC000000 		.4byte	.LVL325
 11248 10ab C0000000 		.4byte	.LVL326
 11249 10af 0400     		.2byte	0x4
 11250 10b1 F3       		.byte	0xf3
 11251 10b2 01       		.uleb128 0x1
 11252 10b3 50       		.byte	0x50
 11253 10b4 9F       		.byte	0x9f
 11254 10b5 C0000000 		.4byte	.LVL326
 11255 10b9 CC000000 		.4byte	.LFE24
 11256 10bd 0100     		.2byte	0x1
 11257 10bf 54       		.byte	0x54
 11258 10c0 00000000 		.4byte	0
 11259 10c4 00000000 		.4byte	0
 11260              	.LLST77:
 11261 10c8 9A000000 		.4byte	.LVL322
 11262 10cc A6000000 		.4byte	.LVL323
 11263 10d0 0900     		.2byte	0x9
 11264 10d2 72       		.byte	0x72
ARM GAS  /tmp/ccT6pRdh.s 			page 199


 11265 10d3 00       		.sleb128 0
 11266 10d4 32       		.byte	0x32
 11267 10d5 1A       		.byte	0x1a
 11268 10d6 48       		.byte	0x48
 11269 10d7 24       		.byte	0x24
 11270 10d8 30       		.byte	0x30
 11271 10d9 2E       		.byte	0x2e
 11272 10da 9F       		.byte	0x9f
 11273 10db A6000000 		.4byte	.LVL323
 11274 10df A8000000 		.4byte	.LVL324
 11275 10e3 0B00     		.2byte	0xb
 11276 10e5 73       		.byte	0x73
 11277 10e6 1C       		.sleb128 28
 11278 10e7 94       		.byte	0x94
 11279 10e8 01       		.byte	0x1
 11280 10e9 32       		.byte	0x32
 11281 10ea 1A       		.byte	0x1a
 11282 10eb 48       		.byte	0x48
 11283 10ec 24       		.byte	0x24
 11284 10ed 30       		.byte	0x30
 11285 10ee 2E       		.byte	0x2e
 11286 10ef 9F       		.byte	0x9f
 11287 10f0 C0000000 		.4byte	.LVL326
 11288 10f4 C4000000 		.4byte	.LVL327
 11289 10f8 0900     		.2byte	0x9
 11290 10fa 72       		.byte	0x72
 11291 10fb 00       		.sleb128 0
 11292 10fc 32       		.byte	0x32
 11293 10fd 1A       		.byte	0x1a
 11294 10fe 48       		.byte	0x48
 11295 10ff 24       		.byte	0x24
 11296 1100 30       		.byte	0x30
 11297 1101 2E       		.byte	0x2e
 11298 1102 9F       		.byte	0x9f
 11299 1103 C4000000 		.4byte	.LVL327
 11300 1107 C6000000 		.4byte	.LVL328
 11301 110b 0B00     		.2byte	0xb
 11302 110d 73       		.byte	0x73
 11303 110e 1C       		.sleb128 28
 11304 110f 94       		.byte	0x94
 11305 1110 01       		.byte	0x1
 11306 1111 32       		.byte	0x32
 11307 1112 1A       		.byte	0x1a
 11308 1113 48       		.byte	0x48
 11309 1114 24       		.byte	0x24
 11310 1115 30       		.byte	0x30
 11311 1116 2E       		.byte	0x2e
 11312 1117 9F       		.byte	0x9f
 11313 1118 00000000 		.4byte	0
 11314 111c 00000000 		.4byte	0
 11315              	.LLST78:
 11316 1120 00000000 		.4byte	.LVL329
 11317 1124 06000000 		.4byte	.LVL330
 11318 1128 0100     		.2byte	0x1
 11319 112a 50       		.byte	0x50
 11320 112b 06000000 		.4byte	.LVL330
 11321 112f 1C000000 		.4byte	.LVL331
ARM GAS  /tmp/ccT6pRdh.s 			page 200


 11322 1133 0100     		.2byte	0x1
 11323 1135 54       		.byte	0x54
 11324 1136 1C000000 		.4byte	.LVL331
 11325 113a 20000000 		.4byte	.LVL332
 11326 113e 0400     		.2byte	0x4
 11327 1140 F3       		.byte	0xf3
 11328 1141 01       		.uleb128 0x1
 11329 1142 50       		.byte	0x50
 11330 1143 9F       		.byte	0x9f
 11331 1144 20000000 		.4byte	.LVL332
 11332 1148 2E000000 		.4byte	.LFE25
 11333 114c 0100     		.2byte	0x1
 11334 114e 54       		.byte	0x54
 11335 114f 00000000 		.4byte	0
 11336 1153 00000000 		.4byte	0
 11337              	.LLST79:
 11338 1157 00000000 		.4byte	.LVL334
 11339 115b 14000000 		.4byte	.LVL335
 11340 115f 0100     		.2byte	0x1
 11341 1161 50       		.byte	0x50
 11342 1162 14000000 		.4byte	.LVL335
 11343 1166 2A000000 		.4byte	.LVL336
 11344 116a 0100     		.2byte	0x1
 11345 116c 54       		.byte	0x54
 11346 116d 2A000000 		.4byte	.LVL336
 11347 1171 2E000000 		.4byte	.LVL337
 11348 1175 0400     		.2byte	0x4
 11349 1177 F3       		.byte	0xf3
 11350 1178 01       		.uleb128 0x1
 11351 1179 50       		.byte	0x50
 11352 117a 9F       		.byte	0x9f
 11353 117b 2E000000 		.4byte	.LVL337
 11354 117f B6000000 		.4byte	.LFE26
 11355 1183 0100     		.2byte	0x1
 11356 1185 54       		.byte	0x54
 11357 1186 00000000 		.4byte	0
 11358 118a 00000000 		.4byte	0
 11359              	.LLST80:
 11360 118e 3A000000 		.4byte	.LVL338
 11361 1192 40000000 		.4byte	.LVL339
 11362 1196 0100     		.2byte	0x1
 11363 1198 50       		.byte	0x50
 11364 1199 40000000 		.4byte	.LVL339
 11365 119d 7E000000 		.4byte	.LVL344
 11366 11a1 0100     		.2byte	0x1
 11367 11a3 55       		.byte	0x55
 11368 11a4 7E000000 		.4byte	.LVL344
 11369 11a8 86000000 		.4byte	.LVL345
 11370 11ac 0100     		.2byte	0x1
 11371 11ae 50       		.byte	0x50
 11372 11af 86000000 		.4byte	.LVL345
 11373 11b3 B6000000 		.4byte	.LFE26
 11374 11b7 0100     		.2byte	0x1
 11375 11b9 55       		.byte	0x55
 11376 11ba 00000000 		.4byte	0
 11377 11be 00000000 		.4byte	0
 11378              	.LLST81:
ARM GAS  /tmp/ccT6pRdh.s 			page 201


 11379 11c2 00000000 		.4byte	.LVL350
 11380 11c6 18000000 		.4byte	.LVL351
 11381 11ca 0100     		.2byte	0x1
 11382 11cc 50       		.byte	0x50
 11383 11cd 18000000 		.4byte	.LVL351
 11384 11d1 46000000 		.4byte	.LVL353
 11385 11d5 0100     		.2byte	0x1
 11386 11d7 54       		.byte	0x54
 11387 11d8 46000000 		.4byte	.LVL353
 11388 11dc 4A000000 		.4byte	.LVL354
 11389 11e0 0400     		.2byte	0x4
 11390 11e2 F3       		.byte	0xf3
 11391 11e3 01       		.uleb128 0x1
 11392 11e4 50       		.byte	0x50
 11393 11e5 9F       		.byte	0x9f
 11394 11e6 4A000000 		.4byte	.LVL354
 11395 11ea 64000000 		.4byte	.LVL356
 11396 11ee 0100     		.2byte	0x1
 11397 11f0 54       		.byte	0x54
 11398 11f1 64000000 		.4byte	.LVL356
 11399 11f5 6C000000 		.4byte	.LVL357
 11400 11f9 0400     		.2byte	0x4
 11401 11fb F3       		.byte	0xf3
 11402 11fc 01       		.uleb128 0x1
 11403 11fd 50       		.byte	0x50
 11404 11fe 9F       		.byte	0x9f
 11405 11ff 6C000000 		.4byte	.LVL357
 11406 1203 86000000 		.4byte	.LFE27
 11407 1207 0100     		.2byte	0x1
 11408 1209 54       		.byte	0x54
 11409 120a 00000000 		.4byte	0
 11410 120e 00000000 		.4byte	0
 11411              	.LLST82:
 11412 1212 00000000 		.4byte	.LVL360
 11413 1216 0C000000 		.4byte	.LVL361
 11414 121a 0100     		.2byte	0x1
 11415 121c 50       		.byte	0x50
 11416 121d 0C000000 		.4byte	.LVL361
 11417 1221 1C000000 		.4byte	.LVL362
 11418 1225 0100     		.2byte	0x1
 11419 1227 56       		.byte	0x56
 11420 1228 1C000000 		.4byte	.LVL362
 11421 122c 20000000 		.4byte	.LVL363
 11422 1230 0400     		.2byte	0x4
 11423 1232 F3       		.byte	0xf3
 11424 1233 01       		.uleb128 0x1
 11425 1234 50       		.byte	0x50
 11426 1235 9F       		.byte	0x9f
 11427 1236 20000000 		.4byte	.LVL363
 11428 123a 48000000 		.4byte	.LVL369
 11429 123e 0100     		.2byte	0x1
 11430 1240 56       		.byte	0x56
 11431 1241 48000000 		.4byte	.LVL369
 11432 1245 4C000000 		.4byte	.LFE28
 11433 1249 0400     		.2byte	0x4
 11434 124b F3       		.byte	0xf3
 11435 124c 01       		.uleb128 0x1
ARM GAS  /tmp/ccT6pRdh.s 			page 202


 11436 124d 50       		.byte	0x50
 11437 124e 9F       		.byte	0x9f
 11438 124f 00000000 		.4byte	0
 11439 1253 00000000 		.4byte	0
 11440              	.LLST83:
 11441 1257 22000000 		.4byte	.LVL364
 11442 125b 3A000000 		.4byte	.LVL367
 11443 125f 0100     		.2byte	0x1
 11444 1261 54       		.byte	0x54
 11445 1262 3A000000 		.4byte	.LVL367
 11446 1266 3C000000 		.4byte	.LVL368
 11447 126a 0600     		.2byte	0x6
 11448 126c 74       		.byte	0x74
 11449 126d 00       		.sleb128 0
 11450 126e 75       		.byte	0x75
 11451 126f 00       		.sleb128 0
 11452 1270 1C       		.byte	0x1c
 11453 1271 9F       		.byte	0x9f
 11454 1272 3C000000 		.4byte	.LVL368
 11455 1276 48000000 		.4byte	.LVL369
 11456 127a 0100     		.2byte	0x1
 11457 127c 54       		.byte	0x54
 11458 127d 00000000 		.4byte	0
 11459 1281 00000000 		.4byte	0
 11460              	.LLST84:
 11461 1285 36000000 		.4byte	.LVL366
 11462 1289 39000000 		.4byte	.LVL367-1
 11463 128d 0100     		.2byte	0x1
 11464 128f 51       		.byte	0x51
 11465 1290 00000000 		.4byte	0
 11466 1294 00000000 		.4byte	0
 11467              	.LLST85:
 11468 1298 00000000 		.4byte	.LVL371
 11469 129c 1E000000 		.4byte	.LVL372
 11470 12a0 0100     		.2byte	0x1
 11471 12a2 50       		.byte	0x50
 11472 12a3 1E000000 		.4byte	.LVL372
 11473 12a7 28000000 		.4byte	.LVL373
 11474 12ab 0400     		.2byte	0x4
 11475 12ad F3       		.byte	0xf3
 11476 12ae 01       		.uleb128 0x1
 11477 12af 50       		.byte	0x50
 11478 12b0 9F       		.byte	0x9f
 11479 12b1 28000000 		.4byte	.LVL373
 11480 12b5 43000000 		.4byte	.LVL374-1
 11481 12b9 0100     		.2byte	0x1
 11482 12bb 50       		.byte	0x50
 11483 12bc 43000000 		.4byte	.LVL374-1
 11484 12c0 68000000 		.4byte	.LVL377
 11485 12c4 0400     		.2byte	0x4
 11486 12c6 F3       		.byte	0xf3
 11487 12c7 01       		.uleb128 0x1
 11488 12c8 50       		.byte	0x50
 11489 12c9 9F       		.byte	0x9f
 11490 12ca 68000000 		.4byte	.LVL377
 11491 12ce 76000000 		.4byte	.LFE30
 11492 12d2 0100     		.2byte	0x1
ARM GAS  /tmp/ccT6pRdh.s 			page 203


 11493 12d4 50       		.byte	0x50
 11494 12d5 00000000 		.4byte	0
 11495 12d9 00000000 		.4byte	0
 11496              	.LLST86:
 11497 12dd 00000000 		.4byte	.LVL378
 11498 12e1 06000000 		.4byte	.LVL379
 11499 12e5 0100     		.2byte	0x1
 11500 12e7 50       		.byte	0x50
 11501 12e8 06000000 		.4byte	.LVL379
 11502 12ec 36000000 		.4byte	.LVL381
 11503 12f0 0100     		.2byte	0x1
 11504 12f2 54       		.byte	0x54
 11505 12f3 36000000 		.4byte	.LVL381
 11506 12f7 3A000000 		.4byte	.LVL382
 11507 12fb 0400     		.2byte	0x4
 11508 12fd F3       		.byte	0xf3
 11509 12fe 01       		.uleb128 0x1
 11510 12ff 50       		.byte	0x50
 11511 1300 9F       		.byte	0x9f
 11512 1301 3A000000 		.4byte	.LVL382
 11513 1305 4E000000 		.4byte	.LVL383
 11514 1309 0100     		.2byte	0x1
 11515 130b 54       		.byte	0x54
 11516 130c 4E000000 		.4byte	.LVL383
 11517 1310 52000000 		.4byte	.LVL384
 11518 1314 0400     		.2byte	0x4
 11519 1316 F3       		.byte	0xf3
 11520 1317 01       		.uleb128 0x1
 11521 1318 50       		.byte	0x50
 11522 1319 9F       		.byte	0x9f
 11523 131a 52000000 		.4byte	.LVL384
 11524 131e 64000000 		.4byte	.LVL385
 11525 1322 0100     		.2byte	0x1
 11526 1324 54       		.byte	0x54
 11527 1325 64000000 		.4byte	.LVL385
 11528 1329 68000000 		.4byte	.LVL386
 11529 132d 0400     		.2byte	0x4
 11530 132f F3       		.byte	0xf3
 11531 1330 01       		.uleb128 0x1
 11532 1331 50       		.byte	0x50
 11533 1332 9F       		.byte	0x9f
 11534 1333 68000000 		.4byte	.LVL386
 11535 1337 8A000000 		.4byte	.LVL387
 11536 133b 0100     		.2byte	0x1
 11537 133d 54       		.byte	0x54
 11538 133e 8A000000 		.4byte	.LVL387
 11539 1342 8E000000 		.4byte	.LVL388
 11540 1346 0400     		.2byte	0x4
 11541 1348 F3       		.byte	0xf3
 11542 1349 01       		.uleb128 0x1
 11543 134a 50       		.byte	0x50
 11544 134b 9F       		.byte	0x9f
 11545 134c 8E000000 		.4byte	.LVL388
 11546 1350 9E000000 		.4byte	.LFE31
 11547 1354 0100     		.2byte	0x1
 11548 1356 54       		.byte	0x54
 11549 1357 00000000 		.4byte	0
ARM GAS  /tmp/ccT6pRdh.s 			page 204


 11550 135b 00000000 		.4byte	0
 11551              	.LLST87:
 11552 135f 00000000 		.4byte	.LVL389
 11553 1363 06000000 		.4byte	.LVL390
 11554 1367 0100     		.2byte	0x1
 11555 1369 50       		.byte	0x50
 11556 136a 06000000 		.4byte	.LVL390
 11557 136e 24000000 		.4byte	.LVL392
 11558 1372 0100     		.2byte	0x1
 11559 1374 54       		.byte	0x54
 11560 1375 24000000 		.4byte	.LVL392
 11561 1379 28000000 		.4byte	.LVL393
 11562 137d 0400     		.2byte	0x4
 11563 137f F3       		.byte	0xf3
 11564 1380 01       		.uleb128 0x1
 11565 1381 50       		.byte	0x50
 11566 1382 9F       		.byte	0x9f
 11567 1383 28000000 		.4byte	.LVL393
 11568 1387 3C000000 		.4byte	.LVL394
 11569 138b 0100     		.2byte	0x1
 11570 138d 54       		.byte	0x54
 11571 138e 3C000000 		.4byte	.LVL394
 11572 1392 40000000 		.4byte	.LVL395
 11573 1396 0400     		.2byte	0x4
 11574 1398 F3       		.byte	0xf3
 11575 1399 01       		.uleb128 0x1
 11576 139a 50       		.byte	0x50
 11577 139b 9F       		.byte	0x9f
 11578 139c 40000000 		.4byte	.LVL395
 11579 13a0 68000000 		.4byte	.LVL397
 11580 13a4 0100     		.2byte	0x1
 11581 13a6 54       		.byte	0x54
 11582 13a7 68000000 		.4byte	.LVL397
 11583 13ab 6B000000 		.4byte	.LVL398-1
 11584 13af 0200     		.2byte	0x2
 11585 13b1 70       		.byte	0x70
 11586 13b2 24       		.sleb128 36
 11587 13b3 6B000000 		.4byte	.LVL398-1
 11588 13b7 6C000000 		.4byte	.LVL398
 11589 13bb 0400     		.2byte	0x4
 11590 13bd F3       		.byte	0xf3
 11591 13be 01       		.uleb128 0x1
 11592 13bf 50       		.byte	0x50
 11593 13c0 9F       		.byte	0x9f
 11594 13c1 6C000000 		.4byte	.LVL398
 11595 13c5 7C000000 		.4byte	.LFE32
 11596 13c9 0100     		.2byte	0x1
 11597 13cb 54       		.byte	0x54
 11598 13cc 00000000 		.4byte	0
 11599 13d0 00000000 		.4byte	0
 11600              		.section	.debug_aranges,"",%progbits
 11601 0000 DC000000 		.4byte	0xdc
 11602 0004 0200     		.2byte	0x2
 11603 0006 00000000 		.4byte	.Ldebug_info0
 11604 000a 04       		.byte	0x4
 11605 000b 00       		.byte	0
 11606 000c 0000     		.2byte	0
ARM GAS  /tmp/ccT6pRdh.s 			page 205


 11607 000e 0000     		.2byte	0
 11608 0010 00000000 		.4byte	.LFB12
 11609 0014 AE000000 		.4byte	.LFE12-.LFB12
 11610 0018 00000000 		.4byte	.LFB8
 11611 001c 9A000000 		.4byte	.LFE8-.LFB8
 11612 0020 00000000 		.4byte	.LFB7
 11613 0024 8A000000 		.4byte	.LFE7-.LFB7
 11614 0028 00000000 		.4byte	.LFB13
 11615 002c 4A000000 		.4byte	.LFE13-.LFB13
 11616 0030 00000000 		.4byte	.LFB23
 11617 0034 84000000 		.4byte	.LFE23-.LFB23
 11618 0038 00000000 		.4byte	.LFB29
 11619 003c 6C010000 		.4byte	.LFE29-.LFB29
 11620 0040 00000000 		.4byte	.LFB20
 11621 0044 54010000 		.4byte	.LFE20-.LFB20
 11622 0048 00000000 		.4byte	.LFB10
 11623 004c 58000000 		.4byte	.LFE10-.LFB10
 11624 0050 00000000 		.4byte	.LFB9
 11625 0054 90000000 		.4byte	.LFE9-.LFB9
 11626 0058 00000000 		.4byte	.LFB11
 11627 005c 56000000 		.4byte	.LFE11-.LFB11
 11628 0060 00000000 		.4byte	.LFB16
 11629 0064 9C000000 		.4byte	.LFE16-.LFB16
 11630 0068 00000000 		.4byte	.LFB17
 11631 006c 84000000 		.4byte	.LFE17-.LFB17
 11632 0070 00000000 		.4byte	.LFB18
 11633 0074 46000000 		.4byte	.LFE18-.LFB18
 11634 0078 00000000 		.4byte	.LFB19
 11635 007c B4000000 		.4byte	.LFE19-.LFB19
 11636 0080 00000000 		.4byte	.LFB14
 11637 0084 A0000000 		.4byte	.LFE14-.LFB14
 11638 0088 00000000 		.4byte	.LFB21
 11639 008c E0000000 		.4byte	.LFE21-.LFB21
 11640 0090 00000000 		.4byte	.LFB22
 11641 0094 7E000000 		.4byte	.LFE22-.LFB22
 11642 0098 00000000 		.4byte	.LFB24
 11643 009c CC000000 		.4byte	.LFE24-.LFB24
 11644 00a0 00000000 		.4byte	.LFB25
 11645 00a4 2E000000 		.4byte	.LFE25-.LFB25
 11646 00a8 00000000 		.4byte	.LFB26
 11647 00ac B6000000 		.4byte	.LFE26-.LFB26
 11648 00b0 00000000 		.4byte	.LFB27
 11649 00b4 86000000 		.4byte	.LFE27-.LFB27
 11650 00b8 00000000 		.4byte	.LFB28
 11651 00bc 4C000000 		.4byte	.LFE28-.LFB28
 11652 00c0 00000000 		.4byte	.LFB30
 11653 00c4 76000000 		.4byte	.LFE30-.LFB30
 11654 00c8 00000000 		.4byte	.LFB31
 11655 00cc 9E000000 		.4byte	.LFE31-.LFB31
 11656 00d0 00000000 		.4byte	.LFB32
 11657 00d4 7C000000 		.4byte	.LFE32-.LFB32
 11658 00d8 00000000 		.4byte	0
 11659 00dc 00000000 		.4byte	0
 11660              		.section	.debug_ranges,"",%progbits
 11661              	.Ldebug_ranges0:
 11662 0000 68000000 		.4byte	.LBB2
 11663 0004 82000000 		.4byte	.LBE2
ARM GAS  /tmp/ccT6pRdh.s 			page 206


 11664 0008 86000000 		.4byte	.LBB3
 11665 000c 8C000000 		.4byte	.LBE3
 11666 0010 A6000000 		.4byte	.LBB4
 11667 0014 AE000000 		.4byte	.LBE4
 11668 0018 00000000 		.4byte	0
 11669 001c 00000000 		.4byte	0
 11670 0020 36000000 		.4byte	.LBB5
 11671 0024 74000000 		.4byte	.LBE5
 11672 0028 7A000000 		.4byte	.LBB6
 11673 002c 8A000000 		.4byte	.LBE6
 11674 0030 00000000 		.4byte	0
 11675 0034 00000000 		.4byte	0
 11676 0038 24000000 		.4byte	.LBB15
 11677 003c 28000000 		.4byte	.LBE15
 11678 0040 2C000000 		.4byte	.LBB16
 11679 0044 56000000 		.4byte	.LBE16
 11680 0048 00000000 		.4byte	0
 11681 004c 00000000 		.4byte	0
 11682 0050 90000000 		.4byte	.LBB18
 11683 0054 92000000 		.4byte	.LBE18
 11684 0058 98000000 		.4byte	.LBB19
 11685 005c B0000000 		.4byte	.LBE19
 11686 0060 C0000000 		.4byte	.LBB20
 11687 0064 CC000000 		.4byte	.LBE20
 11688 0068 00000000 		.4byte	0
 11689 006c 00000000 		.4byte	0
 11690 0070 00000000 		.4byte	.LFB12
 11691 0074 AE000000 		.4byte	.LFE12
 11692 0078 00000000 		.4byte	.LFB8
 11693 007c 9A000000 		.4byte	.LFE8
 11694 0080 00000000 		.4byte	.LFB7
 11695 0084 8A000000 		.4byte	.LFE7
 11696 0088 00000000 		.4byte	.LFB13
 11697 008c 4A000000 		.4byte	.LFE13
 11698 0090 00000000 		.4byte	.LFB23
 11699 0094 84000000 		.4byte	.LFE23
 11700 0098 00000000 		.4byte	.LFB29
 11701 009c 6C010000 		.4byte	.LFE29
 11702 00a0 00000000 		.4byte	.LFB20
 11703 00a4 54010000 		.4byte	.LFE20
 11704 00a8 00000000 		.4byte	.LFB10
 11705 00ac 58000000 		.4byte	.LFE10
 11706 00b0 00000000 		.4byte	.LFB9
 11707 00b4 90000000 		.4byte	.LFE9
 11708 00b8 00000000 		.4byte	.LFB11
 11709 00bc 56000000 		.4byte	.LFE11
 11710 00c0 00000000 		.4byte	.LFB16
 11711 00c4 9C000000 		.4byte	.LFE16
 11712 00c8 00000000 		.4byte	.LFB17
 11713 00cc 84000000 		.4byte	.LFE17
 11714 00d0 00000000 		.4byte	.LFB18
 11715 00d4 46000000 		.4byte	.LFE18
 11716 00d8 00000000 		.4byte	.LFB19
 11717 00dc B4000000 		.4byte	.LFE19
 11718 00e0 00000000 		.4byte	.LFB14
 11719 00e4 A0000000 		.4byte	.LFE14
 11720 00e8 00000000 		.4byte	.LFB21
ARM GAS  /tmp/ccT6pRdh.s 			page 207


 11721 00ec E0000000 		.4byte	.LFE21
 11722 00f0 00000000 		.4byte	.LFB22
 11723 00f4 7E000000 		.4byte	.LFE22
 11724 00f8 00000000 		.4byte	.LFB24
 11725 00fc CC000000 		.4byte	.LFE24
 11726 0100 00000000 		.4byte	.LFB25
 11727 0104 2E000000 		.4byte	.LFE25
 11728 0108 00000000 		.4byte	.LFB26
 11729 010c B6000000 		.4byte	.LFE26
 11730 0110 00000000 		.4byte	.LFB27
 11731 0114 86000000 		.4byte	.LFE27
 11732 0118 00000000 		.4byte	.LFB28
 11733 011c 4C000000 		.4byte	.LFE28
 11734 0120 00000000 		.4byte	.LFB30
 11735 0124 76000000 		.4byte	.LFE30
 11736 0128 00000000 		.4byte	.LFB31
 11737 012c 9E000000 		.4byte	.LFE31
 11738 0130 00000000 		.4byte	.LFB32
 11739 0134 7C000000 		.4byte	.LFE32
 11740 0138 00000000 		.4byte	0
 11741 013c 00000000 		.4byte	0
 11742              		.section	.debug_line,"",%progbits
 11743              	.Ldebug_line0:
 11744 0000 D5090000 		.section	.debug_str,"MS",%progbits,1
 11744      02004202 
 11744      00000201 
 11744      FB0E0D00 
 11744      01010101 
 11745              	.LASF16:
 11746 0000 696E7438 		.ascii	"int8_t\000"
 11746      5F7400
 11747              	.LASF281:
 11748 0007 70627566 		.ascii	"pbuf_copy\000"
 11748      5F636F70 
 11748      7900
 11749              	.LASF1:
 11750 0011 73697A65 		.ascii	"size_t\000"
 11750      5F7400
 11751              	.LASF57:
 11752 0018 73697A65 		.ascii	"sizetype\000"
 11752      74797065 
 11752      00
 11753              	.LASF271:
 11754 0021 646F5F77 		.ascii	"do_write\000"
 11754      72697465 
 11754      00
 11755              	.LASF30:
 11756 002a 73797374 		.ascii	"systime_t\000"
 11756      696D655F 
 11756      7400
 11757              	.LASF151:
 11758 0034 7263765F 		.ascii	"rcv_ann_wnd\000"
 11758      616E6E5F 
 11758      776E6400 
 11759              	.LASF36:
 11760 0040 705F6374 		.ascii	"p_ctx\000"
 11760      7800
ARM GAS  /tmp/ccT6pRdh.s 			page 208


 11761              	.LASF27:
 11762 0046 74707269 		.ascii	"tprio_t\000"
 11762      6F5F7400 
 11763              	.LASF218:
 11764 004e 4D454D50 		.ascii	"MEMP_TCP_PCB\000"
 11764      5F544350 
 11764      5F504342 
 11764      00
 11765              	.LASF272:
 11766 005b 646F5F67 		.ascii	"do_getaddr\000"
 11766      65746164 
 11766      647200
 11767              	.LASF312:
 11768 0066 7261775F 		.ascii	"raw_bind\000"
 11768      62696E64 
 11768      00
 11769              	.LASF46:
 11770 006f 705F6D73 		.ascii	"p_msgqueue\000"
 11770      67717565 
 11770      756500
 11771              	.LASF190:
 11772 007a 70726F74 		.ascii	"proto\000"
 11772      6F00
 11773              	.LASF20:
 11774 0080 696E7433 		.ascii	"int32_t\000"
 11774      325F7400 
 11775              	.LASF301:
 11776 0088 7379735F 		.ascii	"sys_mbox_set_invalid\000"
 11776      6D626F78 
 11776      5F736574 
 11776      5F696E76 
 11776      616C6964 
 11777              	.LASF150:
 11778 009d 7263765F 		.ascii	"rcv_wnd\000"
 11778      776E6400 
 11779              	.LASF139:
 11780 00a5 736F5F6F 		.ascii	"so_options\000"
 11780      7074696F 
 11780      6E7300
 11781              	.LASF227:
 11782 00b0 4D454D50 		.ascii	"MEMP_SYS_TIMEOUT\000"
 11782      5F535953 
 11782      5F54494D 
 11782      454F5554 
 11782      00
 11783              	.LASF65:
 11784 00c1 6D625F62 		.ascii	"mb_buffer\000"
 11784      75666665 
 11784      7200
 11785              	.LASF205:
 11786 00cb 4C495354 		.ascii	"LISTEN\000"
 11786      454E00
 11787              	.LASF127:
 11788 00d2 73746174 		.ascii	"state\000"
 11788      6500
 11789              	.LASF249:
 11790 00d8 706F6C6C 		.ascii	"poll_tcp\000"
ARM GAS  /tmp/ccT6pRdh.s 			page 209


 11790      5F746370 
 11790      00
 11791              	.LASF250:
 11792 00e1 72656376 		.ascii	"recv_tcp\000"
 11792      5F746370 
 11792      00
 11793              	.LASF314:
 11794 00ea 7564705F 		.ascii	"udp_connect\000"
 11794      636F6E6E 
 11794      65637400 
 11795              	.LASF160:
 11796 00f6 73737468 		.ascii	"ssthresh\000"
 11796      72657368 
 11796      00
 11797              	.LASF102:
 11798 00ff 74797065 		.ascii	"type\000"
 11798      00
 11799              	.LASF287:
 11800 0104 7463705F 		.ascii	"tcp_write\000"
 11800      77726974 
 11800      6500
 11801              	.LASF192:
 11802 010e 6C6F6361 		.ascii	"local\000"
 11802      6C00
 11803              	.LASF95:
 11804 0114 50425546 		.ascii	"PBUF_REF\000"
 11804      5F524546 
 11804      00
 11805              	.LASF328:
 11806 011d 6E657463 		.ascii	"netconn_alloc\000"
 11806      6F6E6E5F 
 11806      616C6C6F 
 11806      6300
 11807              	.LASF261:
 11808 012b 646F5F62 		.ascii	"do_bind\000"
 11808      696E6400 
 11809              	.LASF214:
 11810 0133 54494D45 		.ascii	"TIME_WAIT\000"
 11810      5F574149 
 11810      5400
 11811              	.LASF189:
 11812 013d 636F6E6E 		.ascii	"conn\000"
 11812      00
 11813              	.LASF203:
 11814 0142 7463705F 		.ascii	"tcp_state\000"
 11814      73746174 
 11814      6500
 11815              	.LASF106:
 11816 014c 4E455443 		.ascii	"NETCONN_INVALID\000"
 11816      4F4E4E5F 
 11816      494E5641 
 11816      4C494400 
 11817              	.LASF143:
 11818 015c 7072696F 		.ascii	"prio\000"
 11818      00
 11819              	.LASF63:
 11820 0161 6D5F6F77 		.ascii	"m_owner\000"
ARM GAS  /tmp/ccT6pRdh.s 			page 210


 11820      6E657200 
 11821              	.LASF146:
 11822 0169 706F6C6C 		.ascii	"polltmr\000"
 11822      746D7200 
 11823              	.LASF73:
 11824 0171 65786974 		.ascii	"exitcode\000"
 11824      636F6465 
 11824      00
 11825              	.LASF4:
 11826 017a 5F5F7569 		.ascii	"__uint8_t\000"
 11826      6E74385F 
 11826      7400
 11827              	.LASF295:
 11828 0184 7463705F 		.ascii	"tcp_new\000"
 11828      6E657700 
 11829              	.LASF75:
 11830 018c 65776D61 		.ascii	"ewmask\000"
 11830      736B00
 11831              	.LASF126:
 11832 0193 6E657463 		.ascii	"netconn\000"
 11832      6F6E6E00 
 11833              	.LASF191:
 11834 019b 69706164 		.ascii	"ipaddr\000"
 11834      647200
 11835              	.LASF232:
 11836 01a2 6F6C645F 		.ascii	"old_state\000"
 11836      73746174 
 11836      6500
 11837              	.LASF243:
 11838 01ac 64696666 		.ascii	"diff\000"
 11838      00
 11839              	.LASF129:
 11840 01b1 6F705F63 		.ascii	"op_completed\000"
 11840      6F6D706C 
 11840      65746564 
 11840      00
 11841              	.LASF37:
 11842 01be 705F6E65 		.ascii	"p_newer\000"
 11842      77657200 
 11843              	.LASF124:
 11844 01c6 4E455443 		.ascii	"NETCONN_EVT_ERROR\000"
 11844      4F4E4E5F 
 11844      4556545F 
 11844      4552524F 
 11844      5200
 11845              	.LASF11:
 11846 01d8 6C6F6E67 		.ascii	"long int\000"
 11846      20696E74 
 11846      00
 11847              	.LASF33:
 11848 01e1 705F6E65 		.ascii	"p_next\000"
 11848      787400
 11849              	.LASF257:
 11850 01e8 6E657763 		.ascii	"newconn\000"
 11850      6F6E6E00 
 11851              	.LASF34:
 11852 01f0 705F7072 		.ascii	"p_prev\000"
ARM GAS  /tmp/ccT6pRdh.s 			page 211


 11852      657600
 11853              	.LASF115:
 11854 01f7 4E455443 		.ascii	"NETCONN_WRITE\000"
 11854      4F4E4E5F 
 11854      57524954 
 11854      4500
 11855              	.LASF86:
 11856 0205 7379735F 		.ascii	"sys_sem_t\000"
 11856      73656D5F 
 11856      7400
 11857              	.LASF24:
 11858 020f 74737461 		.ascii	"tstate_t\000"
 11858      74655F74 
 11858      00
 11859              	.LASF237:
 11860 0218 72656376 		.ascii	"recv_raw\000"
 11860      5F726177 
 11860      00
 11861              	.LASF49:
 11862 0221 705F6D74 		.ascii	"p_mtxlist\000"
 11862      786C6973 
 11862      7400
 11863              	.LASF54:
 11864 022b 72656761 		.ascii	"regarm_t\000"
 11864      726D5F74 
 11864      00
 11865              	.LASF119:
 11866 0234 6E657463 		.ascii	"netconn_evt\000"
 11866      6F6E6E5F 
 11866      65767400 
 11867              	.LASF242:
 11868 0240 77726974 		.ascii	"write_finished\000"
 11868      655F6669 
 11868      6E697368 
 11868      656400
 11869              	.LASF215:
 11870 024f 7261775F 		.ascii	"raw_recv_fn\000"
 11870      72656376 
 11870      5F666E00 
 11871              	.LASF329:
 11872 025b 63757272 		.ascii	"current_iphdr_src\000"
 11872      656E745F 
 11872      69706864 
 11872      725F7372 
 11872      6300
 11873              	.LASF292:
 11874 026d 7463705F 		.ascii	"tcp_recved\000"
 11874      72656376 
 11874      656400
 11875              	.LASF199:
 11876 0278 7463705F 		.ascii	"tcp_sent_fn\000"
 11876      73656E74 
 11876      5F666E00 
 11877              	.LASF201:
 11878 0284 7463705F 		.ascii	"tcp_err_fn\000"
 11878      6572725F 
 11878      666E00
ARM GAS  /tmp/ccT6pRdh.s 			page 212


 11879              	.LASF229:
 11880 028f 4D454D50 		.ascii	"MEMP_PBUF_POOL\000"
 11880      5F504255 
 11880      465F504F 
 11880      4F4C00
 11881              	.LASF3:
 11882 029e 7369676E 		.ascii	"signed char\000"
 11882      65642063 
 11882      68617200 
 11883              	.LASF43:
 11884 02aa 705F7072 		.ascii	"p_preempt\000"
 11884      65656D70 
 11884      7400
 11885              	.LASF17:
 11886 02b4 75696E74 		.ascii	"uint8_t\000"
 11886      385F7400 
 11887              	.LASF253:
 11888 02bc 66726565 		.ascii	"free_and_return\000"
 11888      5F616E64 
 11888      5F726574 
 11888      75726E00 
 11889              	.LASF183:
 11890 02cc 6B656570 		.ascii	"keep_cnt_sent\000"
 11890      5F636E74 
 11890      5F73656E 
 11890      7400
 11891              	.LASF68:
 11892 02da 6D625F72 		.ascii	"mb_rdptr\000"
 11892      64707472 
 11892      00
 11893              	.LASF29:
 11894 02e3 6576656E 		.ascii	"eventmask_t\000"
 11894      746D6173 
 11894      6B5F7400 
 11895              	.LASF56:
 11896 02ef 636F6E74 		.ascii	"context\000"
 11896      65787400 
 11897              	.LASF137:
 11898 02f7 6C6F6361 		.ascii	"local_ip\000"
 11898      6C5F6970 
 11898      00
 11899              	.LASF279:
 11900 0300 6E657462 		.ascii	"netbuf_delete\000"
 11900      75665F64 
 11900      656C6574 
 11900      6500
 11901              	.LASF5:
 11902 030e 756E7369 		.ascii	"unsigned char\000"
 11902      676E6564 
 11902      20636861 
 11902      7200
 11903              	.LASF313:
 11904 031c 7261775F 		.ascii	"raw_connect\000"
 11904      636F6E6E 
 11904      65637400 
 11905              	.LASF319:
 11906 0328 7564705F 		.ascii	"udp_send\000"
ARM GAS  /tmp/ccT6pRdh.s 			page 213


 11906      73656E64 
 11906      00
 11907              	.LASF252:
 11908 0331 6572725F 		.ascii	"err_mem\000"
 11908      6D656D00 
 11909              	.LASF223:
 11910 0339 4D454D50 		.ascii	"MEMP_NETBUF\000"
 11910      5F4E4554 
 11910      42554600 
 11911              	.LASF321:
 11912 0345 7261775F 		.ascii	"raw_sendto\000"
 11912      73656E64 
 11912      746F00
 11913              	.LASF22:
 11914 0350 5F426F6F 		.ascii	"_Bool\000"
 11914      6C00
 11915              	.LASF209:
 11916 0356 46494E5F 		.ascii	"FIN_WAIT_1\000"
 11916      57414954 
 11916      5F3100
 11917              	.LASF323:
 11918 0361 2E2E2F2E 		.ascii	"../../ext/lwip/src/api/api_msg.c\000"
 11918      2E2F6578 
 11918      742F6C77 
 11918      69702F73 
 11918      72632F61 
 11919              	.LASF96:
 11920 0382 50425546 		.ascii	"PBUF_POOL\000"
 11920      5F504F4F 
 11920      4C00
 11921              	.LASF273:
 11922 038c 646F5F63 		.ascii	"do_close\000"
 11922      6C6F7365 
 11922      00
 11923              	.LASF107:
 11924 0395 4E455443 		.ascii	"NETCONN_TCP\000"
 11924      4F4E4E5F 
 11924      54435000 
 11925              	.LASF330:
 11926 03a1 706F7274 		.ascii	"port_halt\000"
 11926      5F68616C 
 11926      7400
 11927              	.LASF206:
 11928 03ab 53594E5F 		.ascii	"SYN_SENT\000"
 11928      53454E54 
 11928      00
 11929              	.LASF277:
 11930 03b4 6D656D70 		.ascii	"memp_malloc\000"
 11930      5F6D616C 
 11930      6C6F6300 
 11931              	.LASF76:
 11932 03c0 63686172 		.ascii	"char\000"
 11932      00
 11933              	.LASF98:
 11934 03c5 70627566 		.ascii	"pbuf\000"
 11934      00
 11935              	.LASF269:
ARM GAS  /tmp/ccT6pRdh.s 			page 214


 11936 03ca 72656D61 		.ascii	"remaining\000"
 11936      696E696E 
 11936      6700
 11937              	.LASF35:
 11938 03d4 705F7072 		.ascii	"p_prio\000"
 11938      696F00
 11939              	.LASF213:
 11940 03db 4C415354 		.ascii	"LAST_ACK\000"
 11940      5F41434B 
 11940      00
 11941              	.LASF8:
 11942 03e4 5F5F7569 		.ascii	"__uint16_t\000"
 11942      6E743136 
 11942      5F7400
 11943              	.LASF70:
 11944 03ef 6D625F65 		.ascii	"mb_emptysem\000"
 11944      6D707479 
 11944      73656D00 
 11945              	.LASF74:
 11946 03fb 77746F62 		.ascii	"wtobjp\000"
 11946      6A7000
 11947              	.LASF184:
 11948 0402 7564705F 		.ascii	"udp_pcb\000"
 11948      70636200 
 11949              	.LASF144:
 11950 040a 6C6F6361 		.ascii	"local_port\000"
 11950      6C5F706F 
 11950      727400
 11951              	.LASF112:
 11952 0415 6E657463 		.ascii	"netconn_type\000"
 11952      6F6E6E5F 
 11952      74797065 
 11952      00
 11953              	.LASF103:
 11954 0422 666C6167 		.ascii	"flags\000"
 11954      7300
 11955              	.LASF140:
 11956 0428 7463705F 		.ascii	"tcp_pcb\000"
 11956      70636200 
 11957              	.LASF104:
 11958 0430 6E657462 		.ascii	"netbuf\000"
 11958      756600
 11959              	.LASF235:
 11960 0437 72656376 		.ascii	"recv_udp\000"
 11960      5F756470 
 11960      00
 11961              	.LASF154:
 11962 0440 72747465 		.ascii	"rttest\000"
 11962      737400
 11963              	.LASF82:
 11964 0447 69705F61 		.ascii	"ip_addr\000"
 11964      64647200 
 11965              	.LASF195:
 11966 044f 73687574 		.ascii	"shut\000"
 11966      00
 11967              	.LASF278:
 11968 0454 7379735F 		.ascii	"sys_sem_signal\000"
ARM GAS  /tmp/ccT6pRdh.s 			page 215


 11968      73656D5F 
 11968      7369676E 
 11968      616C00
 11969              	.LASF110:
 11970 0463 4E455443 		.ascii	"NETCONN_UDPNOCHKSUM\000"
 11970      4F4E4E5F 
 11970      5544504E 
 11970      4F43484B 
 11970      53554D00 
 11971              	.LASF290:
 11972 0477 7463705F 		.ascii	"tcp_close\000"
 11972      636C6F73 
 11972      6500
 11973              	.LASF300:
 11974 0481 7379735F 		.ascii	"sys_mbox_new\000"
 11974      6D626F78 
 11974      5F6E6577 
 11974      00
 11975              	.LASF164:
 11976 048e 736E645F 		.ascii	"snd_lbb\000"
 11976      6C626200 
 11977              	.LASF309:
 11978 0496 7261775F 		.ascii	"raw_remove\000"
 11978      72656D6F 
 11978      766500
 11979              	.LASF31:
 11980 04a1 636E745F 		.ascii	"cnt_t\000"
 11980      7400
 11981              	.LASF233:
 11982 04a7 7761735F 		.ascii	"was_nonblocking_connect\000"
 11982      6E6F6E62 
 11982      6C6F636B 
 11982      696E675F 
 11982      636F6E6E 
 11983              	.LASF181:
 11984 04bf 70657273 		.ascii	"persist_cnt\000"
 11984      6973745F 
 11984      636E7400 
 11985              	.LASF224:
 11986 04cb 4D454D50 		.ascii	"MEMP_NETCONN\000"
 11986      5F4E4554 
 11986      434F4E4E 
 11986      00
 11987              	.LASF291:
 11988 04d8 7463705F 		.ascii	"tcp_accept\000"
 11988      61636365 
 11988      707400
 11989              	.LASF211:
 11990 04e3 434C4F53 		.ascii	"CLOSE_WAIT\000"
 11990      455F5741 
 11990      495400
 11991              	.LASF318:
 11992 04ee 7261775F 		.ascii	"raw_send\000"
 11992      73656E64 
 11992      00
 11993              	.LASF265:
 11994 04f7 646F5F6C 		.ascii	"do_listen\000"
ARM GAS  /tmp/ccT6pRdh.s 			page 216


 11994      69737465 
 11994      6E00
 11995              	.LASF152:
 11996 0501 7263765F 		.ascii	"rcv_ann_right_edge\000"
 11996      616E6E5F 
 11996      72696768 
 11996      745F6564 
 11996      676500
 11997              	.LASF55:
 11998 0514 696E7463 		.ascii	"intctx\000"
 11998      747800
 11999              	.LASF48:
 12000 051b 705F6570 		.ascii	"p_epending\000"
 12000      656E6469 
 12000      6E6700
 12001              	.LASF155:
 12002 0526 72747365 		.ascii	"rtseq\000"
 12002      7100
 12003              	.LASF317:
 12004 052c 7463705F 		.ascii	"tcp_listen_with_backlog\000"
 12004      6C697374 
 12004      656E5F77 
 12004      6974685F 
 12004      6261636B 
 12005              	.LASF297:
 12006 0544 7564705F 		.ascii	"udp_recv\000"
 12006      72656376 
 12006      00
 12007              	.LASF148:
 12008 054d 6C617374 		.ascii	"last_timer\000"
 12008      5F74696D 
 12008      657200
 12009              	.LASF283:
 12010 0558 7463705F 		.ascii	"tcp_recv\000"
 12010      72656376 
 12010      00
 12011              	.LASF258:
 12012 0561 61636365 		.ascii	"accept_function\000"
 12012      70745F66 
 12012      756E6374 
 12012      696F6E00 
 12013              	.LASF71:
 12014 0571 4D61696C 		.ascii	"Mailbox\000"
 12014      626F7800 
 12015              	.LASF216:
 12016 0579 4D454D50 		.ascii	"MEMP_RAW_PCB\000"
 12016      5F524157 
 12016      5F504342 
 12016      00
 12017              	.LASF118:
 12018 0586 4E455443 		.ascii	"NETCONN_CLOSE\000"
 12018      4F4E4E5F 
 12018      434C4F53 
 12018      4500
 12019              	.LASF134:
 12020 0594 63757272 		.ascii	"current_msg\000"
 12020      656E745F 
ARM GAS  /tmp/ccT6pRdh.s 			page 217


 12020      6D736700 
 12021              	.LASF13:
 12022 05a0 6C6F6E67 		.ascii	"long unsigned int\000"
 12022      20756E73 
 12022      69676E65 
 12022      6420696E 
 12022      7400
 12023              	.LASF94:
 12024 05b2 50425546 		.ascii	"PBUF_ROM\000"
 12024      5F524F4D 
 12024      00
 12025              	.LASF122:
 12026 05bb 4E455443 		.ascii	"NETCONN_EVT_SENDPLUS\000"
 12026      4F4E4E5F 
 12026      4556545F 
 12026      53454E44 
 12026      504C5553 
 12027              	.LASF308:
 12028 05d0 7564705F 		.ascii	"udp_remove\000"
 12028      72656D6F 
 12028      766500
 12029              	.LASF200:
 12030 05db 7463705F 		.ascii	"tcp_poll_fn\000"
 12030      706F6C6C 
 12030      5F666E00 
 12031              	.LASF241:
 12032 05e7 61766169 		.ascii	"available\000"
 12032      6C61626C 
 12032      6500
 12033              	.LASF131:
 12034 05f1 61636365 		.ascii	"acceptmbox\000"
 12034      70746D62 
 12034      6F7800
 12035              	.LASF310:
 12036 05fc 7564705F 		.ascii	"udp_bind\000"
 12036      62696E64 
 12036      00
 12037              	.LASF135:
 12038 0605 63616C6C 		.ascii	"callback\000"
 12038      6261636B 
 12038      00
 12039              	.LASF288:
 12040 060e 7463705F 		.ascii	"tcp_output\000"
 12040      6F757470 
 12040      757400
 12041              	.LASF100:
 12042 0619 7061796C 		.ascii	"payload\000"
 12042      6F616400 
 12043              	.LASF156:
 12044 0621 6E727478 		.ascii	"nrtx\000"
 12044      00
 12045              	.LASF316:
 12046 0626 7564705F 		.ascii	"udp_disconnect\000"
 12046      64697363 
 12046      6F6E6E65 
 12046      637400
 12047              	.LASF274:
ARM GAS  /tmp/ccT6pRdh.s 			page 218


 12048 0635 7379735F 		.ascii	"sys_mbox_valid\000"
 12048      6D626F78 
 12048      5F76616C 
 12048      696400
 12049              	.LASF69:
 12050 0644 6D625F66 		.ascii	"mb_fullsem\000"
 12050      756C6C73 
 12050      656D00
 12051              	.LASF158:
 12052 064f 6C617374 		.ascii	"lastack\000"
 12052      61636B00 
 12053              	.LASF161:
 12054 0657 736E645F 		.ascii	"snd_nxt\000"
 12054      6E787400 
 12055              	.LASF244:
 12056 065f 646F6E74 		.ascii	"dontblock\000"
 12056      626C6F63 
 12056      6B00
 12057              	.LASF266:
 12058 0669 6C706362 		.ascii	"lpcb\000"
 12058      00
 12059              	.LASF210:
 12060 066e 46494E5F 		.ascii	"FIN_WAIT_2\000"
 12060      57414954 
 12060      5F3200
 12061              	.LASF87:
 12062 0679 7379735F 		.ascii	"sys_mbox_t\000"
 12062      6D626F78 
 12062      5F7400
 12063              	.LASF12:
 12064 0684 5F5F7569 		.ascii	"__uint32_t\000"
 12064      6E743332 
 12064      5F7400
 12065              	.LASF61:
 12066 068f 4D757465 		.ascii	"Mutex\000"
 12066      7800
 12067              	.LASF108:
 12068 0695 4E455443 		.ascii	"NETCONN_UDP\000"
 12068      4F4E4E5F 
 12068      55445000 
 12069              	.LASF187:
 12070 06a1 70726F74 		.ascii	"protocol\000"
 12070      6F636F6C 
 12070      00
 12071              	.LASF175:
 12072 06aa 73656E74 		.ascii	"sent\000"
 12072      00
 12073              	.LASF14:
 12074 06af 6C6F6E67 		.ascii	"long long int\000"
 12074      206C6F6E 
 12074      6720696E 
 12074      7400
 12075              	.LASF136:
 12076 06bd 69705F70 		.ascii	"ip_pcb\000"
 12076      636200
 12077              	.LASF256:
 12078 06c4 6E657463 		.ascii	"netconn_drain\000"
ARM GAS  /tmp/ccT6pRdh.s 			page 219


 12078      6F6E6E5F 
 12078      64726169 
 12078      6E00
 12079              	.LASF62:
 12080 06d2 6D5F7175 		.ascii	"m_queue\000"
 12080      65756500 
 12081              	.LASF275:
 12082 06da 7379735F 		.ascii	"sys_mbox_trypost\000"
 12082      6D626F78 
 12082      5F747279 
 12082      706F7374 
 12082      00
 12083              	.LASF67:
 12084 06eb 6D625F77 		.ascii	"mb_wrptr\000"
 12084      72707472 
 12084      00
 12085              	.LASF248:
 12086 06f4 636C6F73 		.ascii	"close\000"
 12086      6500
 12087              	.LASF289:
 12088 06fa 7463705F 		.ascii	"tcp_shutdown\000"
 12088      73687574 
 12088      646F776E 
 12088      00
 12089              	.LASF147:
 12090 0707 706F6C6C 		.ascii	"pollinterval\000"
 12090      696E7465 
 12090      7276616C 
 12090      00
 12091              	.LASF113:
 12092 0714 6E657463 		.ascii	"netconn_state\000"
 12092      6F6E6E5F 
 12092      73746174 
 12092      6500
 12093              	.LASF45:
 12094 0722 705F7761 		.ascii	"p_waiting\000"
 12094      6974696E 
 12094      6700
 12095              	.LASF83:
 12096 072c 61646472 		.ascii	"addr\000"
 12096      00
 12097              	.LASF41:
 12098 0731 705F666C 		.ascii	"p_flags\000"
 12098      61677300 
 12099              	.LASF284:
 12100 0739 7463705F 		.ascii	"tcp_sent\000"
 12100      73656E74 
 12100      00
 12101              	.LASF0:
 12102 0742 756E7369 		.ascii	"unsigned int\000"
 12102      676E6564 
 12102      20696E74 
 12102      00
 12103              	.LASF293:
 12104 074f 7261775F 		.ascii	"raw_new\000"
 12104      6E657700 
 12105              	.LASF259:
ARM GAS  /tmp/ccT6pRdh.s 			page 220


 12106 0757 6E657770 		.ascii	"newpcb\000"
 12106      636200
 12107              	.LASF79:
 12108 075e 7531365F 		.ascii	"u16_t\000"
 12108      7400
 12109              	.LASF304:
 12110 0764 7463705F 		.ascii	"tcp_abort\000"
 12110      61626F72 
 12110      7400
 12111              	.LASF51:
 12112 076e 705F6D70 		.ascii	"p_mpool\000"
 12112      6F6F6C00 
 12113              	.LASF166:
 12114 0776 736E645F 		.ascii	"snd_wnd_max\000"
 12114      776E645F 
 12114      6D617800 
 12115              	.LASF149:
 12116 0782 7263765F 		.ascii	"rcv_nxt\000"
 12116      6E787400 
 12117              	.LASF89:
 12118 078a 50425546 		.ascii	"PBUF_IP\000"
 12118      5F495000 
 12119              	.LASF42:
 12120 0792 705F7265 		.ascii	"p_refs\000"
 12120      667300
 12121              	.LASF286:
 12122 0799 7463705F 		.ascii	"tcp_err\000"
 12122      65727200 
 12123              	.LASF322:
 12124 07a1 474E5520 		.ascii	"GNU C 4.8.2 -mcpu=cortex-m4 -mno-thumb-interwork -m"
 12124      4320342E 
 12124      382E3220 
 12124      2D6D6370 
 12124      753D636F 
 12125 07d4 7468756D 		.ascii	"thumb -ggdb -O2 -std=gnu99 -fomit-frame-pointer -fa"
 12125      62202D67 
 12125      67646220 
 12125      2D4F3220 
 12125      2D737464 
 12126 0807 6C69676E 		.ascii	"lign-functions=16 -ffunction-sections -fdata-sectio"
 12126      2D66756E 
 12126      6374696F 
 12126      6E733D31 
 12126      36202D66 
 12127 083a 6E73202D 		.ascii	"ns -fno-common\000"
 12127      666E6F2D 
 12127      636F6D6D 
 12127      6F6E00
 12128              	.LASF234:
 12129 0849 6572725F 		.ascii	"err_tcp\000"
 12129      74637000 
 12130              	.LASF53:
 12131 0851 54687265 		.ascii	"ThreadsList\000"
 12131      6164734C 
 12131      69737400 
 12132              	.LASF320:
 12133 085d 7564705F 		.ascii	"udp_sendto\000"
ARM GAS  /tmp/ccT6pRdh.s 			page 221


 12133      73656E64 
 12133      746F00
 12134              	.LASF97:
 12135 0868 70627566 		.ascii	"pbuf_type\000"
 12135      5F747970 
 12135      6500
 12136              	.LASF178:
 12137 0872 706F6C6C 		.ascii	"poll\000"
 12137      00
 12138              	.LASF302:
 12139 0877 7379735F 		.ascii	"sys_sem_free\000"
 12139      73656D5F 
 12139      66726565 
 12139      00
 12140              	.LASF153:
 12141 0884 7274696D 		.ascii	"rtime\000"
 12141      6500
 12142              	.LASF207:
 12143 088a 53594E5F 		.ascii	"SYN_RCVD\000"
 12143      52435644 
 12143      00
 12144              	.LASF44:
 12145 0893 705F7469 		.ascii	"p_time\000"
 12145      6D6500
 12146              	.LASF262:
 12147 089a 646F5F63 		.ascii	"do_connect\000"
 12147      6F6E6E65 
 12147      637400
 12148              	.LASF307:
 12149 08a5 7379735F 		.ascii	"sys_sem_valid\000"
 12149      73656D5F 
 12149      76616C69 
 12149      6400
 12150              	.LASF236:
 12151 08b3 73657475 		.ascii	"setup_tcp\000"
 12151      705F7463 
 12151      7000
 12152              	.LASF176:
 12153 08bd 72656376 		.ascii	"recv\000"
 12153      00
 12154              	.LASF117:
 12155 08c2 4E455443 		.ascii	"NETCONN_CONNECT\000"
 12155      4F4E4E5F 
 12155      434F4E4E 
 12155      45435400 
 12156              	.LASF101:
 12157 08d2 746F745F 		.ascii	"tot_len\000"
 12157      6C656E00 
 12158              	.LASF306:
 12159 08da 7379735F 		.ascii	"sys_mbox_free\000"
 12159      6D626F78 
 12159      5F667265 
 12159      6500
 12160              	.LASF84:
 12161 08e8 69705F61 		.ascii	"ip_addr_t\000"
 12161      6464725F 
 12161      7400
ARM GAS  /tmp/ccT6pRdh.s 			page 222


 12162              	.LASF58:
 12163 08f2 53656D61 		.ascii	"Semaphore\000"
 12163      70686F72 
 12163      6500
 12164              	.LASF50:
 12165 08fc 705F7265 		.ascii	"p_realprio\000"
 12165      616C7072 
 12165      696F00
 12166              	.LASF85:
 12167 0907 6572725F 		.ascii	"err_t\000"
 12167      7400
 12168              	.LASF231:
 12169 090d 6D656D70 		.ascii	"memp_t\000"
 12169      5F7400
 12170              	.LASF196:
 12171 0914 7564705F 		.ascii	"udp_recv_fn\000"
 12171      72656376 
 12171      5F666E00 
 12172              	.LASF66:
 12173 0920 6D625F74 		.ascii	"mb_top\000"
 12173      6F7000
 12174              	.LASF221:
 12175 0927 4D454D50 		.ascii	"MEMP_REASSDATA\000"
 12175      5F524541 
 12175      53534441 
 12175      544100
 12176              	.LASF260:
 12177 0936 646F5F64 		.ascii	"do_delconn\000"
 12177      656C636F 
 12177      6E6E00
 12178              	.LASF60:
 12179 0941 735F636E 		.ascii	"s_cnt\000"
 12179      7400
 12180              	.LASF2:
 12181 0947 5F5F696E 		.ascii	"__int8_t\000"
 12181      74385F74 
 12181      00
 12182              	.LASF222:
 12183 0950 4D454D50 		.ascii	"MEMP_FRAG_PBUF\000"
 12183      5F465241 
 12183      475F5042 
 12183      554600
 12184              	.LASF251:
 12185 095f 73697A65 		.ascii	"size\000"
 12185      00
 12186              	.LASF270:
 12187 0964 72656376 		.ascii	"recved\000"
 12187      656400
 12188              	.LASF208:
 12189 096b 45535441 		.ascii	"ESTABLISHED\000"
 12189      424C4953 
 12189      48454400 
 12190              	.LASF15:
 12191 0977 6C6F6E67 		.ascii	"long long unsigned int\000"
 12191      206C6F6E 
 12191      6720756E 
 12191      7369676E 
ARM GAS  /tmp/ccT6pRdh.s 			page 223


 12191      65642069 
 12192              	.LASF217:
 12193 098e 4D454D50 		.ascii	"MEMP_UDP_PCB\000"
 12193      5F554450 
 12193      5F504342 
 12193      00
 12194              	.LASF145:
 12195 099b 72656D6F 		.ascii	"remote_port\000"
 12195      74655F70 
 12195      6F727400 
 12196              	.LASF282:
 12197 09a7 7463705F 		.ascii	"tcp_arg\000"
 12197      61726700 
 12198              	.LASF38:
 12199 09af 705F6F6C 		.ascii	"p_older\000"
 12199      64657200 
 12200              	.LASF220:
 12201 09b7 4D454D50 		.ascii	"MEMP_TCP_SEG\000"
 12201      5F544350 
 12201      5F534547 
 12201      00
 12202              	.LASF19:
 12203 09c4 75696E74 		.ascii	"uint16_t\000"
 12203      31365F74 
 12203      00
 12204              	.LASF182:
 12205 09cd 70657273 		.ascii	"persist_backoff\000"
 12205      6973745F 
 12205      6261636B 
 12205      6F666600 
 12206              	.LASF28:
 12207 09dd 6D73675F 		.ascii	"msg_t\000"
 12207      7400
 12208              	.LASF226:
 12209 09e3 4D454D50 		.ascii	"MEMP_TCPIP_MSG_INPKT\000"
 12209      5F544350 
 12209      49505F4D 
 12209      53475F49 
 12209      4E504B54 
 12210              	.LASF280:
 12211 09f8 70627566 		.ascii	"pbuf_alloc\000"
 12211      5F616C6C 
 12211      6F6300
 12212              	.LASF159:
 12213 0a03 63776E64 		.ascii	"cwnd\000"
 12213      00
 12214              	.LASF26:
 12215 0a08 74736C69 		.ascii	"tslices_t\000"
 12215      6365735F 
 12215      7400
 12216              	.LASF303:
 12217 0a12 7379735F 		.ascii	"sys_sem_set_invalid\000"
 12217      73656D5F 
 12217      7365745F 
 12217      696E7661 
 12217      6C696400 
 12218              	.LASF174:
ARM GAS  /tmp/ccT6pRdh.s 			page 224


 12219 0a26 72656675 		.ascii	"refused_data\000"
 12219      7365645F 
 12219      64617461 
 12219      00
 12220              	.LASF123:
 12221 0a33 4E455443 		.ascii	"NETCONN_EVT_SENDMINUS\000"
 12221      4F4E4E5F 
 12221      4556545F 
 12221      53454E44 
 12221      4D494E55 
 12222              	.LASF169:
 12223 0a49 736E645F 		.ascii	"snd_queuelen\000"
 12223      71756575 
 12223      656C656E 
 12223      00
 12224              	.LASF298:
 12225 0a56 6D656D70 		.ascii	"memp_free\000"
 12225      5F667265 
 12225      6500
 12226              	.LASF263:
 12227 0a60 6E6F6E5F 		.ascii	"non_blocking\000"
 12227      626C6F63 
 12227      6B696E67 
 12227      00
 12228              	.LASF185:
 12229 0a6d 72656376 		.ascii	"recv_arg\000"
 12229      5F617267 
 12229      00
 12230              	.LASF239:
 12231 0a76 7761735F 		.ascii	"was_blocking\000"
 12231      626C6F63 
 12231      6B696E67 
 12231      00
 12232              	.LASF121:
 12233 0a83 4E455443 		.ascii	"NETCONN_EVT_RCVMINUS\000"
 12233      4F4E4E5F 
 12233      4556545F 
 12233      5243564D 
 12233      494E5553 
 12234              	.LASF92:
 12235 0a98 70627566 		.ascii	"pbuf_layer\000"
 12235      5F6C6179 
 12235      657200
 12236              	.LASF171:
 12237 0aa3 756E7365 		.ascii	"unsent\000"
 12237      6E7400
 12238              	.LASF6:
 12239 0aaa 5F5F696E 		.ascii	"__int16_t\000"
 12239      7431365F 
 12239      7400
 12240              	.LASF267:
 12241 0ab4 646F5F73 		.ascii	"do_send\000"
 12241      656E6400 
 12242              	.LASF170:
 12243 0abc 756E7365 		.ascii	"unsent_oversize\000"
 12243      6E745F6F 
 12243      76657273 
ARM GAS  /tmp/ccT6pRdh.s 			page 225


 12243      697A6500 
 12244              	.LASF276:
 12245 0acc 70627566 		.ascii	"pbuf_free\000"
 12245      5F667265 
 12245      6500
 12246              	.LASF230:
 12247 0ad6 4D454D50 		.ascii	"MEMP_MAX\000"
 12247      5F4D4158 
 12247      00
 12248              	.LASF188:
 12249 0adf 6170695F 		.ascii	"api_msg_msg\000"
 12249      6D73675F 
 12249      6D736700 
 12250              	.LASF311:
 12251 0aeb 7463705F 		.ascii	"tcp_bind\000"
 12251      62696E64 
 12251      00
 12252              	.LASF138:
 12253 0af4 72656D6F 		.ascii	"remote_ip\000"
 12253      74655F69 
 12253      7000
 12254              	.LASF326:
 12255 0afe 73656E74 		.ascii	"sent_tcp\000"
 12255      5F746370 
 12255      00
 12256              	.LASF202:
 12257 0b07 7463705F 		.ascii	"tcp_connected_fn\000"
 12257      636F6E6E 
 12257      65637465 
 12257      645F666E 
 12257      00
 12258              	.LASF81:
 12259 0b18 7533325F 		.ascii	"u32_t\000"
 12259      7400
 12260              	.LASF23:
 12261 0b1e 746D6F64 		.ascii	"tmode_t\000"
 12261      655F7400 
 12262              	.LASF133:
 12263 0b26 77726974 		.ascii	"write_offset\000"
 12263      655F6F66 
 12263      66736574 
 12263      00
 12264              	.LASF254:
 12265 0b33 646F5F6E 		.ascii	"do_newconn\000"
 12265      6577636F 
 12265      6E6E00
 12266              	.LASF315:
 12267 0b3e 7463705F 		.ascii	"tcp_connect\000"
 12267      636F6E6E 
 12267      65637400 
 12268              	.LASF111:
 12269 0b4a 4E455443 		.ascii	"NETCONN_RAW\000"
 12269      4F4E4E5F 
 12269      52415700 
 12270              	.LASF324:
 12271 0b56 2F686F6D 		.ascii	"/home/caroline/Documents/PAF/ChibiOS_2.6.4/demos/AR"
 12271      652F6361 
ARM GAS  /tmp/ccT6pRdh.s 			page 226


 12271      726F6C69 
 12271      6E652F44 
 12271      6F63756D 
 12272 0b89 4D434D34 		.ascii	"MCM4-STM32F407-LWIP\000"
 12272      2D53544D 
 12272      33324634 
 12272      30372D4C 
 12272      57495000 
 12273              	.LASF59:
 12274 0b9d 735F7175 		.ascii	"s_queue\000"
 12274      65756500 
 12275              	.LASF105:
 12276 0ba5 706F7274 		.ascii	"port\000"
 12276      00
 12277              	.LASF228:
 12278 0baa 4D454D50 		.ascii	"MEMP_PBUF\000"
 12278      5F504255 
 12278      4600
 12279              	.LASF167:
 12280 0bb4 61636B65 		.ascii	"acked\000"
 12280      6400
 12281              	.LASF299:
 12282 0bba 7379735F 		.ascii	"sys_sem_new\000"
 12282      73656D5F 
 12282      6E657700 
 12283              	.LASF180:
 12284 0bc6 6B656570 		.ascii	"keep_idle\000"
 12284      5F69646C 
 12284      6500
 12285              	.LASF7:
 12286 0bd0 73686F72 		.ascii	"short int\000"
 12286      7420696E 
 12286      7400
 12287              	.LASF116:
 12288 0bda 4E455443 		.ascii	"NETCONN_LISTEN\000"
 12288      4F4E4E5F 
 12288      4C495354 
 12288      454E00
 12289              	.LASF264:
 12290 0be9 646F5F64 		.ascii	"do_disconnect\000"
 12290      6973636F 
 12290      6E6E6563 
 12290      7400
 12291              	.LASF109:
 12292 0bf7 4E455443 		.ascii	"NETCONN_UDPLITE\000"
 12292      4F4E4E5F 
 12292      5544504C 
 12292      49544500 
 12293              	.LASF172:
 12294 0c07 756E6163 		.ascii	"unacked\000"
 12294      6B656400 
 12295              	.LASF18:
 12296 0c0f 696E7431 		.ascii	"int16_t\000"
 12296      365F7400 
 12297              	.LASF141:
 12298 0c17 63616C6C 		.ascii	"callback_arg\000"
 12298      6261636B 
ARM GAS  /tmp/ccT6pRdh.s 			page 227


 12298      5F617267 
 12298      00
 12299              	.LASF240:
 12300 0c24 646F5F77 		.ascii	"do_writemore\000"
 12300      72697465 
 12300      6D6F7265 
 12300      00
 12301              	.LASF225:
 12302 0c31 4D454D50 		.ascii	"MEMP_TCPIP_MSG_API\000"
 12302      5F544350 
 12302      49505F4D 
 12302      53475F41 
 12302      504900
 12303              	.LASF179:
 12304 0c44 65727266 		.ascii	"errf\000"
 12304      00
 12305              	.LASF194:
 12306 0c49 61706966 		.ascii	"apiflags\000"
 12306      6C616773 
 12306      00
 12307              	.LASF142:
 12308 0c52 61636365 		.ascii	"accept\000"
 12308      707400
 12309              	.LASF32:
 12310 0c59 54687265 		.ascii	"Thread\000"
 12310      616400
 12311              	.LASF198:
 12312 0c60 7463705F 		.ascii	"tcp_recv_fn\000"
 12312      72656376 
 12312      5F666E00 
 12313              	.LASF114:
 12314 0c6c 4E455443 		.ascii	"NETCONN_NONE\000"
 12314      4F4E4E5F 
 12314      4E4F4E45 
 12314      00
 12315              	.LASF162:
 12316 0c79 736E645F 		.ascii	"snd_wl1\000"
 12316      776C3100 
 12317              	.LASF163:
 12318 0c81 736E645F 		.ascii	"snd_wl2\000"
 12318      776C3200 
 12319              	.LASF255:
 12320 0c89 6E657463 		.ascii	"netconn_free\000"
 12320      6F6E6E5F 
 12320      66726565 
 12320      00
 12321              	.LASF204:
 12322 0c96 434C4F53 		.ascii	"CLOSED\000"
 12322      454400
 12323              	.LASF132:
 12324 0c9d 736F636B 		.ascii	"socket\000"
 12324      657400
 12325              	.LASF157:
 12326 0ca4 64757061 		.ascii	"dupacks\000"
 12326      636B7300 
 12327              	.LASF80:
 12328 0cac 7331365F 		.ascii	"s16_t\000"
ARM GAS  /tmp/ccT6pRdh.s 			page 228


 12328      7400
 12329              	.LASF25:
 12330 0cb2 74726566 		.ascii	"trefs_t\000"
 12330      735F7400 
 12331              	.LASF186:
 12332 0cba 7261775F 		.ascii	"raw_pcb\000"
 12332      70636200 
 12333              	.LASF246:
 12334 0cc2 73687574 		.ascii	"shut_rx\000"
 12334      5F727800 
 12335              	.LASF268:
 12336 0cca 646F5F72 		.ascii	"do_recv\000"
 12336      65637600 
 12337              	.LASF21:
 12338 0cd2 75696E74 		.ascii	"uint32_t\000"
 12338      33325F74 
 12338      00
 12339              	.LASF125:
 12340 0cdb 6E657463 		.ascii	"netconn_callback\000"
 12340      6F6E6E5F 
 12340      63616C6C 
 12340      6261636B 
 12340      00
 12341              	.LASF193:
 12342 0cec 64617461 		.ascii	"dataptr\000"
 12342      70747200 
 12343              	.LASF88:
 12344 0cf4 50425546 		.ascii	"PBUF_TRANSPORT\000"
 12344      5F545241 
 12344      4E53504F 
 12344      525400
 12345              	.LASF52:
 12346 0d03 54687265 		.ascii	"ThreadsQueue\000"
 12346      61647351 
 12346      75657565 
 12346      00
 12347              	.LASF130:
 12348 0d10 72656376 		.ascii	"recvmbox\000"
 12348      6D626F78 
 12348      00
 12349              	.LASF120:
 12350 0d19 4E455443 		.ascii	"NETCONN_EVT_RCVPLUS\000"
 12350      4F4E4E5F 
 12350      4556545F 
 12350      52435650 
 12350      4C555300 
 12351              	.LASF72:
 12352 0d2d 7264796D 		.ascii	"rdymsg\000"
 12352      736700
 12353              	.LASF9:
 12354 0d34 73686F72 		.ascii	"short unsigned int\000"
 12354      7420756E 
 12354      7369676E 
 12354      65642069 
 12354      6E7400
 12355              	.LASF78:
 12356 0d47 73385F74 		.ascii	"s8_t\000"
ARM GAS  /tmp/ccT6pRdh.s 			page 229


 12356      00
 12357              	.LASF77:
 12358 0d4c 75385F74 		.ascii	"u8_t\000"
 12358      00
 12359              	.LASF238:
 12360 0d51 646F5F63 		.ascii	"do_connected\000"
 12360      6F6E6E65 
 12360      63746564 
 12360      00
 12361              	.LASF327:
 12362 0d5e 7063625F 		.ascii	"pcb_new\000"
 12362      6E657700 
 12363              	.LASF212:
 12364 0d66 434C4F53 		.ascii	"CLOSING\000"
 12364      494E4700 
 12365              	.LASF10:
 12366 0d6e 5F5F696E 		.ascii	"__int32_t\000"
 12366      7433325F 
 12366      7400
 12367              	.LASF294:
 12368 0d78 7261775F 		.ascii	"raw_recv\000"
 12368      72656376 
 12368      00
 12369              	.LASF168:
 12370 0d81 736E645F 		.ascii	"snd_buf\000"
 12370      62756600 
 12371              	.LASF245:
 12372 0d89 646F5F63 		.ascii	"do_close_internal\000"
 12372      6C6F7365 
 12372      5F696E74 
 12372      65726E61 
 12372      6C00
 12373              	.LASF165:
 12374 0d9b 736E645F 		.ascii	"snd_wnd\000"
 12374      776E6400 
 12375              	.LASF247:
 12376 0da3 73687574 		.ascii	"shut_tx\000"
 12376      5F747800 
 12377              	.LASF296:
 12378 0dab 7564705F 		.ascii	"udp_new\000"
 12378      6E657700 
 12379              	.LASF93:
 12380 0db3 50425546 		.ascii	"PBUF_RAM\000"
 12380      5F52414D 
 12380      00
 12381              	.LASF197:
 12382 0dbc 7463705F 		.ascii	"tcp_accept_fn\000"
 12382      61636365 
 12382      70745F66 
 12382      6E00
 12383              	.LASF91:
 12384 0dca 50425546 		.ascii	"PBUF_RAW\000"
 12384      5F524157 
 12384      00
 12385              	.LASF39:
 12386 0dd3 705F6E61 		.ascii	"p_name\000"
 12386      6D6500
ARM GAS  /tmp/ccT6pRdh.s 			page 230


 12387              	.LASF99:
 12388 0dda 6E657874 		.ascii	"next\000"
 12388      00
 12389              	.LASF64:
 12390 0ddf 6D5F6E65 		.ascii	"m_next\000"
 12390      787400
 12391              	.LASF325:
 12392 0de6 7463705F 		.ascii	"tcp_seg\000"
 12392      73656700 
 12393              	.LASF177:
 12394 0dee 636F6E6E 		.ascii	"connected\000"
 12394      65637465 
 12394      6400
 12395              	.LASF219:
 12396 0df8 4D454D50 		.ascii	"MEMP_TCP_PCB_LISTEN\000"
 12396      5F544350 
 12396      5F504342 
 12396      5F4C4953 
 12396      54454E00 
 12397              	.LASF128:
 12398 0e0c 6C617374 		.ascii	"last_err\000"
 12398      5F657272 
 12398      00
 12399              	.LASF285:
 12400 0e15 7463705F 		.ascii	"tcp_poll\000"
 12400      706F6C6C 
 12400      00
 12401              	.LASF173:
 12402 0e1e 6F6F7365 		.ascii	"ooseq\000"
 12402      7100
 12403              	.LASF305:
 12404 0e24 7379735F 		.ascii	"sys_arch_mbox_tryfetch\000"
 12404      61726368 
 12404      5F6D626F 
 12404      785F7472 
 12404      79666574 
 12405              	.LASF90:
 12406 0e3b 50425546 		.ascii	"PBUF_LINK\000"
 12406      5F4C494E 
 12406      4B00
 12407              	.LASF47:
 12408 0e45 705F6D73 		.ascii	"p_msg\000"
 12408      6700
 12409              	.LASF40:
 12410 0e4b 705F7374 		.ascii	"p_state\000"
 12410      61746500 
 12411              		.ident	"GCC: (4.8.2-14ubuntu1+6) 4.8.2"
ARM GAS  /tmp/ccT6pRdh.s 			page 231


DEFINED SYMBOLS
                            *ABS*:0000000000000000 api_msg.c
     /tmp/ccT6pRdh.s:19     .text.err_tcp:0000000000000000 $t
     /tmp/ccT6pRdh.s:24     .text.err_tcp:0000000000000000 err_tcp
     /tmp/ccT6pRdh.s:191    .text.recv_udp:0000000000000000 $t
     /tmp/ccT6pRdh.s:196    .text.recv_udp:0000000000000000 recv_udp
     /tmp/ccT6pRdh.s:337    .text.recv_raw:0000000000000000 $t
     /tmp/ccT6pRdh.s:342    .text.recv_raw:0000000000000000 recv_raw
     /tmp/ccT6pRdh.s:463    .text.setup_tcp:0000000000000000 $t
     /tmp/ccT6pRdh.s:468    .text.setup_tcp:0000000000000000 setup_tcp
     /tmp/ccT6pRdh.s:1325   .text.recv_tcp:0000000000000000 recv_tcp
     /tmp/ccT6pRdh.s:1462   .text.sent_tcp:0000000000000000 sent_tcp
     /tmp/ccT6pRdh.s:1240   .text.poll_tcp:0000000000000000 poll_tcp
     /tmp/ccT6pRdh.s:521    .text.do_connected:0000000000000000 $t
     /tmp/ccT6pRdh.s:526    .text.do_connected:0000000000000000 do_connected
     /tmp/ccT6pRdh.s:652    .text.do_writemore:0000000000000000 $t
     /tmp/ccT6pRdh.s:657    .text.do_writemore:0000000000000000 do_writemore
     /tmp/ccT6pRdh.s:956    .text.do_close_internal:0000000000000000 $t
     /tmp/ccT6pRdh.s:961    .text.do_close_internal:0000000000000000 do_close_internal
     /tmp/ccT6pRdh.s:1235   .text.poll_tcp:0000000000000000 $t
     /tmp/ccT6pRdh.s:1320   .text.recv_tcp:0000000000000000 $t
     /tmp/ccT6pRdh.s:1457   .text.sent_tcp:0000000000000000 $t
     /tmp/ccT6pRdh.s:1547   .text.do_newconn:0000000000000000 $t
     /tmp/ccT6pRdh.s:1553   .text.do_newconn:0000000000000000 do_newconn
     /tmp/ccT6pRdh.s:1678   .text.netconn_alloc:0000000000000000 $t
     /tmp/ccT6pRdh.s:1684   .text.netconn_alloc:0000000000000000 netconn_alloc
     /tmp/ccT6pRdh.s:1808   .text.netconn_free:0000000000000000 $t
     /tmp/ccT6pRdh.s:1814   .text.netconn_free:0000000000000000 netconn_free
     /tmp/ccT6pRdh.s:1879   .text.netconn_drain:0000000000000000 $t
     /tmp/ccT6pRdh.s:1884   .text.netconn_drain:0000000000000000 netconn_drain
     /tmp/ccT6pRdh.s:2041   .text.accept_function:0000000000000000 $t
     /tmp/ccT6pRdh.s:2046   .text.accept_function:0000000000000000 accept_function
     /tmp/ccT6pRdh.s:2186   .text.do_delconn:0000000000000000 $t
     /tmp/ccT6pRdh.s:2192   .text.do_delconn:0000000000000000 do_delconn
     /tmp/ccT6pRdh.s:2368   .text.do_bind:0000000000000000 $t
     /tmp/ccT6pRdh.s:2374   .text.do_bind:0000000000000000 do_bind
     /tmp/ccT6pRdh.s:2470   .text.do_connect:0000000000000000 $t
     /tmp/ccT6pRdh.s:2476   .text.do_connect:0000000000000000 do_connect
     /tmp/ccT6pRdh.s:2637   .text.do_disconnect:0000000000000000 $t
     /tmp/ccT6pRdh.s:2643   .text.do_disconnect:0000000000000000 do_disconnect
     /tmp/ccT6pRdh.s:2691   .text.do_listen:0000000000000000 $t
     /tmp/ccT6pRdh.s:2697   .text.do_listen:0000000000000000 do_listen
     /tmp/ccT6pRdh.s:2850   .text.do_send:0000000000000000 $t
     /tmp/ccT6pRdh.s:2856   .text.do_send:0000000000000000 do_send
     /tmp/ccT6pRdh.s:2959   .text.do_recv:0000000000000000 $t
     /tmp/ccT6pRdh.s:2965   .text.do_recv:0000000000000000 do_recv
     /tmp/ccT6pRdh.s:3044   .text.do_write:0000000000000000 $t
     /tmp/ccT6pRdh.s:3050   .text.do_write:0000000000000000 do_write
     /tmp/ccT6pRdh.s:3162   .text.do_getaddr:0000000000000000 $t
     /tmp/ccT6pRdh.s:3168   .text.do_getaddr:0000000000000000 do_getaddr
     /tmp/ccT6pRdh.s:3304   .text.do_close:0000000000000000 $t
     /tmp/ccT6pRdh.s:3310   .text.do_close:0000000000000000 do_close
                     .debug_frame:0000000000000010 $d

UNDEFINED SYMBOLS
sys_mbox_valid
port_halt
ARM GAS  /tmp/ccT6pRdh.s 			page 232


sys_sem_signal
sys_mbox_trypost
pbuf_free
memp_malloc
netbuf_delete
pbuf_alloc
pbuf_copy
current_iphdr_src
tcp_arg
tcp_recv
tcp_sent
tcp_poll
tcp_err
tcp_write
tcp_output
tcp_shutdown
tcp_close
tcp_accept
tcp_recved
tcp_new
raw_new
raw_recv
udp_new
udp_recv
memp_free
sys_sem_new
sys_mbox_new
sys_mbox_set_invalid
sys_sem_free
sys_sem_set_invalid
tcp_abort
sys_arch_mbox_tryfetch
sys_mbox_free
sys_sem_valid
udp_remove
raw_remove
udp_bind
tcp_bind
raw_bind
raw_connect
udp_connect
tcp_connect
udp_disconnect
tcp_listen_with_backlog
raw_send
udp_send
udp_sendto
raw_sendto
