ARM GAS  /tmp/ccuhGheP.s 			page 1


   1              		.syntax unified
   2              		.cpu cortex-m4
   3              		.fpu softvfp
   4              		.eabi_attribute 20, 1
   5              		.eabi_attribute 21, 1
   6              		.eabi_attribute 23, 3
   7              		.eabi_attribute 24, 1
   8              		.eabi_attribute 25, 1
   9              		.eabi_attribute 26, 1
  10              		.eabi_attribute 30, 2
  11              		.eabi_attribute 34, 1
  12              		.eabi_attribute 18, 4
  13              		.thumb
  14              		.file	"def.c"
  15              		.text
  16              	.Ltext0:
  17              		.cfi_sections	.debug_frame
  18              		.section	.text.lwip_htons,"ax",%progbits
  19              		.align	2
  20              		.p2align 4,,15
  21              		.global	lwip_htons
  22              		.thumb
  23              		.thumb_func
  24              		.type	lwip_htons, %function
  25              	lwip_htons:
  26              	.LFB7:
  27              		.file 1 "../../ext/lwip/src/core/def.c"
  28              		.loc 1 65 0
  29              		.cfi_startproc
  30              		@ args = 0, pretend = 0, frame = 0
  31              		@ frame_needed = 0, uses_anonymous_args = 0
  32              		@ link register save eliminated.
  33              	.LVL0:
  34 0000 40BA     		rev16	r0, r0
  35              	.LVL1:
  36              		.loc 1 67 0
  37 0002 80B2     		uxth	r0, r0
  38 0004 7047     		bx	lr
  39              		.cfi_endproc
  40              	.LFE7:
  41              		.size	lwip_htons, .-lwip_htons
  42 0006 00BFAFF3 		.section	.text.lwip_ntohs,"ax",%progbits
  42      0080AFF3 
  42      0080
  43              		.align	2
  44              		.p2align 4,,15
  45              		.global	lwip_ntohs
  46              		.thumb
  47              		.thumb_func
  48              		.type	lwip_ntohs, %function
  49              	lwip_ntohs:
  50              	.LFB8:
  51              		.loc 1 77 0
  52              		.cfi_startproc
  53              		@ args = 0, pretend = 0, frame = 0
  54              		@ frame_needed = 0, uses_anonymous_args = 0
  55              		@ link register save eliminated.
ARM GAS  /tmp/ccuhGheP.s 			page 2


  56              	.LVL2:
  57 0000 40BA     		rev16	r0, r0
  58              	.LVL3:
  59              		.loc 1 79 0
  60 0002 80B2     		uxth	r0, r0
  61 0004 7047     		bx	lr
  62              		.cfi_endproc
  63              	.LFE8:
  64              		.size	lwip_ntohs, .-lwip_ntohs
  65 0006 00BFAFF3 		.section	.text.lwip_htonl,"ax",%progbits
  65      0080AFF3 
  65      0080
  66              		.align	2
  67              		.p2align 4,,15
  68              		.global	lwip_htonl
  69              		.thumb
  70              		.thumb_func
  71              		.type	lwip_htonl, %function
  72              	lwip_htonl:
  73              	.LFB9:
  74              		.loc 1 89 0
  75              		.cfi_startproc
  76              		@ args = 0, pretend = 0, frame = 0
  77              		@ frame_needed = 0, uses_anonymous_args = 0
  78              		@ link register save eliminated.
  79              	.LVL4:
  80              		.loc 1 94 0
  81 0000 00BA     		rev	r0, r0
  82              	.LVL5:
  83 0002 7047     		bx	lr
  84              		.cfi_endproc
  85              	.LFE9:
  86              		.size	lwip_htonl, .-lwip_htonl
  87 0004 AFF30080 		.section	.text.lwip_ntohl,"ax",%progbits
  87      AFF30080 
  87      AFF30080 
  88              		.align	2
  89              		.p2align 4,,15
  90              		.global	lwip_ntohl
  91              		.thumb
  92              		.thumb_func
  93              		.type	lwip_ntohl, %function
  94              	lwip_ntohl:
  95              	.LFB10:
  96              		.loc 1 104 0
  97              		.cfi_startproc
  98              		@ args = 0, pretend = 0, frame = 0
  99              		@ frame_needed = 0, uses_anonymous_args = 0
 100              		@ link register save eliminated.
 101              	.LVL6:
 102              		.loc 1 106 0
 103 0000 00BA     		rev	r0, r0
 104              	.LVL7:
 105 0002 7047     		bx	lr
 106              		.cfi_endproc
 107              	.LFE10:
 108              		.size	lwip_ntohl, .-lwip_ntohl
ARM GAS  /tmp/ccuhGheP.s 			page 3


 109 0004 AFF30080 		.text
 109      AFF30080 
 109      AFF30080 
 110              	.Letext0:
 111              		.file 2 "/usr/include/newlib/machine/_default_types.h"
 112              		.file 3 "/usr/include/newlib/stdint.h"
 113              		.file 4 "../../os/various/lwip_bindings/arch/cc.h"