ARM GAS  /tmp/ccWqbcdi.s 			page 1


   1              		.syntax unified
   2              		.cpu cortex-m4
   3              		.fpu softvfp
   4              		.eabi_attribute 20, 1
   5              		.eabi_attribute 21, 1
   6              		.eabi_attribute 23, 3
   7              		.eabi_attribute 24, 1
   8              		.eabi_attribute 25, 1
   9              		.eabi_attribute 26, 1
  10              		.eabi_attribute 30, 2
  11              		.eabi_attribute 34, 1
  12              		.eabi_attribute 18, 4
  13              		.thumb
  14              		.file	"inet_chksum.c"
  15              		.text
  16              	.Ltext0:
  17              		.cfi_sections	.debug_frame
  18              		.section	.text.lwip_standard_chksum,"ax",%progbits
  19              		.align	2
  20              		.p2align 4,,15
  21              		.thumb
  22              		.thumb_func
  23              		.type	lwip_standard_chksum, %function
  24              	lwip_standard_chksum:
  25              	.LFB7:
  26              		.file 1 "../../ext/lwip/src/core/ipv4/inet_chksum.c"
  27              		.loc 1 136 0
  28              		.cfi_startproc
  29              		@ args = 0, pretend = 0, frame = 8
  30              		@ frame_needed = 0, uses_anonymous_args = 0
  31              		@ link register save eliminated.
  32              	.LVL0:
  33 0000 70B4     		push	{r4, r5, r6}
  34              		.cfi_def_cfa_offset 12
  35              		.cfi_offset 4, -12
  36              		.cfi_offset 5, -8
  37              		.cfi_offset 6, -4
  38              		.loc 1 140 0
  39 0002 00F00106 		and	r6, r0, #1
  40              		.loc 1 136 0
  41 0006 83B0     		sub	sp, sp, #12
  42              		.cfi_def_cfa_offset 24
  43              		.loc 1 138 0
  44 0008 0022     		movs	r2, #0
  45              		.loc 1 143 0
  46 000a 0029     		cmp	r1, #0
  47 000c D4BF     		ite	le
  48 000e 0023     		movle	r3, #0
  49 0010 06F00103 		andgt	r3, r6, #1
  50              		.loc 1 138 0
  51 0014 ADF80620 		strh	r2, [sp, #6]	@ movhi
  52              	.LVL1:
  53              		.loc 1 143 0
  54 0018 23B1     		cbz	r3, .L2
  55              	.LVL2:
  56              		.loc 1 144 0
  57 001a 0378     		ldrb	r3, [r0]	@ zero_extendqisi2
ARM GAS  /tmp/ccWqbcdi.s 			page 2


  58              		.loc 1 145 0
  59 001c 0139     		subs	r1, r1, #1
  60              	.LVL3:
  61              		.loc 1 144 0
  62 001e 8DF80730 		strb	r3, [sp, #7]
  63 0022 0130     		adds	r0, r0, #1
  64              	.LVL4:
  65              	.L2:
  66              		.loc 1 150 0
  67 0024 0129     		cmp	r1, #1
  68 0026 27DD     		ble	.L8
  69              		.loc 1 149 0
  70 0028 0446     		mov	r4, r0
  71              		.loc 1 150 0
  72 002a 0B46     		mov	r3, r1
  73              		.loc 1 139 0
  74 002c 0022     		movs	r2, #0
  75              	.LVL5:
  76              	.L5:
  77              		.loc 1 151 0
  78 002e 34F8025B 		ldrh	r5, [r4], #2
  79              	.LVL6:
  80              		.loc 1 152 0
  81 0032 023B     		subs	r3, r3, #2
  82              	.LVL7:
  83              		.loc 1 150 0
  84 0034 012B     		cmp	r3, #1
  85              		.loc 1 151 0
  86 0036 2A44     		add	r2, r2, r5
  87              	.LVL8:
  88              		.loc 1 150 0
  89 0038 F9DC     		bgt	.L5
  90 003a 0239     		subs	r1, r1, #2
  91 003c 4B08     		lsrs	r3, r1, #1
  92              	.LVL9:
  93 003e 5C1C     		adds	r4, r3, #1
  94              	.LVL10:
  95 0040 A1EB4301 		sub	r1, r1, r3, lsl #1
  96 0044 00EB4400 		add	r0, r0, r4, lsl #1
  97              	.LVL11:
  98              	.L3:
  99              		.loc 1 156 0
 100 0048 0129     		cmp	r1, #1
 101              		.loc 1 157 0
 102 004a 04BF     		itt	eq
 103 004c 0378     		ldrbeq	r3, [r0]	@ zero_extendqisi2
 104 004e 8DF80630 		strbeq	r3, [sp, #6]
 105              		.loc 1 161 0
 106 0052 BDF80600 		ldrh	r0, [sp, #6]
 107 0056 0244     		add	r2, r2, r0
 108              	.LVL12:
 109              		.loc 1 165 0
 110 0058 90B2     		uxth	r0, r2
 111 005a 00EB1242 		add	r2, r0, r2, lsr #16
 112              	.LVL13:
 113              		.loc 1 166 0
 114 005e 90B2     		uxth	r0, r2
ARM GAS  /tmp/ccWqbcdi.s 			page 3


 115 0060 00EB1240 		add	r0, r0, r2, lsr #16
 116              	.LVL14:
 117              		.loc 1 169 0
 118 0064 26B1     		cbz	r6, .L7
 119              		.loc 1 170 0
 120 0066 0302     		lsls	r3, r0, #8
 121 0068 9BB2     		uxth	r3, r3
 122 006a C0F30720 		ubfx	r0, r0, #8, #8
 123              	.LVL15:
 124 006e 1843     		orrs	r0, r0, r3
 125              	.LVL16:
 126              	.L7:
 127              		.loc 1 174 0
 128 0070 80B2     		uxth	r0, r0
 129              	.LVL17:
 130 0072 03B0     		add	sp, sp, #12
 131              		@ sp needed
 132 0074 70BC     		pop	{r4, r5, r6}
 133              	.LVL18:
 134 0076 7047     		bx	lr
 135              	.LVL19:
 136              	.L8:
 137              		.loc 1 139 0
 138 0078 0022     		movs	r2, #0
 139 007a E5E7     		b	.L3
 140              		.cfi_endproc
 141              	.LFE7:
 142              		.size	lwip_standard_chksum, .-lwip_standard_chksum
 143 007c AFF30080 		.section	.text.inet_chksum_pseudo,"ax",%progbits
 144              		.align	2
 145              		.p2align 4,,15
 146              		.global	inet_chksum_pseudo
 147              		.thumb
 148              		.thumb_func
 149              		.type	inet_chksum_pseudo, %function
 150              	inet_chksum_pseudo:
 151              	.LFB8:
 152              		.loc 1 275 0
 153              		.cfi_startproc
 154              		@ args = 4, pretend = 0, frame = 0
 155              		@ frame_needed = 0, uses_anonymous_args = 0
 156              	.LVL20:
 157 0000 2DE9F047 		push	{r4, r5, r6, r7, r8, r9, r10, lr}
 158              		.cfi_def_cfa_offset 32
 159              		.cfi_offset 4, -32
 160              		.cfi_offset 5, -28
 161              		.cfi_offset 6, -24
 162              		.cfi_offset 7, -20
 163              		.cfi_offset 8, -16
 164              		.cfi_offset 9, -12
 165              		.cfi_offset 10, -8
 166              		.cfi_offset 14, -4
 167              		.loc 1 284 0
 168 0004 0446     		mov	r4, r0
 169              		.loc 1 275 0
 170 0006 8A46     		mov	r10, r1
 171 0008 9146     		mov	r9, r2
ARM GAS  /tmp/ccWqbcdi.s 			page 4


 172 000a 9846     		mov	r8, r3
 173 000c BDF82070 		ldrh	r7, [sp, #32]
 174              		.loc 1 284 0
 175 0010 0028     		cmp	r0, #0
 176 0012 3BD0     		beq	.L22
 177              		.loc 1 282 0
 178 0014 0026     		movs	r6, #0
 179              		.loc 1 281 0
 180 0016 3546     		mov	r5, r6
 181              	.LVL21:
 182              	.L21:
 183              		.loc 1 287 0
 184 0018 6068     		ldr	r0, [r4, #4]
 185 001a 6189     		ldrh	r1, [r4, #10]
 186 001c FFF7FEFF 		bl	lwip_standard_chksum
 187              	.LVL22:
 188              		.loc 1 292 0
 189 0020 6389     		ldrh	r3, [r4, #10]
 190              		.loc 1 287 0
 191 0022 2844     		add	r0, r0, r5
 192              	.LVL23:
 193              		.loc 1 291 0
 194 0024 82B2     		uxth	r2, r0
 195              		.loc 1 292 0
 196 0026 DB07     		lsls	r3, r3, #31
 197              		.loc 1 291 0
 198 0028 02EB1045 		add	r5, r2, r0, lsr #16
 199              	.LVL24:
 200              		.loc 1 292 0
 201 002c 07D5     		bpl	.L19
 202              		.loc 1 294 0
 203 002e 2B02     		lsls	r3, r5, #8
 204              		.loc 1 293 0
 205 0030 C6F10106 		rsb	r6, r6, #1
 206              	.LVL25:
 207              		.loc 1 294 0
 208 0034 9BB2     		uxth	r3, r3
 209 0036 C5F30725 		ubfx	r5, r5, #8, #8
 210              	.LVL26:
 211              		.loc 1 293 0
 212 003a F6B2     		uxtb	r6, r6
 213              	.LVL27:
 214              		.loc 1 294 0
 215 003c 1D43     		orrs	r5, r5, r3
 216              	.LVL28:
 217              	.L19:
 218              		.loc 1 284 0
 219 003e 2468     		ldr	r4, [r4]
 220              	.LVL29:
 221 0040 002C     		cmp	r4, #0
 222 0042 E9D1     		bne	.L21
 223              		.loc 1 299 0
 224 0044 26B1     		cbz	r6, .L18
 225              		.loc 1 300 0
 226 0046 2B02     		lsls	r3, r5, #8
 227 0048 9BB2     		uxth	r3, r3
 228 004a C5F30725 		ubfx	r5, r5, #8, #8
ARM GAS  /tmp/ccWqbcdi.s 			page 5


 229              	.LVL30:
 230 004e 1D43     		orrs	r5, r5, r3
 231              	.LVL31:
 232              	.L18:
 233              		.loc 1 302 0
 234 0050 DAF80020 		ldr	r2, [r10]
 235              	.LVL32:
 236              		.loc 1 305 0
 237 0054 D9F80030 		ldr	r3, [r9]
 238              	.LVL33:
 239              		.loc 1 303 0
 240 0058 91B2     		uxth	r1, r2
 241 005a 01EB1242 		add	r2, r1, r2, lsr #16
 242              	.LVL34:
 243              		.loc 1 304 0
 244 005e 12FA83F2 		uxtah	r2, r2, r3
 245              		.loc 1 306 0
 246 0062 02EB1343 		add	r3, r2, r3, lsr #16
 247              	.LVL35:
 248              		.loc 1 308 0
 249 0066 4046     		mov	r0, r8
 250              		.loc 1 307 0
 251 0068 1D44     		add	r5, r5, r3
 252              	.LVL36:
 253              		.loc 1 308 0
 254 006a FFF7FEFF 		bl	lwip_htons
 255              	.LVL37:
 256 006e 0544     		add	r5, r5, r0
 257              	.LVL38:
 258              		.loc 1 309 0
 259 0070 3846     		mov	r0, r7
 260 0072 FFF7FEFF 		bl	lwip_htons
 261              	.LVL39:
 262 0076 2844     		add	r0, r0, r5
 263              	.LVL40:
 264              		.loc 1 313 0
 265 0078 83B2     		uxth	r3, r0
 266 007a 03EB1043 		add	r3, r3, r0, lsr #16
 267              	.LVL41:
 268              		.loc 1 314 0
 269 007e 98B2     		uxth	r0, r3
 270              	.LVL42:
 271 0080 00EB1343 		add	r3, r0, r3, lsr #16
 272              	.LVL43:
 273              		.loc 1 316 0
 274 0084 D843     		mvns	r0, r3
 275              		.loc 1 317 0
 276 0086 80B2     		uxth	r0, r0
 277 0088 BDE8F087 		pop	{r4, r5, r6, r7, r8, r9, r10, pc}
 278              	.LVL44:
 279              	.L22:
 280              		.loc 1 281 0
 281 008c 0546     		mov	r5, r0
 282 008e DFE7     		b	.L18
 283              		.cfi_endproc
 284              	.LFE8:
 285              		.size	inet_chksum_pseudo, .-inet_chksum_pseudo
ARM GAS  /tmp/ccWqbcdi.s 			page 6


 286              		.section	.text.inet_chksum_pseudo_partial,"ax",%progbits
 287              		.align	2
 288              		.p2align 4,,15
 289              		.global	inet_chksum_pseudo_partial
 290              		.thumb
 291              		.thumb_func
 292              		.type	inet_chksum_pseudo_partial, %function
 293              	inet_chksum_pseudo_partial:
 294              	.LFB9:
 295              		.loc 1 335 0
 296              		.cfi_startproc
 297              		@ args = 8, pretend = 0, frame = 8
 298              		@ frame_needed = 0, uses_anonymous_args = 0
 299              	.LVL45:
 300 0000 2DE9F04F 		push	{r4, r5, r6, r7, r8, r9, r10, fp, lr}
 301              		.cfi_def_cfa_offset 36
 302              		.cfi_offset 4, -36
 303              		.cfi_offset 5, -32
 304              		.cfi_offset 6, -28
 305              		.cfi_offset 7, -24
 306              		.cfi_offset 8, -20
 307              		.cfi_offset 9, -16
 308              		.cfi_offset 10, -12
 309              		.cfi_offset 11, -8
 310              		.cfi_offset 14, -4
 311 0004 83B0     		sub	sp, sp, #12
 312              		.cfi_def_cfa_offset 48
 313              		.loc 1 335 0
 314 0006 8B46     		mov	fp, r1
 315 0008 BDF83450 		ldrh	r5, [sp, #52]
 316 000c BDF83040 		ldrh	r4, [sp, #48]
 317 0010 0093     		str	r3, [sp]
 318              		.loc 1 345 0
 319 0012 0028     		cmp	r0, #0
 320 0014 18BF     		it	ne
 321 0016 002D     		cmpne	r5, #0
 322              		.loc 1 335 0
 323 0018 0194     		str	r4, [sp, #4]
 324 001a 9246     		mov	r10, r2
 325              		.loc 1 345 0
 326 001c 0446     		mov	r4, r0
 327 001e 0CBF     		ite	eq
 328 0020 0023     		moveq	r3, #0
 329 0022 0123     		movne	r3, #1
 330              	.LVL46:
 331 0024 53D0     		beq	.L35
 332              		.loc 1 343 0
 333 0026 0026     		movs	r6, #0
 334              		.loc 1 342 0
 335 0028 B046     		mov	r8, r6
 336              		.loc 1 354 0
 337 002a 47F6FE77 		movw	r7, #32766
 338 002e 15E0     		b	.L34
 339              	.LVL47:
 340              	.L31:
 341              		.loc 1 358 0
 342 0030 6289     		ldrh	r2, [r4, #10]
ARM GAS  /tmp/ccWqbcdi.s 			page 7


 343              		.loc 1 357 0
 344 0032 1FFA88F1 		uxth	r1, r8
 345              		.loc 1 358 0
 346 0036 D207     		lsls	r2, r2, #31
 347              		.loc 1 357 0
 348 0038 01EB1848 		add	r8, r1, r8, lsr #16
 349              	.LVL48:
 350              		.loc 1 358 0
 351 003c 09D5     		bpl	.L32
 352              		.loc 1 360 0
 353 003e 4FEA0822 		lsl	r2, r8, #8
 354 0042 92B2     		uxth	r2, r2
 355 0044 C8F30723 		ubfx	r3, r8, #8, #8
 356              		.loc 1 359 0
 357 0048 C6F10106 		rsb	r6, r6, #1
 358              	.LVL49:
 359              		.loc 1 360 0
 360 004c 43EA0208 		orr	r8, r3, r2
 361              	.LVL50:
 362              		.loc 1 359 0
 363 0050 F6B2     		uxtb	r6, r6
 364              	.LVL51:
 365              	.L32:
 366              		.loc 1 345 0
 367 0052 2468     		ldr	r4, [r4]
 368              	.LVL52:
 369 0054 002D     		cmp	r5, #0
 370 0056 18BF     		it	ne
 371 0058 002C     		cmpne	r4, #0
 372 005a 11D0     		beq	.L42
 373              	.LVL53:
 374              	.L34:
 375              		.loc 1 348 0
 376 005c 6289     		ldrh	r2, [r4, #10]
 377              	.LVL54:
 378              		.loc 1 352 0
 379 005e 6068     		ldr	r0, [r4, #4]
 380 0060 9542     		cmp	r5, r2
 381 0062 34BF     		ite	cc
 382 0064 A946     		movcc	r9, r5
 383 0066 9146     		movcs	r9, r2
 384              	.LVL55:
 385 0068 4946     		mov	r1, r9
 386 006a FFF7FEFF 		bl	lwip_standard_chksum
 387              	.LVL56:
 388              		.loc 1 353 0
 389 006e C9EB0505 		rsb	r5, r9, r5
 390              	.LVL57:
 391 0072 ADB2     		uxth	r5, r5
 392              		.loc 1 354 0
 393 0074 BD42     		cmp	r5, r7
 394              		.loc 1 352 0
 395 0076 8044     		add	r8, r8, r0
 396              	.LVL58:
 397              		.loc 1 354 0
 398 0078 DAD9     		bls	.L31
 399              		.loc 1 354 0 is_stmt 0 discriminator 1
ARM GAS  /tmp/ccWqbcdi.s 			page 8


 400 007a FFF7FEFF 		bl	port_halt
 401              	.LVL59:
 402 007e D7E7     		b	.L31
 403              	.L42:
 404              		.loc 1 365 0 is_stmt 1
 405 0080 36B1     		cbz	r6, .L30
 406              		.loc 1 366 0
 407 0082 4FEA0822 		lsl	r2, r8, #8
 408 0086 92B2     		uxth	r2, r2
 409 0088 C8F30723 		ubfx	r3, r8, #8, #8
 410 008c 43EA0208 		orr	r8, r3, r2
 411              	.LVL60:
 412              	.L30:
 413              		.loc 1 368 0
 414 0090 DBF80010 		ldr	r1, [fp]
 415              	.LVL61:
 416              		.loc 1 371 0
 417 0094 DAF80020 		ldr	r2, [r10]
 418              	.LVL62:
 419              		.loc 1 374 0
 420 0098 0098     		ldr	r0, [sp]
 421              		.loc 1 369 0
 422 009a 8CB2     		uxth	r4, r1
 423              	.LVL63:
 424 009c 04EB1144 		add	r4, r4, r1, lsr #16
 425              		.loc 1 370 0
 426 00a0 14FA82F4 		uxtah	r4, r4, r2
 427              		.loc 1 372 0
 428 00a4 04EB1244 		add	r4, r4, r2, lsr #16
 429              		.loc 1 374 0
 430 00a8 FFF7FEFF 		bl	lwip_htons
 431              	.LVL64:
 432              		.loc 1 373 0
 433 00ac 4444     		add	r4, r4, r8
 434              	.LVL65:
 435              		.loc 1 374 0
 436 00ae 0444     		add	r4, r4, r0
 437              	.LVL66:
 438              		.loc 1 375 0
 439 00b0 0198     		ldr	r0, [sp, #4]
 440 00b2 FFF7FEFF 		bl	lwip_htons
 441              	.LVL67:
 442 00b6 2044     		add	r0, r0, r4
 443              	.LVL68:
 444              		.loc 1 379 0
 445 00b8 83B2     		uxth	r3, r0
 446 00ba 03EB1043 		add	r3, r3, r0, lsr #16
 447              	.LVL69:
 448              		.loc 1 380 0
 449 00be 98B2     		uxth	r0, r3
 450              	.LVL70:
 451 00c0 00EB1343 		add	r3, r0, r3, lsr #16
 452              	.LVL71:
 453              		.loc 1 382 0
 454 00c4 D843     		mvns	r0, r3
 455              		.loc 1 383 0
 456 00c6 80B2     		uxth	r0, r0
ARM GAS  /tmp/ccWqbcdi.s 			page 9


 457 00c8 03B0     		add	sp, sp, #12
 458              		@ sp needed
 459 00ca BDE8F08F 		pop	{r4, r5, r6, r7, r8, r9, r10, fp, pc}
 460              	.LVL72:
 461              	.L35:
 462              		.loc 1 342 0
 463 00ce 9846     		mov	r8, r3
 464 00d0 DEE7     		b	.L30
 465              		.cfi_endproc
 466              	.LFE9:
 467              		.size	inet_chksum_pseudo_partial, .-inet_chksum_pseudo_partial
 468 00d2 00BFAFF3 		.section	.text.inet_chksum,"ax",%progbits
 468      0080AFF3 
 468      0080AFF3 
 468      0080
 469              		.align	2
 470              		.p2align 4,,15
 471              		.global	inet_chksum
 472              		.thumb
 473              		.thumb_func
 474              		.type	inet_chksum, %function
 475              	inet_chksum:
 476              	.LFB10:
 477              		.loc 1 397 0
 478              		.cfi_startproc
 479              		@ args = 0, pretend = 0, frame = 0
 480              		@ frame_needed = 0, uses_anonymous_args = 0
 481              	.LVL73:
 482 0000 08B5     		push	{r3, lr}
 483              		.cfi_def_cfa_offset 8
 484              		.cfi_offset 3, -8
 485              		.cfi_offset 14, -4
 486              		.loc 1 398 0
 487 0002 FFF7FEFF 		bl	lwip_standard_chksum
 488              	.LVL74:
 489 0006 C043     		mvns	r0, r0
 490              		.loc 1 399 0
 491 0008 80B2     		uxth	r0, r0
 492 000a 08BD     		pop	{r3, pc}
 493              		.cfi_endproc
 494              	.LFE10:
 495              		.size	inet_chksum, .-inet_chksum
 496 000c AFF30080 		.section	.text.inet_chksum_pbuf,"ax",%progbits
 497              		.align	2
 498              		.p2align 4,,15
 499              		.global	inet_chksum_pbuf
 500              		.thumb
 501              		.thumb_func
 502              		.type	inet_chksum_pbuf, %function
 503              	inet_chksum_pbuf:
 504              	.LFB11:
 505              		.loc 1 410 0
 506              		.cfi_startproc
 507              		@ args = 0, pretend = 0, frame = 0
 508              		@ frame_needed = 0, uses_anonymous_args = 0
 509              	.LVL75:
 510 0000 70B5     		push	{r4, r5, r6, lr}
ARM GAS  /tmp/ccWqbcdi.s 			page 10


 511              		.cfi_def_cfa_offset 16
 512              		.cfi_offset 4, -16
 513              		.cfi_offset 5, -12
 514              		.cfi_offset 6, -8
 515              		.cfi_offset 14, -4
 516              		.loc 1 417 0
 517 0002 0446     		mov	r4, r0
 518 0004 18B3     		cbz	r0, .L50
 519              		.loc 1 416 0
 520 0006 0026     		movs	r6, #0
 521              		.loc 1 415 0
 522 0008 3546     		mov	r5, r6
 523              	.LVL76:
 524              	.L48:
 525              		.loc 1 418 0
 526 000a 6189     		ldrh	r1, [r4, #10]
 527 000c 6068     		ldr	r0, [r4, #4]
 528 000e FFF7FEFF 		bl	lwip_standard_chksum
 529              	.LVL77:
 530              		.loc 1 420 0
 531 0012 6389     		ldrh	r3, [r4, #10]
 532              		.loc 1 418 0
 533 0014 2844     		add	r0, r0, r5
 534              	.LVL78:
 535              		.loc 1 419 0
 536 0016 85B2     		uxth	r5, r0
 537              		.loc 1 420 0
 538 0018 D907     		lsls	r1, r3, #31
 539              		.loc 1 419 0
 540 001a 05EB1045 		add	r5, r5, r0, lsr #16
 541              	.LVL79:
 542              		.loc 1 420 0
 543 001e 07D5     		bpl	.L46
 544              		.loc 1 422 0
 545 0020 2B02     		lsls	r3, r5, #8
 546              		.loc 1 421 0
 547 0022 C6F10106 		rsb	r6, r6, #1
 548              	.LVL80:
 549              		.loc 1 422 0
 550 0026 9BB2     		uxth	r3, r3
 551 0028 C5F30725 		ubfx	r5, r5, #8, #8
 552              	.LVL81:
 553              		.loc 1 421 0
 554 002c F6B2     		uxtb	r6, r6
 555              	.LVL82:
 556              		.loc 1 422 0
 557 002e 1D43     		orrs	r5, r5, r3
 558              	.LVL83:
 559              	.L46:
 560              		.loc 1 417 0
 561 0030 2468     		ldr	r4, [r4]
 562              	.LVL84:
 563 0032 002C     		cmp	r4, #0
 564 0034 E9D1     		bne	.L48
 565              		.loc 1 426 0
 566 0036 3EB1     		cbz	r6, .L54
 567              		.loc 1 427 0
ARM GAS  /tmp/ccWqbcdi.s 			page 11


 568 0038 2B02     		lsls	r3, r5, #8
 569 003a 9BB2     		uxth	r3, r3
 570 003c C5F30720 		ubfx	r0, r5, #8, #8
 571              	.LVL85:
 572 0040 1843     		orrs	r0, r0, r3
 573              	.LVL86:
 574 0042 C043     		mvns	r0, r0
 575              	.LVL87:
 576 0044 80B2     		uxth	r0, r0
 577              	.LVL88:
 578 0046 70BD     		pop	{r4, r5, r6, pc}
 579              	.LVL89:
 580              	.L54:
 581 0048 E843     		mvns	r0, r5
 582 004a 80B2     		uxth	r0, r0
 583 004c 70BD     		pop	{r4, r5, r6, pc}
 584              	.LVL90:
 585              	.L50:
 586              		.loc 1 417 0
 587 004e 4FF6FF70 		movw	r0, #65535
 588              	.LVL91:
 589              		.loc 1 430 0
 590 0052 70BD     		pop	{r4, r5, r6, pc}
 591              		.cfi_endproc
 592              	.LFE11:
 593              		.size	inet_chksum_pbuf, .-inet_chksum_pbuf
 594 0054 AFF30080 		.text
 594      AFF30080 
 594      AFF30080 
 595              	.Letext0:
 596              		.file 2 "/usr/include/newlib/machine/_default_types.h"
 597              		.file 3 "/usr/include/newlib/stdint.h"
 598              		.file 4 "../../os/various/lwip_bindings/arch/cc.h"
 599              		.file 5 "../../ext/lwip/src/include/lwip/pbuf.h"
 600              		.file 6 "../../ext/lwip/src/include/ipv4/lwip/ip_addr.h"
 601              		.file 7 "../../ext/lwip/src/include/lwip/def.h"
 602              		.file 8 "../../os/ports/GCC/ARMCMx/chcore_v7m.h"