ARM GAS  /tmp/ccWqbcdi.s 			page 1


   1              		.syntax unified
   2              		.cpu cortex-m4
   3              		.fpu softvfp
   4              		.eabi_attribute 20, 1
   5              		.eabi_attribute 21, 1
   6              		.eabi_attribute 23, 3
   7              		.eabi_attribute 24, 1
   8              		.eabi_attribute 25, 1
   9              		.eabi_attribute 26, 1
  10              		.eabi_attribute 30, 2
  11              		.eabi_attribute 34, 1
  12              		.eabi_attribute 18, 4
  13              		.thumb
  14              		.file	"inet_chksum.c"
  15              		.text
  16              	.Ltext0:
  17              		.cfi_sections	.debug_frame
  18              		.section	.text.lwip_standard_chksum,"ax",%progbits
  19              		.align	2
  20              		.p2align 4,,15
  21              		.thumb
  22              		.thumb_func
  23              		.type	lwip_standard_chksum, %function
  24              	lwip_standard_chksum:
  25              	.LFB7:
  26              		.file 1 "../../ext/lwip/src/core/ipv4/inet_chksum.c"
  27              		.loc 1 136 0
  28              		.cfi_startproc
  29              		@ args = 0, pretend = 0, frame = 8
  30              		@ frame_needed = 0, uses_anonymous_args = 0
  31              		@ link register save eliminated.
  32              	.LVL0:
  33 0000 70B4     		push	{r4, r5, r6}
  34              		.cfi_def_cfa_offset 12
  35              		.cfi_offset 4, -12
  36              		.cfi_offset 5, -8
  37              		.cfi_offset 6, -4
  38              		.loc 1 140 0
  39 0002 00F00106 		and	r6, r0, #1
  40              		.loc 1 136 0
  41 0006 83B0     		sub	sp, sp, #12
  42              		.cfi_def_cfa_offset 24
  43              		.loc 1 138 0
  44 0008 0022     		movs	r2, #0
  45              		.loc 1 143 0
  46 000a 0029     		cmp	r1, #0
  47 000c D4BF     		ite	le
  48 000e 0023     		movle	r3, #0
  49 0010 06F00103 		andgt	r3, r6, #1
  50              		.loc 1 138 0
  51 0014 ADF80620 		strh	r2, [sp, #6]	@ movhi
  52              	.LVL1:
  53              		.loc 1 143 0
  54 0018 23B1     		cbz	r3, .L2
  55              	.LVL2:
  56              		.loc 1 144 0
  57 001a 0378     		ldrb	r3, [r0]	@ zero_extendqisi2
ARM GAS  /tmp/ccWqbcdi.s 			page 2


  58              		.loc 1 145 0
  59 001c 0139     		subs	r1, r1, #1
  60              	.LVL3:
  61              		.loc 1 144 0
  62 001e 8DF80730 		strb	r3, [sp, #7]
  63 0022 0130     		adds	r0, r0, #1
  64              	.LVL4:
  65              	.L2:
  66              		.loc 1 150 0
  67 0024 0129     		cmp	r1, #1
  68 0026 27DD     		ble	.L8
  69              		.loc 1 149 0
  70 0028 0446     		mov	r4, r0
  71              		.loc 1 150 0
  72 002a 0B46     		mov	r3, r1
  73              		.loc 1 139 0
  74 002c 0022     		movs	r2, #0
  75              	.LVL5:
  76              	.L5:
  77              		.loc 1 151 0
  78 002e 34F8025B 		ldrh	r5, [r4], #2
  79              	.LVL6:
  80              		.loc 1 152 0
  81 0032 023B     		subs	r3, r3, #2
  82              	.LVL7:
  83              		.loc 1 150 0
  84 0034 012B     		cmp	r3, #1
  85              		.loc 1 151 0
  86 0036 2A44     		add	r2, r2, r5
  87              	.LVL8:
  88              		.loc 1 150 0
  89 0038 F9DC     		bgt	.L5
  90 003a 0239     		subs	r1, r1, #2
  91 003c 4B08     		lsrs	r3, r1, #1
  92              	.LVL9:
  93 003e 5C1C     		adds	r4, r3, #1
  94              	.LVL10:
  95 0040 A1EB4301 		sub	r1, r1, r3, lsl #1
  96 0044 00EB4400 		add	r0, r0, r4, lsl #1
  97              	.LVL11:
  98              	.L3:
  99              		.loc 1 156 0
 100 0048 0129     		cmp	r1, #1
 101              		.loc 1 157 0
 102 004a 04BF     		itt	eq
 103 004c 0378     		ldrbeq	r3, [r0]	@ zero_extendqisi2
 104 004e 8DF80630 		strbeq	r3, [sp, #6]
 105              		.loc 1 161 0
 106 0052 BDF80600 		ldrh	r0, [sp, #6]
 107 0056 0244     		add	r2, r2, r0
 108              	.LVL12:
 109              		.loc 1 165 0
 110 0058 90B2     		uxth	r0, r2
 111 005a 00EB1242 		add	r2, r0, r2, lsr #16
 112              	.LVL13:
 113              		.loc 1 166 0
 114 005e 90B2     		uxth	r0, r2
ARM GAS  /tmp/ccWqbcdi.s 			page 3


 115 0060 00EB1240 		add	r0, r0, r2, lsr #16
 116              	.LVL14:
 117              		.loc 1 169 0
 118 0064 26B1     		cbz	r6, .L7
 119              		.loc 1 170 0
 120 0066 0302     		lsls	r3, r0, #8
 121 0068 9BB2     		uxth	r3, r3
 122 006a C0F30720 		ubfx	r0, r0, #8, #8
 123              	.LVL15:
 124 006e 1843     		orrs	r0, r0, r3
 125              	.LVL16:
 126              	.L7:
 127              		.loc 1 174 0
 128 0070 80B2     		uxth	r0, r0
 129              	.LVL17:
 130 0072 03B0     		add	sp, sp, #12
 131              		@ sp needed
 132 0074 70BC     		pop	{r4, r5, r6}
 133              	.LVL18:
 134 0076 7047     		bx	lr
 135              	.LVL19:
 136              	.L8:
 137              		.loc 1 139 0
 138 0078 0022     		movs	r2, #0
 139 007a E5E7     		b	.L3
 140              		.cfi_endproc
 141              	.LFE7:
 142              		.size	lwip_standard_chksum, .-lwip_standard_chksum
 143 007c AFF30080 		.section	.text.inet_chksum_pseudo,"ax",%progbits
 144              		.align	2
 145              		.p2align 4,,15
 146              		.global	inet_chksum_pseudo
 147              		.thumb
 148              		.thumb_func
 149              		.type	inet_chksum_pseudo, %function
 150              	inet_chksum_pseudo:
 151              	.LFB8:
 152              		.loc 1 275 0
 153              		.cfi_startproc
 154              		@ args = 4, pretend = 0, frame = 0
 155              		@ frame_needed = 0, uses_anonymous_args = 0
 156              	.LVL20:
 157 0000 2DE9F047 		push	{r4, r5, r6, r7, r8, r9, r10, lr}
 158              		.cfi_def_cfa_offset 32
 159              		.cfi_offset 4, -32
 160              		.cfi_offset 5, -28
 161              		.cfi_offset 6, -24
 162              		.cfi_offset 7, -20
 163              		.cfi_offset 8, -16
 164              		.cfi_offset 9, -12
 165              		.cfi_offset 10, -8
 166              		.cfi_offset 14, -4
 167              		.loc 1 284 0
 168 0004 0446     		mov	r4, r0
 169              		.loc 1 275 0
 170 0006 8A46     		mov	r10, r1
 171 0008 9146     		mov	r9, r2
ARM GAS  /tmp/ccWqbcdi.s 			page 4


 172 000a 9846     		mov	r8, r3
 173 000c BDF82070 		ldrh	r7, [sp, #32]
 174              		.loc 1 284 0
 175 0010 0028     		cmp	r0, #0
 176 0012 3BD0     		beq	.L22
 177              		.loc 1 282 0
 178 0014 0026     		movs	r6, #0
 179              		.loc 1 281 0
 180 0016 3546     		mov	r5, r6
 181              	.LVL21:
 182              	.L21:
 183              		.loc 1 287 0
 184 0018 6068     		ldr	r0, [r4, #4]
 185 001a 6189     		ldrh	r1, [r4, #10]
 186 001c FFF7FEFF 		bl	lwip_standard_chksum
 187              	.LVL22:
 188              		.loc 1 292 0
 189 0020 6389     		ldrh	r3, [r4, #10]
 190              		.loc 1 287 0
 191 0022 2844     		add	r0, r0, r5
 192              	.LVL23:
 193              		.loc 1 291 0
 194 0024 82B2     		uxth	r2, r0
 195              		.loc 1 292 0
 196 0026 DB07     		lsls	r3, r3, #31
 197              		.loc 1 291 0
 198 0028 02EB1045 		add	r5, r2, r0, lsr #16
 199              	.LVL24:
 200              		.loc 1 292 0
 201 002c 07D5     		bpl	.L19
 202              		.loc 1 294 0
 203 002e 2B02     		lsls	r3, r5, #8
 204              		.loc 1 293 0
 205 0030 C6F10106 		rsb	r6, r6, #1
 206              	.LVL25:
 207              		.loc 1 294 0
 208 0034 9BB2     		uxth	r3, r3
 209 0036 C5F30725 		ubfx	r5, r5, #8, #8
 210              	.LVL26:
 211              		.loc 1 293 0
 212 003a F6B2     		uxtb	r6, r6
 213              	.LVL27:
 214              		.loc 1 294 0
 215 003c 1D43     		orrs	r5, r5, r3
 216              	.LVL28:
 217              	.L19:
 218              		.loc 1 284 0
 219 003e 2468     		ldr	r4, [r4]
 220              	.LVL29:
 221 0040 002C     		cmp	r4, #0
 222 0042 E9D1     		bne	.L21
 223              		.loc 1 299 0
 224 0044 26B1     		cbz	r6, .L18
 225              		.loc 1 300 0
 226 0046 2B02     		lsls	r3, r5, #8
 227 0048 9BB2     		uxth	r3, r3
 228 004a C5F30725 		ubfx	r5, r5, #8, #8
ARM GAS  /tmp/ccWqbcdi.s 			page 5


 229              	.LVL30:
 230 004e 1D43     		orrs	r5, r5, r3
 231              	.LVL31:
 232              	.L18:
 233              		.loc 1 302 0
 234 0050 DAF80020 		ldr	r2, [r10]
 235              	.LVL32:
 236              		.loc 1 305 0
 237 0054 D9F80030 		ldr	r3, [r9]
 238              	.LVL33:
 239              		.loc 1 303 0
 240 0058 91B2     		uxth	r1, r2
 241 005a 01EB1242 		add	r2, r1, r2, lsr #16
 242              	.LVL34:
 243              		.loc 1 304 0
 244 005e 12FA83F2 		uxtah	r2, r2, r3
 245              		.loc 1 306 0
 246 0062 02EB1343 		add	r3, r2, r3, lsr #16
 247              	.LVL35:
 248              		.loc 1 308 0
 249 0066 4046     		mov	r0, r8
 250              		.loc 1 307 0
 251 0068 1D44     		add	r5, r5, r3
 252              	.LVL36:
 253              		.loc 1 308 0
 254 006a FFF7FEFF 		bl	lwip_htons
 255              	.LVL37:
 256 006e 0544     		add	r5, r5, r0
 257              	.LVL38:
 258              		.loc 1 309 0
 259 0070 3846     		mov	r0, r7
 260 0072 FFF7FEFF 		bl	lwip_htons
 261              	.LVL39:
 262 0076 2844     		add	r0, r0, r5
 263              	.LVL40:
 264              		.loc 1 313 0
 265 0078 83B2     		uxth	r3, r0
 266 007a 03EB1043 		add	r3, r3, r0, lsr #16
 267              	.LVL41:
 268              		.loc 1 314 0
 269 007e 98B2     		uxth	r0, r3
 270              	.LVL42:
 271 0080 00EB1343 		add	r3, r0, r3, lsr #16
 272              	.LVL43:
 273              		.loc 1 316 0
 274 0084 D843     		mvns	r0, r3
 275              		.loc 1 317 0
 276 0086 80B2     		uxth	r0, r0
 277 0088 BDE8F087 		pop	{r4, r5, r6, r7, r8, r9, r10, pc}
 278              	.LVL44:
 279              	.L22:
 280              		.loc 1 281 0
 281 008c 0546     		mov	r5, r0
 282 008e DFE7     		b	.L18
 283              		.cfi_endproc
 284              	.LFE8:
 285              		.size	inet_chksum_pseudo, .-inet_chksum_pseudo
ARM GAS  /tmp/ccWqbcdi.s 			page 6


 286              		.section	.text.inet_chksum_pseudo_partial,"ax",%progbits
 287              		.align	2
 288              		.p2align 4,,15
 289              		.global	inet_chksum_pseudo_partial
 290              		.thumb
 291              		.thumb_func
 292              		.type	inet_chksum_pseudo_partial, %function
 293              	inet_chksum_pseudo_partial:
 294              	.LFB9:
 295              		.loc 1 335 0
 296              		.cfi_startproc
 297              		@ args = 8, pretend = 0, frame = 8
 298              		@ frame_needed = 0, uses_anonymous_args = 0
 299              	.LVL45:
 300 0000 2DE9F04F 		push	{r4, r5, r6, r7, r8, r9, r10, fp, lr}
 301              		.cfi_def_cfa_offset 36
 302              		.cfi_offset 4, -36
 303              		.cfi_offset 5, -32
 304              		.cfi_offset 6, -28
 305              		.cfi_offset 7, -24
 306              		.cfi_offset 8, -20
 307              		.cfi_offset 9, -16
 308              		.cfi_offset 10, -12
 309              		.cfi_offset 11, -8
 310              		.cfi_offset 14, -4
 311 0004 83B0     		sub	sp, sp, #12
 312              		.cfi_def_cfa_offset 48
 313              		.loc 1 335 0
 314 0006 8B46     		mov	fp, r1
 315 0008 BDF83450 		ldrh	r5, [sp, #52]
 316 000c BDF83040 		ldrh	r4, [sp, #48]
 317 0010 0093     		str	r3, [sp]
 318              		.loc 1 345 0
 319 0012 0028     		cmp	r0, #0
 320 0014 18BF     		it	ne
 321 0016 002D     		cmpne	r5, #0
 322              		.loc 1 335 0
 323 0018 0194     		str	r4, [sp, #4]
 324 001a 9246     		mov	r10, r2
 325              		.loc 1 345 0
 326 001c 0446     		mov	r4, r0
 327 001e 0CBF     		ite	eq
 328 0020 0023     		moveq	r3, #0
 329 0022 0123     		movne	r3, #1
 330              	.LVL46:
 331 0024 53D0     		beq	.L35
 332              		.loc 1 343 0
 333 0026 0026     		movs	r6, #0
 334              		.loc 1 342 0
 335 0028 B046     		mov	r8, r6
 336              		.loc 1 354 0
 337 002a 47F6FE77 		movw	r7, #32766
 338 002e 15E0     		b	.L34
 339              	.LVL47:
 340              	.L31:
 341              		.loc 1 358 0
 342 0030 6289     		ldrh	r2, [r4, #10]
ARM GAS  /tmp/ccWqbcdi.s 			page 7


 343              		.loc 1 357 0
 344 0032 1FFA88F1 		uxth	r1, r8
 345              		.loc 1 358 0
 346 0036 D207     		lsls	r2, r2, #31
 347              		.loc 1 357 0
 348 0038 01EB1848 		add	r8, r1, r8, lsr #16
 349              	.LVL48:
 350              		.loc 1 358 0
 351 003c 09D5     		bpl	.L32
 352              		.loc 1 360 0
 353 003e 4FEA0822 		lsl	r2, r8, #8
 354 0042 92B2     		uxth	r2, r2
 355 0044 C8F30723 		ubfx	r3, r8, #8, #8
 356              		.loc 1 359 0
 357 0048 C6F10106 		rsb	r6, r6, #1
 358              	.LVL49:
 359              		.loc 1 360 0
 360 004c 43EA0208 		orr	r8, r3, r2
 361              	.LVL50:
 362              		.loc 1 359 0
 363 0050 F6B2     		uxtb	r6, r6
 364              	.LVL51:
 365              	.L32:
 366              		.loc 1 345 0
 367 0052 2468     		ldr	r4, [r4]
 368              	.LVL52:
 369 0054 002D     		cmp	r5, #0
 370 0056 18BF     		it	ne
 371 0058 002C     		cmpne	r4, #0
 372 005a 11D0     		beq	.L42
 373              	.LVL53:
 374              	.L34:
 375              		.loc 1 348 0
 376 005c 6289     		ldrh	r2, [r4, #10]
 377              	.LVL54:
 378              		.loc 1 352 0
 379 005e 6068     		ldr	r0, [r4, #4]
 380 0060 9542     		cmp	r5, r2
 381 0062 34BF     		ite	cc
 382 0064 A946     		movcc	r9, r5
 383 0066 9146     		movcs	r9, r2
 384              	.LVL55:
 385 0068 4946     		mov	r1, r9
 386 006a FFF7FEFF 		bl	lwip_standard_chksum
 387              	.LVL56:
 388              		.loc 1 353 0
 389 006e C9EB0505 		rsb	r5, r9, r5
 390              	.LVL57:
 391 0072 ADB2     		uxth	r5, r5
 392              		.loc 1 354 0
 393 0074 BD42     		cmp	r5, r7
 394              		.loc 1 352 0
 395 0076 8044     		add	r8, r8, r0
 396              	.LVL58:
 397              		.loc 1 354 0
 398 0078 DAD9     		bls	.L31
 399              		.loc 1 354 0 is_stmt 0 discriminator 1
ARM GAS  /tmp/ccWqbcdi.s 			page 8


 400 007a FFF7FEFF 		bl	port_halt
 401              	.LVL59:
 402 007e D7E7     		b	.L31
 403              	.L42:
 404              		.loc 1 365 0 is_stmt 1
 405 0080 36B1     		cbz	r6, .L30
 406              		.loc 1 366 0
 407 0082 4FEA0822 		lsl	r2, r8, #8
 408 0086 92B2     		uxth	r2, r2
 409 0088 C8F30723 		ubfx	r3, r8, #8, #8
 410 008c 43EA0208 		orr	r8, r3, r2
 411              	.LVL60:
 412              	.L30:
 413              		.loc 1 368 0
 414 0090 DBF80010 		ldr	r1, [fp]
 415              	.LVL61:
 416              		.loc 1 371 0
 417 0094 DAF80020 		ldr	r2, [r10]
 418              	.LVL62:
 419              		.loc 1 374 0
 420 0098 0098     		ldr	r0, [sp]
 421              		.loc 1 369 0
 422 009a 8CB2     		uxth	r4, r1
 423              	.LVL63:
 424 009c 04EB1144 		add	r4, r4, r1, lsr #16
 425              		.loc 1 370 0
 426 00a0 14FA82F4 		uxtah	r4, r4, r2
 427              		.loc 1 372 0
 428 00a4 04EB1244 		add	r4, r4, r2, lsr #16
 429              		.loc 1 374 0
 430 00a8 FFF7FEFF 		bl	lwip_htons
 431              	.LVL64:
 432              		.loc 1 373 0
 433 00ac 4444     		add	r4, r4, r8
 434              	.LVL65:
 435              		.loc 1 374 0
 436 00ae 0444     		add	r4, r4, r0
 437              	.LVL66:
 438              		.loc 1 375 0
 439 00b0 0198     		ldr	r0, [sp, #4]
 440 00b2 FFF7FEFF 		bl	lwip_htons
 441              	.LVL67:
 442 00b6 2044     		add	r0, r0, r4
 443              	.LVL68:
 444              		.loc 1 379 0
 445 00b8 83B2     		uxth	r3, r0
 446 00ba 03EB1043 		add	r3, r3, r0, lsr #16
 447              	.LVL69:
 448              		.loc 1 380 0
 449 00be 98B2     		uxth	r0, r3
 450              	.LVL70:
 451 00c0 00EB1343 		add	r3, r0, r3, lsr #16
 452              	.LVL71:
 453              		.loc 1 382 0
 454 00c4 D843     		mvns	r0, r3
 455              		.loc 1 383 0
 456 00c6 80B2     		uxth	r0, r0
ARM GAS  /tmp/ccWqbcdi.s 			page 9


 457 00c8 03B0     		add	sp, sp, #12
 458              		@ sp needed
 459 00ca BDE8F08F 		pop	{r4, r5, r6, r7, r8, r9, r10, fp, pc}
 460              	.LVL72:
 461              	.L35:
 462              		.loc 1 342 0
 463 00ce 9846     		mov	r8, r3
 464 00d0 DEE7     		b	.L30
 465              		.cfi_endproc
 466              	.LFE9:
 467              		.size	inet_chksum_pseudo_partial, .-inet_chksum_pseudo_partial
 468 00d2 00BFAFF3 		.section	.text.inet_chksum,"ax",%progbits
 468      0080AFF3 
 468      0080AFF3 
 468      0080
 469              		.align	2
 470              		.p2align 4,,15
 471              		.global	inet_chksum
 472              		.thumb
 473              		.thumb_func
 474              		.type	inet_chksum, %function
 475              	inet_chksum:
 476              	.LFB10:
 477              		.loc 1 397 0
 478              		.cfi_startproc
 479              		@ args = 0, pretend = 0, frame = 0
 480              		@ frame_needed = 0, uses_anonymous_args = 0
 481              	.LVL73:
 482 0000 08B5     		push	{r3, lr}
 483              		.cfi_def_cfa_offset 8
 484              		.cfi_offset 3, -8
 485              		.cfi_offset 14, -4
 486              		.loc 1 398 0
 487 0002 FFF7FEFF 		bl	lwip_standard_chksum
 488              	.LVL74:
 489 0006 C043     		mvns	r0, r0
 490              		.loc 1 399 0
 491 0008 80B2     		uxth	r0, r0
 492 000a 08BD     		pop	{r3, pc}
 493              		.cfi_endproc
 494              	.LFE10:
 495              		.size	inet_chksum, .-inet_chksum
 496 000c AFF30080 		.section	.text.inet_chksum_pbuf,"ax",%progbits
 497              		.align	2
 498              		.p2align 4,,15
 499              		.global	inet_chksum_pbuf
 500              		.thumb
 501              		.thumb_func
 502              		.type	inet_chksum_pbuf, %function
 503              	inet_chksum_pbuf:
 504              	.LFB11:
 505              		.loc 1 410 0
 506              		.cfi_startproc
 507              		@ args = 0, pretend = 0, frame = 0
 508              		@ frame_needed = 0, uses_anonymous_args = 0
 509              	.LVL75:
 510 0000 70B5     		push	{r4, r5, r6, lr}
ARM GAS  /tmp/ccWqbcdi.s 			page 10


 511              		.cfi_def_cfa_offset 16
 512              		.cfi_offset 4, -16
 513              		.cfi_offset 5, -12
 514              		.cfi_offset 6, -8
 515              		.cfi_offset 14, -4
 516              		.loc 1 417 0
 517 0002 0446     		mov	r4, r0
 518 0004 18B3     		cbz	r0, .L50
 519              		.loc 1 416 0
 520 0006 0026     		movs	r6, #0
 521              		.loc 1 415 0
 522 0008 3546     		mov	r5, r6
 523              	.LVL76:
 524              	.L48:
 525              		.loc 1 418 0
 526 000a 6189     		ldrh	r1, [r4, #10]
 527 000c 6068     		ldr	r0, [r4, #4]
 528 000e FFF7FEFF 		bl	lwip_standard_chksum
 529              	.LVL77:
 530              		.loc 1 420 0
 531 0012 6389     		ldrh	r3, [r4, #10]
 532              		.loc 1 418 0
 533 0014 2844     		add	r0, r0, r5
 534              	.LVL78:
 535              		.loc 1 419 0
 536 0016 85B2     		uxth	r5, r0
 537              		.loc 1 420 0
 538 0018 D907     		lsls	r1, r3, #31
 539              		.loc 1 419 0
 540 001a 05EB1045 		add	r5, r5, r0, lsr #16
 541              	.LVL79:
 542              		.loc 1 420 0
 543 001e 07D5     		bpl	.L46
 544              		.loc 1 422 0
 545 0020 2B02     		lsls	r3, r5, #8
 546              		.loc 1 421 0
 547 0022 C6F10106 		rsb	r6, r6, #1
 548              	.LVL80:
 549              		.loc 1 422 0
 550 0026 9BB2     		uxth	r3, r3
 551 0028 C5F30725 		ubfx	r5, r5, #8, #8
 552              	.LVL81:
 553              		.loc 1 421 0
 554 002c F6B2     		uxtb	r6, r6
 555              	.LVL82:
 556              		.loc 1 422 0
 557 002e 1D43     		orrs	r5, r5, r3
 558              	.LVL83:
 559              	.L46:
 560              		.loc 1 417 0
 561 0030 2468     		ldr	r4, [r4]
 562              	.LVL84:
 563 0032 002C     		cmp	r4, #0
 564 0034 E9D1     		bne	.L48
 565              		.loc 1 426 0
 566 0036 3EB1     		cbz	r6, .L54
 567              		.loc 1 427 0
ARM GAS  /tmp/ccWqbcdi.s 			page 11


 568 0038 2B02     		lsls	r3, r5, #8
 569 003a 9BB2     		uxth	r3, r3
 570 003c C5F30720 		ubfx	r0, r5, #8, #8
 571              	.LVL85:
 572 0040 1843     		orrs	r0, r0, r3
 573              	.LVL86:
 574 0042 C043     		mvns	r0, r0
 575              	.LVL87:
 576 0044 80B2     		uxth	r0, r0
 577              	.LVL88:
 578 0046 70BD     		pop	{r4, r5, r6, pc}
 579              	.LVL89:
 580              	.L54:
 581 0048 E843     		mvns	r0, r5
 582 004a 80B2     		uxth	r0, r0
 583 004c 70BD     		pop	{r4, r5, r6, pc}
 584              	.LVL90:
 585              	.L50:
 586              		.loc 1 417 0
 587 004e 4FF6FF70 		movw	r0, #65535
 588              	.LVL91:
 589              		.loc 1 430 0
 590 0052 70BD     		pop	{r4, r5, r6, pc}
 591              		.cfi_endproc
 592              	.LFE11:
 593              		.size	inet_chksum_pbuf, .-inet_chksum_pbuf
 594 0054 AFF30080 		.text
 594      AFF30080 
 594      AFF30080 
 595              	.Letext0:
 596              		.file 2 "/usr/include/newlib/machine/_default_types.h"
 597              		.file 3 "/usr/include/newlib/stdint.h"
 598              		.file 4 "../../os/various/lwip_bindings/arch/cc.h"
 599              		.file 5 "../../ext/lwip/src/include/lwip/pbuf.h"
 600              		.file 6 "../../ext/lwip/src/include/ipv4/lwip/ip_addr.h"
 601              		.file 7 "../../ext/lwip/src/include/lwip/def.h"
 602              		.file 8 "../../os/ports/GCC/ARMCMx/chcore_v7m.h"
 603              		.section	.debug_info,"",%progbits
 604              	.Ldebug_info0:
 605 0000 B1040000 		.4byte	0x4b1
 606 0004 0400     		.2byte	0x4
 607 0006 00000000 		.4byte	.Ldebug_abbrev0
 608 000a 04       		.byte	0x4
 609 000b 01       		.uleb128 0x1
 610 000c DC010000 		.4byte	.LASF42
 611 0010 01       		.byte	0x1
 612 0011 45000000 		.4byte	.LASF43
 613 0015 84020000 		.4byte	.LASF44
 614 0019 00000000 		.4byte	.Ldebug_ranges0+0
 615 001d 00000000 		.4byte	0
 616 0021 00000000 		.4byte	.Ldebug_line0
 617 0025 02       		.uleb128 0x2
 618 0026 04       		.byte	0x4
 619 0027 05       		.byte	0x5
 620 0028 696E7400 		.ascii	"int\000"
 621 002c 03       		.uleb128 0x3
 622 002d 04       		.byte	0x4
ARM GAS  /tmp/ccWqbcdi.s 			page 12


 623 002e 07       		.byte	0x7
 624 002f 31010000 		.4byte	.LASF0
 625 0033 03       		.uleb128 0x3
 626 0034 01       		.byte	0x1
 627 0035 06       		.byte	0x6
 628 0036 AE000000 		.4byte	.LASF1
 629 003a 04       		.uleb128 0x4
 630 003b 11000000 		.4byte	.LASF4
 631 003f 02       		.byte	0x2
 632 0040 1C       		.byte	0x1c
 633 0041 45000000 		.4byte	0x45
 634 0045 03       		.uleb128 0x3
 635 0046 01       		.byte	0x1
 636 0047 08       		.byte	0x8
 637 0048 C2000000 		.4byte	.LASF2
 638 004c 03       		.uleb128 0x3
 639 004d 02       		.byte	0x2
 640 004e 05       		.byte	0x5
 641 004f C9010000 		.4byte	.LASF3
 642 0053 04       		.uleb128 0x4
 643 0054 FD000000 		.4byte	.LASF5
 644 0058 02       		.byte	0x2
 645 0059 26       		.byte	0x26
 646 005a 5E000000 		.4byte	0x5e
 647 005e 03       		.uleb128 0x3
 648 005f 02       		.byte	0x2
 649 0060 07       		.byte	0x7
 650 0061 70000000 		.4byte	.LASF6
 651 0065 03       		.uleb128 0x3
 652 0066 04       		.byte	0x4
 653 0067 05       		.byte	0x5
 654 0068 CB020000 		.4byte	.LASF7
 655 006c 04       		.uleb128 0x4
 656 006d 0E010000 		.4byte	.LASF8
 657 0071 02       		.byte	0x2
 658 0072 38       		.byte	0x38
 659 0073 77000000 		.4byte	0x77
 660 0077 03       		.uleb128 0x3
 661 0078 04       		.byte	0x4
 662 0079 07       		.byte	0x7
 663 007a D0000000 		.4byte	.LASF9
 664 007e 03       		.uleb128 0x3
 665 007f 08       		.byte	0x8
 666 0080 05       		.byte	0x5
 667 0081 B1010000 		.4byte	.LASF10
 668 0085 03       		.uleb128 0x3
 669 0086 08       		.byte	0x8
 670 0087 07       		.byte	0x7
 671 0088 5F010000 		.4byte	.LASF11
 672 008c 04       		.uleb128 0x4
 673 008d 76010000 		.4byte	.LASF12
 674 0091 03       		.byte	0x3
 675 0092 2A       		.byte	0x2a
 676 0093 3A000000 		.4byte	0x3a
 677 0097 04       		.uleb128 0x4
 678 0098 D3010000 		.4byte	.LASF13
 679 009c 03       		.byte	0x3
ARM GAS  /tmp/ccWqbcdi.s 			page 13


 680 009d 36       		.byte	0x36
 681 009e 53000000 		.4byte	0x53
 682 00a2 04       		.uleb128 0x4
 683 00a3 EC000000 		.4byte	.LASF14
 684 00a7 03       		.byte	0x3
 685 00a8 42       		.byte	0x42
 686 00a9 6C000000 		.4byte	0x6c
 687 00ad 03       		.uleb128 0x3
 688 00ae 01       		.byte	0x1
 689 00af 02       		.byte	0x2
 690 00b0 DE020000 		.4byte	.LASF15
 691 00b4 05       		.uleb128 0x5
 692 00b5 04       		.byte	0x4
 693 00b6 03       		.uleb128 0x3
 694 00b7 04       		.byte	0x4
 695 00b8 07       		.byte	0x7
 696 00b9 A8010000 		.4byte	.LASF16
 697 00bd 03       		.uleb128 0x3
 698 00be 01       		.byte	0x1
 699 00bf 08       		.byte	0x8
 700 00c0 BF010000 		.4byte	.LASF17
 701 00c4 04       		.uleb128 0x4
 702 00c5 7E010000 		.4byte	.LASF18
 703 00c9 04       		.byte	0x4
 704 00ca 38       		.byte	0x38
 705 00cb 8C000000 		.4byte	0x8c
 706 00cf 04       		.uleb128 0x4
 707 00d0 08010000 		.4byte	.LASF19
 708 00d4 04       		.byte	0x4
 709 00d5 3A       		.byte	0x3a
 710 00d6 97000000 		.4byte	0x97
 711 00da 04       		.uleb128 0x4
 712 00db 19010000 		.4byte	.LASF20
 713 00df 04       		.byte	0x4
 714 00e0 3C       		.byte	0x3c
 715 00e1 A2000000 		.4byte	0xa2
 716 00e5 04       		.uleb128 0x4
 717 00e6 20000000 		.4byte	.LASF21
 718 00ea 04       		.byte	0x4
 719 00eb 3E       		.byte	0x3e
 720 00ec A2000000 		.4byte	0xa2
 721 00f0 06       		.uleb128 0x6
 722 00f1 E7000000 		.4byte	.LASF27
 723 00f5 10       		.byte	0x10
 724 00f6 05       		.byte	0x5
 725 00f7 4F       		.byte	0x4f
 726 00f8 51010000 		.4byte	0x151
 727 00fc 07       		.uleb128 0x7
 728 00fd 1B000000 		.4byte	.LASF22
 729 0101 05       		.byte	0x5
 730 0102 51       		.byte	0x51
 731 0103 51010000 		.4byte	0x151
 732 0107 00       		.byte	0
 733 0108 07       		.uleb128 0x7
 734 0109 96010000 		.4byte	.LASF23
 735 010d 05       		.byte	0x5
 736 010e 54       		.byte	0x54
ARM GAS  /tmp/ccWqbcdi.s 			page 14


 737 010f B4000000 		.4byte	0xb4
 738 0113 04       		.byte	0x4
 739 0114 07       		.uleb128 0x7
 740 0115 1F010000 		.4byte	.LASF24
 741 0119 05       		.byte	0x5
 742 011a 5D       		.byte	0x5d
 743 011b CF000000 		.4byte	0xcf
 744 011f 08       		.byte	0x8
 745 0120 08       		.uleb128 0x8
 746 0121 6C656E00 		.ascii	"len\000"
 747 0125 05       		.byte	0x5
 748 0126 60       		.byte	0x60
 749 0127 CF000000 		.4byte	0xcf
 750 012b 0A       		.byte	0xa
 751 012c 07       		.uleb128 0x7
 752 012d C4010000 		.4byte	.LASF25
 753 0131 05       		.byte	0x5
 754 0132 63       		.byte	0x63
 755 0133 C4000000 		.4byte	0xc4
 756 0137 0C       		.byte	0xc
 757 0138 07       		.uleb128 0x7
 758 0139 3E010000 		.4byte	.LASF26
 759 013d 05       		.byte	0x5
 760 013e 66       		.byte	0x66
 761 013f C4000000 		.4byte	0xc4
 762 0143 0D       		.byte	0xd
 763 0144 08       		.uleb128 0x8
 764 0145 72656600 		.ascii	"ref\000"
 765 0149 05       		.byte	0x5
 766 014a 6D       		.byte	0x6d
 767 014b CF000000 		.4byte	0xcf
 768 014f 0E       		.byte	0xe
 769 0150 00       		.byte	0
 770 0151 09       		.uleb128 0x9
 771 0152 04       		.byte	0x4
 772 0153 F0000000 		.4byte	0xf0
 773 0157 06       		.uleb128 0x6
 774 0158 36000000 		.4byte	.LASF28
 775 015c 04       		.byte	0x4
 776 015d 06       		.byte	0x6
 777 015e 2C       		.byte	0x2c
 778 015f 70010000 		.4byte	0x170
 779 0163 07       		.uleb128 0x7
 780 0164 E2000000 		.4byte	.LASF29
 781 0168 06       		.byte	0x6
 782 0169 2D       		.byte	0x2d
 783 016a DA000000 		.4byte	0xda
 784 016e 00       		.byte	0
 785 016f 00       		.byte	0
 786 0170 04       		.uleb128 0x4
 787 0171 27010000 		.4byte	.LASF30
 788 0175 06       		.byte	0x6
 789 0176 40       		.byte	0x40
 790 0177 57010000 		.4byte	0x157
 791 017b 0A       		.uleb128 0xa
 792 017c 83000000 		.4byte	.LASF45
 793 0180 01       		.byte	0x1
ARM GAS  /tmp/ccWqbcdi.s 			page 15


 794 0181 87       		.byte	0x87
 795 0182 CF000000 		.4byte	0xcf
 796 0186 00000000 		.4byte	.LFB7
 797 018a 7C000000 		.4byte	.LFE7-.LFB7
 798 018e 01       		.uleb128 0x1
 799 018f 9C       		.byte	0x9c
 800 0190 F9010000 		.4byte	0x1f9
 801 0194 0B       		.uleb128 0xb
 802 0195 F5000000 		.4byte	.LASF31
 803 0199 01       		.byte	0x1
 804 019a 87       		.byte	0x87
 805 019b B4000000 		.4byte	0xb4
 806 019f 00000000 		.4byte	.LLST0
 807 01a3 0C       		.uleb128 0xc
 808 01a4 6C656E00 		.ascii	"len\000"
 809 01a8 01       		.byte	0x1
 810 01a9 87       		.byte	0x87
 811 01aa 25000000 		.4byte	0x25
 812 01ae 21000000 		.4byte	.LLST1
 813 01b2 0D       		.uleb128 0xd
 814 01b3 706200   		.ascii	"pb\000"
 815 01b6 01       		.byte	0x1
 816 01b7 89       		.byte	0x89
 817 01b8 F9010000 		.4byte	0x1f9
 818 01bc 6D000000 		.4byte	.LLST2
 819 01c0 0D       		.uleb128 0xd
 820 01c1 707300   		.ascii	"ps\000"
 821 01c4 01       		.byte	0x1
 822 01c5 8A       		.byte	0x8a
 823 01c6 FF010000 		.4byte	0x1ff
 824 01ca A3000000 		.4byte	.LLST3
 825 01ce 0E       		.uleb128 0xe
 826 01cf 7400     		.ascii	"t\000"
 827 01d1 01       		.byte	0x1
 828 01d2 8A       		.byte	0x8a
 829 01d3 CF000000 		.4byte	0xcf
 830 01d7 02       		.uleb128 0x2
 831 01d8 91       		.byte	0x91
 832 01d9 6E       		.sleb128 -18
 833 01da 0D       		.uleb128 0xd
 834 01db 73756D00 		.ascii	"sum\000"
 835 01df 01       		.byte	0x1
 836 01e0 8B       		.byte	0x8b
 837 01e1 DA000000 		.4byte	0xda
 838 01e5 E4000000 		.4byte	.LLST4
 839 01e9 0D       		.uleb128 0xd
 840 01ea 6F646400 		.ascii	"odd\000"
 841 01ee 01       		.byte	0x1
 842 01ef 8C       		.byte	0x8c
 843 01f0 25000000 		.4byte	0x25
 844 01f4 46010000 		.4byte	.LLST5
 845 01f8 00       		.byte	0
 846 01f9 09       		.uleb128 0x9
 847 01fa 04       		.byte	0x4
 848 01fb C4000000 		.4byte	0xc4
 849 01ff 09       		.uleb128 0x9
 850 0200 04       		.byte	0x4
ARM GAS  /tmp/ccWqbcdi.s 			page 16


 851 0201 CF000000 		.4byte	0xcf
 852 0205 0F       		.uleb128 0xf
 853 0206 83010000 		.4byte	.LASF36
 854 020a 01       		.byte	0x1
 855 020b 1001     		.2byte	0x110
 856 020d CF000000 		.4byte	0xcf
 857 0211 00000000 		.4byte	.LFB8
 858 0215 90000000 		.4byte	.LFE8-.LFB8
 859 0219 01       		.uleb128 0x1
 860 021a 9C       		.byte	0x9c
 861 021b D9020000 		.4byte	0x2d9
 862 021f 10       		.uleb128 0x10
 863 0220 7000     		.ascii	"p\000"
 864 0222 01       		.byte	0x1
 865 0223 1001     		.2byte	0x110
 866 0225 51010000 		.4byte	0x151
 867 0229 74010000 		.4byte	.LLST6
 868 022d 10       		.uleb128 0x10
 869 022e 73726300 		.ascii	"src\000"
 870 0232 01       		.byte	0x1
 871 0233 1101     		.2byte	0x111
 872 0235 D9020000 		.4byte	0x2d9
 873 0239 A0010000 		.4byte	.LLST7
 874 023d 11       		.uleb128 0x11
 875 023e EA020000 		.4byte	.LASF32
 876 0242 01       		.byte	0x1
 877 0243 1101     		.2byte	0x111
 878 0245 D9020000 		.4byte	0x2d9
 879 0249 C9010000 		.4byte	.LLST8
 880 024d 11       		.uleb128 0x11
 881 024e E4020000 		.4byte	.LASF33
 882 0252 01       		.byte	0x1
 883 0253 1201     		.2byte	0x112
 884 0255 C4000000 		.4byte	0xc4
 885 0259 F2010000 		.4byte	.LLST9
 886 025d 11       		.uleb128 0x11
 887 025e D4020000 		.4byte	.LASF34
 888 0262 01       		.byte	0x1
 889 0263 1201     		.2byte	0x112
 890 0265 CF000000 		.4byte	0xcf
 891 0269 1E020000 		.4byte	.LLST10
 892 026d 12       		.uleb128 0x12
 893 026e 61636300 		.ascii	"acc\000"
 894 0272 01       		.byte	0x1
 895 0273 1401     		.2byte	0x114
 896 0275 DA000000 		.4byte	0xda
 897 0279 3E020000 		.4byte	.LLST11
 898 027d 13       		.uleb128 0x13
 899 027e E2000000 		.4byte	.LASF29
 900 0282 01       		.byte	0x1
 901 0283 1501     		.2byte	0x115
 902 0285 DA000000 		.4byte	0xda
 903 0289 63030000 		.4byte	.LLST12
 904 028d 12       		.uleb128 0x12
 905 028e 7100     		.ascii	"q\000"
 906 0290 01       		.byte	0x1
 907 0291 1601     		.2byte	0x116
ARM GAS  /tmp/ccWqbcdi.s 			page 17


 908 0293 51010000 		.4byte	0x151
 909 0297 8D030000 		.4byte	.LLST13
 910 029b 13       		.uleb128 0x13
 911 029c BA000000 		.4byte	.LASF35
 912 02a0 01       		.byte	0x1
 913 02a1 1701     		.2byte	0x117
 914 02a3 C4000000 		.4byte	0xc4
 915 02a7 B6030000 		.4byte	.LLST14
 916 02ab 14       		.uleb128 0x14
 917 02ac 20000000 		.4byte	.LVL22
 918 02b0 7B010000 		.4byte	0x17b
 919 02b4 15       		.uleb128 0x15
 920 02b5 6E000000 		.4byte	.LVL37
 921 02b9 97040000 		.4byte	0x497
 922 02bd C8020000 		.4byte	0x2c8
 923 02c1 16       		.uleb128 0x16
 924 02c2 01       		.uleb128 0x1
 925 02c3 50       		.byte	0x50
 926 02c4 02       		.uleb128 0x2
 927 02c5 78       		.byte	0x78
 928 02c6 00       		.sleb128 0
 929 02c7 00       		.byte	0
 930 02c8 17       		.uleb128 0x17
 931 02c9 76000000 		.4byte	.LVL39
 932 02cd 97040000 		.4byte	0x497
 933 02d1 16       		.uleb128 0x16
 934 02d2 01       		.uleb128 0x1
 935 02d3 50       		.byte	0x50
 936 02d4 02       		.uleb128 0x2
 937 02d5 77       		.byte	0x77
 938 02d6 00       		.sleb128 0
 939 02d7 00       		.byte	0
 940 02d8 00       		.byte	0
 941 02d9 09       		.uleb128 0x9
 942 02da 04       		.byte	0x4
 943 02db 70010000 		.4byte	0x170
 944 02df 0F       		.uleb128 0xf
 945 02e0 44010000 		.4byte	.LASF37
 946 02e4 01       		.byte	0x1
 947 02e5 4C01     		.2byte	0x14c
 948 02e7 CF000000 		.4byte	0xcf
 949 02eb 00000000 		.4byte	.LFB9
 950 02ef D2000000 		.4byte	.LFE9-.LFB9
 951 02f3 01       		.uleb128 0x1
 952 02f4 9C       		.byte	0x9c
 953 02f5 EB030000 		.4byte	0x3eb
 954 02f9 10       		.uleb128 0x10
 955 02fa 7000     		.ascii	"p\000"
 956 02fc 01       		.byte	0x1
 957 02fd 4C01     		.2byte	0x14c
 958 02ff 51010000 		.4byte	0x151
 959 0303 EC030000 		.4byte	.LLST15
 960 0307 10       		.uleb128 0x10
 961 0308 73726300 		.ascii	"src\000"
 962 030c 01       		.byte	0x1
 963 030d 4D01     		.2byte	0x14d
 964 030f D9020000 		.4byte	0x2d9
ARM GAS  /tmp/ccWqbcdi.s 			page 18


 965 0313 18040000 		.4byte	.LLST16
 966 0317 11       		.uleb128 0x11
 967 0318 EA020000 		.4byte	.LASF32
 968 031c 01       		.byte	0x1
 969 031d 4D01     		.2byte	0x14d
 970 031f D9020000 		.4byte	0x2d9
 971 0323 41040000 		.4byte	.LLST17
 972 0327 11       		.uleb128 0x11
 973 0328 E4020000 		.4byte	.LASF33
 974 032c 01       		.byte	0x1
 975 032d 4E01     		.2byte	0x14e
 976 032f C4000000 		.4byte	0xc4
 977 0333 6A040000 		.4byte	.LLST18
 978 0337 11       		.uleb128 0x11
 979 0338 D4020000 		.4byte	.LASF34
 980 033c 01       		.byte	0x1
 981 033d 4E01     		.2byte	0x14e
 982 033f CF000000 		.4byte	0xcf
 983 0343 8B040000 		.4byte	.LLST19
 984 0347 11       		.uleb128 0x11
 985 0348 A3000000 		.4byte	.LASF38
 986 034c 01       		.byte	0x1
 987 034d 4E01     		.2byte	0x14e
 988 034f CF000000 		.4byte	0xcf
 989 0353 AB040000 		.4byte	.LLST20
 990 0357 12       		.uleb128 0x12
 991 0358 61636300 		.ascii	"acc\000"
 992 035c 01       		.byte	0x1
 993 035d 5001     		.2byte	0x150
 994 035f DA000000 		.4byte	0xda
 995 0363 E1040000 		.4byte	.LLST21
 996 0367 13       		.uleb128 0x13
 997 0368 E2000000 		.4byte	.LASF29
 998 036c 01       		.byte	0x1
 999 036d 5101     		.2byte	0x151
 1000 036f DA000000 		.4byte	0xda
 1001 0373 8E050000 		.4byte	.LLST22
 1002 0377 12       		.uleb128 0x12
 1003 0378 7100     		.ascii	"q\000"
 1004 037a 01       		.byte	0x1
 1005 037b 5201     		.2byte	0x152
 1006 037d 51010000 		.4byte	0x151
 1007 0381 AC050000 		.4byte	.LLST23
 1008 0385 13       		.uleb128 0x13
 1009 0386 BA000000 		.4byte	.LASF35
 1010 038a 01       		.byte	0x1
 1011 038b 5301     		.2byte	0x153
 1012 038d C4000000 		.4byte	0xc4
 1013 0391 D5050000 		.4byte	.LLST24
 1014 0395 13       		.uleb128 0x13
 1015 0396 3E000000 		.4byte	.LASF39
 1016 039a 01       		.byte	0x1
 1017 039b 5401     		.2byte	0x154
 1018 039d CF000000 		.4byte	0xcf
 1019 03a1 0B060000 		.4byte	.LLST25
 1020 03a5 15       		.uleb128 0x15
 1021 03a6 6E000000 		.4byte	.LVL56
ARM GAS  /tmp/ccWqbcdi.s 			page 19


 1022 03aa 7B010000 		.4byte	0x17b
 1023 03ae B9030000 		.4byte	0x3b9
 1024 03b2 16       		.uleb128 0x16
 1025 03b3 01       		.uleb128 0x1
 1026 03b4 51       		.byte	0x51
 1027 03b5 02       		.uleb128 0x2
 1028 03b6 79       		.byte	0x79
 1029 03b7 00       		.sleb128 0
 1030 03b8 00       		.byte	0
 1031 03b9 14       		.uleb128 0x14
 1032 03ba 7E000000 		.4byte	.LVL59
 1033 03be AC040000 		.4byte	0x4ac
 1034 03c2 15       		.uleb128 0x15
 1035 03c3 AC000000 		.4byte	.LVL64
 1036 03c7 97040000 		.4byte	0x497
 1037 03cb D8030000 		.4byte	0x3d8
 1038 03cf 16       		.uleb128 0x16
 1039 03d0 01       		.uleb128 0x1
 1040 03d1 50       		.byte	0x50
 1041 03d2 04       		.uleb128 0x4
 1042 03d3 7D       		.byte	0x7d
 1043 03d4 00       		.sleb128 0
 1044 03d5 94       		.byte	0x94
 1045 03d6 02       		.byte	0x2
 1046 03d7 00       		.byte	0
 1047 03d8 17       		.uleb128 0x17
 1048 03d9 B6000000 		.4byte	.LVL67
 1049 03dd 97040000 		.4byte	0x497
 1050 03e1 16       		.uleb128 0x16
 1051 03e2 01       		.uleb128 0x1
 1052 03e3 50       		.byte	0x50
 1053 03e4 04       		.uleb128 0x4
 1054 03e5 91       		.byte	0x91
 1055 03e6 54       		.sleb128 -44
 1056 03e7 94       		.byte	0x94
 1057 03e8 02       		.byte	0x2
 1058 03e9 00       		.byte	0
 1059 03ea 00       		.byte	0
 1060 03eb 0F       		.uleb128 0xf
 1061 03ec 2A000000 		.4byte	.LASF40
 1062 03f0 01       		.byte	0x1
 1063 03f1 8C01     		.2byte	0x18c
 1064 03f3 CF000000 		.4byte	0xcf
 1065 03f7 00000000 		.4byte	.LFB10
 1066 03fb 0C000000 		.4byte	.LFE10-.LFB10
 1067 03ff 01       		.uleb128 0x1
 1068 0400 9C       		.byte	0x9c
 1069 0401 37040000 		.4byte	0x437
 1070 0405 11       		.uleb128 0x11
 1071 0406 F5000000 		.4byte	.LASF31
 1072 040a 01       		.byte	0x1
 1073 040b 8C01     		.2byte	0x18c
 1074 040d B4000000 		.4byte	0xb4
 1075 0411 35060000 		.4byte	.LLST26
 1076 0415 10       		.uleb128 0x10
 1077 0416 6C656E00 		.ascii	"len\000"
 1078 041a 01       		.byte	0x1
ARM GAS  /tmp/ccWqbcdi.s 			page 20


 1079 041b 8C01     		.2byte	0x18c
 1080 041d CF000000 		.4byte	0xcf
 1081 0421 56060000 		.4byte	.LLST27
 1082 0425 17       		.uleb128 0x17
 1083 0426 06000000 		.4byte	.LVL74
 1084 042a 7B010000 		.4byte	0x17b
 1085 042e 16       		.uleb128 0x16
 1086 042f 01       		.uleb128 0x1
 1087 0430 50       		.byte	0x50
 1088 0431 03       		.uleb128 0x3
 1089 0432 F3       		.byte	0xf3
 1090 0433 01       		.uleb128 0x1
 1091 0434 50       		.byte	0x50
 1092 0435 00       		.byte	0
 1093 0436 00       		.byte	0
 1094 0437 0F       		.uleb128 0xf
 1095 0438 00000000 		.4byte	.LASF41
 1096 043c 01       		.byte	0x1
 1097 043d 9901     		.2byte	0x199
 1098 043f CF000000 		.4byte	0xcf
 1099 0443 00000000 		.4byte	.LFB11
 1100 0447 54000000 		.4byte	.LFE11-.LFB11
 1101 044b 01       		.uleb128 0x1
 1102 044c 9C       		.byte	0x9c
 1103 044d 97040000 		.4byte	0x497
 1104 0451 10       		.uleb128 0x10
 1105 0452 7000     		.ascii	"p\000"
 1106 0454 01       		.byte	0x1
 1107 0455 9901     		.2byte	0x199
 1108 0457 51010000 		.4byte	0x151
 1109 045b 77060000 		.4byte	.LLST28
 1110 045f 12       		.uleb128 0x12
 1111 0460 61636300 		.ascii	"acc\000"
 1112 0464 01       		.byte	0x1
 1113 0465 9B01     		.2byte	0x19b
 1114 0467 DA000000 		.4byte	0xda
 1115 046b AE060000 		.4byte	.LLST29
 1116 046f 12       		.uleb128 0x12
 1117 0470 7100     		.ascii	"q\000"
 1118 0472 01       		.byte	0x1
 1119 0473 9C01     		.2byte	0x19c
 1120 0475 51010000 		.4byte	0x151
 1121 0479 5A070000 		.4byte	.LLST30
 1122 047d 13       		.uleb128 0x13
 1123 047e BA000000 		.4byte	.LASF35
 1124 0482 01       		.byte	0x1
 1125 0483 9D01     		.2byte	0x19d
 1126 0485 C4000000 		.4byte	0xc4
 1127 0489 8E070000 		.4byte	.LLST31
 1128 048d 14       		.uleb128 0x14
 1129 048e 12000000 		.4byte	.LVL77
 1130 0492 7B010000 		.4byte	0x17b
 1131 0496 00       		.byte	0
 1132 0497 18       		.uleb128 0x18
 1133 0498 98000000 		.4byte	.LASF46
 1134 049c 07       		.byte	0x7
 1135 049d 63       		.byte	0x63
ARM GAS  /tmp/ccWqbcdi.s 			page 21


 1136 049e CF000000 		.4byte	0xcf
 1137 04a2 AC040000 		.4byte	0x4ac
 1138 04a6 19       		.uleb128 0x19
 1139 04a7 CF000000 		.4byte	0xcf
 1140 04ab 00       		.byte	0
 1141 04ac 1A       		.uleb128 0x1a
 1142 04ad 9E010000 		.4byte	.LASF47
 1143 04b1 08       		.byte	0x8
 1144 04b2 0102     		.2byte	0x201
 1145 04b4 00       		.byte	0
 1146              		.section	.debug_abbrev,"",%progbits
 1147              	.Ldebug_abbrev0:
 1148 0000 01       		.uleb128 0x1
 1149 0001 11       		.uleb128 0x11
 1150 0002 01       		.byte	0x1
 1151 0003 25       		.uleb128 0x25
 1152 0004 0E       		.uleb128 0xe
 1153 0005 13       		.uleb128 0x13
 1154 0006 0B       		.uleb128 0xb
 1155 0007 03       		.uleb128 0x3
 1156 0008 0E       		.uleb128 0xe
 1157 0009 1B       		.uleb128 0x1b
 1158 000a 0E       		.uleb128 0xe
 1159 000b 55       		.uleb128 0x55
 1160 000c 17       		.uleb128 0x17
 1161 000d 11       		.uleb128 0x11
 1162 000e 01       		.uleb128 0x1
 1163 000f 10       		.uleb128 0x10
 1164 0010 17       		.uleb128 0x17
 1165 0011 00       		.byte	0
 1166 0012 00       		.byte	0
 1167 0013 02       		.uleb128 0x2
 1168 0014 24       		.uleb128 0x24
 1169 0015 00       		.byte	0
 1170 0016 0B       		.uleb128 0xb
 1171 0017 0B       		.uleb128 0xb
 1172 0018 3E       		.uleb128 0x3e
 1173 0019 0B       		.uleb128 0xb
 1174 001a 03       		.uleb128 0x3
 1175 001b 08       		.uleb128 0x8
 1176 001c 00       		.byte	0
 1177 001d 00       		.byte	0
 1178 001e 03       		.uleb128 0x3
 1179 001f 24       		.uleb128 0x24
 1180 0020 00       		.byte	0
 1181 0021 0B       		.uleb128 0xb
 1182 0022 0B       		.uleb128 0xb
 1183 0023 3E       		.uleb128 0x3e
 1184 0024 0B       		.uleb128 0xb
 1185 0025 03       		.uleb128 0x3
 1186 0026 0E       		.uleb128 0xe
 1187 0027 00       		.byte	0
 1188 0028 00       		.byte	0
 1189 0029 04       		.uleb128 0x4
 1190 002a 16       		.uleb128 0x16
 1191 002b 00       		.byte	0
 1192 002c 03       		.uleb128 0x3
ARM GAS  /tmp/ccWqbcdi.s 			page 22


 1193 002d 0E       		.uleb128 0xe
 1194 002e 3A       		.uleb128 0x3a
 1195 002f 0B       		.uleb128 0xb
 1196 0030 3B       		.uleb128 0x3b
 1197 0031 0B       		.uleb128 0xb
 1198 0032 49       		.uleb128 0x49
 1199 0033 13       		.uleb128 0x13
 1200 0034 00       		.byte	0
 1201 0035 00       		.byte	0
 1202 0036 05       		.uleb128 0x5
 1203 0037 0F       		.uleb128 0xf
 1204 0038 00       		.byte	0
 1205 0039 0B       		.uleb128 0xb
 1206 003a 0B       		.uleb128 0xb
 1207 003b 00       		.byte	0
 1208 003c 00       		.byte	0
 1209 003d 06       		.uleb128 0x6
 1210 003e 13       		.uleb128 0x13
 1211 003f 01       		.byte	0x1
 1212 0040 03       		.uleb128 0x3
 1213 0041 0E       		.uleb128 0xe
 1214 0042 0B       		.uleb128 0xb
 1215 0043 0B       		.uleb128 0xb
 1216 0044 3A       		.uleb128 0x3a
 1217 0045 0B       		.uleb128 0xb
 1218 0046 3B       		.uleb128 0x3b
 1219 0047 0B       		.uleb128 0xb
 1220 0048 01       		.uleb128 0x1
 1221 0049 13       		.uleb128 0x13
 1222 004a 00       		.byte	0
 1223 004b 00       		.byte	0
 1224 004c 07       		.uleb128 0x7
 1225 004d 0D       		.uleb128 0xd
 1226 004e 00       		.byte	0
 1227 004f 03       		.uleb128 0x3
 1228 0050 0E       		.uleb128 0xe
 1229 0051 3A       		.uleb128 0x3a
 1230 0052 0B       		.uleb128 0xb
 1231 0053 3B       		.uleb128 0x3b
 1232 0054 0B       		.uleb128 0xb
 1233 0055 49       		.uleb128 0x49
 1234 0056 13       		.uleb128 0x13
 1235 0057 38       		.uleb128 0x38
 1236 0058 0B       		.uleb128 0xb
 1237 0059 00       		.byte	0
 1238 005a 00       		.byte	0
 1239 005b 08       		.uleb128 0x8
 1240 005c 0D       		.uleb128 0xd
 1241 005d 00       		.byte	0
 1242 005e 03       		.uleb128 0x3
 1243 005f 08       		.uleb128 0x8
 1244 0060 3A       		.uleb128 0x3a
 1245 0061 0B       		.uleb128 0xb
 1246 0062 3B       		.uleb128 0x3b
 1247 0063 0B       		.uleb128 0xb
 1248 0064 49       		.uleb128 0x49
 1249 0065 13       		.uleb128 0x13
ARM GAS  /tmp/ccWqbcdi.s 			page 23


 1250 0066 38       		.uleb128 0x38
 1251 0067 0B       		.uleb128 0xb
 1252 0068 00       		.byte	0
 1253 0069 00       		.byte	0
 1254 006a 09       		.uleb128 0x9
 1255 006b 0F       		.uleb128 0xf
 1256 006c 00       		.byte	0
 1257 006d 0B       		.uleb128 0xb
 1258 006e 0B       		.uleb128 0xb
 1259 006f 49       		.uleb128 0x49
 1260 0070 13       		.uleb128 0x13
 1261 0071 00       		.byte	0
 1262 0072 00       		.byte	0
 1263 0073 0A       		.uleb128 0xa
 1264 0074 2E       		.uleb128 0x2e
 1265 0075 01       		.byte	0x1
 1266 0076 03       		.uleb128 0x3
 1267 0077 0E       		.uleb128 0xe
 1268 0078 3A       		.uleb128 0x3a
 1269 0079 0B       		.uleb128 0xb
 1270 007a 3B       		.uleb128 0x3b
 1271 007b 0B       		.uleb128 0xb
 1272 007c 27       		.uleb128 0x27
 1273 007d 19       		.uleb128 0x19
 1274 007e 49       		.uleb128 0x49
 1275 007f 13       		.uleb128 0x13
 1276 0080 11       		.uleb128 0x11
 1277 0081 01       		.uleb128 0x1
 1278 0082 12       		.uleb128 0x12
 1279 0083 06       		.uleb128 0x6
 1280 0084 40       		.uleb128 0x40
 1281 0085 18       		.uleb128 0x18
 1282 0086 9742     		.uleb128 0x2117
 1283 0088 19       		.uleb128 0x19
 1284 0089 01       		.uleb128 0x1
 1285 008a 13       		.uleb128 0x13
 1286 008b 00       		.byte	0
 1287 008c 00       		.byte	0
 1288 008d 0B       		.uleb128 0xb
 1289 008e 05       		.uleb128 0x5
 1290 008f 00       		.byte	0
 1291 0090 03       		.uleb128 0x3
 1292 0091 0E       		.uleb128 0xe
 1293 0092 3A       		.uleb128 0x3a
 1294 0093 0B       		.uleb128 0xb
 1295 0094 3B       		.uleb128 0x3b
 1296 0095 0B       		.uleb128 0xb
 1297 0096 49       		.uleb128 0x49
 1298 0097 13       		.uleb128 0x13
 1299 0098 02       		.uleb128 0x2
 1300 0099 17       		.uleb128 0x17
 1301 009a 00       		.byte	0
 1302 009b 00       		.byte	0
 1303 009c 0C       		.uleb128 0xc
 1304 009d 05       		.uleb128 0x5
 1305 009e 00       		.byte	0
 1306 009f 03       		.uleb128 0x3
ARM GAS  /tmp/ccWqbcdi.s 			page 24


 1307 00a0 08       		.uleb128 0x8
 1308 00a1 3A       		.uleb128 0x3a
 1309 00a2 0B       		.uleb128 0xb
 1310 00a3 3B       		.uleb128 0x3b
 1311 00a4 0B       		.uleb128 0xb
 1312 00a5 49       		.uleb128 0x49
 1313 00a6 13       		.uleb128 0x13
 1314 00a7 02       		.uleb128 0x2
 1315 00a8 17       		.uleb128 0x17
 1316 00a9 00       		.byte	0
 1317 00aa 00       		.byte	0
 1318 00ab 0D       		.uleb128 0xd
 1319 00ac 34       		.uleb128 0x34
 1320 00ad 00       		.byte	0
 1321 00ae 03       		.uleb128 0x3
 1322 00af 08       		.uleb128 0x8
 1323 00b0 3A       		.uleb128 0x3a
 1324 00b1 0B       		.uleb128 0xb
 1325 00b2 3B       		.uleb128 0x3b
 1326 00b3 0B       		.uleb128 0xb
 1327 00b4 49       		.uleb128 0x49
 1328 00b5 13       		.uleb128 0x13
 1329 00b6 02       		.uleb128 0x2
 1330 00b7 17       		.uleb128 0x17
 1331 00b8 00       		.byte	0
 1332 00b9 00       		.byte	0
 1333 00ba 0E       		.uleb128 0xe
 1334 00bb 34       		.uleb128 0x34
 1335 00bc 00       		.byte	0
 1336 00bd 03       		.uleb128 0x3
 1337 00be 08       		.uleb128 0x8
 1338 00bf 3A       		.uleb128 0x3a
 1339 00c0 0B       		.uleb128 0xb
 1340 00c1 3B       		.uleb128 0x3b
 1341 00c2 0B       		.uleb128 0xb
 1342 00c3 49       		.uleb128 0x49
 1343 00c4 13       		.uleb128 0x13
 1344 00c5 02       		.uleb128 0x2
 1345 00c6 18       		.uleb128 0x18
 1346 00c7 00       		.byte	0
 1347 00c8 00       		.byte	0
 1348 00c9 0F       		.uleb128 0xf
 1349 00ca 2E       		.uleb128 0x2e
 1350 00cb 01       		.byte	0x1
 1351 00cc 3F       		.uleb128 0x3f
 1352 00cd 19       		.uleb128 0x19
 1353 00ce 03       		.uleb128 0x3
 1354 00cf 0E       		.uleb128 0xe
 1355 00d0 3A       		.uleb128 0x3a
 1356 00d1 0B       		.uleb128 0xb
 1357 00d2 3B       		.uleb128 0x3b
 1358 00d3 05       		.uleb128 0x5
 1359 00d4 27       		.uleb128 0x27
 1360 00d5 19       		.uleb128 0x19
 1361 00d6 49       		.uleb128 0x49
 1362 00d7 13       		.uleb128 0x13
 1363 00d8 11       		.uleb128 0x11
ARM GAS  /tmp/ccWqbcdi.s 			page 25


 1364 00d9 01       		.uleb128 0x1
 1365 00da 12       		.uleb128 0x12
 1366 00db 06       		.uleb128 0x6
 1367 00dc 40       		.uleb128 0x40
 1368 00dd 18       		.uleb128 0x18
 1369 00de 9742     		.uleb128 0x2117
 1370 00e0 19       		.uleb128 0x19
 1371 00e1 01       		.uleb128 0x1
 1372 00e2 13       		.uleb128 0x13
 1373 00e3 00       		.byte	0
 1374 00e4 00       		.byte	0
 1375 00e5 10       		.uleb128 0x10
 1376 00e6 05       		.uleb128 0x5
 1377 00e7 00       		.byte	0
 1378 00e8 03       		.uleb128 0x3
 1379 00e9 08       		.uleb128 0x8
 1380 00ea 3A       		.uleb128 0x3a
 1381 00eb 0B       		.uleb128 0xb
 1382 00ec 3B       		.uleb128 0x3b
 1383 00ed 05       		.uleb128 0x5
 1384 00ee 49       		.uleb128 0x49
 1385 00ef 13       		.uleb128 0x13
 1386 00f0 02       		.uleb128 0x2
 1387 00f1 17       		.uleb128 0x17
 1388 00f2 00       		.byte	0
 1389 00f3 00       		.byte	0
 1390 00f4 11       		.uleb128 0x11
 1391 00f5 05       		.uleb128 0x5
 1392 00f6 00       		.byte	0
 1393 00f7 03       		.uleb128 0x3
 1394 00f8 0E       		.uleb128 0xe
 1395 00f9 3A       		.uleb128 0x3a
 1396 00fa 0B       		.uleb128 0xb
 1397 00fb 3B       		.uleb128 0x3b
 1398 00fc 05       		.uleb128 0x5
 1399 00fd 49       		.uleb128 0x49
 1400 00fe 13       		.uleb128 0x13
 1401 00ff 02       		.uleb128 0x2
 1402 0100 17       		.uleb128 0x17
 1403 0101 00       		.byte	0
 1404 0102 00       		.byte	0
 1405 0103 12       		.uleb128 0x12
 1406 0104 34       		.uleb128 0x34
 1407 0105 00       		.byte	0
 1408 0106 03       		.uleb128 0x3
 1409 0107 08       		.uleb128 0x8
 1410 0108 3A       		.uleb128 0x3a
 1411 0109 0B       		.uleb128 0xb
 1412 010a 3B       		.uleb128 0x3b
 1413 010b 05       		.uleb128 0x5
 1414 010c 49       		.uleb128 0x49
 1415 010d 13       		.uleb128 0x13
 1416 010e 02       		.uleb128 0x2
 1417 010f 17       		.uleb128 0x17
 1418 0110 00       		.byte	0
 1419 0111 00       		.byte	0
 1420 0112 13       		.uleb128 0x13
ARM GAS  /tmp/ccWqbcdi.s 			page 26


 1421 0113 34       		.uleb128 0x34
 1422 0114 00       		.byte	0
 1423 0115 03       		.uleb128 0x3
 1424 0116 0E       		.uleb128 0xe
 1425 0117 3A       		.uleb128 0x3a
 1426 0118 0B       		.uleb128 0xb
 1427 0119 3B       		.uleb128 0x3b
 1428 011a 05       		.uleb128 0x5
 1429 011b 49       		.uleb128 0x49
 1430 011c 13       		.uleb128 0x13
 1431 011d 02       		.uleb128 0x2
 1432 011e 17       		.uleb128 0x17
 1433 011f 00       		.byte	0
 1434 0120 00       		.byte	0
 1435 0121 14       		.uleb128 0x14
 1436 0122 898201   		.uleb128 0x4109
 1437 0125 00       		.byte	0
 1438 0126 11       		.uleb128 0x11
 1439 0127 01       		.uleb128 0x1
 1440 0128 31       		.uleb128 0x31
 1441 0129 13       		.uleb128 0x13
 1442 012a 00       		.byte	0
 1443 012b 00       		.byte	0
 1444 012c 15       		.uleb128 0x15
 1445 012d 898201   		.uleb128 0x4109
 1446 0130 01       		.byte	0x1
 1447 0131 11       		.uleb128 0x11
 1448 0132 01       		.uleb128 0x1
 1449 0133 31       		.uleb128 0x31
 1450 0134 13       		.uleb128 0x13
 1451 0135 01       		.uleb128 0x1
 1452 0136 13       		.uleb128 0x13
 1453 0137 00       		.byte	0
 1454 0138 00       		.byte	0
 1455 0139 16       		.uleb128 0x16
 1456 013a 8A8201   		.uleb128 0x410a
 1457 013d 00       		.byte	0
 1458 013e 02       		.uleb128 0x2
 1459 013f 18       		.uleb128 0x18
 1460 0140 9142     		.uleb128 0x2111
 1461 0142 18       		.uleb128 0x18
 1462 0143 00       		.byte	0
 1463 0144 00       		.byte	0
 1464 0145 17       		.uleb128 0x17
 1465 0146 898201   		.uleb128 0x4109
 1466 0149 01       		.byte	0x1
 1467 014a 11       		.uleb128 0x11
 1468 014b 01       		.uleb128 0x1
 1469 014c 31       		.uleb128 0x31
 1470 014d 13       		.uleb128 0x13
 1471 014e 00       		.byte	0
 1472 014f 00       		.byte	0
 1473 0150 18       		.uleb128 0x18
 1474 0151 2E       		.uleb128 0x2e
 1475 0152 01       		.byte	0x1
 1476 0153 3F       		.uleb128 0x3f
 1477 0154 19       		.uleb128 0x19
ARM GAS  /tmp/ccWqbcdi.s 			page 27


 1478 0155 03       		.uleb128 0x3
 1479 0156 0E       		.uleb128 0xe
 1480 0157 3A       		.uleb128 0x3a
 1481 0158 0B       		.uleb128 0xb
 1482 0159 3B       		.uleb128 0x3b
 1483 015a 0B       		.uleb128 0xb
 1484 015b 27       		.uleb128 0x27
 1485 015c 19       		.uleb128 0x19
 1486 015d 49       		.uleb128 0x49
 1487 015e 13       		.uleb128 0x13
 1488 015f 3C       		.uleb128 0x3c
 1489 0160 19       		.uleb128 0x19
 1490 0161 01       		.uleb128 0x1
 1491 0162 13       		.uleb128 0x13
 1492 0163 00       		.byte	0
 1493 0164 00       		.byte	0
 1494 0165 19       		.uleb128 0x19
 1495 0166 05       		.uleb128 0x5
 1496 0167 00       		.byte	0
 1497 0168 49       		.uleb128 0x49
 1498 0169 13       		.uleb128 0x13
 1499 016a 00       		.byte	0
 1500 016b 00       		.byte	0
 1501 016c 1A       		.uleb128 0x1a
 1502 016d 2E       		.uleb128 0x2e
 1503 016e 00       		.byte	0
 1504 016f 3F       		.uleb128 0x3f
 1505 0170 19       		.uleb128 0x19
 1506 0171 03       		.uleb128 0x3
 1507 0172 0E       		.uleb128 0xe
 1508 0173 3A       		.uleb128 0x3a
 1509 0174 0B       		.uleb128 0xb
 1510 0175 3B       		.uleb128 0x3b
 1511 0176 05       		.uleb128 0x5
 1512 0177 27       		.uleb128 0x27
 1513 0178 19       		.uleb128 0x19
 1514 0179 3C       		.uleb128 0x3c
 1515 017a 19       		.uleb128 0x19
 1516 017b 00       		.byte	0
 1517 017c 00       		.byte	0
 1518 017d 00       		.byte	0
 1519              		.section	.debug_loc,"",%progbits
 1520              	.Ldebug_loc0:
 1521              	.LLST0:
 1522 0000 00000000 		.4byte	.LVL0
 1523 0004 24000000 		.4byte	.LVL4
 1524 0008 0100     		.2byte	0x1
 1525 000a 50       		.byte	0x50
 1526 000b 24000000 		.4byte	.LVL4
 1527 000f 7C000000 		.4byte	.LFE7
 1528 0013 0400     		.2byte	0x4
 1529 0015 F3       		.byte	0xf3
 1530 0016 01       		.uleb128 0x1
 1531 0017 50       		.byte	0x50
 1532 0018 9F       		.byte	0x9f
 1533 0019 00000000 		.4byte	0
 1534 001d 00000000 		.4byte	0
ARM GAS  /tmp/ccWqbcdi.s 			page 28


 1535              	.LLST1:
 1536 0021 00000000 		.4byte	.LVL0
 1537 0025 1E000000 		.4byte	.LVL3
 1538 0029 0100     		.2byte	0x1
 1539 002b 51       		.byte	0x51
 1540 002c 1E000000 		.4byte	.LVL3
 1541 0030 2E000000 		.4byte	.LVL5
 1542 0034 0100     		.2byte	0x1
 1543 0036 51       		.byte	0x51
 1544 0037 2E000000 		.4byte	.LVL5
 1545 003b 34000000 		.4byte	.LVL7
 1546 003f 0100     		.2byte	0x1
 1547 0041 53       		.byte	0x53
 1548 0042 34000000 		.4byte	.LVL7
 1549 0046 38000000 		.4byte	.LVL8
 1550 004a 0300     		.2byte	0x3
 1551 004c 73       		.byte	0x73
 1552 004d 02       		.sleb128 2
 1553 004e 9F       		.byte	0x9f
 1554 004f 38000000 		.4byte	.LVL8
 1555 0053 3E000000 		.4byte	.LVL9
 1556 0057 0100     		.2byte	0x1
 1557 0059 53       		.byte	0x53
 1558 005a 78000000 		.4byte	.LVL19
 1559 005e 7C000000 		.4byte	.LFE7
 1560 0062 0100     		.2byte	0x1
 1561 0064 51       		.byte	0x51
 1562 0065 00000000 		.4byte	0
 1563 0069 00000000 		.4byte	0
 1564              	.LLST2:
 1565 006d 00000000 		.4byte	.LVL0
 1566 0071 1A000000 		.4byte	.LVL2
 1567 0075 0100     		.2byte	0x1
 1568 0077 50       		.byte	0x50
 1569 0078 1A000000 		.4byte	.LVL2
 1570 007c 24000000 		.4byte	.LVL4
 1571 0080 0300     		.2byte	0x3
 1572 0082 70       		.byte	0x70
 1573 0083 01       		.sleb128 1
 1574 0084 9F       		.byte	0x9f
 1575 0085 24000000 		.4byte	.LVL4
 1576 0089 48000000 		.4byte	.LVL11
 1577 008d 0100     		.2byte	0x1
 1578 008f 50       		.byte	0x50
 1579 0090 78000000 		.4byte	.LVL19
 1580 0094 7C000000 		.4byte	.LFE7
 1581 0098 0100     		.2byte	0x1
 1582 009a 50       		.byte	0x50
 1583 009b 00000000 		.4byte	0
 1584 009f 00000000 		.4byte	0
 1585              	.LLST3:
 1586 00a3 24000000 		.4byte	.LVL4
 1587 00a7 2E000000 		.4byte	.LVL5
 1588 00ab 0100     		.2byte	0x1
 1589 00ad 50       		.byte	0x50
 1590 00ae 2E000000 		.4byte	.LVL5
 1591 00b2 32000000 		.4byte	.LVL6
ARM GAS  /tmp/ccWqbcdi.s 			page 29


 1592 00b6 0100     		.2byte	0x1
 1593 00b8 54       		.byte	0x54
 1594 00b9 32000000 		.4byte	.LVL6
 1595 00bd 38000000 		.4byte	.LVL8
 1596 00c1 0300     		.2byte	0x3
 1597 00c3 74       		.byte	0x74
 1598 00c4 7E       		.sleb128 -2
 1599 00c5 9F       		.byte	0x9f
 1600 00c6 38000000 		.4byte	.LVL8
 1601 00ca 40000000 		.4byte	.LVL10
 1602 00ce 0100     		.2byte	0x1
 1603 00d0 54       		.byte	0x54
 1604 00d1 78000000 		.4byte	.LVL19
 1605 00d5 7C000000 		.4byte	.LFE7
 1606 00d9 0100     		.2byte	0x1
 1607 00db 50       		.byte	0x50
 1608 00dc 00000000 		.4byte	0
 1609 00e0 00000000 		.4byte	0
 1610              	.LLST4:
 1611 00e4 18000000 		.4byte	.LVL1
 1612 00e8 2E000000 		.4byte	.LVL5
 1613 00ec 0200     		.2byte	0x2
 1614 00ee 30       		.byte	0x30
 1615 00ef 9F       		.byte	0x9f
 1616 00f0 2E000000 		.4byte	.LVL5
 1617 00f4 48000000 		.4byte	.LVL11
 1618 00f8 0100     		.2byte	0x1
 1619 00fa 52       		.byte	0x52
 1620 00fb 58000000 		.4byte	.LVL12
 1621 00ff 64000000 		.4byte	.LVL14
 1622 0103 0100     		.2byte	0x1
 1623 0105 52       		.byte	0x52
 1624 0106 64000000 		.4byte	.LVL14
 1625 010a 6E000000 		.4byte	.LVL15
 1626 010e 0100     		.2byte	0x1
 1627 0110 50       		.byte	0x50
 1628 0111 6E000000 		.4byte	.LVL15
 1629 0115 70000000 		.4byte	.LVL16
 1630 0119 0C00     		.2byte	0xc
 1631 011b 72       		.byte	0x72
 1632 011c 00       		.sleb128 0
 1633 011d 40       		.byte	0x40
 1634 011e 25       		.byte	0x25
 1635 011f 72       		.byte	0x72
 1636 0120 00       		.sleb128 0
 1637 0121 0A       		.byte	0xa
 1638 0122 FFFF     		.2byte	0xffff
 1639 0124 1A       		.byte	0x1a
 1640 0125 22       		.byte	0x22
 1641 0126 9F       		.byte	0x9f
 1642 0127 70000000 		.4byte	.LVL16
 1643 012b 72000000 		.4byte	.LVL17
 1644 012f 0100     		.2byte	0x1
 1645 0131 50       		.byte	0x50
 1646 0132 78000000 		.4byte	.LVL19
 1647 0136 7C000000 		.4byte	.LFE7
 1648 013a 0200     		.2byte	0x2
ARM GAS  /tmp/ccWqbcdi.s 			page 30


 1649 013c 30       		.byte	0x30
 1650 013d 9F       		.byte	0x9f
 1651 013e 00000000 		.4byte	0
 1652 0142 00000000 		.4byte	0
 1653              	.LLST5:
 1654 0146 18000000 		.4byte	.LVL1
 1655 014a 76000000 		.4byte	.LVL18
 1656 014e 0100     		.2byte	0x1
 1657 0150 56       		.byte	0x56
 1658 0151 76000000 		.4byte	.LVL18
 1659 0155 78000000 		.4byte	.LVL19
 1660 0159 0600     		.2byte	0x6
 1661 015b F3       		.byte	0xf3
 1662 015c 01       		.uleb128 0x1
 1663 015d 50       		.byte	0x50
 1664 015e 31       		.byte	0x31
 1665 015f 1A       		.byte	0x1a
 1666 0160 9F       		.byte	0x9f
 1667 0161 78000000 		.4byte	.LVL19
 1668 0165 7C000000 		.4byte	.LFE7
 1669 0169 0100     		.2byte	0x1
 1670 016b 56       		.byte	0x56
 1671 016c 00000000 		.4byte	0
 1672 0170 00000000 		.4byte	0
 1673              	.LLST6:
 1674 0174 00000000 		.4byte	.LVL20
 1675 0178 18000000 		.4byte	.LVL21
 1676 017c 0100     		.2byte	0x1
 1677 017e 50       		.byte	0x50
 1678 017f 18000000 		.4byte	.LVL21
 1679 0183 8C000000 		.4byte	.LVL44
 1680 0187 0400     		.2byte	0x4
 1681 0189 F3       		.byte	0xf3
 1682 018a 01       		.uleb128 0x1
 1683 018b 50       		.byte	0x50
 1684 018c 9F       		.byte	0x9f
 1685 018d 8C000000 		.4byte	.LVL44
 1686 0191 90000000 		.4byte	.LFE8
 1687 0195 0100     		.2byte	0x1
 1688 0197 50       		.byte	0x50
 1689 0198 00000000 		.4byte	0
 1690 019c 00000000 		.4byte	0
 1691              	.LLST7:
 1692 01a0 00000000 		.4byte	.LVL20
 1693 01a4 18000000 		.4byte	.LVL21
 1694 01a8 0100     		.2byte	0x1
 1695 01aa 51       		.byte	0x51
 1696 01ab 18000000 		.4byte	.LVL21
 1697 01af 8C000000 		.4byte	.LVL44
 1698 01b3 0100     		.2byte	0x1
 1699 01b5 5A       		.byte	0x5a
 1700 01b6 8C000000 		.4byte	.LVL44
 1701 01ba 90000000 		.4byte	.LFE8
 1702 01be 0100     		.2byte	0x1
 1703 01c0 51       		.byte	0x51
 1704 01c1 00000000 		.4byte	0
 1705 01c5 00000000 		.4byte	0
ARM GAS  /tmp/ccWqbcdi.s 			page 31


 1706              	.LLST8:
 1707 01c9 00000000 		.4byte	.LVL20
 1708 01cd 18000000 		.4byte	.LVL21
 1709 01d1 0100     		.2byte	0x1
 1710 01d3 52       		.byte	0x52
 1711 01d4 18000000 		.4byte	.LVL21
 1712 01d8 8C000000 		.4byte	.LVL44
 1713 01dc 0100     		.2byte	0x1
 1714 01de 59       		.byte	0x59
 1715 01df 8C000000 		.4byte	.LVL44
 1716 01e3 90000000 		.4byte	.LFE8
 1717 01e7 0100     		.2byte	0x1
 1718 01e9 52       		.byte	0x52
 1719 01ea 00000000 		.4byte	0
 1720 01ee 00000000 		.4byte	0
 1721              	.LLST9:
 1722 01f2 00000000 		.4byte	.LVL20
 1723 01f6 18000000 		.4byte	.LVL21
 1724 01fa 0100     		.2byte	0x1
 1725 01fc 53       		.byte	0x53
 1726 01fd 18000000 		.4byte	.LVL21
 1727 0201 8C000000 		.4byte	.LVL44
 1728 0205 0400     		.2byte	0x4
 1729 0207 F3       		.byte	0xf3
 1730 0208 01       		.uleb128 0x1
 1731 0209 53       		.byte	0x53
 1732 020a 9F       		.byte	0x9f
 1733 020b 8C000000 		.4byte	.LVL44
 1734 020f 90000000 		.4byte	.LFE8
 1735 0213 0100     		.2byte	0x1
 1736 0215 53       		.byte	0x53
 1737 0216 00000000 		.4byte	0
 1738 021a 00000000 		.4byte	0
 1739              	.LLST10:
 1740 021e 00000000 		.4byte	.LVL20
 1741 0222 8C000000 		.4byte	.LVL44
 1742 0226 0200     		.2byte	0x2
 1743 0228 91       		.byte	0x91
 1744 0229 00       		.sleb128 0
 1745 022a 8C000000 		.4byte	.LVL44
 1746 022e 90000000 		.4byte	.LFE8
 1747 0232 0200     		.2byte	0x2
 1748 0234 7D       		.byte	0x7d
 1749 0235 20       		.sleb128 32
 1750 0236 00000000 		.4byte	0
 1751 023a 00000000 		.4byte	0
 1752              	.LLST11:
 1753 023e 00000000 		.4byte	.LVL20
 1754 0242 18000000 		.4byte	.LVL21
 1755 0246 0200     		.2byte	0x2
 1756 0248 30       		.byte	0x30
 1757 0249 9F       		.byte	0x9f
 1758 024a 18000000 		.4byte	.LVL21
 1759 024e 24000000 		.4byte	.LVL23
 1760 0252 0100     		.2byte	0x1
 1761 0254 55       		.byte	0x55
 1762 0255 24000000 		.4byte	.LVL23
ARM GAS  /tmp/ccWqbcdi.s 			page 32


 1763 0259 2C000000 		.4byte	.LVL24
 1764 025d 0100     		.2byte	0x1
 1765 025f 50       		.byte	0x50
 1766 0260 2C000000 		.4byte	.LVL24
 1767 0264 3A000000 		.4byte	.LVL26
 1768 0268 0100     		.2byte	0x1
 1769 026a 55       		.byte	0x55
 1770 026b 3A000000 		.4byte	.LVL26
 1771 026f 3E000000 		.4byte	.LVL28
 1772 0273 0800     		.2byte	0x8
 1773 0275 70       		.byte	0x70
 1774 0276 00       		.sleb128 0
 1775 0277 40       		.byte	0x40
 1776 0278 25       		.byte	0x25
 1777 0279 72       		.byte	0x72
 1778 027a 00       		.sleb128 0
 1779 027b 22       		.byte	0x22
 1780 027c 9F       		.byte	0x9f
 1781 027d 3E000000 		.4byte	.LVL28
 1782 0281 4E000000 		.4byte	.LVL30
 1783 0285 0100     		.2byte	0x1
 1784 0287 55       		.byte	0x55
 1785 0288 50000000 		.4byte	.LVL31
 1786 028c 54000000 		.4byte	.LVL32
 1787 0290 0100     		.2byte	0x1
 1788 0292 55       		.byte	0x55
 1789 0293 54000000 		.4byte	.LVL32
 1790 0297 58000000 		.4byte	.LVL33
 1791 029b 0F00     		.2byte	0xf
 1792 029d 72       		.byte	0x72
 1793 029e 00       		.sleb128 0
 1794 029f 0A       		.byte	0xa
 1795 02a0 FFFF     		.2byte	0xffff
 1796 02a2 1A       		.byte	0x1a
 1797 02a3 75       		.byte	0x75
 1798 02a4 00       		.sleb128 0
 1799 02a5 22       		.byte	0x22
 1800 02a6 72       		.byte	0x72
 1801 02a7 00       		.sleb128 0
 1802 02a8 40       		.byte	0x40
 1803 02a9 25       		.byte	0x25
 1804 02aa 22       		.byte	0x22
 1805 02ab 9F       		.byte	0x9f
 1806 02ac 58000000 		.4byte	.LVL33
 1807 02b0 5E000000 		.4byte	.LVL34
 1808 02b4 1600     		.2byte	0x16
 1809 02b6 73       		.byte	0x73
 1810 02b7 00       		.sleb128 0
 1811 02b8 0A       		.byte	0xa
 1812 02b9 FFFF     		.2byte	0xffff
 1813 02bb 1A       		.byte	0x1a
 1814 02bc 72       		.byte	0x72
 1815 02bd 00       		.sleb128 0
 1816 02be 0A       		.byte	0xa
 1817 02bf FFFF     		.2byte	0xffff
 1818 02c1 1A       		.byte	0x1a
 1819 02c2 75       		.byte	0x75
ARM GAS  /tmp/ccWqbcdi.s 			page 33


 1820 02c3 00       		.sleb128 0
 1821 02c4 22       		.byte	0x22
 1822 02c5 72       		.byte	0x72
 1823 02c6 00       		.sleb128 0
 1824 02c7 40       		.byte	0x40
 1825 02c8 25       		.byte	0x25
 1826 02c9 22       		.byte	0x22
 1827 02ca 22       		.byte	0x22
 1828 02cb 9F       		.byte	0x9f
 1829 02cc 5E000000 		.4byte	.LVL34
 1830 02d0 66000000 		.4byte	.LVL35
 1831 02d4 1800     		.2byte	0x18
 1832 02d6 73       		.byte	0x73
 1833 02d7 00       		.sleb128 0
 1834 02d8 0A       		.byte	0xa
 1835 02d9 FFFF     		.2byte	0xffff
 1836 02db 1A       		.byte	0x1a
 1837 02dc 7A       		.byte	0x7a
 1838 02dd 00       		.sleb128 0
 1839 02de 06       		.byte	0x6
 1840 02df 0A       		.byte	0xa
 1841 02e0 FFFF     		.2byte	0xffff
 1842 02e2 1A       		.byte	0x1a
 1843 02e3 75       		.byte	0x75
 1844 02e4 00       		.sleb128 0
 1845 02e5 22       		.byte	0x22
 1846 02e6 7A       		.byte	0x7a
 1847 02e7 00       		.sleb128 0
 1848 02e8 06       		.byte	0x6
 1849 02e9 40       		.byte	0x40
 1850 02ea 25       		.byte	0x25
 1851 02eb 22       		.byte	0x22
 1852 02ec 22       		.byte	0x22
 1853 02ed 9F       		.byte	0x9f
 1854 02ee 66000000 		.4byte	.LVL35
 1855 02f2 6A000000 		.4byte	.LVL36
 1856 02f6 1900     		.2byte	0x19
 1857 02f8 79       		.byte	0x79
 1858 02f9 00       		.sleb128 0
 1859 02fa 06       		.byte	0x6
 1860 02fb 0A       		.byte	0xa
 1861 02fc FFFF     		.2byte	0xffff
 1862 02fe 1A       		.byte	0x1a
 1863 02ff 7A       		.byte	0x7a
 1864 0300 00       		.sleb128 0
 1865 0301 06       		.byte	0x6
 1866 0302 0A       		.byte	0xa
 1867 0303 FFFF     		.2byte	0xffff
 1868 0305 1A       		.byte	0x1a
 1869 0306 75       		.byte	0x75
 1870 0307 00       		.sleb128 0
 1871 0308 22       		.byte	0x22
 1872 0309 7A       		.byte	0x7a
 1873 030a 00       		.sleb128 0
 1874 030b 06       		.byte	0x6
 1875 030c 40       		.byte	0x40
 1876 030d 25       		.byte	0x25
ARM GAS  /tmp/ccWqbcdi.s 			page 34


 1877 030e 22       		.byte	0x22
 1878 030f 22       		.byte	0x22
 1879 0310 9F       		.byte	0x9f
 1880 0311 6A000000 		.4byte	.LVL36
 1881 0315 78000000 		.4byte	.LVL40
 1882 0319 0100     		.2byte	0x1
 1883 031b 55       		.byte	0x55
 1884 031c 78000000 		.4byte	.LVL40
 1885 0320 7E000000 		.4byte	.LVL41
 1886 0324 0100     		.2byte	0x1
 1887 0326 50       		.byte	0x50
 1888 0327 7E000000 		.4byte	.LVL41
 1889 032b 80000000 		.4byte	.LVL42
 1890 032f 0100     		.2byte	0x1
 1891 0331 53       		.byte	0x53
 1892 0332 80000000 		.4byte	.LVL42
 1893 0336 84000000 		.4byte	.LVL43
 1894 033a 0800     		.2byte	0x8
 1895 033c 73       		.byte	0x73
 1896 033d 00       		.sleb128 0
 1897 033e 40       		.byte	0x40
 1898 033f 25       		.byte	0x25
 1899 0340 70       		.byte	0x70
 1900 0341 00       		.sleb128 0
 1901 0342 22       		.byte	0x22
 1902 0343 9F       		.byte	0x9f
 1903 0344 84000000 		.4byte	.LVL43
 1904 0348 8C000000 		.4byte	.LVL44
 1905 034c 0100     		.2byte	0x1
 1906 034e 53       		.byte	0x53
 1907 034f 8C000000 		.4byte	.LVL44
 1908 0353 90000000 		.4byte	.LFE8
 1909 0357 0200     		.2byte	0x2
 1910 0359 30       		.byte	0x30
 1911 035a 9F       		.byte	0x9f
 1912 035b 00000000 		.4byte	0
 1913 035f 00000000 		.4byte	0
 1914              	.LLST12:
 1915 0363 54000000 		.4byte	.LVL32
 1916 0367 58000000 		.4byte	.LVL33
 1917 036b 0100     		.2byte	0x1
 1918 036d 52       		.byte	0x52
 1919 036e 58000000 		.4byte	.LVL33
 1920 0372 66000000 		.4byte	.LVL35
 1921 0376 0100     		.2byte	0x1
 1922 0378 53       		.byte	0x53
 1923 0379 66000000 		.4byte	.LVL35
 1924 037d 6D000000 		.4byte	.LVL37-1
 1925 0381 0200     		.2byte	0x2
 1926 0383 79       		.byte	0x79
 1927 0384 00       		.sleb128 0
 1928 0385 00000000 		.4byte	0
 1929 0389 00000000 		.4byte	0
 1930              	.LLST13:
 1931 038d 00000000 		.4byte	.LVL20
 1932 0391 18000000 		.4byte	.LVL21
 1933 0395 0100     		.2byte	0x1
ARM GAS  /tmp/ccWqbcdi.s 			page 35


 1934 0397 50       		.byte	0x50
 1935 0398 18000000 		.4byte	.LVL21
 1936 039c 8C000000 		.4byte	.LVL44
 1937 03a0 0100     		.2byte	0x1
 1938 03a2 54       		.byte	0x54
 1939 03a3 8C000000 		.4byte	.LVL44
 1940 03a7 90000000 		.4byte	.LFE8
 1941 03ab 0100     		.2byte	0x1
 1942 03ad 50       		.byte	0x50
 1943 03ae 00000000 		.4byte	0
 1944 03b2 00000000 		.4byte	0
 1945              	.LLST14:
 1946 03b6 00000000 		.4byte	.LVL20
 1947 03ba 18000000 		.4byte	.LVL21
 1948 03be 0200     		.2byte	0x2
 1949 03c0 30       		.byte	0x30
 1950 03c1 9F       		.byte	0x9f
 1951 03c2 18000000 		.4byte	.LVL21
 1952 03c6 34000000 		.4byte	.LVL25
 1953 03ca 0100     		.2byte	0x1
 1954 03cc 56       		.byte	0x56
 1955 03cd 3C000000 		.4byte	.LVL27
 1956 03d1 50000000 		.4byte	.LVL31
 1957 03d5 0100     		.2byte	0x1
 1958 03d7 56       		.byte	0x56
 1959 03d8 8C000000 		.4byte	.LVL44
 1960 03dc 90000000 		.4byte	.LFE8
 1961 03e0 0200     		.2byte	0x2
 1962 03e2 30       		.byte	0x30
 1963 03e3 9F       		.byte	0x9f
 1964 03e4 00000000 		.4byte	0
 1965 03e8 00000000 		.4byte	0
 1966              	.LLST15:
 1967 03ec 00000000 		.4byte	.LVL45
 1968 03f0 30000000 		.4byte	.LVL47
 1969 03f4 0100     		.2byte	0x1
 1970 03f6 50       		.byte	0x50
 1971 03f7 30000000 		.4byte	.LVL47
 1972 03fb CE000000 		.4byte	.LVL72
 1973 03ff 0400     		.2byte	0x4
 1974 0401 F3       		.byte	0xf3
 1975 0402 01       		.uleb128 0x1
 1976 0403 50       		.byte	0x50
 1977 0404 9F       		.byte	0x9f
 1978 0405 CE000000 		.4byte	.LVL72
 1979 0409 D2000000 		.4byte	.LFE9
 1980 040d 0100     		.2byte	0x1
 1981 040f 50       		.byte	0x50
 1982 0410 00000000 		.4byte	0
 1983 0414 00000000 		.4byte	0
 1984              	.LLST16:
 1985 0418 00000000 		.4byte	.LVL45
 1986 041c 30000000 		.4byte	.LVL47
 1987 0420 0100     		.2byte	0x1
 1988 0422 51       		.byte	0x51
 1989 0423 30000000 		.4byte	.LVL47
 1990 0427 CE000000 		.4byte	.LVL72
ARM GAS  /tmp/ccWqbcdi.s 			page 36


 1991 042b 0100     		.2byte	0x1
 1992 042d 5B       		.byte	0x5b
 1993 042e CE000000 		.4byte	.LVL72
 1994 0432 D2000000 		.4byte	.LFE9
 1995 0436 0100     		.2byte	0x1
 1996 0438 51       		.byte	0x51
 1997 0439 00000000 		.4byte	0
 1998 043d 00000000 		.4byte	0
 1999              	.LLST17:
 2000 0441 00000000 		.4byte	.LVL45
 2001 0445 30000000 		.4byte	.LVL47
 2002 0449 0100     		.2byte	0x1
 2003 044b 52       		.byte	0x52
 2004 044c 30000000 		.4byte	.LVL47
 2005 0450 CE000000 		.4byte	.LVL72
 2006 0454 0100     		.2byte	0x1
 2007 0456 5A       		.byte	0x5a
 2008 0457 CE000000 		.4byte	.LVL72
 2009 045b D2000000 		.4byte	.LFE9
 2010 045f 0100     		.2byte	0x1
 2011 0461 52       		.byte	0x52
 2012 0462 00000000 		.4byte	0
 2013 0466 00000000 		.4byte	0
 2014              	.LLST18:
 2015 046a 00000000 		.4byte	.LVL45
 2016 046e 24000000 		.4byte	.LVL46
 2017 0472 0100     		.2byte	0x1
 2018 0474 53       		.byte	0x53
 2019 0475 24000000 		.4byte	.LVL46
 2020 0479 D2000000 		.4byte	.LFE9
 2021 047d 0400     		.2byte	0x4
 2022 047f F3       		.byte	0xf3
 2023 0480 01       		.uleb128 0x1
 2024 0481 53       		.byte	0x53
 2025 0482 9F       		.byte	0x9f
 2026 0483 00000000 		.4byte	0
 2027 0487 00000000 		.4byte	0
 2028              	.LLST19:
 2029 048b 00000000 		.4byte	.LVL45
 2030 048f CE000000 		.4byte	.LVL72
 2031 0493 0200     		.2byte	0x2
 2032 0495 91       		.byte	0x91
 2033 0496 00       		.sleb128 0
 2034 0497 CE000000 		.4byte	.LVL72
 2035 049b D2000000 		.4byte	.LFE9
 2036 049f 0200     		.2byte	0x2
 2037 04a1 91       		.byte	0x91
 2038 04a2 00       		.sleb128 0
 2039 04a3 00000000 		.4byte	0
 2040 04a7 00000000 		.4byte	0
 2041              	.LLST20:
 2042 04ab 00000000 		.4byte	.LVL45
 2043 04af 30000000 		.4byte	.LVL47
 2044 04b3 0200     		.2byte	0x2
 2045 04b5 91       		.byte	0x91
 2046 04b6 04       		.sleb128 4
 2047 04b7 30000000 		.4byte	.LVL47
ARM GAS  /tmp/ccWqbcdi.s 			page 37


 2048 04bb 72000000 		.4byte	.LVL57
 2049 04bf 0100     		.2byte	0x1
 2050 04c1 55       		.byte	0x55
 2051 04c2 78000000 		.4byte	.LVL58
 2052 04c6 90000000 		.4byte	.LVL60
 2053 04ca 0100     		.2byte	0x1
 2054 04cc 55       		.byte	0x55
 2055 04cd CE000000 		.4byte	.LVL72
 2056 04d1 D2000000 		.4byte	.LFE9
 2057 04d5 0200     		.2byte	0x2
 2058 04d7 91       		.byte	0x91
 2059 04d8 04       		.sleb128 4
 2060 04d9 00000000 		.4byte	0
 2061 04dd 00000000 		.4byte	0
 2062              	.LLST21:
 2063 04e1 00000000 		.4byte	.LVL45
 2064 04e5 30000000 		.4byte	.LVL47
 2065 04e9 0200     		.2byte	0x2
 2066 04eb 30       		.byte	0x30
 2067 04ec 9F       		.byte	0x9f
 2068 04ed 30000000 		.4byte	.LVL47
 2069 04f1 50000000 		.4byte	.LVL50
 2070 04f5 0100     		.2byte	0x1
 2071 04f7 58       		.byte	0x58
 2072 04f8 52000000 		.4byte	.LVL51
 2073 04fc 94000000 		.4byte	.LVL61
 2074 0500 0100     		.2byte	0x1
 2075 0502 58       		.byte	0x58
 2076 0503 94000000 		.4byte	.LVL61
 2077 0507 98000000 		.4byte	.LVL62
 2078 050b 0F00     		.2byte	0xf
 2079 050d 71       		.byte	0x71
 2080 050e 00       		.sleb128 0
 2081 050f 0A       		.byte	0xa
 2082 0510 FFFF     		.2byte	0xffff
 2083 0512 1A       		.byte	0x1a
 2084 0513 78       		.byte	0x78
 2085 0514 00       		.sleb128 0
 2086 0515 22       		.byte	0x22
 2087 0516 71       		.byte	0x71
 2088 0517 00       		.sleb128 0
 2089 0518 40       		.byte	0x40
 2090 0519 25       		.byte	0x25
 2091 051a 22       		.byte	0x22
 2092 051b 9F       		.byte	0x9f
 2093 051c 98000000 		.4byte	.LVL62
 2094 0520 AB000000 		.4byte	.LVL64-1
 2095 0524 1600     		.2byte	0x16
 2096 0526 72       		.byte	0x72
 2097 0527 00       		.sleb128 0
 2098 0528 0A       		.byte	0xa
 2099 0529 FFFF     		.2byte	0xffff
 2100 052b 1A       		.byte	0x1a
 2101 052c 71       		.byte	0x71
 2102 052d 00       		.sleb128 0
 2103 052e 0A       		.byte	0xa
 2104 052f FFFF     		.2byte	0xffff
ARM GAS  /tmp/ccWqbcdi.s 			page 38


 2105 0531 1A       		.byte	0x1a
 2106 0532 78       		.byte	0x78
 2107 0533 00       		.sleb128 0
 2108 0534 22       		.byte	0x22
 2109 0535 71       		.byte	0x71
 2110 0536 00       		.sleb128 0
 2111 0537 40       		.byte	0x40
 2112 0538 25       		.byte	0x25
 2113 0539 22       		.byte	0x22
 2114 053a 22       		.byte	0x22
 2115 053b 9F       		.byte	0x9f
 2116 053c AE000000 		.4byte	.LVL65
 2117 0540 B8000000 		.4byte	.LVL68
 2118 0544 0100     		.2byte	0x1
 2119 0546 54       		.byte	0x54
 2120 0547 B8000000 		.4byte	.LVL68
 2121 054b BE000000 		.4byte	.LVL69
 2122 054f 0100     		.2byte	0x1
 2123 0551 50       		.byte	0x50
 2124 0552 BE000000 		.4byte	.LVL69
 2125 0556 C0000000 		.4byte	.LVL70
 2126 055a 0100     		.2byte	0x1
 2127 055c 53       		.byte	0x53
 2128 055d C0000000 		.4byte	.LVL70
 2129 0561 C4000000 		.4byte	.LVL71
 2130 0565 0800     		.2byte	0x8
 2131 0567 73       		.byte	0x73
 2132 0568 00       		.sleb128 0
 2133 0569 40       		.byte	0x40
 2134 056a 25       		.byte	0x25
 2135 056b 70       		.byte	0x70
 2136 056c 00       		.sleb128 0
 2137 056d 22       		.byte	0x22
 2138 056e 9F       		.byte	0x9f
 2139 056f C4000000 		.4byte	.LVL71
 2140 0573 CE000000 		.4byte	.LVL72
 2141 0577 0100     		.2byte	0x1
 2142 0579 53       		.byte	0x53
 2143 057a CE000000 		.4byte	.LVL72
 2144 057e D2000000 		.4byte	.LFE9
 2145 0582 0200     		.2byte	0x2
 2146 0584 30       		.byte	0x30
 2147 0585 9F       		.byte	0x9f
 2148 0586 00000000 		.4byte	0
 2149 058a 00000000 		.4byte	0
 2150              	.LLST22:
 2151 058e 94000000 		.4byte	.LVL61
 2152 0592 98000000 		.4byte	.LVL62
 2153 0596 0100     		.2byte	0x1
 2154 0598 51       		.byte	0x51
 2155 0599 98000000 		.4byte	.LVL62
 2156 059d AB000000 		.4byte	.LVL64-1
 2157 05a1 0100     		.2byte	0x1
 2158 05a3 52       		.byte	0x52
 2159 05a4 00000000 		.4byte	0
 2160 05a8 00000000 		.4byte	0
 2161              	.LLST23:
ARM GAS  /tmp/ccWqbcdi.s 			page 39


 2162 05ac 00000000 		.4byte	.LVL45
 2163 05b0 30000000 		.4byte	.LVL47
 2164 05b4 0100     		.2byte	0x1
 2165 05b6 50       		.byte	0x50
 2166 05b7 30000000 		.4byte	.LVL47
 2167 05bb 9C000000 		.4byte	.LVL63
 2168 05bf 0100     		.2byte	0x1
 2169 05c1 54       		.byte	0x54
 2170 05c2 CE000000 		.4byte	.LVL72
 2171 05c6 D2000000 		.4byte	.LFE9
 2172 05ca 0100     		.2byte	0x1
 2173 05cc 50       		.byte	0x50
 2174 05cd 00000000 		.4byte	0
 2175 05d1 00000000 		.4byte	0
 2176              	.LLST24:
 2177 05d5 00000000 		.4byte	.LVL45
 2178 05d9 30000000 		.4byte	.LVL47
 2179 05dd 0200     		.2byte	0x2
 2180 05df 30       		.byte	0x30
 2181 05e0 9F       		.byte	0x9f
 2182 05e1 30000000 		.4byte	.LVL47
 2183 05e5 4C000000 		.4byte	.LVL49
 2184 05e9 0100     		.2byte	0x1
 2185 05eb 56       		.byte	0x56
 2186 05ec 52000000 		.4byte	.LVL51
 2187 05f0 90000000 		.4byte	.LVL60
 2188 05f4 0100     		.2byte	0x1
 2189 05f6 56       		.byte	0x56
 2190 05f7 CE000000 		.4byte	.LVL72
 2191 05fb D2000000 		.4byte	.LFE9
 2192 05ff 0200     		.2byte	0x2
 2193 0601 30       		.byte	0x30
 2194 0602 9F       		.byte	0x9f
 2195 0603 00000000 		.4byte	0
 2196 0607 00000000 		.4byte	0
 2197              	.LLST25:
 2198 060b 30000000 		.4byte	.LVL47
 2199 060f 5C000000 		.4byte	.LVL53
 2200 0613 0100     		.2byte	0x1
 2201 0615 59       		.byte	0x59
 2202 0616 5E000000 		.4byte	.LVL54
 2203 061a 68000000 		.4byte	.LVL55
 2204 061e 0200     		.2byte	0x2
 2205 0620 74       		.byte	0x74
 2206 0621 0A       		.sleb128 10
 2207 0622 68000000 		.4byte	.LVL55
 2208 0626 90000000 		.4byte	.LVL60
 2209 062a 0100     		.2byte	0x1
 2210 062c 59       		.byte	0x59
 2211 062d 00000000 		.4byte	0
 2212 0631 00000000 		.4byte	0
 2213              	.LLST26:
 2214 0635 00000000 		.4byte	.LVL73
 2215 0639 05000000 		.4byte	.LVL74-1
 2216 063d 0100     		.2byte	0x1
 2217 063f 50       		.byte	0x50
 2218 0640 05000000 		.4byte	.LVL74-1
ARM GAS  /tmp/ccWqbcdi.s 			page 40


 2219 0644 0C000000 		.4byte	.LFE10
 2220 0648 0400     		.2byte	0x4
 2221 064a F3       		.byte	0xf3
 2222 064b 01       		.uleb128 0x1
 2223 064c 50       		.byte	0x50
 2224 064d 9F       		.byte	0x9f
 2225 064e 00000000 		.4byte	0
 2226 0652 00000000 		.4byte	0
 2227              	.LLST27:
 2228 0656 00000000 		.4byte	.LVL73
 2229 065a 05000000 		.4byte	.LVL74-1
 2230 065e 0100     		.2byte	0x1
 2231 0660 51       		.byte	0x51
 2232 0661 05000000 		.4byte	.LVL74-1
 2233 0665 0C000000 		.4byte	.LFE10
 2234 0669 0400     		.2byte	0x4
 2235 066b F3       		.byte	0xf3
 2236 066c 01       		.uleb128 0x1
 2237 066d 51       		.byte	0x51
 2238 066e 9F       		.byte	0x9f
 2239 066f 00000000 		.4byte	0
 2240 0673 00000000 		.4byte	0
 2241              	.LLST28:
 2242 0677 00000000 		.4byte	.LVL75
 2243 067b 0A000000 		.4byte	.LVL76
 2244 067f 0100     		.2byte	0x1
 2245 0681 50       		.byte	0x50
 2246 0682 0A000000 		.4byte	.LVL76
 2247 0686 4E000000 		.4byte	.LVL90
 2248 068a 0400     		.2byte	0x4
 2249 068c F3       		.byte	0xf3
 2250 068d 01       		.uleb128 0x1
 2251 068e 50       		.byte	0x50
 2252 068f 9F       		.byte	0x9f
 2253 0690 4E000000 		.4byte	.LVL90
 2254 0694 52000000 		.4byte	.LVL91
 2255 0698 0100     		.2byte	0x1
 2256 069a 50       		.byte	0x50
 2257 069b 52000000 		.4byte	.LVL91
 2258 069f 54000000 		.4byte	.LFE11
 2259 06a3 0100     		.2byte	0x1
 2260 06a5 54       		.byte	0x54
 2261 06a6 00000000 		.4byte	0
 2262 06aa 00000000 		.4byte	0
 2263              	.LLST29:
 2264 06ae 00000000 		.4byte	.LVL75
 2265 06b2 0A000000 		.4byte	.LVL76
 2266 06b6 0200     		.2byte	0x2
 2267 06b8 30       		.byte	0x30
 2268 06b9 9F       		.byte	0x9f
 2269 06ba 0A000000 		.4byte	.LVL76
 2270 06be 16000000 		.4byte	.LVL78
 2271 06c2 0100     		.2byte	0x1
 2272 06c4 55       		.byte	0x55
 2273 06c5 16000000 		.4byte	.LVL78
 2274 06c9 1E000000 		.4byte	.LVL79
 2275 06cd 0100     		.2byte	0x1
ARM GAS  /tmp/ccWqbcdi.s 			page 41


 2276 06cf 50       		.byte	0x50
 2277 06d0 1E000000 		.4byte	.LVL79
 2278 06d4 2C000000 		.4byte	.LVL81
 2279 06d8 0100     		.2byte	0x1
 2280 06da 55       		.byte	0x55
 2281 06db 2C000000 		.4byte	.LVL81
 2282 06df 30000000 		.4byte	.LVL83
 2283 06e3 0C00     		.2byte	0xc
 2284 06e5 70       		.byte	0x70
 2285 06e6 00       		.sleb128 0
 2286 06e7 40       		.byte	0x40
 2287 06e8 25       		.byte	0x25
 2288 06e9 70       		.byte	0x70
 2289 06ea 00       		.sleb128 0
 2290 06eb 0A       		.byte	0xa
 2291 06ec FFFF     		.2byte	0xffff
 2292 06ee 1A       		.byte	0x1a
 2293 06ef 22       		.byte	0x22
 2294 06f0 9F       		.byte	0x9f
 2295 06f1 30000000 		.4byte	.LVL83
 2296 06f5 40000000 		.4byte	.LVL85
 2297 06f9 0100     		.2byte	0x1
 2298 06fb 55       		.byte	0x55
 2299 06fc 40000000 		.4byte	.LVL85
 2300 0700 42000000 		.4byte	.LVL86
 2301 0704 0600     		.2byte	0x6
 2302 0706 70       		.byte	0x70
 2303 0707 00       		.sleb128 0
 2304 0708 73       		.byte	0x73
 2305 0709 00       		.sleb128 0
 2306 070a 21       		.byte	0x21
 2307 070b 9F       		.byte	0x9f
 2308 070c 42000000 		.4byte	.LVL86
 2309 0710 44000000 		.4byte	.LVL87
 2310 0714 0100     		.2byte	0x1
 2311 0716 50       		.byte	0x50
 2312 0717 44000000 		.4byte	.LVL87
 2313 071b 46000000 		.4byte	.LVL88
 2314 071f 0400     		.2byte	0x4
 2315 0721 70       		.byte	0x70
 2316 0722 00       		.sleb128 0
 2317 0723 20       		.byte	0x20
 2318 0724 9F       		.byte	0x9f
 2319 0725 46000000 		.4byte	.LVL88
 2320 0729 48000000 		.4byte	.LVL89
 2321 072d 0C00     		.2byte	0xc
 2322 072f 75       		.byte	0x75
 2323 0730 00       		.sleb128 0
 2324 0731 09       		.byte	0x9
 2325 0732 F4       		.byte	0xf4
 2326 0733 24       		.byte	0x24
 2327 0734 09       		.byte	0x9
 2328 0735 FC       		.byte	0xfc
 2329 0736 25       		.byte	0x25
 2330 0737 73       		.byte	0x73
 2331 0738 00       		.sleb128 0
 2332 0739 21       		.byte	0x21
ARM GAS  /tmp/ccWqbcdi.s 			page 42


 2333 073a 9F       		.byte	0x9f
 2334 073b 48000000 		.4byte	.LVL89
 2335 073f 4E000000 		.4byte	.LVL90
 2336 0743 0100     		.2byte	0x1
 2337 0745 55       		.byte	0x55
 2338 0746 4E000000 		.4byte	.LVL90
 2339 074a 52000000 		.4byte	.LVL91
 2340 074e 0200     		.2byte	0x2
 2341 0750 30       		.byte	0x30
 2342 0751 9F       		.byte	0x9f
 2343 0752 00000000 		.4byte	0
 2344 0756 00000000 		.4byte	0
 2345              	.LLST30:
 2346 075a 00000000 		.4byte	.LVL75
 2347 075e 0A000000 		.4byte	.LVL76
 2348 0762 0100     		.2byte	0x1
 2349 0764 50       		.byte	0x50
 2350 0765 0A000000 		.4byte	.LVL76
 2351 0769 4E000000 		.4byte	.LVL90
 2352 076d 0100     		.2byte	0x1
 2353 076f 54       		.byte	0x54
 2354 0770 4E000000 		.4byte	.LVL90
 2355 0774 52000000 		.4byte	.LVL91
 2356 0778 0100     		.2byte	0x1
 2357 077a 50       		.byte	0x50
 2358 077b 52000000 		.4byte	.LVL91
 2359 077f 54000000 		.4byte	.LFE11
 2360 0783 0100     		.2byte	0x1
 2361 0785 54       		.byte	0x54
 2362 0786 00000000 		.4byte	0
 2363 078a 00000000 		.4byte	0
 2364              	.LLST31:
 2365 078e 00000000 		.4byte	.LVL75
 2366 0792 0A000000 		.4byte	.LVL76
 2367 0796 0200     		.2byte	0x2
 2368 0798 30       		.byte	0x30
 2369 0799 9F       		.byte	0x9f
 2370 079a 0A000000 		.4byte	.LVL76
 2371 079e 26000000 		.4byte	.LVL80
 2372 07a2 0100     		.2byte	0x1
 2373 07a4 56       		.byte	0x56
 2374 07a5 2E000000 		.4byte	.LVL82
 2375 07a9 4E000000 		.4byte	.LVL90
 2376 07ad 0100     		.2byte	0x1
 2377 07af 56       		.byte	0x56
 2378 07b0 4E000000 		.4byte	.LVL90
 2379 07b4 54000000 		.4byte	.LFE11
 2380 07b8 0200     		.2byte	0x2
 2381 07ba 30       		.byte	0x30
 2382 07bb 9F       		.byte	0x9f
 2383 07bc 00000000 		.4byte	0
 2384 07c0 00000000 		.4byte	0
 2385              		.section	.debug_aranges,"",%progbits
 2386 0000 3C000000 		.4byte	0x3c
 2387 0004 0200     		.2byte	0x2
 2388 0006 00000000 		.4byte	.Ldebug_info0
 2389 000a 04       		.byte	0x4
ARM GAS  /tmp/ccWqbcdi.s 			page 43


 2390 000b 00       		.byte	0
 2391 000c 0000     		.2byte	0
 2392 000e 0000     		.2byte	0
 2393 0010 00000000 		.4byte	.LFB7
 2394 0014 7C000000 		.4byte	.LFE7-.LFB7
 2395 0018 00000000 		.4byte	.LFB8
 2396 001c 90000000 		.4byte	.LFE8-.LFB8
 2397 0020 00000000 		.4byte	.LFB9
 2398 0024 D2000000 		.4byte	.LFE9-.LFB9
 2399 0028 00000000 		.4byte	.LFB10
 2400 002c 0C000000 		.4byte	.LFE10-.LFB10
 2401 0030 00000000 		.4byte	.LFB11
 2402 0034 54000000 		.4byte	.LFE11-.LFB11
 2403 0038 00000000 		.4byte	0
 2404 003c 00000000 		.4byte	0
 2405              		.section	.debug_ranges,"",%progbits
 2406              	.Ldebug_ranges0:
 2407 0000 00000000 		.4byte	.LFB7
 2408 0004 7C000000 		.4byte	.LFE7
 2409 0008 00000000 		.4byte	.LFB8
 2410 000c 90000000 		.4byte	.LFE8
 2411 0010 00000000 		.4byte	.LFB9
 2412 0014 D2000000 		.4byte	.LFE9
 2413 0018 00000000 		.4byte	.LFB10
 2414 001c 0C000000 		.4byte	.LFE10
 2415 0020 00000000 		.4byte	.LFB11
 2416 0024 54000000 		.4byte	.LFE11
 2417 0028 00000000 		.4byte	0
 2418 002c 00000000 		.4byte	0
 2419              		.section	.debug_line,"",%progbits
 2420              	.Ldebug_line0:
 2421 0000 4A020000 		.section	.debug_str,"MS",%progbits,1
 2421      02004C01 
 2421      00000201 
 2421      FB0E0D00 
 2421      01010101 
 2422              	.LASF41:
 2423 0000 696E6574 		.ascii	"inet_chksum_pbuf\000"
 2423      5F63686B 
 2423      73756D5F 
 2423      70627566 
 2423      00
 2424              	.LASF4:
 2425 0011 5F5F7569 		.ascii	"__uint8_t\000"
 2425      6E74385F 
 2425      7400
 2426              	.LASF22:
 2427 001b 6E657874 		.ascii	"next\000"
 2427      00
 2428              	.LASF21:
 2429 0020 6D656D5F 		.ascii	"mem_ptr_t\000"
 2429      7074725F 
 2429      7400
 2430              	.LASF40:
 2431 002a 696E6574 		.ascii	"inet_chksum\000"
 2431      5F63686B 
 2431      73756D00 
ARM GAS  /tmp/ccWqbcdi.s 			page 44


 2432              	.LASF28:
 2433 0036 69705F61 		.ascii	"ip_addr\000"
 2433      64647200 
 2434              	.LASF39:
 2435 003e 63686B6C 		.ascii	"chklen\000"
 2435      656E00
 2436              	.LASF43:
 2437 0045 2E2E2F2E 		.ascii	"../../ext/lwip/src/core/ipv4/inet_chksum.c\000"
 2437      2E2F6578 
 2437      742F6C77 
 2437      69702F73 
 2437      72632F63 
 2438              	.LASF6:
 2439 0070 73686F72 		.ascii	"short unsigned int\000"
 2439      7420756E 
 2439      7369676E 
 2439      65642069 
 2439      6E7400
 2440              	.LASF45:
 2441 0083 6C776970 		.ascii	"lwip_standard_chksum\000"
 2441      5F737461 
 2441      6E646172 
 2441      645F6368 
 2441      6B73756D 
 2442              	.LASF46:
 2443 0098 6C776970 		.ascii	"lwip_htons\000"
 2443      5F68746F 
 2443      6E7300
 2444              	.LASF38:
 2445 00a3 63686B73 		.ascii	"chksum_len\000"
 2445      756D5F6C 
 2445      656E00
 2446              	.LASF1:
 2447 00ae 7369676E 		.ascii	"signed char\000"
 2447      65642063 
 2447      68617200 
 2448              	.LASF35:
 2449 00ba 73776170 		.ascii	"swapped\000"
 2449      70656400 
 2450              	.LASF2:
 2451 00c2 756E7369 		.ascii	"unsigned char\000"
 2451      676E6564 
 2451      20636861 
 2451      7200
 2452              	.LASF9:
 2453 00d0 6C6F6E67 		.ascii	"long unsigned int\000"
 2453      20756E73 
 2453      69676E65 
 2453      6420696E 
 2453      7400
 2454              	.LASF29:
 2455 00e2 61646472 		.ascii	"addr\000"
 2455      00
 2456              	.LASF27:
 2457 00e7 70627566 		.ascii	"pbuf\000"
 2457      00
 2458              	.LASF14:
ARM GAS  /tmp/ccWqbcdi.s 			page 45


 2459 00ec 75696E74 		.ascii	"uint32_t\000"
 2459      33325F74 
 2459      00
 2460              	.LASF31:
 2461 00f5 64617461 		.ascii	"dataptr\000"
 2461      70747200 
 2462              	.LASF5:
 2463 00fd 5F5F7569 		.ascii	"__uint16_t\000"
 2463      6E743136 
 2463      5F7400
 2464              	.LASF19:
 2465 0108 7531365F 		.ascii	"u16_t\000"
 2465      7400
 2466              	.LASF8:
 2467 010e 5F5F7569 		.ascii	"__uint32_t\000"
 2467      6E743332 
 2467      5F7400
 2468              	.LASF20:
 2469 0119 7533325F 		.ascii	"u32_t\000"
 2469      7400
 2470              	.LASF24:
 2471 011f 746F745F 		.ascii	"tot_len\000"
 2471      6C656E00 
 2472              	.LASF30:
 2473 0127 69705F61 		.ascii	"ip_addr_t\000"
 2473      6464725F 
 2473      7400
 2474              	.LASF0:
 2475 0131 756E7369 		.ascii	"unsigned int\000"
 2475      676E6564 
 2475      20696E74 
 2475      00
 2476              	.LASF26:
 2477 013e 666C6167 		.ascii	"flags\000"
 2477      7300
 2478              	.LASF37:
 2479 0144 696E6574 		.ascii	"inet_chksum_pseudo_partial\000"
 2479      5F63686B 
 2479      73756D5F 
 2479      70736575 
 2479      646F5F70 
 2480              	.LASF11:
 2481 015f 6C6F6E67 		.ascii	"long long unsigned int\000"
 2481      206C6F6E 
 2481      6720756E 
 2481      7369676E 
 2481      65642069 
 2482              	.LASF12:
 2483 0176 75696E74 		.ascii	"uint8_t\000"
 2483      385F7400 
 2484              	.LASF18:
 2485 017e 75385F74 		.ascii	"u8_t\000"
 2485      00
 2486              	.LASF36:
 2487 0183 696E6574 		.ascii	"inet_chksum_pseudo\000"
 2487      5F63686B 
 2487      73756D5F 
ARM GAS  /tmp/ccWqbcdi.s 			page 46


 2487      70736575 
 2487      646F00
 2488              	.LASF23:
 2489 0196 7061796C 		.ascii	"payload\000"
 2489      6F616400 
 2490              	.LASF47:
 2491 019e 706F7274 		.ascii	"port_halt\000"
 2491      5F68616C 
 2491      7400
 2492              	.LASF16:
 2493 01a8 73697A65 		.ascii	"sizetype\000"
 2493      74797065 
 2493      00
 2494              	.LASF10:
 2495 01b1 6C6F6E67 		.ascii	"long long int\000"
 2495      206C6F6E 
 2495      6720696E 
 2495      7400
 2496              	.LASF17:
 2497 01bf 63686172 		.ascii	"char\000"
 2497      00
 2498              	.LASF25:
 2499 01c4 74797065 		.ascii	"type\000"
 2499      00
 2500              	.LASF3:
 2501 01c9 73686F72 		.ascii	"short int\000"
 2501      7420696E 
 2501      7400
 2502              	.LASF13:
 2503 01d3 75696E74 		.ascii	"uint16_t\000"
 2503      31365F74 
 2503      00
 2504              	.LASF42:
 2505 01dc 474E5520 		.ascii	"GNU C 4.8.2 -mcpu=cortex-m4 -mno-thumb-interwork -m"
 2505      4320342E 
 2505      382E3220 
 2505      2D6D6370 
 2505      753D636F 
 2506 020f 7468756D 		.ascii	"thumb -ggdb -O2 -std=gnu99 -fomit-frame-pointer -fa"
 2506      62202D67 
 2506      67646220 
 2506      2D4F3220 
 2506      2D737464 
 2507 0242 6C69676E 		.ascii	"lign-functions=16 -ffunction-sections -fdata-sectio"
 2507      2D66756E 
 2507      6374696F 
 2507      6E733D31 
 2507      36202D66 
 2508 0275 6E73202D 		.ascii	"ns -fno-common\000"
 2508      666E6F2D 
 2508      636F6D6D 
 2508      6F6E00
 2509              	.LASF44:
 2510 0284 2F686F6D 		.ascii	"/home/caroline/Documents/PAF/ChibiOS_2.6.4/demos/AR"
 2510      652F6361 
 2510      726F6C69 
 2510      6E652F44 
ARM GAS  /tmp/ccWqbcdi.s 			page 47


 2510      6F63756D 
 2511 02b7 4D434D34 		.ascii	"MCM4-STM32F407-LWIP\000"
 2511      2D53544D 
 2511      33324634 
 2511      30372D4C 
 2511      57495000 
 2512              	.LASF7:
 2513 02cb 6C6F6E67 		.ascii	"long int\000"
 2513      20696E74 
 2513      00
 2514              	.LASF34:
 2515 02d4 70726F74 		.ascii	"proto_len\000"
 2515      6F5F6C65 
 2515      6E00
 2516              	.LASF15:
 2517 02de 5F426F6F 		.ascii	"_Bool\000"
 2517      6C00
 2518              	.LASF33:
 2519 02e4 70726F74 		.ascii	"proto\000"
 2519      6F00
 2520              	.LASF32:
 2521 02ea 64657374 		.ascii	"dest\000"
 2521      00
 2522              		.ident	"GCC: (4.8.2-14ubuntu1+6) 4.8.2"
ARM GAS  /tmp/ccWqbcdi.s 			page 48


DEFINED SYMBOLS
                            *ABS*:0000000000000000 inet_chksum.c
     /tmp/ccWqbcdi.s:19     .text.lwip_standard_chksum:0000000000000000 $t
     /tmp/ccWqbcdi.s:24     .text.lwip_standard_chksum:0000000000000000 lwip_standard_chksum
     /tmp/ccWqbcdi.s:144    .text.inet_chksum_pseudo:0000000000000000 $t
     /tmp/ccWqbcdi.s:150    .text.inet_chksum_pseudo:0000000000000000 inet_chksum_pseudo
     /tmp/ccWqbcdi.s:287    .text.inet_chksum_pseudo_partial:0000000000000000 $t
     /tmp/ccWqbcdi.s:293    .text.inet_chksum_pseudo_partial:0000000000000000 inet_chksum_pseudo_partial
     /tmp/ccWqbcdi.s:469    .text.inet_chksum:0000000000000000 $t
     /tmp/ccWqbcdi.s:475    .text.inet_chksum:0000000000000000 inet_chksum
     /tmp/ccWqbcdi.s:497    .text.inet_chksum_pbuf:0000000000000000 $t
     /tmp/ccWqbcdi.s:503    .text.inet_chksum_pbuf:0000000000000000 inet_chksum_pbuf
                     .debug_frame:0000000000000010 $d

UNDEFINED SYMBOLS
lwip_htons
port_halt
