ARM GAS  /tmp/ccegF7gt.s 			page 1


   1              		.syntax unified
   2              		.cpu cortex-m4
   3              		.fpu softvfp
   4              		.eabi_attribute 20, 1
   5              		.eabi_attribute 21, 1
   6              		.eabi_attribute 23, 3
   7              		.eabi_attribute 24, 1
   8              		.eabi_attribute 25, 1
   9              		.eabi_attribute 26, 1
  10              		.eabi_attribute 30, 2
  11              		.eabi_attribute 34, 1
  12              		.eabi_attribute 18, 4
  13              		.thumb
  14              		.file	"ip.c"
  15              		.text
  16              	.Ltext0:
  17              		.cfi_sections	.debug_frame
  18              		.section	.text.ip_route,"ax",%progbits
  19              		.align	2
  20              		.p2align 4,,15
  21              		.global	ip_route
  22              		.thumb
  23              		.thumb_func
  24              		.type	ip_route, %function
  25              	ip_route:
  26              	.LFB7:
  27              		.file 1 "../../ext/lwip/src/core/ipv4/ip.c"
  28              		.loc 1 125 0
  29              		.cfi_startproc
  30              		@ args = 0, pretend = 0, frame = 0
  31              		@ frame_needed = 0, uses_anonymous_args = 0
  32              		@ link register save eliminated.
  33              	.LVL0:
  34 0000 10B4     		push	{r4}
  35              		.cfi_def_cfa_offset 4
  36              		.cfi_offset 4, -4
  37              		.loc 1 136 0
  38 0002 40F20003 		movw	r3, #:lower16:netif_list
  39 0006 C0F20003 		movt	r3, #:upper16:netif_list
  40              	.L21:
  41 000a 1B68     		ldr	r3, [r3]
  42              	.LVL1:
  43 000c 6BB1     		cbz	r3, .L2
  44              		.loc 1 138 0
  45 000e 93F82920 		ldrb	r2, [r3, #41]	@ zero_extendqisi2
  46 0012 D107     		lsls	r1, r2, #31
  47 0014 F9D5     		bpl	.L21
  48              		.loc 1 139 0
  49 0016 5C68     		ldr	r4, [r3, #4]
  50 0018 0168     		ldr	r1, [r0]
  51 001a 9A68     		ldr	r2, [r3, #8]
  52 001c 6140     		eors	r1, r1, r4
  53 001e 1142     		tst	r1, r2
  54 0020 F3D1     		bne	.L21
  55              	.LVL2:
  56              	.L8:
  57 0022 1846     		mov	r0, r3
ARM GAS  /tmp/ccegF7gt.s 			page 2


  58              	.LVL3:
  59              	.L4:
  60              		.loc 1 154 0
  61 0024 5DF8044B 		ldr	r4, [sp], #4
  62 0028 7047     		bx	lr
  63              	.LVL4:
  64              	.L2:
  65              		.loc 1 145 0
  66 002a 40F20003 		movw	r3, #:lower16:netif_default
  67              	.LVL5:
  68 002e C0F20003 		movt	r3, #:upper16:netif_default
  69 0032 1B68     		ldr	r3, [r3]
  70 0034 1BB1     		cbz	r3, .L6
  71              		.loc 1 145 0 is_stmt 0 discriminator 1
  72 0036 93F82920 		ldrb	r2, [r3, #41]	@ zero_extendqisi2
  73 003a D207     		lsls	r2, r2, #31
  74 003c F1D4     		bmi	.L8
  75              	.L6:
  76              		.loc 1 148 0 is_stmt 1
  77 003e 40F20003 		movw	r3, #:lower16:lwip_stats
  78 0042 C0F20003 		movt	r3, #:upper16:lwip_stats
  79              		.loc 1 150 0
  80 0046 0020     		movs	r0, #0
  81              	.LVL6:
  82              		.loc 1 148 0
  83 0048 B3F85620 		ldrh	r2, [r3, #86]
  84 004c 0132     		adds	r2, r2, #1
  85 004e A3F85620 		strh	r2, [r3, #86]	@ movhi
  86              		.loc 1 150 0
  87 0052 E7E7     		b	.L4
  88              		.cfi_endproc
  89              	.LFE7:
  90              		.size	ip_route, .-ip_route
  91 0054 AFF30080 		.section	.text.ip_input,"ax",%progbits
  91      AFF30080 
  91      AFF30080 
  92              		.align	2
  93              		.p2align 4,,15
  94              		.global	ip_input
  95              		.thumb
  96              		.thumb_func
  97              		.type	ip_input, %function
  98              	ip_input:
  99              	.LFB8:
 100              		.loc 1 306 0
 101              		.cfi_startproc
 102              		@ args = 0, pretend = 0, frame = 8
 103              		@ frame_needed = 0, uses_anonymous_args = 0
 104              	.LVL7:
 105 0000 2DE9F04F 		push	{r4, r5, r6, r7, r8, r9, r10, fp, lr}
 106              		.cfi_def_cfa_offset 36
 107              		.cfi_offset 4, -36
 108              		.cfi_offset 5, -32
 109              		.cfi_offset 6, -28
 110              		.cfi_offset 7, -24
 111              		.cfi_offset 8, -20
 112              		.cfi_offset 9, -16
ARM GAS  /tmp/ccegF7gt.s 			page 3


 113              		.cfi_offset 10, -12
 114              		.cfi_offset 11, -8
 115              		.cfi_offset 14, -4
 116              		.loc 1 315 0
 117 0004 40F20005 		movw	r5, #:lower16:lwip_stats
 118 0008 C0F20005 		movt	r5, #:upper16:lwip_stats
 119              		.loc 1 319 0
 120 000c D0F804B0 		ldr	fp, [r0, #4]
 121              	.LVL8:
 122              		.loc 1 315 0
 123 0010 B5F84A30 		ldrh	r3, [r5, #74]
 124 0014 0133     		adds	r3, r3, #1
 125 0016 A5F84A30 		strh	r3, [r5, #74]	@ movhi
 126              		.loc 1 320 0
 127 001a 9BF80030 		ldrb	r3, [fp]	@ zero_extendqisi2
 128 001e 1A09     		lsrs	r2, r3, #4
 129 0020 042A     		cmp	r2, #4
 130              		.loc 1 306 0
 131 0022 83B0     		sub	sp, sp, #12
 132              		.cfi_def_cfa_offset 48
 133              		.loc 1 306 0
 134 0024 0746     		mov	r7, r0
 135 0026 8846     		mov	r8, r1
 136              		.loc 1 320 0
 137 0028 0FD0     		beq	.L24
 138              		.loc 1 323 0
 139 002a FFF7FEFF 		bl	pbuf_free
 140              	.LVL9:
 141              		.loc 1 324 0
 142 002e B5F85C20 		ldrh	r2, [r5, #92]
 143              		.loc 1 325 0
 144 0032 B5F84E30 		ldrh	r3, [r5, #78]
 145              		.loc 1 324 0
 146 0036 0132     		adds	r2, r2, #1
 147              		.loc 1 325 0
 148 0038 0133     		adds	r3, r3, #1
 149              		.loc 1 324 0
 150 003a A5F85C20 		strh	r2, [r5, #92]	@ movhi
 151              		.loc 1 325 0
 152 003e A5F84E30 		strh	r3, [r5, #78]	@ movhi
 153              	.LVL10:
 154              	.L25:
 155              		.loc 1 613 0
 156 0042 0020     		movs	r0, #0
 157 0044 03B0     		add	sp, sp, #12
 158              		@ sp needed
 159 0046 BDE8F08F 		pop	{r4, r5, r6, r7, r8, r9, r10, fp, pc}
 160              	.LVL11:
 161              	.L24:
 162              		.loc 1 338 0
 163 004a 03F00F03 		and	r3, r3, #15
 164              	.LVL12:
 165              		.loc 1 342 0
 166 004e BBF80200 		ldrh	r0, [fp, #2]	@ unaligned
 167              	.LVL13:
 168              		.loc 1 340 0
 169 0052 9C00     		lsls	r4, r3, #2
ARM GAS  /tmp/ccegF7gt.s 			page 4


 170              	.LVL14:
 171              		.loc 1 342 0
 172 0054 FFF7FEFF 		bl	lwip_ntohs
 173              	.LVL15:
 174              		.loc 1 345 0
 175 0058 7B89     		ldrh	r3, [r7, #10]
 176 005a A342     		cmp	r3, r4
 177              		.loc 1 342 0
 178 005c 0646     		mov	r6, r0
 179              	.LVL16:
 180              		.loc 1 345 0
 181 005e 02D3     		bcc	.L26
 182              		.loc 1 345 0 is_stmt 0 discriminator 1
 183 0060 3B89     		ldrh	r3, [r7, #8]
 184 0062 8342     		cmp	r3, r0
 185 0064 10D2     		bcs	.L27
 186              	.L26:
 187              		.loc 1 357 0 is_stmt 1
 188 0066 3846     		mov	r0, r7
 189              	.LVL17:
 190 0068 FFF7FEFF 		bl	pbuf_free
 191              	.LVL18:
 192              		.loc 1 358 0
 193 006c B5F85220 		ldrh	r2, [r5, #82]
 194              		.loc 1 359 0
 195 0070 B5F84E30 		ldrh	r3, [r5, #78]
 196              		.loc 1 358 0
 197 0074 0132     		adds	r2, r2, #1
 198              		.loc 1 359 0
 199 0076 0133     		adds	r3, r3, #1
 200              		.loc 1 613 0
 201 0078 0020     		movs	r0, #0
 202              		.loc 1 358 0
 203 007a A5F85220 		strh	r2, [r5, #82]	@ movhi
 204              		.loc 1 359 0
 205 007e A5F84E30 		strh	r3, [r5, #78]	@ movhi
 206              		.loc 1 613 0
 207 0082 03B0     		add	sp, sp, #12
 208              		@ sp needed
 209 0084 BDE8F08F 		pop	{r4, r5, r6, r7, r8, r9, r10, fp, pc}
 210              	.LVL19:
 211              	.L27:
 212              		.loc 1 366 0
 213 0088 2146     		mov	r1, r4
 214 008a 5846     		mov	r0, fp
 215              	.LVL20:
 216 008c FFF7FEFF 		bl	inet_chksum
 217              	.LVL21:
 218 0090 0028     		cmp	r0, #0
 219 0092 40F0A380 		bne	.L64
 220              		.loc 1 385 0
 221 0096 40F20002 		movw	r2, #:lower16:.LANCHOR1
 222              		.loc 1 381 0
 223 009a 3146     		mov	r1, r6
 224 009c 3846     		mov	r0, r7
 225              		.loc 1 384 0
 226 009e 40F20009 		movw	r9, #:lower16:.LANCHOR0
ARM GAS  /tmp/ccegF7gt.s 			page 5


 227              		.loc 1 385 0
 228 00a2 0192     		str	r2, [sp, #4]
 229              		.loc 1 384 0
 230 00a4 C0F20009 		movt	r9, #:upper16:.LANCHOR0
 231              		.loc 1 381 0
 232 00a8 FFF7FEFF 		bl	pbuf_realloc
 233              	.LVL22:
 234              		.loc 1 384 0
 235 00ac DBF81020 		ldr	r2, [fp, #16]	@ unaligned
 236              		.loc 1 385 0
 237 00b0 DBF80C30 		ldr	r3, [fp, #12]	@ unaligned
 238              		.loc 1 384 0
 239 00b4 C9F80020 		str	r2, [r9]
 240              		.loc 1 385 0
 241 00b8 019A     		ldr	r2, [sp, #4]
 242 00ba C0F20002 		movt	r2, #:upper16:.LANCHOR1
 243              	.LBB2:
 244              		.loc 1 435 0
 245 00be 40F2000A 		movw	r10, #:lower16:netif_list
 246              	.LBE2:
 247              		.loc 1 385 0
 248 00c2 0192     		str	r2, [sp, #4]
 249 00c4 1360     		str	r3, [r2]
 250              	.LVL23:
 251              	.LBB3:
 252              		.loc 1 435 0
 253 00c6 C0F2000A 		movt	r10, #:upper16:netif_list
 254              	.LBE3:
 255              		.loc 1 385 0
 256 00ca 4446     		mov	r4, r8
 257              	.LVL24:
 258              	.LBB4:
 259              		.loc 1 401 0
 260 00cc 0126     		movs	r6, #1
 261              	.LVL25:
 262              	.L36:
 263              		.loc 1 411 0
 264 00ce 94F82930 		ldrb	r3, [r4, #41]	@ zero_extendqisi2
 265 00d2 D807     		lsls	r0, r3, #31
 266 00d4 09D5     		bpl	.L32
 267              		.loc 1 411 0 is_stmt 0 discriminator 1
 268 00d6 6368     		ldr	r3, [r4, #4]
 269 00d8 3BB1     		cbz	r3, .L32
 270              		.loc 1 413 0 is_stmt 1
 271 00da D9F80000 		ldr	r0, [r9]
 272 00de 8342     		cmp	r3, r0
 273 00e0 0DD0     		beq	.L33
 274              		.loc 1 415 0 discriminator 1
 275 00e2 2146     		mov	r1, r4
 276 00e4 FFF7FEFF 		bl	ip4_addr_isbroadcast
 277              	.LVL26:
 278              		.loc 1 413 0 discriminator 1
 279 00e8 48B9     		cbnz	r0, .L33
 280              	.L32:
 281              		.loc 1 433 0
 282 00ea 002E     		cmp	r6, #0
 283 00ec 6BD0     		beq	.L65
ARM GAS  /tmp/ccegF7gt.s 			page 6


 284              	.LVL27:
 285              		.loc 1 435 0
 286 00ee DAF80040 		ldr	r4, [r10]
 287              	.LVL28:
 288              	.L34:
 289              		.loc 1 439 0
 290 00f2 4445     		cmp	r4, r8
 291              		.loc 1 440 0
 292 00f4 08BF     		it	eq
 293 00f6 2468     		ldreq	r4, [r4]
 294              	.LVL29:
 295              		.loc 1 442 0
 296 00f8 0CB1     		cbz	r4, .L33
 297 00fa 0026     		movs	r6, #0
 298 00fc E7E7     		b	.L36
 299              	.LVL30:
 300              	.L33:
 301              	.LBE4:
 302              		.loc 1 475 0
 303 00fe 019B     		ldr	r3, [sp, #4]
 304 0100 40F20006 		movw	r6, #:lower16:.LANCHOR1
 305 0104 1868     		ldr	r0, [r3]
 306 0106 4146     		mov	r1, r8
 307 0108 C0F20006 		movt	r6, #:upper16:.LANCHOR1
 308 010c FFF7FEFF 		bl	ip4_addr_isbroadcast
 309              	.LVL31:
 310 0110 0028     		cmp	r0, #0
 311 0112 5AD1     		bne	.L37
 312              		.loc 1 476 0 discriminator 1
 313 0114 3368     		ldr	r3, [r6]
 314 0116 03F0F003 		and	r3, r3, #240
 315              		.loc 1 475 0 discriminator 1
 316 011a E02B     		cmp	r3, #224
 317 011c 55D0     		beq	.L37
 318              		.loc 1 489 0
 319 011e 002C     		cmp	r4, #0
 320 0120 79D0     		beq	.L66
 321              		.loc 1 507 0
 322 0122 BBF80620 		ldrh	r2, [fp, #6]	@ unaligned
 323 0126 4FF63F73 		movw	r3, #65343
 324 012a 1340     		ands	r3, r3, r2
 325 012c 3BB1     		cbz	r3, .L40
 326              		.loc 1 512 0
 327 012e 3846     		mov	r0, r7
 328 0130 FFF7FEFF 		bl	ip_reass
 329              	.LVL32:
 330              		.loc 1 514 0
 331 0134 0746     		mov	r7, r0
 332 0136 0028     		cmp	r0, #0
 333 0138 83D0     		beq	.L25
 334              		.loc 1 517 0
 335 013a D0F804B0 		ldr	fp, [r0, #4]
 336              	.LVL33:
 337              	.L40:
 338              		.loc 1 553 0
 339 013e 40F20006 		movw	r6, #:lower16:.LANCHOR2
 340              		.loc 1 554 0
ARM GAS  /tmp/ccegF7gt.s 			page 7


 341 0142 40F20004 		movw	r4, #:lower16:.LANCHOR3
 342              	.LVL34:
 343              		.loc 1 553 0
 344 0146 C0F20006 		movt	r6, #:upper16:.LANCHOR2
 345              		.loc 1 554 0
 346 014a C0F20004 		movt	r4, #:upper16:.LANCHOR3
 347              		.loc 1 558 0
 348 014e 3846     		mov	r0, r7
 349 0150 4146     		mov	r1, r8
 350              		.loc 1 553 0
 351 0152 C6F80080 		str	r8, [r6]
 352              		.loc 1 554 0
 353 0156 C4F800B0 		str	fp, [r4]
 354              		.loc 1 558 0
 355 015a FFF7FEFF 		bl	raw_input
 356              	.LVL35:
 357 015e 50BB     		cbnz	r0, .L41
 358              		.loc 1 561 0
 359 0160 9BF80930 		ldrb	r3, [fp, #9]	@ zero_extendqisi2
 360 0164 062B     		cmp	r3, #6
 361 0166 4CD0     		beq	.L43
 362 0168 112B     		cmp	r3, #17
 363 016a 45D0     		beq	.L44
 364 016c 012B     		cmp	r3, #1
 365 016e 4DD0     		beq	.L67
 366              		.loc 1 591 0
 367 0170 4146     		mov	r1, r8
 368 0172 D9F80000 		ldr	r0, [r9]
 369 0176 40F20008 		movw	r8, #:lower16:.LANCHOR0
 370              	.LVL36:
 371 017a C0F20008 		movt	r8, #:upper16:.LANCHOR0
 372 017e FFF7FEFF 		bl	ip4_addr_isbroadcast
 373              	.LVL37:
 374 0182 58B9     		cbnz	r0, .L46
 375              		.loc 1 592 0 discriminator 1
 376 0184 D8F80030 		ldr	r3, [r8]
 377 0188 03F0F003 		and	r3, r3, #240
 378              		.loc 1 591 0 discriminator 1
 379 018c E02B     		cmp	r3, #224
 380 018e 05D0     		beq	.L46
 381              		.loc 1 593 0
 382 0190 C7F804B0 		str	fp, [r7, #4]
 383              		.loc 1 594 0
 384 0194 3846     		mov	r0, r7
 385 0196 0221     		movs	r1, #2
 386 0198 FFF7FEFF 		bl	icmp_dest_unreach
 387              	.LVL38:
 388              	.L46:
 389              		.loc 1 597 0
 390 019c 3846     		mov	r0, r7
 391 019e FFF7FEFF 		bl	pbuf_free
 392              	.LVL39:
 393              		.loc 1 601 0
 394 01a2 B5F85820 		ldrh	r2, [r5, #88]
 395              		.loc 1 602 0
 396 01a6 B5F84E30 		ldrh	r3, [r5, #78]
 397              		.loc 1 601 0
ARM GAS  /tmp/ccegF7gt.s 			page 8


 398 01aa 0132     		adds	r2, r2, #1
 399              		.loc 1 602 0
 400 01ac 0133     		adds	r3, r3, #1
 401              		.loc 1 601 0
 402 01ae A5F85820 		strh	r2, [r5, #88]	@ movhi
 403              		.loc 1 602 0
 404 01b2 A5F84E30 		strh	r3, [r5, #78]	@ movhi
 405              	.L41:
 406              		.loc 1 609 0
 407 01b6 019A     		ldr	r2, [sp, #4]
 408              		.loc 1 607 0
 409 01b8 0023     		movs	r3, #0
 410 01ba 3360     		str	r3, [r6]
 411              		.loc 1 608 0
 412 01bc 2360     		str	r3, [r4]
 413              		.loc 1 609 0
 414 01be 1360     		str	r3, [r2]
 415              		.loc 1 610 0
 416 01c0 C9F80030 		str	r3, [r9]
 417              		.loc 1 612 0
 418 01c4 3DE7     		b	.L25
 419              	.LVL40:
 420              	.L65:
 421              	.LBB5:
 422              		.loc 1 437 0
 423 01c6 2468     		ldr	r4, [r4]
 424              	.LVL41:
 425 01c8 93E7     		b	.L34
 426              	.LVL42:
 427              	.L37:
 428              	.LBE5:
 429              		.loc 1 480 0
 430 01ca 3846     		mov	r0, r7
 431 01cc FFF7FEFF 		bl	pbuf_free
 432              	.LVL43:
 433              		.loc 1 481 0
 434 01d0 B5F84E30 		ldrh	r3, [r5, #78]
 435 01d4 0133     		adds	r3, r3, #1
 436 01d6 A5F84E30 		strh	r3, [r5, #78]	@ movhi
 437              		.loc 1 484 0
 438 01da 32E7     		b	.L25
 439              	.LVL44:
 440              	.L64:
 441              		.loc 1 371 0
 442 01dc 3846     		mov	r0, r7
 443 01de FFF7FEFF 		bl	pbuf_free
 444              	.LVL45:
 445              		.loc 1 372 0
 446 01e2 B5F85020 		ldrh	r2, [r5, #80]
 447              		.loc 1 373 0
 448 01e6 B5F84E30 		ldrh	r3, [r5, #78]
 449              		.loc 1 372 0
 450 01ea 0132     		adds	r2, r2, #1
 451              		.loc 1 373 0
 452 01ec 0133     		adds	r3, r3, #1
 453              		.loc 1 372 0
 454 01ee A5F85020 		strh	r2, [r5, #80]	@ movhi
ARM GAS  /tmp/ccegF7gt.s 			page 9


 455              		.loc 1 373 0
 456 01f2 A5F84E30 		strh	r3, [r5, #78]	@ movhi
 457              		.loc 1 375 0
 458 01f6 24E7     		b	.L25
 459              	.LVL46:
 460              	.L44:
 461              		.loc 1 568 0
 462 01f8 3846     		mov	r0, r7
 463 01fa 4146     		mov	r1, r8
 464 01fc FFF7FEFF 		bl	udp_input
 465              	.LVL47:
 466              		.loc 1 569 0
 467 0200 D9E7     		b	.L41
 468              	.L43:
 469              		.loc 1 574 0
 470 0202 3846     		mov	r0, r7
 471 0204 4146     		mov	r1, r8
 472 0206 FFF7FEFF 		bl	tcp_input
 473              	.LVL48:
 474              		.loc 1 575 0
 475 020a D4E7     		b	.L41
 476              	.L67:
 477              		.loc 1 580 0
 478 020c 3846     		mov	r0, r7
 479 020e 4146     		mov	r1, r8
 480 0210 FFF7FEFF 		bl	icmp_input
 481              	.LVL49:
 482              		.loc 1 581 0
 483 0214 CFE7     		b	.L41
 484              	.LVL50:
 485              	.L66:
 486              		.loc 1 503 0
 487 0216 3846     		mov	r0, r7
 488 0218 FFF7FEFF 		bl	pbuf_free
 489              	.LVL51:
 490              		.loc 1 504 0
 491 021c 11E7     		b	.L25
 492              		.cfi_endproc
 493              	.LFE8:
 494              		.size	ip_input, .-ip_input
 495 021e 00BF     		.section	.text.ip_output_if,"ax",%progbits
 496              		.align	2
 497              		.p2align 4,,15
 498              		.global	ip_output_if
 499              		.thumb
 500              		.thumb_func
 501              		.type	ip_output_if, %function
 502              	ip_output_if:
 503              	.LFB9:
 504              		.loc 1 644 0
 505              		.cfi_startproc
 506              		@ args = 12, pretend = 0, frame = 24
 507              		@ frame_needed = 0, uses_anonymous_args = 0
 508              	.LVL52:
 509 0000 2DE9F04F 		push	{r4, r5, r6, r7, r8, r9, r10, fp, lr}
 510              		.cfi_def_cfa_offset 36
 511              		.cfi_offset 4, -36
ARM GAS  /tmp/ccegF7gt.s 			page 10


 512              		.cfi_offset 5, -32
 513              		.cfi_offset 6, -28
 514              		.cfi_offset 7, -24
 515              		.cfi_offset 8, -20
 516              		.cfi_offset 9, -16
 517              		.cfi_offset 10, -12
 518              		.cfi_offset 11, -8
 519              		.cfi_offset 14, -4
 520 0004 87B0     		sub	sp, sp, #28
 521              		.cfi_def_cfa_offset 64
 522              		.loc 1 644 0
 523 0006 0546     		mov	r5, r0
 524 0008 0391     		str	r1, [sp, #12]
 525              		.loc 1 668 0
 526 000a C189     		ldrh	r1, [r0, #14]
 527              	.LVL53:
 528              		.loc 1 644 0
 529 000c 9DF840A0 		ldrb	r10, [sp, #64]	@ zero_extendqisi2
 530 0010 9DF84490 		ldrb	r9, [sp, #68]	@ zero_extendqisi2
 531 0014 129F     		ldr	r7, [sp, #72]
 532              		.loc 1 668 0
 533 0016 0129     		cmp	r1, #1
 534              		.loc 1 644 0
 535 0018 1646     		mov	r6, r2
 536 001a 9846     		mov	r8, r3
 537              		.loc 1 668 0
 538 001c 01D0     		beq	.L69
 539              		.loc 1 668 0 is_stmt 0 discriminator 1
 540 001e FFF7FEFF 		bl	port_halt
 541              	.LVL54:
 542              	.L69:
 543              		.loc 1 673 0 is_stmt 1
 544 0022 002E     		cmp	r6, #0
 545 0024 67D0     		beq	.L70
 546              	.LVL55:
 547              	.LBB6:
 548              		.loc 1 704 0
 549 0026 2846     		mov	r0, r5
 550 0028 1421     		movs	r1, #20
 551 002a FFF7FEFF 		bl	pbuf_header
 552              	.LVL56:
 553 002e 0028     		cmp	r0, #0
 554 0030 73D1     		bne	.L88
 555              		.loc 1 713 0
 556 0032 6B89     		ldrh	r3, [r5, #10]
 557              		.loc 1 712 0
 558 0034 6C68     		ldr	r4, [r5, #4]
 559              	.LVL57:
 560              		.loc 1 713 0
 561 0036 132B     		cmp	r3, #19
 562 0038 63D9     		bls	.L89
 563              	.L73:
 564              		.loc 1 716 0
 565 003a 84F80880 		strb	r8, [r4, #8]
 566              		.loc 1 717 0
 567 003e 84F80990 		strb	r9, [r4, #9]
 568              		.loc 1 723 0
ARM GAS  /tmp/ccegF7gt.s 			page 11


 569 0042 3268     		ldr	r2, [r6]
 570              		.loc 1 730 0
 571 0044 84F801A0 		strb	r10, [r4, #1]
 572              		.loc 1 729 0
 573 0048 4523     		movs	r3, #69
 574 004a 2370     		strb	r3, [r4]
 575              		.loc 1 732 0
 576 004c 4FEA0A2A 		lsl	r10, r10, #8
 577 0050 4AEA0301 		orr	r1, r10, r3
 578              		.loc 1 725 0
 579 0054 1FFA82FC 		uxth	ip, r2
 580              		.loc 1 723 0
 581 0058 2261     		str	r2, [r4, #16]	@ unaligned
 582              		.loc 1 734 0
 583 005a 2889     		ldrh	r0, [r5, #8]
 584              		.loc 1 726 0
 585 005c 120C     		lsrs	r2, r2, #16
 586              		.loc 1 734 0
 587 005e 8DE80610 		stmia	sp, {r1, r2, ip}
 588 0062 FFF7FEFF 		bl	lwip_htons
 589              	.LVL58:
 590              		.loc 1 739 0
 591 0066 40F2000B 		movw	fp, #:lower16:.LANCHOR4
 592 006a C0F2000B 		movt	fp, #:upper16:.LANCHOR4
 593              		.loc 1 734 0
 594 006e 8246     		mov	r10, r0
 595              		.loc 1 738 0
 596 0070 0020     		movs	r0, #0
 597 0072 A071     		strb	r0, [r4, #6]
 598 0074 E071     		strb	r0, [r4, #7]
 599              		.loc 1 734 0
 600 0076 A4F802A0 		strh	r10, [r4, #2]	@ unaligned
 601              		.loc 1 739 0
 602 007a BBF80000 		ldrh	r0, [fp]
 603 007e FFF7FEFF 		bl	lwip_htons
 604              	.LVL59:
 605              		.loc 1 743 0
 606 0082 BBF800E0 		ldrh	lr, [fp]
 607              		.loc 1 745 0
 608 0086 039B     		ldr	r3, [sp, #12]
 609              		.loc 1 739 0
 610 0088 A080     		strh	r0, [r4, #4]	@ unaligned
 611              		.loc 1 743 0
 612 008a 0EF1010E 		add	lr, lr, #1
 613              		.loc 1 719 0
 614 008e 48EA0928 		orr	r8, r8, r9, lsl #8
 615              	.LVL60:
 616              		.loc 1 743 0
 617 0092 ABF800E0 		strh	lr, [fp]	@ movhi
 618              		.loc 1 745 0
 619 0096 9DE80610 		ldmia	sp, {r1, r2, ip}
 620 009a 0BB1     		cbz	r3, .L74
 621              		.loc 1 745 0 is_stmt 0 discriminator 1
 622 009c 1B68     		ldr	r3, [r3]
 623 009e 43BB     		cbnz	r3, .L75
 624              	.L74:
 625              		.loc 1 746 0 is_stmt 1
ARM GAS  /tmp/ccegF7gt.s 			page 12


 626 00a0 7B68     		ldr	r3, [r7, #4]
 627 00a2 E360     		str	r3, [r4, #12]	@ unaligned
 628              	.L76:
 629              	.LVL61:
 630              		.loc 1 725 0
 631 00a4 6244     		add	r2, r2, ip
 632              		.loc 1 726 0
 633 00a6 1144     		add	r1, r1, r2
 634              		.loc 1 732 0
 635 00a8 8844     		add	r8, r8, r1
 636              	.LVL62:
 637              		.loc 1 736 0
 638 00aa C244     		add	r10, r10, r8
 639              		.loc 1 741 0
 640 00ac 5044     		add	r0, r0, r10
 641              		.loc 1 753 0
 642 00ae 10FA83F0 		uxtah	r0, r0, r3
 643              		.loc 1 754 0
 644 00b2 00EB1343 		add	r3, r0, r3, lsr #16
 645              	.LVL63:
 646              		.loc 1 755 0
 647 00b6 9AB2     		uxth	r2, r3
 648 00b8 02EB1343 		add	r3, r2, r3, lsr #16
 649              	.LVL64:
 650              		.loc 1 756 0
 651 00bc 03EB1343 		add	r3, r3, r3, lsr #16
 652              	.LVL65:
 653              		.loc 1 758 0
 654 00c0 DB43     		mvns	r3, r3
 655              	.LVL66:
 656 00c2 6381     		strh	r3, [r4, #10]	@ unaligned
 657              	.LVL67:
 658              	.L77:
 659              	.LBE6:
 660              		.loc 1 772 0
 661 00c4 40F20003 		movw	r3, #:lower16:lwip_stats
 662 00c8 C0F20003 		movt	r3, #:upper16:lwip_stats
 663              		.loc 1 791 0
 664 00cc 3A8C     		ldrh	r2, [r7, #32]
 665              		.loc 1 772 0
 666 00ce B3F84810 		ldrh	r1, [r3, #72]
 667 00d2 0131     		adds	r1, r1, #1
 668 00d4 A3F84810 		strh	r1, [r3, #72]	@ movhi
 669              		.loc 1 791 0
 670 00d8 12B1     		cbz	r2, .L78
 671              		.loc 1 791 0 is_stmt 0 discriminator 1
 672 00da 2B89     		ldrh	r3, [r5, #8]
 673 00dc 9342     		cmp	r3, r2
 674 00de 13D8     		bhi	.L90
 675              	.L78:
 676              		.loc 1 797 0 is_stmt 1
 677 00e0 2946     		mov	r1, r5
 678 00e2 3246     		mov	r2, r6
 679 00e4 7B69     		ldr	r3, [r7, #20]
 680 00e6 3846     		mov	r0, r7
 681 00e8 9847     		blx	r3
 682              	.LVL68:
ARM GAS  /tmp/ccegF7gt.s 			page 13


 683              	.L72:
 684              		.loc 1 798 0
 685 00ea 40B2     		sxtb	r0, r0
 686 00ec 07B0     		add	sp, sp, #28
 687              		@ sp needed
 688 00ee BDE8F08F 		pop	{r4, r5, r6, r7, r8, r9, r10, fp, pc}
 689              	.LVL69:
 690              	.L75:
 691              	.LBB7:
 692              		.loc 1 749 0
 693 00f2 E360     		str	r3, [r4, #12]	@ unaligned
 694 00f4 D6E7     		b	.L76
 695              	.LVL70:
 696              	.L70:
 697              	.LBE7:
 698              		.loc 1 768 0
 699 00f6 6B68     		ldr	r3, [r5, #4]
 700 00f8 06AE     		add	r6, sp, #24
 701              	.LVL71:
 702 00fa 1B69     		ldr	r3, [r3, #16]	@ unaligned
 703 00fc 46F8043D 		str	r3, [r6, #-4]!
 704              	.LVL72:
 705 0100 E0E7     		b	.L77
 706              	.LVL73:
 707              	.L89:
 708              	.LBB8:
 709              		.loc 1 713 0 discriminator 1
 710 0102 FFF7FEFF 		bl	port_halt
 711              	.LVL74:
 712 0106 98E7     		b	.L73
 713              	.LVL75:
 714              	.L90:
 715              	.LBE8:
 716              		.loc 1 792 0
 717 0108 2846     		mov	r0, r5
 718 010a 3946     		mov	r1, r7
 719 010c 3246     		mov	r2, r6
 720 010e FFF7FEFF 		bl	ip_frag
 721              	.LVL76:
 722              		.loc 1 798 0
 723 0112 40B2     		sxtb	r0, r0
 724 0114 07B0     		add	sp, sp, #28
 725              		@ sp needed
 726 0116 BDE8F08F 		pop	{r4, r5, r6, r7, r8, r9, r10, fp, pc}
 727              	.LVL77:
 728              	.L88:
 729              	.LBB9:
 730              		.loc 1 707 0
 731 011a 40F20003 		movw	r3, #:lower16:lwip_stats
 732 011e C0F20003 		movt	r3, #:upper16:lwip_stats
 733              		.loc 1 709 0
 734 0122 FE20     		movs	r0, #254
 735              		.loc 1 707 0
 736 0124 B3F85C20 		ldrh	r2, [r3, #92]
 737 0128 0132     		adds	r2, r2, #1
 738 012a A3F85C20 		strh	r2, [r3, #92]	@ movhi
 739              		.loc 1 709 0
ARM GAS  /tmp/ccegF7gt.s 			page 14


 740 012e DCE7     		b	.L72
 741              	.LBE9:
 742              		.cfi_endproc
 743              	.LFE9:
 744              		.size	ip_output_if, .-ip_output_if
 745              		.section	.text.ip_output,"ax",%progbits
 746              		.align	2
 747              		.p2align 4,,15
 748              		.global	ip_output
 749              		.thumb
 750              		.thumb_func
 751              		.type	ip_output, %function
 752              	ip_output:
 753              	.LFB10:
 754              		.loc 1 820 0
 755              		.cfi_startproc
 756              		@ args = 8, pretend = 0, frame = 0
 757              		@ frame_needed = 0, uses_anonymous_args = 0
 758              	.LVL78:
 759 0000 2DE9F043 		push	{r4, r5, r6, r7, r8, r9, lr}
 760              		.cfi_def_cfa_offset 28
 761              		.cfi_offset 4, -28
 762              		.cfi_offset 5, -24
 763              		.cfi_offset 6, -20
 764              		.cfi_offset 7, -16
 765              		.cfi_offset 8, -12
 766              		.cfi_offset 9, -8
 767              		.cfi_offset 14, -4
 768 0004 0446     		mov	r4, r0
 769              		.loc 1 825 0
 770 0006 C089     		ldrh	r0, [r0, #14]
 771              	.LVL79:
 772              		.loc 1 820 0
 773 0008 85B0     		sub	sp, sp, #20
 774              		.cfi_def_cfa_offset 48
 775              		.loc 1 825 0
 776 000a 0128     		cmp	r0, #1
 777              		.loc 1 820 0
 778 000c 0F46     		mov	r7, r1
 779 000e 9DF83090 		ldrb	r9, [sp, #48]	@ zero_extendqisi2
 780 0012 9DF83480 		ldrb	r8, [sp, #52]	@ zero_extendqisi2
 781 0016 1546     		mov	r5, r2
 782 0018 1E46     		mov	r6, r3
 783              		.loc 1 825 0
 784 001a 01D0     		beq	.L92
 785              		.loc 1 825 0 is_stmt 0 discriminator 1
 786 001c FFF7FEFF 		bl	port_halt
 787              	.LVL80:
 788              	.L92:
 789              		.loc 1 827 0 is_stmt 1
 790 0020 2846     		mov	r0, r5
 791 0022 FFF7FEFF 		bl	ip_route
 792              	.LVL81:
 793 0026 70B1     		cbz	r0, .L98
 794              		.loc 1 834 0
 795 0028 0290     		str	r0, [sp, #8]
 796 002a CDF80090 		str	r9, [sp]
ARM GAS  /tmp/ccegF7gt.s 			page 15


 797 002e CDF80480 		str	r8, [sp, #4]
 798 0032 2046     		mov	r0, r4
 799              	.LVL82:
 800 0034 3946     		mov	r1, r7
 801 0036 2A46     		mov	r2, r5
 802 0038 3346     		mov	r3, r6
 803 003a FFF7FEFF 		bl	ip_output_if
 804              	.LVL83:
 805              	.L94:
 806              		.loc 1 835 0
 807 003e 40B2     		sxtb	r0, r0
 808 0040 05B0     		add	sp, sp, #20
 809              		@ sp needed
 810 0042 BDE8F083 		pop	{r4, r5, r6, r7, r8, r9, pc}
 811              	.LVL84:
 812              	.L98:
 813              		.loc 1 830 0
 814 0046 40F20003 		movw	r3, #:lower16:lwip_stats
 815 004a C0F20003 		movt	r3, #:upper16:lwip_stats
 816              		.loc 1 831 0
 817 004e FC20     		movs	r0, #252
 818              	.LVL85:
 819              		.loc 1 830 0
 820 0050 B3F85620 		ldrh	r2, [r3, #86]
 821 0054 0132     		adds	r2, r2, #1
 822 0056 A3F85620 		strh	r2, [r3, #86]	@ movhi
 823              		.loc 1 831 0
 824 005a F0E7     		b	.L94
 825              		.cfi_endproc
 826              	.LFE10:
 827              		.size	ip_output, .-ip_output
 828              		.global	current_iphdr_dest
 829              		.global	current_iphdr_src
 830              		.global	current_header
 831              		.global	current_netif
 832              		.section	.bss.current_header,"aw",%nobits
 833              		.align	2
 834              		.set	.LANCHOR3,. + 0
 835              		.type	current_header, %object
 836              		.size	current_header, 4
 837              	current_header:
 838 0000 00000000 		.space	4
 839              		.section	.bss.ip_id,"aw",%nobits
 840              		.align	1
 841              		.set	.LANCHOR4,. + 0
 842              		.type	ip_id, %object
 843              		.size	ip_id, 2
 844              	ip_id:
 845 0000 0000     		.space	2
 846              		.section	.bss.current_iphdr_src,"aw",%nobits
 847              		.align	2
 848              		.set	.LANCHOR1,. + 0
 849              		.type	current_iphdr_src, %object
 850              		.size	current_iphdr_src, 4
 851              	current_iphdr_src:
 852 0000 00000000 		.space	4
 853              		.section	.bss.current_iphdr_dest,"aw",%nobits
ARM GAS  /tmp/ccegF7gt.s 			page 16


 854              		.align	2
 855              		.set	.LANCHOR0,. + 0
 856              		.type	current_iphdr_dest, %object
 857              		.size	current_iphdr_dest, 4
 858              	current_iphdr_dest:
 859 0000 00000000 		.space	4
 860              		.section	.bss.current_netif,"aw",%nobits
 861              		.align	2
 862              		.set	.LANCHOR2,. + 0
 863              		.type	current_netif, %object
 864              		.size	current_netif, 4
 865              	current_netif:
 866 0000 00000000 		.space	4
 867              		.text
 868              	.Letext0:
 869              		.file 2 "/usr/include/newlib/machine/_default_types.h"
 870              		.file 3 "/usr/include/newlib/stdint.h"
 871              		.file 4 "../../os/various/lwip_bindings/arch/cc.h"
 872              		.file 5 "../../ext/lwip/src/include/lwip/err.h"
 873              		.file 6 "../../ext/lwip/src/include/lwip/pbuf.h"
 874              		.file 7 "../../ext/lwip/src/include/ipv4/lwip/ip_addr.h"
 875              		.file 8 "../../ext/lwip/src/include/lwip/netif.h"
 876              		.file 9 "../../ext/lwip/src/include/ipv4/lwip/ip.h"
 877              		.file 10 "../../ext/lwip/src/include/lwip/mem.h"
 878              		.file 11 "../../ext/lwip/src/include/lwip/stats.h"
 879              		.file 12 "../../ext/lwip/src/include/lwip/def.h"
 880              		.file 13 "../../ext/lwip/src/include/ipv4/lwip/inet_chksum.h"
 881              		.file 14 "../../ext/lwip/src/include/ipv4/lwip/ip_frag.h"
 882              		.file 15 "../../ext/lwip/src/include/lwip/raw.h"
 883              		.file 16 "../../ext/lwip/src/include/ipv4/lwip/icmp.h"
 884              		.file 17 "../../ext/lwip/src/include/lwip/udp.h"
 885              		.file 18 "../../ext/lwip/src/include/lwip/tcp_impl.h"
 886              		.file 19 "../../ext/lwip/src/include/lwip/memp.h"
 887              		.file 20 "../../os/ports/GCC/ARMCMx/chcore_v7m.h"