ARM GAS  /tmp/ccegF7gt.s 			page 1


   1              		.syntax unified
   2              		.cpu cortex-m4
   3              		.fpu softvfp
   4              		.eabi_attribute 20, 1
   5              		.eabi_attribute 21, 1
   6              		.eabi_attribute 23, 3
   7              		.eabi_attribute 24, 1
   8              		.eabi_attribute 25, 1
   9              		.eabi_attribute 26, 1
  10              		.eabi_attribute 30, 2
  11              		.eabi_attribute 34, 1
  12              		.eabi_attribute 18, 4
  13              		.thumb
  14              		.file	"ip.c"
  15              		.text
  16              	.Ltext0:
  17              		.cfi_sections	.debug_frame
  18              		.section	.text.ip_route,"ax",%progbits
  19              		.align	2
  20              		.p2align 4,,15
  21              		.global	ip_route
  22              		.thumb
  23              		.thumb_func
  24              		.type	ip_route, %function
  25              	ip_route:
  26              	.LFB7:
  27              		.file 1 "../../ext/lwip/src/core/ipv4/ip.c"
  28              		.loc 1 125 0
  29              		.cfi_startproc
  30              		@ args = 0, pretend = 0, frame = 0
  31              		@ frame_needed = 0, uses_anonymous_args = 0
  32              		@ link register save eliminated.
  33              	.LVL0:
  34 0000 10B4     		push	{r4}
  35              		.cfi_def_cfa_offset 4
  36              		.cfi_offset 4, -4
  37              		.loc 1 136 0
  38 0002 40F20003 		movw	r3, #:lower16:netif_list
  39 0006 C0F20003 		movt	r3, #:upper16:netif_list
  40              	.L21:
  41 000a 1B68     		ldr	r3, [r3]
  42              	.LVL1:
  43 000c 6BB1     		cbz	r3, .L2
  44              		.loc 1 138 0
  45 000e 93F82920 		ldrb	r2, [r3, #41]	@ zero_extendqisi2
  46 0012 D107     		lsls	r1, r2, #31
  47 0014 F9D5     		bpl	.L21
  48              		.loc 1 139 0
  49 0016 5C68     		ldr	r4, [r3, #4]
  50 0018 0168     		ldr	r1, [r0]
  51 001a 9A68     		ldr	r2, [r3, #8]
  52 001c 6140     		eors	r1, r1, r4
  53 001e 1142     		tst	r1, r2
  54 0020 F3D1     		bne	.L21
  55              	.LVL2:
  56              	.L8:
  57 0022 1846     		mov	r0, r3
ARM GAS  /tmp/ccegF7gt.s 			page 2


  58              	.LVL3:
  59              	.L4:
  60              		.loc 1 154 0
  61 0024 5DF8044B 		ldr	r4, [sp], #4
  62 0028 7047     		bx	lr
  63              	.LVL4:
  64              	.L2:
  65              		.loc 1 145 0
  66 002a 40F20003 		movw	r3, #:lower16:netif_default
  67              	.LVL5:
  68 002e C0F20003 		movt	r3, #:upper16:netif_default
  69 0032 1B68     		ldr	r3, [r3]
  70 0034 1BB1     		cbz	r3, .L6
  71              		.loc 1 145 0 is_stmt 0 discriminator 1
  72 0036 93F82920 		ldrb	r2, [r3, #41]	@ zero_extendqisi2
  73 003a D207     		lsls	r2, r2, #31
  74 003c F1D4     		bmi	.L8
  75              	.L6:
  76              		.loc 1 148 0 is_stmt 1
  77 003e 40F20003 		movw	r3, #:lower16:lwip_stats
  78 0042 C0F20003 		movt	r3, #:upper16:lwip_stats
  79              		.loc 1 150 0
  80 0046 0020     		movs	r0, #0
  81              	.LVL6:
  82              		.loc 1 148 0
  83 0048 B3F85620 		ldrh	r2, [r3, #86]
  84 004c 0132     		adds	r2, r2, #1
  85 004e A3F85620 		strh	r2, [r3, #86]	@ movhi
  86              		.loc 1 150 0
  87 0052 E7E7     		b	.L4
  88              		.cfi_endproc
  89              	.LFE7:
  90              		.size	ip_route, .-ip_route
  91 0054 AFF30080 		.section	.text.ip_input,"ax",%progbits
  91      AFF30080 
  91      AFF30080 
  92              		.align	2
  93              		.p2align 4,,15
  94              		.global	ip_input
  95              		.thumb
  96              		.thumb_func
  97              		.type	ip_input, %function
  98              	ip_input:
  99              	.LFB8:
 100              		.loc 1 306 0
 101              		.cfi_startproc
 102              		@ args = 0, pretend = 0, frame = 8
 103              		@ frame_needed = 0, uses_anonymous_args = 0
 104              	.LVL7:
 105 0000 2DE9F04F 		push	{r4, r5, r6, r7, r8, r9, r10, fp, lr}
 106              		.cfi_def_cfa_offset 36
 107              		.cfi_offset 4, -36
 108              		.cfi_offset 5, -32
 109              		.cfi_offset 6, -28
 110              		.cfi_offset 7, -24
 111              		.cfi_offset 8, -20
 112              		.cfi_offset 9, -16
ARM GAS  /tmp/ccegF7gt.s 			page 3


 113              		.cfi_offset 10, -12
 114              		.cfi_offset 11, -8
 115              		.cfi_offset 14, -4
 116              		.loc 1 315 0
 117 0004 40F20005 		movw	r5, #:lower16:lwip_stats
 118 0008 C0F20005 		movt	r5, #:upper16:lwip_stats
 119              		.loc 1 319 0
 120 000c D0F804B0 		ldr	fp, [r0, #4]
 121              	.LVL8:
 122              		.loc 1 315 0
 123 0010 B5F84A30 		ldrh	r3, [r5, #74]
 124 0014 0133     		adds	r3, r3, #1
 125 0016 A5F84A30 		strh	r3, [r5, #74]	@ movhi
 126              		.loc 1 320 0
 127 001a 9BF80030 		ldrb	r3, [fp]	@ zero_extendqisi2
 128 001e 1A09     		lsrs	r2, r3, #4
 129 0020 042A     		cmp	r2, #4
 130              		.loc 1 306 0
 131 0022 83B0     		sub	sp, sp, #12
 132              		.cfi_def_cfa_offset 48
 133              		.loc 1 306 0
 134 0024 0746     		mov	r7, r0
 135 0026 8846     		mov	r8, r1
 136              		.loc 1 320 0
 137 0028 0FD0     		beq	.L24
 138              		.loc 1 323 0
 139 002a FFF7FEFF 		bl	pbuf_free
 140              	.LVL9:
 141              		.loc 1 324 0
 142 002e B5F85C20 		ldrh	r2, [r5, #92]
 143              		.loc 1 325 0
 144 0032 B5F84E30 		ldrh	r3, [r5, #78]
 145              		.loc 1 324 0
 146 0036 0132     		adds	r2, r2, #1
 147              		.loc 1 325 0
 148 0038 0133     		adds	r3, r3, #1
 149              		.loc 1 324 0
 150 003a A5F85C20 		strh	r2, [r5, #92]	@ movhi
 151              		.loc 1 325 0
 152 003e A5F84E30 		strh	r3, [r5, #78]	@ movhi
 153              	.LVL10:
 154              	.L25:
 155              		.loc 1 613 0
 156 0042 0020     		movs	r0, #0
 157 0044 03B0     		add	sp, sp, #12
 158              		@ sp needed
 159 0046 BDE8F08F 		pop	{r4, r5, r6, r7, r8, r9, r10, fp, pc}
 160              	.LVL11:
 161              	.L24:
 162              		.loc 1 338 0
 163 004a 03F00F03 		and	r3, r3, #15
 164              	.LVL12:
 165              		.loc 1 342 0
 166 004e BBF80200 		ldrh	r0, [fp, #2]	@ unaligned
 167              	.LVL13:
 168              		.loc 1 340 0
 169 0052 9C00     		lsls	r4, r3, #2
ARM GAS  /tmp/ccegF7gt.s 			page 4


 170              	.LVL14:
 171              		.loc 1 342 0
 172 0054 FFF7FEFF 		bl	lwip_ntohs
 173              	.LVL15:
 174              		.loc 1 345 0
 175 0058 7B89     		ldrh	r3, [r7, #10]
 176 005a A342     		cmp	r3, r4
 177              		.loc 1 342 0
 178 005c 0646     		mov	r6, r0
 179              	.LVL16:
 180              		.loc 1 345 0
 181 005e 02D3     		bcc	.L26
 182              		.loc 1 345 0 is_stmt 0 discriminator 1
 183 0060 3B89     		ldrh	r3, [r7, #8]
 184 0062 8342     		cmp	r3, r0
 185 0064 10D2     		bcs	.L27
 186              	.L26:
 187              		.loc 1 357 0 is_stmt 1
 188 0066 3846     		mov	r0, r7
 189              	.LVL17:
 190 0068 FFF7FEFF 		bl	pbuf_free
 191              	.LVL18:
 192              		.loc 1 358 0
 193 006c B5F85220 		ldrh	r2, [r5, #82]
 194              		.loc 1 359 0
 195 0070 B5F84E30 		ldrh	r3, [r5, #78]
 196              		.loc 1 358 0
 197 0074 0132     		adds	r2, r2, #1
 198              		.loc 1 359 0
 199 0076 0133     		adds	r3, r3, #1
 200              		.loc 1 613 0
 201 0078 0020     		movs	r0, #0
 202              		.loc 1 358 0
 203 007a A5F85220 		strh	r2, [r5, #82]	@ movhi
 204              		.loc 1 359 0
 205 007e A5F84E30 		strh	r3, [r5, #78]	@ movhi
 206              		.loc 1 613 0
 207 0082 03B0     		add	sp, sp, #12
 208              		@ sp needed
 209 0084 BDE8F08F 		pop	{r4, r5, r6, r7, r8, r9, r10, fp, pc}
 210              	.LVL19:
 211              	.L27:
 212              		.loc 1 366 0
 213 0088 2146     		mov	r1, r4
 214 008a 5846     		mov	r0, fp
 215              	.LVL20:
 216 008c FFF7FEFF 		bl	inet_chksum
 217              	.LVL21:
 218 0090 0028     		cmp	r0, #0
 219 0092 40F0A380 		bne	.L64
 220              		.loc 1 385 0
 221 0096 40F20002 		movw	r2, #:lower16:.LANCHOR1
 222              		.loc 1 381 0
 223 009a 3146     		mov	r1, r6
 224 009c 3846     		mov	r0, r7
 225              		.loc 1 384 0
 226 009e 40F20009 		movw	r9, #:lower16:.LANCHOR0
ARM GAS  /tmp/ccegF7gt.s 			page 5


 227              		.loc 1 385 0
 228 00a2 0192     		str	r2, [sp, #4]
 229              		.loc 1 384 0
 230 00a4 C0F20009 		movt	r9, #:upper16:.LANCHOR0
 231              		.loc 1 381 0
 232 00a8 FFF7FEFF 		bl	pbuf_realloc
 233              	.LVL22:
 234              		.loc 1 384 0
 235 00ac DBF81020 		ldr	r2, [fp, #16]	@ unaligned
 236              		.loc 1 385 0
 237 00b0 DBF80C30 		ldr	r3, [fp, #12]	@ unaligned
 238              		.loc 1 384 0
 239 00b4 C9F80020 		str	r2, [r9]
 240              		.loc 1 385 0
 241 00b8 019A     		ldr	r2, [sp, #4]
 242 00ba C0F20002 		movt	r2, #:upper16:.LANCHOR1
 243              	.LBB2:
 244              		.loc 1 435 0
 245 00be 40F2000A 		movw	r10, #:lower16:netif_list
 246              	.LBE2:
 247              		.loc 1 385 0
 248 00c2 0192     		str	r2, [sp, #4]
 249 00c4 1360     		str	r3, [r2]
 250              	.LVL23:
 251              	.LBB3:
 252              		.loc 1 435 0
 253 00c6 C0F2000A 		movt	r10, #:upper16:netif_list
 254              	.LBE3:
 255              		.loc 1 385 0
 256 00ca 4446     		mov	r4, r8
 257              	.LVL24:
 258              	.LBB4:
 259              		.loc 1 401 0
 260 00cc 0126     		movs	r6, #1
 261              	.LVL25:
 262              	.L36:
 263              		.loc 1 411 0
 264 00ce 94F82930 		ldrb	r3, [r4, #41]	@ zero_extendqisi2
 265 00d2 D807     		lsls	r0, r3, #31
 266 00d4 09D5     		bpl	.L32
 267              		.loc 1 411 0 is_stmt 0 discriminator 1
 268 00d6 6368     		ldr	r3, [r4, #4]
 269 00d8 3BB1     		cbz	r3, .L32
 270              		.loc 1 413 0 is_stmt 1
 271 00da D9F80000 		ldr	r0, [r9]
 272 00de 8342     		cmp	r3, r0
 273 00e0 0DD0     		beq	.L33
 274              		.loc 1 415 0 discriminator 1
 275 00e2 2146     		mov	r1, r4
 276 00e4 FFF7FEFF 		bl	ip4_addr_isbroadcast
 277              	.LVL26:
 278              		.loc 1 413 0 discriminator 1
 279 00e8 48B9     		cbnz	r0, .L33
 280              	.L32:
 281              		.loc 1 433 0
 282 00ea 002E     		cmp	r6, #0
 283 00ec 6BD0     		beq	.L65
ARM GAS  /tmp/ccegF7gt.s 			page 6


 284              	.LVL27:
 285              		.loc 1 435 0
 286 00ee DAF80040 		ldr	r4, [r10]
 287              	.LVL28:
 288              	.L34:
 289              		.loc 1 439 0
 290 00f2 4445     		cmp	r4, r8
 291              		.loc 1 440 0
 292 00f4 08BF     		it	eq
 293 00f6 2468     		ldreq	r4, [r4]
 294              	.LVL29:
 295              		.loc 1 442 0
 296 00f8 0CB1     		cbz	r4, .L33
 297 00fa 0026     		movs	r6, #0
 298 00fc E7E7     		b	.L36
 299              	.LVL30:
 300              	.L33:
 301              	.LBE4:
 302              		.loc 1 475 0
 303 00fe 019B     		ldr	r3, [sp, #4]
 304 0100 40F20006 		movw	r6, #:lower16:.LANCHOR1
 305 0104 1868     		ldr	r0, [r3]
 306 0106 4146     		mov	r1, r8
 307 0108 C0F20006 		movt	r6, #:upper16:.LANCHOR1
 308 010c FFF7FEFF 		bl	ip4_addr_isbroadcast
 309              	.LVL31:
 310 0110 0028     		cmp	r0, #0
 311 0112 5AD1     		bne	.L37
 312              		.loc 1 476 0 discriminator 1
 313 0114 3368     		ldr	r3, [r6]
 314 0116 03F0F003 		and	r3, r3, #240
 315              		.loc 1 475 0 discriminator 1
 316 011a E02B     		cmp	r3, #224
 317 011c 55D0     		beq	.L37
 318              		.loc 1 489 0
 319 011e 002C     		cmp	r4, #0
 320 0120 79D0     		beq	.L66
 321              		.loc 1 507 0
 322 0122 BBF80620 		ldrh	r2, [fp, #6]	@ unaligned
 323 0126 4FF63F73 		movw	r3, #65343
 324 012a 1340     		ands	r3, r3, r2
 325 012c 3BB1     		cbz	r3, .L40
 326              		.loc 1 512 0
 327 012e 3846     		mov	r0, r7
 328 0130 FFF7FEFF 		bl	ip_reass
 329              	.LVL32:
 330              		.loc 1 514 0
 331 0134 0746     		mov	r7, r0
 332 0136 0028     		cmp	r0, #0
 333 0138 83D0     		beq	.L25
 334              		.loc 1 517 0
 335 013a D0F804B0 		ldr	fp, [r0, #4]
 336              	.LVL33:
 337              	.L40:
 338              		.loc 1 553 0
 339 013e 40F20006 		movw	r6, #:lower16:.LANCHOR2
 340              		.loc 1 554 0
ARM GAS  /tmp/ccegF7gt.s 			page 7


 341 0142 40F20004 		movw	r4, #:lower16:.LANCHOR3
 342              	.LVL34:
 343              		.loc 1 553 0
 344 0146 C0F20006 		movt	r6, #:upper16:.LANCHOR2
 345              		.loc 1 554 0
 346 014a C0F20004 		movt	r4, #:upper16:.LANCHOR3
 347              		.loc 1 558 0
 348 014e 3846     		mov	r0, r7
 349 0150 4146     		mov	r1, r8
 350              		.loc 1 553 0
 351 0152 C6F80080 		str	r8, [r6]
 352              		.loc 1 554 0
 353 0156 C4F800B0 		str	fp, [r4]
 354              		.loc 1 558 0
 355 015a FFF7FEFF 		bl	raw_input
 356              	.LVL35:
 357 015e 50BB     		cbnz	r0, .L41
 358              		.loc 1 561 0
 359 0160 9BF80930 		ldrb	r3, [fp, #9]	@ zero_extendqisi2
 360 0164 062B     		cmp	r3, #6
 361 0166 4CD0     		beq	.L43
 362 0168 112B     		cmp	r3, #17
 363 016a 45D0     		beq	.L44
 364 016c 012B     		cmp	r3, #1
 365 016e 4DD0     		beq	.L67
 366              		.loc 1 591 0
 367 0170 4146     		mov	r1, r8
 368 0172 D9F80000 		ldr	r0, [r9]
 369 0176 40F20008 		movw	r8, #:lower16:.LANCHOR0
 370              	.LVL36:
 371 017a C0F20008 		movt	r8, #:upper16:.LANCHOR0
 372 017e FFF7FEFF 		bl	ip4_addr_isbroadcast
 373              	.LVL37:
 374 0182 58B9     		cbnz	r0, .L46
 375              		.loc 1 592 0 discriminator 1
 376 0184 D8F80030 		ldr	r3, [r8]
 377 0188 03F0F003 		and	r3, r3, #240
 378              		.loc 1 591 0 discriminator 1
 379 018c E02B     		cmp	r3, #224
 380 018e 05D0     		beq	.L46
 381              		.loc 1 593 0
 382 0190 C7F804B0 		str	fp, [r7, #4]
 383              		.loc 1 594 0
 384 0194 3846     		mov	r0, r7
 385 0196 0221     		movs	r1, #2
 386 0198 FFF7FEFF 		bl	icmp_dest_unreach
 387              	.LVL38:
 388              	.L46:
 389              		.loc 1 597 0
 390 019c 3846     		mov	r0, r7
 391 019e FFF7FEFF 		bl	pbuf_free
 392              	.LVL39:
 393              		.loc 1 601 0
 394 01a2 B5F85820 		ldrh	r2, [r5, #88]
 395              		.loc 1 602 0
 396 01a6 B5F84E30 		ldrh	r3, [r5, #78]
 397              		.loc 1 601 0
ARM GAS  /tmp/ccegF7gt.s 			page 8


 398 01aa 0132     		adds	r2, r2, #1
 399              		.loc 1 602 0
 400 01ac 0133     		adds	r3, r3, #1
 401              		.loc 1 601 0
 402 01ae A5F85820 		strh	r2, [r5, #88]	@ movhi
 403              		.loc 1 602 0
 404 01b2 A5F84E30 		strh	r3, [r5, #78]	@ movhi
 405              	.L41:
 406              		.loc 1 609 0
 407 01b6 019A     		ldr	r2, [sp, #4]
 408              		.loc 1 607 0
 409 01b8 0023     		movs	r3, #0
 410 01ba 3360     		str	r3, [r6]
 411              		.loc 1 608 0
 412 01bc 2360     		str	r3, [r4]
 413              		.loc 1 609 0
 414 01be 1360     		str	r3, [r2]
 415              		.loc 1 610 0
 416 01c0 C9F80030 		str	r3, [r9]
 417              		.loc 1 612 0
 418 01c4 3DE7     		b	.L25
 419              	.LVL40:
 420              	.L65:
 421              	.LBB5:
 422              		.loc 1 437 0
 423 01c6 2468     		ldr	r4, [r4]
 424              	.LVL41:
 425 01c8 93E7     		b	.L34
 426              	.LVL42:
 427              	.L37:
 428              	.LBE5:
 429              		.loc 1 480 0
 430 01ca 3846     		mov	r0, r7
 431 01cc FFF7FEFF 		bl	pbuf_free
 432              	.LVL43:
 433              		.loc 1 481 0
 434 01d0 B5F84E30 		ldrh	r3, [r5, #78]
 435 01d4 0133     		adds	r3, r3, #1
 436 01d6 A5F84E30 		strh	r3, [r5, #78]	@ movhi
 437              		.loc 1 484 0
 438 01da 32E7     		b	.L25
 439              	.LVL44:
 440              	.L64:
 441              		.loc 1 371 0
 442 01dc 3846     		mov	r0, r7
 443 01de FFF7FEFF 		bl	pbuf_free
 444              	.LVL45:
 445              		.loc 1 372 0
 446 01e2 B5F85020 		ldrh	r2, [r5, #80]
 447              		.loc 1 373 0
 448 01e6 B5F84E30 		ldrh	r3, [r5, #78]
 449              		.loc 1 372 0
 450 01ea 0132     		adds	r2, r2, #1
 451              		.loc 1 373 0
 452 01ec 0133     		adds	r3, r3, #1
 453              		.loc 1 372 0
 454 01ee A5F85020 		strh	r2, [r5, #80]	@ movhi
ARM GAS  /tmp/ccegF7gt.s 			page 9


 455              		.loc 1 373 0
 456 01f2 A5F84E30 		strh	r3, [r5, #78]	@ movhi
 457              		.loc 1 375 0
 458 01f6 24E7     		b	.L25
 459              	.LVL46:
 460              	.L44:
 461              		.loc 1 568 0
 462 01f8 3846     		mov	r0, r7
 463 01fa 4146     		mov	r1, r8
 464 01fc FFF7FEFF 		bl	udp_input
 465              	.LVL47:
 466              		.loc 1 569 0
 467 0200 D9E7     		b	.L41
 468              	.L43:
 469              		.loc 1 574 0
 470 0202 3846     		mov	r0, r7
 471 0204 4146     		mov	r1, r8
 472 0206 FFF7FEFF 		bl	tcp_input
 473              	.LVL48:
 474              		.loc 1 575 0
 475 020a D4E7     		b	.L41
 476              	.L67:
 477              		.loc 1 580 0
 478 020c 3846     		mov	r0, r7
 479 020e 4146     		mov	r1, r8
 480 0210 FFF7FEFF 		bl	icmp_input
 481              	.LVL49:
 482              		.loc 1 581 0
 483 0214 CFE7     		b	.L41
 484              	.LVL50:
 485              	.L66:
 486              		.loc 1 503 0
 487 0216 3846     		mov	r0, r7
 488 0218 FFF7FEFF 		bl	pbuf_free
 489              	.LVL51:
 490              		.loc 1 504 0
 491 021c 11E7     		b	.L25
 492              		.cfi_endproc
 493              	.LFE8:
 494              		.size	ip_input, .-ip_input
 495 021e 00BF     		.section	.text.ip_output_if,"ax",%progbits
 496              		.align	2
 497              		.p2align 4,,15
 498              		.global	ip_output_if
 499              		.thumb
 500              		.thumb_func
 501              		.type	ip_output_if, %function
 502              	ip_output_if:
 503              	.LFB9:
 504              		.loc 1 644 0
 505              		.cfi_startproc
 506              		@ args = 12, pretend = 0, frame = 24
 507              		@ frame_needed = 0, uses_anonymous_args = 0
 508              	.LVL52:
 509 0000 2DE9F04F 		push	{r4, r5, r6, r7, r8, r9, r10, fp, lr}
 510              		.cfi_def_cfa_offset 36
 511              		.cfi_offset 4, -36
ARM GAS  /tmp/ccegF7gt.s 			page 10


 512              		.cfi_offset 5, -32
 513              		.cfi_offset 6, -28
 514              		.cfi_offset 7, -24
 515              		.cfi_offset 8, -20
 516              		.cfi_offset 9, -16
 517              		.cfi_offset 10, -12
 518              		.cfi_offset 11, -8
 519              		.cfi_offset 14, -4
 520 0004 87B0     		sub	sp, sp, #28
 521              		.cfi_def_cfa_offset 64
 522              		.loc 1 644 0
 523 0006 0546     		mov	r5, r0
 524 0008 0391     		str	r1, [sp, #12]
 525              		.loc 1 668 0
 526 000a C189     		ldrh	r1, [r0, #14]
 527              	.LVL53:
 528              		.loc 1 644 0
 529 000c 9DF840A0 		ldrb	r10, [sp, #64]	@ zero_extendqisi2
 530 0010 9DF84490 		ldrb	r9, [sp, #68]	@ zero_extendqisi2
 531 0014 129F     		ldr	r7, [sp, #72]
 532              		.loc 1 668 0
 533 0016 0129     		cmp	r1, #1
 534              		.loc 1 644 0
 535 0018 1646     		mov	r6, r2
 536 001a 9846     		mov	r8, r3
 537              		.loc 1 668 0
 538 001c 01D0     		beq	.L69
 539              		.loc 1 668 0 is_stmt 0 discriminator 1
 540 001e FFF7FEFF 		bl	port_halt
 541              	.LVL54:
 542              	.L69:
 543              		.loc 1 673 0 is_stmt 1
 544 0022 002E     		cmp	r6, #0
 545 0024 67D0     		beq	.L70
 546              	.LVL55:
 547              	.LBB6:
 548              		.loc 1 704 0
 549 0026 2846     		mov	r0, r5
 550 0028 1421     		movs	r1, #20
 551 002a FFF7FEFF 		bl	pbuf_header
 552              	.LVL56:
 553 002e 0028     		cmp	r0, #0
 554 0030 73D1     		bne	.L88
 555              		.loc 1 713 0
 556 0032 6B89     		ldrh	r3, [r5, #10]
 557              		.loc 1 712 0
 558 0034 6C68     		ldr	r4, [r5, #4]
 559              	.LVL57:
 560              		.loc 1 713 0
 561 0036 132B     		cmp	r3, #19
 562 0038 63D9     		bls	.L89
 563              	.L73:
 564              		.loc 1 716 0
 565 003a 84F80880 		strb	r8, [r4, #8]
 566              		.loc 1 717 0
 567 003e 84F80990 		strb	r9, [r4, #9]
 568              		.loc 1 723 0
ARM GAS  /tmp/ccegF7gt.s 			page 11


 569 0042 3268     		ldr	r2, [r6]
 570              		.loc 1 730 0
 571 0044 84F801A0 		strb	r10, [r4, #1]
 572              		.loc 1 729 0
 573 0048 4523     		movs	r3, #69
 574 004a 2370     		strb	r3, [r4]
 575              		.loc 1 732 0
 576 004c 4FEA0A2A 		lsl	r10, r10, #8
 577 0050 4AEA0301 		orr	r1, r10, r3
 578              		.loc 1 725 0
 579 0054 1FFA82FC 		uxth	ip, r2
 580              		.loc 1 723 0
 581 0058 2261     		str	r2, [r4, #16]	@ unaligned
 582              		.loc 1 734 0
 583 005a 2889     		ldrh	r0, [r5, #8]
 584              		.loc 1 726 0
 585 005c 120C     		lsrs	r2, r2, #16
 586              		.loc 1 734 0
 587 005e 8DE80610 		stmia	sp, {r1, r2, ip}
 588 0062 FFF7FEFF 		bl	lwip_htons
 589              	.LVL58:
 590              		.loc 1 739 0
 591 0066 40F2000B 		movw	fp, #:lower16:.LANCHOR4
 592 006a C0F2000B 		movt	fp, #:upper16:.LANCHOR4
 593              		.loc 1 734 0
 594 006e 8246     		mov	r10, r0
 595              		.loc 1 738 0
 596 0070 0020     		movs	r0, #0
 597 0072 A071     		strb	r0, [r4, #6]
 598 0074 E071     		strb	r0, [r4, #7]
 599              		.loc 1 734 0
 600 0076 A4F802A0 		strh	r10, [r4, #2]	@ unaligned
 601              		.loc 1 739 0
 602 007a BBF80000 		ldrh	r0, [fp]
 603 007e FFF7FEFF 		bl	lwip_htons
 604              	.LVL59:
 605              		.loc 1 743 0
 606 0082 BBF800E0 		ldrh	lr, [fp]
 607              		.loc 1 745 0
 608 0086 039B     		ldr	r3, [sp, #12]
 609              		.loc 1 739 0
 610 0088 A080     		strh	r0, [r4, #4]	@ unaligned
 611              		.loc 1 743 0
 612 008a 0EF1010E 		add	lr, lr, #1
 613              		.loc 1 719 0
 614 008e 48EA0928 		orr	r8, r8, r9, lsl #8
 615              	.LVL60:
 616              		.loc 1 743 0
 617 0092 ABF800E0 		strh	lr, [fp]	@ movhi
 618              		.loc 1 745 0
 619 0096 9DE80610 		ldmia	sp, {r1, r2, ip}
 620 009a 0BB1     		cbz	r3, .L74
 621              		.loc 1 745 0 is_stmt 0 discriminator 1
 622 009c 1B68     		ldr	r3, [r3]
 623 009e 43BB     		cbnz	r3, .L75
 624              	.L74:
 625              		.loc 1 746 0 is_stmt 1
ARM GAS  /tmp/ccegF7gt.s 			page 12


 626 00a0 7B68     		ldr	r3, [r7, #4]
 627 00a2 E360     		str	r3, [r4, #12]	@ unaligned
 628              	.L76:
 629              	.LVL61:
 630              		.loc 1 725 0
 631 00a4 6244     		add	r2, r2, ip
 632              		.loc 1 726 0
 633 00a6 1144     		add	r1, r1, r2
 634              		.loc 1 732 0
 635 00a8 8844     		add	r8, r8, r1
 636              	.LVL62:
 637              		.loc 1 736 0
 638 00aa C244     		add	r10, r10, r8
 639              		.loc 1 741 0
 640 00ac 5044     		add	r0, r0, r10
 641              		.loc 1 753 0
 642 00ae 10FA83F0 		uxtah	r0, r0, r3
 643              		.loc 1 754 0
 644 00b2 00EB1343 		add	r3, r0, r3, lsr #16
 645              	.LVL63:
 646              		.loc 1 755 0
 647 00b6 9AB2     		uxth	r2, r3
 648 00b8 02EB1343 		add	r3, r2, r3, lsr #16
 649              	.LVL64:
 650              		.loc 1 756 0
 651 00bc 03EB1343 		add	r3, r3, r3, lsr #16
 652              	.LVL65:
 653              		.loc 1 758 0
 654 00c0 DB43     		mvns	r3, r3
 655              	.LVL66:
 656 00c2 6381     		strh	r3, [r4, #10]	@ unaligned
 657              	.LVL67:
 658              	.L77:
 659              	.LBE6:
 660              		.loc 1 772 0
 661 00c4 40F20003 		movw	r3, #:lower16:lwip_stats
 662 00c8 C0F20003 		movt	r3, #:upper16:lwip_stats
 663              		.loc 1 791 0
 664 00cc 3A8C     		ldrh	r2, [r7, #32]
 665              		.loc 1 772 0
 666 00ce B3F84810 		ldrh	r1, [r3, #72]
 667 00d2 0131     		adds	r1, r1, #1
 668 00d4 A3F84810 		strh	r1, [r3, #72]	@ movhi
 669              		.loc 1 791 0
 670 00d8 12B1     		cbz	r2, .L78
 671              		.loc 1 791 0 is_stmt 0 discriminator 1
 672 00da 2B89     		ldrh	r3, [r5, #8]
 673 00dc 9342     		cmp	r3, r2
 674 00de 13D8     		bhi	.L90
 675              	.L78:
 676              		.loc 1 797 0 is_stmt 1
 677 00e0 2946     		mov	r1, r5
 678 00e2 3246     		mov	r2, r6
 679 00e4 7B69     		ldr	r3, [r7, #20]
 680 00e6 3846     		mov	r0, r7
 681 00e8 9847     		blx	r3
 682              	.LVL68:
ARM GAS  /tmp/ccegF7gt.s 			page 13


 683              	.L72:
 684              		.loc 1 798 0
 685 00ea 40B2     		sxtb	r0, r0
 686 00ec 07B0     		add	sp, sp, #28
 687              		@ sp needed
 688 00ee BDE8F08F 		pop	{r4, r5, r6, r7, r8, r9, r10, fp, pc}
 689              	.LVL69:
 690              	.L75:
 691              	.LBB7:
 692              		.loc 1 749 0
 693 00f2 E360     		str	r3, [r4, #12]	@ unaligned
 694 00f4 D6E7     		b	.L76
 695              	.LVL70:
 696              	.L70:
 697              	.LBE7:
 698              		.loc 1 768 0
 699 00f6 6B68     		ldr	r3, [r5, #4]
 700 00f8 06AE     		add	r6, sp, #24
 701              	.LVL71:
 702 00fa 1B69     		ldr	r3, [r3, #16]	@ unaligned
 703 00fc 46F8043D 		str	r3, [r6, #-4]!
 704              	.LVL72:
 705 0100 E0E7     		b	.L77
 706              	.LVL73:
 707              	.L89:
 708              	.LBB8:
 709              		.loc 1 713 0 discriminator 1
 710 0102 FFF7FEFF 		bl	port_halt
 711              	.LVL74:
 712 0106 98E7     		b	.L73
 713              	.LVL75:
 714              	.L90:
 715              	.LBE8:
 716              		.loc 1 792 0
 717 0108 2846     		mov	r0, r5
 718 010a 3946     		mov	r1, r7
 719 010c 3246     		mov	r2, r6
 720 010e FFF7FEFF 		bl	ip_frag
 721              	.LVL76:
 722              		.loc 1 798 0
 723 0112 40B2     		sxtb	r0, r0
 724 0114 07B0     		add	sp, sp, #28
 725              		@ sp needed
 726 0116 BDE8F08F 		pop	{r4, r5, r6, r7, r8, r9, r10, fp, pc}
 727              	.LVL77:
 728              	.L88:
 729              	.LBB9:
 730              		.loc 1 707 0
 731 011a 40F20003 		movw	r3, #:lower16:lwip_stats
 732 011e C0F20003 		movt	r3, #:upper16:lwip_stats
 733              		.loc 1 709 0
 734 0122 FE20     		movs	r0, #254
 735              		.loc 1 707 0
 736 0124 B3F85C20 		ldrh	r2, [r3, #92]
 737 0128 0132     		adds	r2, r2, #1
 738 012a A3F85C20 		strh	r2, [r3, #92]	@ movhi
 739              		.loc 1 709 0
ARM GAS  /tmp/ccegF7gt.s 			page 14


 740 012e DCE7     		b	.L72
 741              	.LBE9:
 742              		.cfi_endproc
 743              	.LFE9:
 744              		.size	ip_output_if, .-ip_output_if
 745              		.section	.text.ip_output,"ax",%progbits
 746              		.align	2
 747              		.p2align 4,,15
 748              		.global	ip_output
 749              		.thumb
 750              		.thumb_func
 751              		.type	ip_output, %function
 752              	ip_output:
 753              	.LFB10:
 754              		.loc 1 820 0
 755              		.cfi_startproc
 756              		@ args = 8, pretend = 0, frame = 0
 757              		@ frame_needed = 0, uses_anonymous_args = 0
 758              	.LVL78:
 759 0000 2DE9F043 		push	{r4, r5, r6, r7, r8, r9, lr}
 760              		.cfi_def_cfa_offset 28
 761              		.cfi_offset 4, -28
 762              		.cfi_offset 5, -24
 763              		.cfi_offset 6, -20
 764              		.cfi_offset 7, -16
 765              		.cfi_offset 8, -12
 766              		.cfi_offset 9, -8
 767              		.cfi_offset 14, -4
 768 0004 0446     		mov	r4, r0
 769              		.loc 1 825 0
 770 0006 C089     		ldrh	r0, [r0, #14]
 771              	.LVL79:
 772              		.loc 1 820 0
 773 0008 85B0     		sub	sp, sp, #20
 774              		.cfi_def_cfa_offset 48
 775              		.loc 1 825 0
 776 000a 0128     		cmp	r0, #1
 777              		.loc 1 820 0
 778 000c 0F46     		mov	r7, r1
 779 000e 9DF83090 		ldrb	r9, [sp, #48]	@ zero_extendqisi2
 780 0012 9DF83480 		ldrb	r8, [sp, #52]	@ zero_extendqisi2
 781 0016 1546     		mov	r5, r2
 782 0018 1E46     		mov	r6, r3
 783              		.loc 1 825 0
 784 001a 01D0     		beq	.L92
 785              		.loc 1 825 0 is_stmt 0 discriminator 1
 786 001c FFF7FEFF 		bl	port_halt
 787              	.LVL80:
 788              	.L92:
 789              		.loc 1 827 0 is_stmt 1
 790 0020 2846     		mov	r0, r5
 791 0022 FFF7FEFF 		bl	ip_route
 792              	.LVL81:
 793 0026 70B1     		cbz	r0, .L98
 794              		.loc 1 834 0
 795 0028 0290     		str	r0, [sp, #8]
 796 002a CDF80090 		str	r9, [sp]
ARM GAS  /tmp/ccegF7gt.s 			page 15


 797 002e CDF80480 		str	r8, [sp, #4]
 798 0032 2046     		mov	r0, r4
 799              	.LVL82:
 800 0034 3946     		mov	r1, r7
 801 0036 2A46     		mov	r2, r5
 802 0038 3346     		mov	r3, r6
 803 003a FFF7FEFF 		bl	ip_output_if
 804              	.LVL83:
 805              	.L94:
 806              		.loc 1 835 0
 807 003e 40B2     		sxtb	r0, r0
 808 0040 05B0     		add	sp, sp, #20
 809              		@ sp needed
 810 0042 BDE8F083 		pop	{r4, r5, r6, r7, r8, r9, pc}
 811              	.LVL84:
 812              	.L98:
 813              		.loc 1 830 0
 814 0046 40F20003 		movw	r3, #:lower16:lwip_stats
 815 004a C0F20003 		movt	r3, #:upper16:lwip_stats
 816              		.loc 1 831 0
 817 004e FC20     		movs	r0, #252
 818              	.LVL85:
 819              		.loc 1 830 0
 820 0050 B3F85620 		ldrh	r2, [r3, #86]
 821 0054 0132     		adds	r2, r2, #1
 822 0056 A3F85620 		strh	r2, [r3, #86]	@ movhi
 823              		.loc 1 831 0
 824 005a F0E7     		b	.L94
 825              		.cfi_endproc
 826              	.LFE10:
 827              		.size	ip_output, .-ip_output
 828              		.global	current_iphdr_dest
 829              		.global	current_iphdr_src
 830              		.global	current_header
 831              		.global	current_netif
 832              		.section	.bss.current_header,"aw",%nobits
 833              		.align	2
 834              		.set	.LANCHOR3,. + 0
 835              		.type	current_header, %object
 836              		.size	current_header, 4
 837              	current_header:
 838 0000 00000000 		.space	4
 839              		.section	.bss.ip_id,"aw",%nobits
 840              		.align	1
 841              		.set	.LANCHOR4,. + 0
 842              		.type	ip_id, %object
 843              		.size	ip_id, 2
 844              	ip_id:
 845 0000 0000     		.space	2
 846              		.section	.bss.current_iphdr_src,"aw",%nobits
 847              		.align	2
 848              		.set	.LANCHOR1,. + 0
 849              		.type	current_iphdr_src, %object
 850              		.size	current_iphdr_src, 4
 851              	current_iphdr_src:
 852 0000 00000000 		.space	4
 853              		.section	.bss.current_iphdr_dest,"aw",%nobits
ARM GAS  /tmp/ccegF7gt.s 			page 16


 854              		.align	2
 855              		.set	.LANCHOR0,. + 0
 856              		.type	current_iphdr_dest, %object
 857              		.size	current_iphdr_dest, 4
 858              	current_iphdr_dest:
 859 0000 00000000 		.space	4
 860              		.section	.bss.current_netif,"aw",%nobits
 861              		.align	2
 862              		.set	.LANCHOR2,. + 0
 863              		.type	current_netif, %object
 864              		.size	current_netif, 4
 865              	current_netif:
 866 0000 00000000 		.space	4
 867              		.text
 868              	.Letext0:
 869              		.file 2 "/usr/include/newlib/machine/_default_types.h"
 870              		.file 3 "/usr/include/newlib/stdint.h"
 871              		.file 4 "../../os/various/lwip_bindings/arch/cc.h"
 872              		.file 5 "../../ext/lwip/src/include/lwip/err.h"
 873              		.file 6 "../../ext/lwip/src/include/lwip/pbuf.h"
 874              		.file 7 "../../ext/lwip/src/include/ipv4/lwip/ip_addr.h"
 875              		.file 8 "../../ext/lwip/src/include/lwip/netif.h"
 876              		.file 9 "../../ext/lwip/src/include/ipv4/lwip/ip.h"
 877              		.file 10 "../../ext/lwip/src/include/lwip/mem.h"
 878              		.file 11 "../../ext/lwip/src/include/lwip/stats.h"
 879              		.file 12 "../../ext/lwip/src/include/lwip/def.h"
 880              		.file 13 "../../ext/lwip/src/include/ipv4/lwip/inet_chksum.h"
 881              		.file 14 "../../ext/lwip/src/include/ipv4/lwip/ip_frag.h"
 882              		.file 15 "../../ext/lwip/src/include/lwip/raw.h"
 883              		.file 16 "../../ext/lwip/src/include/ipv4/lwip/icmp.h"
 884              		.file 17 "../../ext/lwip/src/include/lwip/udp.h"
 885              		.file 18 "../../ext/lwip/src/include/lwip/tcp_impl.h"
 886              		.file 19 "../../ext/lwip/src/include/lwip/memp.h"
 887              		.file 20 "../../os/ports/GCC/ARMCMx/chcore_v7m.h"
 888              		.section	.debug_info,"",%progbits
 889              	.Ldebug_info0:
 890 0000 770C0000 		.4byte	0xc77
 891 0004 0400     		.2byte	0x4
 892 0006 00000000 		.4byte	.Ldebug_abbrev0
 893 000a 04       		.byte	0x4
 894 000b 01       		.uleb128 0x1
 895 000c A9040000 		.4byte	.LASF140
 896 0010 01       		.byte	0x1
 897 0011 65050000 		.4byte	.LASF141
 898 0015 22000000 		.4byte	.LASF142
 899 0019 50000000 		.4byte	.Ldebug_ranges0+0x50
 900 001d 00000000 		.4byte	0
 901 0021 00000000 		.4byte	.Ldebug_line0
 902 0025 02       		.uleb128 0x2
 903 0026 04       		.byte	0x4
 904 0027 05       		.byte	0x5
 905 0028 696E7400 		.ascii	"int\000"
 906 002c 03       		.uleb128 0x3
 907 002d 04       		.byte	0x4
 908 002e 07       		.byte	0x7
 909 002f 7E000000 		.4byte	.LASF0
 910 0033 04       		.uleb128 0x4
ARM GAS  /tmp/ccegF7gt.s 			page 17


 911 0034 91030000 		.4byte	.LASF2
 912 0038 02       		.byte	0x2
 913 0039 1B       		.byte	0x1b
 914 003a 3E000000 		.4byte	0x3e
 915 003e 03       		.uleb128 0x3
 916 003f 01       		.byte	0x1
 917 0040 06       		.byte	0x6
 918 0041 1D060000 		.4byte	.LASF1
 919 0045 04       		.uleb128 0x4
 920 0046 2E040000 		.4byte	.LASF3
 921 004a 02       		.byte	0x2
 922 004b 1C       		.byte	0x1c
 923 004c 50000000 		.4byte	0x50
 924 0050 03       		.uleb128 0x3
 925 0051 01       		.byte	0x1
 926 0052 08       		.byte	0x8
 927 0053 91050000 		.4byte	.LASF4
 928 0057 04       		.uleb128 0x4
 929 0058 4C030000 		.4byte	.LASF5
 930 005c 02       		.byte	0x2
 931 005d 25       		.byte	0x25
 932 005e 62000000 		.4byte	0x62
 933 0062 03       		.uleb128 0x3
 934 0063 02       		.byte	0x2
 935 0064 05       		.byte	0x5
 936 0065 D1030000 		.4byte	.LASF6
 937 0069 04       		.uleb128 0x4
 938 006a C9010000 		.4byte	.LASF7
 939 006e 02       		.byte	0x2
 940 006f 26       		.byte	0x26
 941 0070 74000000 		.4byte	0x74
 942 0074 03       		.uleb128 0x3
 943 0075 02       		.byte	0x2
 944 0076 07       		.byte	0x7
 945 0077 34060000 		.4byte	.LASF8
 946 007b 03       		.uleb128 0x3
 947 007c 04       		.byte	0x4
 948 007d 05       		.byte	0x5
 949 007e E0030000 		.4byte	.LASF9
 950 0082 04       		.uleb128 0x4
 951 0083 9F050000 		.4byte	.LASF10
 952 0087 02       		.byte	0x2
 953 0088 38       		.byte	0x38
 954 0089 8D000000 		.4byte	0x8d
 955 008d 03       		.uleb128 0x3
 956 008e 04       		.byte	0x4
 957 008f 07       		.byte	0x7
 958 0090 97040000 		.4byte	.LASF11
 959 0094 03       		.uleb128 0x3
 960 0095 08       		.byte	0x8
 961 0096 05       		.byte	0x5
 962 0097 1E030000 		.4byte	.LASF12
 963 009b 03       		.uleb128 0x3
 964 009c 08       		.byte	0x8
 965 009d 07       		.byte	0x7
 966 009e 86010000 		.4byte	.LASF13
 967 00a2 04       		.uleb128 0x4
ARM GAS  /tmp/ccegF7gt.s 			page 18


 968 00a3 2E010000 		.4byte	.LASF14
 969 00a7 03       		.byte	0x3
 970 00a8 29       		.byte	0x29
 971 00a9 33000000 		.4byte	0x33
 972 00ad 04       		.uleb128 0x4
 973 00ae E0020000 		.4byte	.LASF15
 974 00b2 03       		.byte	0x3
 975 00b3 2A       		.byte	0x2a
 976 00b4 45000000 		.4byte	0x45
 977 00b8 04       		.uleb128 0x4
 978 00b9 65010000 		.4byte	.LASF16
 979 00bd 03       		.byte	0x3
 980 00be 35       		.byte	0x35
 981 00bf 57000000 		.4byte	0x57
 982 00c3 04       		.uleb128 0x4
 983 00c4 A3030000 		.4byte	.LASF17
 984 00c8 03       		.byte	0x3
 985 00c9 36       		.byte	0x36
 986 00ca 69000000 		.4byte	0x69
 987 00ce 04       		.uleb128 0x4
 988 00cf 25010000 		.4byte	.LASF18
 989 00d3 03       		.byte	0x3
 990 00d4 42       		.byte	0x42
 991 00d5 82000000 		.4byte	0x82
 992 00d9 03       		.uleb128 0x3
 993 00da 01       		.byte	0x1
 994 00db 02       		.byte	0x2
 995 00dc 47020000 		.4byte	.LASF19
 996 00e0 05       		.uleb128 0x5
 997 00e1 04       		.byte	0x4
 998 00e2 03       		.uleb128 0x3
 999 00e3 04       		.byte	0x4
 1000 00e4 07       		.byte	0x7
 1001 00e5 8E040000 		.4byte	.LASF20
 1002 00e9 03       		.uleb128 0x3
 1003 00ea 01       		.byte	0x1
 1004 00eb 08       		.byte	0x8
 1005 00ec A2020000 		.4byte	.LASF21
 1006 00f0 04       		.uleb128 0x4
 1007 00f1 47030000 		.4byte	.LASF22
 1008 00f5 04       		.byte	0x4
 1009 00f6 38       		.byte	0x38
 1010 00f7 AD000000 		.4byte	0xad
 1011 00fb 04       		.uleb128 0x4
 1012 00fc 56020000 		.4byte	.LASF23
 1013 0100 04       		.byte	0x4
 1014 0101 39       		.byte	0x39
 1015 0102 A2000000 		.4byte	0xa2
 1016 0106 04       		.uleb128 0x4
 1017 0107 AE000000 		.4byte	.LASF24
 1018 010b 04       		.byte	0x4
 1019 010c 3A       		.byte	0x3a
 1020 010d C3000000 		.4byte	0xc3
 1021 0111 04       		.uleb128 0x4
 1022 0112 51050000 		.4byte	.LASF25
 1023 0116 04       		.byte	0x4
 1024 0117 3B       		.byte	0x3b
ARM GAS  /tmp/ccegF7gt.s 			page 19


 1025 0118 B8000000 		.4byte	0xb8
 1026 011c 04       		.uleb128 0x4
 1027 011d CB030000 		.4byte	.LASF26
 1028 0121 04       		.byte	0x4
 1029 0122 3C       		.byte	0x3c
 1030 0123 CE000000 		.4byte	0xce
 1031 0127 04       		.uleb128 0x4
 1032 0128 9D000000 		.4byte	.LASF27
 1033 012c 05       		.byte	0x5
 1034 012d 2F       		.byte	0x2f
 1035 012e FB000000 		.4byte	0xfb
 1036 0132 06       		.uleb128 0x6
 1037 0133 BE050000 		.4byte	.LASF33
 1038 0137 10       		.byte	0x10
 1039 0138 06       		.byte	0x6
 1040 0139 4F       		.byte	0x4f
 1041 013a 93010000 		.4byte	0x193
 1042 013e 07       		.uleb128 0x7
 1043 013f 8B000000 		.4byte	.LASF28
 1044 0143 06       		.byte	0x6
 1045 0144 51       		.byte	0x51
 1046 0145 93010000 		.4byte	0x193
 1047 0149 00       		.byte	0
 1048 014a 07       		.uleb128 0x7
 1049 014b 2E020000 		.4byte	.LASF29
 1050 014f 06       		.byte	0x6
 1051 0150 54       		.byte	0x54
 1052 0151 E0000000 		.4byte	0xe0
 1053 0155 04       		.byte	0x4
 1054 0156 07       		.uleb128 0x7
 1055 0157 26020000 		.4byte	.LASF30
 1056 015b 06       		.byte	0x6
 1057 015c 5D       		.byte	0x5d
 1058 015d 06010000 		.4byte	0x106
 1059 0161 08       		.byte	0x8
 1060 0162 08       		.uleb128 0x8
 1061 0163 6C656E00 		.ascii	"len\000"
 1062 0167 06       		.byte	0x6
 1063 0168 60       		.byte	0x60
 1064 0169 06010000 		.4byte	0x106
 1065 016d 0A       		.byte	0xa
 1066 016e 07       		.uleb128 0x7
 1067 016f E8020000 		.4byte	.LASF31
 1068 0173 06       		.byte	0x6
 1069 0174 63       		.byte	0x63
 1070 0175 F0000000 		.4byte	0xf0
 1071 0179 0C       		.byte	0xc
 1072 017a 07       		.uleb128 0x7
 1073 017b 69000000 		.4byte	.LASF32
 1074 017f 06       		.byte	0x6
 1075 0180 66       		.byte	0x66
 1076 0181 F0000000 		.4byte	0xf0
 1077 0185 0D       		.byte	0xd
 1078 0186 08       		.uleb128 0x8
 1079 0187 72656600 		.ascii	"ref\000"
 1080 018b 06       		.byte	0x6
 1081 018c 6D       		.byte	0x6d
ARM GAS  /tmp/ccegF7gt.s 			page 20


 1082 018d 06010000 		.4byte	0x106
 1083 0191 0E       		.byte	0xe
 1084 0192 00       		.byte	0
 1085 0193 09       		.uleb128 0x9
 1086 0194 04       		.byte	0x4
 1087 0195 32010000 		.4byte	0x132
 1088 0199 06       		.uleb128 0x6
 1089 019a 9A060000 		.4byte	.LASF34
 1090 019e 04       		.byte	0x4
 1091 019f 07       		.byte	0x7
 1092 01a0 2C       		.byte	0x2c
 1093 01a1 B2010000 		.4byte	0x1b2
 1094 01a5 07       		.uleb128 0x7
 1095 01a6 EE050000 		.4byte	.LASF35
 1096 01aa 07       		.byte	0x7
 1097 01ab 2D       		.byte	0x2d
 1098 01ac 1C010000 		.4byte	0x11c
 1099 01b0 00       		.byte	0
 1100 01b1 00       		.byte	0
 1101 01b2 06       		.uleb128 0x6
 1102 01b3 CB020000 		.4byte	.LASF36
 1103 01b7 04       		.byte	0x4
 1104 01b8 07       		.byte	0x7
 1105 01b9 36       		.byte	0x36
 1106 01ba CB010000 		.4byte	0x1cb
 1107 01be 07       		.uleb128 0x7
 1108 01bf EE050000 		.4byte	.LASF35
 1109 01c3 07       		.byte	0x7
 1110 01c4 37       		.byte	0x37
 1111 01c5 1C010000 		.4byte	0x11c
 1112 01c9 00       		.byte	0
 1113 01ca 00       		.byte	0
 1114 01cb 04       		.uleb128 0x4
 1115 01cc 64060000 		.4byte	.LASF37
 1116 01d0 07       		.byte	0x7
 1117 01d1 40       		.byte	0x40
 1118 01d2 99010000 		.4byte	0x199
 1119 01d6 04       		.uleb128 0x4
 1120 01d7 C3050000 		.4byte	.LASF38
 1121 01db 07       		.byte	0x7
 1122 01dc 41       		.byte	0x41
 1123 01dd B2010000 		.4byte	0x1b2
 1124 01e1 09       		.uleb128 0x9
 1125 01e2 04       		.byte	0x4
 1126 01e3 E7010000 		.4byte	0x1e7
 1127 01e7 06       		.uleb128 0x6
 1128 01e8 0C060000 		.4byte	.LASF39
 1129 01ec 30       		.byte	0x30
 1130 01ed 08       		.byte	0x8
 1131 01ee 88       		.byte	0x88
 1132 01ef 9B020000 		.4byte	0x29b
 1133 01f3 07       		.uleb128 0x7
 1134 01f4 8B000000 		.4byte	.LASF28
 1135 01f8 08       		.byte	0x8
 1136 01f9 8A       		.byte	0x8a
 1137 01fa E1010000 		.4byte	0x1e1
 1138 01fe 00       		.byte	0
ARM GAS  /tmp/ccegF7gt.s 			page 21


 1139 01ff 07       		.uleb128 0x7
 1140 0200 9A060000 		.4byte	.LASF34
 1141 0204 08       		.byte	0x8
 1142 0205 8D       		.byte	0x8d
 1143 0206 CB010000 		.4byte	0x1cb
 1144 020a 04       		.byte	0x4
 1145 020b 07       		.uleb128 0x7
 1146 020c 16030000 		.4byte	.LASF40
 1147 0210 08       		.byte	0x8
 1148 0211 8E       		.byte	0x8e
 1149 0212 CB010000 		.4byte	0x1cb
 1150 0216 08       		.byte	0x8
 1151 0217 08       		.uleb128 0x8
 1152 0218 677700   		.ascii	"gw\000"
 1153 021b 08       		.byte	0x8
 1154 021c 8F       		.byte	0x8f
 1155 021d CB010000 		.4byte	0x1cb
 1156 0221 0C       		.byte	0xc
 1157 0222 07       		.uleb128 0x7
 1158 0223 5F050000 		.4byte	.LASF41
 1159 0227 08       		.byte	0x8
 1160 0228 93       		.byte	0x93
 1161 0229 9B020000 		.4byte	0x29b
 1162 022d 10       		.byte	0x10
 1163 022e 07       		.uleb128 0x7
 1164 022f 40020000 		.4byte	.LASF42
 1165 0233 08       		.byte	0x8
 1166 0234 97       		.byte	0x97
 1167 0235 C0020000 		.4byte	0x2c0
 1168 0239 14       		.byte	0x14
 1169 023a 07       		.uleb128 0x7
 1170 023b A3000000 		.4byte	.LASF43
 1171 023f 08       		.byte	0x8
 1172 0240 9B       		.byte	0x9b
 1173 0241 F0020000 		.4byte	0x2f0
 1174 0245 18       		.byte	0x18
 1175 0246 07       		.uleb128 0x7
 1176 0247 06060000 		.4byte	.LASF44
 1177 024b 08       		.byte	0x8
 1178 024c AC       		.byte	0xac
 1179 024d E0000000 		.4byte	0xe0
 1180 0251 1C       		.byte	0x1c
 1181 0252 08       		.uleb128 0x8
 1182 0253 6D747500 		.ascii	"mtu\000"
 1183 0257 08       		.byte	0x8
 1184 0258 BA       		.byte	0xba
 1185 0259 06010000 		.4byte	0x106
 1186 025d 20       		.byte	0x20
 1187 025e 07       		.uleb128 0x7
 1188 025f DC010000 		.4byte	.LASF45
 1189 0263 08       		.byte	0x8
 1190 0264 BC       		.byte	0xbc
 1191 0265 F0000000 		.4byte	0xf0
 1192 0269 22       		.byte	0x22
 1193 026a 07       		.uleb128 0x7
 1194 026b 78010000 		.4byte	.LASF46
 1195 026f 08       		.byte	0x8
ARM GAS  /tmp/ccegF7gt.s 			page 22


 1196 0270 BE       		.byte	0xbe
 1197 0271 15030000 		.4byte	0x315
 1198 0275 23       		.byte	0x23
 1199 0276 07       		.uleb128 0x7
 1200 0277 69000000 		.4byte	.LASF32
 1201 027b 08       		.byte	0x8
 1202 027c C0       		.byte	0xc0
 1203 027d F0000000 		.4byte	0xf0
 1204 0281 29       		.byte	0x29
 1205 0282 07       		.uleb128 0x7
 1206 0283 3F040000 		.4byte	.LASF47
 1207 0287 08       		.byte	0x8
 1208 0288 C2       		.byte	0xc2
 1209 0289 25030000 		.4byte	0x325
 1210 028d 2A       		.byte	0x2a
 1211 028e 08       		.uleb128 0x8
 1212 028f 6E756D00 		.ascii	"num\000"
 1213 0293 08       		.byte	0x8
 1214 0294 C4       		.byte	0xc4
 1215 0295 F0000000 		.4byte	0xf0
 1216 0299 2C       		.byte	0x2c
 1217 029a 00       		.byte	0
 1218 029b 04       		.uleb128 0x4
 1219 029c 16010000 		.4byte	.LASF48
 1220 02a0 08       		.byte	0x8
 1221 02a1 6D       		.byte	0x6d
 1222 02a2 A6020000 		.4byte	0x2a6
 1223 02a6 09       		.uleb128 0x9
 1224 02a7 04       		.byte	0x4
 1225 02a8 AC020000 		.4byte	0x2ac
 1226 02ac 0A       		.uleb128 0xa
 1227 02ad 27010000 		.4byte	0x127
 1228 02b1 C0020000 		.4byte	0x2c0
 1229 02b5 0B       		.uleb128 0xb
 1230 02b6 93010000 		.4byte	0x193
 1231 02ba 0B       		.uleb128 0xb
 1232 02bb E1010000 		.4byte	0x1e1
 1233 02bf 00       		.byte	0
 1234 02c0 04       		.uleb128 0x4
 1235 02c1 C8000000 		.4byte	.LASF49
 1236 02c5 08       		.byte	0x8
 1237 02c6 76       		.byte	0x76
 1238 02c7 CB020000 		.4byte	0x2cb
 1239 02cb 09       		.uleb128 0x9
 1240 02cc 04       		.byte	0x4
 1241 02cd D1020000 		.4byte	0x2d1
 1242 02d1 0A       		.uleb128 0xa
 1243 02d2 27010000 		.4byte	0x127
 1244 02d6 EA020000 		.4byte	0x2ea
 1245 02da 0B       		.uleb128 0xb
 1246 02db E1010000 		.4byte	0x1e1
 1247 02df 0B       		.uleb128 0xb
 1248 02e0 93010000 		.4byte	0x193
 1249 02e4 0B       		.uleb128 0xb
 1250 02e5 EA020000 		.4byte	0x2ea
 1251 02e9 00       		.byte	0
 1252 02ea 09       		.uleb128 0x9
ARM GAS  /tmp/ccegF7gt.s 			page 23


 1253 02eb 04       		.byte	0x4
 1254 02ec CB010000 		.4byte	0x1cb
 1255 02f0 04       		.uleb128 0x4
 1256 02f1 44040000 		.4byte	.LASF50
 1257 02f5 08       		.byte	0x8
 1258 02f6 7E       		.byte	0x7e
 1259 02f7 FB020000 		.4byte	0x2fb
 1260 02fb 09       		.uleb128 0x9
 1261 02fc 04       		.byte	0x4
 1262 02fd 01030000 		.4byte	0x301
 1263 0301 0A       		.uleb128 0xa
 1264 0302 27010000 		.4byte	0x127
 1265 0306 15030000 		.4byte	0x315
 1266 030a 0B       		.uleb128 0xb
 1267 030b E1010000 		.4byte	0x1e1
 1268 030f 0B       		.uleb128 0xb
 1269 0310 93010000 		.4byte	0x193
 1270 0314 00       		.byte	0
 1271 0315 0C       		.uleb128 0xc
 1272 0316 F0000000 		.4byte	0xf0
 1273 031a 25030000 		.4byte	0x325
 1274 031e 0D       		.uleb128 0xd
 1275 031f E2000000 		.4byte	0xe2
 1276 0323 05       		.byte	0x5
 1277 0324 00       		.byte	0
 1278 0325 0C       		.uleb128 0xc
 1279 0326 E9000000 		.4byte	0xe9
 1280 032a 35030000 		.4byte	0x335
 1281 032e 0D       		.uleb128 0xd
 1282 032f E2000000 		.4byte	0xe2
 1283 0333 01       		.byte	0x1
 1284 0334 00       		.byte	0
 1285 0335 06       		.uleb128 0x6
 1286 0336 38040000 		.4byte	.LASF51
 1287 033a 14       		.byte	0x14
 1288 033b 09       		.byte	0x9
 1289 033c 74       		.byte	0x74
 1290 033d BA030000 		.4byte	0x3ba
 1291 0341 07       		.uleb128 0x7
 1292 0342 56030000 		.4byte	.LASF52
 1293 0346 09       		.byte	0x9
 1294 0347 76       		.byte	0x76
 1295 0348 F0000000 		.4byte	0xf0
 1296 034c 00       		.byte	0
 1297 034d 07       		.uleb128 0x7
 1298 034e 89040000 		.4byte	.LASF53
 1299 0352 09       		.byte	0x9
 1300 0353 78       		.byte	0x78
 1301 0354 F0000000 		.4byte	0xf0
 1302 0358 01       		.byte	0x1
 1303 0359 07       		.uleb128 0x7
 1304 035a 5F060000 		.4byte	.LASF54
 1305 035e 09       		.byte	0x9
 1306 035f 7A       		.byte	0x7a
 1307 0360 06010000 		.4byte	0x106
 1308 0364 02       		.byte	0x2
 1309 0365 08       		.uleb128 0x8
ARM GAS  /tmp/ccegF7gt.s 			page 24


 1310 0366 5F696400 		.ascii	"_id\000"
 1311 036a 09       		.byte	0x9
 1312 036b 7C       		.byte	0x7c
 1313 036c 06010000 		.4byte	0x106
 1314 0370 04       		.byte	0x4
 1315 0371 07       		.uleb128 0x7
 1316 0372 E7010000 		.4byte	.LASF55
 1317 0376 09       		.byte	0x9
 1318 0377 7E       		.byte	0x7e
 1319 0378 06010000 		.4byte	0x106
 1320 037c 06       		.byte	0x6
 1321 037d 07       		.uleb128 0x7
 1322 037e B4000000 		.4byte	.LASF56
 1323 0382 09       		.byte	0x9
 1324 0383 84       		.byte	0x84
 1325 0384 F0000000 		.4byte	0xf0
 1326 0388 08       		.byte	0x8
 1327 0389 07       		.uleb128 0x7
 1328 038a ED020000 		.4byte	.LASF57
 1329 038e 09       		.byte	0x9
 1330 038f 86       		.byte	0x86
 1331 0390 F0000000 		.4byte	0xf0
 1332 0394 09       		.byte	0x9
 1333 0395 07       		.uleb128 0x7
 1334 0396 D4010000 		.4byte	.LASF58
 1335 039a 09       		.byte	0x9
 1336 039b 88       		.byte	0x88
 1337 039c 06010000 		.4byte	0x106
 1338 03a0 0A       		.byte	0xa
 1339 03a1 08       		.uleb128 0x8
 1340 03a2 73726300 		.ascii	"src\000"
 1341 03a6 09       		.byte	0x9
 1342 03a7 8A       		.byte	0x8a
 1343 03a8 D6010000 		.4byte	0x1d6
 1344 03ac 0C       		.byte	0xc
 1345 03ad 07       		.uleb128 0x7
 1346 03ae 8B060000 		.4byte	.LASF59
 1347 03b2 09       		.byte	0x9
 1348 03b3 8B       		.byte	0x8b
 1349 03b4 D6010000 		.4byte	0x1d6
 1350 03b8 10       		.byte	0x10
 1351 03b9 00       		.byte	0
 1352 03ba 04       		.uleb128 0x4
 1353 03bb B4020000 		.4byte	.LASF60
 1354 03bf 0A       		.byte	0xa
 1355 03c0 4C       		.byte	0x4c
 1356 03c1 06010000 		.4byte	0x106
 1357 03c5 0E       		.uleb128 0xe
 1358 03c6 67040000 		.4byte	.LASF143
 1359 03ca 01       		.byte	0x1
 1360 03cb 10       		.byte	0x10
 1361 03cc 38       		.byte	0x38
 1362 03cd F6030000 		.4byte	0x3f6
 1363 03d1 0F       		.uleb128 0xf
 1364 03d2 90000000 		.4byte	.LASF61
 1365 03d6 00       		.sleb128 0
 1366 03d7 0F       		.uleb128 0xf
ARM GAS  /tmp/ccegF7gt.s 			page 25


 1367 03d8 14000000 		.4byte	.LASF62
 1368 03dc 01       		.sleb128 1
 1369 03dd 0F       		.uleb128 0xf
 1370 03de CF050000 		.4byte	.LASF63
 1371 03e2 02       		.sleb128 2
 1372 03e3 0F       		.uleb128 0xf
 1373 03e4 6B030000 		.4byte	.LASF64
 1374 03e8 03       		.sleb128 3
 1375 03e9 0F       		.uleb128 0xf
 1376 03ea F3050000 		.4byte	.LASF65
 1377 03ee 04       		.sleb128 4
 1378 03ef 0F       		.uleb128 0xf
 1379 03f0 EF010000 		.4byte	.LASF66
 1380 03f4 05       		.sleb128 5
 1381 03f5 00       		.byte	0
 1382 03f6 10       		.uleb128 0x10
 1383 03f7 01       		.byte	0x1
 1384 03f8 13       		.byte	0x13
 1385 03f9 2B       		.byte	0x2b
 1386 03fa 59040000 		.4byte	0x459
 1387 03fe 0F       		.uleb128 0xf
 1388 03ff 75040000 		.4byte	.LASF67
 1389 0403 00       		.sleb128 0
 1390 0404 0F       		.uleb128 0xf
 1391 0405 06040000 		.4byte	.LASF68
 1392 0409 01       		.sleb128 1
 1393 040a 0F       		.uleb128 0xf
 1394 040b 35030000 		.4byte	.LASF69
 1395 040f 02       		.sleb128 2
 1396 0410 0F       		.uleb128 0xf
 1397 0411 00000000 		.4byte	.LASF70
 1398 0415 03       		.sleb128 3
 1399 0416 0F       		.uleb128 0xf
 1400 0417 B1050000 		.4byte	.LASF71
 1401 041b 04       		.sleb128 4
 1402 041c 0F       		.uleb128 0xf
 1403 041d 6F000000 		.4byte	.LASF72
 1404 0421 05       		.sleb128 5
 1405 0422 0F       		.uleb128 0xf
 1406 0423 58040000 		.4byte	.LASF73
 1407 0427 06       		.sleb128 6
 1408 0428 0F       		.uleb128 0xf
 1409 0429 0A030000 		.4byte	.LASF74
 1410 042d 07       		.sleb128 7
 1411 042e 0F       		.uleb128 0xf
 1412 042f 6A020000 		.4byte	.LASF75
 1413 0433 08       		.sleb128 8
 1414 0434 0F       		.uleb128 0xf
 1415 0435 35010000 		.4byte	.LASF76
 1416 0439 09       		.sleb128 9
 1417 043a 0F       		.uleb128 0xf
 1418 043b FB010000 		.4byte	.LASF77
 1419 043f 0A       		.sleb128 10
 1420 0440 0F       		.uleb128 0xf
 1421 0441 F5030000 		.4byte	.LASF78
 1422 0445 0B       		.sleb128 11
 1423 0446 0F       		.uleb128 0xf
ARM GAS  /tmp/ccegF7gt.s 			page 26


 1424 0447 98020000 		.4byte	.LASF79
 1425 044b 0C       		.sleb128 12
 1426 044c 0F       		.uleb128 0xf
 1427 044d E3000000 		.4byte	.LASF80
 1428 0451 0D       		.sleb128 13
 1429 0452 0F       		.uleb128 0xf
 1430 0453 4D020000 		.4byte	.LASF81
 1431 0457 0E       		.sleb128 14
 1432 0458 00       		.byte	0
 1433 0459 06       		.uleb128 0x6
 1434 045a BF020000 		.4byte	.LASF82
 1435 045e 18       		.byte	0x18
 1436 045f 0B       		.byte	0xb
 1437 0460 3A       		.byte	0x3a
 1438 0461 F5040000 		.4byte	0x4f5
 1439 0465 07       		.uleb128 0x7
 1440 0466 47060000 		.4byte	.LASF83
 1441 046a 0B       		.byte	0xb
 1442 046b 3B       		.byte	0x3b
 1443 046c 06010000 		.4byte	0x106
 1444 0470 00       		.byte	0
 1445 0471 07       		.uleb128 0x7
 1446 0472 18060000 		.4byte	.LASF84
 1447 0476 0B       		.byte	0xb
 1448 0477 3C       		.byte	0x3c
 1449 0478 06010000 		.4byte	0x106
 1450 047c 02       		.byte	0x2
 1451 047d 08       		.uleb128 0x8
 1452 047e 667700   		.ascii	"fw\000"
 1453 0481 0B       		.byte	0xb
 1454 0482 3D       		.byte	0x3d
 1455 0483 06010000 		.4byte	0x106
 1456 0487 04       		.byte	0x4
 1457 0488 07       		.uleb128 0x7
 1458 0489 01060000 		.4byte	.LASF85
 1459 048d 0B       		.byte	0xb
 1460 048e 3E       		.byte	0x3e
 1461 048f 06010000 		.4byte	0x106
 1462 0493 06       		.byte	0x6
 1463 0494 07       		.uleb128 0x7
 1464 0495 64030000 		.4byte	.LASF86
 1465 0499 0B       		.byte	0xb
 1466 049a 3F       		.byte	0x3f
 1467 049b 06010000 		.4byte	0x106
 1468 049f 08       		.byte	0x8
 1469 04a0 07       		.uleb128 0x7
 1470 04a1 82040000 		.4byte	.LASF87
 1471 04a5 0B       		.byte	0xb
 1472 04a6 40       		.byte	0x40
 1473 04a7 06010000 		.4byte	0x106
 1474 04ab 0A       		.byte	0xa
 1475 04ac 07       		.uleb128 0x7
 1476 04ad AA050000 		.4byte	.LASF88
 1477 04b1 0B       		.byte	0xb
 1478 04b2 41       		.byte	0x41
 1479 04b3 06010000 		.4byte	0x106
 1480 04b7 0C       		.byte	0xc
ARM GAS  /tmp/ccegF7gt.s 			page 27


 1481 04b8 07       		.uleb128 0x7
 1482 04b9 E9030000 		.4byte	.LASF89
 1483 04bd 0B       		.byte	0xb
 1484 04be 42       		.byte	0x42
 1485 04bf 06010000 		.4byte	0x106
 1486 04c3 0E       		.byte	0xe
 1487 04c4 07       		.uleb128 0x7
 1488 04c5 57050000 		.4byte	.LASF90
 1489 04c9 0B       		.byte	0xb
 1490 04ca 43       		.byte	0x43
 1491 04cb 06010000 		.4byte	0x106
 1492 04cf 10       		.byte	0x10
 1493 04d0 07       		.uleb128 0x7
 1494 04d1 48010000 		.4byte	.LASF91
 1495 04d5 0B       		.byte	0xb
 1496 04d6 44       		.byte	0x44
 1497 04d7 06010000 		.4byte	0x106
 1498 04db 12       		.byte	0x12
 1499 04dc 08       		.uleb128 0x8
 1500 04dd 65727200 		.ascii	"err\000"
 1501 04e1 0B       		.byte	0xb
 1502 04e2 45       		.byte	0x45
 1503 04e3 06010000 		.4byte	0x106
 1504 04e7 14       		.byte	0x14
 1505 04e8 07       		.uleb128 0x7
 1506 04e9 18040000 		.4byte	.LASF92
 1507 04ed 0B       		.byte	0xb
 1508 04ee 46       		.byte	0x46
 1509 04ef 06010000 		.4byte	0x106
 1510 04f3 16       		.byte	0x16
 1511 04f4 00       		.byte	0
 1512 04f5 06       		.uleb128 0x6
 1513 04f6 BE000000 		.4byte	.LASF93
 1514 04fa 0A       		.byte	0xa
 1515 04fb 0B       		.byte	0xb
 1516 04fc 5A       		.byte	0x5a
 1517 04fd 3E050000 		.4byte	0x53e
 1518 0501 07       		.uleb128 0x7
 1519 0502 EF030000 		.4byte	.LASF94
 1520 0506 0B       		.byte	0xb
 1521 0507 5E       		.byte	0x5e
 1522 0508 BA030000 		.4byte	0x3ba
 1523 050c 00       		.byte	0
 1524 050d 07       		.uleb128 0x7
 1525 050e 10020000 		.4byte	.LASF95
 1526 0512 0B       		.byte	0xb
 1527 0513 5F       		.byte	0x5f
 1528 0514 BA030000 		.4byte	0x3ba
 1529 0518 02       		.byte	0x2
 1530 0519 08       		.uleb128 0x8
 1531 051a 6D617800 		.ascii	"max\000"
 1532 051e 0B       		.byte	0xb
 1533 051f 60       		.byte	0x60
 1534 0520 BA030000 		.4byte	0x3ba
 1535 0524 04       		.byte	0x4
 1536 0525 08       		.uleb128 0x8
 1537 0526 65727200 		.ascii	"err\000"
ARM GAS  /tmp/ccegF7gt.s 			page 28


 1538 052a 0B       		.byte	0xb
 1539 052b 61       		.byte	0x61
 1540 052c 06010000 		.4byte	0x106
 1541 0530 06       		.byte	0x6
 1542 0531 07       		.uleb128 0x7
 1543 0532 5D010000 		.4byte	.LASF96
 1544 0536 0B       		.byte	0xb
 1545 0537 62       		.byte	0x62
 1546 0538 06010000 		.4byte	0x106
 1547 053c 08       		.byte	0x8
 1548 053d 00       		.byte	0
 1549 053e 06       		.uleb128 0x6
 1550 053f 08010000 		.4byte	.LASF97
 1551 0543 06       		.byte	0x6
 1552 0544 0B       		.byte	0xb
 1553 0545 65       		.byte	0x65
 1554 0546 6F050000 		.4byte	0x56f
 1555 054a 07       		.uleb128 0x7
 1556 054b 10020000 		.4byte	.LASF95
 1557 054f 0B       		.byte	0xb
 1558 0550 66       		.byte	0x66
 1559 0551 06010000 		.4byte	0x106
 1560 0555 00       		.byte	0
 1561 0556 08       		.uleb128 0x8
 1562 0557 6D617800 		.ascii	"max\000"
 1563 055b 0B       		.byte	0xb
 1564 055c 67       		.byte	0x67
 1565 055d 06010000 		.4byte	0x106
 1566 0561 02       		.byte	0x2
 1567 0562 08       		.uleb128 0x8
 1568 0563 65727200 		.ascii	"err\000"
 1569 0567 0B       		.byte	0xb
 1570 0568 68       		.byte	0x68
 1571 0569 06010000 		.4byte	0x106
 1572 056d 04       		.byte	0x4
 1573 056e 00       		.byte	0
 1574 056f 06       		.uleb128 0x6
 1575 0570 87050000 		.4byte	.LASF98
 1576 0574 12       		.byte	0x12
 1577 0575 0B       		.byte	0xb
 1578 0576 6B       		.byte	0x6b
 1579 0577 A0050000 		.4byte	0x5a0
 1580 057b 08       		.uleb128 0x8
 1581 057c 73656D00 		.ascii	"sem\000"
 1582 0580 0B       		.byte	0xb
 1583 0581 6C       		.byte	0x6c
 1584 0582 3E050000 		.4byte	0x53e
 1585 0586 00       		.byte	0
 1586 0587 07       		.uleb128 0x7
 1587 0588 4F010000 		.4byte	.LASF99
 1588 058c 0B       		.byte	0xb
 1589 058d 6D       		.byte	0x6d
 1590 058e 3E050000 		.4byte	0x53e
 1591 0592 06       		.byte	0x6
 1592 0593 07       		.uleb128 0x7
 1593 0594 13040000 		.4byte	.LASF100
 1594 0598 0B       		.byte	0xb
ARM GAS  /tmp/ccegF7gt.s 			page 29


 1595 0599 6E       		.byte	0x6e
 1596 059a 3E050000 		.4byte	0x53e
 1597 059e 0C       		.byte	0xc
 1598 059f 00       		.byte	0
 1599 05a0 11       		.uleb128 0x11
 1600 05a1 15020000 		.4byte	.LASF101
 1601 05a5 5001     		.2byte	0x150
 1602 05a7 0B       		.byte	0xb
 1603 05a8 71       		.byte	0x71
 1604 05a9 26060000 		.4byte	0x626
 1605 05ad 07       		.uleb128 0x7
 1606 05ae B9000000 		.4byte	.LASF102
 1607 05b2 0B       		.byte	0xb
 1608 05b3 73       		.byte	0x73
 1609 05b4 59040000 		.4byte	0x459
 1610 05b8 00       		.byte	0
 1611 05b9 07       		.uleb128 0x7
 1612 05ba 7F010000 		.4byte	.LASF103
 1613 05be 0B       		.byte	0xb
 1614 05bf 76       		.byte	0x76
 1615 05c0 59040000 		.4byte	0x459
 1616 05c4 18       		.byte	0x18
 1617 05c5 07       		.uleb128 0x7
 1618 05c6 55010000 		.4byte	.LASF104
 1619 05ca 0B       		.byte	0xb
 1620 05cb 79       		.byte	0x79
 1621 05cc 59040000 		.4byte	0x459
 1622 05d0 30       		.byte	0x30
 1623 05d1 08       		.uleb128 0x8
 1624 05d2 697000   		.ascii	"ip\000"
 1625 05d5 0B       		.byte	0xb
 1626 05d6 7C       		.byte	0x7c
 1627 05d7 59040000 		.4byte	0x459
 1628 05db 48       		.byte	0x48
 1629 05dc 07       		.uleb128 0x7
 1630 05dd DB030000 		.4byte	.LASF105
 1631 05e1 0B       		.byte	0xb
 1632 05e2 7F       		.byte	0x7f
 1633 05e3 59040000 		.4byte	0x459
 1634 05e7 60       		.byte	0x60
 1635 05e8 08       		.uleb128 0x8
 1636 05e9 75647000 		.ascii	"udp\000"
 1637 05ed 0B       		.byte	0xb
 1638 05ee 85       		.byte	0x85
 1639 05ef 59040000 		.4byte	0x459
 1640 05f3 78       		.byte	0x78
 1641 05f4 08       		.uleb128 0x8
 1642 05f5 74637000 		.ascii	"tcp\000"
 1643 05f9 0B       		.byte	0xb
 1644 05fa 88       		.byte	0x88
 1645 05fb 59040000 		.4byte	0x459
 1646 05ff 90       		.byte	0x90
 1647 0600 08       		.uleb128 0x8
 1648 0601 6D656D00 		.ascii	"mem\000"
 1649 0605 0B       		.byte	0xb
 1650 0606 8B       		.byte	0x8b
 1651 0607 F5040000 		.4byte	0x4f5
ARM GAS  /tmp/ccegF7gt.s 			page 30


 1652 060b A8       		.byte	0xa8
 1653 060c 07       		.uleb128 0x7
 1654 060d 42030000 		.4byte	.LASF106
 1655 0611 0B       		.byte	0xb
 1656 0612 8E       		.byte	0x8e
 1657 0613 26060000 		.4byte	0x626
 1658 0617 B2       		.byte	0xb2
 1659 0618 12       		.uleb128 0x12
 1660 0619 73797300 		.ascii	"sys\000"
 1661 061d 0B       		.byte	0xb
 1662 061e 91       		.byte	0x91
 1663 061f 6F050000 		.4byte	0x56f
 1664 0623 3E01     		.2byte	0x13e
 1665 0625 00       		.byte	0
 1666 0626 0C       		.uleb128 0xc
 1667 0627 F5040000 		.4byte	0x4f5
 1668 062b 36060000 		.4byte	0x636
 1669 062f 0D       		.uleb128 0xd
 1670 0630 E2000000 		.4byte	0xe2
 1671 0634 0D       		.byte	0xd
 1672 0635 00       		.byte	0
 1673 0636 13       		.uleb128 0x13
 1674 0637 6E060000 		.4byte	.LASF107
 1675 063b 01       		.byte	0x1
 1676 063c 7C       		.byte	0x7c
 1677 063d E1010000 		.4byte	0x1e1
 1678 0641 00000000 		.4byte	.LFB7
 1679 0645 54000000 		.4byte	.LFE7-.LFB7
 1680 0649 01       		.uleb128 0x1
 1681 064a 9C       		.byte	0x9c
 1682 064b 6E060000 		.4byte	0x66e
 1683 064f 14       		.uleb128 0x14
 1684 0650 8B060000 		.4byte	.LASF59
 1685 0654 01       		.byte	0x1
 1686 0655 7C       		.byte	0x7c
 1687 0656 EA020000 		.4byte	0x2ea
 1688 065a 00000000 		.4byte	.LLST0
 1689 065e 15       		.uleb128 0x15
 1690 065f 0C060000 		.4byte	.LASF39
 1691 0663 01       		.byte	0x1
 1692 0664 7E       		.byte	0x7e
 1693 0665 E1010000 		.4byte	0x1e1
 1694 0669 3A000000 		.4byte	.LLST1
 1695 066d 00       		.byte	0
 1696 066e 16       		.uleb128 0x16
 1697 066f 9A030000 		.4byte	.LASF108
 1698 0673 01       		.byte	0x1
 1699 0674 3101     		.2byte	0x131
 1700 0676 27010000 		.4byte	0x127
 1701 067a 00000000 		.4byte	.LFB8
 1702 067e 1E020000 		.4byte	.LFE8-.LFB8
 1703 0682 01       		.uleb128 0x1
 1704 0683 9C       		.byte	0x9c
 1705 0684 7E080000 		.4byte	0x87e
 1706 0688 17       		.uleb128 0x17
 1707 0689 7000     		.ascii	"p\000"
 1708 068b 01       		.byte	0x1
ARM GAS  /tmp/ccegF7gt.s 			page 31


 1709 068c 3101     		.2byte	0x131
 1710 068e 93010000 		.4byte	0x193
 1711 0692 58000000 		.4byte	.LLST2
 1712 0696 17       		.uleb128 0x17
 1713 0697 696E7000 		.ascii	"inp\000"
 1714 069b 01       		.byte	0x1
 1715 069c 3101     		.2byte	0x131
 1716 069e E1010000 		.4byte	0x1e1
 1717 06a2 A2000000 		.4byte	.LLST3
 1718 06a6 18       		.uleb128 0x18
 1719 06a7 12060000 		.4byte	.LASF109
 1720 06ab 01       		.byte	0x1
 1721 06ac 3301     		.2byte	0x133
 1722 06ae 7E080000 		.4byte	0x87e
 1723 06b2 01       		.uleb128 0x1
 1724 06b3 5B       		.byte	0x5b
 1725 06b4 19       		.uleb128 0x19
 1726 06b5 0C060000 		.4byte	.LASF39
 1727 06b9 01       		.byte	0x1
 1728 06ba 3401     		.2byte	0x134
 1729 06bc E1010000 		.4byte	0x1e1
 1730 06c0 08010000 		.4byte	.LLST4
 1731 06c4 19       		.uleb128 0x19
 1732 06c5 29060000 		.4byte	.LASF110
 1733 06c9 01       		.byte	0x1
 1734 06ca 3501     		.2byte	0x135
 1735 06cc 06010000 		.4byte	0x106
 1736 06d0 3C010000 		.4byte	.LLST5
 1737 06d4 19       		.uleb128 0x19
 1738 06d5 81060000 		.4byte	.LASF111
 1739 06d9 01       		.byte	0x1
 1740 06da 3601     		.2byte	0x136
 1741 06dc 06010000 		.4byte	0x106
 1742 06e0 65010000 		.4byte	.LLST6
 1743 06e4 1A       		.uleb128 0x1a
 1744 06e5 00000000 		.4byte	.Ldebug_ranges0+0
 1745 06e9 0E070000 		.4byte	0x70e
 1746 06ed 19       		.uleb128 0x19
 1747 06ee E8050000 		.4byte	.LASF112
 1748 06f2 01       		.byte	0x1
 1749 06f3 9101     		.2byte	0x191
 1750 06f5 25000000 		.4byte	0x25
 1751 06f9 A4010000 		.4byte	.LLST7
 1752 06fd 1B       		.uleb128 0x1b
 1753 06fe E8000000 		.4byte	.LVL26
 1754 0702 220B0000 		.4byte	0xb22
 1755 0706 1C       		.uleb128 0x1c
 1756 0707 01       		.uleb128 0x1
 1757 0708 51       		.byte	0x51
 1758 0709 02       		.uleb128 0x2
 1759 070a 74       		.byte	0x74
 1760 070b 00       		.sleb128 0
 1761 070c 00       		.byte	0
 1762 070d 00       		.byte	0
 1763 070e 1D       		.uleb128 0x1d
 1764 070f 2E000000 		.4byte	.LVL9
 1765 0713 470B0000 		.4byte	0xb47
ARM GAS  /tmp/ccegF7gt.s 			page 32


 1766 0717 22070000 		.4byte	0x722
 1767 071b 1C       		.uleb128 0x1c
 1768 071c 01       		.uleb128 0x1
 1769 071d 50       		.byte	0x50
 1770 071e 02       		.uleb128 0x2
 1771 071f 77       		.byte	0x77
 1772 0720 00       		.sleb128 0
 1773 0721 00       		.byte	0
 1774 0722 1E       		.uleb128 0x1e
 1775 0723 58000000 		.4byte	.LVL15
 1776 0727 5C0B0000 		.4byte	0xb5c
 1777 072b 1D       		.uleb128 0x1d
 1778 072c 6C000000 		.4byte	.LVL18
 1779 0730 470B0000 		.4byte	0xb47
 1780 0734 3F070000 		.4byte	0x73f
 1781 0738 1C       		.uleb128 0x1c
 1782 0739 01       		.uleb128 0x1
 1783 073a 50       		.byte	0x50
 1784 073b 02       		.uleb128 0x2
 1785 073c 77       		.byte	0x77
 1786 073d 00       		.sleb128 0
 1787 073e 00       		.byte	0
 1788 073f 1D       		.uleb128 0x1d
 1789 0740 90000000 		.4byte	.LVL21
 1790 0744 710B0000 		.4byte	0xb71
 1791 0748 59070000 		.4byte	0x759
 1792 074c 1C       		.uleb128 0x1c
 1793 074d 01       		.uleb128 0x1
 1794 074e 51       		.byte	0x51
 1795 074f 02       		.uleb128 0x2
 1796 0750 74       		.byte	0x74
 1797 0751 00       		.sleb128 0
 1798 0752 1C       		.uleb128 0x1c
 1799 0753 01       		.uleb128 0x1
 1800 0754 50       		.byte	0x50
 1801 0755 02       		.uleb128 0x2
 1802 0756 7B       		.byte	0x7b
 1803 0757 00       		.sleb128 0
 1804 0758 00       		.byte	0
 1805 0759 1D       		.uleb128 0x1d
 1806 075a AC000000 		.4byte	.LVL22
 1807 075e 8B0B0000 		.4byte	0xb8b
 1808 0762 73070000 		.4byte	0x773
 1809 0766 1C       		.uleb128 0x1c
 1810 0767 01       		.uleb128 0x1
 1811 0768 51       		.byte	0x51
 1812 0769 02       		.uleb128 0x2
 1813 076a 76       		.byte	0x76
 1814 076b 00       		.sleb128 0
 1815 076c 1C       		.uleb128 0x1c
 1816 076d 01       		.uleb128 0x1
 1817 076e 50       		.byte	0x50
 1818 076f 02       		.uleb128 0x2
 1819 0770 77       		.byte	0x77
 1820 0771 00       		.sleb128 0
 1821 0772 00       		.byte	0
 1822 0773 1D       		.uleb128 0x1d
ARM GAS  /tmp/ccegF7gt.s 			page 33


 1823 0774 10010000 		.4byte	.LVL31
 1824 0778 220B0000 		.4byte	0xb22
 1825 077c 87070000 		.4byte	0x787
 1826 0780 1C       		.uleb128 0x1c
 1827 0781 01       		.uleb128 0x1
 1828 0782 51       		.byte	0x51
 1829 0783 02       		.uleb128 0x2
 1830 0784 78       		.byte	0x78
 1831 0785 00       		.sleb128 0
 1832 0786 00       		.byte	0
 1833 0787 1D       		.uleb128 0x1d
 1834 0788 34010000 		.4byte	.LVL32
 1835 078c A10B0000 		.4byte	0xba1
 1836 0790 9B070000 		.4byte	0x79b
 1837 0794 1C       		.uleb128 0x1c
 1838 0795 01       		.uleb128 0x1
 1839 0796 50       		.byte	0x50
 1840 0797 02       		.uleb128 0x2
 1841 0798 77       		.byte	0x77
 1842 0799 00       		.sleb128 0
 1843 079a 00       		.byte	0
 1844 079b 1D       		.uleb128 0x1d
 1845 079c 5E010000 		.4byte	.LVL35
 1846 07a0 B60B0000 		.4byte	0xbb6
 1847 07a4 B5070000 		.4byte	0x7b5
 1848 07a8 1C       		.uleb128 0x1c
 1849 07a9 01       		.uleb128 0x1
 1850 07aa 51       		.byte	0x51
 1851 07ab 02       		.uleb128 0x2
 1852 07ac 78       		.byte	0x78
 1853 07ad 00       		.sleb128 0
 1854 07ae 1C       		.uleb128 0x1c
 1855 07af 01       		.uleb128 0x1
 1856 07b0 50       		.byte	0x50
 1857 07b1 02       		.uleb128 0x2
 1858 07b2 77       		.byte	0x77
 1859 07b3 00       		.sleb128 0
 1860 07b4 00       		.byte	0
 1861 07b5 1D       		.uleb128 0x1d
 1862 07b6 82010000 		.4byte	.LVL37
 1863 07ba 220B0000 		.4byte	0xb22
 1864 07be CA070000 		.4byte	0x7ca
 1865 07c2 1C       		.uleb128 0x1c
 1866 07c3 01       		.uleb128 0x1
 1867 07c4 51       		.byte	0x51
 1868 07c5 03       		.uleb128 0x3
 1869 07c6 F3       		.byte	0xf3
 1870 07c7 01       		.uleb128 0x1
 1871 07c8 51       		.byte	0x51
 1872 07c9 00       		.byte	0
 1873 07ca 1D       		.uleb128 0x1d
 1874 07cb 9C010000 		.4byte	.LVL38
 1875 07cf D00B0000 		.4byte	0xbd0
 1876 07d3 E3070000 		.4byte	0x7e3
 1877 07d7 1C       		.uleb128 0x1c
 1878 07d8 01       		.uleb128 0x1
 1879 07d9 51       		.byte	0x51
ARM GAS  /tmp/ccegF7gt.s 			page 34


 1880 07da 01       		.uleb128 0x1
 1881 07db 32       		.byte	0x32
 1882 07dc 1C       		.uleb128 0x1c
 1883 07dd 01       		.uleb128 0x1
 1884 07de 50       		.byte	0x50
 1885 07df 02       		.uleb128 0x2
 1886 07e0 77       		.byte	0x77
 1887 07e1 00       		.sleb128 0
 1888 07e2 00       		.byte	0
 1889 07e3 1D       		.uleb128 0x1d
 1890 07e4 A2010000 		.4byte	.LVL39
 1891 07e8 470B0000 		.4byte	0xb47
 1892 07ec F7070000 		.4byte	0x7f7
 1893 07f0 1C       		.uleb128 0x1c
 1894 07f1 01       		.uleb128 0x1
 1895 07f2 50       		.byte	0x50
 1896 07f3 02       		.uleb128 0x2
 1897 07f4 77       		.byte	0x77
 1898 07f5 00       		.sleb128 0
 1899 07f6 00       		.byte	0
 1900 07f7 1D       		.uleb128 0x1d
 1901 07f8 D0010000 		.4byte	.LVL43
 1902 07fc 470B0000 		.4byte	0xb47
 1903 0800 0B080000 		.4byte	0x80b
 1904 0804 1C       		.uleb128 0x1c
 1905 0805 01       		.uleb128 0x1
 1906 0806 50       		.byte	0x50
 1907 0807 02       		.uleb128 0x2
 1908 0808 77       		.byte	0x77
 1909 0809 00       		.sleb128 0
 1910 080a 00       		.byte	0
 1911 080b 1D       		.uleb128 0x1d
 1912 080c E2010000 		.4byte	.LVL45
 1913 0810 470B0000 		.4byte	0xb47
 1914 0814 1F080000 		.4byte	0x81f
 1915 0818 1C       		.uleb128 0x1c
 1916 0819 01       		.uleb128 0x1
 1917 081a 50       		.byte	0x50
 1918 081b 02       		.uleb128 0x2
 1919 081c 77       		.byte	0x77
 1920 081d 00       		.sleb128 0
 1921 081e 00       		.byte	0
 1922 081f 1D       		.uleb128 0x1d
 1923 0820 00020000 		.4byte	.LVL47
 1924 0824 E60B0000 		.4byte	0xbe6
 1925 0828 39080000 		.4byte	0x839
 1926 082c 1C       		.uleb128 0x1c
 1927 082d 01       		.uleb128 0x1
 1928 082e 51       		.byte	0x51
 1929 082f 02       		.uleb128 0x2
 1930 0830 78       		.byte	0x78
 1931 0831 00       		.sleb128 0
 1932 0832 1C       		.uleb128 0x1c
 1933 0833 01       		.uleb128 0x1
 1934 0834 50       		.byte	0x50
 1935 0835 02       		.uleb128 0x2
 1936 0836 77       		.byte	0x77
ARM GAS  /tmp/ccegF7gt.s 			page 35


 1937 0837 00       		.sleb128 0
 1938 0838 00       		.byte	0
 1939 0839 1D       		.uleb128 0x1d
 1940 083a 0A020000 		.4byte	.LVL48
 1941 083e FC0B0000 		.4byte	0xbfc
 1942 0842 53080000 		.4byte	0x853
 1943 0846 1C       		.uleb128 0x1c
 1944 0847 01       		.uleb128 0x1
 1945 0848 51       		.byte	0x51
 1946 0849 02       		.uleb128 0x2
 1947 084a 78       		.byte	0x78
 1948 084b 00       		.sleb128 0
 1949 084c 1C       		.uleb128 0x1c
 1950 084d 01       		.uleb128 0x1
 1951 084e 50       		.byte	0x50
 1952 084f 02       		.uleb128 0x2
 1953 0850 77       		.byte	0x77
 1954 0851 00       		.sleb128 0
 1955 0852 00       		.byte	0
 1956 0853 1D       		.uleb128 0x1d
 1957 0854 14020000 		.4byte	.LVL49
 1958 0858 120C0000 		.4byte	0xc12
 1959 085c 6D080000 		.4byte	0x86d
 1960 0860 1C       		.uleb128 0x1c
 1961 0861 01       		.uleb128 0x1
 1962 0862 51       		.byte	0x51
 1963 0863 02       		.uleb128 0x2
 1964 0864 78       		.byte	0x78
 1965 0865 00       		.sleb128 0
 1966 0866 1C       		.uleb128 0x1c
 1967 0867 01       		.uleb128 0x1
 1968 0868 50       		.byte	0x50
 1969 0869 02       		.uleb128 0x2
 1970 086a 77       		.byte	0x77
 1971 086b 00       		.sleb128 0
 1972 086c 00       		.byte	0
 1973 086d 1B       		.uleb128 0x1b
 1974 086e 1C020000 		.4byte	.LVL51
 1975 0872 470B0000 		.4byte	0xb47
 1976 0876 1C       		.uleb128 0x1c
 1977 0877 01       		.uleb128 0x1
 1978 0878 50       		.byte	0x50
 1979 0879 02       		.uleb128 0x2
 1980 087a 77       		.byte	0x77
 1981 087b 00       		.sleb128 0
 1982 087c 00       		.byte	0
 1983 087d 00       		.byte	0
 1984 087e 09       		.uleb128 0x9
 1985 087f 04       		.byte	0x4
 1986 0880 35030000 		.4byte	0x335
 1987 0884 16       		.uleb128 0x16
 1988 0885 21040000 		.4byte	.LASF113
 1989 0889 01       		.byte	0x1
 1990 088a 8102     		.2byte	0x281
 1991 088c 27010000 		.4byte	0x127
 1992 0890 00000000 		.4byte	.LFB9
 1993 0894 30010000 		.4byte	.LFE9-.LFB9
ARM GAS  /tmp/ccegF7gt.s 			page 36


 1994 0898 01       		.uleb128 0x1
 1995 0899 9C       		.byte	0x9c
 1996 089a CB090000 		.4byte	0x9cb
 1997 089e 17       		.uleb128 0x17
 1998 089f 7000     		.ascii	"p\000"
 1999 08a1 01       		.byte	0x1
 2000 08a2 8102     		.2byte	0x281
 2001 08a4 93010000 		.4byte	0x193
 2002 08a8 DA010000 		.4byte	.LLST8
 2003 08ac 17       		.uleb128 0x17
 2004 08ad 73726300 		.ascii	"src\000"
 2005 08b1 01       		.byte	0x1
 2006 08b2 8102     		.2byte	0x281
 2007 08b4 EA020000 		.4byte	0x2ea
 2008 08b8 F8010000 		.4byte	.LLST9
 2009 08bc 1F       		.uleb128 0x1f
 2010 08bd 8B060000 		.4byte	.LASF59
 2011 08c1 01       		.byte	0x1
 2012 08c2 8102     		.2byte	0x281
 2013 08c4 EA020000 		.4byte	0x2ea
 2014 08c8 17020000 		.4byte	.LLST10
 2015 08cc 17       		.uleb128 0x17
 2016 08cd 74746C00 		.ascii	"ttl\000"
 2017 08d1 01       		.byte	0x1
 2018 08d2 8202     		.2byte	0x282
 2019 08d4 F0000000 		.4byte	0xf0
 2020 08d8 5B020000 		.4byte	.LLST11
 2021 08dc 17       		.uleb128 0x17
 2022 08dd 746F7300 		.ascii	"tos\000"
 2023 08e1 01       		.byte	0x1
 2024 08e2 8202     		.2byte	0x282
 2025 08e4 F0000000 		.4byte	0xf0
 2026 08e8 7C020000 		.4byte	.LLST12
 2027 08ec 1F       		.uleb128 0x1f
 2028 08ed DA020000 		.4byte	.LASF114
 2029 08f1 01       		.byte	0x1
 2030 08f2 8302     		.2byte	0x283
 2031 08f4 F0000000 		.4byte	0xf0
 2032 08f8 9C020000 		.4byte	.LLST13
 2033 08fc 1F       		.uleb128 0x1f
 2034 08fd 0C060000 		.4byte	.LASF39
 2035 0901 01       		.byte	0x1
 2036 0902 8302     		.2byte	0x283
 2037 0904 E1010000 		.4byte	0x1e1
 2038 0908 BC020000 		.4byte	.LLST14
 2039 090c 19       		.uleb128 0x19
 2040 090d 12060000 		.4byte	.LASF109
 2041 0911 01       		.byte	0x1
 2042 0912 9402     		.2byte	0x294
 2043 0914 7E080000 		.4byte	0x87e
 2044 0918 DC020000 		.4byte	.LLST15
 2045 091c 18       		.uleb128 0x18
 2046 091d 77060000 		.4byte	.LASF115
 2047 0921 01       		.byte	0x1
 2048 0922 9502     		.2byte	0x295
 2049 0924 CB010000 		.4byte	0x1cb
 2050 0928 02       		.uleb128 0x2
ARM GAS  /tmp/ccegF7gt.s 			page 37


 2051 0929 91       		.byte	0x91
 2052 092a 54       		.sleb128 -44
 2053 092b 19       		.uleb128 0x19
 2054 092c 5C030000 		.4byte	.LASF116
 2055 0930 01       		.byte	0x1
 2056 0931 9702     		.2byte	0x297
 2057 0933 1C010000 		.4byte	0x11c
 2058 0937 11030000 		.4byte	.LLST16
 2059 093b 1A       		.uleb128 0x1a
 2060 093c 28000000 		.4byte	.Ldebug_ranges0+0x28
 2061 0940 89090000 		.4byte	0x989
 2062 0944 19       		.uleb128 0x19
 2063 0945 C1010000 		.4byte	.LASF117
 2064 0949 01       		.byte	0x1
 2065 094a A202     		.2byte	0x2a2
 2066 094c 06010000 		.4byte	0x106
 2067 0950 C2030000 		.4byte	.LLST17
 2068 0954 1D       		.uleb128 0x1d
 2069 0955 2E000000 		.4byte	.LVL56
 2070 0959 280C0000 		.4byte	0xc28
 2071 095d 6D090000 		.4byte	0x96d
 2072 0961 1C       		.uleb128 0x1c
 2073 0962 01       		.uleb128 0x1
 2074 0963 51       		.byte	0x51
 2075 0964 01       		.uleb128 0x1
 2076 0965 44       		.byte	0x44
 2077 0966 1C       		.uleb128 0x1c
 2078 0967 01       		.uleb128 0x1
 2079 0968 50       		.byte	0x50
 2080 0969 02       		.uleb128 0x2
 2081 096a 75       		.byte	0x75
 2082 096b 00       		.sleb128 0
 2083 096c 00       		.byte	0
 2084 096d 1E       		.uleb128 0x1e
 2085 096e 66000000 		.4byte	.LVL58
 2086 0972 420C0000 		.4byte	0xc42
 2087 0976 1E       		.uleb128 0x1e
 2088 0977 82000000 		.4byte	.LVL59
 2089 097b 420C0000 		.4byte	0xc42
 2090 097f 1E       		.uleb128 0x1e
 2091 0980 06010000 		.4byte	.LVL74
 2092 0984 570C0000 		.4byte	0xc57
 2093 0988 00       		.byte	0
 2094 0989 1E       		.uleb128 0x1e
 2095 098a 22000000 		.4byte	.LVL54
 2096 098e 570C0000 		.4byte	0xc57
 2097 0992 20       		.uleb128 0x20
 2098 0993 EA000000 		.4byte	.LVL68
 2099 0997 AE090000 		.4byte	0x9ae
 2100 099b 1C       		.uleb128 0x1c
 2101 099c 01       		.uleb128 0x1
 2102 099d 52       		.byte	0x52
 2103 099e 02       		.uleb128 0x2
 2104 099f 76       		.byte	0x76
 2105 09a0 00       		.sleb128 0
 2106 09a1 1C       		.uleb128 0x1c
 2107 09a2 01       		.uleb128 0x1
ARM GAS  /tmp/ccegF7gt.s 			page 38


 2108 09a3 51       		.byte	0x51
 2109 09a4 02       		.uleb128 0x2
 2110 09a5 75       		.byte	0x75
 2111 09a6 00       		.sleb128 0
 2112 09a7 1C       		.uleb128 0x1c
 2113 09a8 01       		.uleb128 0x1
 2114 09a9 50       		.byte	0x50
 2115 09aa 02       		.uleb128 0x2
 2116 09ab 77       		.byte	0x77
 2117 09ac 00       		.sleb128 0
 2118 09ad 00       		.byte	0
 2119 09ae 1B       		.uleb128 0x1b
 2120 09af 12010000 		.4byte	.LVL76
 2121 09b3 5F0C0000 		.4byte	0xc5f
 2122 09b7 1C       		.uleb128 0x1c
 2123 09b8 01       		.uleb128 0x1
 2124 09b9 52       		.byte	0x52
 2125 09ba 02       		.uleb128 0x2
 2126 09bb 76       		.byte	0x76
 2127 09bc 00       		.sleb128 0
 2128 09bd 1C       		.uleb128 0x1c
 2129 09be 01       		.uleb128 0x1
 2130 09bf 51       		.byte	0x51
 2131 09c0 02       		.uleb128 0x2
 2132 09c1 77       		.byte	0x77
 2133 09c2 00       		.sleb128 0
 2134 09c3 1C       		.uleb128 0x1c
 2135 09c4 01       		.uleb128 0x1
 2136 09c5 50       		.byte	0x50
 2137 09c6 02       		.uleb128 0x2
 2138 09c7 75       		.byte	0x75
 2139 09c8 00       		.sleb128 0
 2140 09c9 00       		.byte	0
 2141 09ca 00       		.byte	0
 2142 09cb 16       		.uleb128 0x16
 2143 09cc 1C020000 		.4byte	.LASF118
 2144 09d0 01       		.byte	0x1
 2145 09d1 3203     		.2byte	0x332
 2146 09d3 27010000 		.4byte	0x127
 2147 09d7 00000000 		.4byte	.LFB10
 2148 09db 5C000000 		.4byte	.LFE10-.LFB10
 2149 09df 01       		.uleb128 0x1
 2150 09e0 9C       		.byte	0x9c
 2151 09e1 A10A0000 		.4byte	0xaa1
 2152 09e5 17       		.uleb128 0x17
 2153 09e6 7000     		.ascii	"p\000"
 2154 09e8 01       		.byte	0x1
 2155 09e9 3203     		.2byte	0x332
 2156 09eb 93010000 		.4byte	0x193
 2157 09ef FA030000 		.4byte	.LLST18
 2158 09f3 17       		.uleb128 0x17
 2159 09f4 73726300 		.ascii	"src\000"
 2160 09f8 01       		.byte	0x1
 2161 09f9 3203     		.2byte	0x332
 2162 09fb EA020000 		.4byte	0x2ea
 2163 09ff 18040000 		.4byte	.LLST19
 2164 0a03 1F       		.uleb128 0x1f
ARM GAS  /tmp/ccegF7gt.s 			page 39


 2165 0a04 8B060000 		.4byte	.LASF59
 2166 0a08 01       		.byte	0x1
 2167 0a09 3203     		.2byte	0x332
 2168 0a0b EA020000 		.4byte	0x2ea
 2169 0a0f 36040000 		.4byte	.LLST20
 2170 0a13 17       		.uleb128 0x17
 2171 0a14 74746C00 		.ascii	"ttl\000"
 2172 0a18 01       		.byte	0x1
 2173 0a19 3303     		.2byte	0x333
 2174 0a1b F0000000 		.4byte	0xf0
 2175 0a1f 54040000 		.4byte	.LLST21
 2176 0a23 17       		.uleb128 0x17
 2177 0a24 746F7300 		.ascii	"tos\000"
 2178 0a28 01       		.byte	0x1
 2179 0a29 3303     		.2byte	0x333
 2180 0a2b F0000000 		.4byte	0xf0
 2181 0a2f 75040000 		.4byte	.LLST22
 2182 0a33 1F       		.uleb128 0x1f
 2183 0a34 DA020000 		.4byte	.LASF114
 2184 0a38 01       		.byte	0x1
 2185 0a39 3303     		.2byte	0x333
 2186 0a3b F0000000 		.4byte	0xf0
 2187 0a3f 95040000 		.4byte	.LLST23
 2188 0a43 19       		.uleb128 0x19
 2189 0a44 0C060000 		.4byte	.LASF39
 2190 0a48 01       		.byte	0x1
 2191 0a49 3503     		.2byte	0x335
 2192 0a4b E1010000 		.4byte	0x1e1
 2193 0a4f B5040000 		.4byte	.LLST24
 2194 0a53 1E       		.uleb128 0x1e
 2195 0a54 20000000 		.4byte	.LVL80
 2196 0a58 570C0000 		.4byte	0xc57
 2197 0a5c 1D       		.uleb128 0x1d
 2198 0a5d 26000000 		.4byte	.LVL81
 2199 0a61 36060000 		.4byte	0x636
 2200 0a65 700A0000 		.4byte	0xa70
 2201 0a69 1C       		.uleb128 0x1c
 2202 0a6a 01       		.uleb128 0x1
 2203 0a6b 50       		.byte	0x50
 2204 0a6c 02       		.uleb128 0x2
 2205 0a6d 75       		.byte	0x75
 2206 0a6e 00       		.sleb128 0
 2207 0a6f 00       		.byte	0
 2208 0a70 1B       		.uleb128 0x1b
 2209 0a71 3E000000 		.4byte	.LVL83
 2210 0a75 84080000 		.4byte	0x884
 2211 0a79 1C       		.uleb128 0x1c
 2212 0a7a 01       		.uleb128 0x1
 2213 0a7b 53       		.byte	0x53
 2214 0a7c 02       		.uleb128 0x2
 2215 0a7d 76       		.byte	0x76
 2216 0a7e 00       		.sleb128 0
 2217 0a7f 1C       		.uleb128 0x1c
 2218 0a80 01       		.uleb128 0x1
 2219 0a81 52       		.byte	0x52
 2220 0a82 02       		.uleb128 0x2
 2221 0a83 75       		.byte	0x75
ARM GAS  /tmp/ccegF7gt.s 			page 40


 2222 0a84 00       		.sleb128 0
 2223 0a85 1C       		.uleb128 0x1c
 2224 0a86 01       		.uleb128 0x1
 2225 0a87 51       		.byte	0x51
 2226 0a88 02       		.uleb128 0x2
 2227 0a89 77       		.byte	0x77
 2228 0a8a 00       		.sleb128 0
 2229 0a8b 1C       		.uleb128 0x1c
 2230 0a8c 01       		.uleb128 0x1
 2231 0a8d 50       		.byte	0x50
 2232 0a8e 02       		.uleb128 0x2
 2233 0a8f 74       		.byte	0x74
 2234 0a90 00       		.sleb128 0
 2235 0a91 1C       		.uleb128 0x1c
 2236 0a92 02       		.uleb128 0x2
 2237 0a93 7D       		.byte	0x7d
 2238 0a94 04       		.sleb128 4
 2239 0a95 02       		.uleb128 0x2
 2240 0a96 78       		.byte	0x78
 2241 0a97 00       		.sleb128 0
 2242 0a98 1C       		.uleb128 0x1c
 2243 0a99 02       		.uleb128 0x2
 2244 0a9a 7D       		.byte	0x7d
 2245 0a9b 00       		.sleb128 0
 2246 0a9c 02       		.uleb128 0x2
 2247 0a9d 79       		.byte	0x79
 2248 0a9e 00       		.sleb128 0
 2249 0a9f 00       		.byte	0
 2250 0aa0 00       		.byte	0
 2251 0aa1 21       		.uleb128 0x21
 2252 0aa2 AC030000 		.4byte	.LASF119
 2253 0aa6 01       		.byte	0x1
 2254 0aa7 70       		.byte	0x70
 2255 0aa8 06010000 		.4byte	0x106
 2256 0aac 05       		.uleb128 0x5
 2257 0aad 03       		.byte	0x3
 2258 0aae 00000000 		.4byte	ip_id
 2259 0ab2 22       		.uleb128 0x22
 2260 0ab3 6D010000 		.4byte	.LASF120
 2261 0ab7 08       		.byte	0x8
 2262 0ab8 FD       		.byte	0xfd
 2263 0ab9 E1010000 		.4byte	0x1e1
 2264 0abd 22       		.uleb128 0x22
 2265 0abe 83030000 		.4byte	.LASF121
 2266 0ac2 08       		.byte	0x8
 2267 0ac3 FF       		.byte	0xff
 2268 0ac4 E1010000 		.4byte	0x1e1
 2269 0ac8 23       		.uleb128 0x23
 2270 0ac9 B2030000 		.4byte	.LASF122
 2271 0acd 01       		.byte	0x1
 2272 0ace 64       		.byte	0x64
 2273 0acf E1010000 		.4byte	0x1e1
 2274 0ad3 05       		.uleb128 0x5
 2275 0ad4 03       		.byte	0x3
 2276 0ad5 00000000 		.4byte	current_netif
 2277 0ad9 23       		.uleb128 0x23
 2278 0ada 5B020000 		.4byte	.LASF123
ARM GAS  /tmp/ccegF7gt.s 			page 41


 2279 0ade 01       		.byte	0x1
 2280 0adf 69       		.byte	0x69
 2281 0ae0 EA0A0000 		.4byte	0xaea
 2282 0ae4 05       		.uleb128 0x5
 2283 0ae5 03       		.byte	0x3
 2284 0ae6 00000000 		.4byte	current_header
 2285 0aea 09       		.uleb128 0x9
 2286 0aeb 04       		.byte	0x4
 2287 0aec F00A0000 		.4byte	0xaf0
 2288 0af0 24       		.uleb128 0x24
 2289 0af1 35030000 		.4byte	0x335
 2290 0af5 23       		.uleb128 0x23
 2291 0af6 AF010000 		.4byte	.LASF124
 2292 0afa 01       		.byte	0x1
 2293 0afb 6B       		.byte	0x6b
 2294 0afc CB010000 		.4byte	0x1cb
 2295 0b00 05       		.uleb128 0x5
 2296 0b01 03       		.byte	0x3
 2297 0b02 00000000 		.4byte	current_iphdr_src
 2298 0b06 23       		.uleb128 0x23
 2299 0b07 4C060000 		.4byte	.LASF125
 2300 0b0b 01       		.byte	0x1
 2301 0b0c 6D       		.byte	0x6d
 2302 0b0d CB010000 		.4byte	0x1cb
 2303 0b11 05       		.uleb128 0x5
 2304 0b12 03       		.byte	0x3
 2305 0b13 00000000 		.4byte	current_iphdr_dest
 2306 0b17 22       		.uleb128 0x22
 2307 0b18 F2000000 		.4byte	.LASF126
 2308 0b1c 0B       		.byte	0xb
 2309 0b1d 95       		.byte	0x95
 2310 0b1e A0050000 		.4byte	0x5a0
 2311 0b22 25       		.uleb128 0x25
 2312 0b23 77020000 		.4byte	.LASF127
 2313 0b27 07       		.byte	0x7
 2314 0b28 CB       		.byte	0xcb
 2315 0b29 F0000000 		.4byte	0xf0
 2316 0b2d 3C0B0000 		.4byte	0xb3c
 2317 0b31 0B       		.uleb128 0xb
 2318 0b32 1C010000 		.4byte	0x11c
 2319 0b36 0B       		.uleb128 0xb
 2320 0b37 3C0B0000 		.4byte	0xb3c
 2321 0b3b 00       		.byte	0
 2322 0b3c 09       		.uleb128 0x9
 2323 0b3d 04       		.byte	0x4
 2324 0b3e 420B0000 		.4byte	0xb42
 2325 0b42 24       		.uleb128 0x24
 2326 0b43 E7010000 		.4byte	0x1e7
 2327 0b47 25       		.uleb128 0x25
 2328 0b48 00030000 		.4byte	.LASF128
 2329 0b4c 06       		.byte	0x6
 2330 0b4d 9B       		.byte	0x9b
 2331 0b4e F0000000 		.4byte	0xf0
 2332 0b52 5C0B0000 		.4byte	0xb5c
 2333 0b56 0B       		.uleb128 0xb
 2334 0b57 93010000 		.4byte	0x193
 2335 0b5b 00       		.byte	0
ARM GAS  /tmp/ccegF7gt.s 			page 42


 2336 0b5c 25       		.uleb128 0x25
 2337 0b5d C0030000 		.4byte	.LASF129
 2338 0b61 0C       		.byte	0xc
 2339 0b62 64       		.byte	0x64
 2340 0b63 06010000 		.4byte	0x106
 2341 0b67 710B0000 		.4byte	0xb71
 2342 0b6b 0B       		.uleb128 0xb
 2343 0b6c 06010000 		.4byte	0x106
 2344 0b70 00       		.byte	0
 2345 0b71 25       		.uleb128 0x25
 2346 0b72 F4020000 		.4byte	.LASF130
 2347 0b76 0D       		.byte	0xd
 2348 0b77 49       		.byte	0x49
 2349 0b78 06010000 		.4byte	0x106
 2350 0b7c 8B0B0000 		.4byte	0xb8b
 2351 0b80 0B       		.uleb128 0xb
 2352 0b81 E0000000 		.4byte	0xe0
 2353 0b85 0B       		.uleb128 0xb
 2354 0b86 06010000 		.4byte	0x106
 2355 0b8a 00       		.byte	0
 2356 0b8b 26       		.uleb128 0x26
 2357 0b8c A7020000 		.4byte	.LASF133
 2358 0b90 06       		.byte	0x6
 2359 0b91 98       		.byte	0x98
 2360 0b92 A10B0000 		.4byte	0xba1
 2361 0b96 0B       		.uleb128 0xb
 2362 0b97 93010000 		.4byte	0x193
 2363 0b9b 0B       		.uleb128 0xb
 2364 0b9c 06010000 		.4byte	0x106
 2365 0ba0 00       		.byte	0
 2366 0ba1 25       		.uleb128 0x25
 2367 0ba2 2C030000 		.4byte	.LASF131
 2368 0ba6 0E       		.byte	0xe
 2369 0ba7 41       		.byte	0x41
 2370 0ba8 93010000 		.4byte	0x193
 2371 0bac B60B0000 		.4byte	0xbb6
 2372 0bb0 0B       		.uleb128 0xb
 2373 0bb1 93010000 		.4byte	0x193
 2374 0bb5 00       		.byte	0
 2375 0bb6 25       		.uleb128 0x25
 2376 0bb7 79030000 		.4byte	.LASF132
 2377 0bbb 0F       		.byte	0xf
 2378 0bbc 59       		.byte	0x59
 2379 0bbd F0000000 		.4byte	0xf0
 2380 0bc1 D00B0000 		.4byte	0xbd0
 2381 0bc5 0B       		.uleb128 0xb
 2382 0bc6 93010000 		.4byte	0x193
 2383 0bca 0B       		.uleb128 0xb
 2384 0bcb E1010000 		.4byte	0x1e1
 2385 0bcf 00       		.byte	0
 2386 0bd0 26       		.uleb128 0x26
 2387 0bd1 9D010000 		.4byte	.LASF134
 2388 0bd5 10       		.byte	0x10
 2389 0bd6 66       		.byte	0x66
 2390 0bd7 E60B0000 		.4byte	0xbe6
 2391 0bdb 0B       		.uleb128 0xb
 2392 0bdc 93010000 		.4byte	0x193
ARM GAS  /tmp/ccegF7gt.s 			page 43


 2393 0be0 0B       		.uleb128 0xb
 2394 0be1 C5030000 		.4byte	0x3c5
 2395 0be5 00       		.byte	0
 2396 0be6 26       		.uleb128 0x26
 2397 0be7 90060000 		.4byte	.LASF135
 2398 0beb 11       		.byte	0x11
 2399 0bec 9B       		.byte	0x9b
 2400 0bed FC0B0000 		.4byte	0xbfc
 2401 0bf1 0B       		.uleb128 0xb
 2402 0bf2 93010000 		.4byte	0x193
 2403 0bf6 0B       		.uleb128 0xb
 2404 0bf7 E1010000 		.4byte	0x1e1
 2405 0bfb 00       		.byte	0
 2406 0bfc 26       		.uleb128 0x26
 2407 0bfd 36020000 		.4byte	.LASF136
 2408 0c01 12       		.byte	0x12
 2409 0c02 40       		.byte	0x40
 2410 0c03 120C0000 		.4byte	0xc12
 2411 0c07 0B       		.uleb128 0xb
 2412 0c08 93010000 		.4byte	0x193
 2413 0c0c 0B       		.uleb128 0xb
 2414 0c0d E1010000 		.4byte	0x1e1
 2415 0c11 00       		.byte	0
 2416 0c12 26       		.uleb128 0x26
 2417 0c13 FD000000 		.4byte	.LASF137
 2418 0c17 10       		.byte	0x10
 2419 0c18 65       		.byte	0x65
 2420 0c19 280C0000 		.4byte	0xc28
 2421 0c1d 0B       		.uleb128 0xb
 2422 0c1e 93010000 		.4byte	0x193
 2423 0c22 0B       		.uleb128 0xb
 2424 0c23 E1010000 		.4byte	0x1e1
 2425 0c27 00       		.byte	0
 2426 0c28 25       		.uleb128 0x25
 2427 0c29 8C020000 		.4byte	.LASF138
 2428 0c2d 06       		.byte	0x6
 2429 0c2e 99       		.byte	0x99
 2430 0c2f F0000000 		.4byte	0xf0
 2431 0c33 420C0000 		.4byte	0xc42
 2432 0c37 0B       		.uleb128 0xb
 2433 0c38 93010000 		.4byte	0x193
 2434 0c3c 0B       		.uleb128 0xb
 2435 0c3d 11010000 		.4byte	0x111
 2436 0c41 00       		.byte	0
 2437 0c42 25       		.uleb128 0x25
 2438 0c43 D8000000 		.4byte	.LASF139
 2439 0c47 0C       		.byte	0xc
 2440 0c48 63       		.byte	0x63
 2441 0c49 06010000 		.4byte	0x106
 2442 0c4d 570C0000 		.4byte	0xc57
 2443 0c51 0B       		.uleb128 0xb
 2444 0c52 06010000 		.4byte	0x106
 2445 0c56 00       		.byte	0
 2446 0c57 27       		.uleb128 0x27
 2447 0c58 DE050000 		.4byte	.LASF144
 2448 0c5c 14       		.byte	0x14
 2449 0c5d 0102     		.2byte	0x201
ARM GAS  /tmp/ccegF7gt.s 			page 44


 2450 0c5f 28       		.uleb128 0x28
 2451 0c60 55010000 		.4byte	.LASF104
 2452 0c64 0E       		.byte	0xe
 2453 0c65 51       		.byte	0x51
 2454 0c66 27010000 		.4byte	0x127
 2455 0c6a 0B       		.uleb128 0xb
 2456 0c6b 93010000 		.4byte	0x193
 2457 0c6f 0B       		.uleb128 0xb
 2458 0c70 E1010000 		.4byte	0x1e1
 2459 0c74 0B       		.uleb128 0xb
 2460 0c75 EA020000 		.4byte	0x2ea
 2461 0c79 00       		.byte	0
 2462 0c7a 00       		.byte	0
 2463              		.section	.debug_abbrev,"",%progbits
 2464              	.Ldebug_abbrev0:
 2465 0000 01       		.uleb128 0x1
 2466 0001 11       		.uleb128 0x11
 2467 0002 01       		.byte	0x1
 2468 0003 25       		.uleb128 0x25
 2469 0004 0E       		.uleb128 0xe
 2470 0005 13       		.uleb128 0x13
 2471 0006 0B       		.uleb128 0xb
 2472 0007 03       		.uleb128 0x3
 2473 0008 0E       		.uleb128 0xe
 2474 0009 1B       		.uleb128 0x1b
 2475 000a 0E       		.uleb128 0xe
 2476 000b 55       		.uleb128 0x55
 2477 000c 17       		.uleb128 0x17
 2478 000d 11       		.uleb128 0x11
 2479 000e 01       		.uleb128 0x1
 2480 000f 10       		.uleb128 0x10
 2481 0010 17       		.uleb128 0x17
 2482 0011 00       		.byte	0
 2483 0012 00       		.byte	0
 2484 0013 02       		.uleb128 0x2
 2485 0014 24       		.uleb128 0x24
 2486 0015 00       		.byte	0
 2487 0016 0B       		.uleb128 0xb
 2488 0017 0B       		.uleb128 0xb
 2489 0018 3E       		.uleb128 0x3e
 2490 0019 0B       		.uleb128 0xb
 2491 001a 03       		.uleb128 0x3
 2492 001b 08       		.uleb128 0x8
 2493 001c 00       		.byte	0
 2494 001d 00       		.byte	0
 2495 001e 03       		.uleb128 0x3
 2496 001f 24       		.uleb128 0x24
 2497 0020 00       		.byte	0
 2498 0021 0B       		.uleb128 0xb
 2499 0022 0B       		.uleb128 0xb
 2500 0023 3E       		.uleb128 0x3e
 2501 0024 0B       		.uleb128 0xb
 2502 0025 03       		.uleb128 0x3
 2503 0026 0E       		.uleb128 0xe
 2504 0027 00       		.byte	0
 2505 0028 00       		.byte	0
 2506 0029 04       		.uleb128 0x4
ARM GAS  /tmp/ccegF7gt.s 			page 45


 2507 002a 16       		.uleb128 0x16
 2508 002b 00       		.byte	0
 2509 002c 03       		.uleb128 0x3
 2510 002d 0E       		.uleb128 0xe
 2511 002e 3A       		.uleb128 0x3a
 2512 002f 0B       		.uleb128 0xb
 2513 0030 3B       		.uleb128 0x3b
 2514 0031 0B       		.uleb128 0xb
 2515 0032 49       		.uleb128 0x49
 2516 0033 13       		.uleb128 0x13
 2517 0034 00       		.byte	0
 2518 0035 00       		.byte	0
 2519 0036 05       		.uleb128 0x5
 2520 0037 0F       		.uleb128 0xf
 2521 0038 00       		.byte	0
 2522 0039 0B       		.uleb128 0xb
 2523 003a 0B       		.uleb128 0xb
 2524 003b 00       		.byte	0
 2525 003c 00       		.byte	0
 2526 003d 06       		.uleb128 0x6
 2527 003e 13       		.uleb128 0x13
 2528 003f 01       		.byte	0x1
 2529 0040 03       		.uleb128 0x3
 2530 0041 0E       		.uleb128 0xe
 2531 0042 0B       		.uleb128 0xb
 2532 0043 0B       		.uleb128 0xb
 2533 0044 3A       		.uleb128 0x3a
 2534 0045 0B       		.uleb128 0xb
 2535 0046 3B       		.uleb128 0x3b
 2536 0047 0B       		.uleb128 0xb
 2537 0048 01       		.uleb128 0x1
 2538 0049 13       		.uleb128 0x13
 2539 004a 00       		.byte	0
 2540 004b 00       		.byte	0
 2541 004c 07       		.uleb128 0x7
 2542 004d 0D       		.uleb128 0xd
 2543 004e 00       		.byte	0
 2544 004f 03       		.uleb128 0x3
 2545 0050 0E       		.uleb128 0xe
 2546 0051 3A       		.uleb128 0x3a
 2547 0052 0B       		.uleb128 0xb
 2548 0053 3B       		.uleb128 0x3b
 2549 0054 0B       		.uleb128 0xb
 2550 0055 49       		.uleb128 0x49
 2551 0056 13       		.uleb128 0x13
 2552 0057 38       		.uleb128 0x38
 2553 0058 0B       		.uleb128 0xb
 2554 0059 00       		.byte	0
 2555 005a 00       		.byte	0
 2556 005b 08       		.uleb128 0x8
 2557 005c 0D       		.uleb128 0xd
 2558 005d 00       		.byte	0
 2559 005e 03       		.uleb128 0x3
 2560 005f 08       		.uleb128 0x8
 2561 0060 3A       		.uleb128 0x3a
 2562 0061 0B       		.uleb128 0xb
 2563 0062 3B       		.uleb128 0x3b
ARM GAS  /tmp/ccegF7gt.s 			page 46


 2564 0063 0B       		.uleb128 0xb
 2565 0064 49       		.uleb128 0x49
 2566 0065 13       		.uleb128 0x13
 2567 0066 38       		.uleb128 0x38
 2568 0067 0B       		.uleb128 0xb
 2569 0068 00       		.byte	0
 2570 0069 00       		.byte	0
 2571 006a 09       		.uleb128 0x9
 2572 006b 0F       		.uleb128 0xf
 2573 006c 00       		.byte	0
 2574 006d 0B       		.uleb128 0xb
 2575 006e 0B       		.uleb128 0xb
 2576 006f 49       		.uleb128 0x49
 2577 0070 13       		.uleb128 0x13
 2578 0071 00       		.byte	0
 2579 0072 00       		.byte	0
 2580 0073 0A       		.uleb128 0xa
 2581 0074 15       		.uleb128 0x15
 2582 0075 01       		.byte	0x1
 2583 0076 27       		.uleb128 0x27
 2584 0077 19       		.uleb128 0x19
 2585 0078 49       		.uleb128 0x49
 2586 0079 13       		.uleb128 0x13
 2587 007a 01       		.uleb128 0x1
 2588 007b 13       		.uleb128 0x13
 2589 007c 00       		.byte	0
 2590 007d 00       		.byte	0
 2591 007e 0B       		.uleb128 0xb
 2592 007f 05       		.uleb128 0x5
 2593 0080 00       		.byte	0
 2594 0081 49       		.uleb128 0x49
 2595 0082 13       		.uleb128 0x13
 2596 0083 00       		.byte	0
 2597 0084 00       		.byte	0
 2598 0085 0C       		.uleb128 0xc
 2599 0086 01       		.uleb128 0x1
 2600 0087 01       		.byte	0x1
 2601 0088 49       		.uleb128 0x49
 2602 0089 13       		.uleb128 0x13
 2603 008a 01       		.uleb128 0x1
 2604 008b 13       		.uleb128 0x13
 2605 008c 00       		.byte	0
 2606 008d 00       		.byte	0
 2607 008e 0D       		.uleb128 0xd
 2608 008f 21       		.uleb128 0x21
 2609 0090 00       		.byte	0
 2610 0091 49       		.uleb128 0x49
 2611 0092 13       		.uleb128 0x13
 2612 0093 2F       		.uleb128 0x2f
 2613 0094 0B       		.uleb128 0xb
 2614 0095 00       		.byte	0
 2615 0096 00       		.byte	0
 2616 0097 0E       		.uleb128 0xe
 2617 0098 04       		.uleb128 0x4
 2618 0099 01       		.byte	0x1
 2619 009a 03       		.uleb128 0x3
 2620 009b 0E       		.uleb128 0xe
ARM GAS  /tmp/ccegF7gt.s 			page 47


 2621 009c 0B       		.uleb128 0xb
 2622 009d 0B       		.uleb128 0xb
 2623 009e 3A       		.uleb128 0x3a
 2624 009f 0B       		.uleb128 0xb
 2625 00a0 3B       		.uleb128 0x3b
 2626 00a1 0B       		.uleb128 0xb
 2627 00a2 01       		.uleb128 0x1
 2628 00a3 13       		.uleb128 0x13
 2629 00a4 00       		.byte	0
 2630 00a5 00       		.byte	0
 2631 00a6 0F       		.uleb128 0xf
 2632 00a7 28       		.uleb128 0x28
 2633 00a8 00       		.byte	0
 2634 00a9 03       		.uleb128 0x3
 2635 00aa 0E       		.uleb128 0xe
 2636 00ab 1C       		.uleb128 0x1c
 2637 00ac 0D       		.uleb128 0xd
 2638 00ad 00       		.byte	0
 2639 00ae 00       		.byte	0
 2640 00af 10       		.uleb128 0x10
 2641 00b0 04       		.uleb128 0x4
 2642 00b1 01       		.byte	0x1
 2643 00b2 0B       		.uleb128 0xb
 2644 00b3 0B       		.uleb128 0xb
 2645 00b4 3A       		.uleb128 0x3a
 2646 00b5 0B       		.uleb128 0xb
 2647 00b6 3B       		.uleb128 0x3b
 2648 00b7 0B       		.uleb128 0xb
 2649 00b8 01       		.uleb128 0x1
 2650 00b9 13       		.uleb128 0x13
 2651 00ba 00       		.byte	0
 2652 00bb 00       		.byte	0
 2653 00bc 11       		.uleb128 0x11
 2654 00bd 13       		.uleb128 0x13
 2655 00be 01       		.byte	0x1
 2656 00bf 03       		.uleb128 0x3
 2657 00c0 0E       		.uleb128 0xe
 2658 00c1 0B       		.uleb128 0xb
 2659 00c2 05       		.uleb128 0x5
 2660 00c3 3A       		.uleb128 0x3a
 2661 00c4 0B       		.uleb128 0xb
 2662 00c5 3B       		.uleb128 0x3b
 2663 00c6 0B       		.uleb128 0xb
 2664 00c7 01       		.uleb128 0x1
 2665 00c8 13       		.uleb128 0x13
 2666 00c9 00       		.byte	0
 2667 00ca 00       		.byte	0
 2668 00cb 12       		.uleb128 0x12
 2669 00cc 0D       		.uleb128 0xd
 2670 00cd 00       		.byte	0
 2671 00ce 03       		.uleb128 0x3
 2672 00cf 08       		.uleb128 0x8
 2673 00d0 3A       		.uleb128 0x3a
 2674 00d1 0B       		.uleb128 0xb
 2675 00d2 3B       		.uleb128 0x3b
 2676 00d3 0B       		.uleb128 0xb
 2677 00d4 49       		.uleb128 0x49
ARM GAS  /tmp/ccegF7gt.s 			page 48


 2678 00d5 13       		.uleb128 0x13
 2679 00d6 38       		.uleb128 0x38
 2680 00d7 05       		.uleb128 0x5
 2681 00d8 00       		.byte	0
 2682 00d9 00       		.byte	0
 2683 00da 13       		.uleb128 0x13
 2684 00db 2E       		.uleb128 0x2e
 2685 00dc 01       		.byte	0x1
 2686 00dd 3F       		.uleb128 0x3f
 2687 00de 19       		.uleb128 0x19
 2688 00df 03       		.uleb128 0x3
 2689 00e0 0E       		.uleb128 0xe
 2690 00e1 3A       		.uleb128 0x3a
 2691 00e2 0B       		.uleb128 0xb
 2692 00e3 3B       		.uleb128 0x3b
 2693 00e4 0B       		.uleb128 0xb
 2694 00e5 27       		.uleb128 0x27
 2695 00e6 19       		.uleb128 0x19
 2696 00e7 49       		.uleb128 0x49
 2697 00e8 13       		.uleb128 0x13
 2698 00e9 11       		.uleb128 0x11
 2699 00ea 01       		.uleb128 0x1
 2700 00eb 12       		.uleb128 0x12
 2701 00ec 06       		.uleb128 0x6
 2702 00ed 40       		.uleb128 0x40
 2703 00ee 18       		.uleb128 0x18
 2704 00ef 9742     		.uleb128 0x2117
 2705 00f1 19       		.uleb128 0x19
 2706 00f2 01       		.uleb128 0x1
 2707 00f3 13       		.uleb128 0x13
 2708 00f4 00       		.byte	0
 2709 00f5 00       		.byte	0
 2710 00f6 14       		.uleb128 0x14
 2711 00f7 05       		.uleb128 0x5
 2712 00f8 00       		.byte	0
 2713 00f9 03       		.uleb128 0x3
 2714 00fa 0E       		.uleb128 0xe
 2715 00fb 3A       		.uleb128 0x3a
 2716 00fc 0B       		.uleb128 0xb
 2717 00fd 3B       		.uleb128 0x3b
 2718 00fe 0B       		.uleb128 0xb
 2719 00ff 49       		.uleb128 0x49
 2720 0100 13       		.uleb128 0x13
 2721 0101 02       		.uleb128 0x2
 2722 0102 17       		.uleb128 0x17
 2723 0103 00       		.byte	0
 2724 0104 00       		.byte	0
 2725 0105 15       		.uleb128 0x15
 2726 0106 34       		.uleb128 0x34
 2727 0107 00       		.byte	0
 2728 0108 03       		.uleb128 0x3
 2729 0109 0E       		.uleb128 0xe
 2730 010a 3A       		.uleb128 0x3a
 2731 010b 0B       		.uleb128 0xb
 2732 010c 3B       		.uleb128 0x3b
 2733 010d 0B       		.uleb128 0xb
 2734 010e 49       		.uleb128 0x49
ARM GAS  /tmp/ccegF7gt.s 			page 49


 2735 010f 13       		.uleb128 0x13
 2736 0110 02       		.uleb128 0x2
 2737 0111 17       		.uleb128 0x17
 2738 0112 00       		.byte	0
 2739 0113 00       		.byte	0
 2740 0114 16       		.uleb128 0x16
 2741 0115 2E       		.uleb128 0x2e
 2742 0116 01       		.byte	0x1
 2743 0117 3F       		.uleb128 0x3f
 2744 0118 19       		.uleb128 0x19
 2745 0119 03       		.uleb128 0x3
 2746 011a 0E       		.uleb128 0xe
 2747 011b 3A       		.uleb128 0x3a
 2748 011c 0B       		.uleb128 0xb
 2749 011d 3B       		.uleb128 0x3b
 2750 011e 05       		.uleb128 0x5
 2751 011f 27       		.uleb128 0x27
 2752 0120 19       		.uleb128 0x19
 2753 0121 49       		.uleb128 0x49
 2754 0122 13       		.uleb128 0x13
 2755 0123 11       		.uleb128 0x11
 2756 0124 01       		.uleb128 0x1
 2757 0125 12       		.uleb128 0x12
 2758 0126 06       		.uleb128 0x6
 2759 0127 40       		.uleb128 0x40
 2760 0128 18       		.uleb128 0x18
 2761 0129 9742     		.uleb128 0x2117
 2762 012b 19       		.uleb128 0x19
 2763 012c 01       		.uleb128 0x1
 2764 012d 13       		.uleb128 0x13
 2765 012e 00       		.byte	0
 2766 012f 00       		.byte	0
 2767 0130 17       		.uleb128 0x17
 2768 0131 05       		.uleb128 0x5
 2769 0132 00       		.byte	0
 2770 0133 03       		.uleb128 0x3
 2771 0134 08       		.uleb128 0x8
 2772 0135 3A       		.uleb128 0x3a
 2773 0136 0B       		.uleb128 0xb
 2774 0137 3B       		.uleb128 0x3b
 2775 0138 05       		.uleb128 0x5
 2776 0139 49       		.uleb128 0x49
 2777 013a 13       		.uleb128 0x13
 2778 013b 02       		.uleb128 0x2
 2779 013c 17       		.uleb128 0x17
 2780 013d 00       		.byte	0
 2781 013e 00       		.byte	0
 2782 013f 18       		.uleb128 0x18
 2783 0140 34       		.uleb128 0x34
 2784 0141 00       		.byte	0
 2785 0142 03       		.uleb128 0x3
 2786 0143 0E       		.uleb128 0xe
 2787 0144 3A       		.uleb128 0x3a
 2788 0145 0B       		.uleb128 0xb
 2789 0146 3B       		.uleb128 0x3b
 2790 0147 05       		.uleb128 0x5
 2791 0148 49       		.uleb128 0x49
ARM GAS  /tmp/ccegF7gt.s 			page 50


 2792 0149 13       		.uleb128 0x13
 2793 014a 02       		.uleb128 0x2
 2794 014b 18       		.uleb128 0x18
 2795 014c 00       		.byte	0
 2796 014d 00       		.byte	0
 2797 014e 19       		.uleb128 0x19
 2798 014f 34       		.uleb128 0x34
 2799 0150 00       		.byte	0
 2800 0151 03       		.uleb128 0x3
 2801 0152 0E       		.uleb128 0xe
 2802 0153 3A       		.uleb128 0x3a
 2803 0154 0B       		.uleb128 0xb
 2804 0155 3B       		.uleb128 0x3b
 2805 0156 05       		.uleb128 0x5
 2806 0157 49       		.uleb128 0x49
 2807 0158 13       		.uleb128 0x13
 2808 0159 02       		.uleb128 0x2
 2809 015a 17       		.uleb128 0x17
 2810 015b 00       		.byte	0
 2811 015c 00       		.byte	0
 2812 015d 1A       		.uleb128 0x1a
 2813 015e 0B       		.uleb128 0xb
 2814 015f 01       		.byte	0x1
 2815 0160 55       		.uleb128 0x55
 2816 0161 17       		.uleb128 0x17
 2817 0162 01       		.uleb128 0x1
 2818 0163 13       		.uleb128 0x13
 2819 0164 00       		.byte	0
 2820 0165 00       		.byte	0
 2821 0166 1B       		.uleb128 0x1b
 2822 0167 898201   		.uleb128 0x4109
 2823 016a 01       		.byte	0x1
 2824 016b 11       		.uleb128 0x11
 2825 016c 01       		.uleb128 0x1
 2826 016d 31       		.uleb128 0x31
 2827 016e 13       		.uleb128 0x13
 2828 016f 00       		.byte	0
 2829 0170 00       		.byte	0
 2830 0171 1C       		.uleb128 0x1c
 2831 0172 8A8201   		.uleb128 0x410a
 2832 0175 00       		.byte	0
 2833 0176 02       		.uleb128 0x2
 2834 0177 18       		.uleb128 0x18
 2835 0178 9142     		.uleb128 0x2111
 2836 017a 18       		.uleb128 0x18
 2837 017b 00       		.byte	0
 2838 017c 00       		.byte	0
 2839 017d 1D       		.uleb128 0x1d
 2840 017e 898201   		.uleb128 0x4109
 2841 0181 01       		.byte	0x1
 2842 0182 11       		.uleb128 0x11
 2843 0183 01       		.uleb128 0x1
 2844 0184 31       		.uleb128 0x31
 2845 0185 13       		.uleb128 0x13
 2846 0186 01       		.uleb128 0x1
 2847 0187 13       		.uleb128 0x13
 2848 0188 00       		.byte	0
ARM GAS  /tmp/ccegF7gt.s 			page 51


 2849 0189 00       		.byte	0
 2850 018a 1E       		.uleb128 0x1e
 2851 018b 898201   		.uleb128 0x4109
 2852 018e 00       		.byte	0
 2853 018f 11       		.uleb128 0x11
 2854 0190 01       		.uleb128 0x1
 2855 0191 31       		.uleb128 0x31
 2856 0192 13       		.uleb128 0x13
 2857 0193 00       		.byte	0
 2858 0194 00       		.byte	0
 2859 0195 1F       		.uleb128 0x1f
 2860 0196 05       		.uleb128 0x5
 2861 0197 00       		.byte	0
 2862 0198 03       		.uleb128 0x3
 2863 0199 0E       		.uleb128 0xe
 2864 019a 3A       		.uleb128 0x3a
 2865 019b 0B       		.uleb128 0xb
 2866 019c 3B       		.uleb128 0x3b
 2867 019d 05       		.uleb128 0x5
 2868 019e 49       		.uleb128 0x49
 2869 019f 13       		.uleb128 0x13
 2870 01a0 02       		.uleb128 0x2
 2871 01a1 17       		.uleb128 0x17
 2872 01a2 00       		.byte	0
 2873 01a3 00       		.byte	0
 2874 01a4 20       		.uleb128 0x20
 2875 01a5 898201   		.uleb128 0x4109
 2876 01a8 01       		.byte	0x1
 2877 01a9 11       		.uleb128 0x11
 2878 01aa 01       		.uleb128 0x1
 2879 01ab 01       		.uleb128 0x1
 2880 01ac 13       		.uleb128 0x13
 2881 01ad 00       		.byte	0
 2882 01ae 00       		.byte	0
 2883 01af 21       		.uleb128 0x21
 2884 01b0 34       		.uleb128 0x34
 2885 01b1 00       		.byte	0
 2886 01b2 03       		.uleb128 0x3
 2887 01b3 0E       		.uleb128 0xe
 2888 01b4 3A       		.uleb128 0x3a
 2889 01b5 0B       		.uleb128 0xb
 2890 01b6 3B       		.uleb128 0x3b
 2891 01b7 0B       		.uleb128 0xb
 2892 01b8 49       		.uleb128 0x49
 2893 01b9 13       		.uleb128 0x13
 2894 01ba 02       		.uleb128 0x2
 2895 01bb 18       		.uleb128 0x18
 2896 01bc 00       		.byte	0
 2897 01bd 00       		.byte	0
 2898 01be 22       		.uleb128 0x22
 2899 01bf 34       		.uleb128 0x34
 2900 01c0 00       		.byte	0
 2901 01c1 03       		.uleb128 0x3
 2902 01c2 0E       		.uleb128 0xe
 2903 01c3 3A       		.uleb128 0x3a
 2904 01c4 0B       		.uleb128 0xb
 2905 01c5 3B       		.uleb128 0x3b
ARM GAS  /tmp/ccegF7gt.s 			page 52


 2906 01c6 0B       		.uleb128 0xb
 2907 01c7 49       		.uleb128 0x49
 2908 01c8 13       		.uleb128 0x13
 2909 01c9 3F       		.uleb128 0x3f
 2910 01ca 19       		.uleb128 0x19
 2911 01cb 3C       		.uleb128 0x3c
 2912 01cc 19       		.uleb128 0x19
 2913 01cd 00       		.byte	0
 2914 01ce 00       		.byte	0
 2915 01cf 23       		.uleb128 0x23
 2916 01d0 34       		.uleb128 0x34
 2917 01d1 00       		.byte	0
 2918 01d2 03       		.uleb128 0x3
 2919 01d3 0E       		.uleb128 0xe
 2920 01d4 3A       		.uleb128 0x3a
 2921 01d5 0B       		.uleb128 0xb
 2922 01d6 3B       		.uleb128 0x3b
 2923 01d7 0B       		.uleb128 0xb
 2924 01d8 49       		.uleb128 0x49
 2925 01d9 13       		.uleb128 0x13
 2926 01da 3F       		.uleb128 0x3f
 2927 01db 19       		.uleb128 0x19
 2928 01dc 02       		.uleb128 0x2
 2929 01dd 18       		.uleb128 0x18
 2930 01de 00       		.byte	0
 2931 01df 00       		.byte	0
 2932 01e0 24       		.uleb128 0x24
 2933 01e1 26       		.uleb128 0x26
 2934 01e2 00       		.byte	0
 2935 01e3 49       		.uleb128 0x49
 2936 01e4 13       		.uleb128 0x13
 2937 01e5 00       		.byte	0
 2938 01e6 00       		.byte	0
 2939 01e7 25       		.uleb128 0x25
 2940 01e8 2E       		.uleb128 0x2e
 2941 01e9 01       		.byte	0x1
 2942 01ea 3F       		.uleb128 0x3f
 2943 01eb 19       		.uleb128 0x19
 2944 01ec 03       		.uleb128 0x3
 2945 01ed 0E       		.uleb128 0xe
 2946 01ee 3A       		.uleb128 0x3a
 2947 01ef 0B       		.uleb128 0xb
 2948 01f0 3B       		.uleb128 0x3b
 2949 01f1 0B       		.uleb128 0xb
 2950 01f2 27       		.uleb128 0x27
 2951 01f3 19       		.uleb128 0x19
 2952 01f4 49       		.uleb128 0x49
 2953 01f5 13       		.uleb128 0x13
 2954 01f6 3C       		.uleb128 0x3c
 2955 01f7 19       		.uleb128 0x19
 2956 01f8 01       		.uleb128 0x1
 2957 01f9 13       		.uleb128 0x13
 2958 01fa 00       		.byte	0
 2959 01fb 00       		.byte	0
 2960 01fc 26       		.uleb128 0x26
 2961 01fd 2E       		.uleb128 0x2e
 2962 01fe 01       		.byte	0x1
ARM GAS  /tmp/ccegF7gt.s 			page 53


 2963 01ff 3F       		.uleb128 0x3f
 2964 0200 19       		.uleb128 0x19
 2965 0201 03       		.uleb128 0x3
 2966 0202 0E       		.uleb128 0xe
 2967 0203 3A       		.uleb128 0x3a
 2968 0204 0B       		.uleb128 0xb
 2969 0205 3B       		.uleb128 0x3b
 2970 0206 0B       		.uleb128 0xb
 2971 0207 27       		.uleb128 0x27
 2972 0208 19       		.uleb128 0x19
 2973 0209 3C       		.uleb128 0x3c
 2974 020a 19       		.uleb128 0x19
 2975 020b 01       		.uleb128 0x1
 2976 020c 13       		.uleb128 0x13
 2977 020d 00       		.byte	0
 2978 020e 00       		.byte	0
 2979 020f 27       		.uleb128 0x27
 2980 0210 2E       		.uleb128 0x2e
 2981 0211 00       		.byte	0
 2982 0212 3F       		.uleb128 0x3f
 2983 0213 19       		.uleb128 0x19
 2984 0214 03       		.uleb128 0x3
 2985 0215 0E       		.uleb128 0xe
 2986 0216 3A       		.uleb128 0x3a
 2987 0217 0B       		.uleb128 0xb
 2988 0218 3B       		.uleb128 0x3b
 2989 0219 05       		.uleb128 0x5
 2990 021a 27       		.uleb128 0x27
 2991 021b 19       		.uleb128 0x19
 2992 021c 3C       		.uleb128 0x3c
 2993 021d 19       		.uleb128 0x19
 2994 021e 00       		.byte	0
 2995 021f 00       		.byte	0
 2996 0220 28       		.uleb128 0x28
 2997 0221 2E       		.uleb128 0x2e
 2998 0222 01       		.byte	0x1
 2999 0223 3F       		.uleb128 0x3f
 3000 0224 19       		.uleb128 0x19
 3001 0225 03       		.uleb128 0x3
 3002 0226 0E       		.uleb128 0xe
 3003 0227 3A       		.uleb128 0x3a
 3004 0228 0B       		.uleb128 0xb
 3005 0229 3B       		.uleb128 0x3b
 3006 022a 0B       		.uleb128 0xb
 3007 022b 27       		.uleb128 0x27
 3008 022c 19       		.uleb128 0x19
 3009 022d 49       		.uleb128 0x49
 3010 022e 13       		.uleb128 0x13
 3011 022f 3C       		.uleb128 0x3c
 3012 0230 19       		.uleb128 0x19
 3013 0231 00       		.byte	0
 3014 0232 00       		.byte	0
 3015 0233 00       		.byte	0
 3016              		.section	.debug_loc,"",%progbits
 3017              	.Ldebug_loc0:
 3018              	.LLST0:
 3019 0000 00000000 		.4byte	.LVL0
ARM GAS  /tmp/ccegF7gt.s 			page 54


 3020 0004 24000000 		.4byte	.LVL3
 3021 0008 0100     		.2byte	0x1
 3022 000a 50       		.byte	0x50
 3023 000b 24000000 		.4byte	.LVL3
 3024 000f 2A000000 		.4byte	.LVL4
 3025 0013 0400     		.2byte	0x4
 3026 0015 F3       		.byte	0xf3
 3027 0016 01       		.uleb128 0x1
 3028 0017 50       		.byte	0x50
 3029 0018 9F       		.byte	0x9f
 3030 0019 2A000000 		.4byte	.LVL4
 3031 001d 48000000 		.4byte	.LVL6
 3032 0021 0100     		.2byte	0x1
 3033 0023 50       		.byte	0x50
 3034 0024 48000000 		.4byte	.LVL6
 3035 0028 54000000 		.4byte	.LFE7
 3036 002c 0400     		.2byte	0x4
 3037 002e F3       		.byte	0xf3
 3038 002f 01       		.uleb128 0x1
 3039 0030 50       		.byte	0x50
 3040 0031 9F       		.byte	0x9f
 3041 0032 00000000 		.4byte	0
 3042 0036 00000000 		.4byte	0
 3043              	.LLST1:
 3044 003a 0C000000 		.4byte	.LVL1
 3045 003e 22000000 		.4byte	.LVL2
 3046 0042 0100     		.2byte	0x1
 3047 0044 53       		.byte	0x53
 3048 0045 2A000000 		.4byte	.LVL4
 3049 0049 2E000000 		.4byte	.LVL5
 3050 004d 0100     		.2byte	0x1
 3051 004f 53       		.byte	0x53
 3052 0050 00000000 		.4byte	0
 3053 0054 00000000 		.4byte	0
 3054              	.LLST2:
 3055 0058 00000000 		.4byte	.LVL7
 3056 005c 2D000000 		.4byte	.LVL9-1
 3057 0060 0100     		.2byte	0x1
 3058 0062 50       		.byte	0x50
 3059 0063 2D000000 		.4byte	.LVL9-1
 3060 0067 4A000000 		.4byte	.LVL11
 3061 006b 0100     		.2byte	0x1
 3062 006d 57       		.byte	0x57
 3063 006e 4A000000 		.4byte	.LVL11
 3064 0072 52000000 		.4byte	.LVL13
 3065 0076 0100     		.2byte	0x1
 3066 0078 50       		.byte	0x50
 3067 0079 52000000 		.4byte	.LVL13
 3068 007d 34010000 		.4byte	.LVL32
 3069 0081 0100     		.2byte	0x1
 3070 0083 57       		.byte	0x57
 3071 0084 34010000 		.4byte	.LVL32
 3072 0088 3E010000 		.4byte	.LVL33
 3073 008c 0100     		.2byte	0x1
 3074 008e 50       		.byte	0x50
 3075 008f 3E010000 		.4byte	.LVL33
 3076 0093 1E020000 		.4byte	.LFE8
ARM GAS  /tmp/ccegF7gt.s 			page 55


 3077 0097 0100     		.2byte	0x1
 3078 0099 57       		.byte	0x57
 3079 009a 00000000 		.4byte	0
 3080 009e 00000000 		.4byte	0
 3081              	.LLST3:
 3082 00a2 00000000 		.4byte	.LVL7
 3083 00a6 2D000000 		.4byte	.LVL9-1
 3084 00aa 0100     		.2byte	0x1
 3085 00ac 51       		.byte	0x51
 3086 00ad 2D000000 		.4byte	.LVL9-1
 3087 00b1 42000000 		.4byte	.LVL10
 3088 00b5 0100     		.2byte	0x1
 3089 00b7 58       		.byte	0x58
 3090 00b8 42000000 		.4byte	.LVL10
 3091 00bc 4A000000 		.4byte	.LVL11
 3092 00c0 0400     		.2byte	0x4
 3093 00c2 F3       		.byte	0xf3
 3094 00c3 01       		.uleb128 0x1
 3095 00c4 51       		.byte	0x51
 3096 00c5 9F       		.byte	0x9f
 3097 00c6 4A000000 		.4byte	.LVL11
 3098 00ca 57000000 		.4byte	.LVL15-1
 3099 00ce 0100     		.2byte	0x1
 3100 00d0 51       		.byte	0x51
 3101 00d1 57000000 		.4byte	.LVL15-1
 3102 00d5 7A010000 		.4byte	.LVL36
 3103 00d9 0100     		.2byte	0x1
 3104 00db 58       		.byte	0x58
 3105 00dc 7A010000 		.4byte	.LVL36
 3106 00e0 81010000 		.4byte	.LVL37-1
 3107 00e4 0100     		.2byte	0x1
 3108 00e6 51       		.byte	0x51
 3109 00e7 81010000 		.4byte	.LVL37-1
 3110 00eb C6010000 		.4byte	.LVL40
 3111 00ef 0400     		.2byte	0x4
 3112 00f1 F3       		.byte	0xf3
 3113 00f2 01       		.uleb128 0x1
 3114 00f3 51       		.byte	0x51
 3115 00f4 9F       		.byte	0x9f
 3116 00f5 C6010000 		.4byte	.LVL40
 3117 00f9 1E020000 		.4byte	.LFE8
 3118 00fd 0100     		.2byte	0x1
 3119 00ff 58       		.byte	0x58
 3120 0100 00000000 		.4byte	0
 3121 0104 00000000 		.4byte	0
 3122              	.LLST4:
 3123 0108 C6000000 		.4byte	.LVL23
 3124 010c CE000000 		.4byte	.LVL25
 3125 0110 0100     		.2byte	0x1
 3126 0112 58       		.byte	0x58
 3127 0113 CE000000 		.4byte	.LVL25
 3128 0117 46010000 		.4byte	.LVL34
 3129 011b 0100     		.2byte	0x1
 3130 011d 54       		.byte	0x54
 3131 011e C6010000 		.4byte	.LVL40
 3132 0122 DC010000 		.4byte	.LVL44
 3133 0126 0100     		.2byte	0x1
ARM GAS  /tmp/ccegF7gt.s 			page 56


 3134 0128 54       		.byte	0x54
 3135 0129 16020000 		.4byte	.LVL50
 3136 012d 1E020000 		.4byte	.LFE8
 3137 0131 0100     		.2byte	0x1
 3138 0133 54       		.byte	0x54
 3139 0134 00000000 		.4byte	0
 3140 0138 00000000 		.4byte	0
 3141              	.LLST5:
 3142 013c 4E000000 		.4byte	.LVL12
 3143 0140 54000000 		.4byte	.LVL14
 3144 0144 0100     		.2byte	0x1
 3145 0146 53       		.byte	0x53
 3146 0147 54000000 		.4byte	.LVL14
 3147 014b CC000000 		.4byte	.LVL24
 3148 014f 0100     		.2byte	0x1
 3149 0151 54       		.byte	0x54
 3150 0152 DC010000 		.4byte	.LVL44
 3151 0156 F8010000 		.4byte	.LVL46
 3152 015a 0100     		.2byte	0x1
 3153 015c 54       		.byte	0x54
 3154 015d 00000000 		.4byte	0
 3155 0161 00000000 		.4byte	0
 3156              	.LLST6:
 3157 0165 5E000000 		.4byte	.LVL16
 3158 0169 68000000 		.4byte	.LVL17
 3159 016d 0100     		.2byte	0x1
 3160 016f 50       		.byte	0x50
 3161 0170 68000000 		.4byte	.LVL17
 3162 0174 88000000 		.4byte	.LVL19
 3163 0178 0100     		.2byte	0x1
 3164 017a 56       		.byte	0x56
 3165 017b 88000000 		.4byte	.LVL19
 3166 017f 8C000000 		.4byte	.LVL20
 3167 0183 0100     		.2byte	0x1
 3168 0185 50       		.byte	0x50
 3169 0186 8C000000 		.4byte	.LVL20
 3170 018a CE000000 		.4byte	.LVL25
 3171 018e 0100     		.2byte	0x1
 3172 0190 56       		.byte	0x56
 3173 0191 DC010000 		.4byte	.LVL44
 3174 0195 F8010000 		.4byte	.LVL46
 3175 0199 0100     		.2byte	0x1
 3176 019b 56       		.byte	0x56
 3177 019c 00000000 		.4byte	0
 3178 01a0 00000000 		.4byte	0
 3179              	.LLST7:
 3180 01a4 C6000000 		.4byte	.LVL23
 3181 01a8 CE000000 		.4byte	.LVL25
 3182 01ac 0200     		.2byte	0x2
 3183 01ae 31       		.byte	0x31
 3184 01af 9F       		.byte	0x9f
 3185 01b0 CE000000 		.4byte	.LVL25
 3186 01b4 EE000000 		.4byte	.LVL27
 3187 01b8 0100     		.2byte	0x1
 3188 01ba 56       		.byte	0x56
 3189 01bb EE000000 		.4byte	.LVL27
 3190 01bf FE000000 		.4byte	.LVL30
ARM GAS  /tmp/ccegF7gt.s 			page 57


 3191 01c3 0200     		.2byte	0x2
 3192 01c5 30       		.byte	0x30
 3193 01c6 9F       		.byte	0x9f
 3194 01c7 C6010000 		.4byte	.LVL40
 3195 01cb CA010000 		.4byte	.LVL42
 3196 01cf 0100     		.2byte	0x1
 3197 01d1 56       		.byte	0x56
 3198 01d2 00000000 		.4byte	0
 3199 01d6 00000000 		.4byte	0
 3200              	.LLST8:
 3201 01da 00000000 		.4byte	.LVL52
 3202 01de 21000000 		.4byte	.LVL54-1
 3203 01e2 0100     		.2byte	0x1
 3204 01e4 50       		.byte	0x50
 3205 01e5 21000000 		.4byte	.LVL54-1
 3206 01e9 30010000 		.4byte	.LFE9
 3207 01ed 0100     		.2byte	0x1
 3208 01ef 55       		.byte	0x55
 3209 01f0 00000000 		.4byte	0
 3210 01f4 00000000 		.4byte	0
 3211              	.LLST9:
 3212 01f8 00000000 		.4byte	.LVL52
 3213 01fc 0C000000 		.4byte	.LVL53
 3214 0200 0100     		.2byte	0x1
 3215 0202 51       		.byte	0x51
 3216 0203 0C000000 		.4byte	.LVL53
 3217 0207 30010000 		.4byte	.LFE9
 3218 020b 0200     		.2byte	0x2
 3219 020d 91       		.byte	0x91
 3220 020e 4C       		.sleb128 -52
 3221 020f 00000000 		.4byte	0
 3222 0213 00000000 		.4byte	0
 3223              	.LLST10:
 3224 0217 00000000 		.4byte	.LVL52
 3225 021b 21000000 		.4byte	.LVL54-1
 3226 021f 0100     		.2byte	0x1
 3227 0221 52       		.byte	0x52
 3228 0222 21000000 		.4byte	.LVL54-1
 3229 0226 FA000000 		.4byte	.LVL71
 3230 022a 0100     		.2byte	0x1
 3231 022c 56       		.byte	0x56
 3232 022d FA000000 		.4byte	.LVL71
 3233 0231 00010000 		.4byte	.LVL72
 3234 0235 0400     		.2byte	0x4
 3235 0237 F3       		.byte	0xf3
 3236 0238 01       		.uleb128 0x1
 3237 0239 52       		.byte	0x52
 3238 023a 9F       		.byte	0x9f
 3239 023b 00010000 		.4byte	.LVL72
 3240 023f 02010000 		.4byte	.LVL73
 3241 0243 0300     		.2byte	0x3
 3242 0245 91       		.byte	0x91
 3243 0246 54       		.sleb128 -44
 3244 0247 9F       		.byte	0x9f
 3245 0248 02010000 		.4byte	.LVL73
 3246 024c 30010000 		.4byte	.LFE9
 3247 0250 0100     		.2byte	0x1
ARM GAS  /tmp/ccegF7gt.s 			page 58


 3248 0252 56       		.byte	0x56
 3249 0253 00000000 		.4byte	0
 3250 0257 00000000 		.4byte	0
 3251              	.LLST11:
 3252 025b 00000000 		.4byte	.LVL52
 3253 025f 21000000 		.4byte	.LVL54-1
 3254 0263 0100     		.2byte	0x1
 3255 0265 53       		.byte	0x53
 3256 0266 21000000 		.4byte	.LVL54-1
 3257 026a 30010000 		.4byte	.LFE9
 3258 026e 0400     		.2byte	0x4
 3259 0270 F3       		.byte	0xf3
 3260 0271 01       		.uleb128 0x1
 3261 0272 53       		.byte	0x53
 3262 0273 9F       		.byte	0x9f
 3263 0274 00000000 		.4byte	0
 3264 0278 00000000 		.4byte	0
 3265              	.LLST12:
 3266 027c 00000000 		.4byte	.LVL52
 3267 0280 F2000000 		.4byte	.LVL69
 3268 0284 0200     		.2byte	0x2
 3269 0286 91       		.byte	0x91
 3270 0287 00       		.sleb128 0
 3271 0288 F2000000 		.4byte	.LVL69
 3272 028c 30010000 		.4byte	.LFE9
 3273 0290 0200     		.2byte	0x2
 3274 0292 91       		.byte	0x91
 3275 0293 00       		.sleb128 0
 3276 0294 00000000 		.4byte	0
 3277 0298 00000000 		.4byte	0
 3278              	.LLST13:
 3279 029c 00000000 		.4byte	.LVL52
 3280 02a0 F2000000 		.4byte	.LVL69
 3281 02a4 0200     		.2byte	0x2
 3282 02a6 91       		.byte	0x91
 3283 02a7 04       		.sleb128 4
 3284 02a8 F2000000 		.4byte	.LVL69
 3285 02ac 30010000 		.4byte	.LFE9
 3286 02b0 0200     		.2byte	0x2
 3287 02b2 91       		.byte	0x91
 3288 02b3 04       		.sleb128 4
 3289 02b4 00000000 		.4byte	0
 3290 02b8 00000000 		.4byte	0
 3291              	.LLST14:
 3292 02bc 00000000 		.4byte	.LVL52
 3293 02c0 F2000000 		.4byte	.LVL69
 3294 02c4 0200     		.2byte	0x2
 3295 02c6 91       		.byte	0x91
 3296 02c7 08       		.sleb128 8
 3297 02c8 F2000000 		.4byte	.LVL69
 3298 02cc 30010000 		.4byte	.LFE9
 3299 02d0 0200     		.2byte	0x2
 3300 02d2 91       		.byte	0x91
 3301 02d3 08       		.sleb128 8
 3302 02d4 00000000 		.4byte	0
 3303 02d8 00000000 		.4byte	0
 3304              	.LLST15:
ARM GAS  /tmp/ccegF7gt.s 			page 59


 3305 02dc 36000000 		.4byte	.LVL57
 3306 02e0 C4000000 		.4byte	.LVL67
 3307 02e4 0100     		.2byte	0x1
 3308 02e6 54       		.byte	0x54
 3309 02e7 F2000000 		.4byte	.LVL69
 3310 02eb F6000000 		.4byte	.LVL70
 3311 02ef 0100     		.2byte	0x1
 3312 02f1 54       		.byte	0x54
 3313 02f2 F6000000 		.4byte	.LVL70
 3314 02f6 02010000 		.4byte	.LVL73
 3315 02fa 0200     		.2byte	0x2
 3316 02fc 75       		.byte	0x75
 3317 02fd 04       		.sleb128 4
 3318 02fe 02010000 		.4byte	.LVL73
 3319 0302 08010000 		.4byte	.LVL75
 3320 0306 0100     		.2byte	0x1
 3321 0308 54       		.byte	0x54
 3322 0309 00000000 		.4byte	0
 3323 030d 00000000 		.4byte	0
 3324              	.LLST16:
 3325 0311 00000000 		.4byte	.LVL52
 3326 0315 92000000 		.4byte	.LVL60
 3327 0319 0200     		.2byte	0x2
 3328 031b 30       		.byte	0x30
 3329 031c 9F       		.byte	0x9f
 3330 031d 92000000 		.4byte	.LVL60
 3331 0321 A4000000 		.4byte	.LVL61
 3332 0325 1500     		.2byte	0x15
 3333 0327 70       		.byte	0x70
 3334 0328 00       		.sleb128 0
 3335 0329 78       		.byte	0x78
 3336 032a 00       		.sleb128 0
 3337 032b 22       		.byte	0x22
 3338 032c 7A       		.byte	0x7a
 3339 032d 00       		.sleb128 0
 3340 032e 22       		.byte	0x22
 3341 032f 7D       		.byte	0x7d
 3342 0330 00       		.sleb128 0
 3343 0331 06       		.byte	0x6
 3344 0332 22       		.byte	0x22
 3345 0333 91       		.byte	0x91
 3346 0334 44       		.sleb128 -60
 3347 0335 06       		.byte	0x6
 3348 0336 22       		.byte	0x22
 3349 0337 91       		.byte	0x91
 3350 0338 48       		.sleb128 -56
 3351 0339 06       		.byte	0x6
 3352 033a 22       		.byte	0x22
 3353 033b 9F       		.byte	0x9f
 3354 033c A4000000 		.4byte	.LVL61
 3355 0340 AA000000 		.4byte	.LVL62
 3356 0344 1C00     		.2byte	0x1c
 3357 0346 73       		.byte	0x73
 3358 0347 00       		.sleb128 0
 3359 0348 0A       		.byte	0xa
 3360 0349 FFFF     		.2byte	0xffff
 3361 034b 1A       		.byte	0x1a
ARM GAS  /tmp/ccegF7gt.s 			page 60


 3362 034c 70       		.byte	0x70
 3363 034d 00       		.sleb128 0
 3364 034e 22       		.byte	0x22
 3365 034f 91       		.byte	0x91
 3366 0350 48       		.sleb128 -56
 3367 0351 06       		.byte	0x6
 3368 0352 22       		.byte	0x22
 3369 0353 91       		.byte	0x91
 3370 0354 44       		.sleb128 -60
 3371 0355 06       		.byte	0x6
 3372 0356 22       		.byte	0x22
 3373 0357 7D       		.byte	0x7d
 3374 0358 00       		.sleb128 0
 3375 0359 06       		.byte	0x6
 3376 035a 22       		.byte	0x22
 3377 035b 78       		.byte	0x78
 3378 035c 00       		.sleb128 0
 3379 035d 22       		.byte	0x22
 3380 035e 7A       		.byte	0x7a
 3381 035f 00       		.sleb128 0
 3382 0360 22       		.byte	0x22
 3383 0361 9F       		.byte	0x9f
 3384 0362 B6000000 		.4byte	.LVL63
 3385 0366 C0000000 		.4byte	.LVL65
 3386 036a 0100     		.2byte	0x1
 3387 036c 53       		.byte	0x53
 3388 036d C0000000 		.4byte	.LVL65
 3389 0371 C2000000 		.4byte	.LVL66
 3390 0375 0400     		.2byte	0x4
 3391 0377 73       		.byte	0x73
 3392 0378 00       		.sleb128 0
 3393 0379 20       		.byte	0x20
 3394 037a 9F       		.byte	0x9f
 3395 037b C2000000 		.4byte	.LVL66
 3396 037f C4000000 		.4byte	.LVL67
 3397 0383 0100     		.2byte	0x1
 3398 0385 53       		.byte	0x53
 3399 0386 F2000000 		.4byte	.LVL69
 3400 038a F6000000 		.4byte	.LVL70
 3401 038e 1200     		.2byte	0x12
 3402 0390 70       		.byte	0x70
 3403 0391 00       		.sleb128 0
 3404 0392 71       		.byte	0x71
 3405 0393 00       		.sleb128 0
 3406 0394 22       		.byte	0x22
 3407 0395 72       		.byte	0x72
 3408 0396 00       		.sleb128 0
 3409 0397 22       		.byte	0x22
 3410 0398 78       		.byte	0x78
 3411 0399 00       		.sleb128 0
 3412 039a 22       		.byte	0x22
 3413 039b 7A       		.byte	0x7a
 3414 039c 00       		.sleb128 0
 3415 039d 22       		.byte	0x22
 3416 039e 7C       		.byte	0x7c
 3417 039f 00       		.sleb128 0
 3418 03a0 22       		.byte	0x22
ARM GAS  /tmp/ccegF7gt.s 			page 61


 3419 03a1 9F       		.byte	0x9f
 3420 03a2 F6000000 		.4byte	.LVL70
 3421 03a6 08010000 		.4byte	.LVL75
 3422 03aa 0200     		.2byte	0x2
 3423 03ac 30       		.byte	0x30
 3424 03ad 9F       		.byte	0x9f
 3425 03ae 1A010000 		.4byte	.LVL77
 3426 03b2 30010000 		.4byte	.LFE9
 3427 03b6 0200     		.2byte	0x2
 3428 03b8 30       		.byte	0x30
 3429 03b9 9F       		.byte	0x9f
 3430 03ba 00000000 		.4byte	0
 3431 03be 00000000 		.4byte	0
 3432              	.LLST17:
 3433 03c2 26000000 		.4byte	.LVL55
 3434 03c6 C4000000 		.4byte	.LVL67
 3435 03ca 0200     		.2byte	0x2
 3436 03cc 44       		.byte	0x44
 3437 03cd 9F       		.byte	0x9f
 3438 03ce F2000000 		.4byte	.LVL69
 3439 03d2 F6000000 		.4byte	.LVL70
 3440 03d6 0200     		.2byte	0x2
 3441 03d8 44       		.byte	0x44
 3442 03d9 9F       		.byte	0x9f
 3443 03da 02010000 		.4byte	.LVL73
 3444 03de 08010000 		.4byte	.LVL75
 3445 03e2 0200     		.2byte	0x2
 3446 03e4 44       		.byte	0x44
 3447 03e5 9F       		.byte	0x9f
 3448 03e6 1A010000 		.4byte	.LVL77
 3449 03ea 30010000 		.4byte	.LFE9
 3450 03ee 0200     		.2byte	0x2
 3451 03f0 44       		.byte	0x44
 3452 03f1 9F       		.byte	0x9f
 3453 03f2 00000000 		.4byte	0
 3454 03f6 00000000 		.4byte	0
 3455              	.LLST18:
 3456 03fa 00000000 		.4byte	.LVL78
 3457 03fe 08000000 		.4byte	.LVL79
 3458 0402 0100     		.2byte	0x1
 3459 0404 50       		.byte	0x50
 3460 0405 08000000 		.4byte	.LVL79
 3461 0409 5C000000 		.4byte	.LFE10
 3462 040d 0100     		.2byte	0x1
 3463 040f 54       		.byte	0x54
 3464 0410 00000000 		.4byte	0
 3465 0414 00000000 		.4byte	0
 3466              	.LLST19:
 3467 0418 00000000 		.4byte	.LVL78
 3468 041c 1F000000 		.4byte	.LVL80-1
 3469 0420 0100     		.2byte	0x1
 3470 0422 51       		.byte	0x51
 3471 0423 1F000000 		.4byte	.LVL80-1
 3472 0427 5C000000 		.4byte	.LFE10
 3473 042b 0100     		.2byte	0x1
 3474 042d 57       		.byte	0x57
 3475 042e 00000000 		.4byte	0
ARM GAS  /tmp/ccegF7gt.s 			page 62


 3476 0432 00000000 		.4byte	0
 3477              	.LLST20:
 3478 0436 00000000 		.4byte	.LVL78
 3479 043a 1F000000 		.4byte	.LVL80-1
 3480 043e 0100     		.2byte	0x1
 3481 0440 52       		.byte	0x52
 3482 0441 1F000000 		.4byte	.LVL80-1
 3483 0445 5C000000 		.4byte	.LFE10
 3484 0449 0100     		.2byte	0x1
 3485 044b 55       		.byte	0x55
 3486 044c 00000000 		.4byte	0
 3487 0450 00000000 		.4byte	0
 3488              	.LLST21:
 3489 0454 00000000 		.4byte	.LVL78
 3490 0458 1F000000 		.4byte	.LVL80-1
 3491 045c 0100     		.2byte	0x1
 3492 045e 53       		.byte	0x53
 3493 045f 1F000000 		.4byte	.LVL80-1
 3494 0463 5C000000 		.4byte	.LFE10
 3495 0467 0400     		.2byte	0x4
 3496 0469 F3       		.byte	0xf3
 3497 046a 01       		.uleb128 0x1
 3498 046b 53       		.byte	0x53
 3499 046c 9F       		.byte	0x9f
 3500 046d 00000000 		.4byte	0
 3501 0471 00000000 		.4byte	0
 3502              	.LLST22:
 3503 0475 00000000 		.4byte	.LVL78
 3504 0479 46000000 		.4byte	.LVL84
 3505 047d 0200     		.2byte	0x2
 3506 047f 91       		.byte	0x91
 3507 0480 00       		.sleb128 0
 3508 0481 46000000 		.4byte	.LVL84
 3509 0485 5C000000 		.4byte	.LFE10
 3510 0489 0200     		.2byte	0x2
 3511 048b 91       		.byte	0x91
 3512 048c 00       		.sleb128 0
 3513 048d 00000000 		.4byte	0
 3514 0491 00000000 		.4byte	0
 3515              	.LLST23:
 3516 0495 00000000 		.4byte	.LVL78
 3517 0499 46000000 		.4byte	.LVL84
 3518 049d 0200     		.2byte	0x2
 3519 049f 91       		.byte	0x91
 3520 04a0 04       		.sleb128 4
 3521 04a1 46000000 		.4byte	.LVL84
 3522 04a5 5C000000 		.4byte	.LFE10
 3523 04a9 0200     		.2byte	0x2
 3524 04ab 91       		.byte	0x91
 3525 04ac 04       		.sleb128 4
 3526 04ad 00000000 		.4byte	0
 3527 04b1 00000000 		.4byte	0
 3528              	.LLST24:
 3529 04b5 26000000 		.4byte	.LVL81
 3530 04b9 34000000 		.4byte	.LVL82
 3531 04bd 0100     		.2byte	0x1
 3532 04bf 50       		.byte	0x50
ARM GAS  /tmp/ccegF7gt.s 			page 63


 3533 04c0 34000000 		.4byte	.LVL82
 3534 04c4 3D000000 		.4byte	.LVL83-1
 3535 04c8 0200     		.2byte	0x2
 3536 04ca 91       		.byte	0x91
 3537 04cb 58       		.sleb128 -40
 3538 04cc 46000000 		.4byte	.LVL84
 3539 04d0 50000000 		.4byte	.LVL85
 3540 04d4 0100     		.2byte	0x1
 3541 04d6 50       		.byte	0x50
 3542 04d7 00000000 		.4byte	0
 3543 04db 00000000 		.4byte	0
 3544              		.section	.debug_aranges,"",%progbits
 3545 0000 34000000 		.4byte	0x34
 3546 0004 0200     		.2byte	0x2
 3547 0006 00000000 		.4byte	.Ldebug_info0
 3548 000a 04       		.byte	0x4
 3549 000b 00       		.byte	0
 3550 000c 0000     		.2byte	0
 3551 000e 0000     		.2byte	0
 3552 0010 00000000 		.4byte	.LFB7
 3553 0014 54000000 		.4byte	.LFE7-.LFB7
 3554 0018 00000000 		.4byte	.LFB8
 3555 001c 1E020000 		.4byte	.LFE8-.LFB8
 3556 0020 00000000 		.4byte	.LFB9
 3557 0024 30010000 		.4byte	.LFE9-.LFB9
 3558 0028 00000000 		.4byte	.LFB10
 3559 002c 5C000000 		.4byte	.LFE10-.LFB10
 3560 0030 00000000 		.4byte	0
 3561 0034 00000000 		.4byte	0
 3562              		.section	.debug_ranges,"",%progbits
 3563              	.Ldebug_ranges0:
 3564 0000 BE000000 		.4byte	.LBB2
 3565 0004 C2000000 		.4byte	.LBE2
 3566 0008 C6000000 		.4byte	.LBB3
 3567 000c CA000000 		.4byte	.LBE3
 3568 0010 CC000000 		.4byte	.LBB4
 3569 0014 FE000000 		.4byte	.LBE4
 3570 0018 C6010000 		.4byte	.LBB5
 3571 001c CA010000 		.4byte	.LBE5
 3572 0020 00000000 		.4byte	0
 3573 0024 00000000 		.4byte	0
 3574 0028 26000000 		.4byte	.LBB6
 3575 002c C4000000 		.4byte	.LBE6
 3576 0030 F2000000 		.4byte	.LBB7
 3577 0034 F6000000 		.4byte	.LBE7
 3578 0038 02010000 		.4byte	.LBB8
 3579 003c 08010000 		.4byte	.LBE8
 3580 0040 1A010000 		.4byte	.LBB9
 3581 0044 30010000 		.4byte	.LBE9
 3582 0048 00000000 		.4byte	0
 3583 004c 00000000 		.4byte	0
 3584 0050 00000000 		.4byte	.LFB7
 3585 0054 54000000 		.4byte	.LFE7
 3586 0058 00000000 		.4byte	.LFB8
 3587 005c 1E020000 		.4byte	.LFE8
 3588 0060 00000000 		.4byte	.LFB9
 3589 0064 30010000 		.4byte	.LFE9
ARM GAS  /tmp/ccegF7gt.s 			page 64


 3590 0068 00000000 		.4byte	.LFB10
 3591 006c 5C000000 		.4byte	.LFE10
 3592 0070 00000000 		.4byte	0
 3593 0074 00000000 		.4byte	0
 3594              		.section	.debug_line,"",%progbits
 3595              	.Ldebug_line0:
 3596 0000 92030000 		.section	.debug_str,"MS",%progbits,1
 3596      0200C501 
 3596      00000201 
 3596      FB0E0D00 
 3596      01010101 
 3597              	.LASF70:
 3598 0000 4D454D50 		.ascii	"MEMP_TCP_PCB_LISTEN\000"
 3598      5F544350 
 3598      5F504342 
 3598      5F4C4953 
 3598      54454E00 
 3599              	.LASF62:
 3600 0014 49434D50 		.ascii	"ICMP_DUR_HOST\000"
 3600      5F445552 
 3600      5F484F53 
 3600      5400
 3601              	.LASF142:
 3602 0022 2F686F6D 		.ascii	"/home/caroline/Documents/PAF/ChibiOS_2.6.4/demos/AR"
 3602      652F6361 
 3602      726F6C69 
 3602      6E652F44 
 3602      6F63756D 
 3603 0055 4D434D34 		.ascii	"MCM4-STM32F407-LWIP\000"
 3603      2D53544D 
 3603      33324634 
 3603      30372D4C 
 3603      57495000 
 3604              	.LASF32:
 3605 0069 666C6167 		.ascii	"flags\000"
 3605      7300
 3606              	.LASF72:
 3607 006f 4D454D50 		.ascii	"MEMP_REASSDATA\000"
 3607      5F524541 
 3607      53534441 
 3607      544100
 3608              	.LASF0:
 3609 007e 756E7369 		.ascii	"unsigned int\000"
 3609      676E6564 
 3609      20696E74 
 3609      00
 3610              	.LASF28:
 3611 008b 6E657874 		.ascii	"next\000"
 3611      00
 3612              	.LASF61:
 3613 0090 49434D50 		.ascii	"ICMP_DUR_NET\000"
 3613      5F445552 
 3613      5F4E4554 
 3613      00
 3614              	.LASF27:
 3615 009d 6572725F 		.ascii	"err_t\000"
 3615      7400
ARM GAS  /tmp/ccegF7gt.s 			page 65


 3616              	.LASF43:
 3617 00a3 6C696E6B 		.ascii	"linkoutput\000"
 3617      6F757470 
 3617      757400
 3618              	.LASF24:
 3619 00ae 7531365F 		.ascii	"u16_t\000"
 3619      7400
 3620              	.LASF56:
 3621 00b4 5F74746C 		.ascii	"_ttl\000"
 3621      00
 3622              	.LASF102:
 3623 00b9 6C696E6B 		.ascii	"link\000"
 3623      00
 3624              	.LASF93:
 3625 00be 73746174 		.ascii	"stats_mem\000"
 3625      735F6D65 
 3625      6D00
 3626              	.LASF49:
 3627 00c8 6E657469 		.ascii	"netif_output_fn\000"
 3627      665F6F75 
 3627      74707574 
 3627      5F666E00 
 3628              	.LASF139:
 3629 00d8 6C776970 		.ascii	"lwip_htons\000"
 3629      5F68746F 
 3629      6E7300
 3630              	.LASF80:
 3631 00e3 4D454D50 		.ascii	"MEMP_PBUF_POOL\000"
 3631      5F504255 
 3631      465F504F 
 3631      4F4C00
 3632              	.LASF126:
 3633 00f2 6C776970 		.ascii	"lwip_stats\000"
 3633      5F737461 
 3633      747300
 3634              	.LASF137:
 3635 00fd 69636D70 		.ascii	"icmp_input\000"
 3635      5F696E70 
 3635      757400
 3636              	.LASF97:
 3637 0108 73746174 		.ascii	"stats_syselem\000"
 3637      735F7379 
 3637      73656C65 
 3637      6D00
 3638              	.LASF48:
 3639 0116 6E657469 		.ascii	"netif_input_fn\000"
 3639      665F696E 
 3639      7075745F 
 3639      666E00
 3640              	.LASF18:
 3641 0125 75696E74 		.ascii	"uint32_t\000"
 3641      33325F74 
 3641      00
 3642              	.LASF14:
 3643 012e 696E7438 		.ascii	"int8_t\000"
 3643      5F7400
 3644              	.LASF76:
ARM GAS  /tmp/ccegF7gt.s 			page 66


 3645 0135 4D454D50 		.ascii	"MEMP_TCPIP_MSG_API\000"
 3645      5F544350 
 3645      49505F4D 
 3645      53475F41 
 3645      504900
 3646              	.LASF91:
 3647 0148 6F707465 		.ascii	"opterr\000"
 3647      727200
 3648              	.LASF99:
 3649 014f 6D757465 		.ascii	"mutex\000"
 3649      7800
 3650              	.LASF104:
 3651 0155 69705F66 		.ascii	"ip_frag\000"
 3651      72616700 
 3652              	.LASF96:
 3653 015d 696C6C65 		.ascii	"illegal\000"
 3653      67616C00 
 3654              	.LASF16:
 3655 0165 696E7431 		.ascii	"int16_t\000"
 3655      365F7400 
 3656              	.LASF120:
 3657 016d 6E657469 		.ascii	"netif_list\000"
 3657      665F6C69 
 3657      737400
 3658              	.LASF46:
 3659 0178 68776164 		.ascii	"hwaddr\000"
 3659      647200
 3660              	.LASF103:
 3661 017f 65746861 		.ascii	"etharp\000"
 3661      727000
 3662              	.LASF13:
 3663 0186 6C6F6E67 		.ascii	"long long unsigned int\000"
 3663      206C6F6E 
 3663      6720756E 
 3663      7369676E 
 3663      65642069 
 3664              	.LASF134:
 3665 019d 69636D70 		.ascii	"icmp_dest_unreach\000"
 3665      5F646573 
 3665      745F756E 
 3665      72656163 
 3665      6800
 3666              	.LASF124:
 3667 01af 63757272 		.ascii	"current_iphdr_src\000"
 3667      656E745F 
 3667      69706864 
 3667      725F7372 
 3667      6300
 3668              	.LASF117:
 3669 01c1 69705F68 		.ascii	"ip_hlen\000"
 3669      6C656E00 
 3670              	.LASF7:
 3671 01c9 5F5F7569 		.ascii	"__uint16_t\000"
 3671      6E743136 
 3671      5F7400
 3672              	.LASF58:
 3673 01d4 5F63686B 		.ascii	"_chksum\000"
ARM GAS  /tmp/ccegF7gt.s 			page 67


 3673      73756D00 
 3674              	.LASF45:
 3675 01dc 68776164 		.ascii	"hwaddr_len\000"
 3675      64725F6C 
 3675      656E00
 3676              	.LASF55:
 3677 01e7 5F6F6666 		.ascii	"_offset\000"
 3677      73657400 
 3678              	.LASF66:
 3679 01ef 49434D50 		.ascii	"ICMP_DUR_SR\000"
 3679      5F445552 
 3679      5F535200 
 3680              	.LASF77:
 3681 01fb 4D454D50 		.ascii	"MEMP_TCPIP_MSG_INPKT\000"
 3681      5F544350 
 3681      49505F4D 
 3681      53475F49 
 3681      4E504B54 
 3682              	.LASF95:
 3683 0210 75736564 		.ascii	"used\000"
 3683      00
 3684              	.LASF101:
 3685 0215 73746174 		.ascii	"stats_\000"
 3685      735F00
 3686              	.LASF118:
 3687 021c 69705F6F 		.ascii	"ip_output\000"
 3687      75747075 
 3687      7400
 3688              	.LASF30:
 3689 0226 746F745F 		.ascii	"tot_len\000"
 3689      6C656E00 
 3690              	.LASF29:
 3691 022e 7061796C 		.ascii	"payload\000"
 3691      6F616400 
 3692              	.LASF136:
 3693 0236 7463705F 		.ascii	"tcp_input\000"
 3693      696E7075 
 3693      7400
 3694              	.LASF42:
 3695 0240 6F757470 		.ascii	"output\000"
 3695      757400
 3696              	.LASF19:
 3697 0247 5F426F6F 		.ascii	"_Bool\000"
 3697      6C00
 3698              	.LASF81:
 3699 024d 4D454D50 		.ascii	"MEMP_MAX\000"
 3699      5F4D4158 
 3699      00
 3700              	.LASF23:
 3701 0256 73385F74 		.ascii	"s8_t\000"
 3701      00
 3702              	.LASF123:
 3703 025b 63757272 		.ascii	"current_header\000"
 3703      656E745F 
 3703      68656164 
 3703      657200
 3704              	.LASF75:
ARM GAS  /tmp/ccegF7gt.s 			page 68


 3705 026a 4D454D50 		.ascii	"MEMP_NETCONN\000"
 3705      5F4E4554 
 3705      434F4E4E 
 3705      00
 3706              	.LASF127:
 3707 0277 6970345F 		.ascii	"ip4_addr_isbroadcast\000"
 3707      61646472 
 3707      5F697362 
 3707      726F6164 
 3707      63617374 
 3708              	.LASF138:
 3709 028c 70627566 		.ascii	"pbuf_header\000"
 3709      5F686561 
 3709      64657200 
 3710              	.LASF79:
 3711 0298 4D454D50 		.ascii	"MEMP_PBUF\000"
 3711      5F504255 
 3711      4600
 3712              	.LASF21:
 3713 02a2 63686172 		.ascii	"char\000"
 3713      00
 3714              	.LASF133:
 3715 02a7 70627566 		.ascii	"pbuf_realloc\000"
 3715      5F726561 
 3715      6C6C6F63 
 3715      00
 3716              	.LASF60:
 3717 02b4 6D656D5F 		.ascii	"mem_size_t\000"
 3717      73697A65 
 3717      5F7400
 3718              	.LASF82:
 3719 02bf 73746174 		.ascii	"stats_proto\000"
 3719      735F7072 
 3719      6F746F00 
 3720              	.LASF36:
 3721 02cb 69705F61 		.ascii	"ip_addr_packed\000"
 3721      6464725F 
 3721      7061636B 
 3721      656400
 3722              	.LASF114:
 3723 02da 70726F74 		.ascii	"proto\000"
 3723      6F00
 3724              	.LASF15:
 3725 02e0 75696E74 		.ascii	"uint8_t\000"
 3725      385F7400 
 3726              	.LASF31:
 3727 02e8 74797065 		.ascii	"type\000"
 3727      00
 3728              	.LASF57:
 3729 02ed 5F70726F 		.ascii	"_proto\000"
 3729      746F00
 3730              	.LASF130:
 3731 02f4 696E6574 		.ascii	"inet_chksum\000"
 3731      5F63686B 
 3731      73756D00 
 3732              	.LASF128:
 3733 0300 70627566 		.ascii	"pbuf_free\000"
ARM GAS  /tmp/ccegF7gt.s 			page 69


 3733      5F667265 
 3733      6500
 3734              	.LASF74:
 3735 030a 4D454D50 		.ascii	"MEMP_NETBUF\000"
 3735      5F4E4554 
 3735      42554600 
 3736              	.LASF40:
 3737 0316 6E65746D 		.ascii	"netmask\000"
 3737      61736B00 
 3738              	.LASF12:
 3739 031e 6C6F6E67 		.ascii	"long long int\000"
 3739      206C6F6E 
 3739      6720696E 
 3739      7400
 3740              	.LASF131:
 3741 032c 69705F72 		.ascii	"ip_reass\000"
 3741      65617373 
 3741      00
 3742              	.LASF69:
 3743 0335 4D454D50 		.ascii	"MEMP_TCP_PCB\000"
 3743      5F544350 
 3743      5F504342 
 3743      00
 3744              	.LASF106:
 3745 0342 6D656D70 		.ascii	"memp\000"
 3745      00
 3746              	.LASF22:
 3747 0347 75385F74 		.ascii	"u8_t\000"
 3747      00
 3748              	.LASF5:
 3749 034c 5F5F696E 		.ascii	"__int16_t\000"
 3749      7431365F 
 3749      7400
 3750              	.LASF52:
 3751 0356 5F765F68 		.ascii	"_v_hl\000"
 3751      6C00
 3752              	.LASF116:
 3753 035c 63686B5F 		.ascii	"chk_sum\000"
 3753      73756D00 
 3754              	.LASF86:
 3755 0364 63686B65 		.ascii	"chkerr\000"
 3755      727200
 3756              	.LASF64:
 3757 036b 49434D50 		.ascii	"ICMP_DUR_PORT\000"
 3757      5F445552 
 3757      5F504F52 
 3757      5400
 3758              	.LASF132:
 3759 0379 7261775F 		.ascii	"raw_input\000"
 3759      696E7075 
 3759      7400
 3760              	.LASF121:
 3761 0383 6E657469 		.ascii	"netif_default\000"
 3761      665F6465 
 3761      6661756C 
 3761      7400
 3762              	.LASF2:
ARM GAS  /tmp/ccegF7gt.s 			page 70


 3763 0391 5F5F696E 		.ascii	"__int8_t\000"
 3763      74385F74 
 3763      00
 3764              	.LASF108:
 3765 039a 69705F69 		.ascii	"ip_input\000"
 3765      6E707574 
 3765      00
 3766              	.LASF17:
 3767 03a3 75696E74 		.ascii	"uint16_t\000"
 3767      31365F74 
 3767      00
 3768              	.LASF119:
 3769 03ac 69705F69 		.ascii	"ip_id\000"
 3769      6400
 3770              	.LASF122:
 3771 03b2 63757272 		.ascii	"current_netif\000"
 3771      656E745F 
 3771      6E657469 
 3771      6600
 3772              	.LASF129:
 3773 03c0 6C776970 		.ascii	"lwip_ntohs\000"
 3773      5F6E746F 
 3773      687300
 3774              	.LASF26:
 3775 03cb 7533325F 		.ascii	"u32_t\000"
 3775      7400
 3776              	.LASF6:
 3777 03d1 73686F72 		.ascii	"short int\000"
 3777      7420696E 
 3777      7400
 3778              	.LASF105:
 3779 03db 69636D70 		.ascii	"icmp\000"
 3779      00
 3780              	.LASF9:
 3781 03e0 6C6F6E67 		.ascii	"long int\000"
 3781      20696E74 
 3781      00
 3782              	.LASF89:
 3783 03e9 72746572 		.ascii	"rterr\000"
 3783      7200
 3784              	.LASF94:
 3785 03ef 61766169 		.ascii	"avail\000"
 3785      6C00
 3786              	.LASF78:
 3787 03f5 4D454D50 		.ascii	"MEMP_SYS_TIMEOUT\000"
 3787      5F535953 
 3787      5F54494D 
 3787      454F5554 
 3787      00
 3788              	.LASF68:
 3789 0406 4D454D50 		.ascii	"MEMP_UDP_PCB\000"
 3789      5F554450 
 3789      5F504342 
 3789      00
 3790              	.LASF100:
 3791 0413 6D626F78 		.ascii	"mbox\000"
 3791      00
ARM GAS  /tmp/ccegF7gt.s 			page 71


 3792              	.LASF92:
 3793 0418 63616368 		.ascii	"cachehit\000"
 3793      65686974 
 3793      00
 3794              	.LASF113:
 3795 0421 69705F6F 		.ascii	"ip_output_if\000"
 3795      75747075 
 3795      745F6966 
 3795      00
 3796              	.LASF3:
 3797 042e 5F5F7569 		.ascii	"__uint8_t\000"
 3797      6E74385F 
 3797      7400
 3798              	.LASF51:
 3799 0438 69705F68 		.ascii	"ip_hdr\000"
 3799      647200
 3800              	.LASF47:
 3801 043f 6E616D65 		.ascii	"name\000"
 3801      00
 3802              	.LASF50:
 3803 0444 6E657469 		.ascii	"netif_linkoutput_fn\000"
 3803      665F6C69 
 3803      6E6B6F75 
 3803      74707574 
 3803      5F666E00 
 3804              	.LASF73:
 3805 0458 4D454D50 		.ascii	"MEMP_FRAG_PBUF\000"
 3805      5F465241 
 3805      475F5042 
 3805      554600
 3806              	.LASF143:
 3807 0467 69636D70 		.ascii	"icmp_dur_type\000"
 3807      5F647572 
 3807      5F747970 
 3807      6500
 3808              	.LASF67:
 3809 0475 4D454D50 		.ascii	"MEMP_RAW_PCB\000"
 3809      5F524157 
 3809      5F504342 
 3809      00
 3810              	.LASF87:
 3811 0482 6C656E65 		.ascii	"lenerr\000"
 3811      727200
 3812              	.LASF53:
 3813 0489 5F746F73 		.ascii	"_tos\000"
 3813      00
 3814              	.LASF20:
 3815 048e 73697A65 		.ascii	"sizetype\000"
 3815      74797065 
 3815      00
 3816              	.LASF11:
 3817 0497 6C6F6E67 		.ascii	"long unsigned int\000"
 3817      20756E73 
 3817      69676E65 
 3817      6420696E 
 3817      7400
 3818              	.LASF140:
ARM GAS  /tmp/ccegF7gt.s 			page 72


 3819 04a9 474E5520 		.ascii	"GNU C 4.8.2 -mcpu=cortex-m4 -mno-thumb-interwork -m"
 3819      4320342E 
 3819      382E3220 
 3819      2D6D6370 
 3819      753D636F 
 3820 04dc 7468756D 		.ascii	"thumb -ggdb -O2 -std=gnu99 -fomit-frame-pointer -fa"
 3820      62202D67 
 3820      67646220 
 3820      2D4F3220 
 3820      2D737464 
 3821 050f 6C69676E 		.ascii	"lign-functions=16 -ffunction-sections -fdata-sectio"
 3821      2D66756E 
 3821      6374696F 
 3821      6E733D31 
 3821      36202D66 
 3822 0542 6E73202D 		.ascii	"ns -fno-common\000"
 3822      666E6F2D 
 3822      636F6D6D 
 3822      6F6E00
 3823              	.LASF25:
 3824 0551 7331365F 		.ascii	"s16_t\000"
 3824      7400
 3825              	.LASF90:
 3826 0557 70726F74 		.ascii	"proterr\000"
 3826      65727200 
 3827              	.LASF41:
 3828 055f 696E7075 		.ascii	"input\000"
 3828      7400
 3829              	.LASF141:
 3830 0565 2E2E2F2E 		.ascii	"../../ext/lwip/src/core/ipv4/ip.c\000"
 3830      2E2F6578 
 3830      742F6C77 
 3830      69702F73 
 3830      72632F63 
 3831              	.LASF98:
 3832 0587 73746174 		.ascii	"stats_sys\000"
 3832      735F7379 
 3832      7300
 3833              	.LASF4:
 3834 0591 756E7369 		.ascii	"unsigned char\000"
 3834      676E6564 
 3834      20636861 
 3834      7200
 3835              	.LASF10:
 3836 059f 5F5F7569 		.ascii	"__uint32_t\000"
 3836      6E743332 
 3836      5F7400
 3837              	.LASF88:
 3838 05aa 6D656D65 		.ascii	"memerr\000"
 3838      727200
 3839              	.LASF71:
 3840 05b1 4D454D50 		.ascii	"MEMP_TCP_SEG\000"
 3840      5F544350 
 3840      5F534547 
 3840      00
 3841              	.LASF33:
 3842 05be 70627566 		.ascii	"pbuf\000"
ARM GAS  /tmp/ccegF7gt.s 			page 73


 3842      00
 3843              	.LASF38:
 3844 05c3 69705F61 		.ascii	"ip_addr_p_t\000"
 3844      6464725F 
 3844      705F7400 
 3845              	.LASF63:
 3846 05cf 49434D50 		.ascii	"ICMP_DUR_PROTO\000"
 3846      5F445552 
 3846      5F50524F 
 3846      544F00
 3847              	.LASF144:
 3848 05de 706F7274 		.ascii	"port_halt\000"
 3848      5F68616C 
 3848      7400
 3849              	.LASF112:
 3850 05e8 66697273 		.ascii	"first\000"
 3850      7400
 3851              	.LASF35:
 3852 05ee 61646472 		.ascii	"addr\000"
 3852      00
 3853              	.LASF65:
 3854 05f3 49434D50 		.ascii	"ICMP_DUR_FRAG\000"
 3854      5F445552 
 3854      5F465241 
 3854      4700
 3855              	.LASF85:
 3856 0601 64726F70 		.ascii	"drop\000"
 3856      00
 3857              	.LASF44:
 3858 0606 73746174 		.ascii	"state\000"
 3858      6500
 3859              	.LASF39:
 3860 060c 6E657469 		.ascii	"netif\000"
 3860      6600
 3861              	.LASF109:
 3862 0612 69706864 		.ascii	"iphdr\000"
 3862      7200
 3863              	.LASF84:
 3864 0618 72656376 		.ascii	"recv\000"
 3864      00
 3865              	.LASF1:
 3866 061d 7369676E 		.ascii	"signed char\000"
 3866      65642063 
 3866      68617200 
 3867              	.LASF110:
 3868 0629 69706864 		.ascii	"iphdr_hlen\000"
 3868      725F686C 
 3868      656E00
 3869              	.LASF8:
 3870 0634 73686F72 		.ascii	"short unsigned int\000"
 3870      7420756E 
 3870      7369676E 
 3870      65642069 
 3870      6E7400
 3871              	.LASF83:
 3872 0647 786D6974 		.ascii	"xmit\000"
 3872      00
ARM GAS  /tmp/ccegF7gt.s 			page 74


 3873              	.LASF125:
 3874 064c 63757272 		.ascii	"current_iphdr_dest\000"
 3874      656E745F 
 3874      69706864 
 3874      725F6465 
 3874      737400
 3875              	.LASF54:
 3876 065f 5F6C656E 		.ascii	"_len\000"
 3876      00
 3877              	.LASF37:
 3878 0664 69705F61 		.ascii	"ip_addr_t\000"
 3878      6464725F 
 3878      7400
 3879              	.LASF107:
 3880 066e 69705F72 		.ascii	"ip_route\000"
 3880      6F757465 
 3880      00
 3881              	.LASF115:
 3882 0677 64657374 		.ascii	"dest_addr\000"
 3882      5F616464 
 3882      7200
 3883              	.LASF111:
 3884 0681 69706864 		.ascii	"iphdr_len\000"
 3884      725F6C65 
 3884      6E00
 3885              	.LASF59:
 3886 068b 64657374 		.ascii	"dest\000"
 3886      00
 3887              	.LASF135:
 3888 0690 7564705F 		.ascii	"udp_input\000"
 3888      696E7075 
 3888      7400
 3889              	.LASF34:
 3890 069a 69705F61 		.ascii	"ip_addr\000"
 3890      64647200 
 3891              		.ident	"GCC: (4.8.2-14ubuntu1+6) 4.8.2"
ARM GAS  /tmp/ccegF7gt.s 			page 75


DEFINED SYMBOLS
                            *ABS*:0000000000000000 ip.c
     /tmp/ccegF7gt.s:19     .text.ip_route:0000000000000000 $t
     /tmp/ccegF7gt.s:25     .text.ip_route:0000000000000000 ip_route
     /tmp/ccegF7gt.s:92     .text.ip_input:0000000000000000 $t
     /tmp/ccegF7gt.s:98     .text.ip_input:0000000000000000 ip_input
     /tmp/ccegF7gt.s:848    .bss.current_iphdr_src:0000000000000000 .LANCHOR1
     /tmp/ccegF7gt.s:855    .bss.current_iphdr_dest:0000000000000000 .LANCHOR0
     /tmp/ccegF7gt.s:862    .bss.current_netif:0000000000000000 .LANCHOR2
     /tmp/ccegF7gt.s:834    .bss.current_header:0000000000000000 .LANCHOR3
     /tmp/ccegF7gt.s:496    .text.ip_output_if:0000000000000000 $t
     /tmp/ccegF7gt.s:502    .text.ip_output_if:0000000000000000 ip_output_if
     /tmp/ccegF7gt.s:841    .bss.ip_id:0000000000000000 .LANCHOR4
     /tmp/ccegF7gt.s:746    .text.ip_output:0000000000000000 $t
     /tmp/ccegF7gt.s:752    .text.ip_output:0000000000000000 ip_output
     /tmp/ccegF7gt.s:858    .bss.current_iphdr_dest:0000000000000000 current_iphdr_dest
     /tmp/ccegF7gt.s:851    .bss.current_iphdr_src:0000000000000000 current_iphdr_src
     /tmp/ccegF7gt.s:837    .bss.current_header:0000000000000000 current_header
     /tmp/ccegF7gt.s:865    .bss.current_netif:0000000000000000 current_netif
     /tmp/ccegF7gt.s:833    .bss.current_header:0000000000000000 $d
     /tmp/ccegF7gt.s:840    .bss.ip_id:0000000000000000 $d
     /tmp/ccegF7gt.s:844    .bss.ip_id:0000000000000000 ip_id
     /tmp/ccegF7gt.s:847    .bss.current_iphdr_src:0000000000000000 $d
     /tmp/ccegF7gt.s:854    .bss.current_iphdr_dest:0000000000000000 $d
     /tmp/ccegF7gt.s:861    .bss.current_netif:0000000000000000 $d
                     .debug_frame:0000000000000010 $d

UNDEFINED SYMBOLS
netif_list
netif_default
lwip_stats
pbuf_free
lwip_ntohs
inet_chksum
pbuf_realloc
ip4_addr_isbroadcast
ip_reass
raw_input
icmp_dest_unreach
udp_input
tcp_input
icmp_input
port_halt
pbuf_header
lwip_htons
ip_frag
