ARM GAS  /tmp/ccNwtsdD.s 			page 1


   1              		.syntax unified
   2              		.cpu cortex-m4
   3              		.fpu softvfp
   4              		.eabi_attribute 20, 1
   5              		.eabi_attribute 21, 1
   6              		.eabi_attribute 23, 3
   7              		.eabi_attribute 24, 1
   8              		.eabi_attribute 25, 1
   9              		.eabi_attribute 26, 1
  10              		.eabi_attribute 30, 2
  11              		.eabi_attribute 34, 1
  12              		.eabi_attribute 18, 4
  13              		.thumb
  14              		.file	"ip_addr.c"
  15              		.text
  16              	.Ltext0:
  17              		.cfi_sections	.debug_frame
  18              		.section	.text.ip4_addr_isbroadcast,"ax",%progbits
  19              		.align	2
  20              		.p2align 4,,15
  21              		.global	ip4_addr_isbroadcast
  22              		.thumb
  23              		.thumb_func
  24              		.type	ip4_addr_isbroadcast, %function
  25              	ip4_addr_isbroadcast:
  26              	.LFB7:
  27              		.file 1 "../../ext/lwip/src/core/ipv4/ip_addr.c"
  28              		.loc 1 56 0
  29              		.cfi_startproc
  30              		@ args = 0, pretend = 0, frame = 0
  31              		@ frame_needed = 0, uses_anonymous_args = 0
  32              		@ link register save eliminated.
  33              	.LVL0:
  34              		.loc 1 61 0
  35 0000 431E     		subs	r3, r0, #1
  36 0002 0333     		adds	r3, r3, #3
  37 0004 11D8     		bhi	.L5
  38              		.loc 1 65 0
  39 0006 91F82930 		ldrb	r3, [r1, #41]	@ zero_extendqisi2
  40 000a 03F00203 		and	r3, r3, #2
  41 000e 53B1     		cbz	r3, .L7
  42              		.loc 1 70 0
  43 0010 4B68     		ldr	r3, [r1, #4]
  44 0012 8342     		cmp	r3, r0
  45 0014 07D0     		beq	.L7
  46              		.loc 1 73 0
  47 0016 8A68     		ldr	r2, [r1, #8]
  48 0018 4340     		eors	r3, r3, r0
  49 001a 1342     		tst	r3, r2
  50 001c 03D1     		bne	.L7
  51              		.loc 1 75 0
  52 001e D243     		mvns	r2, r2
  53 0020 1040     		ands	r0, r0, r2
  54              	.LVL1:
  55 0022 8242     		cmp	r2, r0
  56 0024 01D0     		beq	.L5
  57              	.L7:
ARM GAS  /tmp/ccNwtsdD.s 			page 2


  58              		.loc 1 68 0
  59 0026 0020     		movs	r0, #0
  60              		.loc 1 82 0
  61 0028 7047     		bx	lr
  62              	.L5:
  63              		.loc 1 63 0
  64 002a 0120     		movs	r0, #1
  65 002c 7047     		bx	lr
  66              		.cfi_endproc
  67              	.LFE7:
  68              		.size	ip4_addr_isbroadcast, .-ip4_addr_isbroadcast
  69 002e 00BF     		.section	.text.ip4_addr_netmask_valid,"ax",%progbits
  70              		.align	2
  71              		.p2align 4,,15
  72              		.global	ip4_addr_netmask_valid
  73              		.thumb
  74              		.thumb_func
  75              		.type	ip4_addr_netmask_valid, %function
  76              	ip4_addr_netmask_valid:
  77              	.LFB8:
  78              		.loc 1 91 0
  79              		.cfi_startproc
  80              		@ args = 0, pretend = 0, frame = 0
  81              		@ frame_needed = 0, uses_anonymous_args = 0
  82              	.LVL2:
  83 0000 08B5     		push	{r3, lr}
  84              		.cfi_def_cfa_offset 8
  85              		.cfi_offset 3, -8
  86              		.cfi_offset 14, -4
  87              		.loc 1 93 0
  88 0002 FFF7FEFF 		bl	lwip_htonl
  89              	.LVL3:
  90 0006 2022     		movs	r2, #32
  91              		.loc 1 96 0
  92 0008 4FF00043 		mov	r3, #-2147483648
  93 000c 03E0     		b	.L13
  94              	.LVL4:
  95              	.L10:
  96 000e 013A     		subs	r2, r2, #1
  97 0010 4FEA5303 		lsr	r3, r3, #1
  98              	.LVL5:
  99 0014 07D0     		beq	.L16
 100              	.LVL6:
 101              	.L13:
 102              		.loc 1 97 0
 103 0016 0342     		tst	r3, r0
 104 0018 F9D1     		bne	.L10
 105              		.loc 1 102 0 discriminator 1
 106 001a 13B9     		cbnz	r3, .L12
 107 001c 03E0     		b	.L16
 108              	.L14:
 109              		.loc 1 103 0
 110 001e 1842     		tst	r0, r3
 111 0020 03D1     		bne	.L17
 112              	.L12:
 113              	.LVL7:
 114              		.loc 1 102 0
ARM GAS  /tmp/ccNwtsdD.s 			page 3


 115 0022 5B08     		lsrs	r3, r3, #1
 116              	.LVL8:
 117 0024 FBD1     		bne	.L14
 118              	.L16:
 119              		.loc 1 109 0
 120 0026 0120     		movs	r0, #1
 121              	.LVL9:
 122 0028 08BD     		pop	{r3, pc}
 123              	.LVL10:
 124              	.L17:
 125              		.loc 1 105 0
 126 002a 0020     		movs	r0, #0
 127              	.LVL11:
 128              		.loc 1 110 0
 129 002c 08BD     		pop	{r3, pc}
 130              		.cfi_endproc
 131              	.LFE8:
 132              		.size	ip4_addr_netmask_valid, .-ip4_addr_netmask_valid
 133 002e 00BF     		.section	.text.ipaddr_aton,"ax",%progbits
 134              		.align	2
 135              		.p2align 4,,15
 136              		.global	ipaddr_aton
 137              		.thumb
 138              		.thumb_func
 139              		.type	ipaddr_aton, %function
 140              	ipaddr_aton:
 141              	.LFB10:
 142              		.loc 1 153 0
 143              		.cfi_startproc
 144              		@ args = 0, pretend = 0, frame = 24
 145              		@ frame_needed = 0, uses_anonymous_args = 0
 146              	.LVL12:
 147 0000 2DE9F047 		push	{r4, r5, r6, r7, r8, r9, r10, lr}
 148              		.cfi_def_cfa_offset 32
 149              		.cfi_offset 4, -32
 150              		.cfi_offset 5, -28
 151              		.cfi_offset 6, -24
 152              		.cfi_offset 7, -20
 153              		.cfi_offset 8, -16
 154              		.cfi_offset 9, -12
 155              		.cfi_offset 10, -8
 156              		.cfi_offset 14, -4
 157              		.loc 1 160 0
 158 0004 0378     		ldrb	r3, [r0]	@ zero_extendqisi2
 159              		.loc 1 167 0
 160 0006 A3F13004 		sub	r4, r3, #48
 161              		.loc 1 153 0
 162 000a 0246     		mov	r2, r0
 163              		.loc 1 167 0
 164 000c E0B2     		uxtb	r0, r4
 165              	.LVL13:
 166 000e 0928     		cmp	r0, #9
 167              		.loc 1 153 0
 168 0010 86B0     		sub	sp, sp, #24
 169              		.cfi_def_cfa_offset 56
 170              	.LVL14:
 171              		.loc 1 158 0
ARM GAS  /tmp/ccNwtsdD.s 			page 4


 172 0012 9EBF     		ittt	ls
 173 0014 0DF1080A 		addls	r10, sp, #8
 174 0018 D046     		movls	r8, r10
 175              		.loc 1 196 0
 176 001a 0DF11409 		addls	r9, sp, #20
 177              		.loc 1 167 0
 178 001e 34D8     		bhi	.L30
 179              	.LVL15:
 180              	.L31:
 181              		.loc 1 171 0
 182 0020 302B     		cmp	r3, #48
 183              		.loc 1 170 0
 184 0022 18BF     		it	ne
 185 0024 4FF00A0C 		movne	ip, #10
 186              		.loc 1 171 0
 187 0028 34D0     		beq	.L48
 188              	.LVL16:
 189              	.L22:
 190              		.loc 1 174 0
 191 002a 0027     		movs	r7, #0
 192 002c 06E0     		b	.L24
 193              	.LVL17:
 194              	.L49:
 195              		.loc 1 181 0
 196 002e 0CFB0737 		mla	r7, ip, r7, r3
 197              	.LVL18:
 198              		.loc 1 182 0
 199 0032 5378     		ldrb	r3, [r2, #1]	@ zero_extendqisi2
 200              	.LVL19:
 201              		.loc 1 181 0
 202 0034 303F     		subs	r7, r7, #48
 203              	.LVL20:
 204              	.L26:
 205 0036 0132     		adds	r2, r2, #1
 206 0038 A3F13004 		sub	r4, r3, #48
 207              	.LVL21:
 208              	.L24:
 209              		.loc 1 180 0
 210 003c E5B2     		uxtb	r5, r4
 211              		.loc 1 183 0
 212 003e 23F02006 		bic	r6, r3, #32
 213 0042 413E     		subs	r6, r6, #65
 214 0044 A3F16104 		sub	r4, r3, #97
 215              		.loc 1 180 0
 216 0048 092D     		cmp	r5, #9
 217              		.loc 1 183 0
 218 004a F6B2     		uxtb	r6, r6
 219 004c E4B2     		uxtb	r4, r4
 220              		.loc 1 180 0
 221 004e EED9     		bls	.L49
 222              		.loc 1 183 0
 223 0050 BCF1100F 		cmp	ip, #16
 224 0054 0BD1     		bne	.L27
 225              		.loc 1 183 0 is_stmt 0 discriminator 1
 226 0056 052E     		cmp	r6, #5
 227 0058 09D8     		bhi	.L27
 228              		.loc 1 184 0 is_stmt 1
ARM GAS  /tmp/ccNwtsdD.s 			page 5


 229 005a 0A33     		adds	r3, r3, #10
 230              	.LVL22:
 231 005c 192C     		cmp	r4, #25
 232 005e 8CBF     		ite	hi
 233 0060 4124     		movhi	r4, #65
 234 0062 6124     		movls	r4, #97
 235 0064 1C1B     		subs	r4, r3, r4
 236 0066 44EA0717 		orr	r7, r4, r7, lsl #4
 237              	.LVL23:
 238              		.loc 1 185 0
 239 006a 5378     		ldrb	r3, [r2, #1]	@ zero_extendqisi2
 240              	.LVL24:
 241 006c E3E7     		b	.L26
 242              	.LVL25:
 243              	.L27:
 244              		.loc 1 189 0
 245 006e 2E2B     		cmp	r3, #46
 246 0070 20D1     		bne	.L29
 247              		.loc 1 196 0
 248 0072 C845     		cmp	r8, r9
 249 0074 09D0     		beq	.L30
 250              		.loc 1 200 0
 251 0076 5378     		ldrb	r3, [r2, #1]	@ zero_extendqisi2
 252              	.LVL26:
 253              		.loc 1 199 0
 254 0078 48F8047B 		str	r7, [r8], #4
 255              	.LVL27:
 256              		.loc 1 167 0
 257 007c A3F13004 		sub	r4, r3, #48
 258 0080 E0B2     		uxtb	r0, r4
 259 0082 0928     		cmp	r0, #9
 260              		.loc 1 200 0
 261 0084 02F10102 		add	r2, r2, #1
 262              	.LVL28:
 263              		.loc 1 167 0
 264 0088 CAD9     		bls	.L31
 265              	.LVL29:
 266              	.L30:
 267              		.loc 1 168 0
 268 008a 0023     		movs	r3, #0
 269              	.LVL30:
 270              	.L21:
 271              		.loc 1 250 0
 272 008c 1846     		mov	r0, r3
 273 008e 06B0     		add	sp, sp, #24
 274              		@ sp needed
 275 0090 BDE8F087 		pop	{r4, r5, r6, r7, r8, r9, r10, pc}
 276              	.LVL31:
 277              	.L48:
 278              		.loc 1 172 0
 279 0094 5378     		ldrb	r3, [r2, #1]	@ zero_extendqisi2
 280              	.LVL32:
 281              		.loc 1 173 0
 282 0096 03F0DF00 		and	r0, r3, #223
 283 009a 5828     		cmp	r0, #88
 284              		.loc 1 175 0
 285 009c 0DBF     		iteet	eq
ARM GAS  /tmp/ccNwtsdD.s 			page 6


 286 009e 9378     		ldrbeq	r3, [r2, #2]	@ zero_extendqisi2
 287              		.loc 1 172 0
 288 00a0 0132     		addne	r2, r2, #1
 289              	.LVL33:
 290              		.loc 1 177 0
 291 00a2 4FF0080C 		movne	ip, #8
 292              		.loc 1 174 0
 293 00a6 4FF0100C 		moveq	ip, #16
 294              		.loc 1 175 0
 295 00aa 08BF     		it	eq
 296 00ac 0232     		addeq	r2, r2, #2
 297              	.LVL34:
 298 00ae A3F13004 		sub	r4, r3, #48
 299 00b2 BAE7     		b	.L22
 300              	.LVL35:
 301              	.L29:
 302              		.loc 1 207 0
 303 00b4 13F0DF0F 		tst	r3, #223
 304 00b8 03D0     		beq	.L32
 305              		.loc 1 207 0 is_stmt 0 discriminator 1
 306 00ba 093B     		subs	r3, r3, #9
 307              	.LVL36:
 308 00bc DBB2     		uxtb	r3, r3
 309              	.LVL37:
 310 00be 042B     		cmp	r3, #4
 311 00c0 E3D8     		bhi	.L30
 312              	.L32:
 313              		.loc 1 214 0 is_stmt 1
 314 00c2 CAEB0803 		rsb	r3, r10, r8
 315 00c6 9B10     		asrs	r3, r3, #2
 316 00c8 0133     		adds	r3, r3, #1
 317 00ca 042B     		cmp	r3, #4
 318 00cc 32D8     		bhi	.L33
 319 00ce 01A2     		adr	r2, .L34
 320 00d0 52F823F0 		ldr	pc, [r2, r3, lsl #2]
 321              	.LVL38:
 322              		.p2align 2
 323              	.L34:
 324 00d4 8D000000 		.word	.L21+1
 325 00d8 F5000000 		.word	.L35+1
 326 00dc E9000000 		.word	.L36+1
 327 00e0 21010000 		.word	.L37+1
 328 00e4 0B010000 		.word	.L38+1
 329              	.L36:
 330              		.loc 1 223 0
 331 00e8 B7F1807F 		cmp	r7, #16777216
 332 00ec CDD2     		bcs	.L30
 333              		.loc 1 226 0
 334 00ee 029B     		ldr	r3, [sp, #8]
 335 00f0 47EA0367 		orr	r7, r7, r3, lsl #24
 336              	.LVL39:
 337              	.L35:
 338              		.loc 1 249 0
 339 00f4 0123     		movs	r3, #1
 340              		.loc 1 246 0
 341 00f6 0029     		cmp	r1, #0
 342 00f8 C8D0     		beq	.L21
ARM GAS  /tmp/ccNwtsdD.s 			page 7


 343              		.loc 1 247 0
 344 00fa 3846     		mov	r0, r7
 345 00fc 0191     		str	r1, [sp, #4]
 346 00fe FFF7FEFF 		bl	lwip_htonl
 347              	.LVL40:
 348 0102 0199     		ldr	r1, [sp, #4]
 349              		.loc 1 249 0
 350 0104 0123     		movs	r3, #1
 351              		.loc 1 247 0
 352 0106 0860     		str	r0, [r1]
 353 0108 C0E7     		b	.L21
 354              	.LVL41:
 355              	.L38:
 356              		.loc 1 237 0
 357 010a FF2F     		cmp	r7, #255
 358 010c BDD8     		bhi	.L30
 359              		.loc 1 240 0
 360 010e 02A8     		add	r0, sp, #8
 361 0110 0DC8     		ldmia	r0, {r0, r2, r3}
 362 0112 0006     		lsls	r0, r0, #24
 363 0114 40EA0242 		orr	r2, r0, r2, lsl #16
 364 0118 42EA0323 		orr	r3, r2, r3, lsl #8
 365 011c 1F43     		orrs	r7, r7, r3
 366              	.LVL42:
 367              		.loc 1 241 0
 368 011e E9E7     		b	.L35
 369              	.L37:
 370              		.loc 1 230 0
 371 0120 B7F5803F 		cmp	r7, #65536
 372 0124 B1D2     		bcs	.L30
 373              		.loc 1 233 0
 374 0126 029A     		ldr	r2, [sp, #8]
 375 0128 039B     		ldr	r3, [sp, #12]
 376 012a 1206     		lsls	r2, r2, #24
 377 012c 42EA0343 		orr	r3, r2, r3, lsl #16
 378 0130 1F43     		orrs	r7, r7, r3
 379              	.LVL43:
 380              		.loc 1 234 0
 381 0132 DFE7     		b	.L35
 382              	.L33:
 383              		.loc 1 243 0 discriminator 1
 384 0134 0191     		str	r1, [sp, #4]
 385 0136 FFF7FEFF 		bl	port_halt
 386              	.LVL44:
 387 013a 0199     		ldr	r1, [sp, #4]
 388              		.loc 1 244 0 discriminator 1
 389 013c DAE7     		b	.L35
 390              		.cfi_endproc
 391              	.LFE10:
 392              		.size	ipaddr_aton, .-ipaddr_aton
 393 013e 00BF     		.section	.text.ipaddr_addr,"ax",%progbits
 394              		.align	2
 395              		.p2align 4,,15
 396              		.global	ipaddr_addr
 397              		.thumb
 398              		.thumb_func
 399              		.type	ipaddr_addr, %function
ARM GAS  /tmp/ccNwtsdD.s 			page 8


 400              	ipaddr_addr:
 401              	.LFB9:
 402              		.loc 1 131 0
 403              		.cfi_startproc
 404              		@ args = 0, pretend = 0, frame = 8
 405              		@ frame_needed = 0, uses_anonymous_args = 0
 406              	.LVL45:
 407 0000 00B5     		push	{lr}
 408              		.cfi_def_cfa_offset 4
 409              		.cfi_offset 14, -4
 410 0002 83B0     		sub	sp, sp, #12
 411              		.cfi_def_cfa_offset 16
 412              		.loc 1 134 0
 413 0004 01A9     		add	r1, sp, #4
 414 0006 FFF7FEFF 		bl	ipaddr_aton
 415              	.LVL46:
 416 000a 20B9     		cbnz	r0, .L53
 417              		.loc 1 137 0
 418 000c 4FF0FF30 		mov	r0, #-1
 419              		.loc 1 138 0
 420 0010 03B0     		add	sp, sp, #12
 421              		@ sp needed
 422 0012 5DF804FB 		ldr	pc, [sp], #4
 423              	.L53:
 424              		.loc 1 135 0
 425 0016 0198     		ldr	r0, [sp, #4]
 426              		.loc 1 138 0
 427 0018 03B0     		add	sp, sp, #12
 428              		@ sp needed
 429 001a 5DF804FB 		ldr	pc, [sp], #4
 430              		.cfi_endproc
 431              	.LFE9:
 432              		.size	ipaddr_addr, .-ipaddr_addr
 433 001e 00BF     		.section	.text.ipaddr_ntoa_r,"ax",%progbits
 434              		.align	2
 435              		.p2align 4,,15
 436              		.global	ipaddr_ntoa_r
 437              		.thumb
 438              		.thumb_func
 439              		.type	ipaddr_ntoa_r, %function
 440              	ipaddr_ntoa_r:
 441              	.LFB12:
 442              		.loc 1 277 0
 443              		.cfi_startproc
 444              		@ args = 0, pretend = 0, frame = 8
 445              		@ frame_needed = 0, uses_anonymous_args = 0
 446              		@ link register save eliminated.
 447              	.LVL47:
 448 0000 2DE9F00F 		push	{r4, r5, r6, r7, r8, r9, r10, fp}
 449              		.cfi_def_cfa_offset 32
 450              		.cfi_offset 4, -32
 451              		.cfi_offset 5, -28
 452              		.cfi_offset 6, -24
 453              		.cfi_offset 7, -20
 454              		.cfi_offset 8, -16
 455              		.cfi_offset 9, -12
 456              		.cfi_offset 10, -8
ARM GAS  /tmp/ccNwtsdD.s 			page 9


 457              		.cfi_offset 11, -4
 458              		.loc 1 287 0
 459 0004 0368     		ldr	r3, [r0]
 460              		.loc 1 277 0
 461 0006 82B0     		sub	sp, sp, #8
 462              		.cfi_def_cfa_offset 40
 463              		.loc 1 295 0
 464 0008 4CF6CD48 		movw	r8, #52429
 465              		.loc 1 287 0
 466 000c 0193     		str	r3, [sp, #4]
 467              	.LVL48:
 468              		.loc 1 289 0
 469 000e 0E46     		mov	r6, r1
 470 0010 02F10109 		add	r9, r2, #1
 471              		.loc 1 295 0
 472 0014 CCF6CC48 		movt	r8, 52428
 473 0018 0DF1030A 		add	r10, sp, #3
 474 001c 0DF10700 		add	r0, sp, #7
 475              	.LVL49:
 476              		.loc 1 285 0
 477 0020 4FF0000B 		mov	fp, #0
 478              	.LVL50:
 479              	.L63:
 480 0024 9AF80140 		ldrb	r4, [r10, #1]	@ zero_extendqisi2
 481              		.loc 1 307 0 discriminator 1
 482 0028 0025     		movs	r5, #0
 483 002a 00E0     		b	.L56
 484              	.LVL51:
 485              	.L67:
 486              		.loc 1 296 0
 487 002c 3D46     		mov	r5, r7
 488              	.LVL52:
 489              	.L56:
 490              		.loc 1 295 0 discriminator 1
 491 002e A8FB0473 		umull	r7, r3, r8, r4
 492 0032 DB08     		lsrs	r3, r3, #3
 493              		.loc 1 294 0 discriminator 1
 494 0034 03EB830C 		add	ip, r3, r3, lsl #2
 495 0038 A4EB4C0C 		sub	ip, r4, ip, lsl #1
 496              		.loc 1 296 0 discriminator 1
 497 003c 02AC     		add	r4, sp, #8
 498              	.LVL53:
 499 003e 2C44     		add	r4, r4, r5
 500 0040 0CF1300C 		add	ip, ip, #48
 501 0044 5FFA8CFC 		uxtb	ip, ip
 502 0048 6F1C     		adds	r7, r5, #1
 503 004a 04F808CC 		strb	ip, [r4, #-8]
 504 004e FFB2     		uxtb	r7, r7
 505              	.LVL54:
 506              		.loc 1 297 0 discriminator 1
 507 0050 03F0FF04 		and	r4, r3, #255
 508 0054 002B     		cmp	r3, #0
 509 0056 E9D1     		bne	.L67
 510 0058 6346     		mov	r3, ip
 511 005a A446     		mov	ip, r4
 512 005c 0AF801CF 		strb	ip, [r10, #1]!
 513              	.LVL55:
ARM GAS  /tmp/ccNwtsdD.s 			page 10


 514 0060 1C46     		mov	r4, r3
 515              		.loc 1 298 0
 516 0062 6FB3     		cbz	r7, .L64
 517              		.loc 1 299 0
 518 0064 5A45     		cmp	r2, fp
 519 0066 0BF10107 		add	r7, fp, #1
 520              	.LVL56:
 521 006a 22DD     		ble	.L58
 522 006c 6B1E     		subs	r3, r5, #1
 523 006e DBB2     		uxtb	r3, r3
 524 0070 05E0     		b	.L59
 525              	.LVL57:
 526              	.L61:
 527 0072 0137     		adds	r7, r7, #1
 528              	.LVL58:
 529 0074 4F45     		cmp	r7, r9
 530 0076 1CD0     		beq	.L58
 531 0078 13F8084C 		ldrb	r4, [r3, #-8]	@ zero_extendqisi2
 532 007c 2B46     		mov	r3, r5
 533              	.L59:
 534              	.LVL59:
 535 007e 5D1E     		subs	r5, r3, #1
 536              		.loc 1 302 0
 537 0080 06F8014B 		strb	r4, [r6], #1
 538              	.LVL60:
 539              		.loc 1 298 0
 540 0084 FF2B     		cmp	r3, #255
 541 0086 02AC     		add	r4, sp, #8
 542 0088 EDB2     		uxtb	r5, r5
 543 008a 2344     		add	r3, r3, r4
 544              	.LVL61:
 545 008c F1D1     		bne	.L61
 546              	.L57:
 547              		.loc 1 304 0
 548 008e BA42     		cmp	r2, r7
 549 0090 07F1010B 		add	fp, r7, #1
 550              	.LVL62:
 551 0094 0DDD     		ble	.L58
 552              		.loc 1 307 0
 553 0096 4FF02E07 		mov	r7, #46
 554              		.loc 1 291 0
 555 009a 8245     		cmp	r10, r0
 556              		.loc 1 307 0
 557 009c 3770     		strb	r7, [r6]
 558 009e 06F10103 		add	r3, r6, #1
 559              	.LVL63:
 560              		.loc 1 291 0
 561 00a2 0BD1     		bne	.L68
 562              	.LVL64:
 563              		.loc 1 310 0
 564 00a4 0023     		movs	r3, #0
 565              	.LVL65:
 566              		.loc 1 311 0
 567 00a6 0846     		mov	r0, r1
 568              		.loc 1 310 0
 569 00a8 3370     		strb	r3, [r6]
 570              		.loc 1 312 0
ARM GAS  /tmp/ccNwtsdD.s 			page 11


 571 00aa 02B0     		add	sp, sp, #8
 572              		@ sp needed
 573 00ac BDE8F00F 		pop	{r4, r5, r6, r7, r8, r9, r10, fp}
 574              	.LVL66:
 575 00b0 7047     		bx	lr
 576              	.LVL67:
 577              	.L58:
 578              		.loc 1 300 0
 579 00b2 0020     		movs	r0, #0
 580              		.loc 1 312 0
 581 00b4 02B0     		add	sp, sp, #8
 582              		@ sp needed
 583 00b6 BDE8F00F 		pop	{r4, r5, r6, r7, r8, r9, r10, fp}
 584              	.LVL68:
 585 00ba 7047     		bx	lr
 586              	.LVL69:
 587              	.L68:
 588              		.loc 1 307 0
 589 00bc 1E46     		mov	r6, r3
 590 00be B1E7     		b	.L63
 591              	.LVL70:
 592              	.L64:
 593              		.loc 1 298 0
 594 00c0 5F46     		mov	r7, fp
 595 00c2 E4E7     		b	.L57
 596              		.cfi_endproc
 597              	.LFE12:
 598              		.size	ipaddr_ntoa_r, .-ipaddr_ntoa_r
 599 00c4 AFF30080 		.section	.text.ipaddr_ntoa,"ax",%progbits
 599      AFF30080 
 599      AFF30080 
 600              		.align	2
 601              		.p2align 4,,15
 602              		.global	ipaddr_ntoa
 603              		.thumb
 604              		.thumb_func
 605              		.type	ipaddr_ntoa, %function
 606              	ipaddr_ntoa:
 607              	.LFB11:
 608              		.loc 1 262 0
 609              		.cfi_startproc
 610              		@ args = 0, pretend = 0, frame = 0
 611              		@ frame_needed = 0, uses_anonymous_args = 0
 612              		@ link register save eliminated.
 613              	.LVL71:
 614              		.loc 1 264 0
 615 0000 40F20001 		movw	r1, #:lower16:.LANCHOR0
 616 0004 C0F20001 		movt	r1, #:upper16:.LANCHOR0
 617 0008 1022     		movs	r2, #16
 618 000a FFF7FEBF 		b	ipaddr_ntoa_r
 619              	.LVL72:
 620              		.cfi_endproc
 621              	.LFE11:
 622              		.size	ipaddr_ntoa, .-ipaddr_ntoa
 623              		.global	ip_addr_broadcast
 624              		.global	ip_addr_any
 625              		.section	.bss.str.5034,"aw",%nobits
ARM GAS  /tmp/ccNwtsdD.s 			page 12


 626              		.align	2
 627              		.set	.LANCHOR0,. + 0
 628              		.type	str.5034, %object
 629              		.size	str.5034, 16
 630              	str.5034:
 631 0000 00000000 		.space	16
 631      00000000 
 631      00000000 
 631      00000000 
 632              		.section	.rodata.ip_addr_broadcast,"a",%progbits
 633              		.align	2
 634              		.type	ip_addr_broadcast, %object
 635              		.size	ip_addr_broadcast, 4
 636              	ip_addr_broadcast:
 637 0000 FFFFFFFF 		.word	-1
 638              		.section	.rodata.ip_addr_any,"a",%progbits
 639              		.align	2
 640              		.type	ip_addr_any, %object
 641              		.size	ip_addr_any, 4
 642              	ip_addr_any:
 643 0000 00000000 		.space	4
 644              		.text
 645              	.Letext0:
 646              		.file 2 "/usr/include/newlib/machine/_default_types.h"
 647              		.file 3 "/usr/include/newlib/stdint.h"
 648              		.file 4 "../../os/various/lwip_bindings/arch/cc.h"
 649              		.file 5 "../../ext/lwip/src/include/ipv4/lwip/ip_addr.h"
 650              		.file 6 "../../ext/lwip/src/include/lwip/err.h"
 651              		.file 7 "../../ext/lwip/src/include/lwip/pbuf.h"
 652              		.file 8 "../../ext/lwip/src/include/lwip/netif.h"
 653              		.file 9 "../../ext/lwip/src/include/lwip/def.h"
 654              		.file 10 "../../os/ports/GCC/ARMCMx/chcore_v7m.h"