ARM GAS  /tmp/ccNwtsdD.s 			page 1


   1              		.syntax unified
   2              		.cpu cortex-m4
   3              		.fpu softvfp
   4              		.eabi_attribute 20, 1
   5              		.eabi_attribute 21, 1
   6              		.eabi_attribute 23, 3
   7              		.eabi_attribute 24, 1
   8              		.eabi_attribute 25, 1
   9              		.eabi_attribute 26, 1
  10              		.eabi_attribute 30, 2
  11              		.eabi_attribute 34, 1
  12              		.eabi_attribute 18, 4
  13              		.thumb
  14              		.file	"ip_addr.c"
  15              		.text
  16              	.Ltext0:
  17              		.cfi_sections	.debug_frame
  18              		.section	.text.ip4_addr_isbroadcast,"ax",%progbits
  19              		.align	2
  20              		.p2align 4,,15
  21              		.global	ip4_addr_isbroadcast
  22              		.thumb
  23              		.thumb_func
  24              		.type	ip4_addr_isbroadcast, %function
  25              	ip4_addr_isbroadcast:
  26              	.LFB7:
  27              		.file 1 "../../ext/lwip/src/core/ipv4/ip_addr.c"
  28              		.loc 1 56 0
  29              		.cfi_startproc
  30              		@ args = 0, pretend = 0, frame = 0
  31              		@ frame_needed = 0, uses_anonymous_args = 0
  32              		@ link register save eliminated.
  33              	.LVL0:
  34              		.loc 1 61 0
  35 0000 431E     		subs	r3, r0, #1
  36 0002 0333     		adds	r3, r3, #3
  37 0004 11D8     		bhi	.L5
  38              		.loc 1 65 0
  39 0006 91F82930 		ldrb	r3, [r1, #41]	@ zero_extendqisi2
  40 000a 03F00203 		and	r3, r3, #2
  41 000e 53B1     		cbz	r3, .L7
  42              		.loc 1 70 0
  43 0010 4B68     		ldr	r3, [r1, #4]
  44 0012 8342     		cmp	r3, r0
  45 0014 07D0     		beq	.L7
  46              		.loc 1 73 0
  47 0016 8A68     		ldr	r2, [r1, #8]
  48 0018 4340     		eors	r3, r3, r0
  49 001a 1342     		tst	r3, r2
  50 001c 03D1     		bne	.L7
  51              		.loc 1 75 0
  52 001e D243     		mvns	r2, r2
  53 0020 1040     		ands	r0, r0, r2
  54              	.LVL1:
  55 0022 8242     		cmp	r2, r0
  56 0024 01D0     		beq	.L5
  57              	.L7:
ARM GAS  /tmp/ccNwtsdD.s 			page 2


  58              		.loc 1 68 0
  59 0026 0020     		movs	r0, #0
  60              		.loc 1 82 0
  61 0028 7047     		bx	lr
  62              	.L5:
  63              		.loc 1 63 0
  64 002a 0120     		movs	r0, #1
  65 002c 7047     		bx	lr
  66              		.cfi_endproc
  67              	.LFE7:
  68              		.size	ip4_addr_isbroadcast, .-ip4_addr_isbroadcast
  69 002e 00BF     		.section	.text.ip4_addr_netmask_valid,"ax",%progbits
  70              		.align	2
  71              		.p2align 4,,15
  72              		.global	ip4_addr_netmask_valid
  73              		.thumb
  74              		.thumb_func
  75              		.type	ip4_addr_netmask_valid, %function
  76              	ip4_addr_netmask_valid:
  77              	.LFB8:
  78              		.loc 1 91 0
  79              		.cfi_startproc
  80              		@ args = 0, pretend = 0, frame = 0
  81              		@ frame_needed = 0, uses_anonymous_args = 0
  82              	.LVL2:
  83 0000 08B5     		push	{r3, lr}
  84              		.cfi_def_cfa_offset 8
  85              		.cfi_offset 3, -8
  86              		.cfi_offset 14, -4
  87              		.loc 1 93 0
  88 0002 FFF7FEFF 		bl	lwip_htonl
  89              	.LVL3:
  90 0006 2022     		movs	r2, #32
  91              		.loc 1 96 0
  92 0008 4FF00043 		mov	r3, #-2147483648
  93 000c 03E0     		b	.L13
  94              	.LVL4:
  95              	.L10:
  96 000e 013A     		subs	r2, r2, #1
  97 0010 4FEA5303 		lsr	r3, r3, #1
  98              	.LVL5:
  99 0014 07D0     		beq	.L16
 100              	.LVL6:
 101              	.L13:
 102              		.loc 1 97 0
 103 0016 0342     		tst	r3, r0
 104 0018 F9D1     		bne	.L10
 105              		.loc 1 102 0 discriminator 1
 106 001a 13B9     		cbnz	r3, .L12
 107 001c 03E0     		b	.L16
 108              	.L14:
 109              		.loc 1 103 0
 110 001e 1842     		tst	r0, r3
 111 0020 03D1     		bne	.L17
 112              	.L12:
 113              	.LVL7:
 114              		.loc 1 102 0
ARM GAS  /tmp/ccNwtsdD.s 			page 3


 115 0022 5B08     		lsrs	r3, r3, #1
 116              	.LVL8:
 117 0024 FBD1     		bne	.L14
 118              	.L16:
 119              		.loc 1 109 0
 120 0026 0120     		movs	r0, #1
 121              	.LVL9:
 122 0028 08BD     		pop	{r3, pc}
 123              	.LVL10:
 124              	.L17:
 125              		.loc 1 105 0
 126 002a 0020     		movs	r0, #0
 127              	.LVL11:
 128              		.loc 1 110 0
 129 002c 08BD     		pop	{r3, pc}
 130              		.cfi_endproc
 131              	.LFE8:
 132              		.size	ip4_addr_netmask_valid, .-ip4_addr_netmask_valid
 133 002e 00BF     		.section	.text.ipaddr_aton,"ax",%progbits
 134              		.align	2
 135              		.p2align 4,,15
 136              		.global	ipaddr_aton
 137              		.thumb
 138              		.thumb_func
 139              		.type	ipaddr_aton, %function
 140              	ipaddr_aton:
 141              	.LFB10:
 142              		.loc 1 153 0
 143              		.cfi_startproc
 144              		@ args = 0, pretend = 0, frame = 24
 145              		@ frame_needed = 0, uses_anonymous_args = 0
 146              	.LVL12:
 147 0000 2DE9F047 		push	{r4, r5, r6, r7, r8, r9, r10, lr}
 148              		.cfi_def_cfa_offset 32
 149              		.cfi_offset 4, -32
 150              		.cfi_offset 5, -28
 151              		.cfi_offset 6, -24
 152              		.cfi_offset 7, -20
 153              		.cfi_offset 8, -16
 154              		.cfi_offset 9, -12
 155              		.cfi_offset 10, -8
 156              		.cfi_offset 14, -4
 157              		.loc 1 160 0
 158 0004 0378     		ldrb	r3, [r0]	@ zero_extendqisi2
 159              		.loc 1 167 0
 160 0006 A3F13004 		sub	r4, r3, #48
 161              		.loc 1 153 0
 162 000a 0246     		mov	r2, r0
 163              		.loc 1 167 0
 164 000c E0B2     		uxtb	r0, r4
 165              	.LVL13:
 166 000e 0928     		cmp	r0, #9
 167              		.loc 1 153 0
 168 0010 86B0     		sub	sp, sp, #24
 169              		.cfi_def_cfa_offset 56
 170              	.LVL14:
 171              		.loc 1 158 0
ARM GAS  /tmp/ccNwtsdD.s 			page 4


 172 0012 9EBF     		ittt	ls
 173 0014 0DF1080A 		addls	r10, sp, #8
 174 0018 D046     		movls	r8, r10
 175              		.loc 1 196 0
 176 001a 0DF11409 		addls	r9, sp, #20
 177              		.loc 1 167 0
 178 001e 34D8     		bhi	.L30
 179              	.LVL15:
 180              	.L31:
 181              		.loc 1 171 0
 182 0020 302B     		cmp	r3, #48
 183              		.loc 1 170 0
 184 0022 18BF     		it	ne
 185 0024 4FF00A0C 		movne	ip, #10
 186              		.loc 1 171 0
 187 0028 34D0     		beq	.L48
 188              	.LVL16:
 189              	.L22:
 190              		.loc 1 174 0
 191 002a 0027     		movs	r7, #0
 192 002c 06E0     		b	.L24
 193              	.LVL17:
 194              	.L49:
 195              		.loc 1 181 0
 196 002e 0CFB0737 		mla	r7, ip, r7, r3
 197              	.LVL18:
 198              		.loc 1 182 0
 199 0032 5378     		ldrb	r3, [r2, #1]	@ zero_extendqisi2
 200              	.LVL19:
 201              		.loc 1 181 0
 202 0034 303F     		subs	r7, r7, #48
 203              	.LVL20:
 204              	.L26:
 205 0036 0132     		adds	r2, r2, #1
 206 0038 A3F13004 		sub	r4, r3, #48
 207              	.LVL21:
 208              	.L24:
 209              		.loc 1 180 0
 210 003c E5B2     		uxtb	r5, r4
 211              		.loc 1 183 0
 212 003e 23F02006 		bic	r6, r3, #32
 213 0042 413E     		subs	r6, r6, #65
 214 0044 A3F16104 		sub	r4, r3, #97
 215              		.loc 1 180 0
 216 0048 092D     		cmp	r5, #9
 217              		.loc 1 183 0
 218 004a F6B2     		uxtb	r6, r6
 219 004c E4B2     		uxtb	r4, r4
 220              		.loc 1 180 0
 221 004e EED9     		bls	.L49
 222              		.loc 1 183 0
 223 0050 BCF1100F 		cmp	ip, #16
 224 0054 0BD1     		bne	.L27
 225              		.loc 1 183 0 is_stmt 0 discriminator 1
 226 0056 052E     		cmp	r6, #5
 227 0058 09D8     		bhi	.L27
 228              		.loc 1 184 0 is_stmt 1
ARM GAS  /tmp/ccNwtsdD.s 			page 5


 229 005a 0A33     		adds	r3, r3, #10
 230              	.LVL22:
 231 005c 192C     		cmp	r4, #25
 232 005e 8CBF     		ite	hi
 233 0060 4124     		movhi	r4, #65
 234 0062 6124     		movls	r4, #97
 235 0064 1C1B     		subs	r4, r3, r4
 236 0066 44EA0717 		orr	r7, r4, r7, lsl #4
 237              	.LVL23:
 238              		.loc 1 185 0
 239 006a 5378     		ldrb	r3, [r2, #1]	@ zero_extendqisi2
 240              	.LVL24:
 241 006c E3E7     		b	.L26
 242              	.LVL25:
 243              	.L27:
 244              		.loc 1 189 0
 245 006e 2E2B     		cmp	r3, #46
 246 0070 20D1     		bne	.L29
 247              		.loc 1 196 0
 248 0072 C845     		cmp	r8, r9
 249 0074 09D0     		beq	.L30
 250              		.loc 1 200 0
 251 0076 5378     		ldrb	r3, [r2, #1]	@ zero_extendqisi2
 252              	.LVL26:
 253              		.loc 1 199 0
 254 0078 48F8047B 		str	r7, [r8], #4
 255              	.LVL27:
 256              		.loc 1 167 0
 257 007c A3F13004 		sub	r4, r3, #48
 258 0080 E0B2     		uxtb	r0, r4
 259 0082 0928     		cmp	r0, #9
 260              		.loc 1 200 0
 261 0084 02F10102 		add	r2, r2, #1
 262              	.LVL28:
 263              		.loc 1 167 0
 264 0088 CAD9     		bls	.L31
 265              	.LVL29:
 266              	.L30:
 267              		.loc 1 168 0
 268 008a 0023     		movs	r3, #0
 269              	.LVL30:
 270              	.L21:
 271              		.loc 1 250 0
 272 008c 1846     		mov	r0, r3
 273 008e 06B0     		add	sp, sp, #24
 274              		@ sp needed
 275 0090 BDE8F087 		pop	{r4, r5, r6, r7, r8, r9, r10, pc}
 276              	.LVL31:
 277              	.L48:
 278              		.loc 1 172 0
 279 0094 5378     		ldrb	r3, [r2, #1]	@ zero_extendqisi2
 280              	.LVL32:
 281              		.loc 1 173 0
 282 0096 03F0DF00 		and	r0, r3, #223
 283 009a 5828     		cmp	r0, #88
 284              		.loc 1 175 0
 285 009c 0DBF     		iteet	eq
ARM GAS  /tmp/ccNwtsdD.s 			page 6


 286 009e 9378     		ldrbeq	r3, [r2, #2]	@ zero_extendqisi2
 287              		.loc 1 172 0
 288 00a0 0132     		addne	r2, r2, #1
 289              	.LVL33:
 290              		.loc 1 177 0
 291 00a2 4FF0080C 		movne	ip, #8
 292              		.loc 1 174 0
 293 00a6 4FF0100C 		moveq	ip, #16
 294              		.loc 1 175 0
 295 00aa 08BF     		it	eq
 296 00ac 0232     		addeq	r2, r2, #2
 297              	.LVL34:
 298 00ae A3F13004 		sub	r4, r3, #48
 299 00b2 BAE7     		b	.L22
 300              	.LVL35:
 301              	.L29:
 302              		.loc 1 207 0
 303 00b4 13F0DF0F 		tst	r3, #223
 304 00b8 03D0     		beq	.L32
 305              		.loc 1 207 0 is_stmt 0 discriminator 1
 306 00ba 093B     		subs	r3, r3, #9
 307              	.LVL36:
 308 00bc DBB2     		uxtb	r3, r3
 309              	.LVL37:
 310 00be 042B     		cmp	r3, #4
 311 00c0 E3D8     		bhi	.L30
 312              	.L32:
 313              		.loc 1 214 0 is_stmt 1
 314 00c2 CAEB0803 		rsb	r3, r10, r8
 315 00c6 9B10     		asrs	r3, r3, #2
 316 00c8 0133     		adds	r3, r3, #1
 317 00ca 042B     		cmp	r3, #4
 318 00cc 32D8     		bhi	.L33
 319 00ce 01A2     		adr	r2, .L34
 320 00d0 52F823F0 		ldr	pc, [r2, r3, lsl #2]
 321              	.LVL38:
 322              		.p2align 2
 323              	.L34:
 324 00d4 8D000000 		.word	.L21+1
 325 00d8 F5000000 		.word	.L35+1
 326 00dc E9000000 		.word	.L36+1
 327 00e0 21010000 		.word	.L37+1
 328 00e4 0B010000 		.word	.L38+1
 329              	.L36:
 330              		.loc 1 223 0
 331 00e8 B7F1807F 		cmp	r7, #16777216
 332 00ec CDD2     		bcs	.L30
 333              		.loc 1 226 0
 334 00ee 029B     		ldr	r3, [sp, #8]
 335 00f0 47EA0367 		orr	r7, r7, r3, lsl #24
 336              	.LVL39:
 337              	.L35:
 338              		.loc 1 249 0
 339 00f4 0123     		movs	r3, #1
 340              		.loc 1 246 0
 341 00f6 0029     		cmp	r1, #0
 342 00f8 C8D0     		beq	.L21
ARM GAS  /tmp/ccNwtsdD.s 			page 7


 343              		.loc 1 247 0
 344 00fa 3846     		mov	r0, r7
 345 00fc 0191     		str	r1, [sp, #4]
 346 00fe FFF7FEFF 		bl	lwip_htonl
 347              	.LVL40:
 348 0102 0199     		ldr	r1, [sp, #4]
 349              		.loc 1 249 0
 350 0104 0123     		movs	r3, #1
 351              		.loc 1 247 0
 352 0106 0860     		str	r0, [r1]
 353 0108 C0E7     		b	.L21
 354              	.LVL41:
 355              	.L38:
 356              		.loc 1 237 0
 357 010a FF2F     		cmp	r7, #255
 358 010c BDD8     		bhi	.L30
 359              		.loc 1 240 0
 360 010e 02A8     		add	r0, sp, #8
 361 0110 0DC8     		ldmia	r0, {r0, r2, r3}
 362 0112 0006     		lsls	r0, r0, #24
 363 0114 40EA0242 		orr	r2, r0, r2, lsl #16
 364 0118 42EA0323 		orr	r3, r2, r3, lsl #8
 365 011c 1F43     		orrs	r7, r7, r3
 366              	.LVL42:
 367              		.loc 1 241 0
 368 011e E9E7     		b	.L35
 369              	.L37:
 370              		.loc 1 230 0
 371 0120 B7F5803F 		cmp	r7, #65536
 372 0124 B1D2     		bcs	.L30
 373              		.loc 1 233 0
 374 0126 029A     		ldr	r2, [sp, #8]
 375 0128 039B     		ldr	r3, [sp, #12]
 376 012a 1206     		lsls	r2, r2, #24
 377 012c 42EA0343 		orr	r3, r2, r3, lsl #16
 378 0130 1F43     		orrs	r7, r7, r3
 379              	.LVL43:
 380              		.loc 1 234 0
 381 0132 DFE7     		b	.L35
 382              	.L33:
 383              		.loc 1 243 0 discriminator 1
 384 0134 0191     		str	r1, [sp, #4]
 385 0136 FFF7FEFF 		bl	port_halt
 386              	.LVL44:
 387 013a 0199     		ldr	r1, [sp, #4]
 388              		.loc 1 244 0 discriminator 1
 389 013c DAE7     		b	.L35
 390              		.cfi_endproc
 391              	.LFE10:
 392              		.size	ipaddr_aton, .-ipaddr_aton
 393 013e 00BF     		.section	.text.ipaddr_addr,"ax",%progbits
 394              		.align	2
 395              		.p2align 4,,15
 396              		.global	ipaddr_addr
 397              		.thumb
 398              		.thumb_func
 399              		.type	ipaddr_addr, %function
ARM GAS  /tmp/ccNwtsdD.s 			page 8


 400              	ipaddr_addr:
 401              	.LFB9:
 402              		.loc 1 131 0
 403              		.cfi_startproc
 404              		@ args = 0, pretend = 0, frame = 8
 405              		@ frame_needed = 0, uses_anonymous_args = 0
 406              	.LVL45:
 407 0000 00B5     		push	{lr}
 408              		.cfi_def_cfa_offset 4
 409              		.cfi_offset 14, -4
 410 0002 83B0     		sub	sp, sp, #12
 411              		.cfi_def_cfa_offset 16
 412              		.loc 1 134 0
 413 0004 01A9     		add	r1, sp, #4
 414 0006 FFF7FEFF 		bl	ipaddr_aton
 415              	.LVL46:
 416 000a 20B9     		cbnz	r0, .L53
 417              		.loc 1 137 0
 418 000c 4FF0FF30 		mov	r0, #-1
 419              		.loc 1 138 0
 420 0010 03B0     		add	sp, sp, #12
 421              		@ sp needed
 422 0012 5DF804FB 		ldr	pc, [sp], #4
 423              	.L53:
 424              		.loc 1 135 0
 425 0016 0198     		ldr	r0, [sp, #4]
 426              		.loc 1 138 0
 427 0018 03B0     		add	sp, sp, #12
 428              		@ sp needed
 429 001a 5DF804FB 		ldr	pc, [sp], #4
 430              		.cfi_endproc
 431              	.LFE9:
 432              		.size	ipaddr_addr, .-ipaddr_addr
 433 001e 00BF     		.section	.text.ipaddr_ntoa_r,"ax",%progbits
 434              		.align	2
 435              		.p2align 4,,15
 436              		.global	ipaddr_ntoa_r
 437              		.thumb
 438              		.thumb_func
 439              		.type	ipaddr_ntoa_r, %function
 440              	ipaddr_ntoa_r:
 441              	.LFB12:
 442              		.loc 1 277 0
 443              		.cfi_startproc
 444              		@ args = 0, pretend = 0, frame = 8
 445              		@ frame_needed = 0, uses_anonymous_args = 0
 446              		@ link register save eliminated.
 447              	.LVL47:
 448 0000 2DE9F00F 		push	{r4, r5, r6, r7, r8, r9, r10, fp}
 449              		.cfi_def_cfa_offset 32
 450              		.cfi_offset 4, -32
 451              		.cfi_offset 5, -28
 452              		.cfi_offset 6, -24
 453              		.cfi_offset 7, -20
 454              		.cfi_offset 8, -16
 455              		.cfi_offset 9, -12
 456              		.cfi_offset 10, -8
ARM GAS  /tmp/ccNwtsdD.s 			page 9


 457              		.cfi_offset 11, -4
 458              		.loc 1 287 0
 459 0004 0368     		ldr	r3, [r0]
 460              		.loc 1 277 0
 461 0006 82B0     		sub	sp, sp, #8
 462              		.cfi_def_cfa_offset 40
 463              		.loc 1 295 0
 464 0008 4CF6CD48 		movw	r8, #52429
 465              		.loc 1 287 0
 466 000c 0193     		str	r3, [sp, #4]
 467              	.LVL48:
 468              		.loc 1 289 0
 469 000e 0E46     		mov	r6, r1
 470 0010 02F10109 		add	r9, r2, #1
 471              		.loc 1 295 0
 472 0014 CCF6CC48 		movt	r8, 52428
 473 0018 0DF1030A 		add	r10, sp, #3
 474 001c 0DF10700 		add	r0, sp, #7
 475              	.LVL49:
 476              		.loc 1 285 0
 477 0020 4FF0000B 		mov	fp, #0
 478              	.LVL50:
 479              	.L63:
 480 0024 9AF80140 		ldrb	r4, [r10, #1]	@ zero_extendqisi2
 481              		.loc 1 307 0 discriminator 1
 482 0028 0025     		movs	r5, #0
 483 002a 00E0     		b	.L56
 484              	.LVL51:
 485              	.L67:
 486              		.loc 1 296 0
 487 002c 3D46     		mov	r5, r7
 488              	.LVL52:
 489              	.L56:
 490              		.loc 1 295 0 discriminator 1
 491 002e A8FB0473 		umull	r7, r3, r8, r4
 492 0032 DB08     		lsrs	r3, r3, #3
 493              		.loc 1 294 0 discriminator 1
 494 0034 03EB830C 		add	ip, r3, r3, lsl #2
 495 0038 A4EB4C0C 		sub	ip, r4, ip, lsl #1
 496              		.loc 1 296 0 discriminator 1
 497 003c 02AC     		add	r4, sp, #8
 498              	.LVL53:
 499 003e 2C44     		add	r4, r4, r5
 500 0040 0CF1300C 		add	ip, ip, #48
 501 0044 5FFA8CFC 		uxtb	ip, ip
 502 0048 6F1C     		adds	r7, r5, #1
 503 004a 04F808CC 		strb	ip, [r4, #-8]
 504 004e FFB2     		uxtb	r7, r7
 505              	.LVL54:
 506              		.loc 1 297 0 discriminator 1
 507 0050 03F0FF04 		and	r4, r3, #255
 508 0054 002B     		cmp	r3, #0
 509 0056 E9D1     		bne	.L67
 510 0058 6346     		mov	r3, ip
 511 005a A446     		mov	ip, r4
 512 005c 0AF801CF 		strb	ip, [r10, #1]!
 513              	.LVL55:
ARM GAS  /tmp/ccNwtsdD.s 			page 10


 514 0060 1C46     		mov	r4, r3
 515              		.loc 1 298 0
 516 0062 6FB3     		cbz	r7, .L64
 517              		.loc 1 299 0
 518 0064 5A45     		cmp	r2, fp
 519 0066 0BF10107 		add	r7, fp, #1
 520              	.LVL56:
 521 006a 22DD     		ble	.L58
 522 006c 6B1E     		subs	r3, r5, #1
 523 006e DBB2     		uxtb	r3, r3
 524 0070 05E0     		b	.L59
 525              	.LVL57:
 526              	.L61:
 527 0072 0137     		adds	r7, r7, #1
 528              	.LVL58:
 529 0074 4F45     		cmp	r7, r9
 530 0076 1CD0     		beq	.L58
 531 0078 13F8084C 		ldrb	r4, [r3, #-8]	@ zero_extendqisi2
 532 007c 2B46     		mov	r3, r5
 533              	.L59:
 534              	.LVL59:
 535 007e 5D1E     		subs	r5, r3, #1
 536              		.loc 1 302 0
 537 0080 06F8014B 		strb	r4, [r6], #1
 538              	.LVL60:
 539              		.loc 1 298 0
 540 0084 FF2B     		cmp	r3, #255
 541 0086 02AC     		add	r4, sp, #8
 542 0088 EDB2     		uxtb	r5, r5
 543 008a 2344     		add	r3, r3, r4
 544              	.LVL61:
 545 008c F1D1     		bne	.L61
 546              	.L57:
 547              		.loc 1 304 0
 548 008e BA42     		cmp	r2, r7
 549 0090 07F1010B 		add	fp, r7, #1
 550              	.LVL62:
 551 0094 0DDD     		ble	.L58
 552              		.loc 1 307 0
 553 0096 4FF02E07 		mov	r7, #46
 554              		.loc 1 291 0
 555 009a 8245     		cmp	r10, r0
 556              		.loc 1 307 0
 557 009c 3770     		strb	r7, [r6]
 558 009e 06F10103 		add	r3, r6, #1
 559              	.LVL63:
 560              		.loc 1 291 0
 561 00a2 0BD1     		bne	.L68
 562              	.LVL64:
 563              		.loc 1 310 0
 564 00a4 0023     		movs	r3, #0
 565              	.LVL65:
 566              		.loc 1 311 0
 567 00a6 0846     		mov	r0, r1
 568              		.loc 1 310 0
 569 00a8 3370     		strb	r3, [r6]
 570              		.loc 1 312 0
ARM GAS  /tmp/ccNwtsdD.s 			page 11


 571 00aa 02B0     		add	sp, sp, #8
 572              		@ sp needed
 573 00ac BDE8F00F 		pop	{r4, r5, r6, r7, r8, r9, r10, fp}
 574              	.LVL66:
 575 00b0 7047     		bx	lr
 576              	.LVL67:
 577              	.L58:
 578              		.loc 1 300 0
 579 00b2 0020     		movs	r0, #0
 580              		.loc 1 312 0
 581 00b4 02B0     		add	sp, sp, #8
 582              		@ sp needed
 583 00b6 BDE8F00F 		pop	{r4, r5, r6, r7, r8, r9, r10, fp}
 584              	.LVL68:
 585 00ba 7047     		bx	lr
 586              	.LVL69:
 587              	.L68:
 588              		.loc 1 307 0
 589 00bc 1E46     		mov	r6, r3
 590 00be B1E7     		b	.L63
 591              	.LVL70:
 592              	.L64:
 593              		.loc 1 298 0
 594 00c0 5F46     		mov	r7, fp
 595 00c2 E4E7     		b	.L57
 596              		.cfi_endproc
 597              	.LFE12:
 598              		.size	ipaddr_ntoa_r, .-ipaddr_ntoa_r
 599 00c4 AFF30080 		.section	.text.ipaddr_ntoa,"ax",%progbits
 599      AFF30080 
 599      AFF30080 
 600              		.align	2
 601              		.p2align 4,,15
 602              		.global	ipaddr_ntoa
 603              		.thumb
 604              		.thumb_func
 605              		.type	ipaddr_ntoa, %function
 606              	ipaddr_ntoa:
 607              	.LFB11:
 608              		.loc 1 262 0
 609              		.cfi_startproc
 610              		@ args = 0, pretend = 0, frame = 0
 611              		@ frame_needed = 0, uses_anonymous_args = 0
 612              		@ link register save eliminated.
 613              	.LVL71:
 614              		.loc 1 264 0
 615 0000 40F20001 		movw	r1, #:lower16:.LANCHOR0
 616 0004 C0F20001 		movt	r1, #:upper16:.LANCHOR0
 617 0008 1022     		movs	r2, #16
 618 000a FFF7FEBF 		b	ipaddr_ntoa_r
 619              	.LVL72:
 620              		.cfi_endproc
 621              	.LFE11:
 622              		.size	ipaddr_ntoa, .-ipaddr_ntoa
 623              		.global	ip_addr_broadcast
 624              		.global	ip_addr_any
 625              		.section	.bss.str.5034,"aw",%nobits
ARM GAS  /tmp/ccNwtsdD.s 			page 12


 626              		.align	2
 627              		.set	.LANCHOR0,. + 0
 628              		.type	str.5034, %object
 629              		.size	str.5034, 16
 630              	str.5034:
 631 0000 00000000 		.space	16
 631      00000000 
 631      00000000 
 631      00000000 
 632              		.section	.rodata.ip_addr_broadcast,"a",%progbits
 633              		.align	2
 634              		.type	ip_addr_broadcast, %object
 635              		.size	ip_addr_broadcast, 4
 636              	ip_addr_broadcast:
 637 0000 FFFFFFFF 		.word	-1
 638              		.section	.rodata.ip_addr_any,"a",%progbits
 639              		.align	2
 640              		.type	ip_addr_any, %object
 641              		.size	ip_addr_any, 4
 642              	ip_addr_any:
 643 0000 00000000 		.space	4
 644              		.text
 645              	.Letext0:
 646              		.file 2 "/usr/include/newlib/machine/_default_types.h"
 647              		.file 3 "/usr/include/newlib/stdint.h"
 648              		.file 4 "../../os/various/lwip_bindings/arch/cc.h"
 649              		.file 5 "../../ext/lwip/src/include/ipv4/lwip/ip_addr.h"
 650              		.file 6 "../../ext/lwip/src/include/lwip/err.h"
 651              		.file 7 "../../ext/lwip/src/include/lwip/pbuf.h"
 652              		.file 8 "../../ext/lwip/src/include/lwip/netif.h"
 653              		.file 9 "../../ext/lwip/src/include/lwip/def.h"
 654              		.file 10 "../../os/ports/GCC/ARMCMx/chcore_v7m.h"
 655              		.section	.debug_info,"",%progbits
 656              	.Ldebug_info0:
 657 0000 2F060000 		.4byte	0x62f
 658 0004 0400     		.2byte	0x4
 659 0006 00000000 		.4byte	.Ldebug_abbrev0
 660 000a 04       		.byte	0x4
 661 000b 01       		.uleb128 0x1
 662 000c 86020000 		.4byte	.LASF61
 663 0010 01       		.byte	0x1
 664 0011 23010000 		.4byte	.LASF62
 665 0015 76010000 		.4byte	.LASF63
 666 0019 00000000 		.4byte	.Ldebug_ranges0+0
 667 001d 00000000 		.4byte	0
 668 0021 00000000 		.4byte	.Ldebug_line0
 669 0025 02       		.uleb128 0x2
 670 0026 04       		.byte	0x4
 671 0027 05       		.byte	0x5
 672 0028 696E7400 		.ascii	"int\000"
 673 002c 03       		.uleb128 0x3
 674 002d 04       		.byte	0x4
 675 002e 07       		.byte	0x7
 676 002f D3000000 		.4byte	.LASF0
 677 0033 04       		.uleb128 0x4
 678 0034 42000000 		.4byte	.LASF2
 679 0038 02       		.byte	0x2
ARM GAS  /tmp/ccNwtsdD.s 			page 13


 680 0039 1B       		.byte	0x1b
 681 003a 3E000000 		.4byte	0x3e
 682 003e 03       		.uleb128 0x3
 683 003f 01       		.byte	0x1
 684 0040 06       		.byte	0x6
 685 0041 5E000000 		.4byte	.LASF1
 686 0045 04       		.uleb128 0x4
 687 0046 17000000 		.4byte	.LASF3
 688 004a 02       		.byte	0x2
 689 004b 1C       		.byte	0x1c
 690 004c 50000000 		.4byte	0x50
 691 0050 03       		.uleb128 0x3
 692 0051 01       		.byte	0x1
 693 0052 08       		.byte	0x8
 694 0053 3E020000 		.4byte	.LASF4
 695 0057 03       		.uleb128 0x3
 696 0058 02       		.byte	0x2
 697 0059 05       		.byte	0x5
 698 005a 4C020000 		.4byte	.LASF5
 699 005e 04       		.uleb128 0x4
 700 005f 2E030000 		.4byte	.LASF6
 701 0063 02       		.byte	0x2
 702 0064 26       		.byte	0x26
 703 0065 69000000 		.4byte	0x69
 704 0069 03       		.uleb128 0x3
 705 006a 02       		.byte	0x2
 706 006b 07       		.byte	0x7
 707 006c 10010000 		.4byte	.LASF7
 708 0070 03       		.uleb128 0x3
 709 0071 04       		.byte	0x4
 710 0072 05       		.byte	0x5
 711 0073 94000000 		.4byte	.LASF8
 712 0077 04       		.uleb128 0x4
 713 0078 C3000000 		.4byte	.LASF9
 714 007c 02       		.byte	0x2
 715 007d 38       		.byte	0x38
 716 007e 82000000 		.4byte	0x82
 717 0082 03       		.uleb128 0x3
 718 0083 04       		.byte	0x4
 719 0084 07       		.byte	0x7
 720 0085 E7000000 		.4byte	.LASF10
 721 0089 03       		.uleb128 0x3
 722 008a 08       		.byte	0x8
 723 008b 05       		.byte	0x5
 724 008c 50000000 		.4byte	.LASF11
 725 0090 03       		.uleb128 0x3
 726 0091 08       		.byte	0x8
 727 0092 07       		.byte	0x7
 728 0093 26000000 		.4byte	.LASF12
 729 0097 04       		.uleb128 0x4
 730 0098 39030000 		.4byte	.LASF13
 731 009c 03       		.byte	0x3
 732 009d 29       		.byte	0x29
 733 009e 33000000 		.4byte	0x33
 734 00a2 04       		.uleb128 0x4
 735 00a3 4D030000 		.4byte	.LASF14
 736 00a7 03       		.byte	0x3
ARM GAS  /tmp/ccNwtsdD.s 			page 14


 737 00a8 2A       		.byte	0x2a
 738 00a9 45000000 		.4byte	0x45
 739 00ad 04       		.uleb128 0x4
 740 00ae 9D000000 		.4byte	.LASF15
 741 00b2 03       		.byte	0x3
 742 00b3 36       		.byte	0x36
 743 00b4 5E000000 		.4byte	0x5e
 744 00b8 04       		.uleb128 0x4
 745 00b9 78020000 		.4byte	.LASF16
 746 00bd 03       		.byte	0x3
 747 00be 42       		.byte	0x42
 748 00bf 77000000 		.4byte	0x77
 749 00c3 03       		.uleb128 0x3
 750 00c4 01       		.byte	0x1
 751 00c5 02       		.byte	0x2
 752 00c6 38020000 		.4byte	.LASF17
 753 00ca 05       		.uleb128 0x5
 754 00cb 04       		.byte	0x4
 755 00cc 03       		.uleb128 0x3
 756 00cd 04       		.byte	0x4
 757 00ce 07       		.byte	0x7
 758 00cf D3010000 		.4byte	.LASF18
 759 00d3 06       		.uleb128 0x6
 760 00d4 04       		.byte	0x4
 761 00d5 D9000000 		.4byte	0xd9
 762 00d9 07       		.uleb128 0x7
 763 00da DE000000 		.4byte	0xde
 764 00de 03       		.uleb128 0x3
 765 00df 01       		.byte	0x1
 766 00e0 08       		.byte	0x8
 767 00e1 81020000 		.4byte	.LASF19
 768 00e5 04       		.uleb128 0x4
 769 00e6 CE010000 		.4byte	.LASF20
 770 00ea 04       		.byte	0x4
 771 00eb 38       		.byte	0x38
 772 00ec A2000000 		.4byte	0xa2
 773 00f0 04       		.uleb128 0x4
 774 00f1 73020000 		.4byte	.LASF21
 775 00f5 04       		.byte	0x4
 776 00f6 39       		.byte	0x39
 777 00f7 97000000 		.4byte	0x97
 778 00fb 04       		.uleb128 0x4
 779 00fc 40030000 		.4byte	.LASF22
 780 0100 04       		.byte	0x4
 781 0101 3A       		.byte	0x3a
 782 0102 AD000000 		.4byte	0xad
 783 0106 04       		.uleb128 0x4
 784 0107 F9000000 		.4byte	.LASF23
 785 010b 04       		.byte	0x4
 786 010c 3C       		.byte	0x3c
 787 010d B8000000 		.4byte	0xb8
 788 0111 08       		.uleb128 0x8
 789 0112 0A020000 		.4byte	.LASF26
 790 0116 04       		.byte	0x4
 791 0117 05       		.byte	0x5
 792 0118 2C       		.byte	0x2c
 793 0119 2A010000 		.4byte	0x12a
ARM GAS  /tmp/ccNwtsdD.s 			page 15


 794 011d 09       		.uleb128 0x9
 795 011e 3D000000 		.4byte	.LASF28
 796 0122 05       		.byte	0x5
 797 0123 2D       		.byte	0x2d
 798 0124 06010000 		.4byte	0x106
 799 0128 00       		.byte	0
 800 0129 00       		.byte	0
 801 012a 04       		.uleb128 0x4
 802 012b C4010000 		.4byte	.LASF24
 803 012f 05       		.byte	0x5
 804 0130 40       		.byte	0x40
 805 0131 11010000 		.4byte	0x111
 806 0135 04       		.uleb128 0x4
 807 0136 70010000 		.4byte	.LASF25
 808 013a 06       		.byte	0x6
 809 013b 2F       		.byte	0x2f
 810 013c F0000000 		.4byte	0xf0
 811 0140 08       		.uleb128 0x8
 812 0141 00000000 		.4byte	.LASF27
 813 0145 10       		.byte	0x10
 814 0146 07       		.byte	0x7
 815 0147 4F       		.byte	0x4f
 816 0148 A1010000 		.4byte	0x1a1
 817 014c 09       		.uleb128 0x9
 818 014d 4B000000 		.4byte	.LASF29
 819 0151 07       		.byte	0x7
 820 0152 51       		.byte	0x51
 821 0153 A1010000 		.4byte	0x1a1
 822 0157 00       		.byte	0
 823 0158 09       		.uleb128 0x9
 824 0159 02020000 		.4byte	.LASF30
 825 015d 07       		.byte	0x7
 826 015e 54       		.byte	0x54
 827 015f CA000000 		.4byte	0xca
 828 0163 04       		.byte	0x4
 829 0164 09       		.uleb128 0x9
 830 0165 86000000 		.4byte	.LASF31
 831 0169 07       		.byte	0x7
 832 016a 5D       		.byte	0x5d
 833 016b FB000000 		.4byte	0xfb
 834 016f 08       		.byte	0x8
 835 0170 0A       		.uleb128 0xa
 836 0171 6C656E00 		.ascii	"len\000"
 837 0175 07       		.byte	0x7
 838 0176 60       		.byte	0x60
 839 0177 FB000000 		.4byte	0xfb
 840 017b 0A       		.byte	0xa
 841 017c 09       		.uleb128 0x9
 842 017d 21000000 		.4byte	.LASF32
 843 0181 07       		.byte	0x7
 844 0182 63       		.byte	0x63
 845 0183 E5000000 		.4byte	0xe5
 846 0187 0C       		.byte	0xc
 847 0188 09       		.uleb128 0x9
 848 0189 55030000 		.4byte	.LASF33
 849 018d 07       		.byte	0x7
 850 018e 66       		.byte	0x66
ARM GAS  /tmp/ccNwtsdD.s 			page 16


 851 018f E5000000 		.4byte	0xe5
 852 0193 0D       		.byte	0xd
 853 0194 0A       		.uleb128 0xa
 854 0195 72656600 		.ascii	"ref\000"
 855 0199 07       		.byte	0x7
 856 019a 6D       		.byte	0x6d
 857 019b FB000000 		.4byte	0xfb
 858 019f 0E       		.byte	0xe
 859 01a0 00       		.byte	0
 860 01a1 06       		.uleb128 0x6
 861 01a2 04       		.byte	0x4
 862 01a3 40010000 		.4byte	0x140
 863 01a7 06       		.uleb128 0x6
 864 01a8 04       		.byte	0x4
 865 01a9 AD010000 		.4byte	0x1ad
 866 01ad 08       		.uleb128 0x8
 867 01ae FC010000 		.4byte	.LASF34
 868 01b2 30       		.byte	0x30
 869 01b3 08       		.byte	0x8
 870 01b4 88       		.byte	0x88
 871 01b5 61020000 		.4byte	0x261
 872 01b9 09       		.uleb128 0x9
 873 01ba 4B000000 		.4byte	.LASF29
 874 01be 08       		.byte	0x8
 875 01bf 8A       		.byte	0x8a
 876 01c0 A7010000 		.4byte	0x1a7
 877 01c4 00       		.byte	0
 878 01c5 09       		.uleb128 0x9
 879 01c6 0A020000 		.4byte	.LASF26
 880 01ca 08       		.byte	0x8
 881 01cb 8D       		.byte	0x8d
 882 01cc 2A010000 		.4byte	0x12a
 883 01d0 04       		.byte	0x4
 884 01d1 09       		.uleb128 0x9
 885 01d2 BB000000 		.4byte	.LASF35
 886 01d6 08       		.byte	0x8
 887 01d7 8E       		.byte	0x8e
 888 01d8 2A010000 		.4byte	0x12a
 889 01dc 08       		.byte	0x8
 890 01dd 0A       		.uleb128 0xa
 891 01de 677700   		.ascii	"gw\000"
 892 01e1 08       		.byte	0x8
 893 01e2 8F       		.byte	0x8f
 894 01e3 2A010000 		.4byte	0x12a
 895 01e7 0C       		.byte	0xc
 896 01e8 09       		.uleb128 0x9
 897 01e9 6D020000 		.4byte	.LASF36
 898 01ed 08       		.byte	0x8
 899 01ee 93       		.byte	0x93
 900 01ef 61020000 		.4byte	0x261
 901 01f3 10       		.byte	0x10
 902 01f4 09       		.uleb128 0x9
 903 01f5 BD010000 		.4byte	.LASF37
 904 01f9 08       		.byte	0x8
 905 01fa 97       		.byte	0x97
 906 01fb 86020000 		.4byte	0x286
 907 01ff 14       		.byte	0x14
ARM GAS  /tmp/ccNwtsdD.s 			page 17


 908 0200 09       		.uleb128 0x9
 909 0201 5B030000 		.4byte	.LASF38
 910 0205 08       		.byte	0x8
 911 0206 9B       		.byte	0x9b
 912 0207 B6020000 		.4byte	0x2b6
 913 020b 18       		.byte	0x18
 914 020c 09       		.uleb128 0x9
 915 020d 8E000000 		.4byte	.LASF39
 916 0211 08       		.byte	0x8
 917 0212 AC       		.byte	0xac
 918 0213 CA000000 		.4byte	0xca
 919 0217 1C       		.byte	0x1c
 920 0218 0A       		.uleb128 0xa
 921 0219 6D747500 		.ascii	"mtu\000"
 922 021d 08       		.byte	0x8
 923 021e BA       		.byte	0xba
 924 021f FB000000 		.4byte	0xfb
 925 0223 20       		.byte	0x20
 926 0224 09       		.uleb128 0x9
 927 0225 A6000000 		.4byte	.LASF40
 928 0229 08       		.byte	0x8
 929 022a BC       		.byte	0xbc
 930 022b E5000000 		.4byte	0xe5
 931 022f 22       		.byte	0x22
 932 0230 09       		.uleb128 0x9
 933 0231 6A000000 		.4byte	.LASF41
 934 0235 08       		.byte	0x8
 935 0236 BE       		.byte	0xbe
 936 0237 DB020000 		.4byte	0x2db
 937 023b 23       		.byte	0x23
 938 023c 09       		.uleb128 0x9
 939 023d 55030000 		.4byte	.LASF33
 940 0241 08       		.byte	0x8
 941 0242 C0       		.byte	0xc0
 942 0243 E5000000 		.4byte	0xe5
 943 0247 29       		.byte	0x29
 944 0248 09       		.uleb128 0x9
 945 0249 FF000000 		.4byte	.LASF42
 946 024d 08       		.byte	0x8
 947 024e C2       		.byte	0xc2
 948 024f EB020000 		.4byte	0x2eb
 949 0253 2A       		.byte	0x2a
 950 0254 0A       		.uleb128 0xa
 951 0255 6E756D00 		.ascii	"num\000"
 952 0259 08       		.byte	0x8
 953 025a C4       		.byte	0xc4
 954 025b E5000000 		.4byte	0xe5
 955 025f 2C       		.byte	0x2c
 956 0260 00       		.byte	0
 957 0261 04       		.uleb128 0x4
 958 0262 24020000 		.4byte	.LASF43
 959 0266 08       		.byte	0x8
 960 0267 6D       		.byte	0x6d
 961 0268 6C020000 		.4byte	0x26c
 962 026c 06       		.uleb128 0x6
 963 026d 04       		.byte	0x4
 964 026e 72020000 		.4byte	0x272
ARM GAS  /tmp/ccNwtsdD.s 			page 18


 965 0272 0B       		.uleb128 0xb
 966 0273 35010000 		.4byte	0x135
 967 0277 86020000 		.4byte	0x286
 968 027b 0C       		.uleb128 0xc
 969 027c A1010000 		.4byte	0x1a1
 970 0280 0C       		.uleb128 0xc
 971 0281 A7010000 		.4byte	0x1a7
 972 0285 00       		.byte	0
 973 0286 04       		.uleb128 0x4
 974 0287 56020000 		.4byte	.LASF44
 975 028b 08       		.byte	0x8
 976 028c 76       		.byte	0x76
 977 028d 91020000 		.4byte	0x291
 978 0291 06       		.uleb128 0x6
 979 0292 04       		.byte	0x4
 980 0293 97020000 		.4byte	0x297
 981 0297 0B       		.uleb128 0xb
 982 0298 35010000 		.4byte	0x135
 983 029c B0020000 		.4byte	0x2b0
 984 02a0 0C       		.uleb128 0xc
 985 02a1 A7010000 		.4byte	0x1a7
 986 02a5 0C       		.uleb128 0xc
 987 02a6 A1010000 		.4byte	0x1a1
 988 02aa 0C       		.uleb128 0xc
 989 02ab B0020000 		.4byte	0x2b0
 990 02af 00       		.byte	0
 991 02b0 06       		.uleb128 0x6
 992 02b1 04       		.byte	0x4
 993 02b2 2A010000 		.4byte	0x12a
 994 02b6 04       		.uleb128 0x4
 995 02b7 DC010000 		.4byte	.LASF45
 996 02bb 08       		.byte	0x8
 997 02bc 7E       		.byte	0x7e
 998 02bd C1020000 		.4byte	0x2c1
 999 02c1 06       		.uleb128 0x6
 1000 02c2 04       		.byte	0x4
 1001 02c3 C7020000 		.4byte	0x2c7
 1002 02c7 0B       		.uleb128 0xb
 1003 02c8 35010000 		.4byte	0x135
 1004 02cc DB020000 		.4byte	0x2db
 1005 02d0 0C       		.uleb128 0xc
 1006 02d1 A7010000 		.4byte	0x1a7
 1007 02d5 0C       		.uleb128 0xc
 1008 02d6 A1010000 		.4byte	0x1a1
 1009 02da 00       		.byte	0
 1010 02db 0D       		.uleb128 0xd
 1011 02dc E5000000 		.4byte	0xe5
 1012 02e0 EB020000 		.4byte	0x2eb
 1013 02e4 0E       		.uleb128 0xe
 1014 02e5 CC000000 		.4byte	0xcc
 1015 02e9 05       		.byte	0x5
 1016 02ea 00       		.byte	0
 1017 02eb 0D       		.uleb128 0xd
 1018 02ec DE000000 		.4byte	0xde
 1019 02f0 FB020000 		.4byte	0x2fb
 1020 02f4 0E       		.uleb128 0xe
 1021 02f5 CC000000 		.4byte	0xcc
ARM GAS  /tmp/ccNwtsdD.s 			page 19


 1022 02f9 01       		.byte	0x1
 1023 02fa 00       		.byte	0
 1024 02fb 0F       		.uleb128 0xf
 1025 02fc 71000000 		.4byte	.LASF46
 1026 0300 01       		.byte	0x1
 1027 0301 37       		.byte	0x37
 1028 0302 E5000000 		.4byte	0xe5
 1029 0306 00000000 		.4byte	.LFB7
 1030 030a 2E000000 		.4byte	.LFE7-.LFB7
 1031 030e 01       		.uleb128 0x1
 1032 030f 9C       		.byte	0x9c
 1033 0310 40030000 		.4byte	0x340
 1034 0314 10       		.uleb128 0x10
 1035 0315 3D000000 		.4byte	.LASF28
 1036 0319 01       		.byte	0x1
 1037 031a 37       		.byte	0x37
 1038 031b 06010000 		.4byte	0x106
 1039 031f 00000000 		.4byte	.LLST0
 1040 0323 11       		.uleb128 0x11
 1041 0324 FC010000 		.4byte	.LASF34
 1042 0328 01       		.byte	0x1
 1043 0329 37       		.byte	0x37
 1044 032a 40030000 		.4byte	0x340
 1045 032e 01       		.uleb128 0x1
 1046 032f 51       		.byte	0x51
 1047 0330 12       		.uleb128 0x12
 1048 0331 46030000 		.4byte	.LASF48
 1049 0335 01       		.byte	0x1
 1050 0336 39       		.byte	0x39
 1051 0337 2A010000 		.4byte	0x12a
 1052 033b 21000000 		.4byte	.LLST1
 1053 033f 00       		.byte	0
 1054 0340 06       		.uleb128 0x6
 1055 0341 04       		.byte	0x4
 1056 0342 46030000 		.4byte	0x346
 1057 0346 07       		.uleb128 0x7
 1058 0347 AD010000 		.4byte	0x1ad
 1059 034b 0F       		.uleb128 0xf
 1060 034c 72030000 		.4byte	.LASF47
 1061 0350 01       		.byte	0x1
 1062 0351 5A       		.byte	0x5a
 1063 0352 E5000000 		.4byte	0xe5
 1064 0356 00000000 		.4byte	.LFB8
 1065 035a 2E000000 		.4byte	.LFE8-.LFB8
 1066 035e 01       		.uleb128 0x1
 1067 035f 9C       		.byte	0x9c
 1068 0360 A3030000 		.4byte	0x3a3
 1069 0364 10       		.uleb128 0x10
 1070 0365 BB000000 		.4byte	.LASF35
 1071 0369 01       		.byte	0x1
 1072 036a 5A       		.byte	0x5a
 1073 036b 06010000 		.4byte	0x106
 1074 036f 46000000 		.4byte	.LLST2
 1075 0373 12       		.uleb128 0x12
 1076 0374 CE000000 		.4byte	.LASF49
 1077 0378 01       		.byte	0x1
 1078 0379 5C       		.byte	0x5c
ARM GAS  /tmp/ccNwtsdD.s 			page 20


 1079 037a 06010000 		.4byte	0x106
 1080 037e 67000000 		.4byte	.LLST3
 1081 0382 12       		.uleb128 0x12
 1082 0383 4A010000 		.4byte	.LASF50
 1083 0387 01       		.byte	0x1
 1084 0388 5D       		.byte	0x5d
 1085 0389 06010000 		.4byte	0x106
 1086 038d A3000000 		.4byte	.LLST4
 1087 0391 13       		.uleb128 0x13
 1088 0392 06000000 		.4byte	.LVL3
 1089 0396 15060000 		.4byte	0x615
 1090 039a 14       		.uleb128 0x14
 1091 039b 01       		.uleb128 0x1
 1092 039c 50       		.byte	0x50
 1093 039d 03       		.uleb128 0x3
 1094 039e F3       		.byte	0xf3
 1095 039f 01       		.uleb128 0x1
 1096 03a0 50       		.byte	0x50
 1097 03a1 00       		.byte	0
 1098 03a2 00       		.byte	0
 1099 03a3 0F       		.uleb128 0xf
 1100 03a4 F0010000 		.4byte	.LASF51
 1101 03a8 01       		.byte	0x1
 1102 03a9 98       		.byte	0x98
 1103 03aa 25000000 		.4byte	0x25
 1104 03ae 00000000 		.4byte	.LFB10
 1105 03b2 3E010000 		.4byte	.LFE10-.LFB10
 1106 03b6 01       		.uleb128 0x1
 1107 03b7 9C       		.byte	0x9c
 1108 03b8 3E040000 		.4byte	0x43e
 1109 03bc 15       		.uleb128 0x15
 1110 03bd 637000   		.ascii	"cp\000"
 1111 03c0 01       		.byte	0x1
 1112 03c1 98       		.byte	0x98
 1113 03c2 D3000000 		.4byte	0xd3
 1114 03c6 C1000000 		.4byte	.LLST5
 1115 03ca 10       		.uleb128 0x10
 1116 03cb 3D000000 		.4byte	.LASF28
 1117 03cf 01       		.byte	0x1
 1118 03d0 98       		.byte	0x98
 1119 03d1 B0020000 		.4byte	0x2b0
 1120 03d5 25010000 		.4byte	.LLST6
 1121 03d9 16       		.uleb128 0x16
 1122 03da 76616C00 		.ascii	"val\000"
 1123 03de 01       		.byte	0x1
 1124 03df 9A       		.byte	0x9a
 1125 03e0 06010000 		.4byte	0x106
 1126 03e4 78010000 		.4byte	.LLST7
 1127 03e8 12       		.uleb128 0x12
 1128 03e9 33020000 		.4byte	.LASF52
 1129 03ed 01       		.byte	0x1
 1130 03ee 9B       		.byte	0x9b
 1131 03ef E5000000 		.4byte	0xe5
 1132 03f3 B9010000 		.4byte	.LLST8
 1133 03f7 16       		.uleb128 0x16
 1134 03f8 6300     		.ascii	"c\000"
 1135 03fa 01       		.byte	0x1
ARM GAS  /tmp/ccNwtsdD.s 			page 21


 1136 03fb 9C       		.byte	0x9c
 1137 03fc DE000000 		.4byte	0xde
 1138 0400 E5010000 		.4byte	.LLST9
 1139 0404 17       		.uleb128 0x17
 1140 0405 05000000 		.4byte	.LASF53
 1141 0409 01       		.byte	0x1
 1142 040a 9D       		.byte	0x9d
 1143 040b 3E040000 		.4byte	0x43e
 1144 040f 02       		.uleb128 0x2
 1145 0410 91       		.byte	0x91
 1146 0411 50       		.sleb128 -48
 1147 0412 16       		.uleb128 0x16
 1148 0413 707000   		.ascii	"pp\000"
 1149 0416 01       		.byte	0x1
 1150 0417 9E       		.byte	0x9e
 1151 0418 4E040000 		.4byte	0x44e
 1152 041c 79020000 		.4byte	.LLST10
 1153 0420 18       		.uleb128 0x18
 1154 0421 02010000 		.4byte	.LVL40
 1155 0425 15060000 		.4byte	0x615
 1156 0429 34040000 		.4byte	0x434
 1157 042d 14       		.uleb128 0x14
 1158 042e 01       		.uleb128 0x1
 1159 042f 50       		.byte	0x50
 1160 0430 02       		.uleb128 0x2
 1161 0431 77       		.byte	0x77
 1162 0432 00       		.sleb128 0
 1163 0433 00       		.byte	0
 1164 0434 19       		.uleb128 0x19
 1165 0435 3A010000 		.4byte	.LVL44
 1166 0439 2A060000 		.4byte	0x62a
 1167 043d 00       		.byte	0
 1168 043e 0D       		.uleb128 0xd
 1169 043f 06010000 		.4byte	0x106
 1170 0443 4E040000 		.4byte	0x44e
 1171 0447 0E       		.uleb128 0xe
 1172 0448 CC000000 		.4byte	0xcc
 1173 044c 03       		.byte	0x3
 1174 044d 00       		.byte	0
 1175 044e 06       		.uleb128 0x6
 1176 044f 04       		.byte	0x4
 1177 0450 06010000 		.4byte	0x106
 1178 0454 0F       		.uleb128 0xf
 1179 0455 66030000 		.4byte	.LASF54
 1180 0459 01       		.byte	0x1
 1181 045a 82       		.byte	0x82
 1182 045b 06010000 		.4byte	0x106
 1183 045f 00000000 		.4byte	.LFB9
 1184 0463 1E000000 		.4byte	.LFE9-.LFB9
 1185 0467 01       		.uleb128 0x1
 1186 0468 9C       		.byte	0x9c
 1187 0469 A1040000 		.4byte	0x4a1
 1188 046d 15       		.uleb128 0x15
 1189 046e 637000   		.ascii	"cp\000"
 1190 0471 01       		.byte	0x1
 1191 0472 82       		.byte	0x82
 1192 0473 D3000000 		.4byte	0xd3
ARM GAS  /tmp/ccNwtsdD.s 			page 22


 1193 0477 BC020000 		.4byte	.LLST11
 1194 047b 1A       		.uleb128 0x1a
 1195 047c 76616C00 		.ascii	"val\000"
 1196 0480 01       		.byte	0x1
 1197 0481 84       		.byte	0x84
 1198 0482 2A010000 		.4byte	0x12a
 1199 0486 02       		.uleb128 0x2
 1200 0487 91       		.byte	0x91
 1201 0488 74       		.sleb128 -12
 1202 0489 13       		.uleb128 0x13
 1203 048a 0A000000 		.4byte	.LVL46
 1204 048e A3030000 		.4byte	0x3a3
 1205 0492 14       		.uleb128 0x14
 1206 0493 01       		.uleb128 0x1
 1207 0494 51       		.byte	0x51
 1208 0495 02       		.uleb128 0x2
 1209 0496 91       		.byte	0x91
 1210 0497 74       		.sleb128 -12
 1211 0498 14       		.uleb128 0x14
 1212 0499 01       		.uleb128 0x1
 1213 049a 50       		.byte	0x50
 1214 049b 03       		.uleb128 0x3
 1215 049c F3       		.byte	0xf3
 1216 049d 01       		.uleb128 0x1
 1217 049e 50       		.byte	0x50
 1218 049f 00       		.byte	0
 1219 04a0 00       		.byte	0
 1220 04a1 1B       		.uleb128 0x1b
 1221 04a2 62010000 		.4byte	.LASF55
 1222 04a6 01       		.byte	0x1
 1223 04a7 1401     		.2byte	0x114
 1224 04a9 60050000 		.4byte	0x560
 1225 04ad 00000000 		.4byte	.LFB12
 1226 04b1 C4000000 		.4byte	.LFE12-.LFB12
 1227 04b5 01       		.uleb128 0x1
 1228 04b6 9C       		.byte	0x9c
 1229 04b7 60050000 		.4byte	0x560
 1230 04bb 1C       		.uleb128 0x1c
 1231 04bc 3D000000 		.4byte	.LASF28
 1232 04c0 01       		.byte	0x1
 1233 04c1 1401     		.2byte	0x114
 1234 04c3 66050000 		.4byte	0x566
 1235 04c7 DD020000 		.4byte	.LLST12
 1236 04cb 1D       		.uleb128 0x1d
 1237 04cc 62756600 		.ascii	"buf\000"
 1238 04d0 01       		.byte	0x1
 1239 04d1 1401     		.2byte	0x114
 1240 04d3 60050000 		.4byte	0x560
 1241 04d7 01       		.uleb128 0x1
 1242 04d8 51       		.byte	0x51
 1243 04d9 1E       		.uleb128 0x1e
 1244 04da 66020000 		.4byte	.LASF56
 1245 04de 01       		.byte	0x1
 1246 04df 1401     		.2byte	0x114
 1247 04e1 25000000 		.4byte	0x25
 1248 04e5 01       		.uleb128 0x1
 1249 04e6 52       		.byte	0x52
ARM GAS  /tmp/ccNwtsdD.s 			page 23


 1250 04e7 1F       		.uleb128 0x1f
 1251 04e8 E0000000 		.4byte	.LASF57
 1252 04ec 01       		.byte	0x1
 1253 04ed 1601     		.2byte	0x116
 1254 04ef 06010000 		.4byte	0x106
 1255 04f3 02       		.uleb128 0x2
 1256 04f4 91       		.byte	0x91
 1257 04f5 5C       		.sleb128 -36
 1258 04f6 20       		.uleb128 0x20
 1259 04f7 696E7600 		.ascii	"inv\000"
 1260 04fb 01       		.byte	0x1
 1261 04fc 1701     		.2byte	0x117
 1262 04fe 71050000 		.4byte	0x571
 1263 0502 02       		.uleb128 0x2
 1264 0503 91       		.byte	0x91
 1265 0504 58       		.sleb128 -40
 1266 0505 21       		.uleb128 0x21
 1267 0506 727000   		.ascii	"rp\000"
 1268 0509 01       		.byte	0x1
 1269 050a 1801     		.2byte	0x118
 1270 050c 60050000 		.4byte	0x560
 1271 0510 FE020000 		.4byte	.LLST13
 1272 0514 21       		.uleb128 0x21
 1273 0515 617000   		.ascii	"ap\000"
 1274 0518 01       		.byte	0x1
 1275 0519 1901     		.2byte	0x119
 1276 051b 81050000 		.4byte	0x581
 1277 051f 60030000 		.4byte	.LLST14
 1278 0523 21       		.uleb128 0x21
 1279 0524 72656D00 		.ascii	"rem\000"
 1280 0528 01       		.byte	0x1
 1281 0529 1A01     		.2byte	0x11a
 1282 052b E5000000 		.4byte	0xe5
 1283 052f BD030000 		.4byte	.LLST15
 1284 0533 21       		.uleb128 0x21
 1285 0534 6E00     		.ascii	"n\000"
 1286 0536 01       		.byte	0x1
 1287 0537 1B01     		.2byte	0x11b
 1288 0539 E5000000 		.4byte	0xe5
 1289 053d D4030000 		.4byte	.LLST16
 1290 0541 21       		.uleb128 0x21
 1291 0542 6900     		.ascii	"i\000"
 1292 0544 01       		.byte	0x1
 1293 0545 1C01     		.2byte	0x11c
 1294 0547 E5000000 		.4byte	0xe5
 1295 054b 54040000 		.4byte	.LLST17
 1296 054f 21       		.uleb128 0x21
 1297 0550 6C656E00 		.ascii	"len\000"
 1298 0554 01       		.byte	0x1
 1299 0555 1D01     		.2byte	0x11d
 1300 0557 25000000 		.4byte	0x25
 1301 055b AB040000 		.4byte	.LLST18
 1302 055f 00       		.byte	0
 1303 0560 06       		.uleb128 0x6
 1304 0561 04       		.byte	0x4
 1305 0562 DE000000 		.4byte	0xde
 1306 0566 06       		.uleb128 0x6
ARM GAS  /tmp/ccNwtsdD.s 			page 24


 1307 0567 04       		.byte	0x4
 1308 0568 6C050000 		.4byte	0x56c
 1309 056c 07       		.uleb128 0x7
 1310 056d 2A010000 		.4byte	0x12a
 1311 0571 0D       		.uleb128 0xd
 1312 0572 DE000000 		.4byte	0xde
 1313 0576 81050000 		.4byte	0x581
 1314 057a 0E       		.uleb128 0xe
 1315 057b CC000000 		.4byte	0xcc
 1316 057f 02       		.byte	0x2
 1317 0580 00       		.byte	0
 1318 0581 06       		.uleb128 0x6
 1319 0582 04       		.byte	0x4
 1320 0583 E5000000 		.4byte	0xe5
 1321 0587 1B       		.uleb128 0x1b
 1322 0588 0B000000 		.4byte	.LASF58
 1323 058c 01       		.byte	0x1
 1324 058d 0501     		.2byte	0x105
 1325 058f 60050000 		.4byte	0x560
 1326 0593 00000000 		.4byte	.LFB11
 1327 0597 0E000000 		.4byte	.LFE11-.LFB11
 1328 059b 01       		.uleb128 0x1
 1329 059c 9C       		.byte	0x9c
 1330 059d E3050000 		.4byte	0x5e3
 1331 05a1 1C       		.uleb128 0x1c
 1332 05a2 3D000000 		.4byte	.LASF28
 1333 05a6 01       		.byte	0x1
 1334 05a7 0501     		.2byte	0x105
 1335 05a9 66050000 		.4byte	0x566
 1336 05ad EB040000 		.4byte	.LLST19
 1337 05b1 20       		.uleb128 0x20
 1338 05b2 73747200 		.ascii	"str\000"
 1339 05b6 01       		.byte	0x1
 1340 05b7 0701     		.2byte	0x107
 1341 05b9 E3050000 		.4byte	0x5e3
 1342 05bd 05       		.uleb128 0x5
 1343 05be 03       		.byte	0x3
 1344 05bf 00000000 		.4byte	str.5034
 1345 05c3 22       		.uleb128 0x22
 1346 05c4 0E000000 		.4byte	.LVL72
 1347 05c8 A1040000 		.4byte	0x4a1
 1348 05cc 14       		.uleb128 0x14
 1349 05cd 01       		.uleb128 0x1
 1350 05ce 52       		.byte	0x52
 1351 05cf 01       		.uleb128 0x1
 1352 05d0 40       		.byte	0x40
 1353 05d1 14       		.uleb128 0x14
 1354 05d2 01       		.uleb128 0x1
 1355 05d3 51       		.byte	0x51
 1356 05d4 05       		.uleb128 0x5
 1357 05d5 03       		.byte	0x3
 1358 05d6 00000000 		.4byte	.LANCHOR0
 1359 05da 14       		.uleb128 0x14
 1360 05db 01       		.uleb128 0x1
 1361 05dc 50       		.byte	0x50
 1362 05dd 03       		.uleb128 0x3
 1363 05de F3       		.byte	0xf3
ARM GAS  /tmp/ccNwtsdD.s 			page 25


 1364 05df 01       		.uleb128 0x1
 1365 05e0 50       		.byte	0x50
 1366 05e1 00       		.byte	0
 1367 05e2 00       		.byte	0
 1368 05e3 0D       		.uleb128 0xd
 1369 05e4 DE000000 		.4byte	0xde
 1370 05e8 F3050000 		.4byte	0x5f3
 1371 05ec 0E       		.uleb128 0xe
 1372 05ed CC000000 		.4byte	0xcc
 1373 05f1 0F       		.byte	0xf
 1374 05f2 00       		.byte	0
 1375 05f3 23       		.uleb128 0x23
 1376 05f4 04010000 		.4byte	.LASF59
 1377 05f8 01       		.byte	0x1
 1378 05f9 2C       		.byte	0x2c
 1379 05fa 6C050000 		.4byte	0x56c
 1380 05fe 05       		.uleb128 0x5
 1381 05ff 03       		.byte	0x3
 1382 0600 00000000 		.4byte	ip_addr_any
 1383 0604 23       		.uleb128 0x23
 1384 0605 12020000 		.4byte	.LASF60
 1385 0609 01       		.byte	0x1
 1386 060a 2D       		.byte	0x2d
 1387 060b 6C050000 		.4byte	0x56c
 1388 060f 05       		.uleb128 0x5
 1389 0610 03       		.byte	0x3
 1390 0611 00000000 		.4byte	ip_addr_broadcast
 1391 0615 24       		.uleb128 0x24
 1392 0616 57010000 		.4byte	.LASF64
 1393 061a 09       		.byte	0x9
 1394 061b 65       		.byte	0x65
 1395 061c 06010000 		.4byte	0x106
 1396 0620 2A060000 		.4byte	0x62a
 1397 0624 0C       		.uleb128 0xc
 1398 0625 06010000 		.4byte	0x106
 1399 0629 00       		.byte	0
 1400 062a 25       		.uleb128 0x25
 1401 062b B1000000 		.4byte	.LASF65
 1402 062f 0A       		.byte	0xa
 1403 0630 0102     		.2byte	0x201
 1404 0632 00       		.byte	0
 1405              		.section	.debug_abbrev,"",%progbits
 1406              	.Ldebug_abbrev0:
 1407 0000 01       		.uleb128 0x1
 1408 0001 11       		.uleb128 0x11
 1409 0002 01       		.byte	0x1
 1410 0003 25       		.uleb128 0x25
 1411 0004 0E       		.uleb128 0xe
 1412 0005 13       		.uleb128 0x13
 1413 0006 0B       		.uleb128 0xb
 1414 0007 03       		.uleb128 0x3
 1415 0008 0E       		.uleb128 0xe
 1416 0009 1B       		.uleb128 0x1b
 1417 000a 0E       		.uleb128 0xe
 1418 000b 55       		.uleb128 0x55
 1419 000c 17       		.uleb128 0x17
 1420 000d 11       		.uleb128 0x11
ARM GAS  /tmp/ccNwtsdD.s 			page 26


 1421 000e 01       		.uleb128 0x1
 1422 000f 10       		.uleb128 0x10
 1423 0010 17       		.uleb128 0x17
 1424 0011 00       		.byte	0
 1425 0012 00       		.byte	0
 1426 0013 02       		.uleb128 0x2
 1427 0014 24       		.uleb128 0x24
 1428 0015 00       		.byte	0
 1429 0016 0B       		.uleb128 0xb
 1430 0017 0B       		.uleb128 0xb
 1431 0018 3E       		.uleb128 0x3e
 1432 0019 0B       		.uleb128 0xb
 1433 001a 03       		.uleb128 0x3
 1434 001b 08       		.uleb128 0x8
 1435 001c 00       		.byte	0
 1436 001d 00       		.byte	0
 1437 001e 03       		.uleb128 0x3
 1438 001f 24       		.uleb128 0x24
 1439 0020 00       		.byte	0
 1440 0021 0B       		.uleb128 0xb
 1441 0022 0B       		.uleb128 0xb
 1442 0023 3E       		.uleb128 0x3e
 1443 0024 0B       		.uleb128 0xb
 1444 0025 03       		.uleb128 0x3
 1445 0026 0E       		.uleb128 0xe
 1446 0027 00       		.byte	0
 1447 0028 00       		.byte	0
 1448 0029 04       		.uleb128 0x4
 1449 002a 16       		.uleb128 0x16
 1450 002b 00       		.byte	0
 1451 002c 03       		.uleb128 0x3
 1452 002d 0E       		.uleb128 0xe
 1453 002e 3A       		.uleb128 0x3a
 1454 002f 0B       		.uleb128 0xb
 1455 0030 3B       		.uleb128 0x3b
 1456 0031 0B       		.uleb128 0xb
 1457 0032 49       		.uleb128 0x49
 1458 0033 13       		.uleb128 0x13
 1459 0034 00       		.byte	0
 1460 0035 00       		.byte	0
 1461 0036 05       		.uleb128 0x5
 1462 0037 0F       		.uleb128 0xf
 1463 0038 00       		.byte	0
 1464 0039 0B       		.uleb128 0xb
 1465 003a 0B       		.uleb128 0xb
 1466 003b 00       		.byte	0
 1467 003c 00       		.byte	0
 1468 003d 06       		.uleb128 0x6
 1469 003e 0F       		.uleb128 0xf
 1470 003f 00       		.byte	0
 1471 0040 0B       		.uleb128 0xb
 1472 0041 0B       		.uleb128 0xb
 1473 0042 49       		.uleb128 0x49
 1474 0043 13       		.uleb128 0x13
 1475 0044 00       		.byte	0
 1476 0045 00       		.byte	0
 1477 0046 07       		.uleb128 0x7
ARM GAS  /tmp/ccNwtsdD.s 			page 27


 1478 0047 26       		.uleb128 0x26
 1479 0048 00       		.byte	0
 1480 0049 49       		.uleb128 0x49
 1481 004a 13       		.uleb128 0x13
 1482 004b 00       		.byte	0
 1483 004c 00       		.byte	0
 1484 004d 08       		.uleb128 0x8
 1485 004e 13       		.uleb128 0x13
 1486 004f 01       		.byte	0x1
 1487 0050 03       		.uleb128 0x3
 1488 0051 0E       		.uleb128 0xe
 1489 0052 0B       		.uleb128 0xb
 1490 0053 0B       		.uleb128 0xb
 1491 0054 3A       		.uleb128 0x3a
 1492 0055 0B       		.uleb128 0xb
 1493 0056 3B       		.uleb128 0x3b
 1494 0057 0B       		.uleb128 0xb
 1495 0058 01       		.uleb128 0x1
 1496 0059 13       		.uleb128 0x13
 1497 005a 00       		.byte	0
 1498 005b 00       		.byte	0
 1499 005c 09       		.uleb128 0x9
 1500 005d 0D       		.uleb128 0xd
 1501 005e 00       		.byte	0
 1502 005f 03       		.uleb128 0x3
 1503 0060 0E       		.uleb128 0xe
 1504 0061 3A       		.uleb128 0x3a
 1505 0062 0B       		.uleb128 0xb
 1506 0063 3B       		.uleb128 0x3b
 1507 0064 0B       		.uleb128 0xb
 1508 0065 49       		.uleb128 0x49
 1509 0066 13       		.uleb128 0x13
 1510 0067 38       		.uleb128 0x38
 1511 0068 0B       		.uleb128 0xb
 1512 0069 00       		.byte	0
 1513 006a 00       		.byte	0
 1514 006b 0A       		.uleb128 0xa
 1515 006c 0D       		.uleb128 0xd
 1516 006d 00       		.byte	0
 1517 006e 03       		.uleb128 0x3
 1518 006f 08       		.uleb128 0x8
 1519 0070 3A       		.uleb128 0x3a
 1520 0071 0B       		.uleb128 0xb
 1521 0072 3B       		.uleb128 0x3b
 1522 0073 0B       		.uleb128 0xb
 1523 0074 49       		.uleb128 0x49
 1524 0075 13       		.uleb128 0x13
 1525 0076 38       		.uleb128 0x38
 1526 0077 0B       		.uleb128 0xb
 1527 0078 00       		.byte	0
 1528 0079 00       		.byte	0
 1529 007a 0B       		.uleb128 0xb
 1530 007b 15       		.uleb128 0x15
 1531 007c 01       		.byte	0x1
 1532 007d 27       		.uleb128 0x27
 1533 007e 19       		.uleb128 0x19
 1534 007f 49       		.uleb128 0x49
ARM GAS  /tmp/ccNwtsdD.s 			page 28


 1535 0080 13       		.uleb128 0x13
 1536 0081 01       		.uleb128 0x1
 1537 0082 13       		.uleb128 0x13
 1538 0083 00       		.byte	0
 1539 0084 00       		.byte	0
 1540 0085 0C       		.uleb128 0xc
 1541 0086 05       		.uleb128 0x5
 1542 0087 00       		.byte	0
 1543 0088 49       		.uleb128 0x49
 1544 0089 13       		.uleb128 0x13
 1545 008a 00       		.byte	0
 1546 008b 00       		.byte	0
 1547 008c 0D       		.uleb128 0xd
 1548 008d 01       		.uleb128 0x1
 1549 008e 01       		.byte	0x1
 1550 008f 49       		.uleb128 0x49
 1551 0090 13       		.uleb128 0x13
 1552 0091 01       		.uleb128 0x1
 1553 0092 13       		.uleb128 0x13
 1554 0093 00       		.byte	0
 1555 0094 00       		.byte	0
 1556 0095 0E       		.uleb128 0xe
 1557 0096 21       		.uleb128 0x21
 1558 0097 00       		.byte	0
 1559 0098 49       		.uleb128 0x49
 1560 0099 13       		.uleb128 0x13
 1561 009a 2F       		.uleb128 0x2f
 1562 009b 0B       		.uleb128 0xb
 1563 009c 00       		.byte	0
 1564 009d 00       		.byte	0
 1565 009e 0F       		.uleb128 0xf
 1566 009f 2E       		.uleb128 0x2e
 1567 00a0 01       		.byte	0x1
 1568 00a1 3F       		.uleb128 0x3f
 1569 00a2 19       		.uleb128 0x19
 1570 00a3 03       		.uleb128 0x3
 1571 00a4 0E       		.uleb128 0xe
 1572 00a5 3A       		.uleb128 0x3a
 1573 00a6 0B       		.uleb128 0xb
 1574 00a7 3B       		.uleb128 0x3b
 1575 00a8 0B       		.uleb128 0xb
 1576 00a9 27       		.uleb128 0x27
 1577 00aa 19       		.uleb128 0x19
 1578 00ab 49       		.uleb128 0x49
 1579 00ac 13       		.uleb128 0x13
 1580 00ad 11       		.uleb128 0x11
 1581 00ae 01       		.uleb128 0x1
 1582 00af 12       		.uleb128 0x12
 1583 00b0 06       		.uleb128 0x6
 1584 00b1 40       		.uleb128 0x40
 1585 00b2 18       		.uleb128 0x18
 1586 00b3 9742     		.uleb128 0x2117
 1587 00b5 19       		.uleb128 0x19
 1588 00b6 01       		.uleb128 0x1
 1589 00b7 13       		.uleb128 0x13
 1590 00b8 00       		.byte	0
 1591 00b9 00       		.byte	0
ARM GAS  /tmp/ccNwtsdD.s 			page 29


 1592 00ba 10       		.uleb128 0x10
 1593 00bb 05       		.uleb128 0x5
 1594 00bc 00       		.byte	0
 1595 00bd 03       		.uleb128 0x3
 1596 00be 0E       		.uleb128 0xe
 1597 00bf 3A       		.uleb128 0x3a
 1598 00c0 0B       		.uleb128 0xb
 1599 00c1 3B       		.uleb128 0x3b
 1600 00c2 0B       		.uleb128 0xb
 1601 00c3 49       		.uleb128 0x49
 1602 00c4 13       		.uleb128 0x13
 1603 00c5 02       		.uleb128 0x2
 1604 00c6 17       		.uleb128 0x17
 1605 00c7 00       		.byte	0
 1606 00c8 00       		.byte	0
 1607 00c9 11       		.uleb128 0x11
 1608 00ca 05       		.uleb128 0x5
 1609 00cb 00       		.byte	0
 1610 00cc 03       		.uleb128 0x3
 1611 00cd 0E       		.uleb128 0xe
 1612 00ce 3A       		.uleb128 0x3a
 1613 00cf 0B       		.uleb128 0xb
 1614 00d0 3B       		.uleb128 0x3b
 1615 00d1 0B       		.uleb128 0xb
 1616 00d2 49       		.uleb128 0x49
 1617 00d3 13       		.uleb128 0x13
 1618 00d4 02       		.uleb128 0x2
 1619 00d5 18       		.uleb128 0x18
 1620 00d6 00       		.byte	0
 1621 00d7 00       		.byte	0
 1622 00d8 12       		.uleb128 0x12
 1623 00d9 34       		.uleb128 0x34
 1624 00da 00       		.byte	0
 1625 00db 03       		.uleb128 0x3
 1626 00dc 0E       		.uleb128 0xe
 1627 00dd 3A       		.uleb128 0x3a
 1628 00de 0B       		.uleb128 0xb
 1629 00df 3B       		.uleb128 0x3b
 1630 00e0 0B       		.uleb128 0xb
 1631 00e1 49       		.uleb128 0x49
 1632 00e2 13       		.uleb128 0x13
 1633 00e3 02       		.uleb128 0x2
 1634 00e4 17       		.uleb128 0x17
 1635 00e5 00       		.byte	0
 1636 00e6 00       		.byte	0
 1637 00e7 13       		.uleb128 0x13
 1638 00e8 898201   		.uleb128 0x4109
 1639 00eb 01       		.byte	0x1
 1640 00ec 11       		.uleb128 0x11
 1641 00ed 01       		.uleb128 0x1
 1642 00ee 31       		.uleb128 0x31
 1643 00ef 13       		.uleb128 0x13
 1644 00f0 00       		.byte	0
 1645 00f1 00       		.byte	0
 1646 00f2 14       		.uleb128 0x14
 1647 00f3 8A8201   		.uleb128 0x410a
 1648 00f6 00       		.byte	0
ARM GAS  /tmp/ccNwtsdD.s 			page 30


 1649 00f7 02       		.uleb128 0x2
 1650 00f8 18       		.uleb128 0x18
 1651 00f9 9142     		.uleb128 0x2111
 1652 00fb 18       		.uleb128 0x18
 1653 00fc 00       		.byte	0
 1654 00fd 00       		.byte	0
 1655 00fe 15       		.uleb128 0x15
 1656 00ff 05       		.uleb128 0x5
 1657 0100 00       		.byte	0
 1658 0101 03       		.uleb128 0x3
 1659 0102 08       		.uleb128 0x8
 1660 0103 3A       		.uleb128 0x3a
 1661 0104 0B       		.uleb128 0xb
 1662 0105 3B       		.uleb128 0x3b
 1663 0106 0B       		.uleb128 0xb
 1664 0107 49       		.uleb128 0x49
 1665 0108 13       		.uleb128 0x13
 1666 0109 02       		.uleb128 0x2
 1667 010a 17       		.uleb128 0x17
 1668 010b 00       		.byte	0
 1669 010c 00       		.byte	0
 1670 010d 16       		.uleb128 0x16
 1671 010e 34       		.uleb128 0x34
 1672 010f 00       		.byte	0
 1673 0110 03       		.uleb128 0x3
 1674 0111 08       		.uleb128 0x8
 1675 0112 3A       		.uleb128 0x3a
 1676 0113 0B       		.uleb128 0xb
 1677 0114 3B       		.uleb128 0x3b
 1678 0115 0B       		.uleb128 0xb
 1679 0116 49       		.uleb128 0x49
 1680 0117 13       		.uleb128 0x13
 1681 0118 02       		.uleb128 0x2
 1682 0119 17       		.uleb128 0x17
 1683 011a 00       		.byte	0
 1684 011b 00       		.byte	0
 1685 011c 17       		.uleb128 0x17
 1686 011d 34       		.uleb128 0x34
 1687 011e 00       		.byte	0
 1688 011f 03       		.uleb128 0x3
 1689 0120 0E       		.uleb128 0xe
 1690 0121 3A       		.uleb128 0x3a
 1691 0122 0B       		.uleb128 0xb
 1692 0123 3B       		.uleb128 0x3b
 1693 0124 0B       		.uleb128 0xb
 1694 0125 49       		.uleb128 0x49
 1695 0126 13       		.uleb128 0x13
 1696 0127 02       		.uleb128 0x2
 1697 0128 18       		.uleb128 0x18
 1698 0129 00       		.byte	0
 1699 012a 00       		.byte	0
 1700 012b 18       		.uleb128 0x18
 1701 012c 898201   		.uleb128 0x4109
 1702 012f 01       		.byte	0x1
 1703 0130 11       		.uleb128 0x11
 1704 0131 01       		.uleb128 0x1
 1705 0132 31       		.uleb128 0x31
ARM GAS  /tmp/ccNwtsdD.s 			page 31


 1706 0133 13       		.uleb128 0x13
 1707 0134 01       		.uleb128 0x1
 1708 0135 13       		.uleb128 0x13
 1709 0136 00       		.byte	0
 1710 0137 00       		.byte	0
 1711 0138 19       		.uleb128 0x19
 1712 0139 898201   		.uleb128 0x4109
 1713 013c 00       		.byte	0
 1714 013d 11       		.uleb128 0x11
 1715 013e 01       		.uleb128 0x1
 1716 013f 31       		.uleb128 0x31
 1717 0140 13       		.uleb128 0x13
 1718 0141 00       		.byte	0
 1719 0142 00       		.byte	0
 1720 0143 1A       		.uleb128 0x1a
 1721 0144 34       		.uleb128 0x34
 1722 0145 00       		.byte	0
 1723 0146 03       		.uleb128 0x3
 1724 0147 08       		.uleb128 0x8
 1725 0148 3A       		.uleb128 0x3a
 1726 0149 0B       		.uleb128 0xb
 1727 014a 3B       		.uleb128 0x3b
 1728 014b 0B       		.uleb128 0xb
 1729 014c 49       		.uleb128 0x49
 1730 014d 13       		.uleb128 0x13
 1731 014e 02       		.uleb128 0x2
 1732 014f 18       		.uleb128 0x18
 1733 0150 00       		.byte	0
 1734 0151 00       		.byte	0
 1735 0152 1B       		.uleb128 0x1b
 1736 0153 2E       		.uleb128 0x2e
 1737 0154 01       		.byte	0x1
 1738 0155 3F       		.uleb128 0x3f
 1739 0156 19       		.uleb128 0x19
 1740 0157 03       		.uleb128 0x3
 1741 0158 0E       		.uleb128 0xe
 1742 0159 3A       		.uleb128 0x3a
 1743 015a 0B       		.uleb128 0xb
 1744 015b 3B       		.uleb128 0x3b
 1745 015c 05       		.uleb128 0x5
 1746 015d 27       		.uleb128 0x27
 1747 015e 19       		.uleb128 0x19
 1748 015f 49       		.uleb128 0x49
 1749 0160 13       		.uleb128 0x13
 1750 0161 11       		.uleb128 0x11
 1751 0162 01       		.uleb128 0x1
 1752 0163 12       		.uleb128 0x12
 1753 0164 06       		.uleb128 0x6
 1754 0165 40       		.uleb128 0x40
 1755 0166 18       		.uleb128 0x18
 1756 0167 9742     		.uleb128 0x2117
 1757 0169 19       		.uleb128 0x19
 1758 016a 01       		.uleb128 0x1
 1759 016b 13       		.uleb128 0x13
 1760 016c 00       		.byte	0
 1761 016d 00       		.byte	0
 1762 016e 1C       		.uleb128 0x1c
ARM GAS  /tmp/ccNwtsdD.s 			page 32


 1763 016f 05       		.uleb128 0x5
 1764 0170 00       		.byte	0
 1765 0171 03       		.uleb128 0x3
 1766 0172 0E       		.uleb128 0xe
 1767 0173 3A       		.uleb128 0x3a
 1768 0174 0B       		.uleb128 0xb
 1769 0175 3B       		.uleb128 0x3b
 1770 0176 05       		.uleb128 0x5
 1771 0177 49       		.uleb128 0x49
 1772 0178 13       		.uleb128 0x13
 1773 0179 02       		.uleb128 0x2
 1774 017a 17       		.uleb128 0x17
 1775 017b 00       		.byte	0
 1776 017c 00       		.byte	0
 1777 017d 1D       		.uleb128 0x1d
 1778 017e 05       		.uleb128 0x5
 1779 017f 00       		.byte	0
 1780 0180 03       		.uleb128 0x3
 1781 0181 08       		.uleb128 0x8
 1782 0182 3A       		.uleb128 0x3a
 1783 0183 0B       		.uleb128 0xb
 1784 0184 3B       		.uleb128 0x3b
 1785 0185 05       		.uleb128 0x5
 1786 0186 49       		.uleb128 0x49
 1787 0187 13       		.uleb128 0x13
 1788 0188 02       		.uleb128 0x2
 1789 0189 18       		.uleb128 0x18
 1790 018a 00       		.byte	0
 1791 018b 00       		.byte	0
 1792 018c 1E       		.uleb128 0x1e
 1793 018d 05       		.uleb128 0x5
 1794 018e 00       		.byte	0
 1795 018f 03       		.uleb128 0x3
 1796 0190 0E       		.uleb128 0xe
 1797 0191 3A       		.uleb128 0x3a
 1798 0192 0B       		.uleb128 0xb
 1799 0193 3B       		.uleb128 0x3b
 1800 0194 05       		.uleb128 0x5
 1801 0195 49       		.uleb128 0x49
 1802 0196 13       		.uleb128 0x13
 1803 0197 02       		.uleb128 0x2
 1804 0198 18       		.uleb128 0x18
 1805 0199 00       		.byte	0
 1806 019a 00       		.byte	0
 1807 019b 1F       		.uleb128 0x1f
 1808 019c 34       		.uleb128 0x34
 1809 019d 00       		.byte	0
 1810 019e 03       		.uleb128 0x3
 1811 019f 0E       		.uleb128 0xe
 1812 01a0 3A       		.uleb128 0x3a
 1813 01a1 0B       		.uleb128 0xb
 1814 01a2 3B       		.uleb128 0x3b
 1815 01a3 05       		.uleb128 0x5
 1816 01a4 49       		.uleb128 0x49
 1817 01a5 13       		.uleb128 0x13
 1818 01a6 02       		.uleb128 0x2
 1819 01a7 18       		.uleb128 0x18
ARM GAS  /tmp/ccNwtsdD.s 			page 33


 1820 01a8 00       		.byte	0
 1821 01a9 00       		.byte	0
 1822 01aa 20       		.uleb128 0x20
 1823 01ab 34       		.uleb128 0x34
 1824 01ac 00       		.byte	0
 1825 01ad 03       		.uleb128 0x3
 1826 01ae 08       		.uleb128 0x8
 1827 01af 3A       		.uleb128 0x3a
 1828 01b0 0B       		.uleb128 0xb
 1829 01b1 3B       		.uleb128 0x3b
 1830 01b2 05       		.uleb128 0x5
 1831 01b3 49       		.uleb128 0x49
 1832 01b4 13       		.uleb128 0x13
 1833 01b5 02       		.uleb128 0x2
 1834 01b6 18       		.uleb128 0x18
 1835 01b7 00       		.byte	0
 1836 01b8 00       		.byte	0
 1837 01b9 21       		.uleb128 0x21
 1838 01ba 34       		.uleb128 0x34
 1839 01bb 00       		.byte	0
 1840 01bc 03       		.uleb128 0x3
 1841 01bd 08       		.uleb128 0x8
 1842 01be 3A       		.uleb128 0x3a
 1843 01bf 0B       		.uleb128 0xb
 1844 01c0 3B       		.uleb128 0x3b
 1845 01c1 05       		.uleb128 0x5
 1846 01c2 49       		.uleb128 0x49
 1847 01c3 13       		.uleb128 0x13
 1848 01c4 02       		.uleb128 0x2
 1849 01c5 17       		.uleb128 0x17
 1850 01c6 00       		.byte	0
 1851 01c7 00       		.byte	0
 1852 01c8 22       		.uleb128 0x22
 1853 01c9 898201   		.uleb128 0x4109
 1854 01cc 01       		.byte	0x1
 1855 01cd 11       		.uleb128 0x11
 1856 01ce 01       		.uleb128 0x1
 1857 01cf 9542     		.uleb128 0x2115
 1858 01d1 19       		.uleb128 0x19
 1859 01d2 31       		.uleb128 0x31
 1860 01d3 13       		.uleb128 0x13
 1861 01d4 00       		.byte	0
 1862 01d5 00       		.byte	0
 1863 01d6 23       		.uleb128 0x23
 1864 01d7 34       		.uleb128 0x34
 1865 01d8 00       		.byte	0
 1866 01d9 03       		.uleb128 0x3
 1867 01da 0E       		.uleb128 0xe
 1868 01db 3A       		.uleb128 0x3a
 1869 01dc 0B       		.uleb128 0xb
 1870 01dd 3B       		.uleb128 0x3b
 1871 01de 0B       		.uleb128 0xb
 1872 01df 49       		.uleb128 0x49
 1873 01e0 13       		.uleb128 0x13
 1874 01e1 3F       		.uleb128 0x3f
 1875 01e2 19       		.uleb128 0x19
 1876 01e3 02       		.uleb128 0x2
ARM GAS  /tmp/ccNwtsdD.s 			page 34


 1877 01e4 18       		.uleb128 0x18
 1878 01e5 00       		.byte	0
 1879 01e6 00       		.byte	0
 1880 01e7 24       		.uleb128 0x24
 1881 01e8 2E       		.uleb128 0x2e
 1882 01e9 01       		.byte	0x1
 1883 01ea 3F       		.uleb128 0x3f
 1884 01eb 19       		.uleb128 0x19
 1885 01ec 03       		.uleb128 0x3
 1886 01ed 0E       		.uleb128 0xe
 1887 01ee 3A       		.uleb128 0x3a
 1888 01ef 0B       		.uleb128 0xb
 1889 01f0 3B       		.uleb128 0x3b
 1890 01f1 0B       		.uleb128 0xb
 1891 01f2 27       		.uleb128 0x27
 1892 01f3 19       		.uleb128 0x19
 1893 01f4 49       		.uleb128 0x49
 1894 01f5 13       		.uleb128 0x13
 1895 01f6 3C       		.uleb128 0x3c
 1896 01f7 19       		.uleb128 0x19
 1897 01f8 01       		.uleb128 0x1
 1898 01f9 13       		.uleb128 0x13
 1899 01fa 00       		.byte	0
 1900 01fb 00       		.byte	0
 1901 01fc 25       		.uleb128 0x25
 1902 01fd 2E       		.uleb128 0x2e
 1903 01fe 00       		.byte	0
 1904 01ff 3F       		.uleb128 0x3f
 1905 0200 19       		.uleb128 0x19
 1906 0201 03       		.uleb128 0x3
 1907 0202 0E       		.uleb128 0xe
 1908 0203 3A       		.uleb128 0x3a
 1909 0204 0B       		.uleb128 0xb
 1910 0205 3B       		.uleb128 0x3b
 1911 0206 05       		.uleb128 0x5
 1912 0207 27       		.uleb128 0x27
 1913 0208 19       		.uleb128 0x19
 1914 0209 3C       		.uleb128 0x3c
 1915 020a 19       		.uleb128 0x19
 1916 020b 00       		.byte	0
 1917 020c 00       		.byte	0
 1918 020d 00       		.byte	0
 1919              		.section	.debug_loc,"",%progbits
 1920              	.Ldebug_loc0:
 1921              	.LLST0:
 1922 0000 00000000 		.4byte	.LVL0
 1923 0004 22000000 		.4byte	.LVL1
 1924 0008 0100     		.2byte	0x1
 1925 000a 50       		.byte	0x50
 1926 000b 22000000 		.4byte	.LVL1
 1927 000f 2E000000 		.4byte	.LFE7
 1928 0013 0400     		.2byte	0x4
 1929 0015 F3       		.byte	0xf3
 1930 0016 01       		.uleb128 0x1
 1931 0017 50       		.byte	0x50
 1932 0018 9F       		.byte	0x9f
 1933 0019 00000000 		.4byte	0
ARM GAS  /tmp/ccNwtsdD.s 			page 35


 1934 001d 00000000 		.4byte	0
 1935              	.LLST1:
 1936 0021 00000000 		.4byte	.LVL0
 1937 0025 22000000 		.4byte	.LVL1
 1938 0029 0300     		.2byte	0x3
 1939 002b 50       		.byte	0x50
 1940 002c 93       		.byte	0x93
 1941 002d 04       		.uleb128 0x4
 1942 002e 22000000 		.4byte	.LVL1
 1943 0032 2E000000 		.4byte	.LFE7
 1944 0036 0600     		.2byte	0x6
 1945 0038 F3       		.byte	0xf3
 1946 0039 01       		.uleb128 0x1
 1947 003a 50       		.byte	0x50
 1948 003b 9F       		.byte	0x9f
 1949 003c 93       		.byte	0x93
 1950 003d 04       		.uleb128 0x4
 1951 003e 00000000 		.4byte	0
 1952 0042 00000000 		.4byte	0
 1953              	.LLST2:
 1954 0046 00000000 		.4byte	.LVL2
 1955 004a 05000000 		.4byte	.LVL3-1
 1956 004e 0100     		.2byte	0x1
 1957 0050 50       		.byte	0x50
 1958 0051 05000000 		.4byte	.LVL3-1
 1959 0055 2E000000 		.4byte	.LFE8
 1960 0059 0400     		.2byte	0x4
 1961 005b F3       		.byte	0xf3
 1962 005c 01       		.uleb128 0x1
 1963 005d 50       		.byte	0x50
 1964 005e 9F       		.byte	0x9f
 1965 005f 00000000 		.4byte	0
 1966 0063 00000000 		.4byte	0
 1967              	.LLST3:
 1968 0067 06000000 		.4byte	.LVL3
 1969 006b 0E000000 		.4byte	.LVL4
 1970 006f 0500     		.2byte	0x5
 1971 0071 40       		.byte	0x40
 1972 0072 4B       		.byte	0x4b
 1973 0073 24       		.byte	0x24
 1974 0074 1F       		.byte	0x1f
 1975 0075 9F       		.byte	0x9f
 1976 0076 0E000000 		.4byte	.LVL4
 1977 007a 22000000 		.4byte	.LVL7
 1978 007e 0100     		.2byte	0x1
 1979 0080 53       		.byte	0x53
 1980 0081 22000000 		.4byte	.LVL7
 1981 0085 24000000 		.4byte	.LVL8
 1982 0089 0500     		.2byte	0x5
 1983 008b 73       		.byte	0x73
 1984 008c 00       		.sleb128 0
 1985 008d 31       		.byte	0x31
 1986 008e 25       		.byte	0x25
 1987 008f 9F       		.byte	0x9f
 1988 0090 24000000 		.4byte	.LVL8
 1989 0094 2E000000 		.4byte	.LFE8
 1990 0098 0100     		.2byte	0x1
ARM GAS  /tmp/ccNwtsdD.s 			page 36


 1991 009a 53       		.byte	0x53
 1992 009b 00000000 		.4byte	0
 1993 009f 00000000 		.4byte	0
 1994              	.LLST4:
 1995 00a3 06000000 		.4byte	.LVL3
 1996 00a7 28000000 		.4byte	.LVL9
 1997 00ab 0100     		.2byte	0x1
 1998 00ad 50       		.byte	0x50
 1999 00ae 2A000000 		.4byte	.LVL10
 2000 00b2 2C000000 		.4byte	.LVL11
 2001 00b6 0100     		.2byte	0x1
 2002 00b8 50       		.byte	0x50
 2003 00b9 00000000 		.4byte	0
 2004 00bd 00000000 		.4byte	0
 2005              	.LLST5:
 2006 00c1 00000000 		.4byte	.LVL12
 2007 00c5 0E000000 		.4byte	.LVL13
 2008 00c9 0100     		.2byte	0x1
 2009 00cb 50       		.byte	0x50
 2010 00cc 0E000000 		.4byte	.LVL13
 2011 00d0 2A000000 		.4byte	.LVL16
 2012 00d4 0100     		.2byte	0x1
 2013 00d6 52       		.byte	0x52
 2014 00d7 2E000000 		.4byte	.LVL17
 2015 00db 36000000 		.4byte	.LVL20
 2016 00df 0100     		.2byte	0x1
 2017 00e1 52       		.byte	0x52
 2018 00e2 3C000000 		.4byte	.LVL21
 2019 00e6 6A000000 		.4byte	.LVL23
 2020 00ea 0100     		.2byte	0x1
 2021 00ec 52       		.byte	0x52
 2022 00ed 6E000000 		.4byte	.LVL25
 2023 00f1 8A000000 		.4byte	.LVL29
 2024 00f5 0100     		.2byte	0x1
 2025 00f7 52       		.byte	0x52
 2026 00f8 94000000 		.4byte	.LVL31
 2027 00fc A2000000 		.4byte	.LVL33
 2028 0100 0300     		.2byte	0x3
 2029 0102 72       		.byte	0x72
 2030 0103 01       		.sleb128 1
 2031 0104 9F       		.byte	0x9f
 2032 0105 A2000000 		.4byte	.LVL33
 2033 0109 AE000000 		.4byte	.LVL34
 2034 010d 0300     		.2byte	0x3
 2035 010f 72       		.byte	0x72
 2036 0110 02       		.sleb128 2
 2037 0111 9F       		.byte	0x9f
 2038 0112 B4000000 		.4byte	.LVL35
 2039 0116 D4000000 		.4byte	.LVL38
 2040 011a 0100     		.2byte	0x1
 2041 011c 52       		.byte	0x52
 2042 011d 00000000 		.4byte	0
 2043 0121 00000000 		.4byte	0
 2044              	.LLST6:
 2045 0125 00000000 		.4byte	.LVL12
 2046 0129 8C000000 		.4byte	.LVL30
 2047 012d 0100     		.2byte	0x1
ARM GAS  /tmp/ccNwtsdD.s 			page 37


 2048 012f 51       		.byte	0x51
 2049 0130 8C000000 		.4byte	.LVL30
 2050 0134 94000000 		.4byte	.LVL31
 2051 0138 0400     		.2byte	0x4
 2052 013a F3       		.byte	0xf3
 2053 013b 01       		.uleb128 0x1
 2054 013c 51       		.byte	0x51
 2055 013d 9F       		.byte	0x9f
 2056 013e 94000000 		.4byte	.LVL31
 2057 0142 F4000000 		.4byte	.LVL39
 2058 0146 0100     		.2byte	0x1
 2059 0148 51       		.byte	0x51
 2060 0149 F4000000 		.4byte	.LVL39
 2061 014d 0A010000 		.4byte	.LVL41
 2062 0151 0400     		.2byte	0x4
 2063 0153 F3       		.byte	0xf3
 2064 0154 01       		.uleb128 0x1
 2065 0155 51       		.byte	0x51
 2066 0156 9F       		.byte	0x9f
 2067 0157 0A010000 		.4byte	.LVL41
 2068 015b 39010000 		.4byte	.LVL44-1
 2069 015f 0100     		.2byte	0x1
 2070 0161 51       		.byte	0x51
 2071 0162 39010000 		.4byte	.LVL44-1
 2072 0166 3E010000 		.4byte	.LFE10
 2073 016a 0400     		.2byte	0x4
 2074 016c F3       		.byte	0xf3
 2075 016d 01       		.uleb128 0x1
 2076 016e 51       		.byte	0x51
 2077 016f 9F       		.byte	0x9f
 2078 0170 00000000 		.4byte	0
 2079 0174 00000000 		.4byte	0
 2080              	.LLST7:
 2081 0178 20000000 		.4byte	.LVL15
 2082 017c 2E000000 		.4byte	.LVL17
 2083 0180 0200     		.2byte	0x2
 2084 0182 30       		.byte	0x30
 2085 0183 9F       		.byte	0x9f
 2086 0184 2E000000 		.4byte	.LVL17
 2087 0188 32000000 		.4byte	.LVL18
 2088 018c 0100     		.2byte	0x1
 2089 018e 57       		.byte	0x57
 2090 018f 36000000 		.4byte	.LVL20
 2091 0193 8A000000 		.4byte	.LVL29
 2092 0197 0100     		.2byte	0x1
 2093 0199 57       		.byte	0x57
 2094 019a 94000000 		.4byte	.LVL31
 2095 019e B4000000 		.4byte	.LVL35
 2096 01a2 0200     		.2byte	0x2
 2097 01a4 30       		.byte	0x30
 2098 01a5 9F       		.byte	0x9f
 2099 01a6 B4000000 		.4byte	.LVL35
 2100 01aa 3E010000 		.4byte	.LFE10
 2101 01ae 0100     		.2byte	0x1
 2102 01b0 57       		.byte	0x57
 2103 01b1 00000000 		.4byte	0
 2104 01b5 00000000 		.4byte	0
ARM GAS  /tmp/ccNwtsdD.s 			page 38


 2105              	.LLST8:
 2106 01b9 20000000 		.4byte	.LVL15
 2107 01bd 2A000000 		.4byte	.LVL16
 2108 01c1 0200     		.2byte	0x2
 2109 01c3 3A       		.byte	0x3a
 2110 01c4 9F       		.byte	0x9f
 2111 01c5 94000000 		.4byte	.LVL31
 2112 01c9 96000000 		.4byte	.LVL32
 2113 01cd 0200     		.2byte	0x2
 2114 01cf 3A       		.byte	0x3a
 2115 01d0 9F       		.byte	0x9f
 2116 01d1 96000000 		.4byte	.LVL32
 2117 01d5 B4000000 		.4byte	.LVL35
 2118 01d9 0200     		.2byte	0x2
 2119 01db 40       		.byte	0x40
 2120 01dc 9F       		.byte	0x9f
 2121 01dd 00000000 		.4byte	0
 2122 01e1 00000000 		.4byte	0
 2123              	.LLST9:
 2124 01e5 12000000 		.4byte	.LVL14
 2125 01e9 20000000 		.4byte	.LVL15
 2126 01ed 0200     		.2byte	0x2
 2127 01ef 72       		.byte	0x72
 2128 01f0 00       		.sleb128 0
 2129 01f1 20000000 		.4byte	.LVL15
 2130 01f5 2A000000 		.4byte	.LVL16
 2131 01f9 0100     		.2byte	0x1
 2132 01fb 53       		.byte	0x53
 2133 01fc 2E000000 		.4byte	.LVL17
 2134 0200 34000000 		.4byte	.LVL19
 2135 0204 0100     		.2byte	0x1
 2136 0206 53       		.byte	0x53
 2137 0207 3C000000 		.4byte	.LVL21
 2138 020b 5C000000 		.4byte	.LVL22
 2139 020f 0100     		.2byte	0x1
 2140 0211 53       		.byte	0x53
 2141 0212 5C000000 		.4byte	.LVL22
 2142 0216 6C000000 		.4byte	.LVL24
 2143 021a 0300     		.2byte	0x3
 2144 021c 73       		.byte	0x73
 2145 021d 76       		.sleb128 -10
 2146 021e 9F       		.byte	0x9f
 2147 021f 6C000000 		.4byte	.LVL24
 2148 0223 6E000000 		.4byte	.LVL25
 2149 0227 0200     		.2byte	0x2
 2150 0229 72       		.byte	0x72
 2151 022a 01       		.sleb128 1
 2152 022b 6E000000 		.4byte	.LVL25
 2153 022f 78000000 		.4byte	.LVL26
 2154 0233 0100     		.2byte	0x1
 2155 0235 53       		.byte	0x53
 2156 0236 88000000 		.4byte	.LVL28
 2157 023a 8A000000 		.4byte	.LVL29
 2158 023e 0200     		.2byte	0x2
 2159 0240 72       		.byte	0x72
 2160 0241 00       		.sleb128 0
 2161 0242 94000000 		.4byte	.LVL31
ARM GAS  /tmp/ccNwtsdD.s 			page 39


 2162 0246 96000000 		.4byte	.LVL32
 2163 024a 0100     		.2byte	0x1
 2164 024c 53       		.byte	0x53
 2165 024d 96000000 		.4byte	.LVL32
 2166 0251 A2000000 		.4byte	.LVL33
 2167 0255 0200     		.2byte	0x2
 2168 0257 72       		.byte	0x72
 2169 0258 01       		.sleb128 1
 2170 0259 A2000000 		.4byte	.LVL33
 2171 025d BC000000 		.4byte	.LVL36
 2172 0261 0100     		.2byte	0x1
 2173 0263 53       		.byte	0x53
 2174 0264 BC000000 		.4byte	.LVL36
 2175 0268 BE000000 		.4byte	.LVL37
 2176 026c 0300     		.2byte	0x3
 2177 026e 73       		.byte	0x73
 2178 026f 09       		.sleb128 9
 2179 0270 9F       		.byte	0x9f
 2180 0271 00000000 		.4byte	0
 2181 0275 00000000 		.4byte	0
 2182              	.LLST10:
 2183 0279 12000000 		.4byte	.LVL14
 2184 027d 20000000 		.4byte	.LVL15
 2185 0281 0300     		.2byte	0x3
 2186 0283 91       		.byte	0x91
 2187 0284 50       		.sleb128 -48
 2188 0285 9F       		.byte	0x9f
 2189 0286 20000000 		.4byte	.LVL15
 2190 028a 7C000000 		.4byte	.LVL27
 2191 028e 0100     		.2byte	0x1
 2192 0290 58       		.byte	0x58
 2193 0291 7C000000 		.4byte	.LVL27
 2194 0295 88000000 		.4byte	.LVL28
 2195 0299 0300     		.2byte	0x3
 2196 029b 78       		.byte	0x78
 2197 029c 7C       		.sleb128 -4
 2198 029d 9F       		.byte	0x9f
 2199 029e 88000000 		.4byte	.LVL28
 2200 02a2 8A000000 		.4byte	.LVL29
 2201 02a6 0100     		.2byte	0x1
 2202 02a8 58       		.byte	0x58
 2203 02a9 94000000 		.4byte	.LVL31
 2204 02ad 3E010000 		.4byte	.LFE10
 2205 02b1 0100     		.2byte	0x1
 2206 02b3 58       		.byte	0x58
 2207 02b4 00000000 		.4byte	0
 2208 02b8 00000000 		.4byte	0
 2209              	.LLST11:
 2210 02bc 00000000 		.4byte	.LVL45
 2211 02c0 09000000 		.4byte	.LVL46-1
 2212 02c4 0100     		.2byte	0x1
 2213 02c6 50       		.byte	0x50
 2214 02c7 09000000 		.4byte	.LVL46-1
 2215 02cb 1E000000 		.4byte	.LFE9
 2216 02cf 0400     		.2byte	0x4
 2217 02d1 F3       		.byte	0xf3
 2218 02d2 01       		.uleb128 0x1
ARM GAS  /tmp/ccNwtsdD.s 			page 40


 2219 02d3 50       		.byte	0x50
 2220 02d4 9F       		.byte	0x9f
 2221 02d5 00000000 		.4byte	0
 2222 02d9 00000000 		.4byte	0
 2223              	.LLST12:
 2224 02dd 00000000 		.4byte	.LVL47
 2225 02e1 20000000 		.4byte	.LVL49
 2226 02e5 0100     		.2byte	0x1
 2227 02e7 50       		.byte	0x50
 2228 02e8 20000000 		.4byte	.LVL49
 2229 02ec C4000000 		.4byte	.LFE12
 2230 02f0 0400     		.2byte	0x4
 2231 02f2 F3       		.byte	0xf3
 2232 02f3 01       		.uleb128 0x1
 2233 02f4 50       		.byte	0x50
 2234 02f5 9F       		.byte	0x9f
 2235 02f6 00000000 		.4byte	0
 2236 02fa 00000000 		.4byte	0
 2237              	.LLST13:
 2238 02fe 0E000000 		.4byte	.LVL48
 2239 0302 24000000 		.4byte	.LVL50
 2240 0306 0100     		.2byte	0x1
 2241 0308 51       		.byte	0x51
 2242 0309 24000000 		.4byte	.LVL50
 2243 030d A2000000 		.4byte	.LVL63
 2244 0311 0100     		.2byte	0x1
 2245 0313 56       		.byte	0x56
 2246 0314 A2000000 		.4byte	.LVL63
 2247 0318 A4000000 		.4byte	.LVL64
 2248 031c 0100     		.2byte	0x1
 2249 031e 53       		.byte	0x53
 2250 031f A4000000 		.4byte	.LVL64
 2251 0323 A6000000 		.4byte	.LVL65
 2252 0327 0300     		.2byte	0x3
 2253 0329 73       		.byte	0x73
 2254 032a 7F       		.sleb128 -1
 2255 032b 9F       		.byte	0x9f
 2256 032c A6000000 		.4byte	.LVL65
 2257 0330 B0000000 		.4byte	.LVL66
 2258 0334 0100     		.2byte	0x1
 2259 0336 56       		.byte	0x56
 2260 0337 B2000000 		.4byte	.LVL67
 2261 033b BA000000 		.4byte	.LVL68
 2262 033f 0100     		.2byte	0x1
 2263 0341 56       		.byte	0x56
 2264 0342 BC000000 		.4byte	.LVL69
 2265 0346 C0000000 		.4byte	.LVL70
 2266 034a 0100     		.2byte	0x1
 2267 034c 53       		.byte	0x53
 2268 034d C0000000 		.4byte	.LVL70
 2269 0351 C4000000 		.4byte	.LFE12
 2270 0355 0100     		.2byte	0x1
 2271 0357 56       		.byte	0x56
 2272 0358 00000000 		.4byte	0
 2273 035c 00000000 		.4byte	0
 2274              	.LLST14:
 2275 0360 0E000000 		.4byte	.LVL48
ARM GAS  /tmp/ccNwtsdD.s 			page 41


 2276 0364 24000000 		.4byte	.LVL50
 2277 0368 0300     		.2byte	0x3
 2278 036a 91       		.byte	0x91
 2279 036b 5C       		.sleb128 -36
 2280 036c 9F       		.byte	0x9f
 2281 036d 24000000 		.4byte	.LVL50
 2282 0371 60000000 		.4byte	.LVL55
 2283 0375 0300     		.2byte	0x3
 2284 0377 7A       		.byte	0x7a
 2285 0378 01       		.sleb128 1
 2286 0379 9F       		.byte	0x9f
 2287 037a 60000000 		.4byte	.LVL55
 2288 037e A2000000 		.4byte	.LVL63
 2289 0382 0100     		.2byte	0x1
 2290 0384 5A       		.byte	0x5a
 2291 0385 A2000000 		.4byte	.LVL63
 2292 0389 B0000000 		.4byte	.LVL66
 2293 038d 0300     		.2byte	0x3
 2294 038f 7A       		.byte	0x7a
 2295 0390 01       		.sleb128 1
 2296 0391 9F       		.byte	0x9f
 2297 0392 B2000000 		.4byte	.LVL67
 2298 0396 BA000000 		.4byte	.LVL68
 2299 039a 0100     		.2byte	0x1
 2300 039c 5A       		.byte	0x5a
 2301 039d BC000000 		.4byte	.LVL69
 2302 03a1 C0000000 		.4byte	.LVL70
 2303 03a5 0300     		.2byte	0x3
 2304 03a7 7A       		.byte	0x7a
 2305 03a8 01       		.sleb128 1
 2306 03a9 9F       		.byte	0x9f
 2307 03aa C0000000 		.4byte	.LVL70
 2308 03ae C4000000 		.4byte	.LFE12
 2309 03b2 0100     		.2byte	0x1
 2310 03b4 5A       		.byte	0x5a
 2311 03b5 00000000 		.4byte	0
 2312 03b9 00000000 		.4byte	0
 2313              	.LLST15:
 2314 03bd 2E000000 		.4byte	.LVL52
 2315 03c1 3E000000 		.4byte	.LVL53
 2316 03c5 0500     		.2byte	0x5
 2317 03c7 74       		.byte	0x74
 2318 03c8 00       		.sleb128 0
 2319 03c9 3A       		.byte	0x3a
 2320 03ca 1D       		.byte	0x1d
 2321 03cb 9F       		.byte	0x9f
 2322 03cc 00000000 		.4byte	0
 2323 03d0 00000000 		.4byte	0
 2324              	.LLST16:
 2325 03d4 0E000000 		.4byte	.LVL48
 2326 03d8 24000000 		.4byte	.LVL50
 2327 03dc 0200     		.2byte	0x2
 2328 03de 30       		.byte	0x30
 2329 03df 9F       		.byte	0x9f
 2330 03e0 24000000 		.4byte	.LVL50
 2331 03e4 60000000 		.4byte	.LVL55
 2332 03e8 0800     		.2byte	0x8
ARM GAS  /tmp/ccNwtsdD.s 			page 42


 2333 03ea 7A       		.byte	0x7a
 2334 03eb 00       		.sleb128 0
 2335 03ec 91       		.byte	0x91
 2336 03ed 00       		.sleb128 0
 2337 03ee 1C       		.byte	0x1c
 2338 03ef 23       		.byte	0x23
 2339 03f0 25       		.uleb128 0x25
 2340 03f1 9F       		.byte	0x9f
 2341 03f2 60000000 		.4byte	.LVL55
 2342 03f6 A2000000 		.4byte	.LVL63
 2343 03fa 0800     		.2byte	0x8
 2344 03fc 7A       		.byte	0x7a
 2345 03fd 00       		.sleb128 0
 2346 03fe 91       		.byte	0x91
 2347 03ff 00       		.sleb128 0
 2348 0400 1C       		.byte	0x1c
 2349 0401 23       		.byte	0x23
 2350 0402 24       		.uleb128 0x24
 2351 0403 9F       		.byte	0x9f
 2352 0404 A2000000 		.4byte	.LVL63
 2353 0408 B0000000 		.4byte	.LVL66
 2354 040c 0800     		.2byte	0x8
 2355 040e 7A       		.byte	0x7a
 2356 040f 00       		.sleb128 0
 2357 0410 91       		.byte	0x91
 2358 0411 00       		.sleb128 0
 2359 0412 1C       		.byte	0x1c
 2360 0413 23       		.byte	0x23
 2361 0414 25       		.uleb128 0x25
 2362 0415 9F       		.byte	0x9f
 2363 0416 B2000000 		.4byte	.LVL67
 2364 041a BA000000 		.4byte	.LVL68
 2365 041e 0800     		.2byte	0x8
 2366 0420 7A       		.byte	0x7a
 2367 0421 00       		.sleb128 0
 2368 0422 91       		.byte	0x91
 2369 0423 00       		.sleb128 0
 2370 0424 1C       		.byte	0x1c
 2371 0425 23       		.byte	0x23
 2372 0426 24       		.uleb128 0x24
 2373 0427 9F       		.byte	0x9f
 2374 0428 BC000000 		.4byte	.LVL69
 2375 042c C0000000 		.4byte	.LVL70
 2376 0430 0800     		.2byte	0x8
 2377 0432 7A       		.byte	0x7a
 2378 0433 00       		.sleb128 0
 2379 0434 91       		.byte	0x91
 2380 0435 00       		.sleb128 0
 2381 0436 1C       		.byte	0x1c
 2382 0437 23       		.byte	0x23
 2383 0438 25       		.uleb128 0x25
 2384 0439 9F       		.byte	0x9f
 2385 043a C0000000 		.4byte	.LVL70
 2386 043e C4000000 		.4byte	.LFE12
 2387 0442 0800     		.2byte	0x8
 2388 0444 7A       		.byte	0x7a
 2389 0445 00       		.sleb128 0
ARM GAS  /tmp/ccNwtsdD.s 			page 43


 2390 0446 91       		.byte	0x91
 2391 0447 00       		.sleb128 0
 2392 0448 1C       		.byte	0x1c
 2393 0449 23       		.byte	0x23
 2394 044a 24       		.uleb128 0x24
 2395 044b 9F       		.byte	0x9f
 2396 044c 00000000 		.4byte	0
 2397 0450 00000000 		.4byte	0
 2398              	.LLST17:
 2399 0454 2C000000 		.4byte	.LVL51
 2400 0458 2E000000 		.4byte	.LVL52
 2401 045c 0100     		.2byte	0x1
 2402 045e 57       		.byte	0x57
 2403 045f 2E000000 		.4byte	.LVL52
 2404 0463 50000000 		.4byte	.LVL54
 2405 0467 0100     		.2byte	0x1
 2406 0469 55       		.byte	0x55
 2407 046a 50000000 		.4byte	.LVL54
 2408 046e 60000000 		.4byte	.LVL55
 2409 0472 0100     		.2byte	0x1
 2410 0474 57       		.byte	0x57
 2411 0475 60000000 		.4byte	.LVL55
 2412 0479 72000000 		.4byte	.LVL57
 2413 047d 0100     		.2byte	0x1
 2414 047f 55       		.byte	0x55
 2415 0480 7E000000 		.4byte	.LVL59
 2416 0484 84000000 		.4byte	.LVL60
 2417 0488 0300     		.2byte	0x3
 2418 048a 73       		.byte	0x73
 2419 048b 01       		.sleb128 1
 2420 048c 9F       		.byte	0x9f
 2421 048d 84000000 		.4byte	.LVL60
 2422 0491 8C000000 		.4byte	.LVL61
 2423 0495 0100     		.2byte	0x1
 2424 0497 53       		.byte	0x53
 2425 0498 C0000000 		.4byte	.LVL70
 2426 049c C4000000 		.4byte	.LFE12
 2427 04a0 0100     		.2byte	0x1
 2428 04a2 55       		.byte	0x55
 2429 04a3 00000000 		.4byte	0
 2430 04a7 00000000 		.4byte	0
 2431              	.LLST18:
 2432 04ab 00000000 		.4byte	.LVL47
 2433 04af 24000000 		.4byte	.LVL50
 2434 04b3 0200     		.2byte	0x2
 2435 04b5 30       		.byte	0x30
 2436 04b6 9F       		.byte	0x9f
 2437 04b7 24000000 		.4byte	.LVL50
 2438 04bb 6A000000 		.4byte	.LVL56
 2439 04bf 0100     		.2byte	0x1
 2440 04c1 5B       		.byte	0x5b
 2441 04c2 6A000000 		.4byte	.LVL56
 2442 04c6 94000000 		.4byte	.LVL62
 2443 04ca 0100     		.2byte	0x1
 2444 04cc 57       		.byte	0x57
 2445 04cd 94000000 		.4byte	.LVL62
 2446 04d1 B0000000 		.4byte	.LVL66
ARM GAS  /tmp/ccNwtsdD.s 			page 44


 2447 04d5 0100     		.2byte	0x1
 2448 04d7 5B       		.byte	0x5b
 2449 04d8 BC000000 		.4byte	.LVL69
 2450 04dc C4000000 		.4byte	.LFE12
 2451 04e0 0100     		.2byte	0x1
 2452 04e2 5B       		.byte	0x5b
 2453 04e3 00000000 		.4byte	0
 2454 04e7 00000000 		.4byte	0
 2455              	.LLST19:
 2456 04eb 00000000 		.4byte	.LVL71
 2457 04ef 0D000000 		.4byte	.LVL72-1
 2458 04f3 0100     		.2byte	0x1
 2459 04f5 50       		.byte	0x50
 2460 04f6 0D000000 		.4byte	.LVL72-1
 2461 04fa 0E000000 		.4byte	.LFE11
 2462 04fe 0400     		.2byte	0x4
 2463 0500 F3       		.byte	0xf3
 2464 0501 01       		.uleb128 0x1
 2465 0502 50       		.byte	0x50
 2466 0503 9F       		.byte	0x9f
 2467 0504 00000000 		.4byte	0
 2468 0508 00000000 		.4byte	0
 2469              		.section	.debug_aranges,"",%progbits
 2470 0000 44000000 		.4byte	0x44
 2471 0004 0200     		.2byte	0x2
 2472 0006 00000000 		.4byte	.Ldebug_info0
 2473 000a 04       		.byte	0x4
 2474 000b 00       		.byte	0
 2475 000c 0000     		.2byte	0
 2476 000e 0000     		.2byte	0
 2477 0010 00000000 		.4byte	.LFB7
 2478 0014 2E000000 		.4byte	.LFE7-.LFB7
 2479 0018 00000000 		.4byte	.LFB8
 2480 001c 2E000000 		.4byte	.LFE8-.LFB8
 2481 0020 00000000 		.4byte	.LFB10
 2482 0024 3E010000 		.4byte	.LFE10-.LFB10
 2483 0028 00000000 		.4byte	.LFB9
 2484 002c 1E000000 		.4byte	.LFE9-.LFB9
 2485 0030 00000000 		.4byte	.LFB12
 2486 0034 C4000000 		.4byte	.LFE12-.LFB12
 2487 0038 00000000 		.4byte	.LFB11
 2488 003c 0E000000 		.4byte	.LFE11-.LFB11
 2489 0040 00000000 		.4byte	0
 2490 0044 00000000 		.4byte	0
 2491              		.section	.debug_ranges,"",%progbits
 2492              	.Ldebug_ranges0:
 2493 0000 00000000 		.4byte	.LFB7
 2494 0004 2E000000 		.4byte	.LFE7
 2495 0008 00000000 		.4byte	.LFB8
 2496 000c 2E000000 		.4byte	.LFE8
 2497 0010 00000000 		.4byte	.LFB10
 2498 0014 3E010000 		.4byte	.LFE10
 2499 0018 00000000 		.4byte	.LFB9
 2500 001c 1E000000 		.4byte	.LFE9
 2501 0020 00000000 		.4byte	.LFB12
 2502 0024 C4000000 		.4byte	.LFE12
 2503 0028 00000000 		.4byte	.LFB11
ARM GAS  /tmp/ccNwtsdD.s 			page 45


 2504 002c 0E000000 		.4byte	.LFE11
 2505 0030 00000000 		.4byte	0
 2506 0034 00000000 		.4byte	0
 2507              		.section	.debug_line,"",%progbits
 2508              	.Ldebug_line0:
 2509 0000 A1020000 		.section	.debug_str,"MS",%progbits,1
 2509      02005C01 
 2509      00000201 
 2509      FB0E0D00 
 2509      01010101 
 2510              	.LASF27:
 2511 0000 70627566 		.ascii	"pbuf\000"
 2511      00
 2512              	.LASF53:
 2513 0005 70617274 		.ascii	"parts\000"
 2513      7300
 2514              	.LASF58:
 2515 000b 69706164 		.ascii	"ipaddr_ntoa\000"
 2515      64725F6E 
 2515      746F6100 
 2516              	.LASF3:
 2517 0017 5F5F7569 		.ascii	"__uint8_t\000"
 2517      6E74385F 
 2517      7400
 2518              	.LASF32:
 2519 0021 74797065 		.ascii	"type\000"
 2519      00
 2520              	.LASF12:
 2521 0026 6C6F6E67 		.ascii	"long long unsigned int\000"
 2521      206C6F6E 
 2521      6720756E 
 2521      7369676E 
 2521      65642069 
 2522              	.LASF28:
 2523 003d 61646472 		.ascii	"addr\000"
 2523      00
 2524              	.LASF2:
 2525 0042 5F5F696E 		.ascii	"__int8_t\000"
 2525      74385F74 
 2525      00
 2526              	.LASF29:
 2527 004b 6E657874 		.ascii	"next\000"
 2527      00
 2528              	.LASF11:
 2529 0050 6C6F6E67 		.ascii	"long long int\000"
 2529      206C6F6E 
 2529      6720696E 
 2529      7400
 2530              	.LASF1:
 2531 005e 7369676E 		.ascii	"signed char\000"
 2531      65642063 
 2531      68617200 
 2532              	.LASF41:
 2533 006a 68776164 		.ascii	"hwaddr\000"
 2533      647200
 2534              	.LASF46:
 2535 0071 6970345F 		.ascii	"ip4_addr_isbroadcast\000"
ARM GAS  /tmp/ccNwtsdD.s 			page 46


 2535      61646472 
 2535      5F697362 
 2535      726F6164 
 2535      63617374 
 2536              	.LASF31:
 2537 0086 746F745F 		.ascii	"tot_len\000"
 2537      6C656E00 
 2538              	.LASF39:
 2539 008e 73746174 		.ascii	"state\000"
 2539      6500
 2540              	.LASF8:
 2541 0094 6C6F6E67 		.ascii	"long int\000"
 2541      20696E74 
 2541      00
 2542              	.LASF15:
 2543 009d 75696E74 		.ascii	"uint16_t\000"
 2543      31365F74 
 2543      00
 2544              	.LASF40:
 2545 00a6 68776164 		.ascii	"hwaddr_len\000"
 2545      64725F6C 
 2545      656E00
 2546              	.LASF65:
 2547 00b1 706F7274 		.ascii	"port_halt\000"
 2547      5F68616C 
 2547      7400
 2548              	.LASF35:
 2549 00bb 6E65746D 		.ascii	"netmask\000"
 2549      61736B00 
 2550              	.LASF9:
 2551 00c3 5F5F7569 		.ascii	"__uint32_t\000"
 2551      6E743332 
 2551      5F7400
 2552              	.LASF49:
 2553 00ce 6D61736B 		.ascii	"mask\000"
 2553      00
 2554              	.LASF0:
 2555 00d3 756E7369 		.ascii	"unsigned int\000"
 2555      676E6564 
 2555      20696E74 
 2555      00
 2556              	.LASF57:
 2557 00e0 735F6164 		.ascii	"s_addr\000"
 2557      647200
 2558              	.LASF10:
 2559 00e7 6C6F6E67 		.ascii	"long unsigned int\000"
 2559      20756E73 
 2559      69676E65 
 2559      6420696E 
 2559      7400
 2560              	.LASF23:
 2561 00f9 7533325F 		.ascii	"u32_t\000"
 2561      7400
 2562              	.LASF42:
 2563 00ff 6E616D65 		.ascii	"name\000"
 2563      00
 2564              	.LASF59:
ARM GAS  /tmp/ccNwtsdD.s 			page 47


 2565 0104 69705F61 		.ascii	"ip_addr_any\000"
 2565      6464725F 
 2565      616E7900 
 2566              	.LASF7:
 2567 0110 73686F72 		.ascii	"short unsigned int\000"
 2567      7420756E 
 2567      7369676E 
 2567      65642069 
 2567      6E7400
 2568              	.LASF62:
 2569 0123 2E2E2F2E 		.ascii	"../../ext/lwip/src/core/ipv4/ip_addr.c\000"
 2569      2E2F6578 
 2569      742F6C77 
 2569      69702F73 
 2569      72632F63 
 2570              	.LASF50:
 2571 014a 6E6D5F68 		.ascii	"nm_hostorder\000"
 2571      6F73746F 
 2571      72646572 
 2571      00
 2572              	.LASF64:
 2573 0157 6C776970 		.ascii	"lwip_htonl\000"
 2573      5F68746F 
 2573      6E6C00
 2574              	.LASF55:
 2575 0162 69706164 		.ascii	"ipaddr_ntoa_r\000"
 2575      64725F6E 
 2575      746F615F 
 2575      7200
 2576              	.LASF25:
 2577 0170 6572725F 		.ascii	"err_t\000"
 2577      7400
 2578              	.LASF63:
 2579 0176 2F686F6D 		.ascii	"/home/caroline/Documents/PAF/ChibiOS_2.6.4/demos/AR"
 2579      652F6361 
 2579      726F6C69 
 2579      6E652F44 
 2579      6F63756D 
 2580 01a9 4D434D34 		.ascii	"MCM4-STM32F407-LWIP\000"
 2580      2D53544D 
 2580      33324634 
 2580      30372D4C 
 2580      57495000 
 2581              	.LASF37:
 2582 01bd 6F757470 		.ascii	"output\000"
 2582      757400
 2583              	.LASF24:
 2584 01c4 69705F61 		.ascii	"ip_addr_t\000"
 2584      6464725F 
 2584      7400
 2585              	.LASF20:
 2586 01ce 75385F74 		.ascii	"u8_t\000"
 2586      00
 2587              	.LASF18:
 2588 01d3 73697A65 		.ascii	"sizetype\000"
 2588      74797065 
 2588      00
ARM GAS  /tmp/ccNwtsdD.s 			page 48


 2589              	.LASF45:
 2590 01dc 6E657469 		.ascii	"netif_linkoutput_fn\000"
 2590      665F6C69 
 2590      6E6B6F75 
 2590      74707574 
 2590      5F666E00 
 2591              	.LASF51:
 2592 01f0 69706164 		.ascii	"ipaddr_aton\000"
 2592      64725F61 
 2592      746F6E00 
 2593              	.LASF34:
 2594 01fc 6E657469 		.ascii	"netif\000"
 2594      6600
 2595              	.LASF30:
 2596 0202 7061796C 		.ascii	"payload\000"
 2596      6F616400 
 2597              	.LASF26:
 2598 020a 69705F61 		.ascii	"ip_addr\000"
 2598      64647200 
 2599              	.LASF60:
 2600 0212 69705F61 		.ascii	"ip_addr_broadcast\000"
 2600      6464725F 
 2600      62726F61 
 2600      64636173 
 2600      7400
 2601              	.LASF43:
 2602 0224 6E657469 		.ascii	"netif_input_fn\000"
 2602      665F696E 
 2602      7075745F 
 2602      666E00
 2603              	.LASF52:
 2604 0233 62617365 		.ascii	"base\000"
 2604      00
 2605              	.LASF17:
 2606 0238 5F426F6F 		.ascii	"_Bool\000"
 2606      6C00
 2607              	.LASF4:
 2608 023e 756E7369 		.ascii	"unsigned char\000"
 2608      676E6564 
 2608      20636861 
 2608      7200
 2609              	.LASF5:
 2610 024c 73686F72 		.ascii	"short int\000"
 2610      7420696E 
 2610      7400
 2611              	.LASF44:
 2612 0256 6E657469 		.ascii	"netif_output_fn\000"
 2612      665F6F75 
 2612      74707574 
 2612      5F666E00 
 2613              	.LASF56:
 2614 0266 6275666C 		.ascii	"buflen\000"
 2614      656E00
 2615              	.LASF36:
 2616 026d 696E7075 		.ascii	"input\000"
 2616      7400
 2617              	.LASF21:
ARM GAS  /tmp/ccNwtsdD.s 			page 49


 2618 0273 73385F74 		.ascii	"s8_t\000"
 2618      00
 2619              	.LASF16:
 2620 0278 75696E74 		.ascii	"uint32_t\000"
 2620      33325F74 
 2620      00
 2621              	.LASF19:
 2622 0281 63686172 		.ascii	"char\000"
 2622      00
 2623              	.LASF61:
 2624 0286 474E5520 		.ascii	"GNU C 4.8.2 -mcpu=cortex-m4 -mno-thumb-interwork -m"
 2624      4320342E 
 2624      382E3220 
 2624      2D6D6370 
 2624      753D636F 
 2625 02b9 7468756D 		.ascii	"thumb -ggdb -O2 -std=gnu99 -fomit-frame-pointer -fa"
 2625      62202D67 
 2625      67646220 
 2625      2D4F3220 
 2625      2D737464 
 2626 02ec 6C69676E 		.ascii	"lign-functions=16 -ffunction-sections -fdata-sectio"
 2626      2D66756E 
 2626      6374696F 
 2626      6E733D31 
 2626      36202D66 
 2627 031f 6E73202D 		.ascii	"ns -fno-common\000"
 2627      666E6F2D 
 2627      636F6D6D 
 2627      6F6E00
 2628              	.LASF6:
 2629 032e 5F5F7569 		.ascii	"__uint16_t\000"
 2629      6E743136 
 2629      5F7400
 2630              	.LASF13:
 2631 0339 696E7438 		.ascii	"int8_t\000"
 2631      5F7400
 2632              	.LASF22:
 2633 0340 7531365F 		.ascii	"u16_t\000"
 2633      7400
 2634              	.LASF48:
 2635 0346 69706164 		.ascii	"ipaddr\000"
 2635      647200
 2636              	.LASF14:
 2637 034d 75696E74 		.ascii	"uint8_t\000"
 2637      385F7400 
 2638              	.LASF33:
 2639 0355 666C6167 		.ascii	"flags\000"
 2639      7300
 2640              	.LASF38:
 2641 035b 6C696E6B 		.ascii	"linkoutput\000"
 2641      6F757470 
 2641      757400
 2642              	.LASF54:
 2643 0366 69706164 		.ascii	"ipaddr_addr\000"
 2643      64725F61 
 2643      64647200 
 2644              	.LASF47:
ARM GAS  /tmp/ccNwtsdD.s 			page 50


 2645 0372 6970345F 		.ascii	"ip4_addr_netmask_valid\000"
 2645      61646472 
 2645      5F6E6574 
 2645      6D61736B 
 2645      5F76616C 
 2646              		.ident	"GCC: (4.8.2-14ubuntu1+6) 4.8.2"
ARM GAS  /tmp/ccNwtsdD.s 			page 51


DEFINED SYMBOLS
                            *ABS*:0000000000000000 ip_addr.c
     /tmp/ccNwtsdD.s:19     .text.ip4_addr_isbroadcast:0000000000000000 $t
     /tmp/ccNwtsdD.s:25     .text.ip4_addr_isbroadcast:0000000000000000 ip4_addr_isbroadcast
     /tmp/ccNwtsdD.s:70     .text.ip4_addr_netmask_valid:0000000000000000 $t
     /tmp/ccNwtsdD.s:76     .text.ip4_addr_netmask_valid:0000000000000000 ip4_addr_netmask_valid
     /tmp/ccNwtsdD.s:134    .text.ipaddr_aton:0000000000000000 $t
     /tmp/ccNwtsdD.s:140    .text.ipaddr_aton:0000000000000000 ipaddr_aton
     /tmp/ccNwtsdD.s:324    .text.ipaddr_aton:00000000000000d4 $d
     /tmp/ccNwtsdD.s:331    .text.ipaddr_aton:00000000000000e8 $t
     /tmp/ccNwtsdD.s:394    .text.ipaddr_addr:0000000000000000 $t
     /tmp/ccNwtsdD.s:400    .text.ipaddr_addr:0000000000000000 ipaddr_addr
     /tmp/ccNwtsdD.s:434    .text.ipaddr_ntoa_r:0000000000000000 $t
     /tmp/ccNwtsdD.s:440    .text.ipaddr_ntoa_r:0000000000000000 ipaddr_ntoa_r
     /tmp/ccNwtsdD.s:600    .text.ipaddr_ntoa:0000000000000000 $t
     /tmp/ccNwtsdD.s:606    .text.ipaddr_ntoa:0000000000000000 ipaddr_ntoa
     /tmp/ccNwtsdD.s:627    .bss.str.5034:0000000000000000 .LANCHOR0
     /tmp/ccNwtsdD.s:636    .rodata.ip_addr_broadcast:0000000000000000 ip_addr_broadcast
     /tmp/ccNwtsdD.s:642    .rodata.ip_addr_any:0000000000000000 ip_addr_any
     /tmp/ccNwtsdD.s:626    .bss.str.5034:0000000000000000 $d
     /tmp/ccNwtsdD.s:630    .bss.str.5034:0000000000000000 str.5034
     /tmp/ccNwtsdD.s:633    .rodata.ip_addr_broadcast:0000000000000000 $d
     /tmp/ccNwtsdD.s:639    .rodata.ip_addr_any:0000000000000000 $d
                     .debug_frame:0000000000000010 $d

UNDEFINED SYMBOLS
lwip_htonl
port_halt
