ARM GAS  /tmp/cc0u4ASI.s 			page 1


   1              		.syntax unified
   2              		.cpu cortex-m4
   3              		.fpu softvfp
   4              		.eabi_attribute 20, 1
   5              		.eabi_attribute 21, 1
   6              		.eabi_attribute 23, 3
   7              		.eabi_attribute 24, 1
   8              		.eabi_attribute 25, 1
   9              		.eabi_attribute 26, 1
  10              		.eabi_attribute 30, 2
  11              		.eabi_attribute 34, 1
  12              		.eabi_attribute 18, 4
  13              		.thumb
  14              		.file	"ip_frag.c"
  15              		.text
  16              	.Ltext0:
  17              		.cfi_sections	.debug_frame
  18              		.section	.text.ip_reass_dequeue_datagram,"ax",%progbits
  19              		.align	2
  20              		.p2align 4,,15
  21              		.thumb
  22              		.thumb_func
  23              		.type	ip_reass_dequeue_datagram, %function
  24              	ip_reass_dequeue_datagram:
  25              	.LFB11:
  26              		.file 1 "../../ext/lwip/src/core/ipv4/ip_frag.c"
  27              		.loc 1 305 0
  28              		.cfi_startproc
  29              		@ args = 0, pretend = 0, frame = 8
  30              		@ frame_needed = 0, uses_anonymous_args = 0
  31              	.LVL0:
  32              		.loc 1 308 0
  33 0000 40F20003 		movw	r3, #:lower16:.LANCHOR0
  34 0004 C0F20003 		movt	r3, #:upper16:.LANCHOR0
  35              		.loc 1 305 0
  36 0008 00B5     		push	{lr}
  37              		.cfi_def_cfa_offset 4
  38              		.cfi_offset 14, -4
  39              		.loc 1 308 0
  40 000a 1A68     		ldr	r2, [r3]
  41 000c 8242     		cmp	r2, r0
  42              		.loc 1 310 0
  43 000e 08BF     		it	eq
  44 0010 0268     		ldreq	r2, [r0]
  45              		.loc 1 305 0
  46 0012 83B0     		sub	sp, sp, #12
  47              		.cfi_def_cfa_offset 16
  48              		.loc 1 310 0
  49 0014 08BF     		it	eq
  50 0016 1A60     		streq	r2, [r3]
  51              		.loc 1 308 0
  52 0018 02D0     		beq	.L3
  53              		.loc 1 313 0
  54 001a 41B1     		cbz	r1, .L6
  55              	.LVL1:
  56              	.L4:
  57              		.loc 1 314 0
ARM GAS  /tmp/cc0u4ASI.s 			page 2


  58 001c 0368     		ldr	r3, [r0]
  59 001e 0B60     		str	r3, [r1]
  60              	.L3:
  61              		.loc 1 318 0
  62 0020 0146     		mov	r1, r0
  63 0022 0520     		movs	r0, #5
  64              		.loc 1 319 0
  65 0024 03B0     		add	sp, sp, #12
  66              		@ sp needed
  67 0026 5DF804EB 		ldr	lr, [sp], #4
  68              		.loc 1 318 0
  69 002a FFF7FEBF 		b	memp_free
  70              	.LVL2:
  71              	.L6:
  72              		.loc 1 313 0 discriminator 1
  73 002e 0190     		str	r0, [sp, #4]
  74 0030 0091     		str	r1, [sp]
  75 0032 FFF7FEFF 		bl	port_halt
  76              	.LVL3:
  77 0036 0099     		ldr	r1, [sp]
  78 0038 0198     		ldr	r0, [sp, #4]
  79 003a EFE7     		b	.L4
  80              		.cfi_endproc
  81              	.LFE11:
  82              		.size	ip_reass_dequeue_datagram, .-ip_reass_dequeue_datagram
  83 003c AFF30080 		.section	.text.ip_reass_free_complete_datagram,"ax",%progbits
  84              		.align	2
  85              		.p2align 4,,15
  86              		.thumb
  87              		.thumb_func
  88              		.type	ip_reass_free_complete_datagram, %function
  89              	ip_reass_free_complete_datagram:
  90              	.LFB8:
  91              		.loc 1 159 0
  92              		.cfi_startproc
  93              		@ args = 0, pretend = 0, frame = 0
  94              		@ frame_needed = 0, uses_anonymous_args = 0
  95              	.LVL4:
  96              		.loc 1 165 0
  97 0000 8142     		cmp	r1, r0
  98              		.loc 1 159 0
  99 0002 2DE9F041 		push	{r4, r5, r6, r7, r8, lr}
 100              		.cfi_def_cfa_offset 24
 101              		.cfi_offset 4, -24
 102              		.cfi_offset 5, -20
 103              		.cfi_offset 6, -16
 104              		.cfi_offset 7, -12
 105              		.cfi_offset 8, -8
 106              		.cfi_offset 14, -4
 107              		.loc 1 159 0
 108 0006 0746     		mov	r7, r0
 109 0008 8846     		mov	r8, r1
 110              		.loc 1 165 0
 111 000a 55D0     		beq	.L24
 112              	.LVL5:
 113              	.L8:
 114              		.loc 1 166 0
ARM GAS  /tmp/cc0u4ASI.s 			page 3


 115 000c B8F1000F 		cmp	r8, #0
 116 0010 05D0     		beq	.L9
 117              		.loc 1 167 0
 118 0012 D8F80030 		ldr	r3, [r8]
 119 0016 BB42     		cmp	r3, r7
 120 0018 01D0     		beq	.L9
 121              		.loc 1 167 0 is_stmt 0 discriminator 1
 122 001a FFF7FEFF 		bl	port_halt
 123              	.LVL6:
 124              	.L9:
 125              		.loc 1 172 0 is_stmt 1
 126 001e 7C68     		ldr	r4, [r7, #4]
 127 0020 6368     		ldr	r3, [r4, #4]
 128              	.LVL7:
 129              		.loc 1 173 0
 130 0022 9A88     		ldrh	r2, [r3, #4]	@ unaligned
 131              		.loc 1 160 0
 132 0024 0025     		movs	r5, #0
 133              		.loc 1 173 0
 134 0026 32B9     		cbnz	r2, .L14
 135 0028 29E0     		b	.L27
 136              	.LVL8:
 137              	.L12:
 138              	.LBB5:
 139              		.loc 1 200 0
 140 002a 2046     		mov	r0, r4
 141              	.LVL9:
 142              		.loc 1 199 0
 143 002c ADB2     		uxth	r5, r5
 144              	.LVL10:
 145              		.loc 1 200 0
 146 002e FFF7FEFF 		bl	pbuf_free
 147              	.LVL11:
 148              	.LBE5:
 149              		.loc 1 191 0
 150 0032 8EB1     		cbz	r6, .L11
 151              	.LVL12:
 152              	.L26:
 153              	.LBB6:
 154              		.loc 1 196 0
 155 0034 3446     		mov	r4, r6
 156              	.LVL13:
 157              	.L14:
 158              		.loc 1 193 0
 159 0036 6368     		ldr	r3, [r4, #4]
 160              	.LVL14:
 161              		.loc 1 197 0
 162 0038 2046     		mov	r0, r4
 163              		.loc 1 196 0
 164 003a 1E68     		ldr	r6, [r3]	@ unaligned
 165              	.LVL15:
 166              		.loc 1 197 0
 167 003c FFF7FEFF 		bl	pbuf_clen
 168              	.LVL16:
 169              		.loc 1 198 0
 170 0040 0544     		add	r5, r5, r0
 171              	.LVL17:
ARM GAS  /tmp/cc0u4ASI.s 			page 4


 172 0042 B5F5803F 		cmp	r5, #65536
 173 0046 F0DB     		blt	.L12
 174              		.loc 1 198 0 is_stmt 0 discriminator 1
 175 0048 FFF7FEFF 		bl	port_halt
 176              	.LVL18:
 177              		.loc 1 200 0 is_stmt 1 discriminator 1
 178 004c 2046     		mov	r0, r4
 179              		.loc 1 199 0 discriminator 1
 180 004e ADB2     		uxth	r5, r5
 181              	.LVL19:
 182              		.loc 1 200 0 discriminator 1
 183 0050 FFF7FEFF 		bl	pbuf_free
 184              	.LVL20:
 185              	.LBE6:
 186              		.loc 1 191 0 discriminator 1
 187 0054 002E     		cmp	r6, #0
 188 0056 EDD1     		bne	.L26
 189              	.LVL21:
 190              	.L11:
 191              		.loc 1 204 0
 192 0058 40F20004 		movw	r4, #:lower16:.LANCHOR1
 193 005c C0F20004 		movt	r4, #:upper16:.LANCHOR1
 194              		.loc 1 203 0
 195 0060 3846     		mov	r0, r7
 196 0062 4146     		mov	r1, r8
 197 0064 FFF7FEFF 		bl	ip_reass_dequeue_datagram
 198              	.LVL22:
 199              		.loc 1 204 0
 200 0068 2388     		ldrh	r3, [r4]
 201 006a 9D42     		cmp	r5, r3
 202 006c 02D9     		bls	.L15
 203              		.loc 1 204 0 is_stmt 0 discriminator 1
 204 006e FFF7FEFF 		bl	port_halt
 205              	.LVL23:
 206 0072 2388     		ldrh	r3, [r4]
 207              	.L15:
 208              		.loc 1 205 0 is_stmt 1
 209 0074 5B1B     		subs	r3, r3, r5
 210 0076 2380     		strh	r3, [r4]	@ movhi
 211              		.loc 1 208 0
 212 0078 2846     		mov	r0, r5
 213 007a BDE8F081 		pop	{r4, r5, r6, r7, r8, pc}
 214              	.LVL24:
 215              	.L27:
 216              		.loc 1 177 0
 217 007e 1968     		ldr	r1, [r3]	@ unaligned
 218              		.loc 1 179 0
 219 0080 3A46     		mov	r2, r7
 220              		.loc 1 177 0
 221 0082 7960     		str	r1, [r7, #4]
 222              		.loc 1 179 0
 223 0084 52F8081F 		ldr	r1, [r2, #8]!	@ unaligned
 224 0088 9568     		ldr	r5, [r2, #8]	@ unaligned
 225 008a D068     		ldr	r0, [r2, #12]	@ unaligned
 226 008c 5668     		ldr	r6, [r2, #4]	@ unaligned
 227 008e 9D60     		str	r5, [r3, #8]	@ unaligned
 228 0090 D860     		str	r0, [r3, #12]	@ unaligned
ARM GAS  /tmp/cc0u4ASI.s 			page 5


 229 0092 1960     		str	r1, [r3]	@ unaligned
 230 0094 5E60     		str	r6, [r3, #4]	@ unaligned
 231 0096 1169     		ldr	r1, [r2, #16]	@ unaligned
 232              		.loc 1 180 0
 233 0098 2046     		mov	r0, r4
 234              		.loc 1 179 0
 235 009a 1961     		str	r1, [r3, #16]	@ unaligned
 236              		.loc 1 180 0
 237 009c 0121     		movs	r1, #1
 238 009e FFF7FEFF 		bl	icmp_time_exceeded
 239              	.LVL25:
 240              		.loc 1 181 0
 241 00a2 2046     		mov	r0, r4
 242 00a4 FFF7FEFF 		bl	pbuf_clen
 243              	.LVL26:
 244 00a8 0546     		mov	r5, r0
 245              	.LVL27:
 246              		.loc 1 184 0
 247 00aa 2046     		mov	r0, r4
 248              	.LVL28:
 249 00ac FFF7FEFF 		bl	pbuf_free
 250              	.LVL29:
 251 00b0 7C68     		ldr	r4, [r7, #4]
 252              	.LVL30:
 253              		.loc 1 191 0
 254 00b2 002C     		cmp	r4, #0
 255 00b4 BFD1     		bne	.L14
 256 00b6 CFE7     		b	.L11
 257              	.LVL31:
 258              	.L24:
 259              		.loc 1 165 0 discriminator 1
 260 00b8 FFF7FEFF 		bl	port_halt
 261              	.LVL32:
 262 00bc A6E7     		b	.L8
 263              		.cfi_endproc
 264              	.LFE8:
 265              		.size	ip_reass_free_complete_datagram, .-ip_reass_free_complete_datagram
 266 00be 00BF     		.section	.text.ip_reass_remove_oldest_datagram,"ax",%progbits
 267              		.align	2
 268              		.p2align 4,,15
 269              		.thumb
 270              		.thumb_func
 271              		.type	ip_reass_remove_oldest_datagram, %function
 272              	ip_reass_remove_oldest_datagram:
 273              	.LFB9:
 274              		.loc 1 222 0
 275              		.cfi_startproc
 276              		@ args = 0, pretend = 0, frame = 0
 277              		@ frame_needed = 0, uses_anonymous_args = 0
 278              	.LVL33:
 279 0000 2DE9F843 		push	{r3, r4, r5, r6, r7, r8, r9, lr}
 280              		.cfi_def_cfa_offset 32
 281              		.cfi_offset 3, -32
 282              		.cfi_offset 4, -28
 283              		.cfi_offset 5, -24
 284              		.cfi_offset 6, -20
 285              		.cfi_offset 7, -16
ARM GAS  /tmp/cc0u4ASI.s 			page 6


 286              		.cfi_offset 8, -12
 287              		.cfi_offset 9, -8
 288              		.cfi_offset 14, -4
 289 0004 40F20005 		movw	r5, #:lower16:.LANCHOR0
 290              		.loc 1 222 0
 291 0008 0746     		mov	r7, r0
 292 000a 0E46     		mov	r6, r1
 293 000c C0F20005 		movt	r5, #:upper16:.LANCHOR0
 294              		.loc 1 227 0
 295 0010 4FF00008 		mov	r8, #0
 296              	.LVL34:
 297              	.L36:
 298              		.loc 1 236 0
 299 0014 2B68     		ldr	r3, [r5]
 300              	.LVL35:
 301              		.loc 1 237 0
 302 0016 002B     		cmp	r3, #0
 303 0018 32D0     		beq	.L29
 304              		.loc 1 235 0
 305 001a 0024     		movs	r4, #0
 306 001c D7F80CC0 		ldr	ip, [r7, #12]	@ unaligned
 307              		.loc 1 234 0
 308 0020 2146     		mov	r1, r4
 309              		.loc 1 233 0
 310 0022 2046     		mov	r0, r4
 311 0024 0BE0     		b	.L33
 312              	.LVL36:
 313              	.L30:
 314              		.loc 1 240 0
 315 0026 0134     		adds	r4, r4, #1
 316              	.LVL37:
 317              		.loc 1 241 0
 318 0028 C8B1     		cbz	r0, .L37
 319              	.L45:
 320              		.loc 1 243 0
 321 002a 93F81F90 		ldrb	r9, [r3, #31]	@ zero_extendqisi2
 322 002e C27F     		ldrb	r2, [r0, #31]	@ zero_extendqisi2
 323 0030 9145     		cmp	r9, r2
 324 0032 98BF     		it	ls
 325 0034 1846     		movls	r0, r3
 326              	.LVL38:
 327              	.L31:
 328              		.loc 1 248 0
 329 0036 1A68     		ldr	r2, [r3]
 330 0038 AAB1     		cbz	r2, .L32
 331              	.L46:
 332 003a 1946     		mov	r1, r3
 333 003c 1346     		mov	r3, r2
 334              	.LVL39:
 335              	.L33:
 336              		.loc 1 238 0
 337 003e 5A69     		ldr	r2, [r3, #20]
 338 0040 6245     		cmp	r2, ip
 339 0042 F0D1     		bne	.L30
 340              		.loc 1 238 0 is_stmt 0 discriminator 1
 341 0044 D7F81090 		ldr	r9, [r7, #16]	@ unaligned
 342 0048 9A69     		ldr	r2, [r3, #24]
ARM GAS  /tmp/cc0u4ASI.s 			page 7


 343 004a 4A45     		cmp	r2, r9
 344 004c EBD1     		bne	.L30
 345 004e B3F80C90 		ldrh	r9, [r3, #12]
 346 0052 BA88     		ldrh	r2, [r7, #4]	@ unaligned
 347 0054 9145     		cmp	r9, r2
 348 0056 EED0     		beq	.L31
 349              		.loc 1 240 0 is_stmt 1
 350 0058 0134     		adds	r4, r4, #1
 351              	.LVL40:
 352              		.loc 1 241 0
 353 005a 0028     		cmp	r0, #0
 354 005c E5D1     		bne	.L45
 355              	.L37:
 356              		.loc 1 248 0
 357 005e 1A68     		ldr	r2, [r3]
 358 0060 1846     		mov	r0, r3
 359              	.LVL41:
 360 0062 002A     		cmp	r2, #0
 361 0064 E9D1     		bne	.L46
 362              	.L32:
 363              	.LVL42:
 364              		.loc 1 253 0
 365 0066 70B1     		cbz	r0, .L47
 366              		.loc 1 254 0
 367 0068 FFF7FEFF 		bl	ip_reass_free_complete_datagram
 368              	.LVL43:
 369              		.loc 1 255 0
 370 006c 8044     		add	r8, r8, r0
 371              	.LVL44:
 372 006e B045     		cmp	r8, r6
 373 0070 ACBF     		ite	ge
 374 0072 0023     		movge	r3, #0
 375 0074 0123     		movlt	r3, #1
 376 0076 012C     		cmp	r4, #1
 377 0078 D8BF     		it	le
 378 007a 0023     		movle	r3, #0
 379              		.loc 1 257 0
 380 007c 002B     		cmp	r3, #0
 381 007e C9D1     		bne	.L36
 382              	.LVL45:
 383              	.L29:
 384              		.loc 1 259 0
 385 0080 4046     		mov	r0, r8
 386 0082 BDE8F883 		pop	{r3, r4, r5, r6, r7, r8, r9, pc}
 387              	.LVL46:
 388              	.L47:
 389 0086 012C     		cmp	r4, #1
 390 0088 D4BF     		ite	le
 391 008a 0023     		movle	r3, #0
 392 008c 0123     		movgt	r3, #1
 393 008e B045     		cmp	r8, r6
 394 0090 A8BF     		it	ge
 395 0092 0023     		movge	r3, #0
 396              		.loc 1 257 0
 397 0094 002B     		cmp	r3, #0
 398 0096 BDD1     		bne	.L36
 399 0098 F2E7     		b	.L29
ARM GAS  /tmp/cc0u4ASI.s 			page 8


 400              		.cfi_endproc
 401              	.LFE9:
 402              		.size	ip_reass_remove_oldest_datagram, .-ip_reass_remove_oldest_datagram
 403 009a 00BFAFF3 		.section	.text.ipfrag_free_pbuf_custom,"ax",%progbits
 403      0080
 404              		.align	2
 405              		.p2align 4,,15
 406              		.thumb
 407              		.thumb_func
 408              		.type	ipfrag_free_pbuf_custom, %function
 409              	ipfrag_free_pbuf_custom:
 410              	.LFB16:
 411              		.loc 1 641 0
 412              		.cfi_startproc
 413              		@ args = 0, pretend = 0, frame = 0
 414              		@ frame_needed = 0, uses_anonymous_args = 0
 415              	.LVL47:
 416 0000 10B5     		push	{r4, lr}
 417              		.cfi_def_cfa_offset 8
 418              		.cfi_offset 4, -8
 419              		.cfi_offset 14, -4
 420              		.loc 1 643 0
 421 0002 0446     		mov	r4, r0
 422 0004 48B1     		cbz	r0, .L54
 423              	.LVL48:
 424              	.L49:
 425              		.loc 1 645 0
 426 0006 6069     		ldr	r0, [r4, #20]
 427 0008 08B1     		cbz	r0, .L50
 428              		.loc 1 646 0
 429 000a FFF7FEFF 		bl	pbuf_free
 430              	.LVL49:
 431              	.L50:
 432              	.LBB9:
 433              	.LBB10:
 434              		.loc 1 634 0
 435 000e 2146     		mov	r1, r4
 436 0010 0620     		movs	r0, #6
 437              	.LBE10:
 438              	.LBE9:
 439              		.loc 1 649 0
 440 0012 BDE81040 		pop	{r4, lr}
 441              	.LVL50:
 442              	.LBB12:
 443              	.LBB11:
 444              		.loc 1 634 0
 445 0016 FFF7FEBF 		b	memp_free
 446              	.LVL51:
 447              	.L54:
 448              	.LBE11:
 449              	.LBE12:
 450              		.loc 1 643 0 discriminator 1
 451 001a FFF7FEFF 		bl	port_halt
 452              	.LVL52:
 453 001e F2E7     		b	.L49
 454              		.cfi_endproc
 455              	.LFE16:
ARM GAS  /tmp/cc0u4ASI.s 			page 9


 456              		.size	ipfrag_free_pbuf_custom, .-ipfrag_free_pbuf_custom
 457              		.section	.text.ip_reass_tmr,"ax",%progbits
 458              		.align	2
 459              		.p2align 4,,15
 460              		.global	ip_reass_tmr
 461              		.thumb
 462              		.thumb_func
 463              		.type	ip_reass_tmr, %function
 464              	ip_reass_tmr:
 465              	.LFB7:
 466              		.loc 1 123 0
 467              		.cfi_startproc
 468              		@ args = 0, pretend = 0, frame = 0
 469              		@ frame_needed = 0, uses_anonymous_args = 0
 470              	.LVL53:
 471 0000 38B5     		push	{r3, r4, r5, lr}
 472              		.cfi_def_cfa_offset 16
 473              		.cfi_offset 3, -16
 474              		.cfi_offset 4, -12
 475              		.cfi_offset 5, -8
 476              		.cfi_offset 14, -4
 477              		.loc 1 126 0
 478 0002 40F20003 		movw	r3, #:lower16:.LANCHOR0
 479 0006 C0F20003 		movt	r3, #:upper16:.LANCHOR0
 480 000a 1868     		ldr	r0, [r3]
 481              	.LVL54:
 482              		.loc 1 127 0
 483 000c 40B1     		cbz	r0, .L55
 484              		.loc 1 124 0
 485 000e 0024     		movs	r4, #0
 486              	.LVL55:
 487              	.L60:
 488              		.loc 1 130 0
 489 0010 C37F     		ldrb	r3, [r0, #31]	@ zero_extendqisi2
 490              		.loc 1 131 0
 491 0012 5A1E     		subs	r2, r3, #1
 492              		.loc 1 130 0
 493 0014 2BB1     		cbz	r3, .L57
 494              		.loc 1 131 0
 495 0016 C277     		strb	r2, [r0, #31]
 496              	.LVL56:
 497 0018 0446     		mov	r4, r0
 498              		.loc 1 134 0
 499 001a 0068     		ldr	r0, [r0]
 500              	.LVL57:
 501              		.loc 1 127 0
 502 001c 0028     		cmp	r0, #0
 503 001e F7D1     		bne	.L60
 504              	.LVL58:
 505              	.L55:
 506 0020 38BD     		pop	{r3, r4, r5, pc}
 507              	.LVL59:
 508              	.L57:
 509              	.LBB13:
 510              		.loc 1 141 0
 511 0022 0568     		ldr	r5, [r0]
 512              	.LVL60:
ARM GAS  /tmp/cc0u4ASI.s 			page 10


 513              		.loc 1 143 0
 514 0024 2146     		mov	r1, r4
 515 0026 FFF7FEFF 		bl	ip_reass_free_complete_datagram
 516              	.LVL61:
 517              		.loc 1 141 0
 518 002a 2846     		mov	r0, r5
 519              	.LBE13:
 520              		.loc 1 127 0
 521 002c 0028     		cmp	r0, #0
 522 002e EFD1     		bne	.L60
 523 0030 F6E7     		b	.L55
 524              		.cfi_endproc
 525              	.LFE7:
 526              		.size	ip_reass_tmr, .-ip_reass_tmr
 527 0032 00BFAFF3 		.section	.text.ip_reass,"ax",%progbits
 527      0080AFF3 
 527      0080AFF3 
 527      0080
 528              		.align	2
 529              		.p2align 4,,15
 530              		.global	ip_reass
 531              		.thumb
 532              		.thumb_func
 533              		.type	ip_reass, %function
 534              	ip_reass:
 535              	.LFB13:
 536              		.loc 1 477 0
 537              		.cfi_startproc
 538              		@ args = 0, pretend = 0, frame = 16
 539              		@ frame_needed = 0, uses_anonymous_args = 0
 540              	.LVL62:
 541 0000 2DE9F04F 		push	{r4, r5, r6, r7, r8, r9, r10, fp, lr}
 542              		.cfi_def_cfa_offset 36
 543              		.cfi_offset 4, -36
 544              		.cfi_offset 5, -32
 545              		.cfi_offset 6, -28
 546              		.cfi_offset 7, -24
 547              		.cfi_offset 8, -20
 548              		.cfi_offset 9, -16
 549              		.cfi_offset 10, -12
 550              		.cfi_offset 11, -8
 551              		.cfi_offset 14, -4
 552              		.loc 1 486 0
 553 0004 40F2000B 		movw	fp, #:lower16:lwip_stats
 554 0008 C0F2000B 		movt	fp, #:upper16:lwip_stats
 555              		.loc 1 489 0
 556 000c 4668     		ldr	r6, [r0, #4]
 557              	.LVL63:
 558              		.loc 1 486 0
 559 000e BBF83230 		ldrh	r3, [fp, #50]
 560 0012 0133     		adds	r3, r3, #1
 561 0014 ABF83230 		strh	r3, [fp, #50]	@ movhi
 562              		.loc 1 491 0
 563 0018 3378     		ldrb	r3, [r6]	@ zero_extendqisi2
 564 001a 03F00F03 		and	r3, r3, #15
 565 001e 052B     		cmp	r3, #5
 566              		.loc 1 477 0
ARM GAS  /tmp/cc0u4ASI.s 			page 11


 567 0020 85B0     		sub	sp, sp, #20
 568              		.cfi_def_cfa_offset 56
 569              		.loc 1 477 0
 570 0022 8046     		mov	r8, r0
 571              		.loc 1 491 0
 572 0024 40F0EE80 		bne	.L136
 573              		.loc 1 497 0
 574 0028 F088     		ldrh	r0, [r6, #6]	@ unaligned
 575              	.LVL64:
 576 002a FFF7FEFF 		bl	lwip_ntohs
 577              	.LVL65:
 578 002e 0190     		str	r0, [sp, #4]
 579              	.LVL66:
 580              		.loc 1 498 0
 581 0030 7088     		ldrh	r0, [r6, #2]	@ unaligned
 582 0032 FFF7FEFF 		bl	lwip_ntohs
 583              	.LVL67:
 584              		.loc 1 502 0
 585 0036 40F20007 		movw	r7, #:lower16:.LANCHOR1
 586              		.loc 1 498 0
 587 003a 3378     		ldrb	r3, [r6]	@ zero_extendqisi2
 588 003c 0290     		str	r0, [sp, #8]
 589              		.loc 1 502 0
 590 003e C0F20007 		movt	r7, #:upper16:.LANCHOR1
 591              		.loc 1 501 0
 592 0042 4046     		mov	r0, r8
 593              		.loc 1 498 0
 594 0044 0393     		str	r3, [sp, #12]
 595              	.LVL68:
 596              		.loc 1 501 0
 597 0046 FFF7FEFF 		bl	pbuf_clen
 598              	.LVL69:
 599              		.loc 1 502 0
 600 004a 3988     		ldrh	r1, [r7]
 601 004c 0144     		add	r1, r1, r0
 602 004e 0A29     		cmp	r1, #10
 603              		.loc 1 501 0
 604 0050 8246     		mov	r10, r0
 605              	.LVL70:
 606              		.loc 1 502 0
 607 0052 00F3E880 		bgt	.L137
 608              	.LVL71:
 609              	.L67:
 610              		.loc 1 520 0
 611 0056 40F20009 		movw	r9, #:lower16:.LANCHOR0
 612 005a C0F20009 		movt	r9, #:upper16:.LANCHOR0
 613 005e D9F80040 		ldr	r4, [r9]
 614              	.LVL72:
 615 0062 A4B3     		cbz	r4, .L69
 616 0064 F068     		ldr	r0, [r6, #12]	@ unaligned
 617              		.loc 1 484 0
 618 0066 0025     		movs	r5, #0
 619 0068 03E0     		b	.L73
 620              	.LVL73:
 621              	.L70:
 622              		.loc 1 520 0
 623 006a 2168     		ldr	r1, [r4]
ARM GAS  /tmp/cc0u4ASI.s 			page 12


 624              	.LVL74:
 625 006c 79B3     		cbz	r1, .L69
 626 006e 2546     		mov	r5, r4
 627 0070 0C46     		mov	r4, r1
 628              	.LVL75:
 629              	.L73:
 630              		.loc 1 524 0
 631 0072 6169     		ldr	r1, [r4, #20]
 632 0074 8842     		cmp	r0, r1
 633 0076 F8D1     		bne	.L70
 634              		.loc 1 524 0 is_stmt 0 discriminator 1
 635 0078 D6F810E0 		ldr	lr, [r6, #16]	@ unaligned
 636 007c A169     		ldr	r1, [r4, #24]
 637 007e 7145     		cmp	r1, lr
 638 0080 F3D1     		bne	.L70
 639 0082 B4F80CE0 		ldrh	lr, [r4, #12]
 640 0086 B188     		ldrh	r1, [r6, #4]	@ unaligned
 641 0088 8E45     		cmp	lr, r1
 642 008a EED1     		bne	.L70
 643              		.loc 1 527 0 is_stmt 1
 644 008c BBF84610 		ldrh	r1, [fp, #70]
 645              		.loc 1 541 0
 646 0090 F088     		ldrh	r0, [r6, #6]	@ unaligned
 647              		.loc 1 527 0
 648 0092 0131     		adds	r1, r1, #1
 649 0094 ABF84610 		strh	r1, [fp, #70]	@ movhi
 650              		.loc 1 541 0
 651 0098 FFF7FEFF 		bl	lwip_ntohs
 652              	.LVL76:
 653 009c C0F30C00 		ubfx	r0, r0, #0, #13
 654 00a0 0028     		cmp	r0, #0
 655 00a2 39D1     		bne	.L72
 656              		.loc 1 542 0 discriminator 1
 657 00a4 E089     		ldrh	r0, [r4, #14]
 658 00a6 FFF7FEFF 		bl	lwip_ntohs
 659              	.LVL77:
 660              		.loc 1 541 0 discriminator 1
 661 00aa C0F30C00 		ubfx	r0, r0, #0, #13
 662 00ae 98B3     		cbz	r0, .L72
 663              		.loc 1 547 0
 664 00b0 3168     		ldr	r1, [r6]	@ unaligned
 665 00b2 D6F804C0 		ldr	ip, [r6, #4]	@ unaligned
 666 00b6 D6F808E0 		ldr	lr, [r6, #8]	@ unaligned
 667 00ba F068     		ldr	r0, [r6, #12]	@ unaligned
 668 00bc A160     		str	r1, [r4, #8]	@ unaligned
 669 00be C4F80CC0 		str	ip, [r4, #12]	@ unaligned
 670 00c2 C4F810E0 		str	lr, [r4, #16]	@ unaligned
 671 00c6 6061     		str	r0, [r4, #20]	@ unaligned
 672 00c8 3169     		ldr	r1, [r6, #16]	@ unaligned
 673 00ca A161     		str	r1, [r4, #24]	@ unaligned
 674 00cc 24E0     		b	.L72
 675              	.LVL78:
 676              	.L69:
 677              	.LBB18:
 678              	.LBB19:
 679              		.loc 1 273 0
 680 00ce 0520     		movs	r0, #5
ARM GAS  /tmp/cc0u4ASI.s 			page 13


 681 00d0 FFF7FEFF 		bl	memp_malloc
 682              	.LVL79:
 683              		.loc 1 274 0
 684 00d4 0346     		mov	r3, r0
 685 00d6 0028     		cmp	r0, #0
 686 00d8 00F04A81 		beq	.L138
 687              	.L98:
 688              		.loc 1 287 0
 689 00dc 1846     		mov	r0, r3
 690 00de 0021     		movs	r1, #0
 691 00e0 2022     		movs	r2, #32
 692 00e2 0093     		str	r3, [sp]
 693 00e4 FFF7FEFF 		bl	memset
 694              	.LVL80:
 695              		.loc 1 292 0
 696 00e8 009B     		ldr	r3, [sp]
 697              		.loc 1 291 0
 698 00ea D9F80020 		ldr	r2, [r9]
 699              		.loc 1 292 0
 700 00ee C9F80030 		str	r3, [r9]
 701              		.loc 1 288 0
 702 00f2 0321     		movs	r1, #3
 703              		.loc 1 291 0
 704 00f4 1A60     		str	r2, [r3]
 705              		.loc 1 288 0
 706 00f6 D977     		strb	r1, [r3, #31]
 707              		.loc 1 295 0
 708 00f8 3168     		ldr	r1, [r6]	@ unaligned
 709 00fa D6F804E0 		ldr	lr, [r6, #4]	@ unaligned
 710 00fe B068     		ldr	r0, [r6, #8]	@ unaligned
 711 0100 D6F80C90 		ldr	r9, [r6, #12]	@ unaligned
 712 0104 9960     		str	r1, [r3, #8]	@ unaligned
 713 0106 C3F80CE0 		str	lr, [r3, #12]	@ unaligned
 714 010a 1861     		str	r0, [r3, #16]	@ unaligned
 715 010c C3F81490 		str	r9, [r3, #20]	@ unaligned
 716 0110 3169     		ldr	r1, [r6, #16]	@ unaligned
 717 0112 2546     		mov	r5, r4
 718 0114 9961     		str	r1, [r3, #24]	@ unaligned
 719 0116 1C46     		mov	r4, r3
 720              	.LVL81:
 721              	.L72:
 722              	.LBE19:
 723              	.LBE18:
 724              		.loc 1 552 0
 725 0118 3988     		ldrh	r1, [r7]
 726              		.loc 1 558 0
 727 011a F288     		ldrh	r2, [r6, #6]	@ unaligned
 728              		.loc 1 552 0
 729 011c 0AEB0103 		add	r3, r10, r1
 730              		.loc 1 558 0
 731 0120 9106     		lsls	r1, r2, #26
 732              		.loc 1 552 0
 733 0122 3B80     		strh	r3, [r7]	@ movhi
 734              		.loc 1 558 0
 735 0124 12D4     		bmi	.L76
 736              		.loc 1 498 0
 737 0126 0399     		ldr	r1, [sp, #12]
ARM GAS  /tmp/cc0u4ASI.s 			page 14


 738              		.loc 1 559 0
 739 0128 A27F     		ldrb	r2, [r4, #30]	@ zero_extendqisi2
 740              		.loc 1 498 0
 741 012a 01F00F03 		and	r3, r1, #15
 742 012e 0299     		ldr	r1, [sp, #8]
 743 0130 C3EB8333 		rsb	r3, r3, r3, lsl #14
 744 0134 01EB830B 		add	fp, r1, r3, lsl #2
 745              		.loc 1 497 0
 746 0138 019B     		ldr	r3, [sp, #4]
 747 013a C3F30C0A 		ubfx	r10, r3, #0, #13
 748              	.LVL82:
 749              		.loc 1 560 0
 750 013e 0BEBCA0A 		add	r10, fp, r10, lsl #3
 751              		.loc 1 559 0
 752 0142 42F00103 		orr	r3, r2, #1
 753              		.loc 1 560 0
 754 0146 A4F81CA0 		strh	r10, [r4, #28]	@ movhi
 755              		.loc 1 559 0
 756 014a A377     		strb	r3, [r4, #30]
 757              	.L76:
 758              	.LVL83:
 759              	.LBB22:
 760              	.LBB23:
 761              		.loc 1 340 0
 762 014c D8F80460 		ldr	r6, [r8, #4]
 763              	.LVL84:
 764              		.loc 1 341 0
 765 0150 7088     		ldrh	r0, [r6, #2]	@ unaligned
 766 0152 FFF7FEFF 		bl	lwip_ntohs
 767              	.LVL85:
 768 0156 3378     		ldrb	r3, [r6]	@ zero_extendqisi2
 769 0158 03F00F03 		and	r3, r3, #15
 770 015c C3EB8333 		rsb	r3, r3, r3, lsl #14
 771 0160 00EB8303 		add	r3, r0, r3, lsl #2
 772              		.loc 1 342 0
 773 0164 F088     		ldrh	r0, [r6, #6]	@ unaligned
 774              		.loc 1 341 0
 775 0166 9EB2     		uxth	r6, r3
 776              	.LVL86:
 777              		.loc 1 342 0
 778 0168 FFF7FEFF 		bl	lwip_ntohs
 779              	.LVL87:
 780 016c C0F30C00 		ubfx	r0, r0, #0, #13
 781 0170 C000     		lsls	r0, r0, #3
 782              	.LVL88:
 783              		.loc 1 349 0
 784 0172 D8F804A0 		ldr	r10, [r8, #4]
 785              	.LVL89:
 786              		.loc 1 356 0
 787 0176 6268     		ldr	r2, [r4, #4]
 788              		.loc 1 351 0
 789 0178 AAF80400 		strh	r0, [r10, #4]	@ unaligned
 790              		.loc 1 352 0
 791 017c 0644     		add	r6, r6, r0
 792              	.LVL90:
 793              		.loc 1 350 0
 794 017e 0023     		movs	r3, #0
ARM GAS  /tmp/cc0u4ASI.s 			page 15


 795              		.loc 1 352 0
 796 0180 1FFA86FC 		uxth	ip, r6
 797 0184 AAF806C0 		strh	ip, [r10, #6]	@ unaligned
 798              	.LVL91:
 799              		.loc 1 350 0
 800 0188 8AF80030 		strb	r3, [r10]
 801 018c 8AF80130 		strb	r3, [r10, #1]
 802 0190 8AF80230 		strb	r3, [r10, #2]
 803 0194 8AF80330 		strb	r3, [r10, #3]
 804              		.loc 1 356 0
 805 0198 002A     		cmp	r2, #0
 806 019a 00F0F580 		beq	.L77
 807              		.loc 1 357 0
 808 019e 5668     		ldr	r6, [r2, #4]
 809              	.LVL92:
 810              		.loc 1 358 0
 811 01a0 B388     		ldrh	r3, [r6, #4]	@ unaligned
 812 01a2 9842     		cmp	r0, r3
 813 01a4 4CD3     		bcc	.L78
 814              		.loc 1 375 0
 815 01a6 00F0D880 		beq	.L79
 816              		.loc 1 379 0
 817 01aa F388     		ldrh	r3, [r6, #6]	@ unaligned
 818 01ac 8342     		cmp	r3, r0
 819 01ae 00F2D480 		bhi	.L79
 820              		.loc 1 337 0
 821 01b2 4FF00109 		mov	r9, #1
 822 01b6 10E0     		b	.L80
 823              	.LVL93:
 824              	.L84:
 825              		.loc 1 357 0
 826 01b8 5368     		ldr	r3, [r2, #4]
 827              	.LVL94:
 828              		.loc 1 358 0
 829 01ba 9988     		ldrh	r1, [r3, #4]	@ unaligned
 830 01bc 8842     		cmp	r0, r1
 831 01be C0F0C180 		bcc	.L139
 832              		.loc 1 375 0
 833 01c2 00F0CA80 		beq	.L79
 834              		.loc 1 379 0
 835 01c6 DA88     		ldrh	r2, [r3, #6]	@ unaligned
 836              	.LVL95:
 837 01c8 8242     		cmp	r2, r0
 838 01ca 00F2C680 		bhi	.L79
 839              		.loc 1 386 0
 840 01ce F288     		ldrh	r2, [r6, #6]	@ unaligned
 841              		.loc 1 389 0
 842 01d0 1E46     		mov	r6, r3
 843              	.LVL96:
 844 01d2 8A42     		cmp	r2, r1
 845 01d4 18BF     		it	ne
 846 01d6 4FF00009 		movne	r9, #0
 847              	.LVL97:
 848              	.L80:
 849              		.loc 1 393 0
 850 01da 3268     		ldr	r2, [r6]	@ unaligned
 851              	.LVL98:
ARM GAS  /tmp/cc0u4ASI.s 			page 16


 852              		.loc 1 356 0
 853 01dc 002A     		cmp	r2, #0
 854 01de EBD1     		bne	.L84
 855              		.loc 1 403 0
 856 01e0 F388     		ldrh	r3, [r6, #6]	@ unaligned
 857 01e2 9842     		cmp	r0, r3
 858 01e4 C0F0D780 		bcc	.L99
 859              	.LVL99:
 860              	.L100:
 861              		.loc 1 406 0
 862 01e8 9842     		cmp	r0, r3
 863              		.loc 1 405 0
 864 01ea C6F80080 		str	r8, [r6]	@ unaligned
 865              		.loc 1 406 0
 866 01ee 2DD0     		beq	.L101
 867              	.LVL100:
 868              		.loc 1 421 0
 869 01f0 A37F     		ldrb	r3, [r4, #30]	@ zero_extendqisi2
 870 01f2 13F00103 		ands	r3, r3, #1
 871              	.LBE23:
 872              	.LBE22:
 873              		.loc 1 606 0
 874 01f6 08BF     		it	eq
 875 01f8 1846     		moveq	r0, r3
 876              	.LBB29:
 877              	.LBB24:
 878              		.loc 1 421 0
 879 01fa 11D0     		beq	.L135
 880              	.LVL101:
 881              	.L88:
 882              	.LBE24:
 883              	.LBE29:
 884              		.loc 1 606 0
 885 01fc 0020     		movs	r0, #0
 886              	.LVL102:
 887              	.L141:
 888              		.loc 1 613 0
 889 01fe 05B0     		add	sp, sp, #20
 890              		@ sp needed
 891 0200 BDE8F08F 		pop	{r4, r5, r6, r7, r8, r9, r10, fp, pc}
 892              	.LVL103:
 893              	.L136:
 894              		.loc 1 493 0
 895 0204 BBF84430 		ldrh	r3, [fp, #68]
 896 0208 0133     		adds	r3, r3, #1
 897 020a ABF84430 		strh	r3, [fp, #68]	@ movhi
 898              	.LVL104:
 899              	.L66:
 900              		.loc 1 610 0
 901 020e BBF83630 		ldrh	r3, [fp, #54]
 902              		.loc 1 611 0
 903 0212 4046     		mov	r0, r8
 904              		.loc 1 610 0
 905 0214 0133     		adds	r3, r3, #1
 906 0216 ABF83630 		strh	r3, [fp, #54]	@ movhi
 907              		.loc 1 611 0
 908 021a FFF7FEFF 		bl	pbuf_free
ARM GAS  /tmp/cc0u4ASI.s 			page 17


 909              	.LVL105:
 910              		.loc 1 612 0
 911 021e 0020     		movs	r0, #0
 912              	.LVL106:
 913              	.L135:
 914              		.loc 1 613 0
 915 0220 05B0     		add	sp, sp, #20
 916              		@ sp needed
 917 0222 BDE8F08F 		pop	{r4, r5, r6, r7, r8, r9, r10, fp, pc}
 918              	.LVL107:
 919              	.L137:
 920              		.loc 1 504 0
 921 0226 3046     		mov	r0, r6
 922              	.LVL108:
 923 0228 5146     		mov	r1, r10
 924 022a FFF7FEFF 		bl	ip_reass_remove_oldest_datagram
 925              	.LVL109:
 926 022e 0028     		cmp	r0, #0
 927 0230 00F0A480 		beq	.L75
 928              		.loc 1 505 0 discriminator 1
 929 0234 3988     		ldrh	r1, [r7]
 930 0236 5144     		add	r1, r1, r10
 931              		.loc 1 504 0 discriminator 1
 932 0238 0A29     		cmp	r1, #10
 933 023a 7FF70CAF 		ble	.L67
 934 023e 9DE0     		b	.L75
 935              	.LVL110:
 936              	.L78:
 937              	.LBB30:
 938              	.LBB25:
 939              		.loc 1 360 0
 940 0240 CAF80020 		str	r2, [r10]	@ unaligned
 941              		.loc 1 372 0
 942 0244 4FF00109 		mov	r9, #1
 943 0248 C4F80480 		str	r8, [r4, #4]
 944              	.LVL111:
 945              	.L101:
 946              		.loc 1 421 0
 947 024c A37F     		ldrb	r3, [r4, #30]	@ zero_extendqisi2
 948 024e DA07     		lsls	r2, r3, #31
 949 0250 D4D5     		bpl	.L88
 950              		.loc 1 423 0
 951 0252 B9F1000F 		cmp	r9, #0
 952 0256 D1D0     		beq	.L88
 953              	.LVL112:
 954              	.L106:
 955              		.loc 1 426 0
 956 0258 6368     		ldr	r3, [r4, #4]
 957 025a 5868     		ldr	r0, [r3, #4]
 958 025c 8388     		ldrh	r3, [r0, #4]	@ unaligned
 959 025e 002B     		cmp	r3, #0
 960 0260 CCD1     		bne	.L88
 961              	.LVL113:
 962              		.loc 1 431 0
 963 0262 DAF80030 		ldr	r3, [r10]	@ unaligned
 964              	.LVL114:
 965              		.loc 1 432 0
ARM GAS  /tmp/cc0u4ASI.s 			page 18


 966 0266 002B     		cmp	r3, #0
 967 0268 00F0A680 		beq	.L108
 968              		.loc 1 433 0
 969 026c 5E68     		ldr	r6, [r3, #4]
 970              	.LVL115:
 971              		.loc 1 434 0
 972 026e BAF80620 		ldrh	r2, [r10, #6]	@ unaligned
 973 0272 B388     		ldrh	r3, [r6, #4]	@ unaligned
 974              	.LVL116:
 975 0274 9A42     		cmp	r2, r3
 976 0276 06D0     		beq	.L91
 977 0278 C0E7     		b	.L88
 978              	.LVL117:
 979              	.L92:
 980              		.loc 1 433 0
 981 027a 5B68     		ldr	r3, [r3, #4]
 982              	.LVL118:
 983              		.loc 1 434 0
 984 027c F188     		ldrh	r1, [r6, #6]	@ unaligned
 985 027e 9A88     		ldrh	r2, [r3, #4]	@ unaligned
 986 0280 9142     		cmp	r1, r2
 987 0282 BBD1     		bne	.L88
 988              		.loc 1 433 0
 989 0284 1E46     		mov	r6, r3
 990              	.LVL119:
 991              	.L91:
 992              		.loc 1 439 0
 993 0286 3368     		ldr	r3, [r6]	@ unaligned
 994              	.LVL120:
 995              		.loc 1 432 0
 996 0288 002B     		cmp	r3, #0
 997 028a F6D1     		bne	.L92
 998              	.LVL121:
 999              	.L90:
 1000              		.loc 1 445 0
 1001 028c B042     		cmp	r0, r6
 1002 028e 00F09080 		beq	.L140
 1003              	.L103:
 1004              		.loc 1 447 0
 1005 0292 3368     		ldr	r3, [r6]	@ unaligned
 1006 0294 0BB1     		cbz	r3, .L93
 1007 0296 FFF7FEFF 		bl	port_halt
 1008              	.LVL122:
 1009              	.L93:
 1010              		.loc 1 449 0
 1011 029a F388     		ldrh	r3, [r6, #6]	@ unaligned
 1012 029c A28B     		ldrh	r2, [r4, #28]
 1013 029e 9342     		cmp	r3, r2
 1014 02a0 02D0     		beq	.L94
 1015 02a2 FFF7FEFF 		bl	port_halt
 1016              	.LVL123:
 1017 02a6 A38B     		ldrh	r3, [r4, #28]
 1018              	.L94:
 1019              	.LBE25:
 1020              	.LBE30:
 1021              		.loc 1 570 0
 1022 02a8 03F11402 		add	r2, r3, #20
ARM GAS  /tmp/cc0u4ASI.s 			page 19


 1023              		.loc 1 577 0
 1024 02ac 2346     		mov	r3, r4
 1025              		.loc 1 570 0
 1026 02ae A283     		strh	r2, [r4, #28]	@ movhi
 1027              		.loc 1 577 0
 1028 02b0 53F8082F 		ldr	r2, [r3, #8]!	@ unaligned
 1029              		.loc 1 573 0
 1030 02b4 6168     		ldr	r1, [r4, #4]
 1031              		.loc 1 577 0
 1032 02b6 D3F804E0 		ldr	lr, [r3, #4]	@ unaligned
 1033              		.loc 1 573 0
 1034 02ba D1F80480 		ldr	r8, [r1, #4]
 1035              	.LVL124:
 1036              		.loc 1 577 0
 1037 02be 9E68     		ldr	r6, [r3, #8]	@ unaligned
 1038              	.LVL125:
 1039 02c0 D868     		ldr	r0, [r3, #12]	@ unaligned
 1040 02c2 C8F804E0 		str	lr, [r8, #4]	@ unaligned
 1041 02c6 C8F80860 		str	r6, [r8, #8]	@ unaligned
 1042 02ca C8F80C00 		str	r0, [r8, #12]	@ unaligned
 1043              		.loc 1 573 0
 1044 02ce D8F80060 		ldr	r6, [r8]	@ unaligned
 1045              	.LVL126:
 1046              		.loc 1 577 0
 1047 02d2 C8F80020 		str	r2, [r8]	@ unaligned
 1048 02d6 1A69     		ldr	r2, [r3, #16]	@ unaligned
 1049 02d8 C8F81020 		str	r2, [r8, #16]	@ unaligned
 1050              		.loc 1 578 0
 1051 02dc A08B     		ldrh	r0, [r4, #28]
 1052 02de FFF7FEFF 		bl	lwip_htons
 1053              	.LVL127:
 1054              		.loc 1 579 0
 1055 02e2 0023     		movs	r3, #0
 1056              		.loc 1 578 0
 1057 02e4 A8F80200 		strh	r0, [r8, #2]	@ unaligned
 1058              		.loc 1 579 0
 1059 02e8 88F80630 		strb	r3, [r8, #6]
 1060 02ec 88F80730 		strb	r3, [r8, #7]
 1061              		.loc 1 580 0
 1062 02f0 88F80A30 		strb	r3, [r8, #10]
 1063 02f4 88F80B30 		strb	r3, [r8, #11]
 1064              		.loc 1 582 0
 1065 02f8 4046     		mov	r0, r8
 1066 02fa 1421     		movs	r1, #20
 1067 02fc FFF7FEFF 		bl	inet_chksum
 1068              	.LVL128:
 1069              		.loc 1 584 0
 1070 0300 D4F80490 		ldr	r9, [r4, #4]
 1071              	.LVL129:
 1072              		.loc 1 582 0
 1073 0304 A8F80A00 		strh	r0, [r8, #10]	@ unaligned
 1074              		.loc 1 587 0
 1075 0308 76B1     		cbz	r6, .L104
 1076              	.LVL130:
 1077              	.L105:
 1078              		.loc 1 588 0
 1079 030a D6F80480 		ldr	r8, [r6, #4]
ARM GAS  /tmp/cc0u4ASI.s 			page 20


 1080              	.LVL131:
 1081              		.loc 1 591 0
 1082 030e 3046     		mov	r0, r6
 1083 0310 6FF01301 		mvn	r1, #19
 1084 0314 FFF7FEFF 		bl	pbuf_header
 1085              	.LVL132:
 1086              		.loc 1 592 0
 1087 0318 3146     		mov	r1, r6
 1088 031a 4846     		mov	r0, r9
 1089 031c FFF7FEFF 		bl	pbuf_cat
 1090              	.LVL133:
 1091              		.loc 1 593 0
 1092 0320 D8F80060 		ldr	r6, [r8]	@ unaligned
 1093              	.LVL134:
 1094              		.loc 1 587 0
 1095 0324 002E     		cmp	r6, #0
 1096 0326 F0D1     		bne	.L105
 1097              	.LVL135:
 1098              	.L104:
 1099              		.loc 1 596 0
 1100 0328 2046     		mov	r0, r4
 1101 032a 2946     		mov	r1, r5
 1102 032c FFF7FEFF 		bl	ip_reass_dequeue_datagram
 1103              	.LVL136:
 1104              		.loc 1 599 0
 1105 0330 4846     		mov	r0, r9
 1106 0332 3C88     		ldrh	r4, [r7]
 1107              	.LVL137:
 1108 0334 FFF7FEFF 		bl	pbuf_clen
 1109              	.LVL138:
 1110 0338 201A     		subs	r0, r4, r0
 1111 033a 3880     		strh	r0, [r7]	@ movhi
 1112              		.loc 1 602 0
 1113 033c 4846     		mov	r0, r9
 1114              		.loc 1 613 0
 1115 033e 05B0     		add	sp, sp, #20
 1116              		@ sp needed
 1117 0340 BDE8F08F 		pop	{r4, r5, r6, r7, r8, r9, r10, fp, pc}
 1118              	.LVL139:
 1119              	.L139:
 1120              	.LBB31:
 1121              	.LBB26:
 1122              		.loc 1 364 0
 1123 0344 F388     		ldrh	r3, [r6, #6]	@ unaligned
 1124              	.LVL140:
 1125              		.loc 1 360 0
 1126 0346 CAF80020 		str	r2, [r10]	@ unaligned
 1127              		.loc 1 364 0
 1128 034a 8342     		cmp	r3, r0
 1129 034c 05D8     		bhi	.L79
 1130 034e 8C45     		cmp	ip, r1
 1131              		.loc 1 369 0
 1132 0350 98BF     		it	ls
 1133 0352 C6F80080 		strls	r8, [r6]	@ unaligned
 1134              		.loc 1 364 0
 1135 0356 7FF679AF 		bls	.L101
 1136              	.LVL141:
ARM GAS  /tmp/cc0u4ASI.s 			page 21


 1137              	.L79:
 1138              	.LDL1:
 1139              		.loc 1 463 0
 1140 035a 4046     		mov	r0, r8
 1141              	.LVL142:
 1142 035c 3C88     		ldrh	r4, [r7]
 1143              	.LVL143:
 1144 035e FFF7FEFF 		bl	pbuf_clen
 1145              	.LVL144:
 1146 0362 241A     		subs	r4, r4, r0
 1147              		.loc 1 464 0
 1148 0364 4046     		mov	r0, r8
 1149              		.loc 1 463 0
 1150 0366 3C80     		strh	r4, [r7]	@ movhi
 1151              		.loc 1 464 0
 1152 0368 FFF7FEFF 		bl	pbuf_free
 1153              	.LVL145:
 1154              	.LBE26:
 1155              	.LBE31:
 1156              		.loc 1 606 0
 1157 036c 0020     		movs	r0, #0
 1158 036e 46E7     		b	.L141
 1159              	.LVL146:
 1160              	.L138:
 1161              	.LBB32:
 1162              	.LBB20:
 1163              		.loc 1 276 0
 1164 0370 3046     		mov	r0, r6
 1165              	.LVL147:
 1166 0372 5146     		mov	r1, r10
 1167 0374 FFF7FEFF 		bl	ip_reass_remove_oldest_datagram
 1168              	.LVL148:
 1169 0378 8245     		cmp	r10, r0
 1170 037a 12DD     		ble	.L74
 1171              	.LVL149:
 1172              	.L75:
 1173              		.loc 1 282 0
 1174 037c BBF83C30 		ldrh	r3, [fp, #60]
 1175 0380 0133     		adds	r3, r3, #1
 1176 0382 ABF83C30 		strh	r3, [fp, #60]	@ movhi
 1177 0386 42E7     		b	.L66
 1178              	.LVL150:
 1179              	.L77:
 1180              	.LBE20:
 1181              	.LBE32:
 1182              	.LBB33:
 1183              	.LBB27:
 1184              		.loc 1 421 0
 1185 0388 A37F     		ldrb	r3, [r4, #30]	@ zero_extendqisi2
 1186              		.loc 1 415 0
 1187 038a C4F80480 		str	r8, [r4, #4]
 1188              		.loc 1 421 0
 1189 038e DB07     		lsls	r3, r3, #31
 1190 0390 3FF562AF 		bmi	.L106
 1191 0394 32E7     		b	.L88
 1192              	.LVL151:
 1193              	.L99:
ARM GAS  /tmp/cc0u4ASI.s 			page 22


 1194              		.loc 1 403 0
 1195 0396 FFF7FEFF 		bl	port_halt
 1196              	.LVL152:
 1197 039a F388     		ldrh	r3, [r6, #6]	@ unaligned
 1198 039c BAF80400 		ldrh	r0, [r10, #4]	@ unaligned
 1199 03a0 22E7     		b	.L100
 1200              	.LVL153:
 1201              	.L74:
 1202              	.LBE27:
 1203              	.LBE33:
 1204              	.LBB34:
 1205              	.LBB21:
 1206              		.loc 1 277 0
 1207 03a2 0520     		movs	r0, #5
 1208 03a4 FFF7FEFF 		bl	memp_malloc
 1209              	.LVL154:
 1210              		.loc 1 279 0
 1211 03a8 0346     		mov	r3, r0
 1212 03aa 0028     		cmp	r0, #0
 1213 03ac 7FF496AE 		bne	.L98
 1214 03b0 E4E7     		b	.L75
 1215              	.LVL155:
 1216              	.L140:
 1217              	.LBE21:
 1218              	.LBE34:
 1219              	.LBB35:
 1220              	.LBB28:
 1221              		.loc 1 445 0
 1222 03b2 FFF7FEFF 		bl	port_halt
 1223              	.LVL156:
 1224 03b6 6CE7     		b	.L103
 1225              	.LVL157:
 1226              	.L108:
 1227              		.loc 1 432 0
 1228 03b8 5646     		mov	r6, r10
 1229 03ba 67E7     		b	.L90
 1230              	.LBE28:
 1231              	.LBE35:
 1232              		.cfi_endproc
 1233              	.LFE13:
 1234              		.size	ip_reass, .-ip_reass
 1235 03bc AFF30080 		.section	.text.ip_frag,"ax",%progbits
 1236              		.align	2
 1237              		.p2align 4,,15
 1238              		.global	ip_frag
 1239              		.thumb
 1240              		.thumb_func
 1241              		.type	ip_frag, %function
 1242              	ip_frag:
 1243              	.LFB17:
 1244              		.loc 1 668 0
 1245              		.cfi_startproc
 1246              		@ args = 0, pretend = 0, frame = 56
 1247              		@ frame_needed = 0, uses_anonymous_args = 0
 1248              	.LVL158:
 1249 0000 2DE9F04F 		push	{r4, r5, r6, r7, r8, r9, r10, fp, lr}
 1250              		.cfi_def_cfa_offset 36
ARM GAS  /tmp/cc0u4ASI.s 			page 23


 1251              		.cfi_offset 4, -36
 1252              		.cfi_offset 5, -32
 1253              		.cfi_offset 6, -28
 1254              		.cfi_offset 7, -24
 1255              		.cfi_offset 8, -20
 1256              		.cfi_offset 9, -16
 1257              		.cfi_offset 10, -12
 1258              		.cfi_offset 11, -8
 1259              		.cfi_offset 14, -4
 1260              		.loc 1 709 0
 1261 0004 D0F80490 		ldr	r9, [r0, #4]
 1262              		.loc 1 681 0
 1263 0008 0E8C     		ldrh	r6, [r1, #32]
 1264              	.LVL159:
 1265              		.loc 1 668 0
 1266 000a 91B0     		sub	sp, sp, #68
 1267              		.cfi_def_cfa_offset 104
 1268              		.loc 1 668 0
 1269 000c 0446     		mov	r4, r0
 1270              		.loc 1 714 0
 1271 000e B9F80600 		ldrh	r0, [r9, #6]	@ unaligned
 1272              	.LVL160:
 1273              		.loc 1 668 0
 1274 0012 0A91     		str	r1, [sp, #40]
 1275 0014 0E92     		str	r2, [sp, #56]
 1276              		.loc 1 714 0
 1277 0016 FFF7FEFF 		bl	lwip_ntohs
 1278              	.LVL161:
 1279              		.loc 1 718 0
 1280 001a 2389     		ldrh	r3, [r4, #8]
 1281 001c 143B     		subs	r3, r3, #20
 1282 001e 9BB2     		uxth	r3, r3
 1283 0020 0693     		str	r3, [sp, #24]
 1284              		.loc 1 720 0
 1285 0022 A6F10D01 		sub	r1, r6, #13
 1286 0026 B6F11402 		subs	r2, r6, #20
 1287              		.loc 1 716 0
 1288 002a 00F40053 		and	r3, r0, #8192
 1289              		.loc 1 720 0
 1290 002e 48BF     		it	mi
 1291 0030 0A46     		movmi	r2, r1
 1292              		.loc 1 722 0
 1293 0032 069F     		ldr	r7, [sp, #24]
 1294              		.loc 1 720 0
 1295 0034 C2F3CF02 		ubfx	r2, r2, #3, #16
 1296              		.loc 1 716 0
 1297 0038 9BB2     		uxth	r3, r3
 1298              		.loc 1 715 0
 1299 003a C0F30C00 		ubfx	r0, r0, #0, #13
 1300              	.LVL162:
 1301              		.loc 1 720 0
 1302 003e 0B92     		str	r2, [sp, #44]
 1303              		.loc 1 716 0
 1304 0040 0C93     		str	r3, [sp, #48]
 1305              		.loc 1 715 0
 1306 0042 0790     		str	r0, [sp, #28]
 1307              	.LVL163:
ARM GAS  /tmp/cc0u4ASI.s 			page 24


 1308              		.loc 1 722 0
 1309 0044 002F     		cmp	r7, #0
 1310 0046 00F0D080 		beq	.L153
 1311              		.loc 1 732 0
 1312 004a 0B9F     		ldr	r7, [sp, #44]
 1313 004c FB00     		lsls	r3, r7, #3
 1314              		.loc 1 843 0
 1315 004e 40F20007 		movw	r7, #:lower16:lwip_stats
 1316 0052 133E     		subs	r6, r6, #19
 1317              	.LVL164:
 1318              	.LBB41:
 1319              		.loc 1 795 0
 1320 0054 40F20008 		movw	r8, #:lower16:ipfrag_free_pbuf_custom
 1321              	.LBE41:
 1322              		.loc 1 732 0
 1323 0058 9BB2     		uxth	r3, r3
 1324              		.loc 1 843 0
 1325 005a C0F20007 		movt	r7, #:upper16:lwip_stats
 1326 005e 0D96     		str	r6, [sp, #52]
 1327              		.loc 1 687 0
 1328 0060 0025     		movs	r5, #0
 1329              		.loc 1 732 0
 1330 0062 0F93     		str	r3, [sp, #60]
 1331              	.LBB46:
 1332              		.loc 1 795 0
 1333 0064 C0F20008 		movt	r8, #:upper16:ipfrag_free_pbuf_custom
 1334              	.LBE46:
 1335              		.loc 1 843 0
 1336 0068 0997     		str	r7, [sp, #36]
 1337              		.loc 1 684 0
 1338 006a 1426     		movs	r6, #20
 1339              	.LVL165:
 1340              	.L154:
 1341              		.loc 1 726 0
 1342 006c 079F     		ldr	r7, [sp, #28]
 1343              		.loc 1 727 0
 1344 006e 0D99     		ldr	r1, [sp, #52]
 1345              		.loc 1 726 0
 1346 0070 C7F30C03 		ubfx	r3, r7, #0, #13
 1347 0074 0C9F     		ldr	r7, [sp, #48]
 1348 0076 3B43     		orrs	r3, r3, r7
 1349              		.loc 1 727 0
 1350 0078 069F     		ldr	r7, [sp, #24]
 1351              		.loc 1 726 0
 1352 007a 0893     		str	r3, [sp, #32]
 1353              	.LVL166:
 1354              		.loc 1 727 0
 1355 007c 8F42     		cmp	r7, r1
 1356              		.loc 1 732 0
 1357 007e AABF     		itet	ge
 1358 0080 0F9F     		ldrge	r7, [sp, #60]
 1359 0082 069F     		ldrlt	r7, [sp, #24]
 1360              		.loc 1 728 0
 1361 0084 43F40053 		orrge	r3, r3, #8192
 1362              		.loc 1 759 0
 1363 0088 4FF00200 		mov	r0, #2
 1364 008c 4FF01401 		mov	r1, #20
ARM GAS  /tmp/cc0u4ASI.s 			page 25


 1365 0090 4FF00002 		mov	r2, #0
 1366 0094 0597     		str	r7, [sp, #20]
 1367              		.loc 1 728 0
 1368 0096 A8BF     		it	ge
 1369 0098 0893     		strge	r3, [sp, #32]
 1370              	.LVL167:
 1371              		.loc 1 759 0
 1372 009a FFF7FEFF 		bl	pbuf_alloc
 1373              	.LVL168:
 1374              		.loc 1 760 0
 1375 009e 0746     		mov	r7, r0
 1376 00a0 0028     		cmp	r0, #0
 1377 00a2 00F0A080 		beq	.L156
 1378              		.loc 1 763 0
 1379 00a6 6389     		ldrh	r3, [r4, #10]
 1380 00a8 132B     		cmp	r3, #19
 1381 00aa 40F28380 		bls	.L167
 1382              	.LVL169:
 1383              	.L146:
 1384              		.loc 1 765 0
 1385 00ae 7B68     		ldr	r3, [r7, #4]
 1386 00b0 D9F80020 		ldr	r2, [r9]	@ unaligned
 1387 00b4 D9F80C10 		ldr	r1, [r9, #12]	@ unaligned
 1388 00b8 D9F804E0 		ldr	lr, [r9, #4]	@ unaligned
 1389 00bc D9F80800 		ldr	r0, [r9, #8]	@ unaligned
 1390 00c0 1A60     		str	r2, [r3]	@ unaligned
 1391 00c2 C3F804E0 		str	lr, [r3, #4]	@ unaligned
 1392 00c6 9860     		str	r0, [r3, #8]	@ unaligned
 1393 00c8 D960     		str	r1, [r3, #12]	@ unaligned
 1394 00ca D9F81020 		ldr	r2, [r9, #16]	@ unaligned
 1395 00ce 1A61     		str	r2, [r3, #16]	@ unaligned
 1396              		.loc 1 769 0
 1397 00d0 6268     		ldr	r2, [r4, #4]
 1398              		.loc 1 770 0
 1399 00d2 6389     		ldrh	r3, [r4, #10]
 1400              		.loc 1 766 0
 1401 00d4 7968     		ldr	r1, [r7, #4]
 1402              		.loc 1 769 0
 1403 00d6 3244     		add	r2, r2, r6
 1404              		.loc 1 770 0
 1405 00d8 9B1B     		subs	r3, r3, r6
 1406              		.loc 1 769 0
 1407 00da 6260     		str	r2, [r4, #4]
 1408              		.loc 1 773 0
 1409 00dc 059A     		ldr	r2, [sp, #20]
 1410              		.loc 1 766 0
 1411 00de 0491     		str	r1, [sp, #16]
 1412              	.LVL170:
 1413              		.loc 1 770 0
 1414 00e0 9BB2     		uxth	r3, r3
 1415 00e2 6381     		strh	r3, [r4, #10]	@ movhi
 1416              	.LVL171:
 1417              		.loc 1 773 0
 1418 00e4 002A     		cmp	r2, #0
 1419 00e6 31D0     		beq	.L147
 1420 00e8 1D46     		mov	r5, r3
 1421 00ea 1646     		mov	r6, r2
ARM GAS  /tmp/cc0u4ASI.s 			page 26


 1422              	.LVL172:
 1423 00ec 0397     		str	r7, [sp, #12]
 1424 00ee 02E0     		b	.L148
 1425              	.LVL173:
 1426              	.L168:
 1427              	.LBB47:
 1428              		.loc 1 778 0
 1429 00f0 2468     		ldr	r4, [r4]
 1430              	.LVL174:
 1431              	.LBE47:
 1432              		.loc 1 773 0
 1433 00f2 56B3     		cbz	r6, .L166
 1434              	.LVL175:
 1435              	.L150:
 1436 00f4 6589     		ldrh	r5, [r4, #10]
 1437              	.L148:
 1438              	.LVL176:
 1439              	.LBB48:
 1440              		.loc 1 775 0
 1441 00f6 B542     		cmp	r5, r6
 1442 00f8 28BF     		it	cs
 1443 00fa 3546     		movcs	r5, r6
 1444              	.LVL177:
 1445 00fc ADB2     		uxth	r5, r5
 1446              	.LVL178:
 1447              		.loc 1 777 0
 1448 00fe 002D     		cmp	r5, #0
 1449 0100 F6D0     		beq	.L168
 1450              	.LBB42:
 1451              	.LBB43:
 1452              		.loc 1 626 0
 1453 0102 0620     		movs	r0, #6
 1454 0104 FFF7FEFF 		bl	memp_malloc
 1455              	.LVL179:
 1456              	.LBE43:
 1457              	.LBE42:
 1458              		.loc 1 782 0
 1459 0108 8346     		mov	fp, r0
 1460              		.loc 1 787 0
 1461 010a 0346     		mov	r3, r0
 1462 010c 2946     		mov	r1, r5
 1463 010e 0222     		movs	r2, #2
 1464 0110 0320     		movs	r0, #3
 1465              		.loc 1 782 0
 1466 0112 BBF1000F 		cmp	fp, #0
 1467 0116 50D0     		beq	.L169
 1468              		.loc 1 787 0
 1469 0118 6768     		ldr	r7, [r4, #4]
 1470 011a 0195     		str	r5, [sp, #4]
 1471 011c 0097     		str	r7, [sp]
 1472 011e FFF7FEFF 		bl	pbuf_alloced_custom
 1473              	.LVL180:
 1474              		.loc 1 788 0
 1475 0122 8246     		mov	r10, r0
 1476              		.loc 1 793 0
 1477 0124 2046     		mov	r0, r4
 1478              	.LVL181:
ARM GAS  /tmp/cc0u4ASI.s 			page 27


 1479              		.loc 1 788 0
 1480 0126 BAF1000F 		cmp	r10, #0
 1481 012a 4FD0     		beq	.L170
 1482              		.loc 1 801 0
 1483 012c 761B     		subs	r6, r6, r5
 1484              	.LVL182:
 1485              		.loc 1 793 0
 1486 012e FFF7FEFF 		bl	pbuf_ref
 1487              	.LVL183:
 1488              		.loc 1 801 0
 1489 0132 B6B2     		uxth	r6, r6
 1490              		.loc 1 794 0
 1491 0134 CBF81440 		str	r4, [fp, #20]
 1492              		.loc 1 795 0
 1493 0138 CBF81080 		str	r8, [fp, #16]
 1494              		.loc 1 800 0
 1495 013c 5146     		mov	r1, r10
 1496 013e 0398     		ldr	r0, [sp, #12]
 1497 0140 FFF7FEFF 		bl	pbuf_cat
 1498              	.LVL184:
 1499              		.loc 1 802 0
 1500 0144 0EB1     		cbz	r6, .L166
 1501              		.loc 1 803 0
 1502 0146 2468     		ldr	r4, [r4]
 1503              	.LVL185:
 1504 0148 D4E7     		b	.L150
 1505              	.LVL186:
 1506              	.L166:
 1507 014a 039F     		ldr	r7, [sp, #12]
 1508              	.LVL187:
 1509              	.L147:
 1510              	.LBE48:
 1511              		.loc 1 811 0
 1512 014c 0898     		ldr	r0, [sp, #32]
 1513 014e FFF7FEFF 		bl	lwip_htons
 1514              	.LVL188:
 1515              		.loc 1 812 0
 1516 0152 0599     		ldr	r1, [sp, #20]
 1517              		.loc 1 811 0
 1518 0154 049A     		ldr	r2, [sp, #16]
 1519              		.loc 1 812 0
 1520 0156 01F11403 		add	r3, r1, #20
 1521              		.loc 1 811 0
 1522 015a D080     		strh	r0, [r2, #6]	@ unaligned
 1523              		.loc 1 812 0
 1524 015c 98B2     		uxth	r0, r3
 1525 015e FFF7FEFF 		bl	lwip_htons
 1526              	.LVL189:
 1527              		.loc 1 813 0
 1528 0162 0499     		ldr	r1, [sp, #16]
 1529 0164 4FF00003 		mov	r3, #0
 1530 0168 8B72     		strb	r3, [r1, #10]
 1531              		.loc 1 812 0
 1532 016a 4880     		strh	r0, [r1, #2]	@ unaligned
 1533              		.loc 1 813 0
 1534 016c CB72     		strb	r3, [r1, #11]
 1535              		.loc 1 814 0
ARM GAS  /tmp/cc0u4ASI.s 			page 28


 1536 016e 0846     		mov	r0, r1
 1537 0170 1421     		movs	r1, #20
 1538 0172 FFF7FEFF 		bl	inet_chksum
 1539              	.LVL190:
 1540              		.loc 1 842 0
 1541 0176 0A9A     		ldr	r2, [sp, #40]
 1542              		.loc 1 814 0
 1543 0178 0499     		ldr	r1, [sp, #16]
 1544              		.loc 1 842 0
 1545 017a 5369     		ldr	r3, [r2, #20]
 1546              		.loc 1 814 0
 1547 017c 4881     		strh	r0, [r1, #10]	@ unaligned
 1548              		.loc 1 842 0
 1549 017e 3946     		mov	r1, r7
 1550 0180 1046     		mov	r0, r2
 1551 0182 0E9A     		ldr	r2, [sp, #56]
 1552 0184 9847     		blx	r3
 1553              	.LVL191:
 1554              		.loc 1 843 0
 1555 0186 099A     		ldr	r2, [sp, #36]
 1556 0188 138E     		ldrh	r3, [r2, #48]
 1557              		.loc 1 852 0
 1558 018a 3846     		mov	r0, r7
 1559              		.loc 1 843 0
 1560 018c 0133     		adds	r3, r3, #1
 1561 018e 1386     		strh	r3, [r2, #48]	@ movhi
 1562              		.loc 1 852 0
 1563 0190 FFF7FEFF 		bl	pbuf_free
 1564              	.LVL192:
 1565              		.loc 1 854 0
 1566 0194 069F     		ldr	r7, [sp, #24]
 1567 0196 0599     		ldr	r1, [sp, #20]
 1568              		.loc 1 855 0
 1569 0198 079B     		ldr	r3, [sp, #28]
 1570              		.loc 1 854 0
 1571 019a C1EB070B 		rsb	fp, r1, r7
 1572 019e 1FFA8BF7 		uxth	r7, fp
 1573 01a2 0697     		str	r7, [sp, #24]
 1574              	.LVL193:
 1575              		.loc 1 855 0
 1576 01a4 0B9F     		ldr	r7, [sp, #44]
 1577 01a6 3B44     		add	r3, r3, r7
 1578              		.loc 1 722 0
 1579 01a8 069F     		ldr	r7, [sp, #24]
 1580              		.loc 1 855 0
 1581 01aa 9BB2     		uxth	r3, r3
 1582 01ac 0793     		str	r3, [sp, #28]
 1583              	.LVL194:
 1584              		.loc 1 722 0
 1585 01ae E7B1     		cbz	r7, .L153
 1586 01b0 2E46     		mov	r6, r5
 1587 01b2 5BE7     		b	.L154
 1588              	.LVL195:
 1589              	.L167:
 1590              		.loc 1 763 0 discriminator 1
 1591 01b4 FFF7FEFF 		bl	port_halt
 1592              	.LVL196:
ARM GAS  /tmp/cc0u4ASI.s 			page 29


 1593 01b8 79E7     		b	.L146
 1594              	.LVL197:
 1595              	.L169:
 1596 01ba 039F     		ldr	r7, [sp, #12]
 1597              	.LBB49:
 1598              		.loc 1 783 0
 1599 01bc 3846     		mov	r0, r7
 1600 01be FFF7FEFF 		bl	pbuf_free
 1601              	.LVL198:
 1602              		.loc 1 784 0
 1603 01c2 FF20     		movs	r0, #255
 1604              	.LVL199:
 1605              	.L144:
 1606              	.LBE49:
 1607              		.loc 1 862 0
 1608 01c4 40B2     		sxtb	r0, r0
 1609 01c6 11B0     		add	sp, sp, #68
 1610              		@ sp needed
 1611 01c8 BDE8F08F 		pop	{r4, r5, r6, r7, r8, r9, r10, fp, pc}
 1612              	.LVL200:
 1613              	.L170:
 1614 01cc 039F     		ldr	r7, [sp, #12]
 1615              	.LVL201:
 1616              	.LBB50:
 1617              	.LBB44:
 1618              	.LBB45:
 1619              		.loc 1 634 0
 1620 01ce 5946     		mov	r1, fp
 1621 01d0 0620     		movs	r0, #6
 1622              	.LVL202:
 1623 01d2 FFF7FEFF 		bl	memp_free
 1624              	.LVL203:
 1625              	.LBE45:
 1626              	.LBE44:
 1627              		.loc 1 790 0
 1628 01d6 3846     		mov	r0, r7
 1629 01d8 FFF7FEFF 		bl	pbuf_free
 1630              	.LVL204:
 1631              		.loc 1 791 0
 1632 01dc FF20     		movs	r0, #255
 1633              	.LBE50:
 1634              		.loc 1 862 0
 1635 01de 40B2     		sxtb	r0, r0
 1636 01e0 11B0     		add	sp, sp, #68
 1637              		@ sp needed
 1638 01e2 BDE8F08F 		pop	{r4, r5, r6, r7, r8, r9, r10, fp, pc}
 1639              	.LVL205:
 1640              	.L156:
 1641              		.loc 1 761 0
 1642 01e6 FF20     		movs	r0, #255
 1643              	.LVL206:
 1644 01e8 ECE7     		b	.L144
 1645              	.LVL207:
 1646              	.L153:
 1647              		.loc 1 861 0
 1648 01ea 0020     		movs	r0, #0
 1649 01ec EAE7     		b	.L144
ARM GAS  /tmp/cc0u4ASI.s 			page 30


 1650              		.cfi_endproc
 1651              	.LFE17:
 1652              		.size	ip_frag, .-ip_frag
 1653 01ee 00BF     		.section	.bss.reassdatagrams,"aw",%nobits
 1654              		.align	2
 1655              		.set	.LANCHOR0,. + 0
 1656              		.type	reassdatagrams, %object
 1657              		.size	reassdatagrams, 4
 1658              	reassdatagrams:
 1659 0000 00000000 		.space	4
 1660              		.section	.bss.ip_reass_pbufcount,"aw",%nobits
 1661              		.align	1
 1662              		.set	.LANCHOR1,. + 0
 1663              		.type	ip_reass_pbufcount, %object
 1664              		.size	ip_reass_pbufcount, 2
 1665              	ip_reass_pbufcount:
 1666 0000 0000     		.space	2
 1667              		.text
 1668              	.Letext0:
 1669              		.file 2 "/usr/include/newlib/machine/_default_types.h"
 1670              		.file 3 "/usr/include/newlib/stdint.h"
 1671              		.file 4 "../../os/various/lwip_bindings/arch/cc.h"
 1672              		.file 5 "../../ext/lwip/src/include/lwip/err.h"
 1673              		.file 6 "../../ext/lwip/src/include/lwip/pbuf.h"
 1674              		.file 7 "../../ext/lwip/src/include/ipv4/lwip/ip_addr.h"
 1675              		.file 8 "../../ext/lwip/src/include/lwip/netif.h"
 1676              		.file 9 "../../ext/lwip/src/include/ipv4/lwip/ip.h"
 1677              		.file 10 "../../ext/lwip/src/include/ipv4/lwip/ip_frag.h"
 1678              		.file 11 "../../ext/lwip/src/include/lwip/mem.h"
 1679              		.file 12 "../../ext/lwip/src/include/lwip/memp.h"
 1680              		.file 13 "../../ext/lwip/src/include/lwip/stats.h"
 1681              		.file 14 "../../ext/lwip/src/include/ipv4/lwip/icmp.h"
 1682              		.file 15 "../../ext/lwip/src/include/lwip/def.h"
 1683              		.file 16 "../../ext/lwip/src/include/ipv4/lwip/inet_chksum.h"
 1684              		.file 17 "../../os/ports/GCC/ARMCMx/chcore_v7m.h"