ARM GAS  /tmp/cc1elrgw.s 			page 1


   1              		.syntax unified
   2              		.cpu cortex-m4
   3              		.fpu softvfp
   4              		.eabi_attribute 20, 1
   5              		.eabi_attribute 21, 1
   6              		.eabi_attribute 23, 3
   7              		.eabi_attribute 24, 1
   8              		.eabi_attribute 25, 1
   9              		.eabi_attribute 26, 1
  10              		.eabi_attribute 30, 2
  11              		.eabi_attribute 34, 1
  12              		.eabi_attribute 18, 4
  13              		.thumb
  14              		.file	"lwipthread.c"
  15              		.text
  16              	.Ltext0:
  17              		.cfi_sections	.debug_frame
  18              		.section	.text.ethernetif_init,"ax",%progbits
  19              		.align	2
  20              		.p2align 4,,15
  21              		.thumb
  22              		.thumb_func
  23              		.type	ethernetif_init, %function
  24              	ethernetif_init:
  25              	.LFB121:
  26              		.file 1 "../../os/various/lwip_bindings/lwipthread.c"
  27              		.loc 1 179 0
  28              		.cfi_startproc
  29              		@ args = 0, pretend = 0, frame = 0
  30              		@ frame_needed = 0, uses_anonymous_args = 0
  31              		@ link register save eliminated.
  32              	.LVL0:
  33 0000 F0B4     		push	{r4, r5, r6, r7}
  34              		.cfi_def_cfa_offset 16
  35              		.cfi_offset 4, -16
  36              		.cfi_offset 5, -12
  37              		.cfi_offset 6, -8
  38              		.cfi_offset 7, -4
  39              		.loc 1 179 0
  40 0002 0346     		mov	r3, r0
  41              		.loc 1 194 0
  42 0004 7327     		movs	r7, #115
  43              	.LBB4:
  44              	.LBB5:
  45              		.loc 1 89 0
  46 0006 0626     		movs	r6, #6
  47              		.loc 1 96 0
  48 0008 3224     		movs	r4, #50
  49              	.LBE5:
  50              	.LBE4:
  51              		.loc 1 199 0
  52 000a 40F20001 		movw	r1, #:lower16:etharp_output
  53              		.loc 1 200 0
  54 000e 40F20002 		movw	r2, #:lower16:low_level_output
  55              		.loc 1 193 0
  56 0012 4FF06D0C 		mov	ip, #109
  57              	.LBB8:
ARM GAS  /tmp/cc1elrgw.s 			page 2


  58              	.LBB6:
  59              		.loc 1 92 0
  60 0016 40F2DC55 		movw	r5, #1500
  61              	.LBE6:
  62              	.LBE8:
  63              		.loc 1 192 0
  64 001a 0020     		movs	r0, #0
  65              	.LVL1:
  66              		.loc 1 199 0
  67 001c C0F20001 		movt	r1, #:upper16:etharp_output
  68              		.loc 1 200 0
  69 0020 C0F20002 		movt	r2, #:upper16:low_level_output
  70              		.loc 1 193 0
  71 0024 83F82AC0 		strb	ip, [r3, #42]
  72              		.loc 1 194 0
  73 0028 83F82B70 		strb	r7, [r3, #43]
  74              	.LBB9:
  75              	.LBB7:
  76              		.loc 1 89 0
  77 002c 83F82260 		strb	r6, [r3, #34]
  78              		.loc 1 96 0
  79 0030 83F82940 		strb	r4, [r3, #41]
  80              		.loc 1 92 0
  81 0034 1D84     		strh	r5, [r3, #32]	@ movhi
  82              	.LBE7:
  83              	.LBE9:
  84              		.loc 1 199 0
  85 0036 5961     		str	r1, [r3, #20]
  86              		.loc 1 200 0
  87 0038 9A61     		str	r2, [r3, #24]
  88              	.LVL2:
  89              		.loc 1 192 0
  90 003a D861     		str	r0, [r3, #28]
  91              		.loc 1 206 0
  92 003c F0BC     		pop	{r4, r5, r6, r7}
  93 003e 7047     		bx	lr
  94              		.cfi_endproc
  95              	.LFE121:
  96              		.size	ethernetif_init, .-ethernetif_init
  97              		.section	.text.low_level_output,"ax",%progbits
  98              		.align	2
  99              		.p2align 4,,15
 100              		.thumb
 101              		.thumb_func
 102              		.type	low_level_output, %function
 103              	low_level_output:
 104              	.LFB119:
 105              		.loc 1 104 0
 106              		.cfi_startproc
 107              		@ args = 0, pretend = 0, frame = 16
 108              		@ frame_needed = 0, uses_anonymous_args = 0
 109              	.LVL3:
 110 0000 10B5     		push	{r4, lr}
 111              		.cfi_def_cfa_offset 8
 112              		.cfi_offset 4, -8
 113              		.cfi_offset 14, -4
 114              		.loc 1 109 0
ARM GAS  /tmp/cc1elrgw.s 			page 3


 115 0002 40F20000 		movw	r0, #:lower16:ETHD1
 116              	.LVL4:
 117              		.loc 1 104 0
 118 0006 84B0     		sub	sp, sp, #16
 119              		.cfi_def_cfa_offset 24
 120              		.loc 1 104 0
 121 0008 0C46     		mov	r4, r1
 122              		.loc 1 109 0
 123 000a C0F20000 		movt	r0, #:upper16:ETHD1
 124 000e 01A9     		add	r1, sp, #4
 125              	.LVL5:
 126 0010 3222     		movs	r2, #50
 127 0012 FFF7FEFF 		bl	macWaitTransmitDescriptor
 128              	.LVL6:
 129 0016 B0B9     		cbnz	r0, .L7
 130              	.LVL7:
 131              		.loc 1 117 0 discriminator 2
 132 0018 3CB1     		cbz	r4, .L13
 133              	.LVL8:
 134              	.L6:
 135              		.loc 1 118 0 discriminator 2
 136 001a 6168     		ldr	r1, [r4, #4]
 137 001c 6289     		ldrh	r2, [r4, #10]
 138 001e 01A8     		add	r0, sp, #4
 139 0020 FFF7FEFF 		bl	mac_lld_write_transmit_descriptor
 140              	.LVL9:
 141              		.loc 1 117 0 discriminator 2
 142 0024 2468     		ldr	r4, [r4]
 143              	.LVL10:
 144 0026 002C     		cmp	r4, #0
 145 0028 F7D1     		bne	.L6
 146              	.L13:
 147              		.loc 1 119 0
 148 002a 01A8     		add	r0, sp, #4
 149 002c FFF7FEFF 		bl	macReleaseTransmitDescriptor
 150              	.LVL11:
 151              		.loc 1 125 0
 152 0030 40F20003 		movw	r3, #:lower16:lwip_stats
 153 0034 C0F20003 		movt	r3, #:upper16:lwip_stats
 154              		.loc 1 127 0
 155 0038 0020     		movs	r0, #0
 156              		.loc 1 125 0
 157 003a 1A88     		ldrh	r2, [r3]
 158 003c 0132     		adds	r2, r2, #1
 159 003e 1A80     		strh	r2, [r3]	@ movhi
 160              	.LVL12:
 161              	.L3:
 162              		.loc 1 128 0
 163 0040 40B2     		sxtb	r0, r0
 164 0042 04B0     		add	sp, sp, #16
 165              		@ sp needed
 166 0044 10BD     		pop	{r4, pc}
 167              	.LVL13:
 168              	.L7:
 169              		.loc 1 110 0
 170 0046 FD20     		movs	r0, #253
 171 0048 FAE7     		b	.L3
ARM GAS  /tmp/cc1elrgw.s 			page 4


 172              		.cfi_endproc
 173              	.LFE119:
 174              		.size	low_level_output, .-low_level_output
 175 004a 00BFAFF3 		.section	.text.lwip_thread,"ax",%progbits
 175      0080
 176              		.align	2
 177              		.p2align 4,,15
 178              		.global	lwip_thread
 179              		.thumb
 180              		.thumb_func
 181              		.type	lwip_thread, %function
 182              	lwip_thread:
 183              	.LFB122:
 184              		.loc 1 214 0
 185              		.cfi_startproc
 186              		@ args = 0, pretend = 0, frame = 88
 187              		@ frame_needed = 0, uses_anonymous_args = 0
 188              	.LVL14:
 189 0000 2DE9F041 		push	{r4, r5, r6, r7, r8, lr}
 190              		.cfi_def_cfa_offset 24
 191              		.cfi_offset 4, -24
 192              		.cfi_offset 5, -20
 193              		.cfi_offset 6, -16
 194              		.cfi_offset 7, -12
 195              		.cfi_offset 8, -8
 196              		.cfi_offset 14, -4
 197              		.loc 1 221 0
 198 0004 40F20002 		movw	r2, #:lower16:rlist
 199 0008 C0F20002 		movt	r2, #:upper16:rlist
 200 000c 40F20003 		movw	r3, #:lower16:.LC0
 201 0010 9269     		ldr	r2, [r2, #24]
 202 0012 C0F20003 		movt	r3, #:upper16:.LC0
 203              		.loc 1 214 0
 204 0016 0446     		mov	r4, r0
 205              		.loc 1 224 0
 206 0018 0020     		movs	r0, #0
 207              	.LVL15:
 208              		.loc 1 214 0
 209 001a 9AB0     		sub	sp, sp, #104
 210              		.cfi_def_cfa_offset 128
 211              		.loc 1 221 0
 212 001c 9361     		str	r3, [r2, #24]
 213              		.loc 1 224 0
 214 001e 0146     		mov	r1, r0
 215 0020 40F20007 		movw	r7, #:lower16:.LANCHOR0
 216 0024 FFF7FEFF 		bl	tcpip_init
 217              	.LVL16:
 218 0028 C0F20007 		movt	r7, #:upper16:.LANCHOR0
 219              		.loc 1 227 0
 220 002c 7CB1     		cbz	r4, .L15
 221 002e 0023     		movs	r3, #0
 222              	.L17:
 223              	.LVL17:
 224              	.LBB17:
 225              		.loc 1 232 0 discriminator 2
 226 0030 2268     		ldr	r2, [r4]
 227 0032 F918     		adds	r1, r7, r3
ARM GAS  /tmp/cc1elrgw.s 			page 5


 228 0034 D25C     		ldrb	r2, [r2, r3]	@ zero_extendqisi2
 229              		.loc 1 231 0 discriminator 2
 230 0036 0133     		adds	r3, r3, #1
 231              	.LVL18:
 232 0038 062B     		cmp	r3, #6
 233              		.loc 1 232 0 discriminator 2
 234 003a 81F82320 		strb	r2, [r1, #35]
 235              		.loc 1 231 0 discriminator 2
 236 003e F7D1     		bne	.L17
 237              		.loc 1 233 0
 238 0040 6168     		ldr	r1, [r4, #4]
 239              		.loc 1 234 0
 240 0042 E268     		ldr	r2, [r4, #12]
 241              		.loc 1 235 0
 242 0044 A368     		ldr	r3, [r4, #8]
 243              	.LVL19:
 244              		.loc 1 233 0
 245 0046 0591     		str	r1, [sp, #20]
 246              		.loc 1 234 0
 247 0048 0692     		str	r2, [sp, #24]
 248              		.loc 1 235 0
 249 004a 0793     		str	r3, [sp, #28]
 250              	.LBE17:
 251 004c 1FE0     		b	.L18
 252              	.L15:
 253              		.loc 1 244 0
 254 004e 4AF6C002 		movw	r2, #43200
 255              		.loc 1 245 0
 256 0052 1346     		mov	r3, r2
 257              		.loc 1 238 0
 258 0054 4FF0C20C 		mov	ip, #194
 259              		.loc 1 239 0
 260 0058 4FF0AF0E 		mov	lr, #175
 261              		.loc 1 240 0
 262 005c 5126     		movs	r6, #81
 263              		.loc 1 241 0
 264 005e 0325     		movs	r5, #3
 265              		.loc 1 242 0
 266 0060 CF24     		movs	r4, #207
 267              	.LVL20:
 268              		.loc 1 243 0
 269 0062 4620     		movs	r0, #70
 270              		.loc 1 244 0
 271 0064 C1F20142 		movt	r2, 5121
 272              		.loc 1 245 0
 273 0068 C0F20113 		movt	r3, 257
 274              		.loc 1 246 0
 275 006c 6FF07F41 		mvn	r1, #-16777216
 276              		.loc 1 238 0
 277 0070 87F823C0 		strb	ip, [r7, #35]
 278              		.loc 1 239 0
 279 0074 87F824E0 		strb	lr, [r7, #36]
 280              		.loc 1 240 0
 281 0078 87F82560 		strb	r6, [r7, #37]
 282              		.loc 1 241 0
 283 007c 87F82650 		strb	r5, [r7, #38]
 284              		.loc 1 242 0
ARM GAS  /tmp/cc1elrgw.s 			page 6


 285 0080 87F82740 		strb	r4, [r7, #39]
 286              		.loc 1 243 0
 287 0084 87F82800 		strb	r0, [r7, #40]
 288              		.loc 1 244 0
 289 0088 0592     		str	r2, [sp, #20]
 290              		.loc 1 245 0
 291 008a 0693     		str	r3, [sp, #24]
 292              		.loc 1 246 0
 293 008c 0791     		str	r1, [sp, #28]
 294              	.L18:
 295              		.loc 1 248 0
 296 008e 40F20000 		movw	r0, #:lower16:ETHD1
 297 0092 40F20001 		movw	r1, #:lower16:.LANCHOR1
 298 0096 C0F20000 		movt	r0, #:upper16:ETHD1
 299 009a C0F20001 		movt	r1, #:upper16:.LANCHOR1
 300 009e FFF7FEFF 		bl	macStart
 301              	.LVL21:
 302              		.loc 1 249 0
 303 00a2 40F20002 		movw	r2, #:lower16:ethernetif_init
 304 00a6 40F20003 		movw	r3, #:lower16:tcpip_input
 305 00aa C0F20002 		movt	r2, #:upper16:ethernetif_init
 306 00ae C0F20003 		movt	r3, #:upper16:tcpip_input
 307 00b2 0024     		movs	r4, #0
 308 00b4 40F20000 		movw	r0, #:lower16:.LANCHOR0
 309 00b8 05A9     		add	r1, sp, #20
 310 00ba 0192     		str	r2, [sp, #4]
 311 00bc 0293     		str	r3, [sp, #8]
 312 00be 07AA     		add	r2, sp, #28
 313 00c0 06AB     		add	r3, sp, #24
 314 00c2 0094     		str	r4, [sp]
 315 00c4 C0F20000 		movt	r0, #:upper16:.LANCHOR0
 316 00c8 FFF7FEFF 		bl	netif_add
 317              	.LVL22:
 318              		.loc 1 251 0
 319 00cc 40F20000 		movw	r0, #:lower16:.LANCHOR0
 320 00d0 C0F20000 		movt	r0, #:upper16:.LANCHOR0
 321 00d4 FFF7FEFF 		bl	netif_set_default
 322              	.LVL23:
 323              		.loc 1 252 0
 324 00d8 40F20000 		movw	r0, #:lower16:.LANCHOR0
 325 00dc C0F20000 		movt	r0, #:upper16:.LANCHOR0
 326 00e0 FFF7FEFF 		bl	netif_set_up
 327              	.LVL24:
 328              		.loc 1 255 0
 329 00e4 18AD     		add	r5, sp, #96
 330 00e6 41F28833 		movw	r3, #5000
 331              		.loc 1 256 0
 332 00ea 13A8     		add	r0, sp, #76
 333              		.loc 1 255 0
 334 00ec 1993     		str	r3, [sp, #100]
 335 00ee 1694     		str	r4, [sp, #88]
 336 00f0 1895     		str	r5, [sp, #96]
 337              		.loc 1 256 0
 338 00f2 FFF7FEFF 		bl	evtStart
 339              	.LVL25:
 340              		.loc 1 257 0
 341 00f6 2846     		mov	r0, r5
ARM GAS  /tmp/cc1elrgw.s 			page 7


 342 00f8 0BA9     		add	r1, sp, #44
 343 00fa 0122     		movs	r2, #1
 344 00fc FFF7FEFF 		bl	chEvtRegisterMask
 345              	.LVL26:
 346              		.loc 1 258 0
 347 0100 0FA9     		add	r1, sp, #60
 348 0102 0222     		movs	r2, #2
 349 0104 4248     		ldr	r0, .L41
 350 0106 FFF7FEFF 		bl	chEvtRegisterMask
 351              	.LVL27:
 352              		.loc 1 259 0
 353 010a 0320     		movs	r0, #3
 354 010c FFF7FEFF 		bl	chEvtAddEvents
 355              	.LVL28:
 356 0110 40F20006 		movw	r6, #:lower16:lwip_stats
 357              		.loc 1 262 0
 358 0114 0220     		movs	r0, #2
 359 0116 FFF7FEFF 		bl	chThdSetPriority
 360              	.LVL29:
 361 011a C0F20006 		movt	r6, #:upper16:lwip_stats
 362 011e 04E0     		b	.L24
 363              	.LVL30:
 364              	.L20:
 365              	.LBB18:
 366              		.loc 1 277 0
 367 0120 A307     		lsls	r3, r4, #30
 368              	.LBB19:
 369              	.LBB20:
 370              		.loc 1 281 0
 371 0122 48BF     		it	mi
 372 0124 40F60608 		movwmi	r8, #2054
 373              	.LBE20:
 374              	.LBE19:
 375              		.loc 1 277 0
 376 0128 25D4     		bmi	.L25
 377              	.LVL31:
 378              	.L24:
 379              		.loc 1 265 0
 380 012a 4FF0FF30 		mov	r0, #-1
 381 012e FFF7FEFF 		bl	chEvtWaitAny
 382              	.LVL32:
 383              		.loc 1 266 0
 384 0132 C207     		lsls	r2, r0, #31
 385              		.loc 1 265 0
 386 0134 0446     		mov	r4, r0
 387              	.LVL33:
 388              		.loc 1 266 0
 389 0136 F3D5     		bpl	.L20
 390              	.LBB33:
 391              		.loc 1 267 0
 392 0138 40F20000 		movw	r0, #:lower16:ETHD1
 393              	.LVL34:
 394 013c C0F20000 		movt	r0, #:upper16:ETHD1
 395 0140 FFF7FEFF 		bl	macPollLinkStatus
 396              	.LVL35:
 397              		.loc 1 268 0
 398 0144 97F82930 		ldrb	r3, [r7, #41]	@ zero_extendqisi2
ARM GAS  /tmp/cc1elrgw.s 			page 8


 399 0148 C3F30013 		ubfx	r3, r3, #4, #1
 400 014c 9842     		cmp	r0, r3
 401              		.loc 1 267 0
 402 014e 0246     		mov	r2, r0
 403              	.LVL36:
 404              		.loc 1 268 0
 405 0150 E6D0     		beq	.L20
 406              		.loc 1 269 0
 407 0152 0028     		cmp	r0, #0
 408 0154 51D0     		beq	.L22
 409              		.loc 1 270 0
 410 0156 40F20000 		movw	r0, #:lower16:netif_set_link_up
 411              	.LVL37:
 412 015a 40F20001 		movw	r1, #:lower16:.LANCHOR0
 413 015e C0F20000 		movt	r0, #:upper16:netif_set_link_up
 414 0162 C0F20001 		movt	r1, #:upper16:.LANCHOR0
 415 0166 0022     		movs	r2, #0
 416              	.LVL38:
 417 0168 FFF7FEFF 		bl	tcpip_callback_with_block
 418              	.LVL39:
 419              	.LBE33:
 420              		.loc 1 277 0
 421 016c A307     		lsls	r3, r4, #30
 422              	.LBB34:
 423              	.LBB21:
 424              		.loc 1 281 0
 425 016e 48BF     		it	mi
 426 0170 40F60608 		movwmi	r8, #2054
 427              	.LBE21:
 428              	.LBE34:
 429              		.loc 1 277 0
 430 0174 D9D5     		bpl	.L24
 431              	.LVL40:
 432              	.L25:
 433              	.LBB35:
 434              	.LBB22:
 435              	.LBB23:
 436              		.loc 1 139 0 discriminator 1
 437 0176 40F20000 		movw	r0, #:lower16:ETHD1
 438 017a C0F20000 		movt	r0, #:upper16:ETHD1
 439 017e 08A9     		add	r1, sp, #32
 440 0180 0022     		movs	r2, #0
 441 0182 FFF7FEFF 		bl	macWaitReceiveDescriptor
 442              	.LVL41:
 443 0186 0028     		cmp	r0, #0
 444 0188 CFD1     		bne	.L24
 445              	.LVL42:
 446              		.loc 1 147 0
 447 018a 0320     		movs	r0, #3
 448 018c 0246     		mov	r2, r0
 449 018e BDF82410 		ldrh	r1, [sp, #36]
 450 0192 FFF7FEFF 		bl	pbuf_alloc
 451              	.LVL43:
 452              		.loc 1 149 0
 453 0196 0546     		mov	r5, r0
 454 0198 28B3     		cbz	r0, .L30
 455 019a 0446     		mov	r4, r0
ARM GAS  /tmp/cc1elrgw.s 			page 9


 456              	.LVL44:
 457              	.L32:
 458              		.loc 1 157 0
 459 019c 6168     		ldr	r1, [r4, #4]
 460 019e 6289     		ldrh	r2, [r4, #10]
 461 01a0 08A8     		add	r0, sp, #32
 462 01a2 FFF7FEFF 		bl	mac_lld_read_receive_descriptor
 463              	.LVL45:
 464              		.loc 1 156 0
 465 01a6 2468     		ldr	r4, [r4]
 466              	.LVL46:
 467 01a8 002C     		cmp	r4, #0
 468 01aa F7D1     		bne	.L32
 469              		.loc 1 158 0
 470 01ac 08A8     		add	r0, sp, #32
 471 01ae FFF7FEFF 		bl	macReleaseReceiveDescriptor
 472              	.LVL47:
 473              		.loc 1 164 0
 474 01b2 7288     		ldrh	r2, [r6, #2]
 475              	.LBE23:
 476              	.LBE22:
 477              	.LBB27:
 478              		.loc 1 281 0
 479 01b4 6B68     		ldr	r3, [r5, #4]
 480              	.LBE27:
 481              	.LBB28:
 482              	.LBB24:
 483              		.loc 1 164 0
 484 01b6 0132     		adds	r2, r2, #1
 485              	.LBE24:
 486              	.LBE28:
 487              	.LBB29:
 488              		.loc 1 281 0
 489 01b8 9889     		ldrh	r0, [r3, #12]	@ unaligned
 490              	.LBE29:
 491              	.LBB30:
 492              	.LBB25:
 493              		.loc 1 164 0
 494 01ba 7280     		strh	r2, [r6, #2]	@ movhi
 495              	.LVL48:
 496              	.LBE25:
 497              	.LBE30:
 498              	.LBB31:
 499              		.loc 1 281 0
 500 01bc FFF7FEFF 		bl	lwip_htons
 501              	.LVL49:
 502 01c0 B0F5006F 		cmp	r0, #2048
 503 01c4 05D0     		beq	.L26
 504 01c6 4045     		cmp	r0, r8
 505 01c8 03D0     		beq	.L26
 506              	.L28:
 507              		.loc 1 295 0
 508 01ca 2846     		mov	r0, r5
 509 01cc FFF7FEFF 		bl	pbuf_free
 510              	.LVL50:
 511 01d0 D1E7     		b	.L25
 512              	.L26:
ARM GAS  /tmp/cc1elrgw.s 			page 10


 513              		.loc 1 291 0
 514 01d2 40F20001 		movw	r1, #:lower16:.LANCHOR0
 515 01d6 C0F20001 		movt	r1, #:upper16:.LANCHOR0
 516 01da 3B69     		ldr	r3, [r7, #16]
 517 01dc 2846     		mov	r0, r5
 518 01de 9847     		blx	r3
 519              	.LVL51:
 520 01e0 0028     		cmp	r0, #0
 521 01e2 C8D0     		beq	.L25
 522 01e4 F1E7     		b	.L28
 523              	.LVL52:
 524              	.L30:
 525              	.LBE31:
 526              	.LBB32:
 527              	.LBB26:
 528              		.loc 1 167 0
 529 01e6 08A8     		add	r0, sp, #32
 530              	.LVL53:
 531 01e8 FFF7FEFF 		bl	macReleaseReceiveDescriptor
 532              	.LVL54:
 533              		.loc 1 168 0
 534 01ec B289     		ldrh	r2, [r6, #12]
 535              		.loc 1 169 0
 536 01ee F388     		ldrh	r3, [r6, #6]
 537              		.loc 1 168 0
 538 01f0 0132     		adds	r2, r2, #1
 539              		.loc 1 169 0
 540 01f2 0133     		adds	r3, r3, #1
 541              		.loc 1 168 0
 542 01f4 B281     		strh	r2, [r6, #12]	@ movhi
 543              		.loc 1 169 0
 544 01f6 F380     		strh	r3, [r6, #6]	@ movhi
 545 01f8 97E7     		b	.L24
 546              	.LVL55:
 547              	.L22:
 548              	.LBE26:
 549              	.LBE32:
 550              	.LBE35:
 551              	.LBB36:
 552              		.loc 1 273 0
 553 01fa 40F20000 		movw	r0, #:lower16:netif_set_link_down
 554              	.LVL56:
 555 01fe 40F20001 		movw	r1, #:lower16:.LANCHOR0
 556 0202 C0F20001 		movt	r1, #:upper16:.LANCHOR0
 557 0206 C0F20000 		movt	r0, #:upper16:netif_set_link_down
 558 020a FFF7FEFF 		bl	tcpip_callback_with_block
 559              	.LVL57:
 560 020e 87E7     		b	.L20
 561              	.L42:
 562              		.align	2
 563              	.L41:
 564 0210 20000000 		.word	ETHD1+32
 565              	.LBE36:
 566              	.LBE18:
 567              		.cfi_endproc
 568              	.LFE122:
 569              		.size	lwip_thread, .-lwip_thread
ARM GAS  /tmp/cc1elrgw.s 			page 11


 570              		.global	wa_lwip_thread
 571 0214 AFF30080 		.section	.bss.wa_lwip_thread,"aw",%nobits
 571      AFF30080 
 571      AFF30080 
 572              		.align	3
 573              		.type	wa_lwip_thread, %object
 574              		.size	wa_lwip_thread, 720
 575              	wa_lwip_thread:
 576 0000 00000000 		.space	720
 576      00000000 
 576      00000000 
 576      00000000 
 576      00000000 
 577              		.section	.rodata.mac_config.7461,"a",%progbits
 578              		.align	2
 579              		.set	.LANCHOR1,. + 0
 580              		.type	mac_config.7461, %object
 581              		.size	mac_config.7461, 4
 582              	mac_config.7461:
 583 0000 23000000 		.word	thisif.7460+35
 584              		.section	.rodata.str1.4,"aMS",%progbits,1
 585              		.align	2
 586              	.LC0:
 587 0000 6C776970 		.ascii	"lwipthread\000"
 587      74687265 
 587      616400
 588 000b 00       		.section	.bss.thisif.7460,"aw",%nobits
 589              		.align	2
 590              		.set	.LANCHOR0,. + 0
 591              		.type	thisif.7460, %object
 592              		.size	thisif.7460, 48
 593              	thisif.7460:
 594 0000 00000000 		.space	48
 594      00000000 
 594      00000000 
 594      00000000 
 594      00000000 
 595              		.text
 596              	.Letext0:
 597              		.file 2 "/usr/lib/gcc/arm-none-eabi/4.8.2/include/stddef.h"
 598              		.file 3 "/usr/include/newlib/machine/_default_types.h"
 599              		.file 4 "/usr/include/newlib/stdint.h"
 600              		.file 5 "../../os/ports/GCC/ARMCMx/chtypes.h"
 601              		.file 6 "../../os/kernel/include/chlists.h"
 602              		.file 7 "../../os/kernel/include/chthreads.h"
 603              		.file 8 "../../os/ports/GCC/ARMCMx/chcore_v7m.h"
 604              		.file 9 "../../os/kernel/include/chvt.h"
 605              		.file 10 "../../os/kernel/include/chschd.h"
 606              		.file 11 "../../os/kernel/include/chsem.h"
 607              		.file 12 "../../os/kernel/include/chmtx.h"
 608              		.file 13 "../../os/kernel/include/chevents.h"
 609              		.file 14 "../../os/hal/include/mac.h"
 610              		.file 15 "../../os/hal/platforms/STM32/mac_lld.h"
 611              		.file 16 "../../os/various/evtimer.h"
 612              		.file 17 "../../os/various/lwip_bindings/arch/cc.h"
 613              		.file 18 "../../os/various/lwip_bindings/lwipthread.h"
 614              		.file 19 "../../ext/lwip/src/include/lwip/mem.h"
ARM GAS  /tmp/cc1elrgw.s 			page 12


 615              		.file 20 "../../ext/lwip/src/include/lwip/err.h"
 616              		.file 21 "../../ext/lwip/src/include/lwip/pbuf.h"
 617              		.file 22 "../../ext/lwip/src/include/lwip/memp.h"
 618              		.file 23 "../../ext/lwip/src/include/lwip/stats.h"
 619              		.file 24 "../../ext/lwip/src/include/ipv4/lwip/ip_addr.h"
 620              		.file 25 "../../ext/lwip/src/include/lwip/netif.h"
 621              		.file 26 "../../ext/lwip/src/include/lwip/tcpip.h"
 622              		.file 27 "../../ext/lwip/src/include/netif/etharp.h"
 623              		.file 28 "../../os/ports/common/ARMCMx/CMSIS/include/core_cm4.h"
 624              		.file 29 "../../ext/lwip/src/include/lwip/def.h"
 625              		.section	.debug_info,"",%progbits
 626              	.Ldebug_info0:
 627 0000 48140000 		.4byte	0x1448
 628 0004 0400     		.2byte	0x4
 629 0006 00000000 		.4byte	.Ldebug_abbrev0
 630 000a 04       		.byte	0x4
 631 000b 01       		.uleb128 0x1
 632 000c FE050000 		.4byte	.LASF249
 633 0010 01       		.byte	0x1
 634 0011 1D020000 		.4byte	.LASF250
 635 0015 B2080000 		.4byte	.LASF251
 636 0019 B0000000 		.4byte	.Ldebug_ranges0+0xb0
 637 001d 00000000 		.4byte	0
 638 0021 00000000 		.4byte	.Ldebug_line0
 639 0025 02       		.uleb128 0x2
 640 0026 04       		.byte	0x4
 641 0027 05       		.byte	0x5
 642 0028 696E7400 		.ascii	"int\000"
 643 002c 03       		.uleb128 0x3
 644 002d 0F000000 		.4byte	.LASF1
 645 0031 02       		.byte	0x2
 646 0032 D4       		.byte	0xd4
 647 0033 37000000 		.4byte	0x37
 648 0037 04       		.uleb128 0x4
 649 0038 04       		.byte	0x4
 650 0039 07       		.byte	0x7
 651 003a 9B050000 		.4byte	.LASF0
 652 003e 03       		.uleb128 0x3
 653 003f 6D070000 		.4byte	.LASF2
 654 0043 03       		.byte	0x3
 655 0044 1B       		.byte	0x1b
 656 0045 49000000 		.4byte	0x49
 657 0049 04       		.uleb128 0x4
 658 004a 01       		.byte	0x1
 659 004b 06       		.byte	0x6
 660 004c A9010000 		.4byte	.LASF3
 661 0050 03       		.uleb128 0x3
 662 0051 04010000 		.4byte	.LASF4
 663 0055 03       		.byte	0x3
 664 0056 1C       		.byte	0x1c
 665 0057 5B000000 		.4byte	0x5b
 666 005b 04       		.uleb128 0x4
 667 005c 01       		.byte	0x1
 668 005d 08       		.byte	0x8
 669 005e 49020000 		.4byte	.LASF5
 670 0062 04       		.uleb128 0x4
 671 0063 02       		.byte	0x2
ARM GAS  /tmp/cc1elrgw.s 			page 13


 672 0064 05       		.byte	0x5
 673 0065 1B090000 		.4byte	.LASF6
 674 0069 03       		.uleb128 0x3
 675 006a 04030000 		.4byte	.LASF7
 676 006e 03       		.byte	0x3
 677 006f 26       		.byte	0x26
 678 0070 74000000 		.4byte	0x74
 679 0074 04       		.uleb128 0x4
 680 0075 02       		.byte	0x2
 681 0076 07       		.byte	0x7
 682 0077 3D0A0000 		.4byte	.LASF8
 683 007b 03       		.uleb128 0x3
 684 007c A10A0000 		.4byte	.LASF9
 685 0080 03       		.byte	0x3
 686 0081 37       		.byte	0x37
 687 0082 86000000 		.4byte	0x86
 688 0086 04       		.uleb128 0x4
 689 0087 04       		.byte	0x4
 690 0088 05       		.byte	0x5
 691 0089 1D010000 		.4byte	.LASF10
 692 008d 03       		.uleb128 0x3
 693 008e CD040000 		.4byte	.LASF11
 694 0092 03       		.byte	0x3
 695 0093 38       		.byte	0x38
 696 0094 98000000 		.4byte	0x98
 697 0098 04       		.uleb128 0x4
 698 0099 04       		.byte	0x4
 699 009a 07       		.byte	0x7
 700 009b 66040000 		.4byte	.LASF12
 701 009f 04       		.uleb128 0x4
 702 00a0 08       		.byte	0x8
 703 00a1 05       		.byte	0x5
 704 00a2 E6040000 		.4byte	.LASF13
 705 00a6 03       		.uleb128 0x3
 706 00a7 5B040000 		.4byte	.LASF14
 707 00ab 03       		.byte	0x3
 708 00ac 4E       		.byte	0x4e
 709 00ad B1000000 		.4byte	0xb1
 710 00b1 04       		.uleb128 0x4
 711 00b2 08       		.byte	0x8
 712 00b3 07       		.byte	0x7
 713 00b4 8F070000 		.4byte	.LASF15
 714 00b8 03       		.uleb128 0x3
 715 00b9 00000000 		.4byte	.LASF16
 716 00bd 04       		.byte	0x4
 717 00be 29       		.byte	0x29
 718 00bf 3E000000 		.4byte	0x3e
 719 00c3 03       		.uleb128 0x3
 720 00c4 BF010000 		.4byte	.LASF17
 721 00c8 04       		.byte	0x4
 722 00c9 2A       		.byte	0x2a
 723 00ca 50000000 		.4byte	0x50
 724 00ce 03       		.uleb128 0x3
 725 00cf DE070000 		.4byte	.LASF18
 726 00d3 04       		.byte	0x4
 727 00d4 36       		.byte	0x36
 728 00d5 69000000 		.4byte	0x69
ARM GAS  /tmp/cc1elrgw.s 			page 14


 729 00d9 03       		.uleb128 0x3
 730 00da 74000000 		.4byte	.LASF19
 731 00de 04       		.byte	0x4
 732 00df 41       		.byte	0x41
 733 00e0 7B000000 		.4byte	0x7b
 734 00e4 03       		.uleb128 0x3
 735 00e5 B6090000 		.4byte	.LASF20
 736 00e9 04       		.byte	0x4
 737 00ea 42       		.byte	0x42
 738 00eb 8D000000 		.4byte	0x8d
 739 00ef 03       		.uleb128 0x3
 740 00f0 25090000 		.4byte	.LASF21
 741 00f4 04       		.byte	0x4
 742 00f5 4E       		.byte	0x4e
 743 00f6 A6000000 		.4byte	0xa6
 744 00fa 03       		.uleb128 0x3
 745 00fb 40090000 		.4byte	.LASF22
 746 00ff 05       		.byte	0x5
 747 0100 2B       		.byte	0x2b
 748 0101 05010000 		.4byte	0x105
 749 0105 04       		.uleb128 0x4
 750 0106 01       		.byte	0x1
 751 0107 02       		.byte	0x2
 752 0108 A7020000 		.4byte	.LASF23
 753 010c 03       		.uleb128 0x3
 754 010d 9A080000 		.4byte	.LASF24
 755 0111 05       		.byte	0x5
 756 0112 2C       		.byte	0x2c
 757 0113 C3000000 		.4byte	0xc3
 758 0117 03       		.uleb128 0x3
 759 0118 50010000 		.4byte	.LASF25
 760 011c 05       		.byte	0x5
 761 011d 2D       		.byte	0x2d
 762 011e C3000000 		.4byte	0xc3
 763 0122 03       		.uleb128 0x3
 764 0123 7D090000 		.4byte	.LASF26
 765 0127 05       		.byte	0x5
 766 0128 2E       		.byte	0x2e
 767 0129 C3000000 		.4byte	0xc3
 768 012d 03       		.uleb128 0x3
 769 012e 0D080000 		.4byte	.LASF27
 770 0132 05       		.byte	0x5
 771 0133 2F       		.byte	0x2f
 772 0134 C3000000 		.4byte	0xc3
 773 0138 03       		.uleb128 0x3
 774 0139 38000000 		.4byte	.LASF28
 775 013d 05       		.byte	0x5
 776 013e 30       		.byte	0x30
 777 013f E4000000 		.4byte	0xe4
 778 0143 03       		.uleb128 0x3
 779 0144 E7070000 		.4byte	.LASF29
 780 0148 05       		.byte	0x5
 781 0149 31       		.byte	0x31
 782 014a D9000000 		.4byte	0xd9
 783 014e 03       		.uleb128 0x3
 784 014f 09020000 		.4byte	.LASF30
 785 0153 05       		.byte	0x5
ARM GAS  /tmp/cc1elrgw.s 			page 15


 786 0154 33       		.byte	0x33
 787 0155 E4000000 		.4byte	0xe4
 788 0159 03       		.uleb128 0x3
 789 015a DD060000 		.4byte	.LASF31
 790 015e 05       		.byte	0x5
 791 015f 34       		.byte	0x34
 792 0160 E4000000 		.4byte	0xe4
 793 0164 03       		.uleb128 0x3
 794 0165 1F000000 		.4byte	.LASF32
 795 0169 05       		.byte	0x5
 796 016a 35       		.byte	0x35
 797 016b E4000000 		.4byte	0xe4
 798 016f 03       		.uleb128 0x3
 799 0170 96030000 		.4byte	.LASF33
 800 0174 05       		.byte	0x5
 801 0175 36       		.byte	0x36
 802 0176 D9000000 		.4byte	0xd9
 803 017a 03       		.uleb128 0x3
 804 017b 47090000 		.4byte	.LASF34
 805 017f 06       		.byte	0x6
 806 0180 2A       		.byte	0x2a
 807 0181 85010000 		.4byte	0x185
 808 0185 05       		.uleb128 0x5
 809 0186 47090000 		.4byte	.LASF34
 810 018a 48       		.byte	0x48
 811 018b 07       		.byte	0x7
 812 018c 5E       		.byte	0x5e
 813 018d 82020000 		.4byte	0x282
 814 0191 06       		.uleb128 0x6
 815 0192 26010000 		.4byte	.LASF35
 816 0196 07       		.byte	0x7
 817 0197 5F       		.byte	0x5f
 818 0198 A3020000 		.4byte	0x2a3
 819 019c 00       		.byte	0
 820 019d 06       		.uleb128 0x6
 821 019e 38010000 		.4byte	.LASF36
 822 01a2 07       		.byte	0x7
 823 01a3 61       		.byte	0x61
 824 01a4 A3020000 		.4byte	0x2a3
 825 01a8 04       		.byte	0x4
 826 01a9 06       		.uleb128 0x6
 827 01aa EA020000 		.4byte	.LASF37
 828 01ae 07       		.byte	0x7
 829 01af 63       		.byte	0x63
 830 01b0 38010000 		.4byte	0x138
 831 01b4 08       		.byte	0x8
 832 01b5 06       		.uleb128 0x6
 833 01b6 32000000 		.4byte	.LASF38
 834 01ba 07       		.byte	0x7
 835 01bb 64       		.byte	0x64
 836 01bc 68030000 		.4byte	0x368
 837 01c0 0C       		.byte	0xc
 838 01c1 06       		.uleb128 0x6
 839 01c2 15010000 		.4byte	.LASF39
 840 01c6 07       		.byte	0x7
 841 01c7 66       		.byte	0x66
 842 01c8 A3020000 		.4byte	0x2a3
ARM GAS  /tmp/cc1elrgw.s 			page 16


 843 01cc 10       		.byte	0x10
 844 01cd 06       		.uleb128 0x6
 845 01ce C9070000 		.4byte	.LASF40
 846 01d2 07       		.byte	0x7
 847 01d3 67       		.byte	0x67
 848 01d4 A3020000 		.4byte	0x2a3
 849 01d8 14       		.byte	0x14
 850 01d9 06       		.uleb128 0x6
 851 01da D50A0000 		.4byte	.LASF41
 852 01de 07       		.byte	0x7
 853 01df 6E       		.byte	0x6e
 854 01e0 85050000 		.4byte	0x585
 855 01e4 18       		.byte	0x18
 856 01e5 06       		.uleb128 0x6
 857 01e6 2A0B0000 		.4byte	.LASF42
 858 01ea 07       		.byte	0x7
 859 01eb 79       		.byte	0x79
 860 01ec 17010000 		.4byte	0x117
 861 01f0 1C       		.byte	0x1c
 862 01f1 06       		.uleb128 0x6
 863 01f2 87050000 		.4byte	.LASF43
 864 01f6 07       		.byte	0x7
 865 01f7 7D       		.byte	0x7d
 866 01f8 0C010000 		.4byte	0x10c
 867 01fc 1D       		.byte	0x1d
 868 01fd 06       		.uleb128 0x6
 869 01fe D0050000 		.4byte	.LASF44
 870 0202 07       		.byte	0x7
 871 0203 82       		.byte	0x82
 872 0204 22010000 		.4byte	0x122
 873 0208 1E       		.byte	0x1e
 874 0209 06       		.uleb128 0x6
 875 020a B5010000 		.4byte	.LASF45
 876 020e 07       		.byte	0x7
 877 020f 88       		.byte	0x88
 878 0210 2D010000 		.4byte	0x12d
 879 0214 1F       		.byte	0x1f
 880 0215 06       		.uleb128 0x6
 881 0216 FB060000 		.4byte	.LASF46
 882 021a 07       		.byte	0x7
 883 021b 8F       		.byte	0x8f
 884 021c 0B040000 		.4byte	0x40b
 885 0220 20       		.byte	0x20
 886 0221 07       		.uleb128 0x7
 887 0222 705F7500 		.ascii	"p_u\000"
 888 0226 07       		.byte	0x7
 889 0227 B4       		.byte	0xb4
 890 0228 50050000 		.4byte	0x550
 891 022c 24       		.byte	0x24
 892 022d 06       		.uleb128 0x6
 893 022e 78050000 		.4byte	.LASF47
 894 0232 07       		.byte	0x7
 895 0233 B9       		.byte	0xb9
 896 0234 C9020000 		.4byte	0x2c9
 897 0238 28       		.byte	0x28
 898 0239 06       		.uleb128 0x6
 899 023a 63000000 		.4byte	.LASF48
ARM GAS  /tmp/cc1elrgw.s 			page 17


 900 023e 07       		.byte	0x7
 901 023f BF       		.byte	0xbf
 902 0240 A9020000 		.4byte	0x2a9
 903 0244 2C       		.byte	0x2c
 904 0245 06       		.uleb128 0x6
 905 0246 180B0000 		.4byte	.LASF49
 906 024a 07       		.byte	0x7
 907 024b C3       		.byte	0xc3
 908 024c 43010000 		.4byte	0x143
 909 0250 34       		.byte	0x34
 910 0251 06       		.uleb128 0x6
 911 0252 F5030000 		.4byte	.LASF50
 912 0256 07       		.byte	0x7
 913 0257 C9       		.byte	0xc9
 914 0258 4E010000 		.4byte	0x14e
 915 025c 38       		.byte	0x38
 916 025d 06       		.uleb128 0x6
 917 025e 5F010000 		.4byte	.LASF51
 918 0262 07       		.byte	0x7
 919 0263 D0       		.byte	0xd0
 920 0264 97050000 		.4byte	0x597
 921 0268 3C       		.byte	0x3c
 922 0269 06       		.uleb128 0x6
 923 026a 3D070000 		.4byte	.LASF52
 924 026e 07       		.byte	0x7
 925 026f D4       		.byte	0xd4
 926 0270 38010000 		.4byte	0x138
 927 0274 40       		.byte	0x40
 928 0275 06       		.uleb128 0x6
 929 0276 BB050000 		.4byte	.LASF53
 930 027a 07       		.byte	0x7
 931 027b DA       		.byte	0xda
 932 027c DF020000 		.4byte	0x2df
 933 0280 44       		.byte	0x44
 934 0281 00       		.byte	0
 935 0282 08       		.uleb128 0x8
 936 0283 08       		.byte	0x8
 937 0284 06       		.byte	0x6
 938 0285 61       		.byte	0x61
 939 0286 A3020000 		.4byte	0x2a3
 940 028a 06       		.uleb128 0x6
 941 028b 26010000 		.4byte	.LASF35
 942 028f 06       		.byte	0x6
 943 0290 62       		.byte	0x62
 944 0291 A3020000 		.4byte	0x2a3
 945 0295 00       		.byte	0
 946 0296 06       		.uleb128 0x6
 947 0297 38010000 		.4byte	.LASF36
 948 029b 06       		.byte	0x6
 949 029c 64       		.byte	0x64
 950 029d A3020000 		.4byte	0x2a3
 951 02a1 04       		.byte	0x4
 952 02a2 00       		.byte	0
 953 02a3 09       		.uleb128 0x9
 954 02a4 04       		.byte	0x4
 955 02a5 7A010000 		.4byte	0x17a
 956 02a9 03       		.uleb128 0x3
ARM GAS  /tmp/cc1elrgw.s 			page 18


 957 02aa E6090000 		.4byte	.LASF54
 958 02ae 06       		.byte	0x6
 959 02af 66       		.byte	0x66
 960 02b0 82020000 		.4byte	0x282
 961 02b4 08       		.uleb128 0x8
 962 02b5 04       		.byte	0x4
 963 02b6 06       		.byte	0x6
 964 02b7 6B       		.byte	0x6b
 965 02b8 C9020000 		.4byte	0x2c9
 966 02bc 06       		.uleb128 0x6
 967 02bd 26010000 		.4byte	.LASF35
 968 02c1 06       		.byte	0x6
 969 02c2 6D       		.byte	0x6d
 970 02c3 A3020000 		.4byte	0x2a3
 971 02c7 00       		.byte	0
 972 02c8 00       		.byte	0
 973 02c9 03       		.uleb128 0x3
 974 02ca AC060000 		.4byte	.LASF55
 975 02ce 06       		.byte	0x6
 976 02cf 70       		.byte	0x70
 977 02d0 B4020000 		.4byte	0x2b4
 978 02d4 03       		.uleb128 0x3
 979 02d5 69010000 		.4byte	.LASF56
 980 02d9 08       		.byte	0x8
 981 02da E5       		.byte	0xe5
 982 02db DF020000 		.4byte	0x2df
 983 02df 0A       		.uleb128 0xa
 984 02e0 04       		.byte	0x4
 985 02e1 03       		.uleb128 0x3
 986 02e2 4C030000 		.4byte	.LASF57
 987 02e6 08       		.byte	0x8
 988 02e7 EB       		.byte	0xeb
 989 02e8 EF000000 		.4byte	0xef
 990 02ec 0B       		.uleb128 0xb
 991 02ed EE030000 		.4byte	.LASF58
 992 02f1 24       		.byte	0x24
 993 02f2 08       		.byte	0x8
 994 02f3 0C01     		.2byte	0x10c
 995 02f5 68030000 		.4byte	0x368
 996 02f9 0C       		.uleb128 0xc
 997 02fa 723400   		.ascii	"r4\000"
 998 02fd 08       		.byte	0x8
 999 02fe 1F01     		.2byte	0x11f
 1000 0300 D4020000 		.4byte	0x2d4
 1001 0304 00       		.byte	0
 1002 0305 0C       		.uleb128 0xc
 1003 0306 723500   		.ascii	"r5\000"
 1004 0309 08       		.byte	0x8
 1005 030a 2001     		.2byte	0x120
 1006 030c D4020000 		.4byte	0x2d4
 1007 0310 04       		.byte	0x4
 1008 0311 0C       		.uleb128 0xc
 1009 0312 723600   		.ascii	"r6\000"
 1010 0315 08       		.byte	0x8
 1011 0316 2101     		.2byte	0x121
 1012 0318 D4020000 		.4byte	0x2d4
 1013 031c 08       		.byte	0x8
ARM GAS  /tmp/cc1elrgw.s 			page 19


 1014 031d 0C       		.uleb128 0xc
 1015 031e 723700   		.ascii	"r7\000"
 1016 0321 08       		.byte	0x8
 1017 0322 2201     		.2byte	0x122
 1018 0324 D4020000 		.4byte	0x2d4
 1019 0328 0C       		.byte	0xc
 1020 0329 0C       		.uleb128 0xc
 1021 032a 723800   		.ascii	"r8\000"
 1022 032d 08       		.byte	0x8
 1023 032e 2301     		.2byte	0x123
 1024 0330 D4020000 		.4byte	0x2d4
 1025 0334 10       		.byte	0x10
 1026 0335 0C       		.uleb128 0xc
 1027 0336 723900   		.ascii	"r9\000"
 1028 0339 08       		.byte	0x8
 1029 033a 2401     		.2byte	0x124
 1030 033c D4020000 		.4byte	0x2d4
 1031 0340 14       		.byte	0x14
 1032 0341 0C       		.uleb128 0xc
 1033 0342 72313000 		.ascii	"r10\000"
 1034 0346 08       		.byte	0x8
 1035 0347 2501     		.2byte	0x125
 1036 0349 D4020000 		.4byte	0x2d4
 1037 034d 18       		.byte	0x18
 1038 034e 0C       		.uleb128 0xc
 1039 034f 72313100 		.ascii	"r11\000"
 1040 0353 08       		.byte	0x8
 1041 0354 2601     		.2byte	0x126
 1042 0356 D4020000 		.4byte	0x2d4
 1043 035a 1C       		.byte	0x1c
 1044 035b 0C       		.uleb128 0xc
 1045 035c 6C7200   		.ascii	"lr\000"
 1046 035f 08       		.byte	0x8
 1047 0360 2701     		.2byte	0x127
 1048 0362 D4020000 		.4byte	0x2d4
 1049 0366 20       		.byte	0x20
 1050 0367 00       		.byte	0
 1051 0368 0B       		.uleb128 0xb
 1052 0369 15020000 		.4byte	.LASF59
 1053 036d 04       		.byte	0x4
 1054 036e 08       		.byte	0x8
 1055 036f 3101     		.2byte	0x131
 1056 0371 83030000 		.4byte	0x383
 1057 0375 0C       		.uleb128 0xc
 1058 0376 72313300 		.ascii	"r13\000"
 1059 037a 08       		.byte	0x8
 1060 037b 3201     		.2byte	0x132
 1061 037d 83030000 		.4byte	0x383
 1062 0381 00       		.byte	0
 1063 0382 00       		.byte	0
 1064 0383 09       		.uleb128 0x9
 1065 0384 04       		.byte	0x4
 1066 0385 EC020000 		.4byte	0x2ec
 1067 0389 0D       		.uleb128 0xd
 1068 038a E4000000 		.4byte	0xe4
 1069 038e 04       		.uleb128 0x4
 1070 038f 04       		.byte	0x4
ARM GAS  /tmp/cc1elrgw.s 			page 20


 1071 0390 07       		.byte	0x7
 1072 0391 16000000 		.4byte	.LASF60
 1073 0395 03       		.uleb128 0x3
 1074 0396 7C000000 		.4byte	.LASF61
 1075 039a 09       		.byte	0x9
 1076 039b 58       		.byte	0x58
 1077 039c A0030000 		.4byte	0x3a0
 1078 03a0 09       		.uleb128 0x9
 1079 03a1 04       		.byte	0x4
 1080 03a2 A6030000 		.4byte	0x3a6
 1081 03a6 0E       		.uleb128 0xe
 1082 03a7 B1030000 		.4byte	0x3b1
 1083 03ab 0F       		.uleb128 0xf
 1084 03ac DF020000 		.4byte	0x2df
 1085 03b0 00       		.byte	0
 1086 03b1 03       		.uleb128 0x3
 1087 03b2 BF090000 		.4byte	.LASF62
 1088 03b6 09       		.byte	0x9
 1089 03b7 5D       		.byte	0x5d
 1090 03b8 BC030000 		.4byte	0x3bc
 1091 03bc 05       		.uleb128 0x5
 1092 03bd BF090000 		.4byte	.LASF62
 1093 03c1 14       		.byte	0x14
 1094 03c2 09       		.byte	0x9
 1095 03c3 64       		.byte	0x64
 1096 03c4 05040000 		.4byte	0x405
 1097 03c8 06       		.uleb128 0x6
 1098 03c9 FC040000 		.4byte	.LASF63
 1099 03cd 09       		.byte	0x9
 1100 03ce 65       		.byte	0x65
 1101 03cf 05040000 		.4byte	0x405
 1102 03d3 00       		.byte	0
 1103 03d4 06       		.uleb128 0x6
 1104 03d5 71020000 		.4byte	.LASF64
 1105 03d9 09       		.byte	0x9
 1106 03da 67       		.byte	0x67
 1107 03db 05040000 		.4byte	0x405
 1108 03df 04       		.byte	0x4
 1109 03e0 06       		.uleb128 0x6
 1110 03e1 E20A0000 		.4byte	.LASF65
 1111 03e5 09       		.byte	0x9
 1112 03e6 69       		.byte	0x69
 1113 03e7 64010000 		.4byte	0x164
 1114 03eb 08       		.byte	0x8
 1115 03ec 06       		.uleb128 0x6
 1116 03ed C6030000 		.4byte	.LASF66
 1117 03f1 09       		.byte	0x9
 1118 03f2 6A       		.byte	0x6a
 1119 03f3 95030000 		.4byte	0x395
 1120 03f7 0C       		.byte	0xc
 1121 03f8 06       		.uleb128 0x6
 1122 03f9 F4000000 		.4byte	.LASF67
 1123 03fd 09       		.byte	0x9
 1124 03fe 6C       		.byte	0x6c
 1125 03ff DF020000 		.4byte	0x2df
 1126 0403 10       		.byte	0x10
 1127 0404 00       		.byte	0
ARM GAS  /tmp/cc1elrgw.s 			page 21


 1128 0405 09       		.uleb128 0x9
 1129 0406 04       		.byte	0x4
 1130 0407 B1030000 		.4byte	0x3b1
 1131 040b 0D       		.uleb128 0xd
 1132 040c 64010000 		.4byte	0x164
 1133 0410 08       		.uleb128 0x8
 1134 0411 1C       		.byte	0x1c
 1135 0412 0A       		.byte	0xa
 1136 0413 5E       		.byte	0x5e
 1137 0414 61040000 		.4byte	0x461
 1138 0418 06       		.uleb128 0x6
 1139 0419 6E080000 		.4byte	.LASF68
 1140 041d 0A       		.byte	0xa
 1141 041e 5F       		.byte	0x5f
 1142 041f A9020000 		.4byte	0x2a9
 1143 0423 00       		.byte	0
 1144 0424 06       		.uleb128 0x6
 1145 0425 39090000 		.4byte	.LASF69
 1146 0429 0A       		.byte	0xa
 1147 042a 60       		.byte	0x60
 1148 042b 38010000 		.4byte	0x138
 1149 042f 08       		.byte	0x8
 1150 0430 06       		.uleb128 0x6
 1151 0431 6E000000 		.4byte	.LASF70
 1152 0435 0A       		.byte	0xa
 1153 0436 62       		.byte	0x62
 1154 0437 68030000 		.4byte	0x368
 1155 043b 0C       		.byte	0xc
 1156 043c 06       		.uleb128 0x6
 1157 043d 80020000 		.4byte	.LASF71
 1158 0441 0A       		.byte	0xa
 1159 0442 65       		.byte	0x65
 1160 0443 A3020000 		.4byte	0x2a3
 1161 0447 10       		.byte	0x10
 1162 0448 06       		.uleb128 0x6
 1163 0449 AA080000 		.4byte	.LASF72
 1164 044d 0A       		.byte	0xa
 1165 044e 66       		.byte	0x66
 1166 044f A3020000 		.4byte	0x2a3
 1167 0453 14       		.byte	0x14
 1168 0454 06       		.uleb128 0x6
 1169 0455 21080000 		.4byte	.LASF73
 1170 0459 0A       		.byte	0xa
 1171 045a 69       		.byte	0x69
 1172 045b A3020000 		.4byte	0x2a3
 1173 045f 18       		.byte	0x18
 1174 0460 00       		.byte	0
 1175 0461 03       		.uleb128 0x3
 1176 0462 B30A0000 		.4byte	.LASF74
 1177 0466 0A       		.byte	0xa
 1178 0467 6B       		.byte	0x6b
 1179 0468 10040000 		.4byte	0x410
 1180 046c 05       		.uleb128 0x5
 1181 046d 33070000 		.4byte	.LASF75
 1182 0471 0C       		.byte	0xc
 1183 0472 0B       		.byte	0xb
 1184 0473 2C       		.byte	0x2c
ARM GAS  /tmp/cc1elrgw.s 			page 22


 1185 0474 91040000 		.4byte	0x491
 1186 0478 06       		.uleb128 0x6
 1187 0479 09090000 		.4byte	.LASF76
 1188 047d 0B       		.byte	0xb
 1189 047e 2D       		.byte	0x2d
 1190 047f A9020000 		.4byte	0x2a9
 1191 0483 00       		.byte	0
 1192 0484 06       		.uleb128 0x6
 1193 0485 67070000 		.4byte	.LASF77
 1194 0489 0B       		.byte	0xb
 1195 048a 2F       		.byte	0x2f
 1196 048b 6F010000 		.4byte	0x16f
 1197 048f 08       		.byte	0x8
 1198 0490 00       		.byte	0
 1199 0491 03       		.uleb128 0x3
 1200 0492 33070000 		.4byte	.LASF75
 1201 0496 0B       		.byte	0xb
 1202 0497 30       		.byte	0x30
 1203 0498 6C040000 		.4byte	0x46c
 1204 049c 05       		.uleb128 0x5
 1205 049d E0040000 		.4byte	.LASF78
 1206 04a1 10       		.byte	0x10
 1207 04a2 0C       		.byte	0xc
 1208 04a3 2C       		.byte	0x2c
 1209 04a4 CD040000 		.4byte	0x4cd
 1210 04a8 06       		.uleb128 0x6
 1211 04a9 F4040000 		.4byte	.LASF79
 1212 04ad 0C       		.byte	0xc
 1213 04ae 2D       		.byte	0x2d
 1214 04af A9020000 		.4byte	0x2a9
 1215 04b3 00       		.byte	0
 1216 04b4 06       		.uleb128 0x6
 1217 04b5 EC000000 		.4byte	.LASF80
 1218 04b9 0C       		.byte	0xc
 1219 04ba 2F       		.byte	0x2f
 1220 04bb A3020000 		.4byte	0x2a3
 1221 04bf 08       		.byte	0x8
 1222 04c0 06       		.uleb128 0x6
 1223 04c1 EA0A0000 		.4byte	.LASF81
 1224 04c5 0C       		.byte	0xc
 1225 04c6 31       		.byte	0x31
 1226 04c7 CD040000 		.4byte	0x4cd
 1227 04cb 0C       		.byte	0xc
 1228 04cc 00       		.byte	0
 1229 04cd 09       		.uleb128 0x9
 1230 04ce 04       		.byte	0x4
 1231 04cf 9C040000 		.4byte	0x49c
 1232 04d3 03       		.uleb128 0x3
 1233 04d4 E0040000 		.4byte	.LASF78
 1234 04d8 0C       		.byte	0xc
 1235 04d9 33       		.byte	0x33
 1236 04da 9C040000 		.4byte	0x49c
 1237 04de 03       		.uleb128 0x3
 1238 04df 90090000 		.4byte	.LASF82
 1239 04e3 0D       		.byte	0xd
 1240 04e4 2C       		.byte	0x2c
 1241 04e5 E9040000 		.4byte	0x4e9
ARM GAS  /tmp/cc1elrgw.s 			page 23


 1242 04e9 05       		.uleb128 0x5
 1243 04ea 90090000 		.4byte	.LASF82
 1244 04ee 10       		.byte	0x10
 1245 04ef 0D       		.byte	0xd
 1246 04f0 31       		.byte	0x31
 1247 04f1 26050000 		.4byte	0x526
 1248 04f5 06       		.uleb128 0x6
 1249 04f6 9B040000 		.4byte	.LASF83
 1250 04fa 0D       		.byte	0xd
 1251 04fb 32       		.byte	0x32
 1252 04fc 26050000 		.4byte	0x526
 1253 0500 00       		.byte	0
 1254 0501 06       		.uleb128 0x6
 1255 0502 1E0B0000 		.4byte	.LASF84
 1256 0506 0D       		.byte	0xd
 1257 0507 35       		.byte	0x35
 1258 0508 A3020000 		.4byte	0x2a3
 1259 050c 04       		.byte	0x4
 1260 050d 06       		.uleb128 0x6
 1261 050e AB0A0000 		.4byte	.LASF85
 1262 0512 0D       		.byte	0xd
 1263 0513 37       		.byte	0x37
 1264 0514 4E010000 		.4byte	0x14e
 1265 0518 08       		.byte	0x8
 1266 0519 06       		.uleb128 0x6
 1267 051a AB000000 		.4byte	.LASF86
 1268 051e 0D       		.byte	0xd
 1269 051f 3A       		.byte	0x3a
 1270 0520 59010000 		.4byte	0x159
 1271 0524 0C       		.byte	0xc
 1272 0525 00       		.byte	0
 1273 0526 09       		.uleb128 0x9
 1274 0527 04       		.byte	0x4
 1275 0528 DE040000 		.4byte	0x4de
 1276 052c 05       		.uleb128 0x5
 1277 052d 4F040000 		.4byte	.LASF87
 1278 0531 04       		.byte	0x4
 1279 0532 0D       		.byte	0xd
 1280 0533 41       		.byte	0x41
 1281 0534 45050000 		.4byte	0x545
 1282 0538 06       		.uleb128 0x6
 1283 0539 35040000 		.4byte	.LASF88
 1284 053d 0D       		.byte	0xd
 1285 053e 42       		.byte	0x42
 1286 053f 26050000 		.4byte	0x526
 1287 0543 00       		.byte	0
 1288 0544 00       		.byte	0
 1289 0545 03       		.uleb128 0x3
 1290 0546 4F040000 		.4byte	.LASF87
 1291 054a 0D       		.byte	0xd
 1292 054b 45       		.byte	0x45
 1293 054c 2C050000 		.4byte	0x52c
 1294 0550 10       		.uleb128 0x10
 1295 0551 04       		.byte	0x4
 1296 0552 07       		.byte	0x7
 1297 0553 96       		.byte	0x96
 1298 0554 85050000 		.4byte	0x585
ARM GAS  /tmp/cc1elrgw.s 			page 24


 1299 0558 11       		.uleb128 0x11
 1300 0559 1B0A0000 		.4byte	.LASF89
 1301 055d 07       		.byte	0x7
 1302 055e 9D       		.byte	0x9d
 1303 055f 43010000 		.4byte	0x143
 1304 0563 11       		.uleb128 0x11
 1305 0564 FB000000 		.4byte	.LASF90
 1306 0568 07       		.byte	0x7
 1307 0569 A4       		.byte	0xa4
 1308 056a 43010000 		.4byte	0x143
 1309 056e 11       		.uleb128 0x11
 1310 056f 0F030000 		.4byte	.LASF91
 1311 0573 07       		.byte	0x7
 1312 0574 AB       		.byte	0xab
 1313 0575 DF020000 		.4byte	0x2df
 1314 0579 11       		.uleb128 0x11
 1315 057a 0E010000 		.4byte	.LASF92
 1316 057e 07       		.byte	0x7
 1317 057f B2       		.byte	0xb2
 1318 0580 4E010000 		.4byte	0x14e
 1319 0584 00       		.byte	0
 1320 0585 09       		.uleb128 0x9
 1321 0586 04       		.byte	0x4
 1322 0587 8B050000 		.4byte	0x58b
 1323 058b 12       		.uleb128 0x12
 1324 058c 90050000 		.4byte	0x590
 1325 0590 04       		.uleb128 0x4
 1326 0591 01       		.byte	0x1
 1327 0592 08       		.byte	0x8
 1328 0593 D3020000 		.4byte	.LASF93
 1329 0597 09       		.uleb128 0x9
 1330 0598 04       		.byte	0x4
 1331 0599 D3040000 		.4byte	0x4d3
 1332 059d 09       		.uleb128 0x9
 1333 059e 04       		.byte	0x4
 1334 059f C3000000 		.4byte	0xc3
 1335 05a3 0D       		.uleb128 0xd
 1336 05a4 D9000000 		.4byte	0xd9
 1337 05a8 13       		.uleb128 0x13
 1338 05a9 01       		.byte	0x1
 1339 05aa 0E       		.byte	0xe
 1340 05ab 56       		.byte	0x56
 1341 05ac C3050000 		.4byte	0x5c3
 1342 05b0 14       		.uleb128 0x14
 1343 05b1 CC000000 		.4byte	.LASF94
 1344 05b5 00       		.sleb128 0
 1345 05b6 14       		.uleb128 0x14
 1346 05b7 000A0000 		.4byte	.LASF95
 1347 05bb 01       		.sleb128 1
 1348 05bc 14       		.uleb128 0x14
 1349 05bd 04050000 		.4byte	.LASF96
 1350 05c1 02       		.sleb128 2
 1351 05c2 00       		.byte	0
 1352 05c3 03       		.uleb128 0x3
 1353 05c4 85090000 		.4byte	.LASF97
 1354 05c8 0E       		.byte	0xe
 1355 05c9 5A       		.byte	0x5a
ARM GAS  /tmp/cc1elrgw.s 			page 25


 1356 05ca A8050000 		.4byte	0x5a8
 1357 05ce 03       		.uleb128 0x3
 1358 05cf BE040000 		.4byte	.LASF98
 1359 05d3 0E       		.byte	0xe
 1360 05d4 5F       		.byte	0x5f
 1361 05d5 D9050000 		.4byte	0x5d9
 1362 05d9 05       		.uleb128 0x5
 1363 05da BE040000 		.4byte	.LASF98
 1364 05de 34       		.byte	0x34
 1365 05df 0F       		.byte	0xf
 1366 05e0 EC       		.byte	0xec
 1367 05e1 57060000 		.4byte	0x657
 1368 05e5 06       		.uleb128 0x6
 1369 05e6 BB000000 		.4byte	.LASF99
 1370 05ea 0F       		.byte	0xf
 1371 05eb F0       		.byte	0xf0
 1372 05ec C3050000 		.4byte	0x5c3
 1373 05f0 00       		.byte	0
 1374 05f1 06       		.uleb128 0x6
 1375 05f2 B4000000 		.4byte	.LASF100
 1376 05f6 0F       		.byte	0xf
 1377 05f7 F4       		.byte	0xf4
 1378 05f8 FF060000 		.4byte	0x6ff
 1379 05fc 04       		.byte	0x4
 1380 05fd 06       		.uleb128 0x6
 1381 05fe DC0A0000 		.4byte	.LASF101
 1382 0602 0F       		.byte	0xf
 1383 0603 F8       		.byte	0xf8
 1384 0604 91040000 		.4byte	0x491
 1385 0608 08       		.byte	0x8
 1386 0609 06       		.uleb128 0x6
 1387 060a F1020000 		.4byte	.LASF102
 1388 060e 0F       		.byte	0xf
 1389 060f FC       		.byte	0xfc
 1390 0610 91040000 		.4byte	0x491
 1391 0614 14       		.byte	0x14
 1392 0615 15       		.uleb128 0x15
 1393 0616 2F030000 		.4byte	.LASF103
 1394 061a 0F       		.byte	0xf
 1395 061b 0101     		.2byte	0x101
 1396 061d 45050000 		.4byte	0x545
 1397 0621 20       		.byte	0x20
 1398 0622 15       		.uleb128 0x15
 1399 0623 A2080000 		.4byte	.LASF104
 1400 0627 0F       		.byte	0xf
 1401 0628 0701     		.2byte	0x107
 1402 062a FA000000 		.4byte	0xfa
 1403 062e 24       		.byte	0x24
 1404 062f 15       		.uleb128 0x15
 1405 0630 A3000000 		.4byte	.LASF105
 1406 0634 0F       		.byte	0xf
 1407 0635 0B01     		.2byte	0x10b
 1408 0637 E4000000 		.4byte	0xe4
 1409 063b 28       		.byte	0x28
 1410 063c 15       		.uleb128 0x15
 1411 063d E4020000 		.4byte	.LASF106
 1412 0641 0F       		.byte	0xf
ARM GAS  /tmp/cc1elrgw.s 			page 26


 1413 0642 0F01     		.2byte	0x10f
 1414 0644 0A070000 		.4byte	0x70a
 1415 0648 2C       		.byte	0x2c
 1416 0649 15       		.uleb128 0x15
 1417 064a C60A0000 		.4byte	.LASF107
 1418 064e 0F       		.byte	0xf
 1419 064f 1301     		.2byte	0x113
 1420 0651 10070000 		.4byte	0x710
 1421 0655 30       		.byte	0x30
 1422 0656 00       		.byte	0
 1423 0657 08       		.uleb128 0x8
 1424 0658 10       		.byte	0x10
 1425 0659 0F       		.byte	0xf
 1426 065a CD       		.byte	0xcd
 1427 065b 90060000 		.4byte	0x690
 1428 065f 06       		.uleb128 0x6
 1429 0660 9E090000 		.4byte	.LASF108
 1430 0664 0F       		.byte	0xf
 1431 0665 CE       		.byte	0xce
 1432 0666 89030000 		.4byte	0x389
 1433 066a 00       		.byte	0
 1434 066b 06       		.uleb128 0x6
 1435 066c A4090000 		.4byte	.LASF109
 1436 0670 0F       		.byte	0xf
 1437 0671 CF       		.byte	0xcf
 1438 0672 89030000 		.4byte	0x389
 1439 0676 04       		.byte	0x4
 1440 0677 06       		.uleb128 0x6
 1441 0678 AA090000 		.4byte	.LASF110
 1442 067c 0F       		.byte	0xf
 1443 067d D0       		.byte	0xd0
 1444 067e 89030000 		.4byte	0x389
 1445 0682 08       		.byte	0x8
 1446 0683 06       		.uleb128 0x6
 1447 0684 B0090000 		.4byte	.LASF111
 1448 0688 0F       		.byte	0xf
 1449 0689 D1       		.byte	0xd1
 1450 068a 89030000 		.4byte	0x389
 1451 068e 0C       		.byte	0xc
 1452 068f 00       		.byte	0
 1453 0690 03       		.uleb128 0x3
 1454 0691 57020000 		.4byte	.LASF112
 1455 0695 0F       		.byte	0xf
 1456 0696 D2       		.byte	0xd2
 1457 0697 57060000 		.4byte	0x657
 1458 069b 08       		.uleb128 0x8
 1459 069c 10       		.byte	0x10
 1460 069d 0F       		.byte	0xf
 1461 069e D7       		.byte	0xd7
 1462 069f D4060000 		.4byte	0x6d4
 1463 06a3 06       		.uleb128 0x6
 1464 06a4 D7050000 		.4byte	.LASF113
 1465 06a8 0F       		.byte	0xf
 1466 06a9 D8       		.byte	0xd8
 1467 06aa 89030000 		.4byte	0x389
 1468 06ae 00       		.byte	0
 1469 06af 06       		.uleb128 0x6
ARM GAS  /tmp/cc1elrgw.s 			page 27


 1470 06b0 DD050000 		.4byte	.LASF114
 1471 06b4 0F       		.byte	0xf
 1472 06b5 D9       		.byte	0xd9
 1473 06b6 89030000 		.4byte	0x389
 1474 06ba 04       		.byte	0x4
 1475 06bb 06       		.uleb128 0x6
 1476 06bc E3050000 		.4byte	.LASF115
 1477 06c0 0F       		.byte	0xf
 1478 06c1 DA       		.byte	0xda
 1479 06c2 89030000 		.4byte	0x389
 1480 06c6 08       		.byte	0x8
 1481 06c7 06       		.uleb128 0x6
 1482 06c8 E9050000 		.4byte	.LASF116
 1483 06cc 0F       		.byte	0xf
 1484 06cd DB       		.byte	0xdb
 1485 06ce 89030000 		.4byte	0x389
 1486 06d2 0C       		.byte	0xc
 1487 06d3 00       		.byte	0
 1488 06d4 03       		.uleb128 0x3
 1489 06d5 500A0000 		.4byte	.LASF117
 1490 06d9 0F       		.byte	0xf
 1491 06da DC       		.byte	0xdc
 1492 06db 9B060000 		.4byte	0x69b
 1493 06df 08       		.uleb128 0x8
 1494 06e0 04       		.byte	0x4
 1495 06e1 0F       		.byte	0xf
 1496 06e2 E1       		.byte	0xe1
 1497 06e3 F4060000 		.4byte	0x6f4
 1498 06e7 06       		.uleb128 0x6
 1499 06e8 78010000 		.4byte	.LASF118
 1500 06ec 0F       		.byte	0xf
 1501 06ed E5       		.byte	0xe5
 1502 06ee 9D050000 		.4byte	0x59d
 1503 06f2 00       		.byte	0
 1504 06f3 00       		.byte	0
 1505 06f4 03       		.uleb128 0x3
 1506 06f5 50080000 		.4byte	.LASF119
 1507 06f9 0F       		.byte	0xf
 1508 06fa E7       		.byte	0xe7
 1509 06fb DF060000 		.4byte	0x6df
 1510 06ff 09       		.uleb128 0x9
 1511 0700 04       		.byte	0x4
 1512 0701 05070000 		.4byte	0x705
 1513 0705 12       		.uleb128 0x12
 1514 0706 F4060000 		.4byte	0x6f4
 1515 070a 09       		.uleb128 0x9
 1516 070b 04       		.byte	0x4
 1517 070c 90060000 		.4byte	0x690
 1518 0710 09       		.uleb128 0x9
 1519 0711 04       		.byte	0x4
 1520 0712 D4060000 		.4byte	0x6d4
 1521 0716 16       		.uleb128 0x16
 1522 0717 0C       		.byte	0xc
 1523 0718 0F       		.byte	0xf
 1524 0719 1901     		.2byte	0x119
 1525 071b 47070000 		.4byte	0x747
 1526 071f 15       		.uleb128 0x15
ARM GAS  /tmp/cc1elrgw.s 			page 28


 1527 0720 C2060000 		.4byte	.LASF120
 1528 0724 0F       		.byte	0xf
 1529 0725 1D01     		.2byte	0x11d
 1530 0727 2C000000 		.4byte	0x2c
 1531 072b 00       		.byte	0
 1532 072c 15       		.uleb128 0x15
 1533 072d 8A070000 		.4byte	.LASF121
 1534 0731 0F       		.byte	0xf
 1535 0732 2101     		.2byte	0x121
 1536 0734 2C000000 		.4byte	0x2c
 1537 0738 04       		.byte	0x4
 1538 0739 15       		.uleb128 0x15
 1539 073a 340A0000 		.4byte	.LASF122
 1540 073e 0F       		.byte	0xf
 1541 073f 2601     		.2byte	0x126
 1542 0741 10070000 		.4byte	0x710
 1543 0745 08       		.byte	0x8
 1544 0746 00       		.byte	0
 1545 0747 17       		.uleb128 0x17
 1546 0748 A6070000 		.4byte	.LASF123
 1547 074c 0F       		.byte	0xf
 1548 074d 2701     		.2byte	0x127
 1549 074f 16070000 		.4byte	0x716
 1550 0753 16       		.uleb128 0x16
 1551 0754 0C       		.byte	0xc
 1552 0755 0F       		.byte	0xf
 1553 0756 2C01     		.2byte	0x12c
 1554 0758 84070000 		.4byte	0x784
 1555 075c 15       		.uleb128 0x15
 1556 075d C2060000 		.4byte	.LASF120
 1557 0761 0F       		.byte	0xf
 1558 0762 3001     		.2byte	0x130
 1559 0764 2C000000 		.4byte	0x2c
 1560 0768 00       		.byte	0
 1561 0769 15       		.uleb128 0x15
 1562 076a 8A070000 		.4byte	.LASF121
 1563 076e 0F       		.byte	0xf
 1564 076f 3401     		.2byte	0x134
 1565 0771 2C000000 		.4byte	0x2c
 1566 0775 04       		.byte	0x4
 1567 0776 15       		.uleb128 0x15
 1568 0777 340A0000 		.4byte	.LASF122
 1569 077b 0F       		.byte	0xf
 1570 077c 3901     		.2byte	0x139
 1571 077e 0A070000 		.4byte	0x70a
 1572 0782 08       		.byte	0x8
 1573 0783 00       		.byte	0
 1574 0784 17       		.uleb128 0x17
 1575 0785 8C0A0000 		.4byte	.LASF124
 1576 0789 0F       		.byte	0xf
 1577 078a 3A01     		.2byte	0x13a
 1578 078c 53070000 		.4byte	0x753
 1579 0790 08       		.uleb128 0x8
 1580 0791 1C       		.byte	0x1c
 1581 0792 10       		.byte	0x10
 1582 0793 27       		.byte	0x27
 1583 0794 BD070000 		.4byte	0x7bd
ARM GAS  /tmp/cc1elrgw.s 			page 29


 1584 0798 06       		.uleb128 0x6
 1585 0799 A6060000 		.4byte	.LASF125
 1586 079d 10       		.byte	0x10
 1587 079e 28       		.byte	0x28
 1588 079f B1030000 		.4byte	0x3b1
 1589 07a3 00       		.byte	0
 1590 07a4 06       		.uleb128 0x6
 1591 07a5 59010000 		.4byte	.LASF126
 1592 07a9 10       		.byte	0x10
 1593 07aa 29       		.byte	0x29
 1594 07ab 45050000 		.4byte	0x545
 1595 07af 14       		.byte	0x14
 1596 07b0 06       		.uleb128 0x6
 1597 07b1 8F050000 		.4byte	.LASF127
 1598 07b5 10       		.byte	0x10
 1599 07b6 2A       		.byte	0x2a
 1600 07b7 64010000 		.4byte	0x164
 1601 07bb 18       		.byte	0x18
 1602 07bc 00       		.byte	0
 1603 07bd 03       		.uleb128 0x3
 1604 07be D8040000 		.4byte	.LASF128
 1605 07c2 10       		.byte	0x10
 1606 07c3 2B       		.byte	0x2b
 1607 07c4 90070000 		.4byte	0x790
 1608 07c8 03       		.uleb128 0x3
 1609 07c9 7A0A0000 		.4byte	.LASF129
 1610 07cd 11       		.byte	0x11
 1611 07ce 38       		.byte	0x38
 1612 07cf C3000000 		.4byte	0xc3
 1613 07d3 03       		.uleb128 0x3
 1614 07d4 5E000000 		.4byte	.LASF130
 1615 07d8 11       		.byte	0x11
 1616 07d9 39       		.byte	0x39
 1617 07da B8000000 		.4byte	0xb8
 1618 07de 03       		.uleb128 0x3
 1619 07df B5050000 		.4byte	.LASF131
 1620 07e3 11       		.byte	0x11
 1621 07e4 3A       		.byte	0x3a
 1622 07e5 CE000000 		.4byte	0xce
 1623 07e9 03       		.uleb128 0x3
 1624 07ea 8E080000 		.4byte	.LASF132
 1625 07ee 11       		.byte	0x11
 1626 07ef 3C       		.byte	0x3c
 1627 07f0 E4000000 		.4byte	0xe4
 1628 07f4 05       		.uleb128 0x5
 1629 07f5 00040000 		.4byte	.LASF133
 1630 07f9 10       		.byte	0x10
 1631 07fa 12       		.byte	0x12
 1632 07fb 70       		.byte	0x70
 1633 07fc 31080000 		.4byte	0x831
 1634 0800 06       		.uleb128 0x6
 1635 0801 2A040000 		.4byte	.LASF134
 1636 0805 12       		.byte	0x12
 1637 0806 71       		.byte	0x71
 1638 0807 9D050000 		.4byte	0x59d
 1639 080b 00       		.byte	0
 1640 080c 06       		.uleb128 0x6
ARM GAS  /tmp/cc1elrgw.s 			page 30


 1641 080d 7E040000 		.4byte	.LASF135
 1642 0811 12       		.byte	0x12
 1643 0812 72       		.byte	0x72
 1644 0813 E4000000 		.4byte	0xe4
 1645 0817 04       		.byte	0x4
 1646 0818 06       		.uleb128 0x6
 1647 0819 0F050000 		.4byte	.LASF136
 1648 081d 12       		.byte	0x12
 1649 081e 73       		.byte	0x73
 1650 081f E4000000 		.4byte	0xe4
 1651 0823 08       		.byte	0x8
 1652 0824 06       		.uleb128 0x6
 1653 0825 4E090000 		.4byte	.LASF137
 1654 0829 12       		.byte	0x12
 1655 082a 74       		.byte	0x74
 1656 082b E4000000 		.4byte	0xe4
 1657 082f 0C       		.byte	0xc
 1658 0830 00       		.byte	0
 1659 0831 03       		.uleb128 0x3
 1660 0832 57030000 		.4byte	.LASF138
 1661 0836 13       		.byte	0x13
 1662 0837 4C       		.byte	0x4c
 1663 0838 DE070000 		.4byte	0x7de
 1664 083c 03       		.uleb128 0x3
 1665 083d 48070000 		.4byte	.LASF139
 1666 0841 14       		.byte	0x14
 1667 0842 2F       		.byte	0x2f
 1668 0843 D3070000 		.4byte	0x7d3
 1669 0847 13       		.uleb128 0x13
 1670 0848 01       		.byte	0x1
 1671 0849 15       		.byte	0x15
 1672 084a 32       		.byte	0x32
 1673 084b 68080000 		.4byte	0x868
 1674 084f 14       		.uleb128 0x14
 1675 0850 D7090000 		.4byte	.LASF140
 1676 0854 00       		.sleb128 0
 1677 0855 14       		.uleb128 0x14
 1678 0856 C8050000 		.4byte	.LASF141
 1679 085a 01       		.sleb128 1
 1680 085b 14       		.uleb128 0x14
 1681 085c 0E0B0000 		.4byte	.LASF142
 1682 0860 02       		.sleb128 2
 1683 0861 14       		.uleb128 0x14
 1684 0862 CC0A0000 		.4byte	.LASF143
 1685 0866 03       		.sleb128 3
 1686 0867 00       		.byte	0
 1687 0868 03       		.uleb128 0x3
 1688 0869 5A080000 		.4byte	.LASF144
 1689 086d 15       		.byte	0x15
 1690 086e 37       		.byte	0x37
 1691 086f 47080000 		.4byte	0x847
 1692 0873 13       		.uleb128 0x13
 1693 0874 01       		.byte	0x1
 1694 0875 15       		.byte	0x15
 1695 0876 39       		.byte	0x39
 1696 0877 94080000 		.4byte	0x894
 1697 087b 14       		.uleb128 0x14
ARM GAS  /tmp/cc1elrgw.s 			page 31


 1698 087c BD0A0000 		.4byte	.LASF145
 1699 0880 00       		.sleb128 0
 1700 0881 14       		.uleb128 0x14
 1701 0882 86040000 		.4byte	.LASF146
 1702 0886 01       		.sleb128 1
 1703 0887 14       		.uleb128 0x14
 1704 0888 D7000000 		.4byte	.LASF147
 1705 088c 02       		.sleb128 2
 1706 088d 14       		.uleb128 0x14
 1707 088e AD020000 		.4byte	.LASF148
 1708 0892 03       		.sleb128 3
 1709 0893 00       		.byte	0
 1710 0894 03       		.uleb128 0x3
 1711 0895 B8060000 		.4byte	.LASF149
 1712 0899 15       		.byte	0x15
 1713 089a 3E       		.byte	0x3e
 1714 089b 73080000 		.4byte	0x873
 1715 089f 05       		.uleb128 0x5
 1716 08a0 DF020000 		.4byte	.LASF150
 1717 08a4 10       		.byte	0x10
 1718 08a5 15       		.byte	0x15
 1719 08a6 4F       		.byte	0x4f
 1720 08a7 00090000 		.4byte	0x900
 1721 08ab 06       		.uleb128 0x6
 1722 08ac 24070000 		.4byte	.LASF151
 1723 08b0 15       		.byte	0x15
 1724 08b1 51       		.byte	0x51
 1725 08b2 00090000 		.4byte	0x900
 1726 08b6 00       		.byte	0
 1727 08b7 06       		.uleb128 0x6
 1728 08b8 A3040000 		.4byte	.LASF152
 1729 08bc 15       		.byte	0x15
 1730 08bd 54       		.byte	0x54
 1731 08be DF020000 		.4byte	0x2df
 1732 08c2 04       		.byte	0x4
 1733 08c3 06       		.uleb128 0x6
 1734 08c4 1C070000 		.4byte	.LASF153
 1735 08c8 15       		.byte	0x15
 1736 08c9 5D       		.byte	0x5d
 1737 08ca DE070000 		.4byte	0x7de
 1738 08ce 08       		.byte	0x8
 1739 08cf 07       		.uleb128 0x7
 1740 08d0 6C656E00 		.ascii	"len\000"
 1741 08d4 15       		.byte	0x15
 1742 08d5 60       		.byte	0x60
 1743 08d6 DE070000 		.4byte	0x7de
 1744 08da 0A       		.byte	0xa
 1745 08db 06       		.uleb128 0x6
 1746 08dc C7000000 		.4byte	.LASF154
 1747 08e0 15       		.byte	0x15
 1748 08e1 63       		.byte	0x63
 1749 08e2 C8070000 		.4byte	0x7c8
 1750 08e6 0C       		.byte	0xc
 1751 08e7 06       		.uleb128 0x6
 1752 08e8 37030000 		.4byte	.LASF155
 1753 08ec 15       		.byte	0x15
 1754 08ed 66       		.byte	0x66
ARM GAS  /tmp/cc1elrgw.s 			page 32


 1755 08ee C8070000 		.4byte	0x7c8
 1756 08f2 0D       		.byte	0xd
 1757 08f3 07       		.uleb128 0x7
 1758 08f4 72656600 		.ascii	"ref\000"
 1759 08f8 15       		.byte	0x15
 1760 08f9 6D       		.byte	0x6d
 1761 08fa DE070000 		.4byte	0x7de
 1762 08fe 0E       		.byte	0xe
 1763 08ff 00       		.byte	0
 1764 0900 09       		.uleb128 0x9
 1765 0901 04       		.byte	0x4
 1766 0902 9F080000 		.4byte	0x89f
 1767 0906 13       		.uleb128 0x13
 1768 0907 01       		.byte	0x1
 1769 0908 16       		.byte	0x16
 1770 0909 2B       		.byte	0x2b
 1771 090a 69090000 		.4byte	0x969
 1772 090e 14       		.uleb128 0x14
 1773 090f F7020000 		.4byte	.LASF156
 1774 0913 00       		.sleb128 0
 1775 0914 14       		.uleb128 0x14
 1776 0915 BC070000 		.4byte	.LASF157
 1777 0919 01       		.sleb128 1
 1778 091a 14       		.uleb128 0x14
 1779 091b 40000000 		.4byte	.LASF158
 1780 091f 02       		.sleb128 2
 1781 0920 14       		.uleb128 0x14
 1782 0921 FA0A0000 		.4byte	.LASF159
 1783 0925 03       		.sleb128 3
 1784 0926 14       		.uleb128 0x14
 1785 0927 D1070000 		.4byte	.LASF160
 1786 092b 04       		.sleb128 4
 1787 092c 14       		.uleb128 0x14
 1788 092d 58070000 		.4byte	.LASF161
 1789 0931 05       		.sleb128 5
 1790 0932 14       		.uleb128 0x14
 1791 0933 7B070000 		.4byte	.LASF162
 1792 0937 06       		.sleb128 6
 1793 0938 14       		.uleb128 0x14
 1794 0939 88020000 		.4byte	.LASF163
 1795 093d 07       		.sleb128 7
 1796 093e 14       		.uleb128 0x14
 1797 093f E1030000 		.4byte	.LASF164
 1798 0943 08       		.sleb128 8
 1799 0944 14       		.uleb128 0x14
 1800 0945 CE030000 		.4byte	.LASF165
 1801 0949 09       		.sleb128 9
 1802 094a 14       		.uleb128 0x14
 1803 094b ED070000 		.4byte	.LASF166
 1804 094f 0A       		.sleb128 10
 1805 0950 14       		.uleb128 0x14
 1806 0951 85000000 		.4byte	.LASF167
 1807 0955 0B       		.sleb128 11
 1808 0956 14       		.uleb128 0x14
 1809 0957 11090000 		.4byte	.LASF168
 1810 095b 0C       		.sleb128 12
 1811 095c 14       		.uleb128 0x14
ARM GAS  /tmp/cc1elrgw.s 			page 33


 1812 095d 9A010000 		.4byte	.LASF169
 1813 0961 0D       		.sleb128 13
 1814 0962 14       		.uleb128 0x14
 1815 0963 85080000 		.4byte	.LASF170
 1816 0967 0E       		.sleb128 14
 1817 0968 00       		.byte	0
 1818 0969 05       		.uleb128 0x5
 1819 096a 3D050000 		.4byte	.LASF171
 1820 096e 18       		.byte	0x18
 1821 096f 17       		.byte	0x17
 1822 0970 3A       		.byte	0x3a
 1823 0971 050A0000 		.4byte	0xa05
 1824 0975 06       		.uleb128 0x6
 1825 0976 C8040000 		.4byte	.LASF172
 1826 097a 17       		.byte	0x17
 1827 097b 3B       		.byte	0x3b
 1828 097c DE070000 		.4byte	0x7de
 1829 0980 00       		.byte	0
 1830 0981 06       		.uleb128 0x6
 1831 0982 12070000 		.4byte	.LASF173
 1832 0986 17       		.byte	0x17
 1833 0987 3C       		.byte	0x3c
 1834 0988 DE070000 		.4byte	0x7de
 1835 098c 02       		.byte	0x2
 1836 098d 07       		.uleb128 0x7
 1837 098e 667700   		.ascii	"fw\000"
 1838 0991 17       		.byte	0x17
 1839 0992 3D       		.byte	0x3d
 1840 0993 DE070000 		.4byte	0x7de
 1841 0997 04       		.byte	0x4
 1842 0998 06       		.uleb128 0x6
 1843 0999 94020000 		.4byte	.LASF174
 1844 099d 17       		.byte	0x17
 1845 099e 3E       		.byte	0x3e
 1846 099f DE070000 		.4byte	0x7de
 1847 09a3 06       		.byte	0x6
 1848 09a4 06       		.uleb128 0x6
 1849 09a5 49080000 		.4byte	.LASF175
 1850 09a9 17       		.byte	0x17
 1851 09aa 3F       		.byte	0x3f
 1852 09ab DE070000 		.4byte	0x7de
 1853 09af 08       		.byte	0x8
 1854 09b0 06       		.uleb128 0x6
 1855 09b1 79020000 		.4byte	.LASF176
 1856 09b5 17       		.byte	0x17
 1857 09b6 40       		.byte	0x40
 1858 09b7 DE070000 		.4byte	0x7de
 1859 09bb 0A       		.byte	0xa
 1860 09bc 06       		.uleb128 0x6
 1861 09bd 88030000 		.4byte	.LASF177
 1862 09c1 17       		.byte	0x17
 1863 09c2 41       		.byte	0x41
 1864 09c3 DE070000 		.4byte	0x7de
 1865 09c7 0C       		.byte	0xc
 1866 09c8 06       		.uleb128 0x6
 1867 09c9 96000000 		.4byte	.LASF178
 1868 09cd 17       		.byte	0x17
ARM GAS  /tmp/cc1elrgw.s 			page 34


 1869 09ce 42       		.byte	0x42
 1870 09cf DE070000 		.4byte	0x7de
 1871 09d3 0E       		.byte	0xe
 1872 09d4 06       		.uleb128 0x6
 1873 09d5 07000000 		.4byte	.LASF179
 1874 09d9 17       		.byte	0x17
 1875 09da 43       		.byte	0x43
 1876 09db DE070000 		.4byte	0x7de
 1877 09df 10       		.byte	0x10
 1878 09e0 06       		.uleb128 0x6
 1879 09e1 33080000 		.4byte	.LASF180
 1880 09e5 17       		.byte	0x17
 1881 09e6 44       		.byte	0x44
 1882 09e7 DE070000 		.4byte	0x7de
 1883 09eb 12       		.byte	0x12
 1884 09ec 07       		.uleb128 0x7
 1885 09ed 65727200 		.ascii	"err\000"
 1886 09f1 17       		.byte	0x17
 1887 09f2 45       		.byte	0x45
 1888 09f3 DE070000 		.4byte	0x7de
 1889 09f7 14       		.byte	0x14
 1890 09f8 06       		.uleb128 0x6
 1891 09f9 7F030000 		.4byte	.LASF181
 1892 09fd 17       		.byte	0x17
 1893 09fe 46       		.byte	0x46
 1894 09ff DE070000 		.4byte	0x7de
 1895 0a03 16       		.byte	0x16
 1896 0a04 00       		.byte	0
 1897 0a05 05       		.uleb128 0x5
 1898 0a06 17080000 		.4byte	.LASF182
 1899 0a0a 0A       		.byte	0xa
 1900 0a0b 17       		.byte	0x17
 1901 0a0c 5A       		.byte	0x5a
 1902 0a0d 4E0A0000 		.4byte	0xa4e
 1903 0a11 06       		.uleb128 0x6
 1904 0a12 72010000 		.4byte	.LASF183
 1905 0a16 17       		.byte	0x17
 1906 0a17 5E       		.byte	0x5e
 1907 0a18 31080000 		.4byte	0x831
 1908 0a1c 00       		.byte	0
 1909 0a1d 06       		.uleb128 0x6
 1910 0a1e 17070000 		.4byte	.LASF184
 1911 0a22 17       		.byte	0x17
 1912 0a23 5F       		.byte	0x5f
 1913 0a24 31080000 		.4byte	0x831
 1914 0a28 02       		.byte	0x2
 1915 0a29 07       		.uleb128 0x7
 1916 0a2a 6D617800 		.ascii	"max\000"
 1917 0a2e 17       		.byte	0x17
 1918 0a2f 60       		.byte	0x60
 1919 0a30 31080000 		.4byte	0x831
 1920 0a34 04       		.byte	0x4
 1921 0a35 07       		.uleb128 0x7
 1922 0a36 65727200 		.ascii	"err\000"
 1923 0a3a 17       		.byte	0x17
 1924 0a3b 61       		.byte	0x61
 1925 0a3c DE070000 		.4byte	0x7de
ARM GAS  /tmp/cc1elrgw.s 			page 35


 1926 0a40 06       		.byte	0x6
 1927 0a41 06       		.uleb128 0x6
 1928 0a42 2B080000 		.4byte	.LASF185
 1929 0a46 17       		.byte	0x17
 1930 0a47 62       		.byte	0x62
 1931 0a48 DE070000 		.4byte	0x7de
 1932 0a4c 08       		.byte	0x8
 1933 0a4d 00       		.byte	0
 1934 0a4e 05       		.uleb128 0x5
 1935 0a4f 2F050000 		.4byte	.LASF186
 1936 0a53 06       		.byte	0x6
 1937 0a54 17       		.byte	0x17
 1938 0a55 65       		.byte	0x65
 1939 0a56 7F0A0000 		.4byte	0xa7f
 1940 0a5a 06       		.uleb128 0x6
 1941 0a5b 17070000 		.4byte	.LASF184
 1942 0a5f 17       		.byte	0x17
 1943 0a60 66       		.byte	0x66
 1944 0a61 DE070000 		.4byte	0x7de
 1945 0a65 00       		.byte	0
 1946 0a66 07       		.uleb128 0x7
 1947 0a67 6D617800 		.ascii	"max\000"
 1948 0a6b 17       		.byte	0x17
 1949 0a6c 67       		.byte	0x67
 1950 0a6d DE070000 		.4byte	0x7de
 1951 0a71 02       		.byte	0x2
 1952 0a72 07       		.uleb128 0x7
 1953 0a73 65727200 		.ascii	"err\000"
 1954 0a77 17       		.byte	0x17
 1955 0a78 68       		.byte	0x68
 1956 0a79 DE070000 		.4byte	0x7de
 1957 0a7d 04       		.byte	0x4
 1958 0a7e 00       		.byte	0
 1959 0a7f 05       		.uleb128 0x5
 1960 0a80 4E070000 		.4byte	.LASF187
 1961 0a84 12       		.byte	0x12
 1962 0a85 17       		.byte	0x17
 1963 0a86 6B       		.byte	0x6b
 1964 0a87 B00A0000 		.4byte	0xab0
 1965 0a8b 07       		.uleb128 0x7
 1966 0a8c 73656D00 		.ascii	"sem\000"
 1967 0a90 17       		.byte	0x17
 1968 0a91 6C       		.byte	0x6c
 1969 0a92 4E0A0000 		.4byte	0xa4e
 1970 0a96 00       		.byte	0
 1971 0a97 06       		.uleb128 0x6
 1972 0a98 1C050000 		.4byte	.LASF188
 1973 0a9c 17       		.byte	0x17
 1974 0a9d 6D       		.byte	0x6d
 1975 0a9e 4E0A0000 		.4byte	0xa4e
 1976 0aa2 06       		.byte	0x6
 1977 0aa3 06       		.uleb128 0x6
 1978 0aa4 C3050000 		.4byte	.LASF189
 1979 0aa8 17       		.byte	0x17
 1980 0aa9 6E       		.byte	0x6e
 1981 0aaa 4E0A0000 		.4byte	0xa4e
 1982 0aae 0C       		.byte	0xc
ARM GAS  /tmp/cc1elrgw.s 			page 36


 1983 0aaf 00       		.byte	0
 1984 0ab0 18       		.uleb128 0x18
 1985 0ab1 8F030000 		.4byte	.LASF190
 1986 0ab5 5001     		.2byte	0x150
 1987 0ab7 17       		.byte	0x17
 1988 0ab8 71       		.byte	0x71
 1989 0ab9 360B0000 		.4byte	0xb36
 1990 0abd 06       		.uleb128 0x6
 1991 0abe 96040000 		.4byte	.LASF191
 1992 0ac2 17       		.byte	0x17
 1993 0ac3 73       		.byte	0x73
 1994 0ac4 69090000 		.4byte	0x969
 1995 0ac8 00       		.byte	0
 1996 0ac9 06       		.uleb128 0x6
 1997 0aca E5000000 		.4byte	.LASF192
 1998 0ace 17       		.byte	0x17
 1999 0acf 76       		.byte	0x76
 2000 0ad0 69090000 		.4byte	0x969
 2001 0ad4 18       		.byte	0x18
 2002 0ad5 06       		.uleb128 0x6
 2003 0ad6 A8050000 		.4byte	.LASF193
 2004 0ada 17       		.byte	0x17
 2005 0adb 79       		.byte	0x79
 2006 0adc 69090000 		.4byte	0x969
 2007 0ae0 30       		.byte	0x30
 2008 0ae1 07       		.uleb128 0x7
 2009 0ae2 697000   		.ascii	"ip\000"
 2010 0ae5 17       		.byte	0x17
 2011 0ae6 7C       		.byte	0x7c
 2012 0ae7 69090000 		.4byte	0x969
 2013 0aeb 48       		.byte	0x48
 2014 0aec 06       		.uleb128 0x6
 2015 0aed 76070000 		.4byte	.LASF194
 2016 0af1 17       		.byte	0x17
 2017 0af2 7F       		.byte	0x7f
 2018 0af3 69090000 		.4byte	0x969
 2019 0af7 60       		.byte	0x60
 2020 0af8 07       		.uleb128 0x7
 2021 0af9 75647000 		.ascii	"udp\000"
 2022 0afd 17       		.byte	0x17
 2023 0afe 85       		.byte	0x85
 2024 0aff 69090000 		.4byte	0x969
 2025 0b03 78       		.byte	0x78
 2026 0b04 07       		.uleb128 0x7
 2027 0b05 74637000 		.ascii	"tcp\000"
 2028 0b09 17       		.byte	0x17
 2029 0b0a 88       		.byte	0x88
 2030 0b0b 69090000 		.4byte	0x969
 2031 0b0f 90       		.byte	0x90
 2032 0b10 07       		.uleb128 0x7
 2033 0b11 6D656D00 		.ascii	"mem\000"
 2034 0b15 17       		.byte	0x17
 2035 0b16 8B       		.byte	0x8b
 2036 0b17 050A0000 		.4byte	0xa05
 2037 0b1b A8       		.byte	0xa8
 2038 0b1c 06       		.uleb128 0x6
 2039 0b1d E0000000 		.4byte	.LASF195
ARM GAS  /tmp/cc1elrgw.s 			page 37


 2040 0b21 17       		.byte	0x17
 2041 0b22 8E       		.byte	0x8e
 2042 0b23 360B0000 		.4byte	0xb36
 2043 0b27 B2       		.byte	0xb2
 2044 0b28 19       		.uleb128 0x19
 2045 0b29 73797300 		.ascii	"sys\000"
 2046 0b2d 17       		.byte	0x17
 2047 0b2e 91       		.byte	0x91
 2048 0b2f 7F0A0000 		.4byte	0xa7f
 2049 0b33 3E01     		.2byte	0x13e
 2050 0b35 00       		.byte	0
 2051 0b36 1A       		.uleb128 0x1a
 2052 0b37 050A0000 		.4byte	0xa05
 2053 0b3b 460B0000 		.4byte	0xb46
 2054 0b3f 1B       		.uleb128 0x1b
 2055 0b40 8E030000 		.4byte	0x38e
 2056 0b44 0D       		.byte	0xd
 2057 0b45 00       		.byte	0
 2058 0b46 05       		.uleb128 0x5
 2059 0b47 6A030000 		.4byte	.LASF196
 2060 0b4b 04       		.byte	0x4
 2061 0b4c 18       		.byte	0x18
 2062 0b4d 2C       		.byte	0x2c
 2063 0b4e 5F0B0000 		.4byte	0xb5f
 2064 0b52 06       		.uleb128 0x6
 2065 0b53 82050000 		.4byte	.LASF197
 2066 0b57 18       		.byte	0x18
 2067 0b58 2D       		.byte	0x2d
 2068 0b59 E9070000 		.4byte	0x7e9
 2069 0b5d 00       		.byte	0
 2070 0b5e 00       		.byte	0
 2071 0b5f 03       		.uleb128 0x3
 2072 0b60 29070000 		.4byte	.LASF198
 2073 0b64 18       		.byte	0x18
 2074 0b65 40       		.byte	0x40
 2075 0b66 460B0000 		.4byte	0xb46
 2076 0b6a 03       		.uleb128 0x3
 2077 0b6b 99020000 		.4byte	.LASF199
 2078 0b6f 19       		.byte	0x19
 2079 0b70 66       		.byte	0x66
 2080 0b71 750B0000 		.4byte	0xb75
 2081 0b75 09       		.uleb128 0x9
 2082 0b76 04       		.byte	0x4
 2083 0b77 7B0B0000 		.4byte	0xb7b
 2084 0b7b 1C       		.uleb128 0x1c
 2085 0b7c 3C080000 		.4byte	0x83c
 2086 0b80 8A0B0000 		.4byte	0xb8a
 2087 0b84 0F       		.uleb128 0xf
 2088 0b85 8A0B0000 		.4byte	0xb8a
 2089 0b89 00       		.byte	0
 2090 0b8a 09       		.uleb128 0x9
 2091 0b8b 04       		.byte	0x4
 2092 0b8c 900B0000 		.4byte	0xb90
 2093 0b90 05       		.uleb128 0x5
 2094 0b91 78040000 		.4byte	.LASF200
 2095 0b95 30       		.byte	0x30
 2096 0b96 19       		.byte	0x19
ARM GAS  /tmp/cc1elrgw.s 			page 38


 2097 0b97 88       		.byte	0x88
 2098 0b98 440C0000 		.4byte	0xc44
 2099 0b9c 06       		.uleb128 0x6
 2100 0b9d 24070000 		.4byte	.LASF151
 2101 0ba1 19       		.byte	0x19
 2102 0ba2 8A       		.byte	0x8a
 2103 0ba3 8A0B0000 		.4byte	0xb8a
 2104 0ba7 00       		.byte	0
 2105 0ba8 06       		.uleb128 0x6
 2106 0ba9 6A030000 		.4byte	.LASF196
 2107 0bad 19       		.byte	0x19
 2108 0bae 8D       		.byte	0x8d
 2109 0baf 5F0B0000 		.4byte	0xb5f
 2110 0bb3 04       		.byte	0x4
 2111 0bb4 06       		.uleb128 0x6
 2112 0bb5 0F050000 		.4byte	.LASF136
 2113 0bb9 19       		.byte	0x19
 2114 0bba 8E       		.byte	0x8e
 2115 0bbb 5F0B0000 		.4byte	0xb5f
 2116 0bbf 08       		.byte	0x8
 2117 0bc0 07       		.uleb128 0x7
 2118 0bc1 677700   		.ascii	"gw\000"
 2119 0bc4 19       		.byte	0x19
 2120 0bc5 8F       		.byte	0x8f
 2121 0bc6 5F0B0000 		.4byte	0xb5f
 2122 0bca 0C       		.byte	0xc
 2123 0bcb 06       		.uleb128 0x6
 2124 0bcc 72030000 		.4byte	.LASF201
 2125 0bd0 19       		.byte	0x19
 2126 0bd1 93       		.byte	0x93
 2127 0bd2 440C0000 		.4byte	0xc44
 2128 0bd6 10       		.byte	0x10
 2129 0bd7 06       		.uleb128 0x6
 2130 0bd8 D8020000 		.4byte	.LASF202
 2131 0bdc 19       		.byte	0x19
 2132 0bdd 97       		.byte	0x97
 2133 0bde 690C0000 		.4byte	0xc69
 2134 0be2 14       		.byte	0x14
 2135 0be3 06       		.uleb128 0x6
 2136 0be4 84010000 		.4byte	.LASF203
 2137 0be8 19       		.byte	0x19
 2138 0be9 9B       		.byte	0x9b
 2139 0bea 990C0000 		.4byte	0xc99
 2140 0bee 18       		.byte	0x18
 2141 0bef 06       		.uleb128 0x6
 2142 0bf0 BB000000 		.4byte	.LASF99
 2143 0bf4 19       		.byte	0x19
 2144 0bf5 AC       		.byte	0xac
 2145 0bf6 DF020000 		.4byte	0x2df
 2146 0bfa 1C       		.byte	0x1c
 2147 0bfb 07       		.uleb128 0x7
 2148 0bfc 6D747500 		.ascii	"mtu\000"
 2149 0c00 19       		.byte	0x19
 2150 0c01 BA       		.byte	0xba
 2151 0c02 DE070000 		.4byte	0x7de
 2152 0c06 20       		.byte	0x20
 2153 0c07 06       		.uleb128 0x6
ARM GAS  /tmp/cc1elrgw.s 			page 39


 2154 0c08 8F010000 		.4byte	.LASF204
 2155 0c0c 19       		.byte	0x19
 2156 0c0d BC       		.byte	0xbc
 2157 0c0e C8070000 		.4byte	0x7c8
 2158 0c12 22       		.byte	0x22
 2159 0c13 06       		.uleb128 0x6
 2160 0c14 8F040000 		.4byte	.LASF205
 2161 0c18 19       		.byte	0x19
 2162 0c19 BE       		.byte	0xbe
 2163 0c1a BE0C0000 		.4byte	0xcbe
 2164 0c1e 23       		.byte	0x23
 2165 0c1f 06       		.uleb128 0x6
 2166 0c20 37030000 		.4byte	.LASF155
 2167 0c24 19       		.byte	0x19
 2168 0c25 C0       		.byte	0xc0
 2169 0c26 C8070000 		.4byte	0x7c8
 2170 0c2a 29       		.byte	0x29
 2171 0c2b 06       		.uleb128 0x6
 2172 0c2c 04090000 		.4byte	.LASF206
 2173 0c30 19       		.byte	0x19
 2174 0c31 C2       		.byte	0xc2
 2175 0c32 CE0C0000 		.4byte	0xcce
 2176 0c36 2A       		.byte	0x2a
 2177 0c37 07       		.uleb128 0x7
 2178 0c38 6E756D00 		.ascii	"num\000"
 2179 0c3c 19       		.byte	0x19
 2180 0c3d C4       		.byte	0xc4
 2181 0c3e C8070000 		.4byte	0x7c8
 2182 0c42 2C       		.byte	0x2c
 2183 0c43 00       		.byte	0
 2184 0c44 03       		.uleb128 0x3
 2185 0c45 EF050000 		.4byte	.LASF207
 2186 0c49 19       		.byte	0x19
 2187 0c4a 6D       		.byte	0x6d
 2188 0c4b 4F0C0000 		.4byte	0xc4f
 2189 0c4f 09       		.uleb128 0x9
 2190 0c50 04       		.byte	0x4
 2191 0c51 550C0000 		.4byte	0xc55
 2192 0c55 1C       		.uleb128 0x1c
 2193 0c56 3C080000 		.4byte	0x83c
 2194 0c5a 690C0000 		.4byte	0xc69
 2195 0c5e 0F       		.uleb128 0xf
 2196 0c5f 00090000 		.4byte	0x900
 2197 0c63 0F       		.uleb128 0xf
 2198 0c64 8A0B0000 		.4byte	0xb8a
 2199 0c68 00       		.byte	0
 2200 0c69 03       		.uleb128 0x3
 2201 0c6a 02070000 		.4byte	.LASF208
 2202 0c6e 19       		.byte	0x19
 2203 0c6f 76       		.byte	0x76
 2204 0c70 740C0000 		.4byte	0xc74
 2205 0c74 09       		.uleb128 0x9
 2206 0c75 04       		.byte	0x4
 2207 0c76 7A0C0000 		.4byte	0xc7a
 2208 0c7a 1C       		.uleb128 0x1c
 2209 0c7b 3C080000 		.4byte	0x83c
 2210 0c7f 930C0000 		.4byte	0xc93
ARM GAS  /tmp/cc1elrgw.s 			page 40


 2211 0c83 0F       		.uleb128 0xf
 2212 0c84 8A0B0000 		.4byte	0xb8a
 2213 0c88 0F       		.uleb128 0xf
 2214 0c89 00090000 		.4byte	0x900
 2215 0c8d 0F       		.uleb128 0xf
 2216 0c8e 930C0000 		.4byte	0xc93
 2217 0c92 00       		.byte	0
 2218 0c93 09       		.uleb128 0x9
 2219 0c94 04       		.byte	0x4
 2220 0c95 5F0B0000 		.4byte	0xb5f
 2221 0c99 03       		.uleb128 0x3
 2222 0c9a C9060000 		.4byte	.LASF209
 2223 0c9e 19       		.byte	0x19
 2224 0c9f 7E       		.byte	0x7e
 2225 0ca0 A40C0000 		.4byte	0xca4
 2226 0ca4 09       		.uleb128 0x9
 2227 0ca5 04       		.byte	0x4
 2228 0ca6 AA0C0000 		.4byte	0xcaa
 2229 0caa 1C       		.uleb128 0x1c
 2230 0cab 3C080000 		.4byte	0x83c
 2231 0caf BE0C0000 		.4byte	0xcbe
 2232 0cb3 0F       		.uleb128 0xf
 2233 0cb4 8A0B0000 		.4byte	0xb8a
 2234 0cb8 0F       		.uleb128 0xf
 2235 0cb9 00090000 		.4byte	0x900
 2236 0cbd 00       		.byte	0
 2237 0cbe 1A       		.uleb128 0x1a
 2238 0cbf C8070000 		.4byte	0x7c8
 2239 0cc3 CE0C0000 		.4byte	0xcce
 2240 0cc7 1B       		.uleb128 0x1b
 2241 0cc8 8E030000 		.4byte	0x38e
 2242 0ccc 05       		.byte	0x5
 2243 0ccd 00       		.byte	0
 2244 0cce 1A       		.uleb128 0x1a
 2245 0ccf 90050000 		.4byte	0x590
 2246 0cd3 DE0C0000 		.4byte	0xcde
 2247 0cd7 1B       		.uleb128 0x1b
 2248 0cd8 8E030000 		.4byte	0x38e
 2249 0cdc 01       		.byte	0x1
 2250 0cdd 00       		.byte	0
 2251 0cde 03       		.uleb128 0x3
 2252 0cdf AB040000 		.4byte	.LASF210
 2253 0ce3 1A       		.byte	0x1a
 2254 0ce4 4C       		.byte	0x4c
 2255 0ce5 A0030000 		.4byte	0x3a0
 2256 0ce9 03       		.uleb128 0x3
 2257 0cea E9060000 		.4byte	.LASF211
 2258 0cee 1A       		.byte	0x1a
 2259 0cef 4E       		.byte	0x4e
 2260 0cf0 A0030000 		.4byte	0x3a0
 2261 0cf4 05       		.uleb128 0x5
 2262 0cf5 29000000 		.4byte	.LASF212
 2263 0cf9 06       		.byte	0x6
 2264 0cfa 1B       		.byte	0x1b
 2265 0cfb 3B       		.byte	0x3b
 2266 0cfc 0D0D0000 		.4byte	0xd0d
 2267 0d00 06       		.uleb128 0x6
ARM GAS  /tmp/cc1elrgw.s 			page 41


 2268 0d01 82050000 		.4byte	.LASF197
 2269 0d05 1B       		.byte	0x1b
 2270 0d06 3C       		.byte	0x3c
 2271 0d07 BE0C0000 		.4byte	0xcbe
 2272 0d0b 00       		.byte	0
 2273 0d0c 00       		.byte	0
 2274 0d0d 05       		.uleb128 0x5
 2275 0d0e 62030000 		.4byte	.LASF213
 2276 0d12 0E       		.byte	0xe
 2277 0d13 1B       		.byte	0x1b
 2278 0d14 48       		.byte	0x48
 2279 0d15 3E0D0000 		.4byte	0xd3e
 2280 0d19 06       		.uleb128 0x6
 2281 0d1a 80080000 		.4byte	.LASF214
 2282 0d1e 1B       		.byte	0x1b
 2283 0d1f 4C       		.byte	0x4c
 2284 0d20 F40C0000 		.4byte	0xcf4
 2285 0d24 00       		.byte	0
 2286 0d25 07       		.uleb128 0x7
 2287 0d26 73726300 		.ascii	"src\000"
 2288 0d2a 1B       		.byte	0x1b
 2289 0d2b 4D       		.byte	0x4d
 2290 0d2c F40C0000 		.4byte	0xcf4
 2291 0d30 06       		.byte	0x6
 2292 0d31 06       		.uleb128 0x6
 2293 0d32 C7000000 		.4byte	.LASF154
 2294 0d36 1B       		.byte	0x1b
 2295 0d37 4E       		.byte	0x4e
 2296 0d38 DE070000 		.4byte	0x7de
 2297 0d3c 0C       		.byte	0xc
 2298 0d3d 00       		.byte	0
 2299 0d3e 1D       		.uleb128 0x1d
 2300 0d3f 3D030000 		.4byte	.LASF252
 2301 0d43 01       		.byte	0x1
 2302 0d44 57       		.byte	0x57
 2303 0d45 01       		.byte	0x1
 2304 0d46 560D0000 		.4byte	0xd56
 2305 0d4a 1E       		.uleb128 0x1e
 2306 0d4b 78040000 		.4byte	.LASF200
 2307 0d4f 01       		.byte	0x1
 2308 0d50 57       		.byte	0x57
 2309 0d51 8A0B0000 		.4byte	0xb8a
 2310 0d55 00       		.byte	0
 2311 0d56 1F       		.uleb128 0x1f
 2312 0d57 6A0A0000 		.4byte	.LASF253
 2313 0d5b 01       		.byte	0x1
 2314 0d5c 85       		.byte	0x85
 2315 0d5d 00090000 		.4byte	0x900
 2316 0d61 01       		.byte	0x1
 2317 0d62 990D0000 		.4byte	0xd99
 2318 0d66 1E       		.uleb128 0x1e
 2319 0d67 78040000 		.4byte	.LASF200
 2320 0d6b 01       		.byte	0x1
 2321 0d6c 85       		.byte	0x85
 2322 0d6d 8A0B0000 		.4byte	0xb8a
 2323 0d71 20       		.uleb128 0x20
 2324 0d72 726400   		.ascii	"rd\000"
ARM GAS  /tmp/cc1elrgw.s 			page 42


 2325 0d75 01       		.byte	0x1
 2326 0d76 86       		.byte	0x86
 2327 0d77 84070000 		.4byte	0x784
 2328 0d7b 20       		.uleb128 0x20
 2329 0d7c 7000     		.ascii	"p\000"
 2330 0d7e 01       		.byte	0x1
 2331 0d7f 87       		.byte	0x87
 2332 0d80 00090000 		.4byte	0x900
 2333 0d84 20       		.uleb128 0x20
 2334 0d85 7100     		.ascii	"q\000"
 2335 0d87 01       		.byte	0x1
 2336 0d88 87       		.byte	0x87
 2337 0d89 00090000 		.4byte	0x900
 2338 0d8d 20       		.uleb128 0x20
 2339 0d8e 6C656E00 		.ascii	"len\000"
 2340 0d92 01       		.byte	0x1
 2341 0d93 88       		.byte	0x88
 2342 0d94 DE070000 		.4byte	0x7de
 2343 0d98 00       		.byte	0
 2344 0d99 21       		.uleb128 0x21
 2345 0d9a 9C030000 		.4byte	.LASF215
 2346 0d9e 01       		.byte	0x1
 2347 0d9f B3       		.byte	0xb3
 2348 0da0 3C080000 		.4byte	0x83c
 2349 0da4 00000000 		.4byte	.LFB121
 2350 0da8 40000000 		.4byte	.LFE121-.LFB121
 2351 0dac 01       		.uleb128 0x1
 2352 0dad 9C       		.byte	0x9c
 2353 0dae D90D0000 		.4byte	0xdd9
 2354 0db2 22       		.uleb128 0x22
 2355 0db3 78040000 		.4byte	.LASF200
 2356 0db7 01       		.byte	0x1
 2357 0db8 B3       		.byte	0xb3
 2358 0db9 8A0B0000 		.4byte	0xb8a
 2359 0dbd 00000000 		.4byte	.LLST0
 2360 0dc1 23       		.uleb128 0x23
 2361 0dc2 3E0D0000 		.4byte	0xd3e
 2362 0dc6 06000000 		.4byte	.LBB4
 2363 0dca 00000000 		.4byte	.Ldebug_ranges0+0
 2364 0dce 01       		.byte	0x1
 2365 0dcf CB       		.byte	0xcb
 2366 0dd0 24       		.uleb128 0x24
 2367 0dd1 4A0D0000 		.4byte	0xd4a
 2368 0dd5 01       		.uleb128 0x1
 2369 0dd6 53       		.byte	0x53
 2370 0dd7 00       		.byte	0
 2371 0dd8 00       		.byte	0
 2372 0dd9 21       		.uleb128 0x21
 2373 0dda 3F010000 		.4byte	.LASF216
 2374 0dde 01       		.byte	0x1
 2375 0ddf 68       		.byte	0x68
 2376 0de0 3C080000 		.4byte	0x83c
 2377 0de4 00000000 		.4byte	.LFB119
 2378 0de8 4A000000 		.4byte	.LFE119-.LFB119
 2379 0dec 01       		.uleb128 0x1
 2380 0ded 9C       		.byte	0x9c
 2381 0dee 670E0000 		.4byte	0xe67
ARM GAS  /tmp/cc1elrgw.s 			page 43


 2382 0df2 22       		.uleb128 0x22
 2383 0df3 78040000 		.4byte	.LASF200
 2384 0df7 01       		.byte	0x1
 2385 0df8 68       		.byte	0x68
 2386 0df9 8A0B0000 		.4byte	0xb8a
 2387 0dfd 1E000000 		.4byte	.LLST1
 2388 0e01 25       		.uleb128 0x25
 2389 0e02 7000     		.ascii	"p\000"
 2390 0e04 01       		.byte	0x1
 2391 0e05 68       		.byte	0x68
 2392 0e06 00090000 		.4byte	0x900
 2393 0e0a 3F000000 		.4byte	.LLST2
 2394 0e0e 26       		.uleb128 0x26
 2395 0e0f 7100     		.ascii	"q\000"
 2396 0e11 01       		.byte	0x1
 2397 0e12 69       		.byte	0x69
 2398 0e13 00090000 		.4byte	0x900
 2399 0e17 76000000 		.4byte	.LLST3
 2400 0e1b 27       		.uleb128 0x27
 2401 0e1c 746400   		.ascii	"td\000"
 2402 0e1f 01       		.byte	0x1
 2403 0e20 6A       		.byte	0x6a
 2404 0e21 47070000 		.4byte	0x747
 2405 0e25 02       		.uleb128 0x2
 2406 0e26 91       		.byte	0x91
 2407 0e27 6C       		.sleb128 -20
 2408 0e28 28       		.uleb128 0x28
 2409 0e29 16000000 		.4byte	.LVL6
 2410 0e2d 24120000 		.4byte	0x1224
 2411 0e31 420E0000 		.4byte	0xe42
 2412 0e35 29       		.uleb128 0x29
 2413 0e36 01       		.uleb128 0x1
 2414 0e37 52       		.byte	0x52
 2415 0e38 02       		.uleb128 0x2
 2416 0e39 08       		.byte	0x8
 2417 0e3a 32       		.byte	0x32
 2418 0e3b 29       		.uleb128 0x29
 2419 0e3c 01       		.uleb128 0x1
 2420 0e3d 51       		.byte	0x51
 2421 0e3e 02       		.uleb128 0x2
 2422 0e3f 91       		.byte	0x91
 2423 0e40 6C       		.sleb128 -20
 2424 0e41 00       		.byte	0
 2425 0e42 28       		.uleb128 0x28
 2426 0e43 24000000 		.4byte	.LVL9
 2427 0e47 4F120000 		.4byte	0x124f
 2428 0e4b 560E0000 		.4byte	0xe56
 2429 0e4f 29       		.uleb128 0x29
 2430 0e50 01       		.uleb128 0x1
 2431 0e51 50       		.byte	0x50
 2432 0e52 02       		.uleb128 0x2
 2433 0e53 91       		.byte	0x91
 2434 0e54 6C       		.sleb128 -20
 2435 0e55 00       		.byte	0
 2436 0e56 2A       		.uleb128 0x2a
 2437 0e57 30000000 		.4byte	.LVL11
 2438 0e5b 6F120000 		.4byte	0x126f
ARM GAS  /tmp/cc1elrgw.s 			page 44


 2439 0e5f 29       		.uleb128 0x29
 2440 0e60 01       		.uleb128 0x1
 2441 0e61 50       		.byte	0x50
 2442 0e62 02       		.uleb128 0x2
 2443 0e63 91       		.byte	0x91
 2444 0e64 6C       		.sleb128 -20
 2445 0e65 00       		.byte	0
 2446 0e66 00       		.byte	0
 2447 0e67 2B       		.uleb128 0x2b
 2448 0e68 58050000 		.4byte	.LASF254
 2449 0e6c 01       		.byte	0x1
 2450 0e6d D6       		.byte	0xd6
 2451 0e6e 43010000 		.4byte	0x143
 2452 0e72 00000000 		.4byte	.LFB122
 2453 0e76 14020000 		.4byte	.LFE122-.LFB122
 2454 0e7a 01       		.uleb128 0x1
 2455 0e7b 9C       		.byte	0x9c
 2456 0e7c C9110000 		.4byte	0x11c9
 2457 0e80 25       		.uleb128 0x25
 2458 0e81 7000     		.ascii	"p\000"
 2459 0e83 01       		.byte	0x1
 2460 0e84 D6       		.byte	0xd6
 2461 0e85 DF020000 		.4byte	0x2df
 2462 0e89 89000000 		.4byte	.LLST4
 2463 0e8d 27       		.uleb128 0x27
 2464 0e8e 65767400 		.ascii	"evt\000"
 2465 0e92 01       		.byte	0x1
 2466 0e93 D7       		.byte	0xd7
 2467 0e94 BD070000 		.4byte	0x7bd
 2468 0e98 02       		.uleb128 0x2
 2469 0e99 91       		.byte	0x91
 2470 0e9a 4C       		.sleb128 -52
 2471 0e9b 27       		.uleb128 0x27
 2472 0e9c 656C3000 		.ascii	"el0\000"
 2473 0ea0 01       		.byte	0x1
 2474 0ea1 D8       		.byte	0xd8
 2475 0ea2 DE040000 		.4byte	0x4de
 2476 0ea6 03       		.uleb128 0x3
 2477 0ea7 91       		.byte	0x91
 2478 0ea8 AC7F     		.sleb128 -84
 2479 0eaa 27       		.uleb128 0x27
 2480 0eab 656C3100 		.ascii	"el1\000"
 2481 0eaf 01       		.byte	0x1
 2482 0eb0 D8       		.byte	0xd8
 2483 0eb1 DE040000 		.4byte	0x4de
 2484 0eb5 03       		.uleb128 0x3
 2485 0eb6 91       		.byte	0x91
 2486 0eb7 BC7F     		.sleb128 -68
 2487 0eb9 27       		.uleb128 0x27
 2488 0eba 697000   		.ascii	"ip\000"
 2489 0ebd 01       		.byte	0x1
 2490 0ebe D9       		.byte	0xd9
 2491 0ebf 460B0000 		.4byte	0xb46
 2492 0ec3 03       		.uleb128 0x3
 2493 0ec4 91       		.byte	0x91
 2494 0ec5 947F     		.sleb128 -108
 2495 0ec7 2C       		.uleb128 0x2c
ARM GAS  /tmp/cc1elrgw.s 			page 45


 2496 0ec8 4E090000 		.4byte	.LASF137
 2497 0ecc 01       		.byte	0x1
 2498 0ecd D9       		.byte	0xd9
 2499 0ece 460B0000 		.4byte	0xb46
 2500 0ed2 03       		.uleb128 0x3
 2501 0ed3 91       		.byte	0x91
 2502 0ed4 987F     		.sleb128 -104
 2503 0ed6 2C       		.uleb128 0x2c
 2504 0ed7 0F050000 		.4byte	.LASF136
 2505 0edb 01       		.byte	0x1
 2506 0edc D9       		.byte	0xd9
 2507 0edd 460B0000 		.4byte	0xb46
 2508 0ee1 03       		.uleb128 0x3
 2509 0ee2 91       		.byte	0x91
 2510 0ee3 9C7F     		.sleb128 -100
 2511 0ee5 2C       		.uleb128 0x2c
 2512 0ee6 78030000 		.4byte	.LASF217
 2513 0eea 01       		.byte	0x1
 2514 0eeb DA       		.byte	0xda
 2515 0eec 900B0000 		.4byte	0xb90
 2516 0ef0 05       		.uleb128 0x5
 2517 0ef1 03       		.byte	0x3
 2518 0ef2 00000000 		.4byte	thisif.7460
 2519 0ef6 2C       		.uleb128 0x2c
 2520 0ef7 F9080000 		.4byte	.LASF218
 2521 0efb 01       		.byte	0x1
 2522 0efc DB       		.byte	0xdb
 2523 0efd 05070000 		.4byte	0x705
 2524 0f01 05       		.uleb128 0x5
 2525 0f02 03       		.byte	0x3
 2526 0f03 00000000 		.4byte	mac_config.7461
 2527 0f07 2D       		.uleb128 0x2d
 2528 0f08 30000000 		.4byte	.LBB17
 2529 0f0c 1C000000 		.4byte	.LBE17-.LBB17
 2530 0f10 2D0F0000 		.4byte	0xf2d
 2531 0f14 2E       		.uleb128 0x2e
 2532 0f15 B0050000 		.4byte	.LASF219
 2533 0f19 01       		.byte	0x1
 2534 0f1a E4       		.byte	0xe4
 2535 0f1b C9110000 		.4byte	0x11c9
 2536 0f1f 26       		.uleb128 0x26
 2537 0f20 6900     		.ascii	"i\000"
 2538 0f22 01       		.byte	0x1
 2539 0f23 E5       		.byte	0xe5
 2540 0f24 37000000 		.4byte	0x37
 2541 0f28 B5000000 		.4byte	.LLST5
 2542 0f2c 00       		.byte	0
 2543 0f2d 2D       		.uleb128 0x2d
 2544 0f2e 20010000 		.4byte	.LBB18
 2545 0f32 F4000000 		.4byte	.LBE18-.LBB18
 2546 0f36 BE100000 		.4byte	0x10be
 2547 0f3a 2F       		.uleb128 0x2f
 2548 0f3b 17050000 		.4byte	.LASF220
 2549 0f3f 01       		.byte	0x1
 2550 0f40 0901     		.2byte	0x109
 2551 0f42 4E010000 		.4byte	0x14e
 2552 0f46 C8000000 		.4byte	.LLST6
ARM GAS  /tmp/cc1elrgw.s 			page 46


 2553 0f4a 30       		.uleb128 0x30
 2554 0f4b 20000000 		.4byte	.Ldebug_ranges0+0x20
 2555 0f4f 5B100000 		.4byte	0x105b
 2556 0f53 31       		.uleb128 0x31
 2557 0f54 7000     		.ascii	"p\000"
 2558 0f56 01       		.byte	0x1
 2559 0f57 1601     		.2byte	0x116
 2560 0f59 00090000 		.4byte	0x900
 2561 0f5d 30       		.uleb128 0x30
 2562 0f5e 40000000 		.4byte	.Ldebug_ranges0+0x40
 2563 0f62 A90F0000 		.4byte	0xfa9
 2564 0f66 2F       		.uleb128 0x2f
 2565 0f67 9C000000 		.4byte	.LASF221
 2566 0f6b 01       		.byte	0x1
 2567 0f6c 1801     		.2byte	0x118
 2568 0f6e CF110000 		.4byte	0x11cf
 2569 0f72 FC000000 		.4byte	.LLST7
 2570 0f76 32       		.uleb128 0x32
 2571 0f77 C0010000 		.4byte	.LVL49
 2572 0f7b 80120000 		.4byte	0x1280
 2573 0f7f 28       		.uleb128 0x28
 2574 0f80 D0010000 		.4byte	.LVL50
 2575 0f84 95120000 		.4byte	0x1295
 2576 0f88 930F0000 		.4byte	0xf93
 2577 0f8c 29       		.uleb128 0x29
 2578 0f8d 01       		.uleb128 0x1
 2579 0f8e 50       		.byte	0x50
 2580 0f8f 02       		.uleb128 0x2
 2581 0f90 75       		.byte	0x75
 2582 0f91 00       		.sleb128 0
 2583 0f92 00       		.byte	0
 2584 0f93 33       		.uleb128 0x33
 2585 0f94 E0010000 		.4byte	.LVL51
 2586 0f98 29       		.uleb128 0x29
 2587 0f99 01       		.uleb128 0x1
 2588 0f9a 51       		.byte	0x51
 2589 0f9b 05       		.uleb128 0x5
 2590 0f9c 03       		.byte	0x3
 2591 0f9d 00000000 		.4byte	.LANCHOR0
 2592 0fa1 29       		.uleb128 0x29
 2593 0fa2 01       		.uleb128 0x1
 2594 0fa3 50       		.byte	0x50
 2595 0fa4 02       		.uleb128 0x2
 2596 0fa5 75       		.byte	0x75
 2597 0fa6 00       		.sleb128 0
 2598 0fa7 00       		.byte	0
 2599 0fa8 00       		.byte	0
 2600 0fa9 34       		.uleb128 0x34
 2601 0faa 560D0000 		.4byte	0xd56
 2602 0fae 76010000 		.4byte	.LBB22
 2603 0fb2 70000000 		.4byte	.Ldebug_ranges0+0x70
 2604 0fb6 01       		.byte	0x1
 2605 0fb7 1701     		.2byte	0x117
 2606 0fb9 35       		.uleb128 0x35
 2607 0fba 660D0000 		.4byte	0xd66
 2608 0fbe 0F010000 		.4byte	.LLST8
 2609 0fc2 36       		.uleb128 0x36
ARM GAS  /tmp/cc1elrgw.s 			page 47


 2610 0fc3 70000000 		.4byte	.Ldebug_ranges0+0x70
 2611 0fc7 37       		.uleb128 0x37
 2612 0fc8 710D0000 		.4byte	0xd71
 2613 0fcc 03       		.uleb128 0x3
 2614 0fcd 91       		.byte	0x91
 2615 0fce A07F     		.sleb128 -96
 2616 0fd0 38       		.uleb128 0x38
 2617 0fd1 7B0D0000 		.4byte	0xd7b
 2618 0fd5 27010000 		.4byte	.LLST9
 2619 0fd9 38       		.uleb128 0x38
 2620 0fda 840D0000 		.4byte	0xd84
 2621 0fde 5B010000 		.4byte	.LLST10
 2622 0fe2 38       		.uleb128 0x38
 2623 0fe3 8D0D0000 		.4byte	0xd8d
 2624 0fe7 6E010000 		.4byte	.LLST11
 2625 0feb 28       		.uleb128 0x28
 2626 0fec 86010000 		.4byte	.LVL41
 2627 0ff0 AA120000 		.4byte	0x12aa
 2628 0ff4 05100000 		.4byte	0x1005
 2629 0ff8 29       		.uleb128 0x29
 2630 0ff9 01       		.uleb128 0x1
 2631 0ffa 52       		.byte	0x52
 2632 0ffb 01       		.uleb128 0x1
 2633 0ffc 30       		.byte	0x30
 2634 0ffd 29       		.uleb128 0x29
 2635 0ffe 01       		.uleb128 0x1
 2636 0fff 51       		.byte	0x51
 2637 1000 03       		.uleb128 0x3
 2638 1001 91       		.byte	0x91
 2639 1002 A07F     		.sleb128 -96
 2640 1004 00       		.byte	0
 2641 1005 28       		.uleb128 0x28
 2642 1006 96010000 		.4byte	.LVL43
 2643 100a CF120000 		.4byte	0x12cf
 2644 100e 1D100000 		.4byte	0x101d
 2645 1012 29       		.uleb128 0x29
 2646 1013 01       		.uleb128 0x1
 2647 1014 52       		.byte	0x52
 2648 1015 01       		.uleb128 0x1
 2649 1016 33       		.byte	0x33
 2650 1017 29       		.uleb128 0x29
 2651 1018 01       		.uleb128 0x1
 2652 1019 50       		.byte	0x50
 2653 101a 01       		.uleb128 0x1
 2654 101b 33       		.byte	0x33
 2655 101c 00       		.byte	0
 2656 101d 28       		.uleb128 0x28
 2657 101e A6010000 		.4byte	.LVL45
 2658 1022 EE120000 		.4byte	0x12ee
 2659 1026 32100000 		.4byte	0x1032
 2660 102a 29       		.uleb128 0x29
 2661 102b 01       		.uleb128 0x1
 2662 102c 50       		.byte	0x50
 2663 102d 03       		.uleb128 0x3
 2664 102e 91       		.byte	0x91
 2665 102f A07F     		.sleb128 -96
 2666 1031 00       		.byte	0
ARM GAS  /tmp/cc1elrgw.s 			page 48


 2667 1032 28       		.uleb128 0x28
 2668 1033 B2010000 		.4byte	.LVL47
 2669 1037 0E130000 		.4byte	0x130e
 2670 103b 47100000 		.4byte	0x1047
 2671 103f 29       		.uleb128 0x29
 2672 1040 01       		.uleb128 0x1
 2673 1041 50       		.byte	0x50
 2674 1042 03       		.uleb128 0x3
 2675 1043 91       		.byte	0x91
 2676 1044 A07F     		.sleb128 -96
 2677 1046 00       		.byte	0
 2678 1047 2A       		.uleb128 0x2a
 2679 1048 EC010000 		.4byte	.LVL54
 2680 104c 0E130000 		.4byte	0x130e
 2681 1050 29       		.uleb128 0x29
 2682 1051 01       		.uleb128 0x1
 2683 1052 50       		.byte	0x50
 2684 1053 03       		.uleb128 0x3
 2685 1054 91       		.byte	0x91
 2686 1055 A07F     		.sleb128 -96
 2687 1057 00       		.byte	0
 2688 1058 00       		.byte	0
 2689 1059 00       		.byte	0
 2690 105a 00       		.byte	0
 2691 105b 30       		.uleb128 0x30
 2692 105c 98000000 		.4byte	.Ldebug_ranges0+0x98
 2693 1060 AD100000 		.4byte	0x10ad
 2694 1064 2F       		.uleb128 0x2f
 2695 1065 64050000 		.4byte	.LASF222
 2696 1069 01       		.byte	0x1
 2697 106a 0B01     		.2byte	0x10b
 2698 106c FA000000 		.4byte	0xfa
 2699 1070 83010000 		.4byte	.LLST12
 2700 1074 32       		.uleb128 0x32
 2701 1075 44010000 		.4byte	.LVL35
 2702 1079 1F130000 		.4byte	0x131f
 2703 107d 28       		.uleb128 0x28
 2704 107e 6C010000 		.4byte	.LVL39
 2705 1082 34130000 		.4byte	0x1334
 2706 1086 99100000 		.4byte	0x1099
 2707 108a 29       		.uleb128 0x29
 2708 108b 01       		.uleb128 0x1
 2709 108c 52       		.byte	0x52
 2710 108d 01       		.uleb128 0x1
 2711 108e 30       		.byte	0x30
 2712 108f 29       		.uleb128 0x29
 2713 1090 01       		.uleb128 0x1
 2714 1091 51       		.byte	0x51
 2715 1092 05       		.uleb128 0x5
 2716 1093 03       		.byte	0x3
 2717 1094 00000000 		.4byte	.LANCHOR0
 2718 1098 00       		.byte	0
 2719 1099 2A       		.uleb128 0x2a
 2720 109a 0E020000 		.4byte	.LVL57
 2721 109e 34130000 		.4byte	0x1334
 2722 10a2 29       		.uleb128 0x29
 2723 10a3 01       		.uleb128 0x1
ARM GAS  /tmp/cc1elrgw.s 			page 49


 2724 10a4 51       		.byte	0x51
 2725 10a5 05       		.uleb128 0x5
 2726 10a6 03       		.byte	0x3
 2727 10a7 00000000 		.4byte	.LANCHOR0
 2728 10ab 00       		.byte	0
 2729 10ac 00       		.byte	0
 2730 10ad 2A       		.uleb128 0x2a
 2731 10ae 32010000 		.4byte	.LVL32
 2732 10b2 53130000 		.4byte	0x1353
 2733 10b6 29       		.uleb128 0x29
 2734 10b7 01       		.uleb128 0x1
 2735 10b8 50       		.byte	0x50
 2736 10b9 02       		.uleb128 0x2
 2737 10ba 09       		.byte	0x9
 2738 10bb FF       		.byte	0xff
 2739 10bc 00       		.byte	0
 2740 10bd 00       		.byte	0
 2741 10be 28       		.uleb128 0x28
 2742 10bf 28000000 		.4byte	.LVL16
 2743 10c3 68130000 		.4byte	0x1368
 2744 10c7 D6100000 		.4byte	0x10d6
 2745 10cb 29       		.uleb128 0x29
 2746 10cc 01       		.uleb128 0x1
 2747 10cd 51       		.byte	0x51
 2748 10ce 01       		.uleb128 0x1
 2749 10cf 30       		.byte	0x30
 2750 10d0 29       		.uleb128 0x29
 2751 10d1 01       		.uleb128 0x1
 2752 10d2 50       		.byte	0x50
 2753 10d3 01       		.uleb128 0x1
 2754 10d4 30       		.byte	0x30
 2755 10d5 00       		.byte	0
 2756 10d6 28       		.uleb128 0x28
 2757 10d7 A2000000 		.4byte	.LVL21
 2758 10db 7E130000 		.4byte	0x137e
 2759 10df ED100000 		.4byte	0x10ed
 2760 10e3 29       		.uleb128 0x29
 2761 10e4 01       		.uleb128 0x1
 2762 10e5 51       		.byte	0x51
 2763 10e6 05       		.uleb128 0x5
 2764 10e7 03       		.byte	0x3
 2765 10e8 00000000 		.4byte	.LANCHOR1
 2766 10ec 00       		.byte	0
 2767 10ed 28       		.uleb128 0x28
 2768 10ee CC000000 		.4byte	.LVL22
 2769 10f2 94130000 		.4byte	0x1394
 2770 10f6 2A110000 		.4byte	0x112a
 2771 10fa 29       		.uleb128 0x29
 2772 10fb 01       		.uleb128 0x1
 2773 10fc 53       		.byte	0x53
 2774 10fd 03       		.uleb128 0x3
 2775 10fe 91       		.byte	0x91
 2776 10ff 987F     		.sleb128 -104
 2777 1101 29       		.uleb128 0x29
 2778 1102 01       		.uleb128 0x1
 2779 1103 52       		.byte	0x52
 2780 1104 03       		.uleb128 0x3
ARM GAS  /tmp/cc1elrgw.s 			page 50


 2781 1105 91       		.byte	0x91
 2782 1106 9C7F     		.sleb128 -100
 2783 1108 29       		.uleb128 0x29
 2784 1109 01       		.uleb128 0x1
 2785 110a 51       		.byte	0x51
 2786 110b 03       		.uleb128 0x3
 2787 110c 91       		.byte	0x91
 2788 110d 947F     		.sleb128 -108
 2789 110f 29       		.uleb128 0x29
 2790 1110 01       		.uleb128 0x1
 2791 1111 50       		.byte	0x50
 2792 1112 05       		.uleb128 0x5
 2793 1113 03       		.byte	0x3
 2794 1114 00000000 		.4byte	.LANCHOR0
 2795 1118 29       		.uleb128 0x29
 2796 1119 02       		.uleb128 0x2
 2797 111a 7D       		.byte	0x7d
 2798 111b 04       		.sleb128 4
 2799 111c 05       		.uleb128 0x5
 2800 111d 03       		.byte	0x3
 2801 111e 00000000 		.4byte	ethernetif_init
 2802 1122 29       		.uleb128 0x29
 2803 1123 02       		.uleb128 0x2
 2804 1124 7D       		.byte	0x7d
 2805 1125 00       		.sleb128 0
 2806 1126 02       		.uleb128 0x2
 2807 1127 74       		.byte	0x74
 2808 1128 00       		.sleb128 0
 2809 1129 00       		.byte	0
 2810 112a 28       		.uleb128 0x28
 2811 112b D8000000 		.4byte	.LVL23
 2812 112f C8130000 		.4byte	0x13c8
 2813 1133 41110000 		.4byte	0x1141
 2814 1137 29       		.uleb128 0x29
 2815 1138 01       		.uleb128 0x1
 2816 1139 50       		.byte	0x50
 2817 113a 05       		.uleb128 0x5
 2818 113b 03       		.byte	0x3
 2819 113c 00000000 		.4byte	.LANCHOR0
 2820 1140 00       		.byte	0
 2821 1141 28       		.uleb128 0x28
 2822 1142 E4000000 		.4byte	.LVL24
 2823 1146 DA130000 		.4byte	0x13da
 2824 114a 58110000 		.4byte	0x1158
 2825 114e 29       		.uleb128 0x29
 2826 114f 01       		.uleb128 0x1
 2827 1150 50       		.byte	0x50
 2828 1151 05       		.uleb128 0x5
 2829 1152 03       		.byte	0x3
 2830 1153 00000000 		.4byte	.LANCHOR0
 2831 1157 00       		.byte	0
 2832 1158 28       		.uleb128 0x28
 2833 1159 F6000000 		.4byte	.LVL25
 2834 115d EC130000 		.4byte	0x13ec
 2835 1161 6C110000 		.4byte	0x116c
 2836 1165 29       		.uleb128 0x29
 2837 1166 01       		.uleb128 0x1
ARM GAS  /tmp/cc1elrgw.s 			page 51


 2838 1167 50       		.byte	0x50
 2839 1168 02       		.uleb128 0x2
 2840 1169 91       		.byte	0x91
 2841 116a 4C       		.sleb128 -52
 2842 116b 00       		.byte	0
 2843 116c 28       		.uleb128 0x28
 2844 116d 00010000 		.4byte	.LVL26
 2845 1171 03140000 		.4byte	0x1403
 2846 1175 8C110000 		.4byte	0x118c
 2847 1179 29       		.uleb128 0x29
 2848 117a 01       		.uleb128 0x1
 2849 117b 52       		.byte	0x52
 2850 117c 01       		.uleb128 0x1
 2851 117d 31       		.byte	0x31
 2852 117e 29       		.uleb128 0x29
 2853 117f 01       		.uleb128 0x1
 2854 1180 51       		.byte	0x51
 2855 1181 03       		.uleb128 0x3
 2856 1182 91       		.byte	0x91
 2857 1183 AC7F     		.sleb128 -84
 2858 1185 29       		.uleb128 0x29
 2859 1186 01       		.uleb128 0x1
 2860 1187 50       		.byte	0x50
 2861 1188 02       		.uleb128 0x2
 2862 1189 75       		.byte	0x75
 2863 118a 00       		.sleb128 0
 2864 118b 00       		.byte	0
 2865 118c 28       		.uleb128 0x28
 2866 118d 0A010000 		.4byte	.LVL27
 2867 1191 03140000 		.4byte	0x1403
 2868 1195 A6110000 		.4byte	0x11a6
 2869 1199 29       		.uleb128 0x29
 2870 119a 01       		.uleb128 0x1
 2871 119b 52       		.byte	0x52
 2872 119c 01       		.uleb128 0x1
 2873 119d 32       		.byte	0x32
 2874 119e 29       		.uleb128 0x29
 2875 119f 01       		.uleb128 0x1
 2876 11a0 51       		.byte	0x51
 2877 11a1 03       		.uleb128 0x3
 2878 11a2 91       		.byte	0x91
 2879 11a3 BC7F     		.sleb128 -68
 2880 11a5 00       		.byte	0
 2881 11a6 28       		.uleb128 0x28
 2882 11a7 10010000 		.4byte	.LVL28
 2883 11ab 24140000 		.4byte	0x1424
 2884 11af B9110000 		.4byte	0x11b9
 2885 11b3 29       		.uleb128 0x29
 2886 11b4 01       		.uleb128 0x1
 2887 11b5 50       		.byte	0x50
 2888 11b6 01       		.uleb128 0x1
 2889 11b7 33       		.byte	0x33
 2890 11b8 00       		.byte	0
 2891 11b9 2A       		.uleb128 0x2a
 2892 11ba 1A010000 		.4byte	.LVL29
 2893 11be 39140000 		.4byte	0x1439
 2894 11c2 29       		.uleb128 0x29
ARM GAS  /tmp/cc1elrgw.s 			page 52


 2895 11c3 01       		.uleb128 0x1
 2896 11c4 50       		.byte	0x50
 2897 11c5 01       		.uleb128 0x1
 2898 11c6 32       		.byte	0x32
 2899 11c7 00       		.byte	0
 2900 11c8 00       		.byte	0
 2901 11c9 09       		.uleb128 0x9
 2902 11ca 04       		.byte	0x4
 2903 11cb F4070000 		.4byte	0x7f4
 2904 11cf 09       		.uleb128 0x9
 2905 11d0 04       		.byte	0x4
 2906 11d1 0D0D0000 		.4byte	0xd0d
 2907 11d5 39       		.uleb128 0x39
 2908 11d6 94080000 		.4byte	.LASF223
 2909 11da 0A       		.byte	0xa
 2910 11db 6F       		.byte	0x6f
 2911 11dc 61040000 		.4byte	0x461
 2912 11e0 3A       		.uleb128 0x3a
 2913 11e1 22050000 		.4byte	.LASF224
 2914 11e5 1C       		.byte	0x1c
 2915 11e6 9806     		.2byte	0x698
 2916 11e8 A3050000 		.4byte	0x5a3
 2917 11ec 3A       		.uleb128 0x3a
 2918 11ed C1000000 		.4byte	.LASF225
 2919 11f1 0F       		.byte	0xf
 2920 11f2 4501     		.2byte	0x145
 2921 11f4 CE050000 		.4byte	0x5ce
 2922 11f8 1A       		.uleb128 0x1a
 2923 11f9 E1020000 		.4byte	0x2e1
 2924 11fd 08120000 		.4byte	0x1208
 2925 1201 1B       		.uleb128 0x1b
 2926 1202 8E030000 		.4byte	0x38e
 2927 1206 59       		.byte	0x59
 2928 1207 00       		.byte	0
 2929 1208 3B       		.uleb128 0x3b
 2930 1209 3A080000 		.4byte	.LASF226
 2931 120d 01       		.byte	0x1
 2932 120e 52       		.byte	0x52
 2933 120f F8110000 		.4byte	0x11f8
 2934 1213 05       		.uleb128 0x5
 2935 1214 03       		.byte	0x3
 2936 1215 00000000 		.4byte	wa_lwip_thread
 2937 1219 39       		.uleb128 0x39
 2938 121a 2E090000 		.4byte	.LASF227
 2939 121e 17       		.byte	0x17
 2940 121f 95       		.byte	0x95
 2941 1220 B00A0000 		.4byte	0xab0
 2942 1224 3C       		.uleb128 0x3c
 2943 1225 10040000 		.4byte	.LASF228
 2944 1229 0E       		.byte	0xe
 2945 122a CC       		.byte	0xcc
 2946 122b 43010000 		.4byte	0x143
 2947 122f 43120000 		.4byte	0x1243
 2948 1233 0F       		.uleb128 0xf
 2949 1234 43120000 		.4byte	0x1243
 2950 1238 0F       		.uleb128 0xf
 2951 1239 49120000 		.4byte	0x1249
ARM GAS  /tmp/cc1elrgw.s 			page 53


 2952 123d 0F       		.uleb128 0xf
 2953 123e 64010000 		.4byte	0x164
 2954 1242 00       		.byte	0
 2955 1243 09       		.uleb128 0x9
 2956 1244 04       		.byte	0x4
 2957 1245 CE050000 		.4byte	0x5ce
 2958 1249 09       		.uleb128 0x9
 2959 124a 04       		.byte	0x4
 2960 124b 47070000 		.4byte	0x747
 2961 124f 3D       		.uleb128 0x3d
 2962 1250 C7010000 		.4byte	.LASF229
 2963 1254 0F       		.byte	0xf
 2964 1255 5501     		.2byte	0x155
 2965 1257 2C000000 		.4byte	0x2c
 2966 125b 6F120000 		.4byte	0x126f
 2967 125f 0F       		.uleb128 0xf
 2968 1260 49120000 		.4byte	0x1249
 2969 1264 0F       		.uleb128 0xf
 2970 1265 9D050000 		.4byte	0x59d
 2971 1269 0F       		.uleb128 0xf
 2972 126a 2C000000 		.4byte	0x2c
 2973 126e 00       		.byte	0
 2974 126f 3E       		.uleb128 0x3e
 2975 1270 56090000 		.4byte	.LASF235
 2976 1274 0E       		.byte	0xe
 2977 1275 CF       		.byte	0xcf
 2978 1276 80120000 		.4byte	0x1280
 2979 127a 0F       		.uleb128 0xf
 2980 127b 49120000 		.4byte	0x1249
 2981 127f 00       		.byte	0
 2982 1280 3C       		.uleb128 0x3c
 2983 1281 2D010000 		.4byte	.LASF230
 2984 1285 1D       		.byte	0x1d
 2985 1286 63       		.byte	0x63
 2986 1287 DE070000 		.4byte	0x7de
 2987 128b 95120000 		.4byte	0x1295
 2988 128f 0F       		.uleb128 0xf
 2989 1290 DE070000 		.4byte	0x7de
 2990 1294 00       		.byte	0
 2991 1295 3C       		.uleb128 0x3c
 2992 1296 76080000 		.4byte	.LASF231
 2993 129a 15       		.byte	0x15
 2994 129b 9B       		.byte	0x9b
 2995 129c C8070000 		.4byte	0x7c8
 2996 12a0 AA120000 		.4byte	0x12aa
 2997 12a4 0F       		.uleb128 0xf
 2998 12a5 00090000 		.4byte	0x900
 2999 12a9 00       		.byte	0
 3000 12aa 3C       		.uleb128 0x3c
 3001 12ab 16030000 		.4byte	.LASF232
 3002 12af 0E       		.byte	0xe
 3003 12b0 D0       		.byte	0xd0
 3004 12b1 43010000 		.4byte	0x143
 3005 12b5 C9120000 		.4byte	0x12c9
 3006 12b9 0F       		.uleb128 0xf
 3007 12ba 43120000 		.4byte	0x1243
 3008 12be 0F       		.uleb128 0xf
ARM GAS  /tmp/cc1elrgw.s 			page 54


 3009 12bf C9120000 		.4byte	0x12c9
 3010 12c3 0F       		.uleb128 0xf
 3011 12c4 64010000 		.4byte	0x164
 3012 12c8 00       		.byte	0
 3013 12c9 09       		.uleb128 0x9
 3014 12ca 04       		.byte	0x4
 3015 12cb 84070000 		.4byte	0x784
 3016 12cf 3C       		.uleb128 0x3c
 3017 12d0 02080000 		.4byte	.LASF233
 3018 12d4 15       		.byte	0x15
 3019 12d5 92       		.byte	0x92
 3020 12d6 00090000 		.4byte	0x900
 3021 12da EE120000 		.4byte	0x12ee
 3022 12de 0F       		.uleb128 0xf
 3023 12df 68080000 		.4byte	0x868
 3024 12e3 0F       		.uleb128 0xf
 3025 12e4 DE070000 		.4byte	0x7de
 3026 12e8 0F       		.uleb128 0xf
 3027 12e9 94080000 		.4byte	0x894
 3028 12ed 00       		.byte	0
 3029 12ee 3D       		.uleb128 0x3d
 3030 12ef E9010000 		.4byte	.LASF234
 3031 12f3 0F       		.byte	0xf
 3032 12f4 5801     		.2byte	0x158
 3033 12f6 2C000000 		.4byte	0x2c
 3034 12fa 0E130000 		.4byte	0x130e
 3035 12fe 0F       		.uleb128 0xf
 3036 12ff C9120000 		.4byte	0x12c9
 3037 1303 0F       		.uleb128 0xf
 3038 1304 9D050000 		.4byte	0x59d
 3039 1308 0F       		.uleb128 0xf
 3040 1309 2C000000 		.4byte	0x2c
 3041 130d 00       		.byte	0
 3042 130e 3E       		.uleb128 0x3e
 3043 130f B7020000 		.4byte	.LASF236
 3044 1313 0E       		.byte	0xe
 3045 1314 D3       		.byte	0xd3
 3046 1315 1F130000 		.4byte	0x131f
 3047 1319 0F       		.uleb128 0xf
 3048 131a C9120000 		.4byte	0x12c9
 3049 131e 00       		.byte	0
 3050 131f 3C       		.uleb128 0x3c
 3051 1320 090A0000 		.4byte	.LASF237
 3052 1324 0E       		.byte	0xe
 3053 1325 D4       		.byte	0xd4
 3054 1326 FA000000 		.4byte	0xfa
 3055 132a 34130000 		.4byte	0x1334
 3056 132e 0F       		.uleb128 0xf
 3057 132f 43120000 		.4byte	0x1243
 3058 1333 00       		.byte	0
 3059 1334 3C       		.uleb128 0x3c
 3060 1335 AC030000 		.4byte	.LASF238
 3061 1339 1A       		.byte	0x1a
 3062 133a 65       		.byte	0x65
 3063 133b 3C080000 		.4byte	0x83c
 3064 133f 53130000 		.4byte	0x1353
 3065 1343 0F       		.uleb128 0xf
ARM GAS  /tmp/cc1elrgw.s 			page 55


 3066 1344 E90C0000 		.4byte	0xce9
 3067 1348 0F       		.uleb128 0xf
 3068 1349 DF020000 		.4byte	0x2df
 3069 134d 0F       		.uleb128 0xf
 3070 134e C8070000 		.4byte	0x7c8
 3071 1352 00       		.byte	0
 3072 1353 3C       		.uleb128 0x3c
 3073 1354 7F0A0000 		.4byte	.LASF239
 3074 1358 0D       		.byte	0xd
 3075 1359 BE       		.byte	0xbe
 3076 135a 4E010000 		.4byte	0x14e
 3077 135e 68130000 		.4byte	0x1368
 3078 1362 0F       		.uleb128 0xf
 3079 1363 4E010000 		.4byte	0x14e
 3080 1367 00       		.byte	0
 3081 1368 3E       		.uleb128 0x3e
 3082 1369 CC090000 		.4byte	.LASF240
 3083 136d 1A       		.byte	0x1a
 3084 136e 53       		.byte	0x53
 3085 136f 7E130000 		.4byte	0x137e
 3086 1373 0F       		.uleb128 0xf
 3087 1374 DE0C0000 		.4byte	0xcde
 3088 1378 0F       		.uleb128 0xf
 3089 1379 DF020000 		.4byte	0x2df
 3090 137d 00       		.byte	0
 3091 137e 3E       		.uleb128 0x3e
 3092 137f 65080000 		.4byte	.LASF241
 3093 1383 0E       		.byte	0xe
 3094 1384 C9       		.byte	0xc9
 3095 1385 94130000 		.4byte	0x1394
 3096 1389 0F       		.uleb128 0xf
 3097 138a 43120000 		.4byte	0x1243
 3098 138e 0F       		.uleb128 0xf
 3099 138f FF060000 		.4byte	0x6ff
 3100 1393 00       		.byte	0
 3101 1394 3D       		.uleb128 0x3d
 3102 1395 73090000 		.4byte	.LASF242
 3103 1399 19       		.byte	0x19
 3104 139a 0301     		.2byte	0x103
 3105 139c 8A0B0000 		.4byte	0xb8a
 3106 13a0 C8130000 		.4byte	0x13c8
 3107 13a4 0F       		.uleb128 0xf
 3108 13a5 8A0B0000 		.4byte	0xb8a
 3109 13a9 0F       		.uleb128 0xf
 3110 13aa 930C0000 		.4byte	0xc93
 3111 13ae 0F       		.uleb128 0xf
 3112 13af 930C0000 		.4byte	0xc93
 3113 13b3 0F       		.uleb128 0xf
 3114 13b4 930C0000 		.4byte	0xc93
 3115 13b8 0F       		.uleb128 0xf
 3116 13b9 DF020000 		.4byte	0x2df
 3117 13bd 0F       		.uleb128 0xf
 3118 13be 6A0B0000 		.4byte	0xb6a
 3119 13c2 0F       		.uleb128 0xf
 3120 13c3 440C0000 		.4byte	0xc44
 3121 13c7 00       		.byte	0
 3122 13c8 3F       		.uleb128 0x3f
ARM GAS  /tmp/cc1elrgw.s 			page 56


 3123 13c9 3D040000 		.4byte	.LASF243
 3124 13cd 19       		.byte	0x19
 3125 13ce 1101     		.2byte	0x111
 3126 13d0 DA130000 		.4byte	0x13da
 3127 13d4 0F       		.uleb128 0xf
 3128 13d5 8A0B0000 		.4byte	0xb8a
 3129 13d9 00       		.byte	0
 3130 13da 3F       		.uleb128 0x3f
 3131 13db F3090000 		.4byte	.LASF244
 3132 13df 19       		.byte	0x19
 3133 13e0 1701     		.2byte	0x117
 3134 13e2 EC130000 		.4byte	0x13ec
 3135 13e6 0F       		.uleb128 0xf
 3136 13e7 8A0B0000 		.4byte	0xb8a
 3137 13eb 00       		.byte	0
 3138 13ec 3E       		.uleb128 0x3e
 3139 13ed F10A0000 		.4byte	.LASF245
 3140 13f1 10       		.byte	0x10
 3141 13f2 30       		.byte	0x30
 3142 13f3 FD130000 		.4byte	0x13fd
 3143 13f7 0F       		.uleb128 0xf
 3144 13f8 FD130000 		.4byte	0x13fd
 3145 13fc 00       		.byte	0
 3146 13fd 09       		.uleb128 0x9
 3147 13fe 04       		.byte	0x4
 3148 13ff BD070000 		.4byte	0x7bd
 3149 1403 3E       		.uleb128 0x3e
 3150 1404 220A0000 		.4byte	.LASF246
 3151 1408 0D       		.byte	0xd
 3152 1409 AF       		.byte	0xaf
 3153 140a 1E140000 		.4byte	0x141e
 3154 140e 0F       		.uleb128 0xf
 3155 140f 1E140000 		.4byte	0x141e
 3156 1413 0F       		.uleb128 0xf
 3157 1414 26050000 		.4byte	0x526
 3158 1418 0F       		.uleb128 0xf
 3159 1419 4E010000 		.4byte	0x14e
 3160 141d 00       		.byte	0
 3161 141e 09       		.uleb128 0x9
 3162 141f 04       		.byte	0x4
 3163 1420 45050000 		.4byte	0x545
 3164 1424 3C       		.uleb128 0x3c
 3165 1425 49050000 		.4byte	.LASF247
 3166 1429 0D       		.byte	0xd
 3167 142a B4       		.byte	0xb4
 3168 142b 4E010000 		.4byte	0x14e
 3169 142f 39140000 		.4byte	0x1439
 3170 1433 0F       		.uleb128 0xf
 3171 1434 4E010000 		.4byte	0x14e
 3172 1438 00       		.byte	0
 3173 1439 40       		.uleb128 0x40
 3174 143a 4D000000 		.4byte	.LASF248
 3175 143e 07       		.byte	0x7
 3176 143f 7201     		.2byte	0x172
 3177 1441 38010000 		.4byte	0x138
 3178 1445 0F       		.uleb128 0xf
 3179 1446 38010000 		.4byte	0x138
ARM GAS  /tmp/cc1elrgw.s 			page 57


 3180 144a 00       		.byte	0
 3181 144b 00       		.byte	0
 3182              		.section	.debug_abbrev,"",%progbits
 3183              	.Ldebug_abbrev0:
 3184 0000 01       		.uleb128 0x1
 3185 0001 11       		.uleb128 0x11
 3186 0002 01       		.byte	0x1
 3187 0003 25       		.uleb128 0x25
 3188 0004 0E       		.uleb128 0xe
 3189 0005 13       		.uleb128 0x13
 3190 0006 0B       		.uleb128 0xb
 3191 0007 03       		.uleb128 0x3
 3192 0008 0E       		.uleb128 0xe
 3193 0009 1B       		.uleb128 0x1b
 3194 000a 0E       		.uleb128 0xe
 3195 000b 55       		.uleb128 0x55
 3196 000c 17       		.uleb128 0x17
 3197 000d 11       		.uleb128 0x11
 3198 000e 01       		.uleb128 0x1
 3199 000f 10       		.uleb128 0x10
 3200 0010 17       		.uleb128 0x17
 3201 0011 00       		.byte	0
 3202 0012 00       		.byte	0
 3203 0013 02       		.uleb128 0x2
 3204 0014 24       		.uleb128 0x24
 3205 0015 00       		.byte	0
 3206 0016 0B       		.uleb128 0xb
 3207 0017 0B       		.uleb128 0xb
 3208 0018 3E       		.uleb128 0x3e
 3209 0019 0B       		.uleb128 0xb
 3210 001a 03       		.uleb128 0x3
 3211 001b 08       		.uleb128 0x8
 3212 001c 00       		.byte	0
 3213 001d 00       		.byte	0
 3214 001e 03       		.uleb128 0x3
 3215 001f 16       		.uleb128 0x16
 3216 0020 00       		.byte	0
 3217 0021 03       		.uleb128 0x3
 3218 0022 0E       		.uleb128 0xe
 3219 0023 3A       		.uleb128 0x3a
 3220 0024 0B       		.uleb128 0xb
 3221 0025 3B       		.uleb128 0x3b
 3222 0026 0B       		.uleb128 0xb
 3223 0027 49       		.uleb128 0x49
 3224 0028 13       		.uleb128 0x13
 3225 0029 00       		.byte	0
 3226 002a 00       		.byte	0
 3227 002b 04       		.uleb128 0x4
 3228 002c 24       		.uleb128 0x24
 3229 002d 00       		.byte	0
 3230 002e 0B       		.uleb128 0xb
 3231 002f 0B       		.uleb128 0xb
 3232 0030 3E       		.uleb128 0x3e
 3233 0031 0B       		.uleb128 0xb
 3234 0032 03       		.uleb128 0x3
 3235 0033 0E       		.uleb128 0xe
 3236 0034 00       		.byte	0
ARM GAS  /tmp/cc1elrgw.s 			page 58


 3237 0035 00       		.byte	0
 3238 0036 05       		.uleb128 0x5
 3239 0037 13       		.uleb128 0x13
 3240 0038 01       		.byte	0x1
 3241 0039 03       		.uleb128 0x3
 3242 003a 0E       		.uleb128 0xe
 3243 003b 0B       		.uleb128 0xb
 3244 003c 0B       		.uleb128 0xb
 3245 003d 3A       		.uleb128 0x3a
 3246 003e 0B       		.uleb128 0xb
 3247 003f 3B       		.uleb128 0x3b
 3248 0040 0B       		.uleb128 0xb
 3249 0041 01       		.uleb128 0x1
 3250 0042 13       		.uleb128 0x13
 3251 0043 00       		.byte	0
 3252 0044 00       		.byte	0
 3253 0045 06       		.uleb128 0x6
 3254 0046 0D       		.uleb128 0xd
 3255 0047 00       		.byte	0
 3256 0048 03       		.uleb128 0x3
 3257 0049 0E       		.uleb128 0xe
 3258 004a 3A       		.uleb128 0x3a
 3259 004b 0B       		.uleb128 0xb
 3260 004c 3B       		.uleb128 0x3b
 3261 004d 0B       		.uleb128 0xb
 3262 004e 49       		.uleb128 0x49
 3263 004f 13       		.uleb128 0x13
 3264 0050 38       		.uleb128 0x38
 3265 0051 0B       		.uleb128 0xb
 3266 0052 00       		.byte	0
 3267 0053 00       		.byte	0
 3268 0054 07       		.uleb128 0x7
 3269 0055 0D       		.uleb128 0xd
 3270 0056 00       		.byte	0
 3271 0057 03       		.uleb128 0x3
 3272 0058 08       		.uleb128 0x8
 3273 0059 3A       		.uleb128 0x3a
 3274 005a 0B       		.uleb128 0xb
 3275 005b 3B       		.uleb128 0x3b
 3276 005c 0B       		.uleb128 0xb
 3277 005d 49       		.uleb128 0x49
 3278 005e 13       		.uleb128 0x13
 3279 005f 38       		.uleb128 0x38
 3280 0060 0B       		.uleb128 0xb
 3281 0061 00       		.byte	0
 3282 0062 00       		.byte	0
 3283 0063 08       		.uleb128 0x8
 3284 0064 13       		.uleb128 0x13
 3285 0065 01       		.byte	0x1
 3286 0066 0B       		.uleb128 0xb
 3287 0067 0B       		.uleb128 0xb
 3288 0068 3A       		.uleb128 0x3a
 3289 0069 0B       		.uleb128 0xb
 3290 006a 3B       		.uleb128 0x3b
 3291 006b 0B       		.uleb128 0xb
 3292 006c 01       		.uleb128 0x1
 3293 006d 13       		.uleb128 0x13
ARM GAS  /tmp/cc1elrgw.s 			page 59


 3294 006e 00       		.byte	0
 3295 006f 00       		.byte	0
 3296 0070 09       		.uleb128 0x9
 3297 0071 0F       		.uleb128 0xf
 3298 0072 00       		.byte	0
 3299 0073 0B       		.uleb128 0xb
 3300 0074 0B       		.uleb128 0xb
 3301 0075 49       		.uleb128 0x49
 3302 0076 13       		.uleb128 0x13
 3303 0077 00       		.byte	0
 3304 0078 00       		.byte	0
 3305 0079 0A       		.uleb128 0xa
 3306 007a 0F       		.uleb128 0xf
 3307 007b 00       		.byte	0
 3308 007c 0B       		.uleb128 0xb
 3309 007d 0B       		.uleb128 0xb
 3310 007e 00       		.byte	0
 3311 007f 00       		.byte	0
 3312 0080 0B       		.uleb128 0xb
 3313 0081 13       		.uleb128 0x13
 3314 0082 01       		.byte	0x1
 3315 0083 03       		.uleb128 0x3
 3316 0084 0E       		.uleb128 0xe
 3317 0085 0B       		.uleb128 0xb
 3318 0086 0B       		.uleb128 0xb
 3319 0087 3A       		.uleb128 0x3a
 3320 0088 0B       		.uleb128 0xb
 3321 0089 3B       		.uleb128 0x3b
 3322 008a 05       		.uleb128 0x5
 3323 008b 01       		.uleb128 0x1
 3324 008c 13       		.uleb128 0x13
 3325 008d 00       		.byte	0
 3326 008e 00       		.byte	0
 3327 008f 0C       		.uleb128 0xc
 3328 0090 0D       		.uleb128 0xd
 3329 0091 00       		.byte	0
 3330 0092 03       		.uleb128 0x3
 3331 0093 08       		.uleb128 0x8
 3332 0094 3A       		.uleb128 0x3a
 3333 0095 0B       		.uleb128 0xb
 3334 0096 3B       		.uleb128 0x3b
 3335 0097 05       		.uleb128 0x5
 3336 0098 49       		.uleb128 0x49
 3337 0099 13       		.uleb128 0x13
 3338 009a 38       		.uleb128 0x38
 3339 009b 0B       		.uleb128 0xb
 3340 009c 00       		.byte	0
 3341 009d 00       		.byte	0
 3342 009e 0D       		.uleb128 0xd
 3343 009f 35       		.uleb128 0x35
 3344 00a0 00       		.byte	0
 3345 00a1 49       		.uleb128 0x49
 3346 00a2 13       		.uleb128 0x13
 3347 00a3 00       		.byte	0
 3348 00a4 00       		.byte	0
 3349 00a5 0E       		.uleb128 0xe
 3350 00a6 15       		.uleb128 0x15
ARM GAS  /tmp/cc1elrgw.s 			page 60


 3351 00a7 01       		.byte	0x1
 3352 00a8 27       		.uleb128 0x27
 3353 00a9 19       		.uleb128 0x19
 3354 00aa 01       		.uleb128 0x1
 3355 00ab 13       		.uleb128 0x13
 3356 00ac 00       		.byte	0
 3357 00ad 00       		.byte	0
 3358 00ae 0F       		.uleb128 0xf
 3359 00af 05       		.uleb128 0x5
 3360 00b0 00       		.byte	0
 3361 00b1 49       		.uleb128 0x49
 3362 00b2 13       		.uleb128 0x13
 3363 00b3 00       		.byte	0
 3364 00b4 00       		.byte	0
 3365 00b5 10       		.uleb128 0x10
 3366 00b6 17       		.uleb128 0x17
 3367 00b7 01       		.byte	0x1
 3368 00b8 0B       		.uleb128 0xb
 3369 00b9 0B       		.uleb128 0xb
 3370 00ba 3A       		.uleb128 0x3a
 3371 00bb 0B       		.uleb128 0xb
 3372 00bc 3B       		.uleb128 0x3b
 3373 00bd 0B       		.uleb128 0xb
 3374 00be 01       		.uleb128 0x1
 3375 00bf 13       		.uleb128 0x13
 3376 00c0 00       		.byte	0
 3377 00c1 00       		.byte	0
 3378 00c2 11       		.uleb128 0x11
 3379 00c3 0D       		.uleb128 0xd
 3380 00c4 00       		.byte	0
 3381 00c5 03       		.uleb128 0x3
 3382 00c6 0E       		.uleb128 0xe
 3383 00c7 3A       		.uleb128 0x3a
 3384 00c8 0B       		.uleb128 0xb
 3385 00c9 3B       		.uleb128 0x3b
 3386 00ca 0B       		.uleb128 0xb
 3387 00cb 49       		.uleb128 0x49
 3388 00cc 13       		.uleb128 0x13
 3389 00cd 00       		.byte	0
 3390 00ce 00       		.byte	0
 3391 00cf 12       		.uleb128 0x12
 3392 00d0 26       		.uleb128 0x26
 3393 00d1 00       		.byte	0
 3394 00d2 49       		.uleb128 0x49
 3395 00d3 13       		.uleb128 0x13
 3396 00d4 00       		.byte	0
 3397 00d5 00       		.byte	0
 3398 00d6 13       		.uleb128 0x13
 3399 00d7 04       		.uleb128 0x4
 3400 00d8 01       		.byte	0x1
 3401 00d9 0B       		.uleb128 0xb
 3402 00da 0B       		.uleb128 0xb
 3403 00db 3A       		.uleb128 0x3a
 3404 00dc 0B       		.uleb128 0xb
 3405 00dd 3B       		.uleb128 0x3b
 3406 00de 0B       		.uleb128 0xb
 3407 00df 01       		.uleb128 0x1
ARM GAS  /tmp/cc1elrgw.s 			page 61


 3408 00e0 13       		.uleb128 0x13
 3409 00e1 00       		.byte	0
 3410 00e2 00       		.byte	0
 3411 00e3 14       		.uleb128 0x14
 3412 00e4 28       		.uleb128 0x28
 3413 00e5 00       		.byte	0
 3414 00e6 03       		.uleb128 0x3
 3415 00e7 0E       		.uleb128 0xe
 3416 00e8 1C       		.uleb128 0x1c
 3417 00e9 0D       		.uleb128 0xd
 3418 00ea 00       		.byte	0
 3419 00eb 00       		.byte	0
 3420 00ec 15       		.uleb128 0x15
 3421 00ed 0D       		.uleb128 0xd
 3422 00ee 00       		.byte	0
 3423 00ef 03       		.uleb128 0x3
 3424 00f0 0E       		.uleb128 0xe
 3425 00f1 3A       		.uleb128 0x3a
 3426 00f2 0B       		.uleb128 0xb
 3427 00f3 3B       		.uleb128 0x3b
 3428 00f4 05       		.uleb128 0x5
 3429 00f5 49       		.uleb128 0x49
 3430 00f6 13       		.uleb128 0x13
 3431 00f7 38       		.uleb128 0x38
 3432 00f8 0B       		.uleb128 0xb
 3433 00f9 00       		.byte	0
 3434 00fa 00       		.byte	0
 3435 00fb 16       		.uleb128 0x16
 3436 00fc 13       		.uleb128 0x13
 3437 00fd 01       		.byte	0x1
 3438 00fe 0B       		.uleb128 0xb
 3439 00ff 0B       		.uleb128 0xb
 3440 0100 3A       		.uleb128 0x3a
 3441 0101 0B       		.uleb128 0xb
 3442 0102 3B       		.uleb128 0x3b
 3443 0103 05       		.uleb128 0x5
 3444 0104 01       		.uleb128 0x1
 3445 0105 13       		.uleb128 0x13
 3446 0106 00       		.byte	0
 3447 0107 00       		.byte	0
 3448 0108 17       		.uleb128 0x17
 3449 0109 16       		.uleb128 0x16
 3450 010a 00       		.byte	0
 3451 010b 03       		.uleb128 0x3
 3452 010c 0E       		.uleb128 0xe
 3453 010d 3A       		.uleb128 0x3a
 3454 010e 0B       		.uleb128 0xb
 3455 010f 3B       		.uleb128 0x3b
 3456 0110 05       		.uleb128 0x5
 3457 0111 49       		.uleb128 0x49
 3458 0112 13       		.uleb128 0x13
 3459 0113 00       		.byte	0
 3460 0114 00       		.byte	0
 3461 0115 18       		.uleb128 0x18
 3462 0116 13       		.uleb128 0x13
 3463 0117 01       		.byte	0x1
 3464 0118 03       		.uleb128 0x3
ARM GAS  /tmp/cc1elrgw.s 			page 62


 3465 0119 0E       		.uleb128 0xe
 3466 011a 0B       		.uleb128 0xb
 3467 011b 05       		.uleb128 0x5
 3468 011c 3A       		.uleb128 0x3a
 3469 011d 0B       		.uleb128 0xb
 3470 011e 3B       		.uleb128 0x3b
 3471 011f 0B       		.uleb128 0xb
 3472 0120 01       		.uleb128 0x1
 3473 0121 13       		.uleb128 0x13
 3474 0122 00       		.byte	0
 3475 0123 00       		.byte	0
 3476 0124 19       		.uleb128 0x19
 3477 0125 0D       		.uleb128 0xd
 3478 0126 00       		.byte	0
 3479 0127 03       		.uleb128 0x3
 3480 0128 08       		.uleb128 0x8
 3481 0129 3A       		.uleb128 0x3a
 3482 012a 0B       		.uleb128 0xb
 3483 012b 3B       		.uleb128 0x3b
 3484 012c 0B       		.uleb128 0xb
 3485 012d 49       		.uleb128 0x49
 3486 012e 13       		.uleb128 0x13
 3487 012f 38       		.uleb128 0x38
 3488 0130 05       		.uleb128 0x5
 3489 0131 00       		.byte	0
 3490 0132 00       		.byte	0
 3491 0133 1A       		.uleb128 0x1a
 3492 0134 01       		.uleb128 0x1
 3493 0135 01       		.byte	0x1
 3494 0136 49       		.uleb128 0x49
 3495 0137 13       		.uleb128 0x13
 3496 0138 01       		.uleb128 0x1
 3497 0139 13       		.uleb128 0x13
 3498 013a 00       		.byte	0
 3499 013b 00       		.byte	0
 3500 013c 1B       		.uleb128 0x1b
 3501 013d 21       		.uleb128 0x21
 3502 013e 00       		.byte	0
 3503 013f 49       		.uleb128 0x49
 3504 0140 13       		.uleb128 0x13
 3505 0141 2F       		.uleb128 0x2f
 3506 0142 0B       		.uleb128 0xb
 3507 0143 00       		.byte	0
 3508 0144 00       		.byte	0
 3509 0145 1C       		.uleb128 0x1c
 3510 0146 15       		.uleb128 0x15
 3511 0147 01       		.byte	0x1
 3512 0148 27       		.uleb128 0x27
 3513 0149 19       		.uleb128 0x19
 3514 014a 49       		.uleb128 0x49
 3515 014b 13       		.uleb128 0x13
 3516 014c 01       		.uleb128 0x1
 3517 014d 13       		.uleb128 0x13
 3518 014e 00       		.byte	0
 3519 014f 00       		.byte	0
 3520 0150 1D       		.uleb128 0x1d
 3521 0151 2E       		.uleb128 0x2e
ARM GAS  /tmp/cc1elrgw.s 			page 63


 3522 0152 01       		.byte	0x1
 3523 0153 03       		.uleb128 0x3
 3524 0154 0E       		.uleb128 0xe
 3525 0155 3A       		.uleb128 0x3a
 3526 0156 0B       		.uleb128 0xb
 3527 0157 3B       		.uleb128 0x3b
 3528 0158 0B       		.uleb128 0xb
 3529 0159 27       		.uleb128 0x27
 3530 015a 19       		.uleb128 0x19
 3531 015b 20       		.uleb128 0x20
 3532 015c 0B       		.uleb128 0xb
 3533 015d 01       		.uleb128 0x1
 3534 015e 13       		.uleb128 0x13
 3535 015f 00       		.byte	0
 3536 0160 00       		.byte	0
 3537 0161 1E       		.uleb128 0x1e
 3538 0162 05       		.uleb128 0x5
 3539 0163 00       		.byte	0
 3540 0164 03       		.uleb128 0x3
 3541 0165 0E       		.uleb128 0xe
 3542 0166 3A       		.uleb128 0x3a
 3543 0167 0B       		.uleb128 0xb
 3544 0168 3B       		.uleb128 0x3b
 3545 0169 0B       		.uleb128 0xb
 3546 016a 49       		.uleb128 0x49
 3547 016b 13       		.uleb128 0x13
 3548 016c 00       		.byte	0
 3549 016d 00       		.byte	0
 3550 016e 1F       		.uleb128 0x1f
 3551 016f 2E       		.uleb128 0x2e
 3552 0170 01       		.byte	0x1
 3553 0171 03       		.uleb128 0x3
 3554 0172 0E       		.uleb128 0xe
 3555 0173 3A       		.uleb128 0x3a
 3556 0174 0B       		.uleb128 0xb
 3557 0175 3B       		.uleb128 0x3b
 3558 0176 0B       		.uleb128 0xb
 3559 0177 27       		.uleb128 0x27
 3560 0178 19       		.uleb128 0x19
 3561 0179 49       		.uleb128 0x49
 3562 017a 13       		.uleb128 0x13
 3563 017b 20       		.uleb128 0x20
 3564 017c 0B       		.uleb128 0xb
 3565 017d 01       		.uleb128 0x1
 3566 017e 13       		.uleb128 0x13
 3567 017f 00       		.byte	0
 3568 0180 00       		.byte	0
 3569 0181 20       		.uleb128 0x20
 3570 0182 34       		.uleb128 0x34
 3571 0183 00       		.byte	0
 3572 0184 03       		.uleb128 0x3
 3573 0185 08       		.uleb128 0x8
 3574 0186 3A       		.uleb128 0x3a
 3575 0187 0B       		.uleb128 0xb
 3576 0188 3B       		.uleb128 0x3b
 3577 0189 0B       		.uleb128 0xb
 3578 018a 49       		.uleb128 0x49
ARM GAS  /tmp/cc1elrgw.s 			page 64


 3579 018b 13       		.uleb128 0x13
 3580 018c 00       		.byte	0
 3581 018d 00       		.byte	0
 3582 018e 21       		.uleb128 0x21
 3583 018f 2E       		.uleb128 0x2e
 3584 0190 01       		.byte	0x1
 3585 0191 03       		.uleb128 0x3
 3586 0192 0E       		.uleb128 0xe
 3587 0193 3A       		.uleb128 0x3a
 3588 0194 0B       		.uleb128 0xb
 3589 0195 3B       		.uleb128 0x3b
 3590 0196 0B       		.uleb128 0xb
 3591 0197 27       		.uleb128 0x27
 3592 0198 19       		.uleb128 0x19
 3593 0199 49       		.uleb128 0x49
 3594 019a 13       		.uleb128 0x13
 3595 019b 11       		.uleb128 0x11
 3596 019c 01       		.uleb128 0x1
 3597 019d 12       		.uleb128 0x12
 3598 019e 06       		.uleb128 0x6
 3599 019f 40       		.uleb128 0x40
 3600 01a0 18       		.uleb128 0x18
 3601 01a1 9742     		.uleb128 0x2117
 3602 01a3 19       		.uleb128 0x19
 3603 01a4 01       		.uleb128 0x1
 3604 01a5 13       		.uleb128 0x13
 3605 01a6 00       		.byte	0
 3606 01a7 00       		.byte	0
 3607 01a8 22       		.uleb128 0x22
 3608 01a9 05       		.uleb128 0x5
 3609 01aa 00       		.byte	0
 3610 01ab 03       		.uleb128 0x3
 3611 01ac 0E       		.uleb128 0xe
 3612 01ad 3A       		.uleb128 0x3a
 3613 01ae 0B       		.uleb128 0xb
 3614 01af 3B       		.uleb128 0x3b
 3615 01b0 0B       		.uleb128 0xb
 3616 01b1 49       		.uleb128 0x49
 3617 01b2 13       		.uleb128 0x13
 3618 01b3 02       		.uleb128 0x2
 3619 01b4 17       		.uleb128 0x17
 3620 01b5 00       		.byte	0
 3621 01b6 00       		.byte	0
 3622 01b7 23       		.uleb128 0x23
 3623 01b8 1D       		.uleb128 0x1d
 3624 01b9 01       		.byte	0x1
 3625 01ba 31       		.uleb128 0x31
 3626 01bb 13       		.uleb128 0x13
 3627 01bc 52       		.uleb128 0x52
 3628 01bd 01       		.uleb128 0x1
 3629 01be 55       		.uleb128 0x55
 3630 01bf 17       		.uleb128 0x17
 3631 01c0 58       		.uleb128 0x58
 3632 01c1 0B       		.uleb128 0xb
 3633 01c2 59       		.uleb128 0x59
 3634 01c3 0B       		.uleb128 0xb
 3635 01c4 00       		.byte	0
ARM GAS  /tmp/cc1elrgw.s 			page 65


 3636 01c5 00       		.byte	0
 3637 01c6 24       		.uleb128 0x24
 3638 01c7 05       		.uleb128 0x5
 3639 01c8 00       		.byte	0
 3640 01c9 31       		.uleb128 0x31
 3641 01ca 13       		.uleb128 0x13
 3642 01cb 02       		.uleb128 0x2
 3643 01cc 18       		.uleb128 0x18
 3644 01cd 00       		.byte	0
 3645 01ce 00       		.byte	0
 3646 01cf 25       		.uleb128 0x25
 3647 01d0 05       		.uleb128 0x5
 3648 01d1 00       		.byte	0
 3649 01d2 03       		.uleb128 0x3
 3650 01d3 08       		.uleb128 0x8
 3651 01d4 3A       		.uleb128 0x3a
 3652 01d5 0B       		.uleb128 0xb
 3653 01d6 3B       		.uleb128 0x3b
 3654 01d7 0B       		.uleb128 0xb
 3655 01d8 49       		.uleb128 0x49
 3656 01d9 13       		.uleb128 0x13
 3657 01da 02       		.uleb128 0x2
 3658 01db 17       		.uleb128 0x17
 3659 01dc 00       		.byte	0
 3660 01dd 00       		.byte	0
 3661 01de 26       		.uleb128 0x26
 3662 01df 34       		.uleb128 0x34
 3663 01e0 00       		.byte	0
 3664 01e1 03       		.uleb128 0x3
 3665 01e2 08       		.uleb128 0x8
 3666 01e3 3A       		.uleb128 0x3a
 3667 01e4 0B       		.uleb128 0xb
 3668 01e5 3B       		.uleb128 0x3b
 3669 01e6 0B       		.uleb128 0xb
 3670 01e7 49       		.uleb128 0x49
 3671 01e8 13       		.uleb128 0x13
 3672 01e9 02       		.uleb128 0x2
 3673 01ea 17       		.uleb128 0x17
 3674 01eb 00       		.byte	0
 3675 01ec 00       		.byte	0
 3676 01ed 27       		.uleb128 0x27
 3677 01ee 34       		.uleb128 0x34
 3678 01ef 00       		.byte	0
 3679 01f0 03       		.uleb128 0x3
 3680 01f1 08       		.uleb128 0x8
 3681 01f2 3A       		.uleb128 0x3a
 3682 01f3 0B       		.uleb128 0xb
 3683 01f4 3B       		.uleb128 0x3b
 3684 01f5 0B       		.uleb128 0xb
 3685 01f6 49       		.uleb128 0x49
 3686 01f7 13       		.uleb128 0x13
 3687 01f8 02       		.uleb128 0x2
 3688 01f9 18       		.uleb128 0x18
 3689 01fa 00       		.byte	0
 3690 01fb 00       		.byte	0
 3691 01fc 28       		.uleb128 0x28
 3692 01fd 898201   		.uleb128 0x4109
ARM GAS  /tmp/cc1elrgw.s 			page 66


 3693 0200 01       		.byte	0x1
 3694 0201 11       		.uleb128 0x11
 3695 0202 01       		.uleb128 0x1
 3696 0203 31       		.uleb128 0x31
 3697 0204 13       		.uleb128 0x13
 3698 0205 01       		.uleb128 0x1
 3699 0206 13       		.uleb128 0x13
 3700 0207 00       		.byte	0
 3701 0208 00       		.byte	0
 3702 0209 29       		.uleb128 0x29
 3703 020a 8A8201   		.uleb128 0x410a
 3704 020d 00       		.byte	0
 3705 020e 02       		.uleb128 0x2
 3706 020f 18       		.uleb128 0x18
 3707 0210 9142     		.uleb128 0x2111
 3708 0212 18       		.uleb128 0x18
 3709 0213 00       		.byte	0
 3710 0214 00       		.byte	0
 3711 0215 2A       		.uleb128 0x2a
 3712 0216 898201   		.uleb128 0x4109
 3713 0219 01       		.byte	0x1
 3714 021a 11       		.uleb128 0x11
 3715 021b 01       		.uleb128 0x1
 3716 021c 31       		.uleb128 0x31
 3717 021d 13       		.uleb128 0x13
 3718 021e 00       		.byte	0
 3719 021f 00       		.byte	0
 3720 0220 2B       		.uleb128 0x2b
 3721 0221 2E       		.uleb128 0x2e
 3722 0222 01       		.byte	0x1
 3723 0223 3F       		.uleb128 0x3f
 3724 0224 19       		.uleb128 0x19
 3725 0225 03       		.uleb128 0x3
 3726 0226 0E       		.uleb128 0xe
 3727 0227 3A       		.uleb128 0x3a
 3728 0228 0B       		.uleb128 0xb
 3729 0229 3B       		.uleb128 0x3b
 3730 022a 0B       		.uleb128 0xb
 3731 022b 27       		.uleb128 0x27
 3732 022c 19       		.uleb128 0x19
 3733 022d 49       		.uleb128 0x49
 3734 022e 13       		.uleb128 0x13
 3735 022f 11       		.uleb128 0x11
 3736 0230 01       		.uleb128 0x1
 3737 0231 12       		.uleb128 0x12
 3738 0232 06       		.uleb128 0x6
 3739 0233 40       		.uleb128 0x40
 3740 0234 18       		.uleb128 0x18
 3741 0235 9742     		.uleb128 0x2117
 3742 0237 19       		.uleb128 0x19
 3743 0238 01       		.uleb128 0x1
 3744 0239 13       		.uleb128 0x13
 3745 023a 00       		.byte	0
 3746 023b 00       		.byte	0
 3747 023c 2C       		.uleb128 0x2c
 3748 023d 34       		.uleb128 0x34
 3749 023e 00       		.byte	0
ARM GAS  /tmp/cc1elrgw.s 			page 67


 3750 023f 03       		.uleb128 0x3
 3751 0240 0E       		.uleb128 0xe
 3752 0241 3A       		.uleb128 0x3a
 3753 0242 0B       		.uleb128 0xb
 3754 0243 3B       		.uleb128 0x3b
 3755 0244 0B       		.uleb128 0xb
 3756 0245 49       		.uleb128 0x49
 3757 0246 13       		.uleb128 0x13
 3758 0247 02       		.uleb128 0x2
 3759 0248 18       		.uleb128 0x18
 3760 0249 00       		.byte	0
 3761 024a 00       		.byte	0
 3762 024b 2D       		.uleb128 0x2d
 3763 024c 0B       		.uleb128 0xb
 3764 024d 01       		.byte	0x1
 3765 024e 11       		.uleb128 0x11
 3766 024f 01       		.uleb128 0x1
 3767 0250 12       		.uleb128 0x12
 3768 0251 06       		.uleb128 0x6
 3769 0252 01       		.uleb128 0x1
 3770 0253 13       		.uleb128 0x13
 3771 0254 00       		.byte	0
 3772 0255 00       		.byte	0
 3773 0256 2E       		.uleb128 0x2e
 3774 0257 34       		.uleb128 0x34
 3775 0258 00       		.byte	0
 3776 0259 03       		.uleb128 0x3
 3777 025a 0E       		.uleb128 0xe
 3778 025b 3A       		.uleb128 0x3a
 3779 025c 0B       		.uleb128 0xb
 3780 025d 3B       		.uleb128 0x3b
 3781 025e 0B       		.uleb128 0xb
 3782 025f 49       		.uleb128 0x49
 3783 0260 13       		.uleb128 0x13
 3784 0261 00       		.byte	0
 3785 0262 00       		.byte	0
 3786 0263 2F       		.uleb128 0x2f
 3787 0264 34       		.uleb128 0x34
 3788 0265 00       		.byte	0
 3789 0266 03       		.uleb128 0x3
 3790 0267 0E       		.uleb128 0xe
 3791 0268 3A       		.uleb128 0x3a
 3792 0269 0B       		.uleb128 0xb
 3793 026a 3B       		.uleb128 0x3b
 3794 026b 05       		.uleb128 0x5
 3795 026c 49       		.uleb128 0x49
 3796 026d 13       		.uleb128 0x13
 3797 026e 02       		.uleb128 0x2
 3798 026f 17       		.uleb128 0x17
 3799 0270 00       		.byte	0
 3800 0271 00       		.byte	0
 3801 0272 30       		.uleb128 0x30
 3802 0273 0B       		.uleb128 0xb
 3803 0274 01       		.byte	0x1
 3804 0275 55       		.uleb128 0x55
 3805 0276 17       		.uleb128 0x17
 3806 0277 01       		.uleb128 0x1
ARM GAS  /tmp/cc1elrgw.s 			page 68


 3807 0278 13       		.uleb128 0x13
 3808 0279 00       		.byte	0
 3809 027a 00       		.byte	0
 3810 027b 31       		.uleb128 0x31
 3811 027c 34       		.uleb128 0x34
 3812 027d 00       		.byte	0
 3813 027e 03       		.uleb128 0x3
 3814 027f 08       		.uleb128 0x8
 3815 0280 3A       		.uleb128 0x3a
 3816 0281 0B       		.uleb128 0xb
 3817 0282 3B       		.uleb128 0x3b
 3818 0283 05       		.uleb128 0x5
 3819 0284 49       		.uleb128 0x49
 3820 0285 13       		.uleb128 0x13
 3821 0286 00       		.byte	0
 3822 0287 00       		.byte	0
 3823 0288 32       		.uleb128 0x32
 3824 0289 898201   		.uleb128 0x4109
 3825 028c 00       		.byte	0
 3826 028d 11       		.uleb128 0x11
 3827 028e 01       		.uleb128 0x1
 3828 028f 31       		.uleb128 0x31
 3829 0290 13       		.uleb128 0x13
 3830 0291 00       		.byte	0
 3831 0292 00       		.byte	0
 3832 0293 33       		.uleb128 0x33
 3833 0294 898201   		.uleb128 0x4109
 3834 0297 01       		.byte	0x1
 3835 0298 11       		.uleb128 0x11
 3836 0299 01       		.uleb128 0x1
 3837 029a 00       		.byte	0
 3838 029b 00       		.byte	0
 3839 029c 34       		.uleb128 0x34
 3840 029d 1D       		.uleb128 0x1d
 3841 029e 01       		.byte	0x1
 3842 029f 31       		.uleb128 0x31
 3843 02a0 13       		.uleb128 0x13
 3844 02a1 52       		.uleb128 0x52
 3845 02a2 01       		.uleb128 0x1
 3846 02a3 55       		.uleb128 0x55
 3847 02a4 17       		.uleb128 0x17
 3848 02a5 58       		.uleb128 0x58
 3849 02a6 0B       		.uleb128 0xb
 3850 02a7 59       		.uleb128 0x59
 3851 02a8 05       		.uleb128 0x5
 3852 02a9 00       		.byte	0
 3853 02aa 00       		.byte	0
 3854 02ab 35       		.uleb128 0x35
 3855 02ac 05       		.uleb128 0x5
 3856 02ad 00       		.byte	0
 3857 02ae 31       		.uleb128 0x31
 3858 02af 13       		.uleb128 0x13
 3859 02b0 02       		.uleb128 0x2
 3860 02b1 17       		.uleb128 0x17
 3861 02b2 00       		.byte	0
 3862 02b3 00       		.byte	0
 3863 02b4 36       		.uleb128 0x36
ARM GAS  /tmp/cc1elrgw.s 			page 69


 3864 02b5 0B       		.uleb128 0xb
 3865 02b6 01       		.byte	0x1
 3866 02b7 55       		.uleb128 0x55
 3867 02b8 17       		.uleb128 0x17
 3868 02b9 00       		.byte	0
 3869 02ba 00       		.byte	0
 3870 02bb 37       		.uleb128 0x37
 3871 02bc 34       		.uleb128 0x34
 3872 02bd 00       		.byte	0
 3873 02be 31       		.uleb128 0x31
 3874 02bf 13       		.uleb128 0x13
 3875 02c0 02       		.uleb128 0x2
 3876 02c1 18       		.uleb128 0x18
 3877 02c2 00       		.byte	0
 3878 02c3 00       		.byte	0
 3879 02c4 38       		.uleb128 0x38
 3880 02c5 34       		.uleb128 0x34
 3881 02c6 00       		.byte	0
 3882 02c7 31       		.uleb128 0x31
 3883 02c8 13       		.uleb128 0x13
 3884 02c9 02       		.uleb128 0x2
 3885 02ca 17       		.uleb128 0x17
 3886 02cb 00       		.byte	0
 3887 02cc 00       		.byte	0
 3888 02cd 39       		.uleb128 0x39
 3889 02ce 34       		.uleb128 0x34
 3890 02cf 00       		.byte	0
 3891 02d0 03       		.uleb128 0x3
 3892 02d1 0E       		.uleb128 0xe
 3893 02d2 3A       		.uleb128 0x3a
 3894 02d3 0B       		.uleb128 0xb
 3895 02d4 3B       		.uleb128 0x3b
 3896 02d5 0B       		.uleb128 0xb
 3897 02d6 49       		.uleb128 0x49
 3898 02d7 13       		.uleb128 0x13
 3899 02d8 3F       		.uleb128 0x3f
 3900 02d9 19       		.uleb128 0x19
 3901 02da 3C       		.uleb128 0x3c
 3902 02db 19       		.uleb128 0x19
 3903 02dc 00       		.byte	0
 3904 02dd 00       		.byte	0
 3905 02de 3A       		.uleb128 0x3a
 3906 02df 34       		.uleb128 0x34
 3907 02e0 00       		.byte	0
 3908 02e1 03       		.uleb128 0x3
 3909 02e2 0E       		.uleb128 0xe
 3910 02e3 3A       		.uleb128 0x3a
 3911 02e4 0B       		.uleb128 0xb
 3912 02e5 3B       		.uleb128 0x3b
 3913 02e6 05       		.uleb128 0x5
 3914 02e7 49       		.uleb128 0x49
 3915 02e8 13       		.uleb128 0x13
 3916 02e9 3F       		.uleb128 0x3f
 3917 02ea 19       		.uleb128 0x19
 3918 02eb 3C       		.uleb128 0x3c
 3919 02ec 19       		.uleb128 0x19
 3920 02ed 00       		.byte	0
ARM GAS  /tmp/cc1elrgw.s 			page 70


 3921 02ee 00       		.byte	0
 3922 02ef 3B       		.uleb128 0x3b
 3923 02f0 34       		.uleb128 0x34
 3924 02f1 00       		.byte	0
 3925 02f2 03       		.uleb128 0x3
 3926 02f3 0E       		.uleb128 0xe
 3927 02f4 3A       		.uleb128 0x3a
 3928 02f5 0B       		.uleb128 0xb
 3929 02f6 3B       		.uleb128 0x3b
 3930 02f7 0B       		.uleb128 0xb
 3931 02f8 49       		.uleb128 0x49
 3932 02f9 13       		.uleb128 0x13
 3933 02fa 3F       		.uleb128 0x3f
 3934 02fb 19       		.uleb128 0x19
 3935 02fc 02       		.uleb128 0x2
 3936 02fd 18       		.uleb128 0x18
 3937 02fe 00       		.byte	0
 3938 02ff 00       		.byte	0
 3939 0300 3C       		.uleb128 0x3c
 3940 0301 2E       		.uleb128 0x2e
 3941 0302 01       		.byte	0x1
 3942 0303 3F       		.uleb128 0x3f
 3943 0304 19       		.uleb128 0x19
 3944 0305 03       		.uleb128 0x3
 3945 0306 0E       		.uleb128 0xe
 3946 0307 3A       		.uleb128 0x3a
 3947 0308 0B       		.uleb128 0xb
 3948 0309 3B       		.uleb128 0x3b
 3949 030a 0B       		.uleb128 0xb
 3950 030b 27       		.uleb128 0x27
 3951 030c 19       		.uleb128 0x19
 3952 030d 49       		.uleb128 0x49
 3953 030e 13       		.uleb128 0x13
 3954 030f 3C       		.uleb128 0x3c
 3955 0310 19       		.uleb128 0x19
 3956 0311 01       		.uleb128 0x1
 3957 0312 13       		.uleb128 0x13
 3958 0313 00       		.byte	0
 3959 0314 00       		.byte	0
 3960 0315 3D       		.uleb128 0x3d
 3961 0316 2E       		.uleb128 0x2e
 3962 0317 01       		.byte	0x1
 3963 0318 3F       		.uleb128 0x3f
 3964 0319 19       		.uleb128 0x19
 3965 031a 03       		.uleb128 0x3
 3966 031b 0E       		.uleb128 0xe
 3967 031c 3A       		.uleb128 0x3a
 3968 031d 0B       		.uleb128 0xb
 3969 031e 3B       		.uleb128 0x3b
 3970 031f 05       		.uleb128 0x5
 3971 0320 27       		.uleb128 0x27
 3972 0321 19       		.uleb128 0x19
 3973 0322 49       		.uleb128 0x49
 3974 0323 13       		.uleb128 0x13
 3975 0324 3C       		.uleb128 0x3c
 3976 0325 19       		.uleb128 0x19
 3977 0326 01       		.uleb128 0x1
ARM GAS  /tmp/cc1elrgw.s 			page 71


 3978 0327 13       		.uleb128 0x13
 3979 0328 00       		.byte	0
 3980 0329 00       		.byte	0
 3981 032a 3E       		.uleb128 0x3e
 3982 032b 2E       		.uleb128 0x2e
 3983 032c 01       		.byte	0x1
 3984 032d 3F       		.uleb128 0x3f
 3985 032e 19       		.uleb128 0x19
 3986 032f 03       		.uleb128 0x3
 3987 0330 0E       		.uleb128 0xe
 3988 0331 3A       		.uleb128 0x3a
 3989 0332 0B       		.uleb128 0xb
 3990 0333 3B       		.uleb128 0x3b
 3991 0334 0B       		.uleb128 0xb
 3992 0335 27       		.uleb128 0x27
 3993 0336 19       		.uleb128 0x19
 3994 0337 3C       		.uleb128 0x3c
 3995 0338 19       		.uleb128 0x19
 3996 0339 01       		.uleb128 0x1
 3997 033a 13       		.uleb128 0x13
 3998 033b 00       		.byte	0
 3999 033c 00       		.byte	0
 4000 033d 3F       		.uleb128 0x3f
 4001 033e 2E       		.uleb128 0x2e
 4002 033f 01       		.byte	0x1
 4003 0340 3F       		.uleb128 0x3f
 4004 0341 19       		.uleb128 0x19
 4005 0342 03       		.uleb128 0x3
 4006 0343 0E       		.uleb128 0xe
 4007 0344 3A       		.uleb128 0x3a
 4008 0345 0B       		.uleb128 0xb
 4009 0346 3B       		.uleb128 0x3b
 4010 0347 05       		.uleb128 0x5
 4011 0348 27       		.uleb128 0x27
 4012 0349 19       		.uleb128 0x19
 4013 034a 3C       		.uleb128 0x3c
 4014 034b 19       		.uleb128 0x19
 4015 034c 01       		.uleb128 0x1
 4016 034d 13       		.uleb128 0x13
 4017 034e 00       		.byte	0
 4018 034f 00       		.byte	0
 4019 0350 40       		.uleb128 0x40
 4020 0351 2E       		.uleb128 0x2e
 4021 0352 01       		.byte	0x1
 4022 0353 3F       		.uleb128 0x3f
 4023 0354 19       		.uleb128 0x19
 4024 0355 03       		.uleb128 0x3
 4025 0356 0E       		.uleb128 0xe
 4026 0357 3A       		.uleb128 0x3a
 4027 0358 0B       		.uleb128 0xb
 4028 0359 3B       		.uleb128 0x3b
 4029 035a 05       		.uleb128 0x5
 4030 035b 27       		.uleb128 0x27
 4031 035c 19       		.uleb128 0x19
 4032 035d 49       		.uleb128 0x49
 4033 035e 13       		.uleb128 0x13
 4034 035f 3C       		.uleb128 0x3c
ARM GAS  /tmp/cc1elrgw.s 			page 72


 4035 0360 19       		.uleb128 0x19
 4036 0361 00       		.byte	0
 4037 0362 00       		.byte	0
 4038 0363 00       		.byte	0
 4039              		.section	.debug_loc,"",%progbits
 4040              	.Ldebug_loc0:
 4041              	.LLST0:
 4042 0000 00000000 		.4byte	.LVL0
 4043 0004 1C000000 		.4byte	.LVL1
 4044 0008 0100     		.2byte	0x1
 4045 000a 50       		.byte	0x50
 4046 000b 1C000000 		.4byte	.LVL1
 4047 000f 40000000 		.4byte	.LFE121
 4048 0013 0100     		.2byte	0x1
 4049 0015 53       		.byte	0x53
 4050 0016 00000000 		.4byte	0
 4051 001a 00000000 		.4byte	0
 4052              	.LLST1:
 4053 001e 00000000 		.4byte	.LVL3
 4054 0022 06000000 		.4byte	.LVL4
 4055 0026 0100     		.2byte	0x1
 4056 0028 50       		.byte	0x50
 4057 0029 06000000 		.4byte	.LVL4
 4058 002d 4A000000 		.4byte	.LFE119
 4059 0031 0400     		.2byte	0x4
 4060 0033 F3       		.byte	0xf3
 4061 0034 01       		.uleb128 0x1
 4062 0035 50       		.byte	0x50
 4063 0036 9F       		.byte	0x9f
 4064 0037 00000000 		.4byte	0
 4065 003b 00000000 		.4byte	0
 4066              	.LLST2:
 4067 003f 00000000 		.4byte	.LVL3
 4068 0043 10000000 		.4byte	.LVL5
 4069 0047 0100     		.2byte	0x1
 4070 0049 51       		.byte	0x51
 4071 004a 10000000 		.4byte	.LVL5
 4072 004e 1A000000 		.4byte	.LVL8
 4073 0052 0100     		.2byte	0x1
 4074 0054 54       		.byte	0x54
 4075 0055 1A000000 		.4byte	.LVL8
 4076 0059 46000000 		.4byte	.LVL13
 4077 005d 0400     		.2byte	0x4
 4078 005f F3       		.byte	0xf3
 4079 0060 01       		.uleb128 0x1
 4080 0061 51       		.byte	0x51
 4081 0062 9F       		.byte	0x9f
 4082 0063 46000000 		.4byte	.LVL13
 4083 0067 4A000000 		.4byte	.LFE119
 4084 006b 0100     		.2byte	0x1
 4085 006d 54       		.byte	0x54
 4086 006e 00000000 		.4byte	0
 4087 0072 00000000 		.4byte	0
 4088              	.LLST3:
 4089 0076 18000000 		.4byte	.LVL7
 4090 007a 40000000 		.4byte	.LVL12
 4091 007e 0100     		.2byte	0x1
ARM GAS  /tmp/cc1elrgw.s 			page 73


 4092 0080 54       		.byte	0x54
 4093 0081 00000000 		.4byte	0
 4094 0085 00000000 		.4byte	0
 4095              	.LLST4:
 4096 0089 00000000 		.4byte	.LVL14
 4097 008d 1A000000 		.4byte	.LVL15
 4098 0091 0100     		.2byte	0x1
 4099 0093 50       		.byte	0x50
 4100 0094 1A000000 		.4byte	.LVL15
 4101 0098 62000000 		.4byte	.LVL20
 4102 009c 0100     		.2byte	0x1
 4103 009e 54       		.byte	0x54
 4104 009f 62000000 		.4byte	.LVL20
 4105 00a3 14020000 		.4byte	.LFE122
 4106 00a7 0400     		.2byte	0x4
 4107 00a9 F3       		.byte	0xf3
 4108 00aa 01       		.uleb128 0x1
 4109 00ab 50       		.byte	0x50
 4110 00ac 9F       		.byte	0x9f
 4111 00ad 00000000 		.4byte	0
 4112 00b1 00000000 		.4byte	0
 4113              	.LLST5:
 4114 00b5 30000000 		.4byte	.LVL17
 4115 00b9 46000000 		.4byte	.LVL19
 4116 00bd 0100     		.2byte	0x1
 4117 00bf 53       		.byte	0x53
 4118 00c0 00000000 		.4byte	0
 4119 00c4 00000000 		.4byte	0
 4120              	.LLST6:
 4121 00c8 20010000 		.4byte	.LVL30
 4122 00cc 2A010000 		.4byte	.LVL31
 4123 00d0 0100     		.2byte	0x1
 4124 00d2 54       		.byte	0x54
 4125 00d3 36010000 		.4byte	.LVL33
 4126 00d7 3C010000 		.4byte	.LVL34
 4127 00db 0100     		.2byte	0x1
 4128 00dd 50       		.byte	0x50
 4129 00de 3C010000 		.4byte	.LVL34
 4130 00e2 76010000 		.4byte	.LVL40
 4131 00e6 0100     		.2byte	0x1
 4132 00e8 54       		.byte	0x54
 4133 00e9 FA010000 		.4byte	.LVL55
 4134 00ed 14020000 		.4byte	.LFE122
 4135 00f1 0100     		.2byte	0x1
 4136 00f3 54       		.byte	0x54
 4137 00f4 00000000 		.4byte	0
 4138 00f8 00000000 		.4byte	0
 4139              	.LLST7:
 4140 00fc BC010000 		.4byte	.LVL48
 4141 0100 BF010000 		.4byte	.LVL49-1
 4142 0104 0100     		.2byte	0x1
 4143 0106 53       		.byte	0x53
 4144 0107 00000000 		.4byte	0
 4145 010b 00000000 		.4byte	0
 4146              	.LLST8:
 4147 010f 76010000 		.4byte	.LVL40
 4148 0113 FA010000 		.4byte	.LVL55
ARM GAS  /tmp/cc1elrgw.s 			page 74


 4149 0117 0600     		.2byte	0x6
 4150 0119 03       		.byte	0x3
 4151 011a 00000000 		.4byte	thisif.7460
 4152 011e 9F       		.byte	0x9f
 4153 011f 00000000 		.4byte	0
 4154 0123 00000000 		.4byte	0
 4155              	.LLST9:
 4156 0127 96010000 		.4byte	.LVL43
 4157 012b 9C010000 		.4byte	.LVL44
 4158 012f 0100     		.2byte	0x1
 4159 0131 50       		.byte	0x50
 4160 0132 9C010000 		.4byte	.LVL44
 4161 0136 E6010000 		.4byte	.LVL52
 4162 013a 0100     		.2byte	0x1
 4163 013c 55       		.byte	0x55
 4164 013d E6010000 		.4byte	.LVL52
 4165 0141 E8010000 		.4byte	.LVL53
 4166 0145 0100     		.2byte	0x1
 4167 0147 50       		.byte	0x50
 4168 0148 E8010000 		.4byte	.LVL53
 4169 014c FA010000 		.4byte	.LVL55
 4170 0150 0100     		.2byte	0x1
 4171 0152 55       		.byte	0x55
 4172 0153 00000000 		.4byte	0
 4173 0157 00000000 		.4byte	0
 4174              	.LLST10:
 4175 015b 9C010000 		.4byte	.LVL44
 4176 015f E6010000 		.4byte	.LVL52
 4177 0163 0100     		.2byte	0x1
 4178 0165 54       		.byte	0x54
 4179 0166 00000000 		.4byte	0
 4180 016a 00000000 		.4byte	0
 4181              	.LLST11:
 4182 016e 8A010000 		.4byte	.LVL42
 4183 0172 95010000 		.4byte	.LVL43-1
 4184 0176 0300     		.2byte	0x3
 4185 0178 91       		.byte	0x91
 4186 0179 A47F     		.sleb128 -92
 4187 017b 00000000 		.4byte	0
 4188 017f 00000000 		.4byte	0
 4189              	.LLST12:
 4190 0183 50010000 		.4byte	.LVL36
 4191 0187 5A010000 		.4byte	.LVL37
 4192 018b 0100     		.2byte	0x1
 4193 018d 50       		.byte	0x50
 4194 018e 5A010000 		.4byte	.LVL37
 4195 0192 68010000 		.4byte	.LVL38
 4196 0196 0100     		.2byte	0x1
 4197 0198 52       		.byte	0x52
 4198 0199 FA010000 		.4byte	.LVL55
 4199 019d FE010000 		.4byte	.LVL56
 4200 01a1 0100     		.2byte	0x1
 4201 01a3 50       		.byte	0x50
 4202 01a4 FE010000 		.4byte	.LVL56
 4203 01a8 0D020000 		.4byte	.LVL57-1
 4204 01ac 0100     		.2byte	0x1
 4205 01ae 52       		.byte	0x52
ARM GAS  /tmp/cc1elrgw.s 			page 75


 4206 01af 00000000 		.4byte	0
 4207 01b3 00000000 		.4byte	0
 4208              		.section	.debug_aranges,"",%progbits
 4209 0000 2C000000 		.4byte	0x2c
 4210 0004 0200     		.2byte	0x2
 4211 0006 00000000 		.4byte	.Ldebug_info0
 4212 000a 04       		.byte	0x4
 4213 000b 00       		.byte	0
 4214 000c 0000     		.2byte	0
 4215 000e 0000     		.2byte	0
 4216 0010 00000000 		.4byte	.LFB121
 4217 0014 40000000 		.4byte	.LFE121-.LFB121
 4218 0018 00000000 		.4byte	.LFB119
 4219 001c 4A000000 		.4byte	.LFE119-.LFB119
 4220 0020 00000000 		.4byte	.LFB122
 4221 0024 14020000 		.4byte	.LFE122-.LFB122
 4222 0028 00000000 		.4byte	0
 4223 002c 00000000 		.4byte	0
 4224              		.section	.debug_ranges,"",%progbits
 4225              	.Ldebug_ranges0:
 4226 0000 06000000 		.4byte	.LBB4
 4227 0004 0A000000 		.4byte	.LBE4
 4228 0008 16000000 		.4byte	.LBB8
 4229 000c 1A000000 		.4byte	.LBE8
 4230 0010 2C000000 		.4byte	.LBB9
 4231 0014 36000000 		.4byte	.LBE9
 4232 0018 00000000 		.4byte	0
 4233 001c 00000000 		.4byte	0
 4234 0020 22010000 		.4byte	.LBB19
 4235 0024 28010000 		.4byte	.LBE19
 4236 0028 6E010000 		.4byte	.LBB34
 4237 002c 74010000 		.4byte	.LBE34
 4238 0030 76010000 		.4byte	.LBB35
 4239 0034 FA010000 		.4byte	.LBE35
 4240 0038 00000000 		.4byte	0
 4241 003c 00000000 		.4byte	0
 4242 0040 22010000 		.4byte	.LBB20
 4243 0044 28010000 		.4byte	.LBE20
 4244 0048 6E010000 		.4byte	.LBB21
 4245 004c 74010000 		.4byte	.LBE21
 4246 0050 B4010000 		.4byte	.LBB27
 4247 0054 B6010000 		.4byte	.LBE27
 4248 0058 B8010000 		.4byte	.LBB29
 4249 005c BA010000 		.4byte	.LBE29
 4250 0060 BC010000 		.4byte	.LBB31
 4251 0064 E6010000 		.4byte	.LBE31
 4252 0068 00000000 		.4byte	0
 4253 006c 00000000 		.4byte	0
 4254 0070 76010000 		.4byte	.LBB22
 4255 0074 B4010000 		.4byte	.LBE22
 4256 0078 B6010000 		.4byte	.LBB28
 4257 007c B8010000 		.4byte	.LBE28
 4258 0080 BA010000 		.4byte	.LBB30
 4259 0084 BC010000 		.4byte	.LBE30
 4260 0088 E6010000 		.4byte	.LBB32
 4261 008c FA010000 		.4byte	.LBE32
 4262 0090 00000000 		.4byte	0
ARM GAS  /tmp/cc1elrgw.s 			page 76


 4263 0094 00000000 		.4byte	0
 4264 0098 38010000 		.4byte	.LBB33
 4265 009c 6C010000 		.4byte	.LBE33
 4266 00a0 FA010000 		.4byte	.LBB36
 4267 00a4 14020000 		.4byte	.LBE36
 4268 00a8 00000000 		.4byte	0
 4269 00ac 00000000 		.4byte	0
 4270 00b0 00000000 		.4byte	.LFB121
 4271 00b4 40000000 		.4byte	.LFE121
 4272 00b8 00000000 		.4byte	.LFB119
 4273 00bc 4A000000 		.4byte	.LFE119
 4274 00c0 00000000 		.4byte	.LFB122
 4275 00c4 14020000 		.4byte	.LFE122
 4276 00c8 00000000 		.4byte	0
 4277 00cc 00000000 		.4byte	0
 4278              		.section	.debug_line,"",%progbits
 4279              	.Ldebug_line0:
 4280 0000 2D040000 		.section	.debug_str,"MS",%progbits,1
 4280      02001603 
 4280      00000201 
 4280      FB0E0D00 
 4280      01010101 
 4281              	.LASF16:
 4282 0000 696E7438 		.ascii	"int8_t\000"
 4282      5F7400
 4283              	.LASF179:
 4284 0007 70726F74 		.ascii	"proterr\000"
 4284      65727200 
 4285              	.LASF1:
 4286 000f 73697A65 		.ascii	"size_t\000"
 4286      5F7400
 4287              	.LASF60:
 4288 0016 73697A65 		.ascii	"sizetype\000"
 4288      74797065 
 4288      00
 4289              	.LASF32:
 4290 001f 73797374 		.ascii	"systime_t\000"
 4290      696D655F 
 4290      7400
 4291              	.LASF212:
 4292 0029 6574685F 		.ascii	"eth_addr\000"
 4292      61646472 
 4292      00
 4293              	.LASF38:
 4294 0032 705F6374 		.ascii	"p_ctx\000"
 4294      7800
 4295              	.LASF28:
 4296 0038 74707269 		.ascii	"tprio_t\000"
 4296      6F5F7400 
 4297              	.LASF158:
 4298 0040 4D454D50 		.ascii	"MEMP_TCP_PCB\000"
 4298      5F544350 
 4298      5F504342 
 4298      00
 4299              	.LASF248:
 4300 004d 63685468 		.ascii	"chThdSetPriority\000"
 4300      64536574 
ARM GAS  /tmp/cc1elrgw.s 			page 77


 4300      5072696F 
 4300      72697479 
 4300      00
 4301              	.LASF130:
 4302 005e 73385F74 		.ascii	"s8_t\000"
 4302      00
 4303              	.LASF48:
 4304 0063 705F6D73 		.ascii	"p_msgqueue\000"
 4304      67717565 
 4304      756500
 4305              	.LASF70:
 4306 006e 725F6374 		.ascii	"r_ctx\000"
 4306      7800
 4307              	.LASF19:
 4308 0074 696E7433 		.ascii	"int32_t\000"
 4308      325F7400 
 4309              	.LASF61:
 4310 007c 76746675 		.ascii	"vtfunc_t\000"
 4310      6E635F74 
 4310      00
 4311              	.LASF167:
 4312 0085 4D454D50 		.ascii	"MEMP_SYS_TIMEOUT\000"
 4312      5F535953 
 4312      5F54494D 
 4312      454F5554 
 4312      00
 4313              	.LASF178:
 4314 0096 72746572 		.ascii	"rterr\000"
 4314      7200
 4315              	.LASF221:
 4316 009c 65746868 		.ascii	"ethhdr\000"
 4316      647200
 4317              	.LASF105:
 4318 00a3 70687961 		.ascii	"phyaddr\000"
 4318      64647200 
 4319              	.LASF86:
 4320 00ab 656C5F66 		.ascii	"el_flags\000"
 4320      6C616773 
 4320      00
 4321              	.LASF100:
 4322 00b4 636F6E66 		.ascii	"config\000"
 4322      696700
 4323              	.LASF99:
 4324 00bb 73746174 		.ascii	"state\000"
 4324      6500
 4325              	.LASF225:
 4326 00c1 45544844 		.ascii	"ETHD1\000"
 4326      3100
 4327              	.LASF154:
 4328 00c7 74797065 		.ascii	"type\000"
 4328      00
 4329              	.LASF94:
 4330 00cc 4D41435F 		.ascii	"MAC_UNINIT\000"
 4330      554E494E 
 4330      495400
 4331              	.LASF147:
 4332 00d7 50425546 		.ascii	"PBUF_REF\000"
ARM GAS  /tmp/cc1elrgw.s 			page 78


 4332      5F524546 
 4332      00
 4333              	.LASF195:
 4334 00e0 6D656D70 		.ascii	"memp\000"
 4334      00
 4335              	.LASF192:
 4336 00e5 65746861 		.ascii	"etharp\000"
 4336      727000
 4337              	.LASF80:
 4338 00ec 6D5F6F77 		.ascii	"m_owner\000"
 4338      6E657200 
 4339              	.LASF67:
 4340 00f4 76745F70 		.ascii	"vt_par\000"
 4340      617200
 4341              	.LASF90:
 4342 00fb 65786974 		.ascii	"exitcode\000"
 4342      636F6465 
 4342      00
 4343              	.LASF4:
 4344 0104 5F5F7569 		.ascii	"__uint8_t\000"
 4344      6E74385F 
 4344      7400
 4345              	.LASF92:
 4346 010e 65776D61 		.ascii	"ewmask\000"
 4346      736B00
 4347              	.LASF39:
 4348 0115 705F6E65 		.ascii	"p_newer\000"
 4348      77657200 
 4349              	.LASF10:
 4350 011d 6C6F6E67 		.ascii	"long int\000"
 4350      20696E74 
 4350      00
 4351              	.LASF35:
 4352 0126 705F6E65 		.ascii	"p_next\000"
 4352      787400
 4353              	.LASF230:
 4354 012d 6C776970 		.ascii	"lwip_htons\000"
 4354      5F68746F 
 4354      6E7300
 4355              	.LASF36:
 4356 0138 705F7072 		.ascii	"p_prev\000"
 4356      657600
 4357              	.LASF216:
 4358 013f 6C6F775F 		.ascii	"low_level_output\000"
 4358      6C657665 
 4358      6C5F6F75 
 4358      74707574 
 4358      00
 4359              	.LASF25:
 4360 0150 74737461 		.ascii	"tstate_t\000"
 4360      74655F74 
 4360      00
 4361              	.LASF126:
 4362 0159 65745F65 		.ascii	"et_es\000"
 4362      7300
 4363              	.LASF51:
 4364 015f 705F6D74 		.ascii	"p_mtxlist\000"
ARM GAS  /tmp/cc1elrgw.s 			page 79


 4364      786C6973 
 4364      7400
 4365              	.LASF56:
 4366 0169 72656761 		.ascii	"regarm_t\000"
 4366      726D5F74 
 4366      00
 4367              	.LASF183:
 4368 0172 61766169 		.ascii	"avail\000"
 4368      6C00
 4369              	.LASF118:
 4370 0178 6D61635F 		.ascii	"mac_address\000"
 4370      61646472 
 4370      65737300 
 4371              	.LASF203:
 4372 0184 6C696E6B 		.ascii	"linkoutput\000"
 4372      6F757470 
 4372      757400
 4373              	.LASF204:
 4374 018f 68776164 		.ascii	"hwaddr_len\000"
 4374      64725F6C 
 4374      656E00
 4375              	.LASF169:
 4376 019a 4D454D50 		.ascii	"MEMP_PBUF_POOL\000"
 4376      5F504255 
 4376      465F504F 
 4376      4F4C00
 4377              	.LASF3:
 4378 01a9 7369676E 		.ascii	"signed char\000"
 4378      65642063 
 4378      68617200 
 4379              	.LASF45:
 4380 01b5 705F7072 		.ascii	"p_preempt\000"
 4380      65656D70 
 4380      7400
 4381              	.LASF17:
 4382 01bf 75696E74 		.ascii	"uint8_t\000"
 4382      385F7400 
 4383              	.LASF229:
 4384 01c7 6D61635F 		.ascii	"mac_lld_write_transmit_descriptor\000"
 4384      6C6C645F 
 4384      77726974 
 4384      655F7472 
 4384      616E736D 
 4385              	.LASF234:
 4386 01e9 6D61635F 		.ascii	"mac_lld_read_receive_descriptor\000"
 4386      6C6C645F 
 4386      72656164 
 4386      5F726563 
 4386      65697665 
 4387              	.LASF30:
 4388 0209 6576656E 		.ascii	"eventmask_t\000"
 4388      746D6173 
 4388      6B5F7400 
 4389              	.LASF59:
 4390 0215 636F6E74 		.ascii	"context\000"
 4390      65787400 
 4391              	.LASF250:
ARM GAS  /tmp/cc1elrgw.s 			page 80


 4392 021d 2E2E2F2E 		.ascii	"../../os/various/lwip_bindings/lwipthread.c\000"
 4392      2E2F6F73 
 4392      2F766172 
 4392      696F7573 
 4392      2F6C7769 
 4393              	.LASF5:
 4394 0249 756E7369 		.ascii	"unsigned char\000"
 4394      676E6564 
 4394      20636861 
 4394      7200
 4395              	.LASF112:
 4396 0257 73746D33 		.ascii	"stm32_eth_rx_descriptor_t\000"
 4396      325F6574 
 4396      685F7278 
 4396      5F646573 
 4396      63726970 
 4397              	.LASF64:
 4398 0271 76745F70 		.ascii	"vt_prev\000"
 4398      72657600 
 4399              	.LASF176:
 4400 0279 6C656E65 		.ascii	"lenerr\000"
 4400      727200
 4401              	.LASF71:
 4402 0280 725F6E65 		.ascii	"r_newer\000"
 4402      77657200 
 4403              	.LASF163:
 4404 0288 4D454D50 		.ascii	"MEMP_NETBUF\000"
 4404      5F4E4554 
 4404      42554600 
 4405              	.LASF174:
 4406 0294 64726F70 		.ascii	"drop\000"
 4406      00
 4407              	.LASF199:
 4408 0299 6E657469 		.ascii	"netif_init_fn\000"
 4408      665F696E 
 4408      69745F66 
 4408      6E00
 4409              	.LASF23:
 4410 02a7 5F426F6F 		.ascii	"_Bool\000"
 4410      6C00
 4411              	.LASF148:
 4412 02ad 50425546 		.ascii	"PBUF_POOL\000"
 4412      5F504F4F 
 4412      4C00
 4413              	.LASF236:
 4414 02b7 6D616352 		.ascii	"macReleaseReceiveDescriptor\000"
 4414      656C6561 
 4414      73655265 
 4414      63656976 
 4414      65446573 
 4415              	.LASF93:
 4416 02d3 63686172 		.ascii	"char\000"
 4416      00
 4417              	.LASF202:
 4418 02d8 6F757470 		.ascii	"output\000"
 4418      757400
 4419              	.LASF150:
ARM GAS  /tmp/cc1elrgw.s 			page 81


 4420 02df 70627566 		.ascii	"pbuf\000"
 4420      00
 4421              	.LASF106:
 4422 02e4 72787074 		.ascii	"rxptr\000"
 4422      7200
 4423              	.LASF37:
 4424 02ea 705F7072 		.ascii	"p_prio\000"
 4424      696F00
 4425              	.LASF102:
 4426 02f1 72647365 		.ascii	"rdsem\000"
 4426      6D00
 4427              	.LASF156:
 4428 02f7 4D454D50 		.ascii	"MEMP_RAW_PCB\000"
 4428      5F524157 
 4428      5F504342 
 4428      00
 4429              	.LASF7:
 4430 0304 5F5F7569 		.ascii	"__uint16_t\000"
 4430      6E743136 
 4430      5F7400
 4431              	.LASF91:
 4432 030f 77746F62 		.ascii	"wtobjp\000"
 4432      6A7000
 4433              	.LASF232:
 4434 0316 6D616357 		.ascii	"macWaitReceiveDescriptor\000"
 4434      61697452 
 4434      65636569 
 4434      76654465 
 4434      73637269 
 4435              	.LASF103:
 4436 032f 72646576 		.ascii	"rdevent\000"
 4436      656E7400 
 4437              	.LASF155:
 4438 0337 666C6167 		.ascii	"flags\000"
 4438      7300
 4439              	.LASF252:
 4440 033d 6C6F775F 		.ascii	"low_level_init\000"
 4440      6C657665 
 4440      6C5F696E 
 4440      697400
 4441              	.LASF57:
 4442 034c 73746B61 		.ascii	"stkalign_t\000"
 4442      6C69676E 
 4442      5F7400
 4443              	.LASF138:
 4444 0357 6D656D5F 		.ascii	"mem_size_t\000"
 4444      73697A65 
 4444      5F7400
 4445              	.LASF213:
 4446 0362 6574685F 		.ascii	"eth_hdr\000"
 4446      68647200 
 4447              	.LASF196:
 4448 036a 69705F61 		.ascii	"ip_addr\000"
 4448      64647200 
 4449              	.LASF201:
 4450 0372 696E7075 		.ascii	"input\000"
 4450      7400
ARM GAS  /tmp/cc1elrgw.s 			page 82


 4451              	.LASF217:
 4452 0378 74686973 		.ascii	"thisif\000"
 4452      696600
 4453              	.LASF181:
 4454 037f 63616368 		.ascii	"cachehit\000"
 4454      65686974 
 4454      00
 4455              	.LASF177:
 4456 0388 6D656D65 		.ascii	"memerr\000"
 4456      727200
 4457              	.LASF190:
 4458 038f 73746174 		.ascii	"stats_\000"
 4458      735F00
 4459              	.LASF33:
 4460 0396 636E745F 		.ascii	"cnt_t\000"
 4460      7400
 4461              	.LASF215:
 4462 039c 65746865 		.ascii	"ethernetif_init\000"
 4462      726E6574 
 4462      69665F69 
 4462      6E697400 
 4463              	.LASF238:
 4464 03ac 74637069 		.ascii	"tcpip_callback_with_block\000"
 4464      705F6361 
 4464      6C6C6261 
 4464      636B5F77 
 4464      6974685F 
 4465              	.LASF66:
 4466 03c6 76745F66 		.ascii	"vt_func\000"
 4466      756E6300 
 4467              	.LASF165:
 4468 03ce 4D454D50 		.ascii	"MEMP_TCPIP_MSG_API\000"
 4468      5F544350 
 4468      49505F4D 
 4468      53475F41 
 4468      504900
 4469              	.LASF164:
 4470 03e1 4D454D50 		.ascii	"MEMP_NETCONN\000"
 4470      5F4E4554 
 4470      434F4E4E 
 4470      00
 4471              	.LASF58:
 4472 03ee 696E7463 		.ascii	"intctx\000"
 4472      747800
 4473              	.LASF50:
 4474 03f5 705F6570 		.ascii	"p_epending\000"
 4474      656E6469 
 4474      6E6700
 4475              	.LASF133:
 4476 0400 6C776970 		.ascii	"lwipthread_opts\000"
 4476      74687265 
 4476      61645F6F 
 4476      70747300 
 4477              	.LASF228:
 4478 0410 6D616357 		.ascii	"macWaitTransmitDescriptor\000"
 4478      61697454 
 4478      72616E73 
ARM GAS  /tmp/cc1elrgw.s 			page 83


 4478      6D697444 
 4478      65736372 
 4479              	.LASF134:
 4480 042a 6D616361 		.ascii	"macaddress\000"
 4480      64647265 
 4480      737300
 4481              	.LASF88:
 4482 0435 65735F6E 		.ascii	"es_next\000"
 4482      65787400 
 4483              	.LASF243:
 4484 043d 6E657469 		.ascii	"netif_set_default\000"
 4484      665F7365 
 4484      745F6465 
 4484      6661756C 
 4484      7400
 4485              	.LASF87:
 4486 044f 4576656E 		.ascii	"EventSource\000"
 4486      74536F75 
 4486      72636500 
 4487              	.LASF14:
 4488 045b 5F5F7569 		.ascii	"__uint64_t\000"
 4488      6E743634 
 4488      5F7400
 4489              	.LASF12:
 4490 0466 6C6F6E67 		.ascii	"long unsigned int\000"
 4490      20756E73 
 4490      69676E65 
 4490      6420696E 
 4490      7400
 4491              	.LASF200:
 4492 0478 6E657469 		.ascii	"netif\000"
 4492      6600
 4493              	.LASF135:
 4494 047e 61646472 		.ascii	"address\000"
 4494      65737300 
 4495              	.LASF146:
 4496 0486 50425546 		.ascii	"PBUF_ROM\000"
 4496      5F524F4D 
 4496      00
 4497              	.LASF205:
 4498 048f 68776164 		.ascii	"hwaddr\000"
 4498      647200
 4499              	.LASF191:
 4500 0496 6C696E6B 		.ascii	"link\000"
 4500      00
 4501              	.LASF83:
 4502 049b 656C5F6E 		.ascii	"el_next\000"
 4502      65787400 
 4503              	.LASF152:
 4504 04a3 7061796C 		.ascii	"payload\000"
 4504      6F616400 
 4505              	.LASF210:
 4506 04ab 74637069 		.ascii	"tcpip_init_done_fn\000"
 4506      705F696E 
 4506      69745F64 
 4506      6F6E655F 
 4506      666E00
ARM GAS  /tmp/cc1elrgw.s 			page 84


 4507              	.LASF98:
 4508 04be 4D414344 		.ascii	"MACDriver\000"
 4508      72697665 
 4508      7200
 4509              	.LASF172:
 4510 04c8 786D6974 		.ascii	"xmit\000"
 4510      00
 4511              	.LASF11:
 4512 04cd 5F5F7569 		.ascii	"__uint32_t\000"
 4512      6E743332 
 4512      5F7400
 4513              	.LASF128:
 4514 04d8 45765469 		.ascii	"EvTimer\000"
 4514      6D657200 
 4515              	.LASF78:
 4516 04e0 4D757465 		.ascii	"Mutex\000"
 4516      7800
 4517              	.LASF13:
 4518 04e6 6C6F6E67 		.ascii	"long long int\000"
 4518      206C6F6E 
 4518      6720696E 
 4518      7400
 4519              	.LASF79:
 4520 04f4 6D5F7175 		.ascii	"m_queue\000"
 4520      65756500 
 4521              	.LASF63:
 4522 04fc 76745F6E 		.ascii	"vt_next\000"
 4522      65787400 
 4523              	.LASF96:
 4524 0504 4D41435F 		.ascii	"MAC_ACTIVE\000"
 4524      41435449 
 4524      564500
 4525              	.LASF136:
 4526 050f 6E65746D 		.ascii	"netmask\000"
 4526      61736B00 
 4527              	.LASF220:
 4528 0517 6D61736B 		.ascii	"mask\000"
 4528      00
 4529              	.LASF188:
 4530 051c 6D757465 		.ascii	"mutex\000"
 4530      7800
 4531              	.LASF224:
 4532 0522 49544D5F 		.ascii	"ITM_RxBuffer\000"
 4532      52784275 
 4532      66666572 
 4532      00
 4533              	.LASF186:
 4534 052f 73746174 		.ascii	"stats_syselem\000"
 4534      735F7379 
 4534      73656C65 
 4534      6D00
 4535              	.LASF171:
 4536 053d 73746174 		.ascii	"stats_proto\000"
 4536      735F7072 
 4536      6F746F00 
 4537              	.LASF247:
 4538 0549 63684576 		.ascii	"chEvtAddEvents\000"
ARM GAS  /tmp/cc1elrgw.s 			page 85


 4538      74416464 
 4538      4576656E 
 4538      747300
 4539              	.LASF254:
 4540 0558 6C776970 		.ascii	"lwip_thread\000"
 4540      5F746872 
 4540      65616400 
 4541              	.LASF222:
 4542 0564 63757272 		.ascii	"current_link_status\000"
 4542      656E745F 
 4542      6C696E6B 
 4542      5F737461 
 4542      74757300 
 4543              	.LASF47:
 4544 0578 705F7761 		.ascii	"p_waiting\000"
 4544      6974696E 
 4544      6700
 4545              	.LASF197:
 4546 0582 61646472 		.ascii	"addr\000"
 4546      00
 4547              	.LASF43:
 4548 0587 705F666C 		.ascii	"p_flags\000"
 4548      61677300 
 4549              	.LASF127:
 4550 058f 65745F69 		.ascii	"et_interval\000"
 4550      6E746572 
 4550      76616C00 
 4551              	.LASF0:
 4552 059b 756E7369 		.ascii	"unsigned int\000"
 4552      676E6564 
 4552      20696E74 
 4552      00
 4553              	.LASF193:
 4554 05a8 69705F66 		.ascii	"ip_frag\000"
 4554      72616700 
 4555              	.LASF219:
 4556 05b0 6F707473 		.ascii	"opts\000"
 4556      00
 4557              	.LASF131:
 4558 05b5 7531365F 		.ascii	"u16_t\000"
 4558      7400
 4559              	.LASF53:
 4560 05bb 705F6D70 		.ascii	"p_mpool\000"
 4560      6F6F6C00 
 4561              	.LASF189:
 4562 05c3 6D626F78 		.ascii	"mbox\000"
 4562      00
 4563              	.LASF141:
 4564 05c8 50425546 		.ascii	"PBUF_IP\000"
 4564      5F495000 
 4565              	.LASF44:
 4566 05d0 705F7265 		.ascii	"p_refs\000"
 4566      667300
 4567              	.LASF113:
 4568 05d7 74646573 		.ascii	"tdes0\000"
 4568      3000
 4569              	.LASF114:
ARM GAS  /tmp/cc1elrgw.s 			page 86


 4570 05dd 74646573 		.ascii	"tdes1\000"
 4570      3100
 4571              	.LASF115:
 4572 05e3 74646573 		.ascii	"tdes2\000"
 4572      3200
 4573              	.LASF116:
 4574 05e9 74646573 		.ascii	"tdes3\000"
 4574      3300
 4575              	.LASF207:
 4576 05ef 6E657469 		.ascii	"netif_input_fn\000"
 4576      665F696E 
 4576      7075745F 
 4576      666E00
 4577              	.LASF249:
 4578 05fe 474E5520 		.ascii	"GNU C 4.8.2 -mcpu=cortex-m4 -mno-thumb-interwork -m"
 4578      4320342E 
 4578      382E3220 
 4578      2D6D6370 
 4578      753D636F 
 4579 0631 7468756D 		.ascii	"thumb -ggdb -O2 -std=gnu99 -fomit-frame-pointer -fa"
 4579      62202D67 
 4579      67646220 
 4579      2D4F3220 
 4579      2D737464 
 4580 0664 6C69676E 		.ascii	"lign-functions=16 -ffunction-sections -fdata-sectio"
 4580      2D66756E 
 4580      6374696F 
 4580      6E733D31 
 4580      36202D66 
 4581 0697 6E73202D 		.ascii	"ns -fno-common\000"
 4581      666E6F2D 
 4581      636F6D6D 
 4581      6F6E00
 4582              	.LASF125:
 4583 06a6 65745F76 		.ascii	"et_vt\000"
 4583      7400
 4584              	.LASF55:
 4585 06ac 54687265 		.ascii	"ThreadsList\000"
 4585      6164734C 
 4585      69737400 
 4586              	.LASF149:
 4587 06b8 70627566 		.ascii	"pbuf_type\000"
 4587      5F747970 
 4587      6500
 4588              	.LASF120:
 4589 06c2 6F666673 		.ascii	"offset\000"
 4589      657400
 4590              	.LASF209:
 4591 06c9 6E657469 		.ascii	"netif_linkoutput_fn\000"
 4591      665F6C69 
 4591      6E6B6F75 
 4591      74707574 
 4591      5F666E00 
 4592              	.LASF31:
 4593 06dd 666C6167 		.ascii	"flagsmask_t\000"
 4593      736D6173 
 4593      6B5F7400 
ARM GAS  /tmp/cc1elrgw.s 			page 87


 4594              	.LASF211:
 4595 06e9 74637069 		.ascii	"tcpip_callback_fn\000"
 4595      705F6361 
 4595      6C6C6261 
 4595      636B5F66 
 4595      6E00
 4596              	.LASF46:
 4597 06fb 705F7469 		.ascii	"p_time\000"
 4597      6D6500
 4598              	.LASF208:
 4599 0702 6E657469 		.ascii	"netif_output_fn\000"
 4599      665F6F75 
 4599      74707574 
 4599      5F666E00 
 4600              	.LASF173:
 4601 0712 72656376 		.ascii	"recv\000"
 4601      00
 4602              	.LASF184:
 4603 0717 75736564 		.ascii	"used\000"
 4603      00
 4604              	.LASF153:
 4605 071c 746F745F 		.ascii	"tot_len\000"
 4605      6C656E00 
 4606              	.LASF151:
 4607 0724 6E657874 		.ascii	"next\000"
 4607      00
 4608              	.LASF198:
 4609 0729 69705F61 		.ascii	"ip_addr_t\000"
 4609      6464725F 
 4609      7400
 4610              	.LASF75:
 4611 0733 53656D61 		.ascii	"Semaphore\000"
 4611      70686F72 
 4611      6500
 4612              	.LASF52:
 4613 073d 705F7265 		.ascii	"p_realprio\000"
 4613      616C7072 
 4613      696F00
 4614              	.LASF139:
 4615 0748 6572725F 		.ascii	"err_t\000"
 4615      7400
 4616              	.LASF187:
 4617 074e 73746174 		.ascii	"stats_sys\000"
 4617      735F7379 
 4617      7300
 4618              	.LASF161:
 4619 0758 4D454D50 		.ascii	"MEMP_REASSDATA\000"
 4619      5F524541 
 4619      53534441 
 4619      544100
 4620              	.LASF77:
 4621 0767 735F636E 		.ascii	"s_cnt\000"
 4621      7400
 4622              	.LASF2:
 4623 076d 5F5F696E 		.ascii	"__int8_t\000"
 4623      74385F74 
 4623      00
ARM GAS  /tmp/cc1elrgw.s 			page 88


 4624              	.LASF194:
 4625 0776 69636D70 		.ascii	"icmp\000"
 4625      00
 4626              	.LASF162:
 4627 077b 4D454D50 		.ascii	"MEMP_FRAG_PBUF\000"
 4627      5F465241 
 4627      475F5042 
 4627      554600
 4628              	.LASF121:
 4629 078a 73697A65 		.ascii	"size\000"
 4629      00
 4630              	.LASF15:
 4631 078f 6C6F6E67 		.ascii	"long long unsigned int\000"
 4631      206C6F6E 
 4631      6720756E 
 4631      7369676E 
 4631      65642069 
 4632              	.LASF123:
 4633 07a6 4D414354 		.ascii	"MACTransmitDescriptor\000"
 4633      72616E73 
 4633      6D697444 
 4633      65736372 
 4633      6970746F 
 4634              	.LASF157:
 4635 07bc 4D454D50 		.ascii	"MEMP_UDP_PCB\000"
 4635      5F554450 
 4635      5F504342 
 4635      00
 4636              	.LASF40:
 4637 07c9 705F6F6C 		.ascii	"p_older\000"
 4637      64657200 
 4638              	.LASF160:
 4639 07d1 4D454D50 		.ascii	"MEMP_TCP_SEG\000"
 4639      5F544350 
 4639      5F534547 
 4639      00
 4640              	.LASF18:
 4641 07de 75696E74 		.ascii	"uint16_t\000"
 4641      31365F74 
 4641      00
 4642              	.LASF29:
 4643 07e7 6D73675F 		.ascii	"msg_t\000"
 4643      7400
 4644              	.LASF166:
 4645 07ed 4D454D50 		.ascii	"MEMP_TCPIP_MSG_INPKT\000"
 4645      5F544350 
 4645      49505F4D 
 4645      53475F49 
 4645      4E504B54 
 4646              	.LASF233:
 4647 0802 70627566 		.ascii	"pbuf_alloc\000"
 4647      5F616C6C 
 4647      6F6300
 4648              	.LASF27:
 4649 080d 74736C69 		.ascii	"tslices_t\000"
 4649      6365735F 
 4649      7400
ARM GAS  /tmp/cc1elrgw.s 			page 89


 4650              	.LASF182:
 4651 0817 73746174 		.ascii	"stats_mem\000"
 4651      735F6D65 
 4651      6D00
 4652              	.LASF73:
 4653 0821 725F6375 		.ascii	"r_current\000"
 4653      7272656E 
 4653      7400
 4654              	.LASF185:
 4655 082b 696C6C65 		.ascii	"illegal\000"
 4655      67616C00 
 4656              	.LASF180:
 4657 0833 6F707465 		.ascii	"opterr\000"
 4657      727200
 4658              	.LASF226:
 4659 083a 77615F6C 		.ascii	"wa_lwip_thread\000"
 4659      7769705F 
 4659      74687265 
 4659      616400
 4660              	.LASF175:
 4661 0849 63686B65 		.ascii	"chkerr\000"
 4661      727200
 4662              	.LASF119:
 4663 0850 4D414343 		.ascii	"MACConfig\000"
 4663      6F6E6669 
 4663      6700
 4664              	.LASF144:
 4665 085a 70627566 		.ascii	"pbuf_layer\000"
 4665      5F6C6179 
 4665      657200
 4666              	.LASF241:
 4667 0865 6D616353 		.ascii	"macStart\000"
 4667      74617274 
 4667      00
 4668              	.LASF68:
 4669 086e 725F7175 		.ascii	"r_queue\000"
 4669      65756500 
 4670              	.LASF231:
 4671 0876 70627566 		.ascii	"pbuf_free\000"
 4671      5F667265 
 4671      6500
 4672              	.LASF214:
 4673 0880 64657374 		.ascii	"dest\000"
 4673      00
 4674              	.LASF170:
 4675 0885 4D454D50 		.ascii	"MEMP_MAX\000"
 4675      5F4D4158 
 4675      00
 4676              	.LASF132:
 4677 088e 7533325F 		.ascii	"u32_t\000"
 4677      7400
 4678              	.LASF223:
 4679 0894 726C6973 		.ascii	"rlist\000"
 4679      7400
 4680              	.LASF24:
 4681 089a 746D6F64 		.ascii	"tmode_t\000"
 4681      655F7400 
ARM GAS  /tmp/cc1elrgw.s 			page 90


 4682              	.LASF104:
 4683 08a2 6C696E6B 		.ascii	"link_up\000"
 4683      5F757000 
 4684              	.LASF72:
 4685 08aa 725F6F6C 		.ascii	"r_older\000"
 4685      64657200 
 4686              	.LASF251:
 4687 08b2 2F686F6D 		.ascii	"/home/caroline/Documents/PAF/ChibiOS_2.6.4/demos/AR"
 4687      652F6361 
 4687      726F6C69 
 4687      6E652F44 
 4687      6F63756D 
 4688 08e5 4D434D34 		.ascii	"MCM4-STM32F407-LWIP\000"
 4688      2D53544D 
 4688      33324634 
 4688      30372D4C 
 4688      57495000 
 4689              	.LASF218:
 4690 08f9 6D61635F 		.ascii	"mac_config\000"
 4690      636F6E66 
 4690      696700
 4691              	.LASF206:
 4692 0904 6E616D65 		.ascii	"name\000"
 4692      00
 4693              	.LASF76:
 4694 0909 735F7175 		.ascii	"s_queue\000"
 4694      65756500 
 4695              	.LASF168:
 4696 0911 4D454D50 		.ascii	"MEMP_PBUF\000"
 4696      5F504255 
 4696      4600
 4697              	.LASF6:
 4698 091b 73686F72 		.ascii	"short int\000"
 4698      7420696E 
 4698      7400
 4699              	.LASF21:
 4700 0925 75696E74 		.ascii	"uint64_t\000"
 4700      36345F74 
 4700      00
 4701              	.LASF227:
 4702 092e 6C776970 		.ascii	"lwip_stats\000"
 4702      5F737461 
 4702      747300
 4703              	.LASF69:
 4704 0939 725F7072 		.ascii	"r_prio\000"
 4704      696F00
 4705              	.LASF22:
 4706 0940 626F6F6C 		.ascii	"bool_t\000"
 4706      5F7400
 4707              	.LASF34:
 4708 0947 54687265 		.ascii	"Thread\000"
 4708      616400
 4709              	.LASF137:
 4710 094e 67617465 		.ascii	"gateway\000"
 4710      77617900 
 4711              	.LASF235:
 4712 0956 6D616352 		.ascii	"macReleaseTransmitDescriptor\000"
ARM GAS  /tmp/cc1elrgw.s 			page 91


 4712      656C6561 
 4712      73655472 
 4712      616E736D 
 4712      69744465 
 4713              	.LASF242:
 4714 0973 6E657469 		.ascii	"netif_add\000"
 4714      665F6164 
 4714      6400
 4715              	.LASF26:
 4716 097d 74726566 		.ascii	"trefs_t\000"
 4716      735F7400 
 4717              	.LASF97:
 4718 0985 6D616373 		.ascii	"macstate_t\000"
 4718      74617465 
 4718      5F7400
 4719              	.LASF82:
 4720 0990 4576656E 		.ascii	"EventListener\000"
 4720      744C6973 
 4720      74656E65 
 4720      7200
 4721              	.LASF108:
 4722 099e 72646573 		.ascii	"rdes0\000"
 4722      3000
 4723              	.LASF109:
 4724 09a4 72646573 		.ascii	"rdes1\000"
 4724      3100
 4725              	.LASF110:
 4726 09aa 72646573 		.ascii	"rdes2\000"
 4726      3200
 4727              	.LASF111:
 4728 09b0 72646573 		.ascii	"rdes3\000"
 4728      3300
 4729              	.LASF20:
 4730 09b6 75696E74 		.ascii	"uint32_t\000"
 4730      33325F74 
 4730      00
 4731              	.LASF62:
 4732 09bf 56697274 		.ascii	"VirtualTimer\000"
 4732      75616C54 
 4732      696D6572 
 4732      00
 4733              	.LASF240:
 4734 09cc 74637069 		.ascii	"tcpip_init\000"
 4734      705F696E 
 4734      697400
 4735              	.LASF140:
 4736 09d7 50425546 		.ascii	"PBUF_TRANSPORT\000"
 4736      5F545241 
 4736      4E53504F 
 4736      525400
 4737              	.LASF54:
 4738 09e6 54687265 		.ascii	"ThreadsQueue\000"
 4738      61647351 
 4738      75657565 
 4738      00
 4739              	.LASF244:
 4740 09f3 6E657469 		.ascii	"netif_set_up\000"
ARM GAS  /tmp/cc1elrgw.s 			page 92


 4740      665F7365 
 4740      745F7570 
 4740      00
 4741              	.LASF95:
 4742 0a00 4D41435F 		.ascii	"MAC_STOP\000"
 4742      53544F50 
 4742      00
 4743              	.LASF237:
 4744 0a09 6D616350 		.ascii	"macPollLinkStatus\000"
 4744      6F6C6C4C 
 4744      696E6B53 
 4744      74617475 
 4744      7300
 4745              	.LASF89:
 4746 0a1b 7264796D 		.ascii	"rdymsg\000"
 4746      736700
 4747              	.LASF246:
 4748 0a22 63684576 		.ascii	"chEvtRegisterMask\000"
 4748      74526567 
 4748      69737465 
 4748      724D6173 
 4748      6B00
 4749              	.LASF122:
 4750 0a34 70687973 		.ascii	"physdesc\000"
 4750      64657363 
 4750      00
 4751              	.LASF8:
 4752 0a3d 73686F72 		.ascii	"short unsigned int\000"
 4752      7420756E 
 4752      7369676E 
 4752      65642069 
 4752      6E7400
 4753              	.LASF117:
 4754 0a50 73746D33 		.ascii	"stm32_eth_tx_descriptor_t\000"
 4754      325F6574 
 4754      685F7478 
 4754      5F646573 
 4754      63726970 
 4755              	.LASF253:
 4756 0a6a 6C6F775F 		.ascii	"low_level_input\000"
 4756      6C657665 
 4756      6C5F696E 
 4756      70757400 
 4757              	.LASF129:
 4758 0a7a 75385F74 		.ascii	"u8_t\000"
 4758      00
 4759              	.LASF239:
 4760 0a7f 63684576 		.ascii	"chEvtWaitAny\000"
 4760      74576169 
 4760      74416E79 
 4760      00
 4761              	.LASF124:
 4762 0a8c 4D414352 		.ascii	"MACReceiveDescriptor\000"
 4762      65636569 
 4762      76654465 
 4762      73637269 
 4762      70746F72 
ARM GAS  /tmp/cc1elrgw.s 			page 93


 4763              	.LASF9:
 4764 0aa1 5F5F696E 		.ascii	"__int32_t\000"
 4764      7433325F 
 4764      7400
 4765              	.LASF85:
 4766 0aab 656C5F6D 		.ascii	"el_mask\000"
 4766      61736B00 
 4767              	.LASF74:
 4768 0ab3 52656164 		.ascii	"ReadyList\000"
 4768      794C6973 
 4768      7400
 4769              	.LASF145:
 4770 0abd 50425546 		.ascii	"PBUF_RAM\000"
 4770      5F52414D 
 4770      00
 4771              	.LASF107:
 4772 0ac6 74787074 		.ascii	"txptr\000"
 4772      7200
 4773              	.LASF143:
 4774 0acc 50425546 		.ascii	"PBUF_RAW\000"
 4774      5F524157 
 4774      00
 4775              	.LASF41:
 4776 0ad5 705F6E61 		.ascii	"p_name\000"
 4776      6D6500
 4777              	.LASF101:
 4778 0adc 74647365 		.ascii	"tdsem\000"
 4778      6D00
 4779              	.LASF65:
 4780 0ae2 76745F74 		.ascii	"vt_time\000"
 4780      696D6500 
 4781              	.LASF81:
 4782 0aea 6D5F6E65 		.ascii	"m_next\000"
 4782      787400
 4783              	.LASF245:
 4784 0af1 65767453 		.ascii	"evtStart\000"
 4784      74617274 
 4784      00
 4785              	.LASF159:
 4786 0afa 4D454D50 		.ascii	"MEMP_TCP_PCB_LISTEN\000"
 4786      5F544350 
 4786      5F504342 
 4786      5F4C4953 
 4786      54454E00 
 4787              	.LASF142:
 4788 0b0e 50425546 		.ascii	"PBUF_LINK\000"
 4788      5F4C494E 
 4788      4B00
 4789              	.LASF49:
 4790 0b18 705F6D73 		.ascii	"p_msg\000"
 4790      6700
 4791              	.LASF84:
 4792 0b1e 656C5F6C 		.ascii	"el_listener\000"
 4792      69737465 
 4792      6E657200 
 4793              	.LASF42:
 4794 0b2a 705F7374 		.ascii	"p_state\000"
ARM GAS  /tmp/cc1elrgw.s 			page 94


 4794      61746500 
 4795              		.ident	"GCC: (4.8.2-14ubuntu1+6) 4.8.2"
ARM GAS  /tmp/cc1elrgw.s 			page 95


DEFINED SYMBOLS
                            *ABS*:0000000000000000 lwipthread.c
     /tmp/cc1elrgw.s:19     .text.ethernetif_init:0000000000000000 $t
     /tmp/cc1elrgw.s:24     .text.ethernetif_init:0000000000000000 ethernetif_init
     /tmp/cc1elrgw.s:103    .text.low_level_output:0000000000000000 low_level_output
     /tmp/cc1elrgw.s:98     .text.low_level_output:0000000000000000 $t
     /tmp/cc1elrgw.s:176    .text.lwip_thread:0000000000000000 $t
     /tmp/cc1elrgw.s:182    .text.lwip_thread:0000000000000000 lwip_thread
     /tmp/cc1elrgw.s:586    .rodata.str1.4:0000000000000000 .LC0
     /tmp/cc1elrgw.s:590    .bss.thisif.7460:0000000000000000 .LANCHOR0
     /tmp/cc1elrgw.s:579    .rodata.mac_config.7461:0000000000000000 .LANCHOR1
     /tmp/cc1elrgw.s:564    .text.lwip_thread:0000000000000210 $d
     /tmp/cc1elrgw.s:575    .bss.wa_lwip_thread:0000000000000000 wa_lwip_thread
     /tmp/cc1elrgw.s:572    .bss.wa_lwip_thread:0000000000000000 $d
     /tmp/cc1elrgw.s:578    .rodata.mac_config.7461:0000000000000000 $d
     /tmp/cc1elrgw.s:582    .rodata.mac_config.7461:0000000000000000 mac_config.7461
     /tmp/cc1elrgw.s:593    .bss.thisif.7460:0000000000000000 thisif.7460
     /tmp/cc1elrgw.s:585    .rodata.str1.4:0000000000000000 $d
     /tmp/cc1elrgw.s:589    .bss.thisif.7460:0000000000000000 $d
                     .debug_frame:0000000000000010 $d
     /tmp/cc1elrgw.s:571    .text.lwip_thread:0000000000000214 $t

UNDEFINED SYMBOLS
etharp_output
ETHD1
macWaitTransmitDescriptor
mac_lld_write_transmit_descriptor
macReleaseTransmitDescriptor
lwip_stats
rlist
tcpip_init
macStart
tcpip_input
netif_add
netif_set_default
netif_set_up
evtStart
chEvtRegisterMask
chEvtAddEvents
chThdSetPriority
chEvtWaitAny
macPollLinkStatus
netif_set_link_up
tcpip_callback_with_block
macWaitReceiveDescriptor
pbuf_alloc
mac_lld_read_receive_descriptor
macReleaseReceiveDescriptor
lwip_htons
pbuf_free
netif_set_link_down
