ARM GAS  /tmp/cc1elrgw.s 			page 1


   1              		.syntax unified
   2              		.cpu cortex-m4
   3              		.fpu softvfp
   4              		.eabi_attribute 20, 1
   5              		.eabi_attribute 21, 1
   6              		.eabi_attribute 23, 3
   7              		.eabi_attribute 24, 1
   8              		.eabi_attribute 25, 1
   9              		.eabi_attribute 26, 1
  10              		.eabi_attribute 30, 2
  11              		.eabi_attribute 34, 1
  12              		.eabi_attribute 18, 4
  13              		.thumb
  14              		.file	"lwipthread.c"
  15              		.text
  16              	.Ltext0:
  17              		.cfi_sections	.debug_frame
  18              		.section	.text.ethernetif_init,"ax",%progbits
  19              		.align	2
  20              		.p2align 4,,15
  21              		.thumb
  22              		.thumb_func
  23              		.type	ethernetif_init, %function
  24              	ethernetif_init:
  25              	.LFB121:
  26              		.file 1 "../../os/various/lwip_bindings/lwipthread.c"
  27              		.loc 1 179 0
  28              		.cfi_startproc
  29              		@ args = 0, pretend = 0, frame = 0
  30              		@ frame_needed = 0, uses_anonymous_args = 0
  31              		@ link register save eliminated.
  32              	.LVL0:
  33 0000 F0B4     		push	{r4, r5, r6, r7}
  34              		.cfi_def_cfa_offset 16
  35              		.cfi_offset 4, -16
  36              		.cfi_offset 5, -12
  37              		.cfi_offset 6, -8
  38              		.cfi_offset 7, -4
  39              		.loc 1 179 0
  40 0002 0346     		mov	r3, r0
  41              		.loc 1 194 0
  42 0004 7327     		movs	r7, #115
  43              	.LBB4:
  44              	.LBB5:
  45              		.loc 1 89 0
  46 0006 0626     		movs	r6, #6
  47              		.loc 1 96 0
  48 0008 3224     		movs	r4, #50
  49              	.LBE5:
  50              	.LBE4:
  51              		.loc 1 199 0
  52 000a 40F20001 		movw	r1, #:lower16:etharp_output
  53              		.loc 1 200 0
  54 000e 40F20002 		movw	r2, #:lower16:low_level_output
  55              		.loc 1 193 0
  56 0012 4FF06D0C 		mov	ip, #109
  57              	.LBB8:
ARM GAS  /tmp/cc1elrgw.s 			page 2


  58              	.LBB6:
  59              		.loc 1 92 0
  60 0016 40F2DC55 		movw	r5, #1500
  61              	.LBE6:
  62              	.LBE8:
  63              		.loc 1 192 0
  64 001a 0020     		movs	r0, #0
  65              	.LVL1:
  66              		.loc 1 199 0
  67 001c C0F20001 		movt	r1, #:upper16:etharp_output
  68              		.loc 1 200 0
  69 0020 C0F20002 		movt	r2, #:upper16:low_level_output
  70              		.loc 1 193 0
  71 0024 83F82AC0 		strb	ip, [r3, #42]
  72              		.loc 1 194 0
  73 0028 83F82B70 		strb	r7, [r3, #43]
  74              	.LBB9:
  75              	.LBB7:
  76              		.loc 1 89 0
  77 002c 83F82260 		strb	r6, [r3, #34]
  78              		.loc 1 96 0
  79 0030 83F82940 		strb	r4, [r3, #41]
  80              		.loc 1 92 0
  81 0034 1D84     		strh	r5, [r3, #32]	@ movhi
  82              	.LBE7:
  83              	.LBE9:
  84              		.loc 1 199 0
  85 0036 5961     		str	r1, [r3, #20]
  86              		.loc 1 200 0
  87 0038 9A61     		str	r2, [r3, #24]
  88              	.LVL2:
  89              		.loc 1 192 0
  90 003a D861     		str	r0, [r3, #28]
  91              		.loc 1 206 0
  92 003c F0BC     		pop	{r4, r5, r6, r7}
  93 003e 7047     		bx	lr
  94              		.cfi_endproc
  95              	.LFE121:
  96              		.size	ethernetif_init, .-ethernetif_init
  97              		.section	.text.low_level_output,"ax",%progbits
  98              		.align	2
  99              		.p2align 4,,15
 100              		.thumb
 101              		.thumb_func
 102              		.type	low_level_output, %function
 103              	low_level_output:
 104              	.LFB119:
 105              		.loc 1 104 0
 106              		.cfi_startproc
 107              		@ args = 0, pretend = 0, frame = 16
 108              		@ frame_needed = 0, uses_anonymous_args = 0
 109              	.LVL3:
 110 0000 10B5     		push	{r4, lr}
 111              		.cfi_def_cfa_offset 8
 112              		.cfi_offset 4, -8
 113              		.cfi_offset 14, -4
 114              		.loc 1 109 0
ARM GAS  /tmp/cc1elrgw.s 			page 3


 115 0002 40F20000 		movw	r0, #:lower16:ETHD1
 116              	.LVL4:
 117              		.loc 1 104 0
 118 0006 84B0     		sub	sp, sp, #16
 119              		.cfi_def_cfa_offset 24
 120              		.loc 1 104 0
 121 0008 0C46     		mov	r4, r1
 122              		.loc 1 109 0
 123 000a C0F20000 		movt	r0, #:upper16:ETHD1
 124 000e 01A9     		add	r1, sp, #4
 125              	.LVL5:
 126 0010 3222     		movs	r2, #50
 127 0012 FFF7FEFF 		bl	macWaitTransmitDescriptor
 128              	.LVL6:
 129 0016 B0B9     		cbnz	r0, .L7
 130              	.LVL7:
 131              		.loc 1 117 0 discriminator 2
 132 0018 3CB1     		cbz	r4, .L13
 133              	.LVL8:
 134              	.L6:
 135              		.loc 1 118 0 discriminator 2
 136 001a 6168     		ldr	r1, [r4, #4]
 137 001c 6289     		ldrh	r2, [r4, #10]
 138 001e 01A8     		add	r0, sp, #4
 139 0020 FFF7FEFF 		bl	mac_lld_write_transmit_descriptor
 140              	.LVL9:
 141              		.loc 1 117 0 discriminator 2
 142 0024 2468     		ldr	r4, [r4]
 143              	.LVL10:
 144 0026 002C     		cmp	r4, #0
 145 0028 F7D1     		bne	.L6
 146              	.L13:
 147              		.loc 1 119 0
 148 002a 01A8     		add	r0, sp, #4
 149 002c FFF7FEFF 		bl	macReleaseTransmitDescriptor
 150              	.LVL11:
 151              		.loc 1 125 0
 152 0030 40F20003 		movw	r3, #:lower16:lwip_stats
 153 0034 C0F20003 		movt	r3, #:upper16:lwip_stats
 154              		.loc 1 127 0
 155 0038 0020     		movs	r0, #0
 156              		.loc 1 125 0
 157 003a 1A88     		ldrh	r2, [r3]
 158 003c 0132     		adds	r2, r2, #1
 159 003e 1A80     		strh	r2, [r3]	@ movhi
 160              	.LVL12:
 161              	.L3:
 162              		.loc 1 128 0
 163 0040 40B2     		sxtb	r0, r0
 164 0042 04B0     		add	sp, sp, #16
 165              		@ sp needed
 166 0044 10BD     		pop	{r4, pc}
 167              	.LVL13:
 168              	.L7:
 169              		.loc 1 110 0
 170 0046 FD20     		movs	r0, #253
 171 0048 FAE7     		b	.L3
ARM GAS  /tmp/cc1elrgw.s 			page 4


 172              		.cfi_endproc
 173              	.LFE119:
 174              		.size	low_level_output, .-low_level_output
 175 004a 00BFAFF3 		.section	.text.lwip_thread,"ax",%progbits
 175      0080
 176              		.align	2
 177              		.p2align 4,,15
 178              		.global	lwip_thread
 179              		.thumb
 180              		.thumb_func
 181              		.type	lwip_thread, %function
 182              	lwip_thread:
 183              	.LFB122:
 184              		.loc 1 214 0
 185              		.cfi_startproc
 186              		@ args = 0, pretend = 0, frame = 88
 187              		@ frame_needed = 0, uses_anonymous_args = 0
 188              	.LVL14:
 189 0000 2DE9F041 		push	{r4, r5, r6, r7, r8, lr}
 190              		.cfi_def_cfa_offset 24
 191              		.cfi_offset 4, -24
 192              		.cfi_offset 5, -20
 193              		.cfi_offset 6, -16
 194              		.cfi_offset 7, -12
 195              		.cfi_offset 8, -8
 196              		.cfi_offset 14, -4
 197              		.loc 1 221 0
 198 0004 40F20002 		movw	r2, #:lower16:rlist
 199 0008 C0F20002 		movt	r2, #:upper16:rlist
 200 000c 40F20003 		movw	r3, #:lower16:.LC0
 201 0010 9269     		ldr	r2, [r2, #24]
 202 0012 C0F20003 		movt	r3, #:upper16:.LC0
 203              		.loc 1 214 0
 204 0016 0446     		mov	r4, r0
 205              		.loc 1 224 0
 206 0018 0020     		movs	r0, #0
 207              	.LVL15:
 208              		.loc 1 214 0
 209 001a 9AB0     		sub	sp, sp, #104
 210              		.cfi_def_cfa_offset 128
 211              		.loc 1 221 0
 212 001c 9361     		str	r3, [r2, #24]
 213              		.loc 1 224 0
 214 001e 0146     		mov	r1, r0
 215 0020 40F20007 		movw	r7, #:lower16:.LANCHOR0
 216 0024 FFF7FEFF 		bl	tcpip_init
 217              	.LVL16:
 218 0028 C0F20007 		movt	r7, #:upper16:.LANCHOR0
 219              		.loc 1 227 0
 220 002c 7CB1     		cbz	r4, .L15
 221 002e 0023     		movs	r3, #0
 222              	.L17:
 223              	.LVL17:
 224              	.LBB17:
 225              		.loc 1 232 0 discriminator 2
 226 0030 2268     		ldr	r2, [r4]
 227 0032 F918     		adds	r1, r7, r3
ARM GAS  /tmp/cc1elrgw.s 			page 5


 228 0034 D25C     		ldrb	r2, [r2, r3]	@ zero_extendqisi2
 229              		.loc 1 231 0 discriminator 2
 230 0036 0133     		adds	r3, r3, #1
 231              	.LVL18:
 232 0038 062B     		cmp	r3, #6
 233              		.loc 1 232 0 discriminator 2
 234 003a 81F82320 		strb	r2, [r1, #35]
 235              		.loc 1 231 0 discriminator 2
 236 003e F7D1     		bne	.L17
 237              		.loc 1 233 0
 238 0040 6168     		ldr	r1, [r4, #4]
 239              		.loc 1 234 0
 240 0042 E268     		ldr	r2, [r4, #12]
 241              		.loc 1 235 0
 242 0044 A368     		ldr	r3, [r4, #8]
 243              	.LVL19:
 244              		.loc 1 233 0
 245 0046 0591     		str	r1, [sp, #20]
 246              		.loc 1 234 0
 247 0048 0692     		str	r2, [sp, #24]
 248              		.loc 1 235 0
 249 004a 0793     		str	r3, [sp, #28]
 250              	.LBE17:
 251 004c 1FE0     		b	.L18
 252              	.L15:
 253              		.loc 1 244 0
 254 004e 4AF6C002 		movw	r2, #43200
 255              		.loc 1 245 0
 256 0052 1346     		mov	r3, r2
 257              		.loc 1 238 0
 258 0054 4FF0C20C 		mov	ip, #194
 259              		.loc 1 239 0
 260 0058 4FF0AF0E 		mov	lr, #175
 261              		.loc 1 240 0
 262 005c 5126     		movs	r6, #81
 263              		.loc 1 241 0
 264 005e 0325     		movs	r5, #3
 265              		.loc 1 242 0
 266 0060 CF24     		movs	r4, #207
 267              	.LVL20:
 268              		.loc 1 243 0
 269 0062 4620     		movs	r0, #70
 270              		.loc 1 244 0
 271 0064 C1F20142 		movt	r2, 5121
 272              		.loc 1 245 0
 273 0068 C0F20113 		movt	r3, 257
 274              		.loc 1 246 0
 275 006c 6FF07F41 		mvn	r1, #-16777216
 276              		.loc 1 238 0
 277 0070 87F823C0 		strb	ip, [r7, #35]
 278              		.loc 1 239 0
 279 0074 87F824E0 		strb	lr, [r7, #36]
 280              		.loc 1 240 0
 281 0078 87F82560 		strb	r6, [r7, #37]
 282              		.loc 1 241 0
 283 007c 87F82650 		strb	r5, [r7, #38]
 284              		.loc 1 242 0
ARM GAS  /tmp/cc1elrgw.s 			page 6


 285 0080 87F82740 		strb	r4, [r7, #39]
 286              		.loc 1 243 0
 287 0084 87F82800 		strb	r0, [r7, #40]
 288              		.loc 1 244 0
 289 0088 0592     		str	r2, [sp, #20]
 290              		.loc 1 245 0
 291 008a 0693     		str	r3, [sp, #24]
 292              		.loc 1 246 0
 293 008c 0791     		str	r1, [sp, #28]
 294              	.L18:
 295              		.loc 1 248 0
 296 008e 40F20000 		movw	r0, #:lower16:ETHD1
 297 0092 40F20001 		movw	r1, #:lower16:.LANCHOR1
 298 0096 C0F20000 		movt	r0, #:upper16:ETHD1
 299 009a C0F20001 		movt	r1, #:upper16:.LANCHOR1
 300 009e FFF7FEFF 		bl	macStart
 301              	.LVL21:
 302              		.loc 1 249 0
 303 00a2 40F20002 		movw	r2, #:lower16:ethernetif_init
 304 00a6 40F20003 		movw	r3, #:lower16:tcpip_input
 305 00aa C0F20002 		movt	r2, #:upper16:ethernetif_init
 306 00ae C0F20003 		movt	r3, #:upper16:tcpip_input
 307 00b2 0024     		movs	r4, #0
 308 00b4 40F20000 		movw	r0, #:lower16:.LANCHOR0
 309 00b8 05A9     		add	r1, sp, #20
 310 00ba 0192     		str	r2, [sp, #4]
 311 00bc 0293     		str	r3, [sp, #8]
 312 00be 07AA     		add	r2, sp, #28
 313 00c0 06AB     		add	r3, sp, #24
 314 00c2 0094     		str	r4, [sp]
 315 00c4 C0F20000 		movt	r0, #:upper16:.LANCHOR0
 316 00c8 FFF7FEFF 		bl	netif_add
 317              	.LVL22:
 318              		.loc 1 251 0
 319 00cc 40F20000 		movw	r0, #:lower16:.LANCHOR0
 320 00d0 C0F20000 		movt	r0, #:upper16:.LANCHOR0
 321 00d4 FFF7FEFF 		bl	netif_set_default
 322              	.LVL23:
 323              		.loc 1 252 0
 324 00d8 40F20000 		movw	r0, #:lower16:.LANCHOR0
 325 00dc C0F20000 		movt	r0, #:upper16:.LANCHOR0
 326 00e0 FFF7FEFF 		bl	netif_set_up
 327              	.LVL24:
 328              		.loc 1 255 0
 329 00e4 18AD     		add	r5, sp, #96
 330 00e6 41F28833 		movw	r3, #5000
 331              		.loc 1 256 0
 332 00ea 13A8     		add	r0, sp, #76
 333              		.loc 1 255 0
 334 00ec 1993     		str	r3, [sp, #100]
 335 00ee 1694     		str	r4, [sp, #88]
 336 00f0 1895     		str	r5, [sp, #96]
 337              		.loc 1 256 0
 338 00f2 FFF7FEFF 		bl	evtStart
 339              	.LVL25:
 340              		.loc 1 257 0
 341 00f6 2846     		mov	r0, r5
ARM GAS  /tmp/cc1elrgw.s 			page 7


 342 00f8 0BA9     		add	r1, sp, #44
 343 00fa 0122     		movs	r2, #1
 344 00fc FFF7FEFF 		bl	chEvtRegisterMask
 345              	.LVL26:
 346              		.loc 1 258 0
 347 0100 0FA9     		add	r1, sp, #60
 348 0102 0222     		movs	r2, #2
 349 0104 4248     		ldr	r0, .L41
 350 0106 FFF7FEFF 		bl	chEvtRegisterMask
 351              	.LVL27:
 352              		.loc 1 259 0
 353 010a 0320     		movs	r0, #3
 354 010c FFF7FEFF 		bl	chEvtAddEvents
 355              	.LVL28:
 356 0110 40F20006 		movw	r6, #:lower16:lwip_stats
 357              		.loc 1 262 0
 358 0114 0220     		movs	r0, #2
 359 0116 FFF7FEFF 		bl	chThdSetPriority
 360              	.LVL29:
 361 011a C0F20006 		movt	r6, #:upper16:lwip_stats
 362 011e 04E0     		b	.L24
 363              	.LVL30:
 364              	.L20:
 365              	.LBB18:
 366              		.loc 1 277 0
 367 0120 A307     		lsls	r3, r4, #30
 368              	.LBB19:
 369              	.LBB20:
 370              		.loc 1 281 0
 371 0122 48BF     		it	mi
 372 0124 40F60608 		movwmi	r8, #2054
 373              	.LBE20:
 374              	.LBE19:
 375              		.loc 1 277 0
 376 0128 25D4     		bmi	.L25
 377              	.LVL31:
 378              	.L24:
 379              		.loc 1 265 0
 380 012a 4FF0FF30 		mov	r0, #-1
 381 012e FFF7FEFF 		bl	chEvtWaitAny
 382              	.LVL32:
 383              		.loc 1 266 0
 384 0132 C207     		lsls	r2, r0, #31
 385              		.loc 1 265 0
 386 0134 0446     		mov	r4, r0
 387              	.LVL33:
 388              		.loc 1 266 0
 389 0136 F3D5     		bpl	.L20
 390              	.LBB33:
 391              		.loc 1 267 0
 392 0138 40F20000 		movw	r0, #:lower16:ETHD1
 393              	.LVL34:
 394 013c C0F20000 		movt	r0, #:upper16:ETHD1
 395 0140 FFF7FEFF 		bl	macPollLinkStatus
 396              	.LVL35:
 397              		.loc 1 268 0
 398 0144 97F82930 		ldrb	r3, [r7, #41]	@ zero_extendqisi2
ARM GAS  /tmp/cc1elrgw.s 			page 8


 399 0148 C3F30013 		ubfx	r3, r3, #4, #1
 400 014c 9842     		cmp	r0, r3
 401              		.loc 1 267 0
 402 014e 0246     		mov	r2, r0
 403              	.LVL36:
 404              		.loc 1 268 0
 405 0150 E6D0     		beq	.L20
 406              		.loc 1 269 0
 407 0152 0028     		cmp	r0, #0
 408 0154 51D0     		beq	.L22
 409              		.loc 1 270 0
 410 0156 40F20000 		movw	r0, #:lower16:netif_set_link_up
 411              	.LVL37:
 412 015a 40F20001 		movw	r1, #:lower16:.LANCHOR0
 413 015e C0F20000 		movt	r0, #:upper16:netif_set_link_up
 414 0162 C0F20001 		movt	r1, #:upper16:.LANCHOR0
 415 0166 0022     		movs	r2, #0
 416              	.LVL38:
 417 0168 FFF7FEFF 		bl	tcpip_callback_with_block
 418              	.LVL39:
 419              	.LBE33:
 420              		.loc 1 277 0
 421 016c A307     		lsls	r3, r4, #30
 422              	.LBB34:
 423              	.LBB21:
 424              		.loc 1 281 0
 425 016e 48BF     		it	mi
 426 0170 40F60608 		movwmi	r8, #2054
 427              	.LBE21:
 428              	.LBE34:
 429              		.loc 1 277 0
 430 0174 D9D5     		bpl	.L24
 431              	.LVL40:
 432              	.L25:
 433              	.LBB35:
 434              	.LBB22:
 435              	.LBB23:
 436              		.loc 1 139 0 discriminator 1
 437 0176 40F20000 		movw	r0, #:lower16:ETHD1
 438 017a C0F20000 		movt	r0, #:upper16:ETHD1
 439 017e 08A9     		add	r1, sp, #32
 440 0180 0022     		movs	r2, #0
 441 0182 FFF7FEFF 		bl	macWaitReceiveDescriptor
 442              	.LVL41:
 443 0186 0028     		cmp	r0, #0
 444 0188 CFD1     		bne	.L24
 445              	.LVL42:
 446              		.loc 1 147 0
 447 018a 0320     		movs	r0, #3
 448 018c 0246     		mov	r2, r0
 449 018e BDF82410 		ldrh	r1, [sp, #36]
 450 0192 FFF7FEFF 		bl	pbuf_alloc
 451              	.LVL43:
 452              		.loc 1 149 0
 453 0196 0546     		mov	r5, r0
 454 0198 28B3     		cbz	r0, .L30
 455 019a 0446     		mov	r4, r0
ARM GAS  /tmp/cc1elrgw.s 			page 9


 456              	.LVL44:
 457              	.L32:
 458              		.loc 1 157 0
 459 019c 6168     		ldr	r1, [r4, #4]
 460 019e 6289     		ldrh	r2, [r4, #10]
 461 01a0 08A8     		add	r0, sp, #32
 462 01a2 FFF7FEFF 		bl	mac_lld_read_receive_descriptor
 463              	.LVL45:
 464              		.loc 1 156 0
 465 01a6 2468     		ldr	r4, [r4]
 466              	.LVL46:
 467 01a8 002C     		cmp	r4, #0
 468 01aa F7D1     		bne	.L32
 469              		.loc 1 158 0
 470 01ac 08A8     		add	r0, sp, #32
 471 01ae FFF7FEFF 		bl	macReleaseReceiveDescriptor
 472              	.LVL47:
 473              		.loc 1 164 0
 474 01b2 7288     		ldrh	r2, [r6, #2]
 475              	.LBE23:
 476              	.LBE22:
 477              	.LBB27:
 478              		.loc 1 281 0
 479 01b4 6B68     		ldr	r3, [r5, #4]
 480              	.LBE27:
 481              	.LBB28:
 482              	.LBB24:
 483              		.loc 1 164 0
 484 01b6 0132     		adds	r2, r2, #1
 485              	.LBE24:
 486              	.LBE28:
 487              	.LBB29:
 488              		.loc 1 281 0
 489 01b8 9889     		ldrh	r0, [r3, #12]	@ unaligned
 490              	.LBE29:
 491              	.LBB30:
 492              	.LBB25:
 493              		.loc 1 164 0
 494 01ba 7280     		strh	r2, [r6, #2]	@ movhi
 495              	.LVL48:
 496              	.LBE25:
 497              	.LBE30:
 498              	.LBB31:
 499              		.loc 1 281 0
 500 01bc FFF7FEFF 		bl	lwip_htons
 501              	.LVL49:
 502 01c0 B0F5006F 		cmp	r0, #2048
 503 01c4 05D0     		beq	.L26
 504 01c6 4045     		cmp	r0, r8
 505 01c8 03D0     		beq	.L26
 506              	.L28:
 507              		.loc 1 295 0
 508 01ca 2846     		mov	r0, r5
 509 01cc FFF7FEFF 		bl	pbuf_free
 510              	.LVL50:
 511 01d0 D1E7     		b	.L25
 512              	.L26:
ARM GAS  /tmp/cc1elrgw.s 			page 10


 513              		.loc 1 291 0
 514 01d2 40F20001 		movw	r1, #:lower16:.LANCHOR0
 515 01d6 C0F20001 		movt	r1, #:upper16:.LANCHOR0
 516 01da 3B69     		ldr	r3, [r7, #16]
 517 01dc 2846     		mov	r0, r5
 518 01de 9847     		blx	r3
 519              	.LVL51:
 520 01e0 0028     		cmp	r0, #0
 521 01e2 C8D0     		beq	.L25
 522 01e4 F1E7     		b	.L28
 523              	.LVL52:
 524              	.L30:
 525              	.LBE31:
 526              	.LBB32:
 527              	.LBB26:
 528              		.loc 1 167 0
 529 01e6 08A8     		add	r0, sp, #32
 530              	.LVL53:
 531 01e8 FFF7FEFF 		bl	macReleaseReceiveDescriptor
 532              	.LVL54:
 533              		.loc 1 168 0
 534 01ec B289     		ldrh	r2, [r6, #12]
 535              		.loc 1 169 0
 536 01ee F388     		ldrh	r3, [r6, #6]
 537              		.loc 1 168 0
 538 01f0 0132     		adds	r2, r2, #1
 539              		.loc 1 169 0
 540 01f2 0133     		adds	r3, r3, #1
 541              		.loc 1 168 0
 542 01f4 B281     		strh	r2, [r6, #12]	@ movhi
 543              		.loc 1 169 0
 544 01f6 F380     		strh	r3, [r6, #6]	@ movhi
 545 01f8 97E7     		b	.L24
 546              	.LVL55:
 547              	.L22:
 548              	.LBE26:
 549              	.LBE32:
 550              	.LBE35:
 551              	.LBB36:
 552              		.loc 1 273 0
 553 01fa 40F20000 		movw	r0, #:lower16:netif_set_link_down
 554              	.LVL56:
 555 01fe 40F20001 		movw	r1, #:lower16:.LANCHOR0
 556 0202 C0F20001 		movt	r1, #:upper16:.LANCHOR0
 557 0206 C0F20000 		movt	r0, #:upper16:netif_set_link_down
 558 020a FFF7FEFF 		bl	tcpip_callback_with_block
 559              	.LVL57:
 560 020e 87E7     		b	.L20
 561              	.L42:
 562              		.align	2
 563              	.L41:
 564 0210 20000000 		.word	ETHD1+32
 565              	.LBE36:
 566              	.LBE18:
 567              		.cfi_endproc
 568              	.LFE122:
 569              		.size	lwip_thread, .-lwip_thread
ARM GAS  /tmp/cc1elrgw.s 			page 11


 570              		.global	wa_lwip_thread
 571 0214 AFF30080 		.section	.bss.wa_lwip_thread,"aw",%nobits
 571      AFF30080 
 571      AFF30080 
 572              		.align	3
 573              		.type	wa_lwip_thread, %object
 574              		.size	wa_lwip_thread, 720
 575              	wa_lwip_thread:
 576 0000 00000000 		.space	720
 576      00000000 
 576      00000000 
 576      00000000 
 576      00000000 
 577              		.section	.rodata.mac_config.7461,"a",%progbits
 578              		.align	2
 579              		.set	.LANCHOR1,. + 0
 580              		.type	mac_config.7461, %object
 581              		.size	mac_config.7461, 4
 582              	mac_config.7461:
 583 0000 23000000 		.word	thisif.7460+35
 584              		.section	.rodata.str1.4,"aMS",%progbits,1
 585              		.align	2
 586              	.LC0:
 587 0000 6C776970 		.ascii	"lwipthread\000"
 587      74687265 
 587      616400
 588 000b 00       		.section	.bss.thisif.7460,"aw",%nobits
 589              		.align	2
 590              		.set	.LANCHOR0,. + 0
 591              		.type	thisif.7460, %object
 592              		.size	thisif.7460, 48
 593              	thisif.7460:
 594 0000 00000000 		.space	48
 594      00000000 
 594      00000000 
 594      00000000 
 594      00000000 
 595              		.text
 596              	.Letext0:
 597              		.file 2 "/usr/lib/gcc/arm-none-eabi/4.8.2/include/stddef.h"
 598              		.file 3 "/usr/include/newlib/machine/_default_types.h"
 599              		.file 4 "/usr/include/newlib/stdint.h"
 600              		.file 5 "../../os/ports/GCC/ARMCMx/chtypes.h"
 601              		.file 6 "../../os/kernel/include/chlists.h"
 602              		.file 7 "../../os/kernel/include/chthreads.h"
 603              		.file 8 "../../os/ports/GCC/ARMCMx/chcore_v7m.h"
 604              		.file 9 "../../os/kernel/include/chvt.h"
 605              		.file 10 "../../os/kernel/include/chschd.h"
 606              		.file 11 "../../os/kernel/include/chsem.h"
 607              		.file 12 "../../os/kernel/include/chmtx.h"
 608              		.file 13 "../../os/kernel/include/chevents.h"
 609              		.file 14 "../../os/hal/include/mac.h"
 610              		.file 15 "../../os/hal/platforms/STM32/mac_lld.h"
 611              		.file 16 "../../os/various/evtimer.h"
 612              		.file 17 "../../os/various/lwip_bindings/arch/cc.h"
 613              		.file 18 "../../os/various/lwip_bindings/lwipthread.h"
 614              		.file 19 "../../ext/lwip/src/include/lwip/mem.h"
ARM GAS  /tmp/cc1elrgw.s 			page 12


 615              		.file 20 "../../ext/lwip/src/include/lwip/err.h"
 616              		.file 21 "../../ext/lwip/src/include/lwip/pbuf.h"
 617              		.file 22 "../../ext/lwip/src/include/lwip/memp.h"
 618              		.file 23 "../../ext/lwip/src/include/lwip/stats.h"
 619              		.file 24 "../../ext/lwip/src/include/ipv4/lwip/ip_addr.h"
 620              		.file 25 "../../ext/lwip/src/include/lwip/netif.h"
 621              		.file 26 "../../ext/lwip/src/include/lwip/tcpip.h"
 622              		.file 27 "../../ext/lwip/src/include/netif/etharp.h"
 623              		.file 28 "../../os/ports/common/ARMCMx/CMSIS/include/core_cm4.h"
 624              		.file 29 "../../ext/lwip/src/include/lwip/def.h"