ARM GAS  /tmp/ccZfLNxd.s 			page 1


   1              		.syntax unified
   2              		.cpu cortex-m4
   3              		.fpu softvfp
   4              		.eabi_attribute 20, 1
   5              		.eabi_attribute 21, 1
   6              		.eabi_attribute 23, 3
   7              		.eabi_attribute 24, 1
   8              		.eabi_attribute 25, 1
   9              		.eabi_attribute 26, 1
  10              		.eabi_attribute 30, 2
  11              		.eabi_attribute 34, 1
  12              		.eabi_attribute 18, 4
  13              		.thumb
  14              		.file	"main.c"
  15              		.text
  16              	.Ltext0:
  17              		.cfi_sections	.debug_frame
  18              		.section	.text.clear_all,"ax",%progbits
  19              		.align	2
  20              		.p2align 4,,15
  21              		.thumb
  22              		.thumb_func
  23              		.type	clear_all, %function
  24              	clear_all:
  25              	.LFB118:
  26              		.file 1 "main.c"
  27              		.loc 1 26 0
  28              		.cfi_startproc
  29              		@ args = 0, pretend = 0, frame = 0
  30              		@ frame_needed = 0, uses_anonymous_args = 0
  31              		@ link register save eliminated.
  32              	.LVL0:
  33              		.loc 1 27 0
  34 0000 4FF4A053 		mov	r3, #5120
  35 0004 C4F20203 		movt	r3, 16386
  36 0008 4020     		movs	r0, #64
  37              	.LVL1:
  38              		.loc 1 28 0
  39 000a 8021     		movs	r1, #128
  40              		.loc 1 29 0
  41 000c 4FF48072 		mov	r2, #256
  42              		.loc 1 27 0
  43 0010 1883     		strh	r0, [r3, #24]	@ movhi
  44              		.loc 1 28 0
  45 0012 1983     		strh	r1, [r3, #24]	@ movhi
  46              		.loc 1 29 0
  47 0014 1A83     		strh	r2, [r3, #24]	@ movhi
  48 0016 7047     		bx	lr
  49              		.cfi_endproc
  50              	.LFE118:
  51              		.size	clear_all, .-clear_all
  52 0018 AFF30080 		.section	.text.set_green,"ax",%progbits
  52      AFF30080 
  53              		.align	2
  54              		.p2align 4,,15
  55              		.thumb
  56              		.thumb_func
ARM GAS  /tmp/ccZfLNxd.s 			page 2


  57              		.type	set_green, %function
  58              	set_green:
  59              	.LFB119:
  60              		.loc 1 33 0
  61              		.cfi_startproc
  62              		@ args = 0, pretend = 0, frame = 0
  63              		@ frame_needed = 0, uses_anonymous_args = 0
  64              		@ link register save eliminated.
  65              	.LVL2:
  66              		.loc 1 34 0
  67 0000 4FF4A053 		mov	r3, #5120
  68 0004 C4F20203 		movt	r3, 16386
  69 0008 4022     		movs	r2, #64
  70 000a 5A83     		strh	r2, [r3, #26]	@ movhi
  71 000c 7047     		bx	lr
  72              		.cfi_endproc
  73              	.LFE119:
  74              		.size	set_green, .-set_green
  75 000e 00BF     		.section	.text.set_orange,"ax",%progbits
  76              		.align	2
  77              		.p2align 4,,15
  78              		.thumb
  79              		.thumb_func
  80              		.type	set_orange, %function
  81              	set_orange:
  82              	.LFB120:
  83              		.loc 1 38 0
  84              		.cfi_startproc
  85              		@ args = 0, pretend = 0, frame = 0
  86              		@ frame_needed = 0, uses_anonymous_args = 0
  87              		@ link register save eliminated.
  88              	.LVL3:
  89              		.loc 1 39 0
  90 0000 4FF4A053 		mov	r3, #5120
  91 0004 C4F20203 		movt	r3, 16386
  92 0008 8022     		movs	r2, #128
  93 000a 5A83     		strh	r2, [r3, #26]	@ movhi
  94 000c 7047     		bx	lr
  95              		.cfi_endproc
  96              	.LFE120:
  97              		.size	set_orange, .-set_orange
  98 000e 00BF     		.section	.text.set_red,"ax",%progbits
  99              		.align	2
 100              		.p2align 4,,15
 101              		.thumb
 102              		.thumb_func
 103              		.type	set_red, %function
 104              	set_red:
 105              	.LFB121:
 106              		.loc 1 42 0
 107              		.cfi_startproc
 108              		@ args = 0, pretend = 0, frame = 0
 109              		@ frame_needed = 0, uses_anonymous_args = 0
 110              		@ link register save eliminated.
 111              	.LVL4:
 112              		.loc 1 43 0
 113 0000 4FF4A053 		mov	r3, #5120
ARM GAS  /tmp/ccZfLNxd.s 			page 3


 114 0004 C4F20203 		movt	r3, 16386
 115 0008 4FF48072 		mov	r2, #256
 116 000c 5A83     		strh	r2, [r3, #26]	@ movhi
 117 000e 7047     		bx	lr
 118              		.cfi_endproc
 119              	.LFE121:
 120              		.size	set_red, .-set_red
 121              		.section	.text.Thread1,"ax",%progbits
 122              		.align	2
 123              		.p2align 4,,15
 124              		.thumb
 125              		.thumb_func
 126              		.type	Thread1, %function
 127              	Thread1:
 128              	.LFB122:
 129              		.loc 1 66 0
 130              		.cfi_startproc
 131              		@ args = 0, pretend = 0, frame = 0
 132              		@ frame_needed = 0, uses_anonymous_args = 0
 133              	.LVL5:
 134              		.loc 1 69 0
 135 0000 40F20002 		movw	r2, #:lower16:rlist
 136 0004 C0F20002 		movt	r2, #:upper16:rlist
 137 0008 40F20003 		movw	r3, #:lower16:.LC0
 138 000c 9269     		ldr	r2, [r2, #24]
 139              		.loc 1 66 0
 140 000e 2DE9F041 		push	{r4, r5, r6, r7, r8, lr}
 141              		.cfi_def_cfa_offset 24
 142              		.cfi_offset 4, -24
 143              		.cfi_offset 5, -20
 144              		.cfi_offset 6, -16
 145              		.cfi_offset 7, -12
 146              		.cfi_offset 8, -8
 147              		.cfi_offset 14, -4
 148              		.loc 1 69 0
 149 0012 C0F20003 		movt	r3, #:upper16:.LC0
 150              	.LBB2:
 151              	.LBB3:
 152              		.loc 1 76 0
 153 0016 48F21F57 		movw	r7, #34079
 154              	.LBE3:
 155              	.LBE2:
 156              		.loc 1 69 0
 157 001a 9361     		str	r3, [r2, #24]
 158              	.LBB7:
 159              	.LBB4:
 160              		.loc 1 76 0
 161 001c C5F2EB17 		movt	r7, 20971
 162              	.LBE4:
 163              		.loc 1 71 0
 164 0020 0124     		movs	r4, #1
 165              	.LBB5:
 166              		.loc 1 76 0
 167 0022 4FF4C878 		mov	r8, #400
 168 0026 1BE0     		b	.L6
 169              	.LVL6:
 170              	.L10:
ARM GAS  /tmp/ccZfLNxd.s 			page 4


 171              		.loc 1 78 0 discriminator 3
 172 0028 40F20000 		movw	r0, #:lower16:PWMD4
 173 002c 92B2     		uxth	r2, r2
 174 002e C0F20000 		movt	r0, #:upper16:PWMD4
 175 0032 0021     		movs	r1, #0
 176 0034 FFF7FEFF 		bl	pwmEnableChannel
 177              	.LVL7:
 178              		.loc 1 79 0 discriminator 3
 179 0038 40F20000 		movw	r0, #:lower16:PWMD4
 180 003c B2B2     		uxth	r2, r6
 181 003e C0F20000 		movt	r0, #:upper16:PWMD4
 182 0042 0121     		movs	r1, #1
 183 0044 FFF7FEFF 		bl	pwmEnableChannel
 184              	.LVL8:
 185              		.loc 1 80 0 discriminator 3
 186 0048 40F20000 		movw	r0, #:lower16:PWMD4
 187 004c AAB2     		uxth	r2, r5
 188 004e C0F20000 		movt	r0, #:upper16:PWMD4
 189 0052 0221     		movs	r1, #2
 190 0054 FFF7FEFF 		bl	pwmEnableChannel
 191              	.LVL9:
 192              		.loc 1 81 0 discriminator 3
 193 0058 0820     		movs	r0, #8
 194 005a FFF7FEFF 		bl	chThdSleep
 195              	.LVL10:
 196              	.LBE5:
 197              		.loc 1 71 0 discriminator 3
 198 005e 0134     		adds	r4, r4, #1
 199              	.LVL11:
 200              	.L6:
 201              		.loc 1 71 0 is_stmt 0 discriminator 1
 202 0060 B4F5C87F 		cmp	r4, #400
 203 0064 04F18503 		add	r3, r4, #133
 204 0068 A8BF     		it	ge
 205 006a 0124     		movge	r4, #1
 206              	.LVL12:
 207 006c 1946     		mov	r1, r3
 208 006e A4BF     		itt	ge
 209 0070 2246     		movge	r2, r4
 210 0072 8626     		movge	r6, #134
 211 0074 21DA     		bge	.L12
 212              	.LBB6:
 213              		.loc 1 74 0 is_stmt 1
 214 0076 C72C     		cmp	r4, #199
 215 0078 29DD     		ble	.L14
 216 007a 87FB0316 		smull	r1, r6, r7, r3
 217 007e D917     		asrs	r1, r3, #31
 218              		.loc 1 74 0 is_stmt 0 discriminator 1
 219 0080 C4F5C772 		rsb	r2, r4, #398
 220 0084 C1EBE616 		rsb	r6, r1, r6, asr #7
 221 0088 0132     		adds	r2, r2, #1
 222 008a 08FB1636 		mls	r6, r8, r6, r3
 223              	.LVL13:
 224              	.L8:
 225              		.loc 1 76 0 is_stmt 1 discriminator 3
 226 008e 04F58573 		add	r3, r4, #266
 227 0092 87FB0315 		smull	r1, r5, r7, r3
ARM GAS  /tmp/ccZfLNxd.s 			page 5


 228 0096 D917     		asrs	r1, r3, #31
 229 0098 C1EBE515 		rsb	r5, r1, r5, asr #7
 230              		.loc 1 75 0 discriminator 3
 231 009c C72E     		cmp	r6, #199
 232              		.loc 1 76 0 discriminator 3
 233 009e 08FB1535 		mls	r5, r8, r5, r3
 234              		.loc 1 75 0 discriminator 3
 235 00a2 C4F58573 		rsb	r3, r4, #266
 236 00a6 C1BF     		itttt	gt
 237 00a8 87FB0316 		smullgt	r1, r6, r7, r3
 238 00ac D917     		asrgt	r1, r3, #31
 239 00ae C1EBE616 		rsbgt	r6, r1, r6, asr #7
 240 00b2 08FB1636 		mlsgt	r6, r8, r6, r3
 241              	.LVL14:
 242              		.loc 1 76 0 discriminator 3
 243 00b6 C72D     		cmp	r5, #199
 244 00b8 B6DD     		ble	.L10
 245              	.LVL15:
 246              	.L12:
 247              		.loc 1 76 0 is_stmt 0 discriminator 2
 248 00ba C4F18503 		rsb	r3, r4, #133
 249 00be 87FB0315 		smull	r1, r5, r7, r3
 250 00c2 D917     		asrs	r1, r3, #31
 251 00c4 C1EBE515 		rsb	r5, r1, r5, asr #7
 252 00c8 08FB1535 		mls	r5, r8, r5, r3
 253 00cc ACE7     		b	.L10
 254              	.LVL16:
 255              	.L14:
 256 00ce 87FB0136 		smull	r3, r6, r7, r1
 257 00d2 CB17     		asrs	r3, r1, #31
 258 00d4 C3EBE616 		rsb	r6, r3, r6, asr #7
 259              		.loc 1 74 0 is_stmt 1
 260 00d8 2246     		mov	r2, r4
 261 00da 08FB1616 		mls	r6, r8, r6, r1
 262 00de D6E7     		b	.L8
 263              	.LBE6:
 264              	.LBE7:
 265              		.cfi_endproc
 266              	.LFE122:
 267              		.size	Thread1, .-Thread1
 268              		.section	.text.startup.main,"ax",%progbits
 269              		.align	2
 270              		.p2align 4,,15
 271              		.global	main
 272              		.thumb
 273              		.thumb_func
 274              		.type	main, %function
 275              	main:
 276              	.LFB123:
 277              		.loc 1 90 0
 278              		.cfi_startproc
 279              		@ Volatile: function does not return.
 280              		@ args = 0, pretend = 0, frame = 0
 281              		@ frame_needed = 0, uses_anonymous_args = 0
 282 0000 00B5     		push	{lr}
 283              		.cfi_def_cfa_offset 4
 284              		.cfi_offset 14, -4
ARM GAS  /tmp/ccZfLNxd.s 			page 6


 285 0002 83B0     		sub	sp, sp, #12
 286              		.cfi_def_cfa_offset 16
 287              		.loc 1 99 0
 288 0004 FFF7FEFF 		bl	halInit
 289              	.LVL17:
 290              		.loc 1 100 0
 291 0008 FFF7FEFF 		bl	chSysInit
 292              	.LVL18:
 293              		.loc 1 102 0
 294 000c 40F20000 		movw	r0, #:lower16:PWMD4
 295 0010 40F20001 		movw	r1, #:lower16:.LANCHOR0
 296 0014 C0F20000 		movt	r0, #:upper16:PWMD4
 297 0018 C0F20001 		movt	r1, #:upper16:.LANCHOR0
 298 001c FFF7FEFF 		bl	pwmStart
 299              	.LVL19:
 300              		.loc 1 107 0
 301 0020 40F20000 		movw	r0, #:lower16:SD6
 302 0024 C0F20000 		movt	r0, #:upper16:SD6
 303 0028 0021     		movs	r1, #0
 304 002a FFF7FEFF 		bl	sdStart
 305              	.LVL20:
 306              		.loc 1 112 0
 307 002e 0024     		movs	r4, #0
 308 0030 40F20000 		movw	r0, #:lower16:.LANCHOR1
 309 0034 40F20003 		movw	r3, #:lower16:Thread1
 310 0038 0094     		str	r4, [sp]
 311 003a C0F20003 		movt	r3, #:upper16:Thread1
 312 003e 4FF4A871 		mov	r1, #336
 313 0042 4022     		movs	r2, #64
 314 0044 C0F20000 		movt	r0, #:upper16:.LANCHOR1
 315 0048 FFF7FEFF 		bl	chThdCreateStatic
 316              	.LVL21:
 317              		.loc 1 117 0
 318 004c 40F20000 		movw	r0, #:lower16:wa_lwip_thread
 319 0050 40F20003 		movw	r3, #:lower16:lwip_thread
 320 0054 0094     		str	r4, [sp]
 321 0056 C0F20003 		movt	r3, #:upper16:lwip_thread
 322 005a 4FF40071 		mov	r1, #512
 323 005e 4122     		movs	r2, #65
 324 0060 C0F20000 		movt	r0, #:upper16:wa_lwip_thread
 325 0064 FFF7FEFF 		bl	chThdCreateStatic
 326              	.LVL22:
 327              		.loc 1 123 0
 328 0068 40F20000 		movw	r0, #:lower16:wa_http_server
 329 006c 40F20003 		movw	r3, #:lower16:http_server
 330 0070 0094     		str	r4, [sp]
 331 0072 C0F20000 		movt	r0, #:upper16:wa_http_server
 332 0076 C0F20003 		movt	r3, #:upper16:http_server
 333 007a 4FF49A61 		mov	r1, #1232
 334 007e 4122     		movs	r2, #65
 335              		.loc 1 131 0
 336 0080 4FF40064 		mov	r4, #2048
 337              		.loc 1 123 0
 338 0084 FFF7FEFF 		bl	chThdCreateStatic
 339              	.LVL23:
 340              		.loc 1 131 0
 341 0088 C4F20204 		movt	r4, 16386
ARM GAS  /tmp/ccZfLNxd.s 			page 7


 342 008c 03E0     		b	.L17
 343              	.L16:
 344              		.loc 1 133 0
 345 008e 4FF4FA70 		mov	r0, #500
 346 0092 FFF7FEFF 		bl	chThdSleep
 347              	.LVL24:
 348              	.L17:
 349              		.loc 1 131 0
 350 0096 2369     		ldr	r3, [r4, #16]
 351 0098 9B04     		lsls	r3, r3, #18
 352 009a F8D4     		bmi	.L16
 353              		.loc 1 132 0
 354 009c 40F20000 		movw	r0, #:lower16:SD6
 355 00a0 C0F20000 		movt	r0, #:upper16:SD6
 356 00a4 FFF7FEFF 		bl	TestThread
 357              	.LVL25:
 358 00a8 F1E7     		b	.L16
 359              		.cfi_endproc
 360              	.LFE123:
 361              		.size	main, .-main
 362 00aa 00BFAFF3 		.section	.bss.waThread1,"aw",%nobits
 362      0080
 363              		.align	3
 364              		.set	.LANCHOR1,. + 0
 365              		.type	waThread1, %object
 366              		.size	waThread1, 336
 367              	waThread1:
 368 0000 00000000 		.space	336
 368      00000000 
 368      00000000 
 368      00000000 
 368      00000000 
 369              		.section	.data.pwmcfg,"aw",%progbits
 370              		.align	2
 371              		.set	.LANCHOR0,. + 0
 372              		.type	pwmcfg, %object
 373              		.size	pwmcfg, 52
 374              	pwmcfg:
 375 0000 204E0000 		.word	20000
 376 0004 C800     		.short	200
 377 0006 0000     		.space	2
 378 0008 00000000 		.word	clear_all
 379 000c 00000000 		.word	0
 380 0010 00000000 		.word	set_green
 381 0014 00000000 		.word	0
 382 0018 00000000 		.word	set_orange
 383 001c 00000000 		.word	0
 384 0020 00000000 		.word	set_red
 385 0024 00000000 		.word	0
 386 0028 00000000 		.word	0
 387 002c 00000000 		.word	0
 388 0030 00000000 		.word	0
 389              		.section	.rodata.str1.4,"aMS",%progbits,1
 390              		.align	2
 391              	.LC0:
 392 0000 626C696E 		.ascii	"blinker\000"
 392      6B657200 
ARM GAS  /tmp/ccZfLNxd.s 			page 8


 393              		.text
 394              	.Letext0:
 395              		.file 2 "/usr/lib/gcc/arm-none-eabi/4.8.2/include/stddef.h"
 396              		.file 3 "/usr/include/newlib/machine/_default_types.h"
 397              		.file 4 "/usr/include/newlib/stdint.h"
 398              		.file 5 "../../os/ports/GCC/ARMCMx/chtypes.h"
 399              		.file 6 "../../os/kernel/include/chlists.h"
 400              		.file 7 "../../os/kernel/include/chthreads.h"
 401              		.file 8 "../../os/ports/GCC/ARMCMx/chcore_v7m.h"
 402              		.file 9 "../../os/kernel/include/chschd.h"
 403              		.file 10 "../../os/kernel/include/chmtx.h"
 404              		.file 11 "../../os/kernel/include/chevents.h"
 405              		.file 12 "../../os/kernel/include/chqueues.h"
 406              		.file 13 "../../os/hal/platforms/STM32F4xx/stm32f4xx.h"
 407              		.file 14 "../../os/hal/platforms/STM32/GPIOv2/pal_lld.h"
 408              		.file 15 "../../os/hal/include/pwm.h"
 409              		.file 16 "../../os/hal/platforms/STM32/TIMv1/pwm_lld.h"
 410              		.file 17 "../../os/hal/platforms/STM32/TIMv1/stm32_tim.h"
 411              		.file 18 "../../os/hal/include/serial.h"
 412              		.file 19 "../../os/hal/platforms/STM32/USARTv1/serial_lld.h"
 413              		.file 20 "../../os/ports/common/ARMCMx/CMSIS/include/core_cm4.h"
 414              		.file 21 "../../os/various/lwip_bindings/lwipthread.h"
 415              		.file 22 "web/web.h"
 416              		.file 23 "../../os/hal/include/hal.h"
 417              		.file 24 "../../os/kernel/include/chsys.h"
 418              		.file 25 "../../test/test.h"
 419              		.section	.debug_info,"",%progbits
 420              	.Ldebug_info0:
 421 0000 D20F0000 		.4byte	0xfd2
 422 0004 0400     		.2byte	0x4
 423 0006 00000000 		.4byte	.Ldebug_abbrev0
 424 000a 04       		.byte	0x4
 425 000b 01       		.uleb128 0x1
 426 000c 28000000 		.4byte	.LASF181
 427 0010 01       		.byte	0x1
 428 0011 15040000 		.4byte	.LASF182
 429 0015 99030000 		.4byte	.LASF183
 430 0019 40000000 		.4byte	.Ldebug_ranges0+0x40
 431 001d 00000000 		.4byte	0
 432 0021 00000000 		.4byte	.Ldebug_line0
 433 0025 02       		.uleb128 0x2
 434 0026 04       		.byte	0x4
 435 0027 05       		.byte	0x5
 436 0028 696E7400 		.ascii	"int\000"
 437 002c 03       		.uleb128 0x3
 438 002d 1A000000 		.4byte	.LASF2
 439 0031 02       		.byte	0x2
 440 0032 D4       		.byte	0xd4
 441 0033 37000000 		.4byte	0x37
 442 0037 04       		.uleb128 0x4
 443 0038 04       		.byte	0x4
 444 0039 07       		.byte	0x7
 445 003a 86020000 		.4byte	.LASF0
 446 003e 04       		.uleb128 0x4
 447 003f 01       		.byte	0x1
 448 0040 06       		.byte	0x6
 449 0041 93010000 		.4byte	.LASF1
ARM GAS  /tmp/ccZfLNxd.s 			page 9


 450 0045 03       		.uleb128 0x3
 451 0046 E5000000 		.4byte	.LASF3
 452 004a 03       		.byte	0x3
 453 004b 1C       		.byte	0x1c
 454 004c 50000000 		.4byte	0x50
 455 0050 04       		.uleb128 0x4
 456 0051 01       		.byte	0x1
 457 0052 08       		.byte	0x8
 458 0053 DA040000 		.4byte	.LASF4
 459 0057 04       		.uleb128 0x4
 460 0058 02       		.byte	0x2
 461 0059 05       		.byte	0x5
 462 005a 23050000 		.4byte	.LASF5
 463 005e 03       		.uleb128 0x3
 464 005f F7050000 		.4byte	.LASF6
 465 0063 03       		.byte	0x3
 466 0064 26       		.byte	0x26
 467 0065 69000000 		.4byte	0x69
 468 0069 04       		.uleb128 0x4
 469 006a 02       		.byte	0x2
 470 006b 07       		.byte	0x7
 471 006c 2F020000 		.4byte	.LASF7
 472 0070 03       		.uleb128 0x3
 473 0071 3C060000 		.4byte	.LASF8
 474 0075 03       		.byte	0x3
 475 0076 37       		.byte	0x37
 476 0077 7B000000 		.4byte	0x7b
 477 007b 04       		.uleb128 0x4
 478 007c 04       		.byte	0x4
 479 007d 05       		.byte	0x5
 480 007e DE010000 		.4byte	.LASF9
 481 0082 03       		.uleb128 0x3
 482 0083 46060000 		.4byte	.LASF10
 483 0087 03       		.byte	0x3
 484 0088 38       		.byte	0x38
 485 0089 8D000000 		.4byte	0x8d
 486 008d 04       		.uleb128 0x4
 487 008e 04       		.byte	0x4
 488 008f 07       		.byte	0x7
 489 0090 D1050000 		.4byte	.LASF11
 490 0094 04       		.uleb128 0x4
 491 0095 08       		.byte	0x8
 492 0096 05       		.byte	0x5
 493 0097 01020000 		.4byte	.LASF12
 494 009b 03       		.uleb128 0x3
 495 009c 44040000 		.4byte	.LASF13
 496 00a0 03       		.byte	0x3
 497 00a1 4E       		.byte	0x4e
 498 00a2 A6000000 		.4byte	0xa6
 499 00a6 04       		.uleb128 0x4
 500 00a7 08       		.byte	0x8
 501 00a8 07       		.byte	0x7
 502 00a9 1F010000 		.4byte	.LASF14
 503 00ad 03       		.uleb128 0x3
 504 00ae C4060000 		.4byte	.LASF15
 505 00b2 04       		.byte	0x4
 506 00b3 2A       		.byte	0x2a
ARM GAS  /tmp/ccZfLNxd.s 			page 10


 507 00b4 45000000 		.4byte	0x45
 508 00b8 03       		.uleb128 0x3
 509 00b9 98020000 		.4byte	.LASF16
 510 00bd 04       		.byte	0x4
 511 00be 36       		.byte	0x36
 512 00bf 5E000000 		.4byte	0x5e
 513 00c3 03       		.uleb128 0x3
 514 00c4 D2040000 		.4byte	.LASF17
 515 00c8 04       		.byte	0x4
 516 00c9 41       		.byte	0x41
 517 00ca 70000000 		.4byte	0x70
 518 00ce 03       		.uleb128 0x3
 519 00cf 8B060000 		.4byte	.LASF18
 520 00d3 04       		.byte	0x4
 521 00d4 42       		.byte	0x42
 522 00d5 82000000 		.4byte	0x82
 523 00d9 03       		.uleb128 0x3
 524 00da D0000000 		.4byte	.LASF19
 525 00de 04       		.byte	0x4
 526 00df 4E       		.byte	0x4e
 527 00e0 9B000000 		.4byte	0x9b
 528 00e4 04       		.uleb128 0x4
 529 00e5 01       		.byte	0x1
 530 00e6 02       		.byte	0x2
 531 00e7 CC040000 		.4byte	.LASF20
 532 00eb 03       		.uleb128 0x3
 533 00ec 0E070000 		.4byte	.LASF21
 534 00f0 05       		.byte	0x5
 535 00f1 2C       		.byte	0x2c
 536 00f2 AD000000 		.4byte	0xad
 537 00f6 03       		.uleb128 0x3
 538 00f7 F1010000 		.4byte	.LASF22
 539 00fb 05       		.byte	0x5
 540 00fc 2D       		.byte	0x2d
 541 00fd AD000000 		.4byte	0xad
 542 0101 03       		.uleb128 0x3
 543 0102 71040000 		.4byte	.LASF23
 544 0106 05       		.byte	0x5
 545 0107 2E       		.byte	0x2e
 546 0108 AD000000 		.4byte	0xad
 547 010c 03       		.uleb128 0x3
 548 010d C5010000 		.4byte	.LASF24
 549 0111 05       		.byte	0x5
 550 0112 2F       		.byte	0x2f
 551 0113 AD000000 		.4byte	0xad
 552 0117 03       		.uleb128 0x3
 553 0118 BC040000 		.4byte	.LASF25
 554 011c 05       		.byte	0x5
 555 011d 30       		.byte	0x30
 556 011e CE000000 		.4byte	0xce
 557 0122 03       		.uleb128 0x3
 558 0123 EF020000 		.4byte	.LASF26
 559 0127 05       		.byte	0x5
 560 0128 31       		.byte	0x31
 561 0129 C3000000 		.4byte	0xc3
 562 012d 03       		.uleb128 0x3
 563 012e 3A030000 		.4byte	.LASF27
ARM GAS  /tmp/ccZfLNxd.s 			page 11


 564 0132 05       		.byte	0x5
 565 0133 33       		.byte	0x33
 566 0134 CE000000 		.4byte	0xce
 567 0138 03       		.uleb128 0x3
 568 0139 73050000 		.4byte	.LASF28
 569 013d 05       		.byte	0x5
 570 013e 34       		.byte	0x34
 571 013f CE000000 		.4byte	0xce
 572 0143 03       		.uleb128 0x3
 573 0144 27060000 		.4byte	.LASF29
 574 0148 05       		.byte	0x5
 575 0149 35       		.byte	0x35
 576 014a CE000000 		.4byte	0xce
 577 014e 03       		.uleb128 0x3
 578 014f 6C050000 		.4byte	.LASF30
 579 0153 06       		.byte	0x6
 580 0154 2A       		.byte	0x2a
 581 0155 59010000 		.4byte	0x159
 582 0159 05       		.uleb128 0x5
 583 015a 6C050000 		.4byte	.LASF30
 584 015e 48       		.byte	0x48
 585 015f 07       		.byte	0x7
 586 0160 5E       		.byte	0x5e
 587 0161 56020000 		.4byte	0x256
 588 0165 06       		.uleb128 0x6
 589 0166 4D050000 		.4byte	.LASF31
 590 016a 07       		.byte	0x7
 591 016b 5F       		.byte	0x5f
 592 016c 77020000 		.4byte	0x277
 593 0170 00       		.byte	0
 594 0171 06       		.uleb128 0x6
 595 0172 AB040000 		.4byte	.LASF32
 596 0176 07       		.byte	0x7
 597 0177 61       		.byte	0x61
 598 0178 77020000 		.4byte	0x277
 599 017c 04       		.byte	0x4
 600 017d 06       		.uleb128 0x6
 601 017e 61010000 		.4byte	.LASF33
 602 0182 07       		.byte	0x7
 603 0183 63       		.byte	0x63
 604 0184 17010000 		.4byte	0x117
 605 0188 08       		.byte	0x8
 606 0189 06       		.uleb128 0x6
 607 018a 4B070000 		.4byte	.LASF34
 608 018e 07       		.byte	0x7
 609 018f 64       		.byte	0x64
 610 0190 3C030000 		.4byte	0x33c
 611 0194 0C       		.byte	0xc
 612 0195 06       		.uleb128 0x6
 613 0196 27020000 		.4byte	.LASF35
 614 019a 07       		.byte	0x7
 615 019b 66       		.byte	0x66
 616 019c 77020000 		.4byte	0x277
 617 01a0 10       		.byte	0x10
 618 01a1 06       		.uleb128 0x6
 619 01a2 FA030000 		.4byte	.LASF36
 620 01a6 07       		.byte	0x7
ARM GAS  /tmp/ccZfLNxd.s 			page 12


 621 01a7 67       		.byte	0x67
 622 01a8 77020000 		.4byte	0x277
 623 01ac 14       		.byte	0x14
 624 01ad 06       		.uleb128 0x6
 625 01ae 9A060000 		.4byte	.LASF37
 626 01b2 07       		.byte	0x7
 627 01b3 6E       		.byte	0x6e
 628 01b4 B3040000 		.4byte	0x4b3
 629 01b8 18       		.byte	0x18
 630 01b9 06       		.uleb128 0x6
 631 01ba 2D050000 		.4byte	.LASF38
 632 01be 07       		.byte	0x7
 633 01bf 79       		.byte	0x79
 634 01c0 F6000000 		.4byte	0xf6
 635 01c4 1C       		.byte	0x1c
 636 01c5 06       		.uleb128 0x6
 637 01c6 54050000 		.4byte	.LASF39
 638 01ca 07       		.byte	0x7
 639 01cb 7D       		.byte	0x7d
 640 01cc EB000000 		.4byte	0xeb
 641 01d0 1D       		.byte	0x1d
 642 01d1 06       		.uleb128 0x6
 643 01d2 FA010000 		.4byte	.LASF40
 644 01d6 07       		.byte	0x7
 645 01d7 82       		.byte	0x82
 646 01d8 01010000 		.4byte	0x101
 647 01dc 1E       		.byte	0x1e
 648 01dd 06       		.uleb128 0x6
 649 01de 35050000 		.4byte	.LASF41
 650 01e2 07       		.byte	0x7
 651 01e3 88       		.byte	0x88
 652 01e4 0C010000 		.4byte	0x10c
 653 01e8 1F       		.byte	0x1f
 654 01e9 06       		.uleb128 0x6
 655 01ea B1020000 		.4byte	.LASF42
 656 01ee 07       		.byte	0x7
 657 01ef 8F       		.byte	0x8f
 658 01f0 69030000 		.4byte	0x369
 659 01f4 20       		.byte	0x20
 660 01f5 07       		.uleb128 0x7
 661 01f6 705F7500 		.ascii	"p_u\000"
 662 01fa 07       		.byte	0x7
 663 01fb B4       		.byte	0xb4
 664 01fc 7E040000 		.4byte	0x47e
 665 0200 24       		.byte	0x24
 666 0201 06       		.uleb128 0x6
 667 0202 51070000 		.4byte	.LASF43
 668 0206 07       		.byte	0x7
 669 0207 B9       		.byte	0xb9
 670 0208 9D020000 		.4byte	0x29d
 671 020c 28       		.byte	0x28
 672 020d 06       		.uleb128 0x6
 673 020e BF020000 		.4byte	.LASF44
 674 0212 07       		.byte	0x7
 675 0213 BF       		.byte	0xbf
 676 0214 7D020000 		.4byte	0x27d
 677 0218 2C       		.byte	0x2c
ARM GAS  /tmp/ccZfLNxd.s 			page 13


 678 0219 06       		.uleb128 0x6
 679 021a 1C070000 		.4byte	.LASF45
 680 021e 07       		.byte	0x7
 681 021f C3       		.byte	0xc3
 682 0220 22010000 		.4byte	0x122
 683 0224 34       		.byte	0x34
 684 0225 06       		.uleb128 0x6
 685 0226 7F050000 		.4byte	.LASF46
 686 022a 07       		.byte	0x7
 687 022b C9       		.byte	0xc9
 688 022c 2D010000 		.4byte	0x12d
 689 0230 38       		.byte	0x38
 690 0231 06       		.uleb128 0x6
 691 0232 19050000 		.4byte	.LASF47
 692 0236 07       		.byte	0x7
 693 0237 D0       		.byte	0xd0
 694 0238 C5040000 		.4byte	0x4c5
 695 023c 3C       		.byte	0x3c
 696 023d 06       		.uleb128 0x6
 697 023e 31060000 		.4byte	.LASF48
 698 0242 07       		.byte	0x7
 699 0243 D4       		.byte	0xd4
 700 0244 17010000 		.4byte	0x117
 701 0248 40       		.byte	0x40
 702 0249 06       		.uleb128 0x6
 703 024a 58020000 		.4byte	.LASF49
 704 024e 07       		.byte	0x7
 705 024f DA       		.byte	0xda
 706 0250 B3020000 		.4byte	0x2b3
 707 0254 44       		.byte	0x44
 708 0255 00       		.byte	0
 709 0256 08       		.uleb128 0x8
 710 0257 08       		.byte	0x8
 711 0258 06       		.byte	0x6
 712 0259 61       		.byte	0x61
 713 025a 77020000 		.4byte	0x277
 714 025e 06       		.uleb128 0x6
 715 025f 4D050000 		.4byte	.LASF31
 716 0263 06       		.byte	0x6
 717 0264 62       		.byte	0x62
 718 0265 77020000 		.4byte	0x277
 719 0269 00       		.byte	0
 720 026a 06       		.uleb128 0x6
 721 026b AB040000 		.4byte	.LASF32
 722 026f 06       		.byte	0x6
 723 0270 64       		.byte	0x64
 724 0271 77020000 		.4byte	0x277
 725 0275 04       		.byte	0x4
 726 0276 00       		.byte	0
 727 0277 09       		.uleb128 0x9
 728 0278 04       		.byte	0x4
 729 0279 4E010000 		.4byte	0x14e
 730 027d 03       		.uleb128 0x3
 731 027e 08040000 		.4byte	.LASF50
 732 0282 06       		.byte	0x6
 733 0283 66       		.byte	0x66
 734 0284 56020000 		.4byte	0x256
ARM GAS  /tmp/ccZfLNxd.s 			page 14


 735 0288 08       		.uleb128 0x8
 736 0289 04       		.byte	0x4
 737 028a 06       		.byte	0x6
 738 028b 6B       		.byte	0x6b
 739 028c 9D020000 		.4byte	0x29d
 740 0290 06       		.uleb128 0x6
 741 0291 4D050000 		.4byte	.LASF31
 742 0295 06       		.byte	0x6
 743 0296 6D       		.byte	0x6d
 744 0297 77020000 		.4byte	0x277
 745 029b 00       		.byte	0
 746 029c 00       		.byte	0
 747 029d 03       		.uleb128 0x3
 748 029e 2E030000 		.4byte	.LASF51
 749 02a2 06       		.byte	0x6
 750 02a3 70       		.byte	0x70
 751 02a4 88020000 		.4byte	0x288
 752 02a8 03       		.uleb128 0x3
 753 02a9 60020000 		.4byte	.LASF52
 754 02ad 08       		.byte	0x8
 755 02ae E5       		.byte	0xe5
 756 02af B3020000 		.4byte	0x2b3
 757 02b3 0A       		.uleb128 0xa
 758 02b4 04       		.byte	0x4
 759 02b5 03       		.uleb128 0x3
 760 02b6 6E030000 		.4byte	.LASF53
 761 02ba 08       		.byte	0x8
 762 02bb EB       		.byte	0xeb
 763 02bc D9000000 		.4byte	0xd9
 764 02c0 0B       		.uleb128 0xb
 765 02c1 74060000 		.4byte	.LASF54
 766 02c5 24       		.byte	0x24
 767 02c6 08       		.byte	0x8
 768 02c7 0C01     		.2byte	0x10c
 769 02c9 3C030000 		.4byte	0x33c
 770 02cd 0C       		.uleb128 0xc
 771 02ce 723400   		.ascii	"r4\000"
 772 02d1 08       		.byte	0x8
 773 02d2 1F01     		.2byte	0x11f
 774 02d4 A8020000 		.4byte	0x2a8
 775 02d8 00       		.byte	0
 776 02d9 0C       		.uleb128 0xc
 777 02da 723500   		.ascii	"r5\000"
 778 02dd 08       		.byte	0x8
 779 02de 2001     		.2byte	0x120
 780 02e0 A8020000 		.4byte	0x2a8
 781 02e4 04       		.byte	0x4
 782 02e5 0C       		.uleb128 0xc
 783 02e6 723600   		.ascii	"r6\000"
 784 02e9 08       		.byte	0x8
 785 02ea 2101     		.2byte	0x121
 786 02ec A8020000 		.4byte	0x2a8
 787 02f0 08       		.byte	0x8
 788 02f1 0C       		.uleb128 0xc
 789 02f2 723700   		.ascii	"r7\000"
 790 02f5 08       		.byte	0x8
 791 02f6 2201     		.2byte	0x122
ARM GAS  /tmp/ccZfLNxd.s 			page 15


 792 02f8 A8020000 		.4byte	0x2a8
 793 02fc 0C       		.byte	0xc
 794 02fd 0C       		.uleb128 0xc
 795 02fe 723800   		.ascii	"r8\000"
 796 0301 08       		.byte	0x8
 797 0302 2301     		.2byte	0x123
 798 0304 A8020000 		.4byte	0x2a8
 799 0308 10       		.byte	0x10
 800 0309 0C       		.uleb128 0xc
 801 030a 723900   		.ascii	"r9\000"
 802 030d 08       		.byte	0x8
 803 030e 2401     		.2byte	0x124
 804 0310 A8020000 		.4byte	0x2a8
 805 0314 14       		.byte	0x14
 806 0315 0C       		.uleb128 0xc
 807 0316 72313000 		.ascii	"r10\000"
 808 031a 08       		.byte	0x8
 809 031b 2501     		.2byte	0x125
 810 031d A8020000 		.4byte	0x2a8
 811 0321 18       		.byte	0x18
 812 0322 0C       		.uleb128 0xc
 813 0323 72313100 		.ascii	"r11\000"
 814 0327 08       		.byte	0x8
 815 0328 2601     		.2byte	0x126
 816 032a A8020000 		.4byte	0x2a8
 817 032e 1C       		.byte	0x1c
 818 032f 0C       		.uleb128 0xc
 819 0330 6C7200   		.ascii	"lr\000"
 820 0333 08       		.byte	0x8
 821 0334 2701     		.2byte	0x127
 822 0336 A8020000 		.4byte	0x2a8
 823 033a 20       		.byte	0x20
 824 033b 00       		.byte	0
 825 033c 0B       		.uleb128 0xb
 826 033d 5B060000 		.4byte	.LASF55
 827 0341 04       		.byte	0x4
 828 0342 08       		.byte	0x8
 829 0343 3101     		.2byte	0x131
 830 0345 57030000 		.4byte	0x357
 831 0349 0C       		.uleb128 0xc
 832 034a 72313300 		.ascii	"r13\000"
 833 034e 08       		.byte	0x8
 834 034f 3201     		.2byte	0x132
 835 0351 57030000 		.4byte	0x357
 836 0355 00       		.byte	0
 837 0356 00       		.byte	0
 838 0357 09       		.uleb128 0x9
 839 0358 04       		.byte	0x4
 840 0359 C0020000 		.4byte	0x2c0
 841 035d 0D       		.uleb128 0xd
 842 035e CE000000 		.4byte	0xce
 843 0362 04       		.uleb128 0x4
 844 0363 04       		.byte	0x4
 845 0364 07       		.byte	0x7
 846 0365 E5030000 		.4byte	.LASF56
 847 0369 0D       		.uleb128 0xd
 848 036a 43010000 		.4byte	0x143
ARM GAS  /tmp/ccZfLNxd.s 			page 16


 849 036e 08       		.uleb128 0x8
 850 036f 1C       		.byte	0x1c
 851 0370 09       		.byte	0x9
 852 0371 5E       		.byte	0x5e
 853 0372 BF030000 		.4byte	0x3bf
 854 0376 06       		.uleb128 0x6
 855 0377 A8050000 		.4byte	.LASF57
 856 037b 09       		.byte	0x9
 857 037c 5F       		.byte	0x5f
 858 037d 7D020000 		.4byte	0x27d
 859 0381 00       		.byte	0
 860 0382 06       		.uleb128 0x6
 861 0383 3F050000 		.4byte	.LASF58
 862 0387 09       		.byte	0x9
 863 0388 60       		.byte	0x60
 864 0389 17010000 		.4byte	0x117
 865 038d 08       		.byte	0x8
 866 038e 06       		.uleb128 0x6
 867 038f 02040000 		.4byte	.LASF59
 868 0393 09       		.byte	0x9
 869 0394 62       		.byte	0x62
 870 0395 3C030000 		.4byte	0x33c
 871 0399 0C       		.byte	0xc
 872 039a 06       		.uleb128 0x6
 873 039b 50020000 		.4byte	.LASF60
 874 039f 09       		.byte	0x9
 875 03a0 65       		.byte	0x65
 876 03a1 77020000 		.4byte	0x277
 877 03a5 10       		.byte	0x10
 878 03a6 06       		.uleb128 0x6
 879 03a7 1C040000 		.4byte	.LASF61
 880 03ab 09       		.byte	0x9
 881 03ac 66       		.byte	0x66
 882 03ad 77020000 		.4byte	0x277
 883 03b1 14       		.byte	0x14
 884 03b2 06       		.uleb128 0x6
 885 03b3 E3050000 		.4byte	.LASF62
 886 03b7 09       		.byte	0x9
 887 03b8 69       		.byte	0x69
 888 03b9 77020000 		.4byte	0x277
 889 03bd 18       		.byte	0x18
 890 03be 00       		.byte	0
 891 03bf 03       		.uleb128 0x3
 892 03c0 AB060000 		.4byte	.LASF63
 893 03c4 09       		.byte	0x9
 894 03c5 6B       		.byte	0x6b
 895 03c6 6E030000 		.4byte	0x36e
 896 03ca 05       		.uleb128 0x5
 897 03cb F4030000 		.4byte	.LASF64
 898 03cf 10       		.byte	0x10
 899 03d0 0A       		.byte	0xa
 900 03d1 2C       		.byte	0x2c
 901 03d2 FB030000 		.4byte	0x3fb
 902 03d6 06       		.uleb128 0x6
 903 03d7 E8040000 		.4byte	.LASF65
 904 03db 0A       		.byte	0xa
 905 03dc 2D       		.byte	0x2d
ARM GAS  /tmp/ccZfLNxd.s 			page 17


 906 03dd 7D020000 		.4byte	0x27d
 907 03e1 00       		.byte	0
 908 03e2 06       		.uleb128 0x6
 909 03e3 32070000 		.4byte	.LASF66
 910 03e7 0A       		.byte	0xa
 911 03e8 2F       		.byte	0x2f
 912 03e9 77020000 		.4byte	0x277
 913 03ed 08       		.byte	0x8
 914 03ee 06       		.uleb128 0x6
 915 03ef 20060000 		.4byte	.LASF67
 916 03f3 0A       		.byte	0xa
 917 03f4 31       		.byte	0x31
 918 03f5 FB030000 		.4byte	0x3fb
 919 03f9 0C       		.byte	0xc
 920 03fa 00       		.byte	0
 921 03fb 09       		.uleb128 0x9
 922 03fc 04       		.byte	0x4
 923 03fd CA030000 		.4byte	0x3ca
 924 0401 03       		.uleb128 0x3
 925 0402 F4030000 		.4byte	.LASF64
 926 0406 0A       		.byte	0xa
 927 0407 33       		.byte	0x33
 928 0408 CA030000 		.4byte	0x3ca
 929 040c 03       		.uleb128 0x3
 930 040d EA060000 		.4byte	.LASF68
 931 0411 0B       		.byte	0xb
 932 0412 2C       		.byte	0x2c
 933 0413 17040000 		.4byte	0x417
 934 0417 05       		.uleb128 0x5
 935 0418 EA060000 		.4byte	.LASF68
 936 041c 10       		.byte	0x10
 937 041d 0B       		.byte	0xb
 938 041e 31       		.byte	0x31
 939 041f 54040000 		.4byte	0x454
 940 0423 06       		.uleb128 0x6
 941 0424 5C050000 		.4byte	.LASF69
 942 0428 0B       		.byte	0xb
 943 0429 32       		.byte	0x32
 944 042a 54040000 		.4byte	0x454
 945 042e 00       		.byte	0
 946 042f 06       		.uleb128 0x6
 947 0430 04050000 		.4byte	.LASF70
 948 0434 0B       		.byte	0xb
 949 0435 35       		.byte	0x35
 950 0436 77020000 		.4byte	0x277
 951 043a 04       		.byte	0x4
 952 043b 06       		.uleb128 0x6
 953 043c 24040000 		.4byte	.LASF71
 954 0440 0B       		.byte	0xb
 955 0441 37       		.byte	0x37
 956 0442 2D010000 		.4byte	0x12d
 957 0446 08       		.byte	0x8
 958 0447 06       		.uleb128 0x6
 959 0448 10050000 		.4byte	.LASF72
 960 044c 0B       		.byte	0xb
 961 044d 3A       		.byte	0x3a
 962 044e 38010000 		.4byte	0x138
ARM GAS  /tmp/ccZfLNxd.s 			page 18


 963 0452 0C       		.byte	0xc
 964 0453 00       		.byte	0
 965 0454 09       		.uleb128 0x9
 966 0455 04       		.byte	0x4
 967 0456 0C040000 		.4byte	0x40c
 968 045a 05       		.uleb128 0x5
 969 045b 69020000 		.4byte	.LASF73
 970 045f 04       		.byte	0x4
 971 0460 0B       		.byte	0xb
 972 0461 41       		.byte	0x41
 973 0462 73040000 		.4byte	0x473
 974 0466 06       		.uleb128 0x6
 975 0467 9F010000 		.4byte	.LASF74
 976 046b 0B       		.byte	0xb
 977 046c 42       		.byte	0x42
 978 046d 54040000 		.4byte	0x454
 979 0471 00       		.byte	0
 980 0472 00       		.byte	0
 981 0473 03       		.uleb128 0x3
 982 0474 69020000 		.4byte	.LASF73
 983 0478 0B       		.byte	0xb
 984 0479 45       		.byte	0x45
 985 047a 5A040000 		.4byte	0x45a
 986 047e 0E       		.uleb128 0xe
 987 047f 04       		.byte	0x4
 988 0480 07       		.byte	0x7
 989 0481 96       		.byte	0x96
 990 0482 B3040000 		.4byte	0x4b3
 991 0486 0F       		.uleb128 0xf
 992 0487 21000000 		.4byte	.LASF75
 993 048b 07       		.byte	0x7
 994 048c 9D       		.byte	0x9d
 995 048d 22010000 		.4byte	0x122
 996 0491 0F       		.uleb128 0xf
 997 0492 3C010000 		.4byte	.LASF76
 998 0496 07       		.byte	0x7
 999 0497 A4       		.byte	0xa4
 1000 0498 22010000 		.4byte	0x122
 1001 049c 0F       		.uleb128 0xf
 1002 049d F8060000 		.4byte	.LASF77
 1003 04a1 07       		.byte	0x7
 1004 04a2 AB       		.byte	0xab
 1005 04a3 B3020000 		.4byte	0x2b3
 1006 04a7 0F       		.uleb128 0xf
 1007 04a8 46050000 		.4byte	.LASF78
 1008 04ac 07       		.byte	0x7
 1009 04ad B2       		.byte	0xb2
 1010 04ae 2D010000 		.4byte	0x12d
 1011 04b2 00       		.byte	0
 1012 04b3 09       		.uleb128 0x9
 1013 04b4 04       		.byte	0x4
 1014 04b5 B9040000 		.4byte	0x4b9
 1015 04b9 10       		.uleb128 0x10
 1016 04ba BE040000 		.4byte	0x4be
 1017 04be 04       		.uleb128 0x4
 1018 04bf 01       		.byte	0x1
 1019 04c0 08       		.byte	0x8
ARM GAS  /tmp/ccZfLNxd.s 			page 19


 1020 04c1 F2050000 		.4byte	.LASF79
 1021 04c5 09       		.uleb128 0x9
 1022 04c6 04       		.byte	0x4
 1023 04c7 01040000 		.4byte	0x401
 1024 04cb 03       		.uleb128 0x3
 1025 04cc 00000000 		.4byte	.LASF80
 1026 04d0 07       		.byte	0x7
 1027 04d1 E5       		.byte	0xe5
 1028 04d2 D6040000 		.4byte	0x4d6
 1029 04d6 09       		.uleb128 0x9
 1030 04d7 04       		.byte	0x4
 1031 04d8 DC040000 		.4byte	0x4dc
 1032 04dc 11       		.uleb128 0x11
 1033 04dd 22010000 		.4byte	0x122
 1034 04e1 EB040000 		.4byte	0x4eb
 1035 04e5 12       		.uleb128 0x12
 1036 04e6 B3020000 		.4byte	0x2b3
 1037 04ea 00       		.byte	0
 1038 04eb 03       		.uleb128 0x3
 1039 04ec 61030000 		.4byte	.LASF81
 1040 04f0 0C       		.byte	0xc
 1041 04f1 37       		.byte	0x37
 1042 04f2 F6040000 		.4byte	0x4f6
 1043 04f6 05       		.uleb128 0x5
 1044 04f7 61030000 		.4byte	.LASF81
 1045 04fb 24       		.byte	0x24
 1046 04fc 0C       		.byte	0xc
 1047 04fd 45       		.byte	0x45
 1048 04fe 63050000 		.4byte	0x563
 1049 0502 06       		.uleb128 0x6
 1050 0503 FB000000 		.4byte	.LASF82
 1051 0507 0C       		.byte	0xc
 1052 0508 46       		.byte	0x46
 1053 0509 7D020000 		.4byte	0x27d
 1054 050d 00       		.byte	0
 1055 050e 06       		.uleb128 0x6
 1056 050f 9E050000 		.4byte	.LASF83
 1057 0513 0C       		.byte	0xc
 1058 0514 47       		.byte	0x47
 1059 0515 2C000000 		.4byte	0x2c
 1060 0519 08       		.byte	0x8
 1061 051a 06       		.uleb128 0x6
 1062 051b 0F020000 		.4byte	.LASF84
 1063 051f 0C       		.byte	0xc
 1064 0520 48       		.byte	0x48
 1065 0521 85050000 		.4byte	0x585
 1066 0525 0C       		.byte	0xc
 1067 0526 06       		.uleb128 0x6
 1068 0527 94060000 		.4byte	.LASF85
 1069 052b 0C       		.byte	0xc
 1070 052c 49       		.byte	0x49
 1071 052d 85050000 		.4byte	0x585
 1072 0531 10       		.byte	0x10
 1073 0532 06       		.uleb128 0x6
 1074 0533 18020000 		.4byte	.LASF86
 1075 0537 0C       		.byte	0xc
 1076 0538 4B       		.byte	0x4b
ARM GAS  /tmp/ccZfLNxd.s 			page 20


 1077 0539 85050000 		.4byte	0x585
 1078 053d 14       		.byte	0x14
 1079 053e 06       		.uleb128 0x6
 1080 053f C4040000 		.4byte	.LASF87
 1081 0543 0C       		.byte	0xc
 1082 0544 4C       		.byte	0x4c
 1083 0545 85050000 		.4byte	0x585
 1084 0549 18       		.byte	0x18
 1085 054a 06       		.uleb128 0x6
 1086 054b B5060000 		.4byte	.LASF88
 1087 054f 0C       		.byte	0xc
 1088 0550 4D       		.byte	0x4d
 1089 0551 63050000 		.4byte	0x563
 1090 0555 1C       		.byte	0x1c
 1091 0556 06       		.uleb128 0x6
 1092 0557 20020000 		.4byte	.LASF89
 1093 055b 0C       		.byte	0xc
 1094 055c 4E       		.byte	0x4e
 1095 055d B3020000 		.4byte	0x2b3
 1096 0561 20       		.byte	0x20
 1097 0562 00       		.byte	0
 1098 0563 03       		.uleb128 0x3
 1099 0564 57030000 		.4byte	.LASF90
 1100 0568 0C       		.byte	0xc
 1101 0569 3A       		.byte	0x3a
 1102 056a 6E050000 		.4byte	0x56e
 1103 056e 09       		.uleb128 0x9
 1104 056f 04       		.byte	0x4
 1105 0570 74050000 		.4byte	0x574
 1106 0574 13       		.uleb128 0x13
 1107 0575 7F050000 		.4byte	0x57f
 1108 0579 12       		.uleb128 0x12
 1109 057a 7F050000 		.4byte	0x57f
 1110 057e 00       		.byte	0
 1111 057f 09       		.uleb128 0x9
 1112 0580 04       		.byte	0x4
 1113 0581 EB040000 		.4byte	0x4eb
 1114 0585 09       		.uleb128 0x9
 1115 0586 04       		.byte	0x4
 1116 0587 AD000000 		.4byte	0xad
 1117 058b 03       		.uleb128 0x3
 1118 058c 46030000 		.4byte	.LASF91
 1119 0590 0C       		.byte	0xc
 1120 0591 82       		.byte	0x82
 1121 0592 EB040000 		.4byte	0x4eb
 1122 0596 03       		.uleb128 0x3
 1123 0597 D9000000 		.4byte	.LASF92
 1124 059b 0C       		.byte	0xc
 1125 059c F5       		.byte	0xf5
 1126 059d EB040000 		.4byte	0x4eb
 1127 05a1 11       		.uleb128 0x11
 1128 05a2 2C000000 		.4byte	0x2c
 1129 05a6 BA050000 		.4byte	0x5ba
 1130 05aa 12       		.uleb128 0x12
 1131 05ab B3020000 		.4byte	0x2b3
 1132 05af 12       		.uleb128 0x12
 1133 05b0 BA050000 		.4byte	0x5ba
ARM GAS  /tmp/ccZfLNxd.s 			page 21


 1134 05b4 12       		.uleb128 0x12
 1135 05b5 2C000000 		.4byte	0x2c
 1136 05b9 00       		.byte	0
 1137 05ba 09       		.uleb128 0x9
 1138 05bb 04       		.byte	0x4
 1139 05bc C0050000 		.4byte	0x5c0
 1140 05c0 10       		.uleb128 0x10
 1141 05c1 AD000000 		.4byte	0xad
 1142 05c5 09       		.uleb128 0x9
 1143 05c6 04       		.byte	0x4
 1144 05c7 A1050000 		.4byte	0x5a1
 1145 05cb 11       		.uleb128 0x11
 1146 05cc 2C000000 		.4byte	0x2c
 1147 05d0 E4050000 		.4byte	0x5e4
 1148 05d4 12       		.uleb128 0x12
 1149 05d5 B3020000 		.4byte	0x2b3
 1150 05d9 12       		.uleb128 0x12
 1151 05da 85050000 		.4byte	0x585
 1152 05de 12       		.uleb128 0x12
 1153 05df 2C000000 		.4byte	0x2c
 1154 05e3 00       		.byte	0
 1155 05e4 09       		.uleb128 0x9
 1156 05e5 04       		.byte	0x4
 1157 05e6 CB050000 		.4byte	0x5cb
 1158 05ea 11       		.uleb128 0x11
 1159 05eb 22010000 		.4byte	0x122
 1160 05ef FE050000 		.4byte	0x5fe
 1161 05f3 12       		.uleb128 0x12
 1162 05f4 B3020000 		.4byte	0x2b3
 1163 05f8 12       		.uleb128 0x12
 1164 05f9 AD000000 		.4byte	0xad
 1165 05fd 00       		.byte	0
 1166 05fe 09       		.uleb128 0x9
 1167 05ff 04       		.byte	0x4
 1168 0600 EA050000 		.4byte	0x5ea
 1169 0604 14       		.uleb128 0x14
 1170 0605 CE000000 		.4byte	0xce
 1171 0609 14060000 		.4byte	0x614
 1172 060d 15       		.uleb128 0x15
 1173 060e 62030000 		.4byte	0x362
 1174 0612 03       		.byte	0x3
 1175 0613 00       		.byte	0
 1176 0614 0D       		.uleb128 0xd
 1177 0615 B8000000 		.4byte	0xb8
 1178 0619 0D       		.uleb128 0xd
 1179 061a C3000000 		.4byte	0xc3
 1180 061e 16       		.uleb128 0x16
 1181 061f 1C       		.byte	0x1c
 1182 0620 0D       		.byte	0xd
 1183 0621 2905     		.2byte	0x529
 1184 0623 DC060000 		.4byte	0x6dc
 1185 0627 0C       		.uleb128 0xc
 1186 0628 535200   		.ascii	"SR\000"
 1187 062b 0D       		.byte	0xd
 1188 062c 2B05     		.2byte	0x52b
 1189 062e 14060000 		.4byte	0x614
 1190 0632 00       		.byte	0
ARM GAS  /tmp/ccZfLNxd.s 			page 22


 1191 0633 17       		.uleb128 0x17
 1192 0634 79040000 		.4byte	.LASF93
 1193 0638 0D       		.byte	0xd
 1194 0639 2C05     		.2byte	0x52c
 1195 063b B8000000 		.4byte	0xb8
 1196 063f 02       		.byte	0x2
 1197 0640 0C       		.uleb128 0xc
 1198 0641 445200   		.ascii	"DR\000"
 1199 0644 0D       		.byte	0xd
 1200 0645 2D05     		.2byte	0x52d
 1201 0647 14060000 		.4byte	0x614
 1202 064b 04       		.byte	0x4
 1203 064c 17       		.uleb128 0x17
 1204 064d 83040000 		.4byte	.LASF94
 1205 0651 0D       		.byte	0xd
 1206 0652 2E05     		.2byte	0x52e
 1207 0654 B8000000 		.4byte	0xb8
 1208 0658 06       		.byte	0x6
 1209 0659 0C       		.uleb128 0xc
 1210 065a 42525200 		.ascii	"BRR\000"
 1211 065e 0D       		.byte	0xd
 1212 065f 2F05     		.2byte	0x52f
 1213 0661 14060000 		.4byte	0x614
 1214 0665 08       		.byte	0x8
 1215 0666 17       		.uleb128 0x17
 1216 0667 8D040000 		.4byte	.LASF95
 1217 066b 0D       		.byte	0xd
 1218 066c 3005     		.2byte	0x530
 1219 066e B8000000 		.4byte	0xb8
 1220 0672 0A       		.byte	0xa
 1221 0673 0C       		.uleb128 0xc
 1222 0674 43523100 		.ascii	"CR1\000"
 1223 0678 0D       		.byte	0xd
 1224 0679 3105     		.2byte	0x531
 1225 067b 14060000 		.4byte	0x614
 1226 067f 0C       		.byte	0xc
 1227 0680 17       		.uleb128 0x17
 1228 0681 97040000 		.4byte	.LASF96
 1229 0685 0D       		.byte	0xd
 1230 0686 3205     		.2byte	0x532
 1231 0688 B8000000 		.4byte	0xb8
 1232 068c 0E       		.byte	0xe
 1233 068d 0C       		.uleb128 0xc
 1234 068e 43523200 		.ascii	"CR2\000"
 1235 0692 0D       		.byte	0xd
 1236 0693 3305     		.2byte	0x533
 1237 0695 14060000 		.4byte	0x614
 1238 0699 10       		.byte	0x10
 1239 069a 17       		.uleb128 0x17
 1240 069b A1040000 		.4byte	.LASF97
 1241 069f 0D       		.byte	0xd
 1242 06a0 3405     		.2byte	0x534
 1243 06a2 B8000000 		.4byte	0xb8
 1244 06a6 12       		.byte	0x12
 1245 06a7 0C       		.uleb128 0xc
 1246 06a8 43523300 		.ascii	"CR3\000"
 1247 06ac 0D       		.byte	0xd
ARM GAS  /tmp/ccZfLNxd.s 			page 23


 1248 06ad 3505     		.2byte	0x535
 1249 06af 14060000 		.4byte	0x614
 1250 06b3 14       		.byte	0x14
 1251 06b4 17       		.uleb128 0x17
 1252 06b5 94050000 		.4byte	.LASF98
 1253 06b9 0D       		.byte	0xd
 1254 06ba 3605     		.2byte	0x536
 1255 06bc B8000000 		.4byte	0xb8
 1256 06c0 16       		.byte	0x16
 1257 06c1 17       		.uleb128 0x17
 1258 06c2 B1010000 		.4byte	.LASF99
 1259 06c6 0D       		.byte	0xd
 1260 06c7 3705     		.2byte	0x537
 1261 06c9 14060000 		.4byte	0x614
 1262 06cd 18       		.byte	0x18
 1263 06ce 17       		.uleb128 0x17
 1264 06cf B2040000 		.4byte	.LASF100
 1265 06d3 0D       		.byte	0xd
 1266 06d4 3805     		.2byte	0x538
 1267 06d6 B8000000 		.4byte	0xb8
 1268 06da 1A       		.byte	0x1a
 1269 06db 00       		.byte	0
 1270 06dc 18       		.uleb128 0x18
 1271 06dd 05030000 		.4byte	.LASF101
 1272 06e1 0D       		.byte	0xd
 1273 06e2 3905     		.2byte	0x539
 1274 06e4 1E060000 		.4byte	0x61e
 1275 06e8 11       		.uleb128 0x11
 1276 06e9 22010000 		.4byte	0x122
 1277 06ed 01070000 		.4byte	0x701
 1278 06f1 12       		.uleb128 0x12
 1279 06f2 B3020000 		.4byte	0x2b3
 1280 06f6 12       		.uleb128 0x12
 1281 06f7 AD000000 		.4byte	0xad
 1282 06fb 12       		.uleb128 0x12
 1283 06fc 43010000 		.4byte	0x143
 1284 0700 00       		.byte	0
 1285 0701 09       		.uleb128 0x9
 1286 0702 04       		.byte	0x4
 1287 0703 E8060000 		.4byte	0x6e8
 1288 0707 11       		.uleb128 0x11
 1289 0708 22010000 		.4byte	0x122
 1290 070c 1B070000 		.4byte	0x71b
 1291 0710 12       		.uleb128 0x12
 1292 0711 B3020000 		.4byte	0x2b3
 1293 0715 12       		.uleb128 0x12
 1294 0716 43010000 		.4byte	0x143
 1295 071a 00       		.byte	0
 1296 071b 09       		.uleb128 0x9
 1297 071c 04       		.byte	0x4
 1298 071d 07070000 		.4byte	0x707
 1299 0721 11       		.uleb128 0x11
 1300 0722 2C000000 		.4byte	0x2c
 1301 0726 3F070000 		.4byte	0x73f
 1302 072a 12       		.uleb128 0x12
 1303 072b B3020000 		.4byte	0x2b3
 1304 072f 12       		.uleb128 0x12
ARM GAS  /tmp/ccZfLNxd.s 			page 24


 1305 0730 BA050000 		.4byte	0x5ba
 1306 0734 12       		.uleb128 0x12
 1307 0735 2C000000 		.4byte	0x2c
 1308 0739 12       		.uleb128 0x12
 1309 073a 43010000 		.4byte	0x143
 1310 073e 00       		.byte	0
 1311 073f 09       		.uleb128 0x9
 1312 0740 04       		.byte	0x4
 1313 0741 21070000 		.4byte	0x721
 1314 0745 11       		.uleb128 0x11
 1315 0746 2C000000 		.4byte	0x2c
 1316 074a 63070000 		.4byte	0x763
 1317 074e 12       		.uleb128 0x12
 1318 074f B3020000 		.4byte	0x2b3
 1319 0753 12       		.uleb128 0x12
 1320 0754 85050000 		.4byte	0x585
 1321 0758 12       		.uleb128 0x12
 1322 0759 2C000000 		.4byte	0x2c
 1323 075d 12       		.uleb128 0x12
 1324 075e 43010000 		.4byte	0x143
 1325 0762 00       		.byte	0
 1326 0763 09       		.uleb128 0x9
 1327 0764 04       		.byte	0x4
 1328 0765 45070000 		.4byte	0x745
 1329 0769 08       		.uleb128 0x8
 1330 076a 04       		.byte	0x4
 1331 076b 0E       		.byte	0xe
 1332 076c 96       		.byte	0x96
 1333 076d 8A070000 		.4byte	0x78a
 1334 0771 07       		.uleb128 0x7
 1335 0772 73657400 		.ascii	"set\000"
 1336 0776 0E       		.byte	0xe
 1337 0777 97       		.byte	0x97
 1338 0778 B8000000 		.4byte	0xb8
 1339 077c 00       		.byte	0
 1340 077d 06       		.uleb128 0x6
 1341 077e EE030000 		.4byte	.LASF102
 1342 0782 0E       		.byte	0xe
 1343 0783 98       		.byte	0x98
 1344 0784 B8000000 		.4byte	0xb8
 1345 0788 02       		.byte	0x2
 1346 0789 00       		.byte	0
 1347 078a 0E       		.uleb128 0xe
 1348 078b 04       		.byte	0x4
 1349 078c 0E       		.byte	0xe
 1350 078d 94       		.byte	0x94
 1351 078e A5070000 		.4byte	0x7a5
 1352 0792 19       		.uleb128 0x19
 1353 0793 5700     		.ascii	"W\000"
 1354 0795 0E       		.byte	0xe
 1355 0796 95       		.byte	0x95
 1356 0797 CE000000 		.4byte	0xce
 1357 079b 19       		.uleb128 0x19
 1358 079c 4800     		.ascii	"H\000"
 1359 079e 0E       		.byte	0xe
 1360 079f 99       		.byte	0x99
 1361 07a0 69070000 		.4byte	0x769
ARM GAS  /tmp/ccZfLNxd.s 			page 25


 1362 07a4 00       		.byte	0
 1363 07a5 08       		.uleb128 0x8
 1364 07a6 28       		.byte	0x28
 1365 07a7 0E       		.byte	0xe
 1366 07a8 8C       		.byte	0x8c
 1367 07a9 26080000 		.4byte	0x826
 1368 07ad 06       		.uleb128 0x6
 1369 07ae 19010000 		.4byte	.LASF103
 1370 07b2 0E       		.byte	0xe
 1371 07b3 8E       		.byte	0x8e
 1372 07b4 5D030000 		.4byte	0x35d
 1373 07b8 00       		.byte	0
 1374 07b9 06       		.uleb128 0x6
 1375 07ba EF000000 		.4byte	.LASF104
 1376 07be 0E       		.byte	0xe
 1377 07bf 8F       		.byte	0x8f
 1378 07c0 5D030000 		.4byte	0x35d
 1379 07c4 04       		.byte	0x4
 1380 07c5 06       		.uleb128 0x6
 1381 07c6 48020000 		.4byte	.LASF105
 1382 07ca 0E       		.byte	0xe
 1383 07cb 90       		.byte	0x90
 1384 07cc 5D030000 		.4byte	0x35d
 1385 07d0 08       		.byte	0x8
 1386 07d1 06       		.uleb128 0x6
 1387 07d2 36010000 		.4byte	.LASF106
 1388 07d6 0E       		.byte	0xe
 1389 07d7 91       		.byte	0x91
 1390 07d8 5D030000 		.4byte	0x35d
 1391 07dc 0C       		.byte	0xc
 1392 07dd 07       		.uleb128 0x7
 1393 07de 49445200 		.ascii	"IDR\000"
 1394 07e2 0E       		.byte	0xe
 1395 07e3 92       		.byte	0x92
 1396 07e4 5D030000 		.4byte	0x35d
 1397 07e8 10       		.byte	0x10
 1398 07e9 07       		.uleb128 0x7
 1399 07ea 4F445200 		.ascii	"ODR\000"
 1400 07ee 0E       		.byte	0xe
 1401 07ef 93       		.byte	0x93
 1402 07f0 5D030000 		.4byte	0x35d
 1403 07f4 14       		.byte	0x14
 1404 07f5 06       		.uleb128 0x6
 1405 07f6 93020000 		.4byte	.LASF107
 1406 07fa 0E       		.byte	0xe
 1407 07fb 9A       		.byte	0x9a
 1408 07fc 26080000 		.4byte	0x826
 1409 0800 18       		.byte	0x18
 1410 0801 06       		.uleb128 0x6
 1411 0802 F6000000 		.4byte	.LASF108
 1412 0806 0E       		.byte	0xe
 1413 0807 9B       		.byte	0x9b
 1414 0808 5D030000 		.4byte	0x35d
 1415 080c 1C       		.byte	0x1c
 1416 080d 06       		.uleb128 0x6
 1417 080e 54040000 		.4byte	.LASF109
 1418 0812 0E       		.byte	0xe
ARM GAS  /tmp/ccZfLNxd.s 			page 26


 1419 0813 9C       		.byte	0x9c
 1420 0814 5D030000 		.4byte	0x35d
 1421 0818 20       		.byte	0x20
 1422 0819 06       		.uleb128 0x6
 1423 081a 4F040000 		.4byte	.LASF110
 1424 081e 0E       		.byte	0xe
 1425 081f 9D       		.byte	0x9d
 1426 0820 5D030000 		.4byte	0x35d
 1427 0824 24       		.byte	0x24
 1428 0825 00       		.byte	0
 1429 0826 0D       		.uleb128 0xd
 1430 0827 8A070000 		.4byte	0x78a
 1431 082b 03       		.uleb128 0x3
 1432 082c CA020000 		.4byte	.LASF111
 1433 0830 0E       		.byte	0xe
 1434 0831 9E       		.byte	0x9e
 1435 0832 A5070000 		.4byte	0x7a5
 1436 0836 03       		.uleb128 0x3
 1437 0837 05010000 		.4byte	.LASF112
 1438 083b 0E       		.byte	0xe
 1439 083c F0       		.byte	0xf0
 1440 083d CE000000 		.4byte	0xce
 1441 0841 1A       		.uleb128 0x1a
 1442 0842 01       		.byte	0x1
 1443 0843 0F       		.byte	0xf
 1444 0844 55       		.byte	0x55
 1445 0845 5C080000 		.4byte	0x85c
 1446 0849 1B       		.uleb128 0x1b
 1447 084a 27070000 		.4byte	.LASF113
 1448 084e 00       		.sleb128 0
 1449 084f 1B       		.uleb128 0x1b
 1450 0850 F0040000 		.4byte	.LASF114
 1451 0854 01       		.sleb128 1
 1452 0855 1B       		.uleb128 0x1b
 1453 0856 68010000 		.4byte	.LASF115
 1454 085a 02       		.sleb128 2
 1455 085b 00       		.byte	0
 1456 085c 03       		.uleb128 0x3
 1457 085d D6060000 		.4byte	.LASF116
 1458 0861 0F       		.byte	0xf
 1459 0862 59       		.byte	0x59
 1460 0863 41080000 		.4byte	0x841
 1461 0867 03       		.uleb128 0x3
 1462 0868 CC060000 		.4byte	.LASF117
 1463 086c 0F       		.byte	0xf
 1464 086d 5E       		.byte	0x5e
 1465 086e 72080000 		.4byte	0x872
 1466 0872 0B       		.uleb128 0xb
 1467 0873 CC060000 		.4byte	.LASF117
 1468 0877 14       		.byte	0x14
 1469 0878 10       		.byte	0x10
 1470 0879 6F01     		.2byte	0x16f
 1471 087b C1080000 		.4byte	0x8c1
 1472 087f 17       		.uleb128 0x17
 1473 0880 CF010000 		.4byte	.LASF118
 1474 0884 10       		.byte	0x10
 1475 0885 7301     		.2byte	0x173
ARM GAS  /tmp/ccZfLNxd.s 			page 27


 1476 0887 5C080000 		.4byte	0x85c
 1477 088b 00       		.byte	0
 1478 088c 17       		.uleb128 0x17
 1479 088d 07060000 		.4byte	.LASF119
 1480 0891 10       		.byte	0x10
 1481 0892 7701     		.2byte	0x177
 1482 0894 D50A0000 		.4byte	0xad5
 1483 0898 04       		.byte	0x4
 1484 0899 17       		.uleb128 0x17
 1485 089a 12010000 		.4byte	.LASF120
 1486 089e 10       		.byte	0x10
 1487 089f 7B01     		.2byte	0x17b
 1488 08a1 250A0000 		.4byte	0xa25
 1489 08a5 08       		.byte	0x8
 1490 08a6 17       		.uleb128 0x17
 1491 08a7 16070000 		.4byte	.LASF121
 1492 08ab 10       		.byte	0x10
 1493 08ac 8301     		.2byte	0x183
 1494 08ae CE000000 		.4byte	0xce
 1495 08b2 0C       		.byte	0xc
 1496 08b3 0C       		.uleb128 0xc
 1497 08b4 74696D00 		.ascii	"tim\000"
 1498 08b8 10       		.byte	0x10
 1499 08b9 8701     		.2byte	0x187
 1500 08bb E00A0000 		.4byte	0xae0
 1501 08bf 10       		.byte	0x10
 1502 08c0 00       		.byte	0
 1503 08c1 03       		.uleb128 0x3
 1504 08c2 63040000 		.4byte	.LASF122
 1505 08c6 0F       		.byte	0xf
 1506 08c7 65       		.byte	0x65
 1507 08c8 CC080000 		.4byte	0x8cc
 1508 08cc 09       		.uleb128 0x9
 1509 08cd 04       		.byte	0x4
 1510 08ce D2080000 		.4byte	0x8d2
 1511 08d2 13       		.uleb128 0x13
 1512 08d3 DD080000 		.4byte	0x8dd
 1513 08d7 12       		.uleb128 0x12
 1514 08d8 DD080000 		.4byte	0x8dd
 1515 08dc 00       		.byte	0
 1516 08dd 09       		.uleb128 0x9
 1517 08de 04       		.byte	0x4
 1518 08df 67080000 		.4byte	0x867
 1519 08e3 16       		.uleb128 0x16
 1520 08e4 60       		.byte	0x60
 1521 08e5 11       		.byte	0x11
 1522 08e6 9E01     		.2byte	0x19e
 1523 08e8 FC090000 		.4byte	0x9fc
 1524 08ec 0C       		.uleb128 0xc
 1525 08ed 43523100 		.ascii	"CR1\000"
 1526 08f1 11       		.byte	0x11
 1527 08f2 9F01     		.2byte	0x19f
 1528 08f4 5D030000 		.4byte	0x35d
 1529 08f8 00       		.byte	0
 1530 08f9 0C       		.uleb128 0xc
 1531 08fa 43523200 		.ascii	"CR2\000"
 1532 08fe 11       		.byte	0x11
ARM GAS  /tmp/ccZfLNxd.s 			page 28


 1533 08ff A001     		.2byte	0x1a0
 1534 0901 5D030000 		.4byte	0x35d
 1535 0905 04       		.byte	0x4
 1536 0906 17       		.uleb128 0x17
 1537 0907 EA020000 		.4byte	.LASF123
 1538 090b 11       		.byte	0x11
 1539 090c A101     		.2byte	0x1a1
 1540 090e 5D030000 		.4byte	0x35d
 1541 0912 08       		.byte	0x8
 1542 0913 17       		.uleb128 0x17
 1543 0914 15000000 		.4byte	.LASF124
 1544 0918 11       		.byte	0x11
 1545 0919 A201     		.2byte	0x1a2
 1546 091b 5D030000 		.4byte	0x35d
 1547 091f 0C       		.byte	0xc
 1548 0920 0C       		.uleb128 0xc
 1549 0921 535200   		.ascii	"SR\000"
 1550 0924 11       		.byte	0x11
 1551 0925 A301     		.2byte	0x1a3
 1552 0927 5D030000 		.4byte	0x35d
 1553 092b 10       		.byte	0x10
 1554 092c 0C       		.uleb128 0xc
 1555 092d 45475200 		.ascii	"EGR\000"
 1556 0931 11       		.byte	0x11
 1557 0932 A401     		.2byte	0x1a4
 1558 0934 5D030000 		.4byte	0x35d
 1559 0938 14       		.byte	0x14
 1560 0939 17       		.uleb128 0x17
 1561 093a 81010000 		.4byte	.LASF125
 1562 093e 11       		.byte	0x11
 1563 093f A501     		.2byte	0x1a5
 1564 0941 5D030000 		.4byte	0x35d
 1565 0945 18       		.byte	0x18
 1566 0946 17       		.uleb128 0x17
 1567 0947 87010000 		.4byte	.LASF126
 1568 094b 11       		.byte	0x11
 1569 094c A601     		.2byte	0x1a6
 1570 094e 5D030000 		.4byte	0x35d
 1571 0952 1C       		.byte	0x1c
 1572 0953 17       		.uleb128 0x17
 1573 0954 1B060000 		.4byte	.LASF127
 1574 0958 11       		.byte	0x11
 1575 0959 A701     		.2byte	0x1a7
 1576 095b 5D030000 		.4byte	0x35d
 1577 095f 20       		.byte	0x20
 1578 0960 0C       		.uleb128 0xc
 1579 0961 434E5400 		.ascii	"CNT\000"
 1580 0965 11       		.byte	0x11
 1581 0966 A801     		.2byte	0x1a8
 1582 0968 5D030000 		.4byte	0x35d
 1583 096c 24       		.byte	0x24
 1584 096d 0C       		.uleb128 0xc
 1585 096e 50534300 		.ascii	"PSC\000"
 1586 0972 11       		.byte	0x11
 1587 0973 A901     		.2byte	0x1a9
 1588 0975 5D030000 		.4byte	0x35d
 1589 0979 28       		.byte	0x28
ARM GAS  /tmp/ccZfLNxd.s 			page 29


 1590 097a 0C       		.uleb128 0xc
 1591 097b 41525200 		.ascii	"ARR\000"
 1592 097f 11       		.byte	0x11
 1593 0980 AA01     		.2byte	0x1aa
 1594 0982 5D030000 		.4byte	0x35d
 1595 0986 2C       		.byte	0x2c
 1596 0987 0C       		.uleb128 0xc
 1597 0988 52435200 		.ascii	"RCR\000"
 1598 098c 11       		.byte	0x11
 1599 098d AB01     		.2byte	0x1ab
 1600 098f 5D030000 		.4byte	0x35d
 1601 0993 30       		.byte	0x30
 1602 0994 0C       		.uleb128 0xc
 1603 0995 43435200 		.ascii	"CCR\000"
 1604 0999 11       		.byte	0x11
 1605 099a AC01     		.2byte	0x1ac
 1606 099c FC090000 		.4byte	0x9fc
 1607 09a0 34       		.byte	0x34
 1608 09a1 17       		.uleb128 0x17
 1609 09a2 52010000 		.4byte	.LASF128
 1610 09a6 11       		.byte	0x11
 1611 09a7 AD01     		.2byte	0x1ad
 1612 09a9 5D030000 		.4byte	0x35d
 1613 09ad 44       		.byte	0x44
 1614 09ae 0C       		.uleb128 0xc
 1615 09af 44435200 		.ascii	"DCR\000"
 1616 09b3 11       		.byte	0x11
 1617 09b4 AE01     		.2byte	0x1ae
 1618 09b6 5D030000 		.4byte	0x35d
 1619 09ba 48       		.byte	0x48
 1620 09bb 17       		.uleb128 0x17
 1621 09bc 16060000 		.4byte	.LASF129
 1622 09c0 11       		.byte	0x11
 1623 09c1 AF01     		.2byte	0x1af
 1624 09c3 5D030000 		.4byte	0x35d
 1625 09c7 4C       		.byte	0x4c
 1626 09c8 0C       		.uleb128 0xc
 1627 09c9 4F5200   		.ascii	"OR\000"
 1628 09cc 11       		.byte	0x11
 1629 09cd B001     		.2byte	0x1b0
 1630 09cf 5D030000 		.4byte	0x35d
 1631 09d3 50       		.byte	0x50
 1632 09d4 17       		.uleb128 0x17
 1633 09d5 8D010000 		.4byte	.LASF130
 1634 09d9 11       		.byte	0x11
 1635 09da B101     		.2byte	0x1b1
 1636 09dc 5D030000 		.4byte	0x35d
 1637 09e0 54       		.byte	0x54
 1638 09e1 17       		.uleb128 0x17
 1639 09e2 A1060000 		.4byte	.LASF131
 1640 09e6 11       		.byte	0x11
 1641 09e7 B201     		.2byte	0x1b2
 1642 09e9 5D030000 		.4byte	0x35d
 1643 09ed 58       		.byte	0x58
 1644 09ee 17       		.uleb128 0x17
 1645 09ef A6060000 		.4byte	.LASF132
 1646 09f3 11       		.byte	0x11
ARM GAS  /tmp/ccZfLNxd.s 			page 30


 1647 09f4 B301     		.2byte	0x1b3
 1648 09f6 5D030000 		.4byte	0x35d
 1649 09fa 5C       		.byte	0x5c
 1650 09fb 00       		.byte	0
 1651 09fc 0D       		.uleb128 0xd
 1652 09fd 04060000 		.4byte	0x604
 1653 0a01 18       		.uleb128 0x18
 1654 0a02 1A030000 		.4byte	.LASF133
 1655 0a06 11       		.byte	0x11
 1656 0a07 B401     		.2byte	0x1b4
 1657 0a09 E3080000 		.4byte	0x8e3
 1658 0a0d 18       		.uleb128 0x18
 1659 0a0e B6010000 		.4byte	.LASF134
 1660 0a12 10       		.byte	0x10
 1661 0a13 2001     		.2byte	0x120
 1662 0a15 CE000000 		.4byte	0xce
 1663 0a19 18       		.uleb128 0x18
 1664 0a1a 08000000 		.4byte	.LASF135
 1665 0a1e 10       		.byte	0x10
 1666 0a1f 2501     		.2byte	0x125
 1667 0a21 AD000000 		.4byte	0xad
 1668 0a25 18       		.uleb128 0x18
 1669 0a26 E1060000 		.4byte	.LASF136
 1670 0a2a 10       		.byte	0x10
 1671 0a2b 2A01     		.2byte	0x12a
 1672 0a2d B8000000 		.4byte	0xb8
 1673 0a31 16       		.uleb128 0x16
 1674 0a32 08       		.byte	0x8
 1675 0a33 10       		.byte	0x10
 1676 0a34 2F01     		.2byte	0x12f
 1677 0a36 550A0000 		.4byte	0xa55
 1678 0a3a 17       		.uleb128 0x17
 1679 0a3b 02060000 		.4byte	.LASF137
 1680 0a3f 10       		.byte	0x10
 1681 0a40 3301     		.2byte	0x133
 1682 0a42 0D0A0000 		.4byte	0xa0d
 1683 0a46 00       		.byte	0
 1684 0a47 17       		.uleb128 0x17
 1685 0a48 FC020000 		.4byte	.LASF138
 1686 0a4c 10       		.byte	0x10
 1687 0a4d 3901     		.2byte	0x139
 1688 0a4f C1080000 		.4byte	0x8c1
 1689 0a53 04       		.byte	0x4
 1690 0a54 00       		.byte	0
 1691 0a55 18       		.uleb128 0x18
 1692 0a56 63060000 		.4byte	.LASF139
 1693 0a5a 10       		.byte	0x10
 1694 0a5b 3B01     		.2byte	0x13b
 1695 0a5d 310A0000 		.4byte	0xa31
 1696 0a61 16       		.uleb128 0x16
 1697 0a62 34       		.byte	0x34
 1698 0a63 10       		.byte	0x10
 1699 0a64 4001     		.2byte	0x140
 1700 0a66 B90A0000 		.4byte	0xab9
 1701 0a6a 17       		.uleb128 0x17
 1702 0a6b 57010000 		.4byte	.LASF140
 1703 0a6f 10       		.byte	0x10
ARM GAS  /tmp/ccZfLNxd.s 			page 31


 1704 0a70 4601     		.2byte	0x146
 1705 0a72 CE000000 		.4byte	0xce
 1706 0a76 00       		.byte	0
 1707 0a77 17       		.uleb128 0x17
 1708 0a78 12010000 		.4byte	.LASF120
 1709 0a7c 10       		.byte	0x10
 1710 0a7d 4C01     		.2byte	0x14c
 1711 0a7f 250A0000 		.4byte	0xa25
 1712 0a83 04       		.byte	0x4
 1713 0a84 17       		.uleb128 0x17
 1714 0a85 FC020000 		.4byte	.LASF138
 1715 0a89 10       		.byte	0x10
 1716 0a8a 5201     		.2byte	0x152
 1717 0a8c C1080000 		.4byte	0x8c1
 1718 0a90 08       		.byte	0x8
 1719 0a91 17       		.uleb128 0x17
 1720 0a92 D5010000 		.4byte	.LASF141
 1721 0a96 10       		.byte	0x10
 1722 0a97 5601     		.2byte	0x156
 1723 0a99 B90A0000 		.4byte	0xab9
 1724 0a9d 0C       		.byte	0xc
 1725 0a9e 0C       		.uleb128 0xc
 1726 0a9f 63723200 		.ascii	"cr2\000"
 1727 0aa3 10       		.byte	0x10
 1728 0aa4 5C01     		.2byte	0x15c
 1729 0aa6 CE000000 		.4byte	0xce
 1730 0aaa 2C       		.byte	0x2c
 1731 0aab 17       		.uleb128 0x17
 1732 0aac 5B070000 		.4byte	.LASF142
 1733 0ab0 10       		.byte	0x10
 1734 0ab1 6901     		.2byte	0x169
 1735 0ab3 CE000000 		.4byte	0xce
 1736 0ab7 30       		.byte	0x30
 1737 0ab8 00       		.byte	0
 1738 0ab9 14       		.uleb128 0x14
 1739 0aba 550A0000 		.4byte	0xa55
 1740 0abe C90A0000 		.4byte	0xac9
 1741 0ac2 15       		.uleb128 0x15
 1742 0ac3 62030000 		.4byte	0x362
 1743 0ac7 03       		.byte	0x3
 1744 0ac8 00       		.byte	0
 1745 0ac9 18       		.uleb128 0x18
 1746 0aca BA050000 		.4byte	.LASF143
 1747 0ace 10       		.byte	0x10
 1748 0acf 6A01     		.2byte	0x16a
 1749 0ad1 610A0000 		.4byte	0xa61
 1750 0ad5 09       		.uleb128 0x9
 1751 0ad6 04       		.byte	0x4
 1752 0ad7 DB0A0000 		.4byte	0xadb
 1753 0adb 10       		.uleb128 0x10
 1754 0adc C90A0000 		.4byte	0xac9
 1755 0ae0 09       		.uleb128 0x9
 1756 0ae1 04       		.byte	0x4
 1757 0ae2 010A0000 		.4byte	0xa01
 1758 0ae6 1A       		.uleb128 0x1a
 1759 0ae7 01       		.byte	0x1
 1760 0ae8 12       		.byte	0x12
ARM GAS  /tmp/ccZfLNxd.s 			page 32


 1761 0ae9 64       		.byte	0x64
 1762 0aea 010B0000 		.4byte	0xb01
 1763 0aee 1B       		.uleb128 0x1b
 1764 0aef 8A050000 		.4byte	.LASF144
 1765 0af3 00       		.sleb128 0
 1766 0af4 1B       		.uleb128 0x1b
 1767 0af5 64050000 		.4byte	.LASF145
 1768 0af9 01       		.sleb128 1
 1769 0afa 1B       		.uleb128 0x1b
 1770 0afb 7B060000 		.4byte	.LASF146
 1771 0aff 02       		.sleb128 2
 1772 0b00 00       		.byte	0
 1773 0b01 03       		.uleb128 0x3
 1774 0b02 B0050000 		.4byte	.LASF147
 1775 0b06 12       		.byte	0x12
 1776 0b07 68       		.byte	0x68
 1777 0b08 E60A0000 		.4byte	0xae6
 1778 0b0c 03       		.uleb128 0x3
 1779 0b0d C4050000 		.4byte	.LASF148
 1780 0b11 12       		.byte	0x12
 1781 0b12 6D       		.byte	0x6d
 1782 0b13 170B0000 		.4byte	0xb17
 1783 0b17 05       		.uleb128 0x5
 1784 0b18 C4050000 		.4byte	.LASF148
 1785 0b1c 78       		.byte	0x78
 1786 0b1d 12       		.byte	0x12
 1787 0b1e 87       		.byte	0x87
 1788 0b1f 820B0000 		.4byte	0xb82
 1789 0b23 07       		.uleb128 0x7
 1790 0b24 766D7400 		.ascii	"vmt\000"
 1791 0b28 12       		.byte	0x12
 1792 0b29 89       		.byte	0x89
 1793 0b2a 330C0000 		.4byte	0xc33
 1794 0b2e 00       		.byte	0
 1795 0b2f 06       		.uleb128 0x6
 1796 0b30 E4020000 		.4byte	.LASF149
 1797 0b34 12       		.byte	0x12
 1798 0b35 8A       		.byte	0x8a
 1799 0b36 73040000 		.4byte	0x473
 1800 0b3a 04       		.byte	0x4
 1801 0b3b 06       		.uleb128 0x6
 1802 0b3c CF010000 		.4byte	.LASF118
 1803 0b40 12       		.byte	0x12
 1804 0b41 8A       		.byte	0x8a
 1805 0b42 010B0000 		.4byte	0xb01
 1806 0b46 08       		.byte	0x8
 1807 0b47 06       		.uleb128 0x6
 1808 0b48 B8020000 		.4byte	.LASF150
 1809 0b4c 12       		.byte	0x12
 1810 0b4d 8A       		.byte	0x8a
 1811 0b4e 8B050000 		.4byte	0x58b
 1812 0b52 0C       		.byte	0xc
 1813 0b53 06       		.uleb128 0x6
 1814 0b54 F5020000 		.4byte	.LASF151
 1815 0b58 12       		.byte	0x12
 1816 0b59 8A       		.byte	0x8a
 1817 0b5a 96050000 		.4byte	0x596
ARM GAS  /tmp/ccZfLNxd.s 			page 33


 1818 0b5e 30       		.byte	0x30
 1819 0b5f 07       		.uleb128 0x7
 1820 0b60 696200   		.ascii	"ib\000"
 1821 0b63 12       		.byte	0x12
 1822 0b64 8A       		.byte	0x8a
 1823 0b65 3E0C0000 		.4byte	0xc3e
 1824 0b69 54       		.byte	0x54
 1825 0b6a 07       		.uleb128 0x7
 1826 0b6b 6F6200   		.ascii	"ob\000"
 1827 0b6e 12       		.byte	0x12
 1828 0b6f 8A       		.byte	0x8a
 1829 0b70 3E0C0000 		.4byte	0xc3e
 1830 0b74 64       		.byte	0x64
 1831 0b75 06       		.uleb128 0x6
 1832 0b76 80020000 		.4byte	.LASF152
 1833 0b7a 12       		.byte	0x12
 1834 0b7b 8A       		.byte	0x8a
 1835 0b7c 4E0C0000 		.4byte	0xc4e
 1836 0b80 74       		.byte	0x74
 1837 0b81 00       		.byte	0
 1838 0b82 08       		.uleb128 0x8
 1839 0b83 0C       		.byte	0xc
 1840 0b84 13       		.byte	0x13
 1841 0b85 D7       		.byte	0xd7
 1842 0b86 BB0B0000 		.4byte	0xbbb
 1843 0b8a 06       		.uleb128 0x6
 1844 0b8b 51030000 		.4byte	.LASF153
 1845 0b8f 13       		.byte	0x13
 1846 0b90 DB       		.byte	0xdb
 1847 0b91 CE000000 		.4byte	0xce
 1848 0b95 00       		.byte	0
 1849 0b96 07       		.uleb128 0x7
 1850 0b97 63723100 		.ascii	"cr1\000"
 1851 0b9b 13       		.byte	0x13
 1852 0b9c E0       		.byte	0xe0
 1853 0b9d B8000000 		.4byte	0xb8
 1854 0ba1 04       		.byte	0x4
 1855 0ba2 07       		.uleb128 0x7
 1856 0ba3 63723200 		.ascii	"cr2\000"
 1857 0ba7 13       		.byte	0x13
 1858 0ba8 E4       		.byte	0xe4
 1859 0ba9 B8000000 		.4byte	0xb8
 1860 0bad 06       		.byte	0x6
 1861 0bae 07       		.uleb128 0x7
 1862 0baf 63723300 		.ascii	"cr3\000"
 1863 0bb3 13       		.byte	0x13
 1864 0bb4 E8       		.byte	0xe8
 1865 0bb5 B8000000 		.4byte	0xb8
 1866 0bb9 08       		.byte	0x8
 1867 0bba 00       		.byte	0
 1868 0bbb 03       		.uleb128 0x3
 1869 0bbc 37040000 		.4byte	.LASF154
 1870 0bc0 13       		.byte	0x13
 1871 0bc1 E9       		.byte	0xe9
 1872 0bc2 820B0000 		.4byte	0xb82
 1873 0bc6 05       		.uleb128 0x5
 1874 0bc7 A1020000 		.4byte	.LASF155
ARM GAS  /tmp/ccZfLNxd.s 			page 34


 1875 0bcb 20       		.byte	0x20
 1876 0bcc 12       		.byte	0x12
 1877 0bcd 7C       		.byte	0x7c
 1878 0bce 330C0000 		.4byte	0xc33
 1879 0bd2 06       		.uleb128 0x6
 1880 0bd3 93030000 		.4byte	.LASF156
 1881 0bd7 12       		.byte	0x12
 1882 0bd8 7D       		.byte	0x7d
 1883 0bd9 C5050000 		.4byte	0x5c5
 1884 0bdd 00       		.byte	0
 1885 0bde 06       		.uleb128 0x6
 1886 0bdf ED050000 		.4byte	.LASF157
 1887 0be3 12       		.byte	0x12
 1888 0be4 7D       		.byte	0x7d
 1889 0be5 E4050000 		.4byte	0x5e4
 1890 0be9 04       		.byte	0x4
 1891 0bea 07       		.uleb128 0x7
 1892 0beb 70757400 		.ascii	"put\000"
 1893 0bef 12       		.byte	0x12
 1894 0bf0 7D       		.byte	0x7d
 1895 0bf1 FE050000 		.4byte	0x5fe
 1896 0bf5 08       		.byte	0x8
 1897 0bf6 07       		.uleb128 0x7
 1898 0bf7 67657400 		.ascii	"get\000"
 1899 0bfb 12       		.byte	0x12
 1900 0bfc 7D       		.byte	0x7d
 1901 0bfd D6040000 		.4byte	0x4d6
 1902 0c01 0C       		.byte	0xc
 1903 0c02 06       		.uleb128 0x6
 1904 0c03 E0030000 		.4byte	.LASF158
 1905 0c07 12       		.byte	0x12
 1906 0c08 7D       		.byte	0x7d
 1907 0c09 01070000 		.4byte	0x701
 1908 0c0d 10       		.byte	0x10
 1909 0c0e 06       		.uleb128 0x6
 1910 0c0f DF020000 		.4byte	.LASF159
 1911 0c13 12       		.byte	0x12
 1912 0c14 7D       		.byte	0x7d
 1913 0c15 1B070000 		.4byte	0x71b
 1914 0c19 14       		.byte	0x14
 1915 0c1a 06       		.uleb128 0x6
 1916 0c1b 13030000 		.4byte	.LASF160
 1917 0c1f 12       		.byte	0x12
 1918 0c20 7D       		.byte	0x7d
 1919 0c21 3F070000 		.4byte	0x73f
 1920 0c25 18       		.byte	0x18
 1921 0c26 06       		.uleb128 0x6
 1922 0c27 72010000 		.4byte	.LASF161
 1923 0c2b 12       		.byte	0x12
 1924 0c2c 7D       		.byte	0x7d
 1925 0c2d 63070000 		.4byte	0x763
 1926 0c31 1C       		.byte	0x1c
 1927 0c32 00       		.byte	0
 1928 0c33 09       		.uleb128 0x9
 1929 0c34 04       		.byte	0x4
 1930 0c35 390C0000 		.4byte	0xc39
 1931 0c39 10       		.uleb128 0x10
ARM GAS  /tmp/ccZfLNxd.s 			page 35


 1932 0c3a C60B0000 		.4byte	0xbc6
 1933 0c3e 14       		.uleb128 0x14
 1934 0c3f AD000000 		.4byte	0xad
 1935 0c43 4E0C0000 		.4byte	0xc4e
 1936 0c47 15       		.uleb128 0x15
 1937 0c48 62030000 		.4byte	0x362
 1938 0c4c 0F       		.byte	0xf
 1939 0c4d 00       		.byte	0
 1940 0c4e 09       		.uleb128 0x9
 1941 0c4f 04       		.byte	0x4
 1942 0c50 DC060000 		.4byte	0x6dc
 1943 0c54 14       		.uleb128 0x14
 1944 0c55 B5020000 		.4byte	0x2b5
 1945 0c59 640C0000 		.4byte	0xc64
 1946 0c5d 15       		.uleb128 0x15
 1947 0c5e 62030000 		.4byte	0x362
 1948 0c62 29       		.byte	0x29
 1949 0c63 00       		.byte	0
 1950 0c64 1C       		.uleb128 0x1c
 1951 0c65 E7010000 		.4byte	.LASF162
 1952 0c69 01       		.byte	0x1
 1953 0c6a 19       		.byte	0x19
 1954 0c6b 00000000 		.4byte	.LFB118
 1955 0c6f 18000000 		.4byte	.LFE118-.LFB118
 1956 0c73 01       		.uleb128 0x1
 1957 0c74 9C       		.byte	0x9c
 1958 0c75 890C0000 		.4byte	0xc89
 1959 0c79 1D       		.uleb128 0x1d
 1960 0c7a C0010000 		.4byte	.LASF164
 1961 0c7e 01       		.byte	0x1
 1962 0c7f 19       		.byte	0x19
 1963 0c80 DD080000 		.4byte	0x8dd
 1964 0c84 00000000 		.4byte	.LLST0
 1965 0c88 00       		.byte	0
 1966 0c89 1C       		.uleb128 0x1c
 1967 0c8a 51060000 		.4byte	.LASF163
 1968 0c8e 01       		.byte	0x1
 1969 0c8f 20       		.byte	0x20
 1970 0c90 00000000 		.4byte	.LFB119
 1971 0c94 0E000000 		.4byte	.LFE119-.LFB119
 1972 0c98 01       		.uleb128 0x1
 1973 0c99 9C       		.byte	0x9c
 1974 0c9a AC0C0000 		.4byte	0xcac
 1975 0c9e 1E       		.uleb128 0x1e
 1976 0c9f C0010000 		.4byte	.LASF164
 1977 0ca3 01       		.byte	0x1
 1978 0ca4 20       		.byte	0x20
 1979 0ca5 DD080000 		.4byte	0x8dd
 1980 0ca9 01       		.uleb128 0x1
 1981 0caa 50       		.byte	0x50
 1982 0cab 00       		.byte	0
 1983 0cac 1C       		.uleb128 0x1c
 1984 0cad 75020000 		.4byte	.LASF165
 1985 0cb1 01       		.byte	0x1
 1986 0cb2 25       		.byte	0x25
 1987 0cb3 00000000 		.4byte	.LFB120
 1988 0cb7 0E000000 		.4byte	.LFE120-.LFB120
ARM GAS  /tmp/ccZfLNxd.s 			page 36


 1989 0cbb 01       		.uleb128 0x1
 1990 0cbc 9C       		.byte	0x9c
 1991 0cbd CF0C0000 		.4byte	0xccf
 1992 0cc1 1E       		.uleb128 0x1e
 1993 0cc2 C0010000 		.4byte	.LASF164
 1994 0cc6 01       		.byte	0x1
 1995 0cc7 25       		.byte	0x25
 1996 0cc8 DD080000 		.4byte	0x8dd
 1997 0ccc 01       		.uleb128 0x1
 1998 0ccd 50       		.byte	0x50
 1999 0cce 00       		.byte	0
 2000 0ccf 1C       		.uleb128 0x1c
 2001 0cd0 26030000 		.4byte	.LASF166
 2002 0cd4 01       		.byte	0x1
 2003 0cd5 29       		.byte	0x29
 2004 0cd6 00000000 		.4byte	.LFB121
 2005 0cda 10000000 		.4byte	.LFE121-.LFB121
 2006 0cde 01       		.uleb128 0x1
 2007 0cdf 9C       		.byte	0x9c
 2008 0ce0 F20C0000 		.4byte	0xcf2
 2009 0ce4 1E       		.uleb128 0x1e
 2010 0ce5 C0010000 		.4byte	.LASF164
 2011 0ce9 01       		.byte	0x1
 2012 0cea 29       		.byte	0x29
 2013 0ceb DD080000 		.4byte	0x8dd
 2014 0cef 01       		.uleb128 0x1
 2015 0cf0 50       		.byte	0x50
 2016 0cf1 00       		.byte	0
 2017 0cf2 1F       		.uleb128 0x1f
 2018 0cf3 79030000 		.4byte	.LASF184
 2019 0cf7 01       		.byte	0x1
 2020 0cf8 42       		.byte	0x42
 2021 0cf9 22010000 		.4byte	0x122
 2022 0cfd 00000000 		.4byte	.LFB122
 2023 0d01 E0000000 		.4byte	.LFE122-.LFB122
 2024 0d05 01       		.uleb128 0x1
 2025 0d06 9C       		.byte	0x9c
 2026 0d07 AF0D0000 		.4byte	0xdaf
 2027 0d0b 20       		.uleb128 0x20
 2028 0d0c 61726700 		.ascii	"arg\000"
 2029 0d10 01       		.byte	0x1
 2030 0d11 42       		.byte	0x42
 2031 0d12 B3020000 		.4byte	0x2b3
 2032 0d16 21000000 		.4byte	.LLST1
 2033 0d1a 21       		.uleb128 0x21
 2034 0d1b 00000000 		.4byte	.Ldebug_ranges0+0
 2035 0d1f 22       		.uleb128 0x22
 2036 0d20 6A00     		.ascii	"j\000"
 2037 0d22 01       		.byte	0x1
 2038 0d23 47       		.byte	0x47
 2039 0d24 25000000 		.4byte	0x25
 2040 0d28 42000000 		.4byte	.LLST2
 2041 0d2c 21       		.uleb128 0x21
 2042 0d2d 18000000 		.4byte	.Ldebug_ranges0+0x18
 2043 0d31 22       		.uleb128 0x22
 2044 0d32 6900     		.ascii	"i\000"
 2045 0d34 01       		.byte	0x1
ARM GAS  /tmp/ccZfLNxd.s 			page 37


 2046 0d35 4A       		.byte	0x4a
 2047 0d36 25000000 		.4byte	0x25
 2048 0d3a 71000000 		.4byte	.LLST3
 2049 0d3e 22       		.uleb128 0x22
 2050 0d3f 6B00     		.ascii	"k\000"
 2051 0d41 01       		.byte	0x1
 2052 0d42 4B       		.byte	0x4b
 2053 0d43 25000000 		.4byte	0x25
 2054 0d47 84000000 		.4byte	.LLST4
 2055 0d4b 22       		.uleb128 0x22
 2056 0d4c 6C00     		.ascii	"l\000"
 2057 0d4e 01       		.byte	0x1
 2058 0d4f 4C       		.byte	0x4c
 2059 0d50 25000000 		.4byte	0x25
 2060 0d54 A2000000 		.4byte	.LLST5
 2061 0d58 23       		.uleb128 0x23
 2062 0d59 38000000 		.4byte	.LVL7
 2063 0d5d 210F0000 		.4byte	0xf21
 2064 0d61 6B0D0000 		.4byte	0xd6b
 2065 0d65 24       		.uleb128 0x24
 2066 0d66 01       		.uleb128 0x1
 2067 0d67 51       		.byte	0x51
 2068 0d68 01       		.uleb128 0x1
 2069 0d69 30       		.byte	0x30
 2070 0d6a 00       		.byte	0
 2071 0d6b 23       		.uleb128 0x23
 2072 0d6c 48000000 		.4byte	.LVL8
 2073 0d70 210F0000 		.4byte	0xf21
 2074 0d74 840D0000 		.4byte	0xd84
 2075 0d78 24       		.uleb128 0x24
 2076 0d79 01       		.uleb128 0x1
 2077 0d7a 52       		.byte	0x52
 2078 0d7b 02       		.uleb128 0x2
 2079 0d7c 76       		.byte	0x76
 2080 0d7d 00       		.sleb128 0
 2081 0d7e 24       		.uleb128 0x24
 2082 0d7f 01       		.uleb128 0x1
 2083 0d80 51       		.byte	0x51
 2084 0d81 01       		.uleb128 0x1
 2085 0d82 31       		.byte	0x31
 2086 0d83 00       		.byte	0
 2087 0d84 23       		.uleb128 0x23
 2088 0d85 58000000 		.4byte	.LVL9
 2089 0d89 210F0000 		.4byte	0xf21
 2090 0d8d 9D0D0000 		.4byte	0xd9d
 2091 0d91 24       		.uleb128 0x24
 2092 0d92 01       		.uleb128 0x1
 2093 0d93 52       		.byte	0x52
 2094 0d94 02       		.uleb128 0x2
 2095 0d95 75       		.byte	0x75
 2096 0d96 00       		.sleb128 0
 2097 0d97 24       		.uleb128 0x24
 2098 0d98 01       		.uleb128 0x1
 2099 0d99 51       		.byte	0x51
 2100 0d9a 01       		.uleb128 0x1
 2101 0d9b 32       		.byte	0x32
 2102 0d9c 00       		.byte	0
ARM GAS  /tmp/ccZfLNxd.s 			page 38


 2103 0d9d 25       		.uleb128 0x25
 2104 0d9e 5E000000 		.4byte	.LVL10
 2105 0da2 3C0F0000 		.4byte	0xf3c
 2106 0da6 24       		.uleb128 0x24
 2107 0da7 01       		.uleb128 0x1
 2108 0da8 50       		.byte	0x50
 2109 0da9 01       		.uleb128 0x1
 2110 0daa 38       		.byte	0x38
 2111 0dab 00       		.byte	0
 2112 0dac 00       		.byte	0
 2113 0dad 00       		.byte	0
 2114 0dae 00       		.byte	0
 2115 0daf 26       		.uleb128 0x26
 2116 0db0 22070000 		.4byte	.LASF185
 2117 0db4 01       		.byte	0x1
 2118 0db5 5A       		.byte	0x5a
 2119 0db6 25000000 		.4byte	0x25
 2120 0dba 00000000 		.4byte	.LFB123
 2121 0dbe AA000000 		.4byte	.LFE123-.LFB123
 2122 0dc2 01       		.uleb128 0x1
 2123 0dc3 9C       		.byte	0x9c
 2124 0dc4 9A0E0000 		.4byte	0xe9a
 2125 0dc8 27       		.uleb128 0x27
 2126 0dc9 08000000 		.4byte	.LVL17
 2127 0dcd 4E0F0000 		.4byte	0xf4e
 2128 0dd1 27       		.uleb128 0x27
 2129 0dd2 0C000000 		.4byte	.LVL18
 2130 0dd6 550F0000 		.4byte	0xf55
 2131 0dda 23       		.uleb128 0x23
 2132 0ddb 20000000 		.4byte	.LVL19
 2133 0ddf 5C0F0000 		.4byte	0xf5c
 2134 0de3 F10D0000 		.4byte	0xdf1
 2135 0de7 24       		.uleb128 0x24
 2136 0de8 01       		.uleb128 0x1
 2137 0de9 51       		.byte	0x51
 2138 0dea 05       		.uleb128 0x5
 2139 0deb 03       		.byte	0x3
 2140 0dec 00000000 		.4byte	.LANCHOR0
 2141 0df0 00       		.byte	0
 2142 0df1 23       		.uleb128 0x23
 2143 0df2 2E000000 		.4byte	.LVL20
 2144 0df6 720F0000 		.4byte	0xf72
 2145 0dfa 040E0000 		.4byte	0xe04
 2146 0dfe 24       		.uleb128 0x24
 2147 0dff 01       		.uleb128 0x1
 2148 0e00 51       		.byte	0x51
 2149 0e01 01       		.uleb128 0x1
 2150 0e02 30       		.byte	0x30
 2151 0e03 00       		.byte	0
 2152 0e04 23       		.uleb128 0x23
 2153 0e05 4C000000 		.4byte	.LVL21
 2154 0e09 9A0F0000 		.4byte	0xf9a
 2155 0e0d 380E0000 		.4byte	0xe38
 2156 0e11 24       		.uleb128 0x24
 2157 0e12 01       		.uleb128 0x1
 2158 0e13 53       		.byte	0x53
 2159 0e14 05       		.uleb128 0x5
ARM GAS  /tmp/ccZfLNxd.s 			page 39


 2160 0e15 03       		.byte	0x3
 2161 0e16 00000000 		.4byte	Thread1
 2162 0e1a 24       		.uleb128 0x24
 2163 0e1b 01       		.uleb128 0x1
 2164 0e1c 52       		.byte	0x52
 2165 0e1d 02       		.uleb128 0x2
 2166 0e1e 08       		.byte	0x8
 2167 0e1f 40       		.byte	0x40
 2168 0e20 24       		.uleb128 0x24
 2169 0e21 01       		.uleb128 0x1
 2170 0e22 51       		.byte	0x51
 2171 0e23 03       		.uleb128 0x3
 2172 0e24 0A       		.byte	0xa
 2173 0e25 5001     		.2byte	0x150
 2174 0e27 24       		.uleb128 0x24
 2175 0e28 01       		.uleb128 0x1
 2176 0e29 50       		.byte	0x50
 2177 0e2a 05       		.uleb128 0x5
 2178 0e2b 03       		.byte	0x3
 2179 0e2c 00000000 		.4byte	.LANCHOR1
 2180 0e30 24       		.uleb128 0x24
 2181 0e31 02       		.uleb128 0x2
 2182 0e32 7D       		.byte	0x7d
 2183 0e33 00       		.sleb128 0
 2184 0e34 02       		.uleb128 0x2
 2185 0e35 74       		.byte	0x74
 2186 0e36 00       		.sleb128 0
 2187 0e37 00       		.byte	0
 2188 0e38 23       		.uleb128 0x23
 2189 0e39 68000000 		.4byte	.LVL22
 2190 0e3d 9A0F0000 		.4byte	0xf9a
 2191 0e41 5A0E0000 		.4byte	0xe5a
 2192 0e45 24       		.uleb128 0x24
 2193 0e46 01       		.uleb128 0x1
 2194 0e47 52       		.byte	0x52
 2195 0e48 02       		.uleb128 0x2
 2196 0e49 08       		.byte	0x8
 2197 0e4a 41       		.byte	0x41
 2198 0e4b 24       		.uleb128 0x24
 2199 0e4c 01       		.uleb128 0x1
 2200 0e4d 51       		.byte	0x51
 2201 0e4e 03       		.uleb128 0x3
 2202 0e4f 0A       		.byte	0xa
 2203 0e50 0002     		.2byte	0x200
 2204 0e52 24       		.uleb128 0x24
 2205 0e53 02       		.uleb128 0x2
 2206 0e54 7D       		.byte	0x7d
 2207 0e55 00       		.sleb128 0
 2208 0e56 02       		.uleb128 0x2
 2209 0e57 74       		.byte	0x74
 2210 0e58 00       		.sleb128 0
 2211 0e59 00       		.byte	0
 2212 0e5a 23       		.uleb128 0x23
 2213 0e5b 88000000 		.4byte	.LVL23
 2214 0e5f 9A0F0000 		.4byte	0xf9a
 2215 0e63 7B0E0000 		.4byte	0xe7b
 2216 0e67 24       		.uleb128 0x24
ARM GAS  /tmp/ccZfLNxd.s 			page 40


 2217 0e68 01       		.uleb128 0x1
 2218 0e69 52       		.byte	0x52
 2219 0e6a 02       		.uleb128 0x2
 2220 0e6b 08       		.byte	0x8
 2221 0e6c 41       		.byte	0x41
 2222 0e6d 24       		.uleb128 0x24
 2223 0e6e 01       		.uleb128 0x1
 2224 0e6f 51       		.byte	0x51
 2225 0e70 03       		.uleb128 0x3
 2226 0e71 0A       		.byte	0xa
 2227 0e72 D004     		.2byte	0x4d0
 2228 0e74 24       		.uleb128 0x24
 2229 0e75 02       		.uleb128 0x2
 2230 0e76 7D       		.byte	0x7d
 2231 0e77 00       		.sleb128 0
 2232 0e78 01       		.uleb128 0x1
 2233 0e79 30       		.byte	0x30
 2234 0e7a 00       		.byte	0
 2235 0e7b 23       		.uleb128 0x23
 2236 0e7c 96000000 		.4byte	.LVL24
 2237 0e80 3C0F0000 		.4byte	0xf3c
 2238 0e84 900E0000 		.4byte	0xe90
 2239 0e88 24       		.uleb128 0x24
 2240 0e89 01       		.uleb128 0x1
 2241 0e8a 50       		.byte	0x50
 2242 0e8b 03       		.uleb128 0x3
 2243 0e8c 0A       		.byte	0xa
 2244 0e8d F401     		.2byte	0x1f4
 2245 0e8f 00       		.byte	0
 2246 0e90 27       		.uleb128 0x27
 2247 0e91 A8000000 		.4byte	.LVL25
 2248 0e95 C40F0000 		.4byte	0xfc4
 2249 0e99 00       		.byte	0
 2250 0e9a 28       		.uleb128 0x28
 2251 0e9b 84060000 		.4byte	.LASF167
 2252 0e9f 01       		.byte	0x1
 2253 0ea0 2E       		.byte	0x2e
 2254 0ea1 C90A0000 		.4byte	0xac9
 2255 0ea5 05       		.uleb128 0x5
 2256 0ea6 03       		.byte	0x3
 2257 0ea7 00000000 		.4byte	pwmcfg
 2258 0eab 28       		.uleb128 0x28
 2259 0eac 59040000 		.4byte	.LASF168
 2260 0eb0 01       		.byte	0x1
 2261 0eb1 41       		.byte	0x41
 2262 0eb2 540C0000 		.4byte	0xc54
 2263 0eb6 05       		.uleb128 0x5
 2264 0eb7 03       		.byte	0x3
 2265 0eb8 00000000 		.4byte	waThread1
 2266 0ebc 29       		.uleb128 0x29
 2267 0ebd BE060000 		.4byte	.LASF169
 2268 0ec1 09       		.byte	0x9
 2269 0ec2 6F       		.byte	0x6f
 2270 0ec3 BF030000 		.4byte	0x3bf
 2271 0ec7 2A       		.uleb128 0x2a
 2272 0ec8 45010000 		.4byte	.LASF170
 2273 0ecc 14       		.byte	0x14
ARM GAS  /tmp/ccZfLNxd.s 			page 41


 2274 0ecd 9806     		.2byte	0x698
 2275 0ecf 19060000 		.4byte	0x619
 2276 0ed3 2A       		.uleb128 0x2a
 2277 0ed4 42020000 		.4byte	.LASF171
 2278 0ed8 10       		.byte	0x10
 2279 0ed9 BF01     		.2byte	0x1bf
 2280 0edb 67080000 		.4byte	0x867
 2281 0edf 2B       		.uleb128 0x2b
 2282 0ee0 53443600 		.ascii	"SD6\000"
 2283 0ee4 13       		.byte	0x13
 2284 0ee5 1E01     		.2byte	0x11e
 2285 0ee7 0C0B0000 		.4byte	0xb0c
 2286 0eeb 14       		.uleb128 0x14
 2287 0eec B5020000 		.4byte	0x2b5
 2288 0ef0 FB0E0000 		.4byte	0xefb
 2289 0ef4 15       		.uleb128 0x15
 2290 0ef5 62030000 		.4byte	0x362
 2291 0ef9 59       		.byte	0x59
 2292 0efa 00       		.byte	0
 2293 0efb 29       		.uleb128 0x29
 2294 0efc FF060000 		.4byte	.LASF172
 2295 0f00 15       		.byte	0x15
 2296 0f01 77       		.byte	0x77
 2297 0f02 EB0E0000 		.4byte	0xeeb
 2298 0f06 14       		.uleb128 0x14
 2299 0f07 B5020000 		.4byte	0x2b5
 2300 0f0b 160F0000 		.4byte	0xf16
 2301 0f0f 15       		.uleb128 0x15
 2302 0f10 62030000 		.4byte	0x362
 2303 0f14 99       		.byte	0x99
 2304 0f15 00       		.byte	0
 2305 0f16 29       		.uleb128 0x29
 2306 0f17 60070000 		.4byte	.LASF173
 2307 0f1b 16       		.byte	0x16
 2308 0f1c 27       		.byte	0x27
 2309 0f1d 060F0000 		.4byte	0xf06
 2310 0f21 2C       		.uleb128 0x2c
 2311 0f22 3A070000 		.4byte	.LASF174
 2312 0f26 0F       		.byte	0xf
 2313 0f27 F7       		.byte	0xf7
 2314 0f28 3C0F0000 		.4byte	0xf3c
 2315 0f2c 12       		.uleb128 0x12
 2316 0f2d DD080000 		.4byte	0x8dd
 2317 0f31 12       		.uleb128 0x12
 2318 0f32 190A0000 		.4byte	0xa19
 2319 0f36 12       		.uleb128 0x12
 2320 0f37 250A0000 		.4byte	0xa25
 2321 0f3b 00       		.byte	0
 2322 0f3c 2D       		.uleb128 0x2d
 2323 0f3d 2C040000 		.4byte	.LASF175
 2324 0f41 07       		.byte	0x7
 2325 0f42 7501     		.2byte	0x175
 2326 0f44 4E0F0000 		.4byte	0xf4e
 2327 0f48 12       		.uleb128 0x12
 2328 0f49 43010000 		.4byte	0x143
 2329 0f4d 00       		.byte	0
 2330 0f4e 2E       		.uleb128 0x2e
ARM GAS  /tmp/ccZfLNxd.s 			page 42


 2331 0f4f D7020000 		.4byte	.LASF176
 2332 0f53 17       		.byte	0x17
 2333 0f54 D0       		.byte	0xd0
 2334 0f55 2E       		.uleb128 0x2e
 2335 0f56 A7010000 		.4byte	.LASF177
 2336 0f5a 18       		.byte	0x18
 2337 0f5b F6       		.byte	0xf6
 2338 0f5c 2C       		.uleb128 0x2c
 2339 0f5d 78010000 		.4byte	.LASF178
 2340 0f61 0F       		.byte	0xf
 2341 0f62 F4       		.byte	0xf4
 2342 0f63 720F0000 		.4byte	0xf72
 2343 0f67 12       		.uleb128 0x12
 2344 0f68 DD080000 		.4byte	0x8dd
 2345 0f6c 12       		.uleb128 0x12
 2346 0f6d D50A0000 		.4byte	0xad5
 2347 0f71 00       		.byte	0
 2348 0f72 2D       		.uleb128 0x2d
 2349 0f73 0E060000 		.4byte	.LASF179
 2350 0f77 12       		.byte	0x12
 2351 0f78 3701     		.2byte	0x137
 2352 0f7a 890F0000 		.4byte	0xf89
 2353 0f7e 12       		.uleb128 0x12
 2354 0f7f 890F0000 		.4byte	0xf89
 2355 0f83 12       		.uleb128 0x12
 2356 0f84 8F0F0000 		.4byte	0xf8f
 2357 0f88 00       		.byte	0
 2358 0f89 09       		.uleb128 0x9
 2359 0f8a 04       		.byte	0x4
 2360 0f8b 0C0B0000 		.4byte	0xb0c
 2361 0f8f 09       		.uleb128 0x9
 2362 0f90 04       		.byte	0x4
 2363 0f91 950F0000 		.4byte	0xf95
 2364 0f95 10       		.uleb128 0x10
 2365 0f96 BB0B0000 		.4byte	0xbbb
 2366 0f9a 2F       		.uleb128 0x2f
 2367 0f9b 81030000 		.4byte	.LASF186
 2368 0f9f 07       		.byte	0x7
 2369 0fa0 7001     		.2byte	0x170
 2370 0fa2 77020000 		.4byte	0x277
 2371 0fa6 C40F0000 		.4byte	0xfc4
 2372 0faa 12       		.uleb128 0x12
 2373 0fab B3020000 		.4byte	0x2b3
 2374 0faf 12       		.uleb128 0x12
 2375 0fb0 2C000000 		.4byte	0x2c
 2376 0fb4 12       		.uleb128 0x12
 2377 0fb5 17010000 		.4byte	0x117
 2378 0fb9 12       		.uleb128 0x12
 2379 0fba CB040000 		.4byte	0x4cb
 2380 0fbe 12       		.uleb128 0x12
 2381 0fbf B3020000 		.4byte	0x2b3
 2382 0fc3 00       		.byte	0
 2383 0fc4 30       		.uleb128 0x30
 2384 0fc5 F9040000 		.4byte	.LASF180
 2385 0fc9 19       		.byte	0x19
 2386 0fca 52       		.byte	0x52
 2387 0fcb 22010000 		.4byte	0x122
ARM GAS  /tmp/ccZfLNxd.s 			page 43


 2388 0fcf 12       		.uleb128 0x12
 2389 0fd0 B3020000 		.4byte	0x2b3
 2390 0fd4 00       		.byte	0
 2391 0fd5 00       		.byte	0
 2392              		.section	.debug_abbrev,"",%progbits
 2393              	.Ldebug_abbrev0:
 2394 0000 01       		.uleb128 0x1
 2395 0001 11       		.uleb128 0x11
 2396 0002 01       		.byte	0x1
 2397 0003 25       		.uleb128 0x25
 2398 0004 0E       		.uleb128 0xe
 2399 0005 13       		.uleb128 0x13
 2400 0006 0B       		.uleb128 0xb
 2401 0007 03       		.uleb128 0x3
 2402 0008 0E       		.uleb128 0xe
 2403 0009 1B       		.uleb128 0x1b
 2404 000a 0E       		.uleb128 0xe
 2405 000b 55       		.uleb128 0x55
 2406 000c 17       		.uleb128 0x17
 2407 000d 11       		.uleb128 0x11
 2408 000e 01       		.uleb128 0x1
 2409 000f 10       		.uleb128 0x10
 2410 0010 17       		.uleb128 0x17
 2411 0011 00       		.byte	0
 2412 0012 00       		.byte	0
 2413 0013 02       		.uleb128 0x2
 2414 0014 24       		.uleb128 0x24
 2415 0015 00       		.byte	0
 2416 0016 0B       		.uleb128 0xb
 2417 0017 0B       		.uleb128 0xb
 2418 0018 3E       		.uleb128 0x3e
 2419 0019 0B       		.uleb128 0xb
 2420 001a 03       		.uleb128 0x3
 2421 001b 08       		.uleb128 0x8
 2422 001c 00       		.byte	0
 2423 001d 00       		.byte	0
 2424 001e 03       		.uleb128 0x3
 2425 001f 16       		.uleb128 0x16
 2426 0020 00       		.byte	0
 2427 0021 03       		.uleb128 0x3
 2428 0022 0E       		.uleb128 0xe
 2429 0023 3A       		.uleb128 0x3a
 2430 0024 0B       		.uleb128 0xb
 2431 0025 3B       		.uleb128 0x3b
 2432 0026 0B       		.uleb128 0xb
 2433 0027 49       		.uleb128 0x49
 2434 0028 13       		.uleb128 0x13
 2435 0029 00       		.byte	0
 2436 002a 00       		.byte	0
 2437 002b 04       		.uleb128 0x4
 2438 002c 24       		.uleb128 0x24
 2439 002d 00       		.byte	0
 2440 002e 0B       		.uleb128 0xb
 2441 002f 0B       		.uleb128 0xb
 2442 0030 3E       		.uleb128 0x3e
 2443 0031 0B       		.uleb128 0xb
 2444 0032 03       		.uleb128 0x3
ARM GAS  /tmp/ccZfLNxd.s 			page 44


 2445 0033 0E       		.uleb128 0xe
 2446 0034 00       		.byte	0
 2447 0035 00       		.byte	0
 2448 0036 05       		.uleb128 0x5
 2449 0037 13       		.uleb128 0x13
 2450 0038 01       		.byte	0x1
 2451 0039 03       		.uleb128 0x3
 2452 003a 0E       		.uleb128 0xe
 2453 003b 0B       		.uleb128 0xb
 2454 003c 0B       		.uleb128 0xb
 2455 003d 3A       		.uleb128 0x3a
 2456 003e 0B       		.uleb128 0xb
 2457 003f 3B       		.uleb128 0x3b
 2458 0040 0B       		.uleb128 0xb
 2459 0041 01       		.uleb128 0x1
 2460 0042 13       		.uleb128 0x13
 2461 0043 00       		.byte	0
 2462 0044 00       		.byte	0
 2463 0045 06       		.uleb128 0x6
 2464 0046 0D       		.uleb128 0xd
 2465 0047 00       		.byte	0
 2466 0048 03       		.uleb128 0x3
 2467 0049 0E       		.uleb128 0xe
 2468 004a 3A       		.uleb128 0x3a
 2469 004b 0B       		.uleb128 0xb
 2470 004c 3B       		.uleb128 0x3b
 2471 004d 0B       		.uleb128 0xb
 2472 004e 49       		.uleb128 0x49
 2473 004f 13       		.uleb128 0x13
 2474 0050 38       		.uleb128 0x38
 2475 0051 0B       		.uleb128 0xb
 2476 0052 00       		.byte	0
 2477 0053 00       		.byte	0
 2478 0054 07       		.uleb128 0x7
 2479 0055 0D       		.uleb128 0xd
 2480 0056 00       		.byte	0
 2481 0057 03       		.uleb128 0x3
 2482 0058 08       		.uleb128 0x8
 2483 0059 3A       		.uleb128 0x3a
 2484 005a 0B       		.uleb128 0xb
 2485 005b 3B       		.uleb128 0x3b
 2486 005c 0B       		.uleb128 0xb
 2487 005d 49       		.uleb128 0x49
 2488 005e 13       		.uleb128 0x13
 2489 005f 38       		.uleb128 0x38
 2490 0060 0B       		.uleb128 0xb
 2491 0061 00       		.byte	0
 2492 0062 00       		.byte	0
 2493 0063 08       		.uleb128 0x8
 2494 0064 13       		.uleb128 0x13
 2495 0065 01       		.byte	0x1
 2496 0066 0B       		.uleb128 0xb
 2497 0067 0B       		.uleb128 0xb
 2498 0068 3A       		.uleb128 0x3a
 2499 0069 0B       		.uleb128 0xb
 2500 006a 3B       		.uleb128 0x3b
 2501 006b 0B       		.uleb128 0xb
ARM GAS  /tmp/ccZfLNxd.s 			page 45


 2502 006c 01       		.uleb128 0x1
 2503 006d 13       		.uleb128 0x13
 2504 006e 00       		.byte	0
 2505 006f 00       		.byte	0
 2506 0070 09       		.uleb128 0x9
 2507 0071 0F       		.uleb128 0xf
 2508 0072 00       		.byte	0
 2509 0073 0B       		.uleb128 0xb
 2510 0074 0B       		.uleb128 0xb
 2511 0075 49       		.uleb128 0x49
 2512 0076 13       		.uleb128 0x13
 2513 0077 00       		.byte	0
 2514 0078 00       		.byte	0
 2515 0079 0A       		.uleb128 0xa
 2516 007a 0F       		.uleb128 0xf
 2517 007b 00       		.byte	0
 2518 007c 0B       		.uleb128 0xb
 2519 007d 0B       		.uleb128 0xb
 2520 007e 00       		.byte	0
 2521 007f 00       		.byte	0
 2522 0080 0B       		.uleb128 0xb
 2523 0081 13       		.uleb128 0x13
 2524 0082 01       		.byte	0x1
 2525 0083 03       		.uleb128 0x3
 2526 0084 0E       		.uleb128 0xe
 2527 0085 0B       		.uleb128 0xb
 2528 0086 0B       		.uleb128 0xb
 2529 0087 3A       		.uleb128 0x3a
 2530 0088 0B       		.uleb128 0xb
 2531 0089 3B       		.uleb128 0x3b
 2532 008a 05       		.uleb128 0x5
 2533 008b 01       		.uleb128 0x1
 2534 008c 13       		.uleb128 0x13
 2535 008d 00       		.byte	0
 2536 008e 00       		.byte	0
 2537 008f 0C       		.uleb128 0xc
 2538 0090 0D       		.uleb128 0xd
 2539 0091 00       		.byte	0
 2540 0092 03       		.uleb128 0x3
 2541 0093 08       		.uleb128 0x8
 2542 0094 3A       		.uleb128 0x3a
 2543 0095 0B       		.uleb128 0xb
 2544 0096 3B       		.uleb128 0x3b
 2545 0097 05       		.uleb128 0x5
 2546 0098 49       		.uleb128 0x49
 2547 0099 13       		.uleb128 0x13
 2548 009a 38       		.uleb128 0x38
 2549 009b 0B       		.uleb128 0xb
 2550 009c 00       		.byte	0
 2551 009d 00       		.byte	0
 2552 009e 0D       		.uleb128 0xd
 2553 009f 35       		.uleb128 0x35
 2554 00a0 00       		.byte	0
 2555 00a1 49       		.uleb128 0x49
 2556 00a2 13       		.uleb128 0x13
 2557 00a3 00       		.byte	0
 2558 00a4 00       		.byte	0
ARM GAS  /tmp/ccZfLNxd.s 			page 46


 2559 00a5 0E       		.uleb128 0xe
 2560 00a6 17       		.uleb128 0x17
 2561 00a7 01       		.byte	0x1
 2562 00a8 0B       		.uleb128 0xb
 2563 00a9 0B       		.uleb128 0xb
 2564 00aa 3A       		.uleb128 0x3a
 2565 00ab 0B       		.uleb128 0xb
 2566 00ac 3B       		.uleb128 0x3b
 2567 00ad 0B       		.uleb128 0xb
 2568 00ae 01       		.uleb128 0x1
 2569 00af 13       		.uleb128 0x13
 2570 00b0 00       		.byte	0
 2571 00b1 00       		.byte	0
 2572 00b2 0F       		.uleb128 0xf
 2573 00b3 0D       		.uleb128 0xd
 2574 00b4 00       		.byte	0
 2575 00b5 03       		.uleb128 0x3
 2576 00b6 0E       		.uleb128 0xe
 2577 00b7 3A       		.uleb128 0x3a
 2578 00b8 0B       		.uleb128 0xb
 2579 00b9 3B       		.uleb128 0x3b
 2580 00ba 0B       		.uleb128 0xb
 2581 00bb 49       		.uleb128 0x49
 2582 00bc 13       		.uleb128 0x13
 2583 00bd 00       		.byte	0
 2584 00be 00       		.byte	0
 2585 00bf 10       		.uleb128 0x10
 2586 00c0 26       		.uleb128 0x26
 2587 00c1 00       		.byte	0
 2588 00c2 49       		.uleb128 0x49
 2589 00c3 13       		.uleb128 0x13
 2590 00c4 00       		.byte	0
 2591 00c5 00       		.byte	0
 2592 00c6 11       		.uleb128 0x11
 2593 00c7 15       		.uleb128 0x15
 2594 00c8 01       		.byte	0x1
 2595 00c9 27       		.uleb128 0x27
 2596 00ca 19       		.uleb128 0x19
 2597 00cb 49       		.uleb128 0x49
 2598 00cc 13       		.uleb128 0x13
 2599 00cd 01       		.uleb128 0x1
 2600 00ce 13       		.uleb128 0x13
 2601 00cf 00       		.byte	0
 2602 00d0 00       		.byte	0
 2603 00d1 12       		.uleb128 0x12
 2604 00d2 05       		.uleb128 0x5
 2605 00d3 00       		.byte	0
 2606 00d4 49       		.uleb128 0x49
 2607 00d5 13       		.uleb128 0x13
 2608 00d6 00       		.byte	0
 2609 00d7 00       		.byte	0
 2610 00d8 13       		.uleb128 0x13
 2611 00d9 15       		.uleb128 0x15
 2612 00da 01       		.byte	0x1
 2613 00db 27       		.uleb128 0x27
 2614 00dc 19       		.uleb128 0x19
 2615 00dd 01       		.uleb128 0x1
ARM GAS  /tmp/ccZfLNxd.s 			page 47


 2616 00de 13       		.uleb128 0x13
 2617 00df 00       		.byte	0
 2618 00e0 00       		.byte	0
 2619 00e1 14       		.uleb128 0x14
 2620 00e2 01       		.uleb128 0x1
 2621 00e3 01       		.byte	0x1
 2622 00e4 49       		.uleb128 0x49
 2623 00e5 13       		.uleb128 0x13
 2624 00e6 01       		.uleb128 0x1
 2625 00e7 13       		.uleb128 0x13
 2626 00e8 00       		.byte	0
 2627 00e9 00       		.byte	0
 2628 00ea 15       		.uleb128 0x15
 2629 00eb 21       		.uleb128 0x21
 2630 00ec 00       		.byte	0
 2631 00ed 49       		.uleb128 0x49
 2632 00ee 13       		.uleb128 0x13
 2633 00ef 2F       		.uleb128 0x2f
 2634 00f0 0B       		.uleb128 0xb
 2635 00f1 00       		.byte	0
 2636 00f2 00       		.byte	0
 2637 00f3 16       		.uleb128 0x16
 2638 00f4 13       		.uleb128 0x13
 2639 00f5 01       		.byte	0x1
 2640 00f6 0B       		.uleb128 0xb
 2641 00f7 0B       		.uleb128 0xb
 2642 00f8 3A       		.uleb128 0x3a
 2643 00f9 0B       		.uleb128 0xb
 2644 00fa 3B       		.uleb128 0x3b
 2645 00fb 05       		.uleb128 0x5
 2646 00fc 01       		.uleb128 0x1
 2647 00fd 13       		.uleb128 0x13
 2648 00fe 00       		.byte	0
 2649 00ff 00       		.byte	0
 2650 0100 17       		.uleb128 0x17
 2651 0101 0D       		.uleb128 0xd
 2652 0102 00       		.byte	0
 2653 0103 03       		.uleb128 0x3
 2654 0104 0E       		.uleb128 0xe
 2655 0105 3A       		.uleb128 0x3a
 2656 0106 0B       		.uleb128 0xb
 2657 0107 3B       		.uleb128 0x3b
 2658 0108 05       		.uleb128 0x5
 2659 0109 49       		.uleb128 0x49
 2660 010a 13       		.uleb128 0x13
 2661 010b 38       		.uleb128 0x38
 2662 010c 0B       		.uleb128 0xb
 2663 010d 00       		.byte	0
 2664 010e 00       		.byte	0
 2665 010f 18       		.uleb128 0x18
 2666 0110 16       		.uleb128 0x16
 2667 0111 00       		.byte	0
 2668 0112 03       		.uleb128 0x3
 2669 0113 0E       		.uleb128 0xe
 2670 0114 3A       		.uleb128 0x3a
 2671 0115 0B       		.uleb128 0xb
 2672 0116 3B       		.uleb128 0x3b
ARM GAS  /tmp/ccZfLNxd.s 			page 48


 2673 0117 05       		.uleb128 0x5
 2674 0118 49       		.uleb128 0x49
 2675 0119 13       		.uleb128 0x13
 2676 011a 00       		.byte	0
 2677 011b 00       		.byte	0
 2678 011c 19       		.uleb128 0x19
 2679 011d 0D       		.uleb128 0xd
 2680 011e 00       		.byte	0
 2681 011f 03       		.uleb128 0x3
 2682 0120 08       		.uleb128 0x8
 2683 0121 3A       		.uleb128 0x3a
 2684 0122 0B       		.uleb128 0xb
 2685 0123 3B       		.uleb128 0x3b
 2686 0124 0B       		.uleb128 0xb
 2687 0125 49       		.uleb128 0x49
 2688 0126 13       		.uleb128 0x13
 2689 0127 00       		.byte	0
 2690 0128 00       		.byte	0
 2691 0129 1A       		.uleb128 0x1a
 2692 012a 04       		.uleb128 0x4
 2693 012b 01       		.byte	0x1
 2694 012c 0B       		.uleb128 0xb
 2695 012d 0B       		.uleb128 0xb
 2696 012e 3A       		.uleb128 0x3a
 2697 012f 0B       		.uleb128 0xb
 2698 0130 3B       		.uleb128 0x3b
 2699 0131 0B       		.uleb128 0xb
 2700 0132 01       		.uleb128 0x1
 2701 0133 13       		.uleb128 0x13
 2702 0134 00       		.byte	0
 2703 0135 00       		.byte	0
 2704 0136 1B       		.uleb128 0x1b
 2705 0137 28       		.uleb128 0x28
 2706 0138 00       		.byte	0
 2707 0139 03       		.uleb128 0x3
 2708 013a 0E       		.uleb128 0xe
 2709 013b 1C       		.uleb128 0x1c
 2710 013c 0D       		.uleb128 0xd
 2711 013d 00       		.byte	0
 2712 013e 00       		.byte	0
 2713 013f 1C       		.uleb128 0x1c
 2714 0140 2E       		.uleb128 0x2e
 2715 0141 01       		.byte	0x1
 2716 0142 03       		.uleb128 0x3
 2717 0143 0E       		.uleb128 0xe
 2718 0144 3A       		.uleb128 0x3a
 2719 0145 0B       		.uleb128 0xb
 2720 0146 3B       		.uleb128 0x3b
 2721 0147 0B       		.uleb128 0xb
 2722 0148 27       		.uleb128 0x27
 2723 0149 19       		.uleb128 0x19
 2724 014a 11       		.uleb128 0x11
 2725 014b 01       		.uleb128 0x1
 2726 014c 12       		.uleb128 0x12
 2727 014d 06       		.uleb128 0x6
 2728 014e 40       		.uleb128 0x40
 2729 014f 18       		.uleb128 0x18
ARM GAS  /tmp/ccZfLNxd.s 			page 49


 2730 0150 9742     		.uleb128 0x2117
 2731 0152 19       		.uleb128 0x19
 2732 0153 01       		.uleb128 0x1
 2733 0154 13       		.uleb128 0x13
 2734 0155 00       		.byte	0
 2735 0156 00       		.byte	0
 2736 0157 1D       		.uleb128 0x1d
 2737 0158 05       		.uleb128 0x5
 2738 0159 00       		.byte	0
 2739 015a 03       		.uleb128 0x3
 2740 015b 0E       		.uleb128 0xe
 2741 015c 3A       		.uleb128 0x3a
 2742 015d 0B       		.uleb128 0xb
 2743 015e 3B       		.uleb128 0x3b
 2744 015f 0B       		.uleb128 0xb
 2745 0160 49       		.uleb128 0x49
 2746 0161 13       		.uleb128 0x13
 2747 0162 02       		.uleb128 0x2
 2748 0163 17       		.uleb128 0x17
 2749 0164 00       		.byte	0
 2750 0165 00       		.byte	0
 2751 0166 1E       		.uleb128 0x1e
 2752 0167 05       		.uleb128 0x5
 2753 0168 00       		.byte	0
 2754 0169 03       		.uleb128 0x3
 2755 016a 0E       		.uleb128 0xe
 2756 016b 3A       		.uleb128 0x3a
 2757 016c 0B       		.uleb128 0xb
 2758 016d 3B       		.uleb128 0x3b
 2759 016e 0B       		.uleb128 0xb
 2760 016f 49       		.uleb128 0x49
 2761 0170 13       		.uleb128 0x13
 2762 0171 02       		.uleb128 0x2
 2763 0172 18       		.uleb128 0x18
 2764 0173 00       		.byte	0
 2765 0174 00       		.byte	0
 2766 0175 1F       		.uleb128 0x1f
 2767 0176 2E       		.uleb128 0x2e
 2768 0177 01       		.byte	0x1
 2769 0178 03       		.uleb128 0x3
 2770 0179 0E       		.uleb128 0xe
 2771 017a 3A       		.uleb128 0x3a
 2772 017b 0B       		.uleb128 0xb
 2773 017c 3B       		.uleb128 0x3b
 2774 017d 0B       		.uleb128 0xb
 2775 017e 27       		.uleb128 0x27
 2776 017f 19       		.uleb128 0x19
 2777 0180 49       		.uleb128 0x49
 2778 0181 13       		.uleb128 0x13
 2779 0182 11       		.uleb128 0x11
 2780 0183 01       		.uleb128 0x1
 2781 0184 12       		.uleb128 0x12
 2782 0185 06       		.uleb128 0x6
 2783 0186 40       		.uleb128 0x40
 2784 0187 18       		.uleb128 0x18
 2785 0188 9742     		.uleb128 0x2117
 2786 018a 19       		.uleb128 0x19
ARM GAS  /tmp/ccZfLNxd.s 			page 50


 2787 018b 01       		.uleb128 0x1
 2788 018c 13       		.uleb128 0x13
 2789 018d 00       		.byte	0
 2790 018e 00       		.byte	0
 2791 018f 20       		.uleb128 0x20
 2792 0190 05       		.uleb128 0x5
 2793 0191 00       		.byte	0
 2794 0192 03       		.uleb128 0x3
 2795 0193 08       		.uleb128 0x8
 2796 0194 3A       		.uleb128 0x3a
 2797 0195 0B       		.uleb128 0xb
 2798 0196 3B       		.uleb128 0x3b
 2799 0197 0B       		.uleb128 0xb
 2800 0198 49       		.uleb128 0x49
 2801 0199 13       		.uleb128 0x13
 2802 019a 02       		.uleb128 0x2
 2803 019b 17       		.uleb128 0x17
 2804 019c 00       		.byte	0
 2805 019d 00       		.byte	0
 2806 019e 21       		.uleb128 0x21
 2807 019f 0B       		.uleb128 0xb
 2808 01a0 01       		.byte	0x1
 2809 01a1 55       		.uleb128 0x55
 2810 01a2 17       		.uleb128 0x17
 2811 01a3 00       		.byte	0
 2812 01a4 00       		.byte	0
 2813 01a5 22       		.uleb128 0x22
 2814 01a6 34       		.uleb128 0x34
 2815 01a7 00       		.byte	0
 2816 01a8 03       		.uleb128 0x3
 2817 01a9 08       		.uleb128 0x8
 2818 01aa 3A       		.uleb128 0x3a
 2819 01ab 0B       		.uleb128 0xb
 2820 01ac 3B       		.uleb128 0x3b
 2821 01ad 0B       		.uleb128 0xb
 2822 01ae 49       		.uleb128 0x49
 2823 01af 13       		.uleb128 0x13
 2824 01b0 02       		.uleb128 0x2
 2825 01b1 17       		.uleb128 0x17
 2826 01b2 00       		.byte	0
 2827 01b3 00       		.byte	0
 2828 01b4 23       		.uleb128 0x23
 2829 01b5 898201   		.uleb128 0x4109
 2830 01b8 01       		.byte	0x1
 2831 01b9 11       		.uleb128 0x11
 2832 01ba 01       		.uleb128 0x1
 2833 01bb 31       		.uleb128 0x31
 2834 01bc 13       		.uleb128 0x13
 2835 01bd 01       		.uleb128 0x1
 2836 01be 13       		.uleb128 0x13
 2837 01bf 00       		.byte	0
 2838 01c0 00       		.byte	0
 2839 01c1 24       		.uleb128 0x24
 2840 01c2 8A8201   		.uleb128 0x410a
 2841 01c5 00       		.byte	0
 2842 01c6 02       		.uleb128 0x2
 2843 01c7 18       		.uleb128 0x18
ARM GAS  /tmp/ccZfLNxd.s 			page 51


 2844 01c8 9142     		.uleb128 0x2111
 2845 01ca 18       		.uleb128 0x18
 2846 01cb 00       		.byte	0
 2847 01cc 00       		.byte	0
 2848 01cd 25       		.uleb128 0x25
 2849 01ce 898201   		.uleb128 0x4109
 2850 01d1 01       		.byte	0x1
 2851 01d2 11       		.uleb128 0x11
 2852 01d3 01       		.uleb128 0x1
 2853 01d4 31       		.uleb128 0x31
 2854 01d5 13       		.uleb128 0x13
 2855 01d6 00       		.byte	0
 2856 01d7 00       		.byte	0
 2857 01d8 26       		.uleb128 0x26
 2858 01d9 2E       		.uleb128 0x2e
 2859 01da 01       		.byte	0x1
 2860 01db 3F       		.uleb128 0x3f
 2861 01dc 19       		.uleb128 0x19
 2862 01dd 03       		.uleb128 0x3
 2863 01de 0E       		.uleb128 0xe
 2864 01df 3A       		.uleb128 0x3a
 2865 01e0 0B       		.uleb128 0xb
 2866 01e1 3B       		.uleb128 0x3b
 2867 01e2 0B       		.uleb128 0xb
 2868 01e3 27       		.uleb128 0x27
 2869 01e4 19       		.uleb128 0x19
 2870 01e5 49       		.uleb128 0x49
 2871 01e6 13       		.uleb128 0x13
 2872 01e7 11       		.uleb128 0x11
 2873 01e8 01       		.uleb128 0x1
 2874 01e9 12       		.uleb128 0x12
 2875 01ea 06       		.uleb128 0x6
 2876 01eb 40       		.uleb128 0x40
 2877 01ec 18       		.uleb128 0x18
 2878 01ed 9742     		.uleb128 0x2117
 2879 01ef 19       		.uleb128 0x19
 2880 01f0 01       		.uleb128 0x1
 2881 01f1 13       		.uleb128 0x13
 2882 01f2 00       		.byte	0
 2883 01f3 00       		.byte	0
 2884 01f4 27       		.uleb128 0x27
 2885 01f5 898201   		.uleb128 0x4109
 2886 01f8 00       		.byte	0
 2887 01f9 11       		.uleb128 0x11
 2888 01fa 01       		.uleb128 0x1
 2889 01fb 31       		.uleb128 0x31
 2890 01fc 13       		.uleb128 0x13
 2891 01fd 00       		.byte	0
 2892 01fe 00       		.byte	0
 2893 01ff 28       		.uleb128 0x28
 2894 0200 34       		.uleb128 0x34
 2895 0201 00       		.byte	0
 2896 0202 03       		.uleb128 0x3
 2897 0203 0E       		.uleb128 0xe
 2898 0204 3A       		.uleb128 0x3a
 2899 0205 0B       		.uleb128 0xb
 2900 0206 3B       		.uleb128 0x3b
ARM GAS  /tmp/ccZfLNxd.s 			page 52


 2901 0207 0B       		.uleb128 0xb
 2902 0208 49       		.uleb128 0x49
 2903 0209 13       		.uleb128 0x13
 2904 020a 02       		.uleb128 0x2
 2905 020b 18       		.uleb128 0x18
 2906 020c 00       		.byte	0
 2907 020d 00       		.byte	0
 2908 020e 29       		.uleb128 0x29
 2909 020f 34       		.uleb128 0x34
 2910 0210 00       		.byte	0
 2911 0211 03       		.uleb128 0x3
 2912 0212 0E       		.uleb128 0xe
 2913 0213 3A       		.uleb128 0x3a
 2914 0214 0B       		.uleb128 0xb
 2915 0215 3B       		.uleb128 0x3b
 2916 0216 0B       		.uleb128 0xb
 2917 0217 49       		.uleb128 0x49
 2918 0218 13       		.uleb128 0x13
 2919 0219 3F       		.uleb128 0x3f
 2920 021a 19       		.uleb128 0x19
 2921 021b 3C       		.uleb128 0x3c
 2922 021c 19       		.uleb128 0x19
 2923 021d 00       		.byte	0
 2924 021e 00       		.byte	0
 2925 021f 2A       		.uleb128 0x2a
 2926 0220 34       		.uleb128 0x34
 2927 0221 00       		.byte	0
 2928 0222 03       		.uleb128 0x3
 2929 0223 0E       		.uleb128 0xe
 2930 0224 3A       		.uleb128 0x3a
 2931 0225 0B       		.uleb128 0xb
 2932 0226 3B       		.uleb128 0x3b
 2933 0227 05       		.uleb128 0x5
 2934 0228 49       		.uleb128 0x49
 2935 0229 13       		.uleb128 0x13
 2936 022a 3F       		.uleb128 0x3f
 2937 022b 19       		.uleb128 0x19
 2938 022c 3C       		.uleb128 0x3c
 2939 022d 19       		.uleb128 0x19
 2940 022e 00       		.byte	0
 2941 022f 00       		.byte	0
 2942 0230 2B       		.uleb128 0x2b
 2943 0231 34       		.uleb128 0x34
 2944 0232 00       		.byte	0
 2945 0233 03       		.uleb128 0x3
 2946 0234 08       		.uleb128 0x8
 2947 0235 3A       		.uleb128 0x3a
 2948 0236 0B       		.uleb128 0xb
 2949 0237 3B       		.uleb128 0x3b
 2950 0238 05       		.uleb128 0x5
 2951 0239 49       		.uleb128 0x49
 2952 023a 13       		.uleb128 0x13
 2953 023b 3F       		.uleb128 0x3f
 2954 023c 19       		.uleb128 0x19
 2955 023d 3C       		.uleb128 0x3c
 2956 023e 19       		.uleb128 0x19
 2957 023f 00       		.byte	0
ARM GAS  /tmp/ccZfLNxd.s 			page 53


 2958 0240 00       		.byte	0
 2959 0241 2C       		.uleb128 0x2c
 2960 0242 2E       		.uleb128 0x2e
 2961 0243 01       		.byte	0x1
 2962 0244 3F       		.uleb128 0x3f
 2963 0245 19       		.uleb128 0x19
 2964 0246 03       		.uleb128 0x3
 2965 0247 0E       		.uleb128 0xe
 2966 0248 3A       		.uleb128 0x3a
 2967 0249 0B       		.uleb128 0xb
 2968 024a 3B       		.uleb128 0x3b
 2969 024b 0B       		.uleb128 0xb
 2970 024c 27       		.uleb128 0x27
 2971 024d 19       		.uleb128 0x19
 2972 024e 3C       		.uleb128 0x3c
 2973 024f 19       		.uleb128 0x19
 2974 0250 01       		.uleb128 0x1
 2975 0251 13       		.uleb128 0x13
 2976 0252 00       		.byte	0
 2977 0253 00       		.byte	0
 2978 0254 2D       		.uleb128 0x2d
 2979 0255 2E       		.uleb128 0x2e
 2980 0256 01       		.byte	0x1
 2981 0257 3F       		.uleb128 0x3f
 2982 0258 19       		.uleb128 0x19
 2983 0259 03       		.uleb128 0x3
 2984 025a 0E       		.uleb128 0xe
 2985 025b 3A       		.uleb128 0x3a
 2986 025c 0B       		.uleb128 0xb
 2987 025d 3B       		.uleb128 0x3b
 2988 025e 05       		.uleb128 0x5
 2989 025f 27       		.uleb128 0x27
 2990 0260 19       		.uleb128 0x19
 2991 0261 3C       		.uleb128 0x3c
 2992 0262 19       		.uleb128 0x19
 2993 0263 01       		.uleb128 0x1
 2994 0264 13       		.uleb128 0x13
 2995 0265 00       		.byte	0
 2996 0266 00       		.byte	0
 2997 0267 2E       		.uleb128 0x2e
 2998 0268 2E       		.uleb128 0x2e
 2999 0269 00       		.byte	0
 3000 026a 3F       		.uleb128 0x3f
 3001 026b 19       		.uleb128 0x19
 3002 026c 03       		.uleb128 0x3
 3003 026d 0E       		.uleb128 0xe
 3004 026e 3A       		.uleb128 0x3a
 3005 026f 0B       		.uleb128 0xb
 3006 0270 3B       		.uleb128 0x3b
 3007 0271 0B       		.uleb128 0xb
 3008 0272 27       		.uleb128 0x27
 3009 0273 19       		.uleb128 0x19
 3010 0274 3C       		.uleb128 0x3c
 3011 0275 19       		.uleb128 0x19
 3012 0276 00       		.byte	0
 3013 0277 00       		.byte	0
 3014 0278 2F       		.uleb128 0x2f
ARM GAS  /tmp/ccZfLNxd.s 			page 54


 3015 0279 2E       		.uleb128 0x2e
 3016 027a 01       		.byte	0x1
 3017 027b 3F       		.uleb128 0x3f
 3018 027c 19       		.uleb128 0x19
 3019 027d 03       		.uleb128 0x3
 3020 027e 0E       		.uleb128 0xe
 3021 027f 3A       		.uleb128 0x3a
 3022 0280 0B       		.uleb128 0xb
 3023 0281 3B       		.uleb128 0x3b
 3024 0282 05       		.uleb128 0x5
 3025 0283 27       		.uleb128 0x27
 3026 0284 19       		.uleb128 0x19
 3027 0285 49       		.uleb128 0x49
 3028 0286 13       		.uleb128 0x13
 3029 0287 3C       		.uleb128 0x3c
 3030 0288 19       		.uleb128 0x19
 3031 0289 01       		.uleb128 0x1
 3032 028a 13       		.uleb128 0x13
 3033 028b 00       		.byte	0
 3034 028c 00       		.byte	0
 3035 028d 30       		.uleb128 0x30
 3036 028e 2E       		.uleb128 0x2e
 3037 028f 01       		.byte	0x1
 3038 0290 3F       		.uleb128 0x3f
 3039 0291 19       		.uleb128 0x19
 3040 0292 03       		.uleb128 0x3
 3041 0293 0E       		.uleb128 0xe
 3042 0294 3A       		.uleb128 0x3a
 3043 0295 0B       		.uleb128 0xb
 3044 0296 3B       		.uleb128 0x3b
 3045 0297 0B       		.uleb128 0xb
 3046 0298 27       		.uleb128 0x27
 3047 0299 19       		.uleb128 0x19
 3048 029a 49       		.uleb128 0x49
 3049 029b 13       		.uleb128 0x13
 3050 029c 3C       		.uleb128 0x3c
 3051 029d 19       		.uleb128 0x19
 3052 029e 00       		.byte	0
 3053 029f 00       		.byte	0
 3054 02a0 00       		.byte	0
 3055              		.section	.debug_loc,"",%progbits
 3056              	.Ldebug_loc0:
 3057              	.LLST0:
 3058 0000 00000000 		.4byte	.LVL0
 3059 0004 0A000000 		.4byte	.LVL1
 3060 0008 0100     		.2byte	0x1
 3061 000a 50       		.byte	0x50
 3062 000b 0A000000 		.4byte	.LVL1
 3063 000f 18000000 		.4byte	.LFE118
 3064 0013 0400     		.2byte	0x4
 3065 0015 F3       		.byte	0xf3
 3066 0016 01       		.uleb128 0x1
 3067 0017 50       		.byte	0x50
 3068 0018 9F       		.byte	0x9f
 3069 0019 00000000 		.4byte	0
 3070 001d 00000000 		.4byte	0
 3071              	.LLST1:
ARM GAS  /tmp/ccZfLNxd.s 			page 55


 3072 0021 00000000 		.4byte	.LVL5
 3073 0025 28000000 		.4byte	.LVL6
 3074 0029 0100     		.2byte	0x1
 3075 002b 50       		.byte	0x50
 3076 002c 28000000 		.4byte	.LVL6
 3077 0030 E0000000 		.4byte	.LFE122
 3078 0034 0400     		.2byte	0x4
 3079 0036 F3       		.byte	0xf3
 3080 0037 01       		.uleb128 0x1
 3081 0038 50       		.byte	0x50
 3082 0039 9F       		.byte	0x9f
 3083 003a 00000000 		.4byte	0
 3084 003e 00000000 		.4byte	0
 3085              	.LLST2:
 3086 0042 60000000 		.4byte	.LVL11
 3087 0046 6C000000 		.4byte	.LVL12
 3088 004a 0100     		.2byte	0x1
 3089 004c 54       		.byte	0x54
 3090 004d 6C000000 		.4byte	.LVL12
 3091 0051 8E000000 		.4byte	.LVL13
 3092 0055 0400     		.2byte	0x4
 3093 0057 73       		.byte	0x73
 3094 0058 FB7E     		.sleb128 -133
 3095 005a 9F       		.byte	0x9f
 3096 005b CE000000 		.4byte	.LVL16
 3097 005f E0000000 		.4byte	.LFE122
 3098 0063 0400     		.2byte	0x4
 3099 0065 71       		.byte	0x71
 3100 0066 FB7E     		.sleb128 -133
 3101 0068 9F       		.byte	0x9f
 3102 0069 00000000 		.4byte	0
 3103 006d 00000000 		.4byte	0
 3104              	.LLST3:
 3105 0071 8E000000 		.4byte	.LVL13
 3106 0075 BA000000 		.4byte	.LVL15
 3107 0079 0100     		.2byte	0x1
 3108 007b 52       		.byte	0x52
 3109 007c 00000000 		.4byte	0
 3110 0080 00000000 		.4byte	0
 3111              	.LLST4:
 3112 0084 28000000 		.4byte	.LVL6
 3113 0088 60000000 		.4byte	.LVL11
 3114 008c 0100     		.2byte	0x1
 3115 008e 56       		.byte	0x56
 3116 008f B6000000 		.4byte	.LVL14
 3117 0093 CE000000 		.4byte	.LVL16
 3118 0097 0100     		.2byte	0x1
 3119 0099 56       		.byte	0x56
 3120 009a 00000000 		.4byte	0
 3121 009e 00000000 		.4byte	0
 3122              	.LLST5:
 3123 00a2 28000000 		.4byte	.LVL6
 3124 00a6 60000000 		.4byte	.LVL11
 3125 00aa 0100     		.2byte	0x1
 3126 00ac 55       		.byte	0x55
 3127 00ad 00000000 		.4byte	0
 3128 00b1 00000000 		.4byte	0
ARM GAS  /tmp/ccZfLNxd.s 			page 56


 3129              		.section	.debug_aranges,"",%progbits
 3130 0000 44000000 		.4byte	0x44
 3131 0004 0200     		.2byte	0x2
 3132 0006 00000000 		.4byte	.Ldebug_info0
 3133 000a 04       		.byte	0x4
 3134 000b 00       		.byte	0
 3135 000c 0000     		.2byte	0
 3136 000e 0000     		.2byte	0
 3137 0010 00000000 		.4byte	.LFB118
 3138 0014 18000000 		.4byte	.LFE118-.LFB118
 3139 0018 00000000 		.4byte	.LFB119
 3140 001c 0E000000 		.4byte	.LFE119-.LFB119
 3141 0020 00000000 		.4byte	.LFB120
 3142 0024 0E000000 		.4byte	.LFE120-.LFB120
 3143 0028 00000000 		.4byte	.LFB121
 3144 002c 10000000 		.4byte	.LFE121-.LFB121
 3145 0030 00000000 		.4byte	.LFB122
 3146 0034 E0000000 		.4byte	.LFE122-.LFB122
 3147 0038 00000000 		.4byte	.LFB123
 3148 003c AA000000 		.4byte	.LFE123-.LFB123
 3149 0040 00000000 		.4byte	0
 3150 0044 00000000 		.4byte	0
 3151              		.section	.debug_ranges,"",%progbits
 3152              	.Ldebug_ranges0:
 3153 0000 16000000 		.4byte	.LBB2
 3154 0004 1A000000 		.4byte	.LBE2
 3155 0008 1C000000 		.4byte	.LBB7
 3156 000c E0000000 		.4byte	.LBE7
 3157 0010 00000000 		.4byte	0
 3158 0014 00000000 		.4byte	0
 3159 0018 16000000 		.4byte	.LBB3
 3160 001c 1A000000 		.4byte	.LBE3
 3161 0020 1C000000 		.4byte	.LBB4
 3162 0024 20000000 		.4byte	.LBE4
 3163 0028 22000000 		.4byte	.LBB5
 3164 002c 5E000000 		.4byte	.LBE5
 3165 0030 76000000 		.4byte	.LBB6
 3166 0034 E0000000 		.4byte	.LBE6
 3167 0038 00000000 		.4byte	0
 3168 003c 00000000 		.4byte	0
 3169 0040 00000000 		.4byte	.LFB118
 3170 0044 18000000 		.4byte	.LFE118
 3171 0048 00000000 		.4byte	.LFB119
 3172 004c 0E000000 		.4byte	.LFE119
 3173 0050 00000000 		.4byte	.LFB120
 3174 0054 0E000000 		.4byte	.LFE120
 3175 0058 00000000 		.4byte	.LFB121
 3176 005c 10000000 		.4byte	.LFE121
 3177 0060 00000000 		.4byte	.LFB122
 3178 0064 E0000000 		.4byte	.LFE122
 3179 0068 00000000 		.4byte	.LFB123
 3180 006c AA000000 		.4byte	.LFE123
 3181 0070 00000000 		.4byte	0
 3182 0074 00000000 		.4byte	0
 3183              		.section	.debug_line,"",%progbits
 3184              	.Ldebug_line0:
 3185 0000 AE030000 		.section	.debug_str,"MS",%progbits,1
ARM GAS  /tmp/ccZfLNxd.s 			page 57


 3185      0200DD02 
 3185      00000201 
 3185      FB0E0D00 
 3185      01010101 
 3186              	.LASF80:
 3187 0000 7466756E 		.ascii	"tfunc_t\000"
 3187      635F7400 
 3188              	.LASF135:
 3189 0008 70776D63 		.ascii	"pwmchannel_t\000"
 3189      68616E6E 
 3189      656C5F74 
 3189      00
 3190              	.LASF124:
 3191 0015 44494552 		.ascii	"DIER\000"
 3191      00
 3192              	.LASF2:
 3193 001a 73697A65 		.ascii	"size_t\000"
 3193      5F7400
 3194              	.LASF75:
 3195 0021 7264796D 		.ascii	"rdymsg\000"
 3195      736700
 3196              	.LASF181:
 3197 0028 474E5520 		.ascii	"GNU C 4.8.2 -mcpu=cortex-m4 -mno-thumb-interwork -m"
 3197      4320342E 
 3197      382E3220 
 3197      2D6D6370 
 3197      753D636F 
 3198 005b 7468756D 		.ascii	"thumb -ggdb -O2 -std=gnu99 -fomit-frame-pointer -fa"
 3198      62202D67 
 3198      67646220 
 3198      2D4F3220 
 3198      2D737464 
 3199 008e 6C69676E 		.ascii	"lign-functions=16 -ffunction-sections -fdata-sectio"
 3199      2D66756E 
 3199      6374696F 
 3199      6E733D31 
 3199      36202D66 
 3200 00c1 6E73202D 		.ascii	"ns -fno-common\000"
 3200      666E6F2D 
 3200      636F6D6D 
 3200      6F6E00
 3201              	.LASF19:
 3202 00d0 75696E74 		.ascii	"uint64_t\000"
 3202      36345F74 
 3202      00
 3203              	.LASF92:
 3204 00d9 4F757470 		.ascii	"OutputQueue\000"
 3204      75745175 
 3204      65756500 
 3205              	.LASF3:
 3206 00e5 5F5F7569 		.ascii	"__uint8_t\000"
 3206      6E74385F 
 3206      7400
 3207              	.LASF104:
 3208 00ef 4F545950 		.ascii	"OTYPER\000"
 3208      455200
 3209              	.LASF108:
ARM GAS  /tmp/ccZfLNxd.s 			page 58


 3210 00f6 4C434B52 		.ascii	"LCKR\000"
 3210      00
 3211              	.LASF82:
 3212 00fb 715F7761 		.ascii	"q_waiting\000"
 3212      6974696E 
 3212      6700
 3213              	.LASF112:
 3214 0105 696F706F 		.ascii	"ioportmask_t\000"
 3214      72746D61 
 3214      736B5F74 
 3214      00
 3215              	.LASF120:
 3216 0112 70657269 		.ascii	"period\000"
 3216      6F6400
 3217              	.LASF103:
 3218 0119 4D4F4445 		.ascii	"MODER\000"
 3218      5200
 3219              	.LASF14:
 3220 011f 6C6F6E67 		.ascii	"long long unsigned int\000"
 3220      206C6F6E 
 3220      6720756E 
 3220      7369676E 
 3220      65642069 
 3221              	.LASF106:
 3222 0136 50555044 		.ascii	"PUPDR\000"
 3222      5200
 3223              	.LASF76:
 3224 013c 65786974 		.ascii	"exitcode\000"
 3224      636F6465 
 3224      00
 3225              	.LASF170:
 3226 0145 49544D5F 		.ascii	"ITM_RxBuffer\000"
 3226      52784275 
 3226      66666572 
 3226      00
 3227              	.LASF128:
 3228 0152 42445452 		.ascii	"BDTR\000"
 3228      00
 3229              	.LASF140:
 3230 0157 66726571 		.ascii	"frequency\000"
 3230      75656E63 
 3230      7900
 3231              	.LASF33:
 3232 0161 705F7072 		.ascii	"p_prio\000"
 3232      696F00
 3233              	.LASF115:
 3234 0168 50574D5F 		.ascii	"PWM_READY\000"
 3234      52454144 
 3234      5900
 3235              	.LASF161:
 3236 0172 72656164 		.ascii	"readt\000"
 3236      7400
 3237              	.LASF178:
 3238 0178 70776D53 		.ascii	"pwmStart\000"
 3238      74617274 
 3238      00
 3239              	.LASF125:
ARM GAS  /tmp/ccZfLNxd.s 			page 59


 3240 0181 43434D52 		.ascii	"CCMR1\000"
 3240      3100
 3241              	.LASF126:
 3242 0187 43434D52 		.ascii	"CCMR2\000"
 3242      3200
 3243              	.LASF130:
 3244 018d 43434D52 		.ascii	"CCMR3\000"
 3244      3300
 3245              	.LASF1:
 3246 0193 7369676E 		.ascii	"signed char\000"
 3246      65642063 
 3246      68617200 
 3247              	.LASF74:
 3248 019f 65735F6E 		.ascii	"es_next\000"
 3248      65787400 
 3249              	.LASF177:
 3250 01a7 63685379 		.ascii	"chSysInit\000"
 3250      73496E69 
 3250      7400
 3251              	.LASF99:
 3252 01b1 47545052 		.ascii	"GTPR\000"
 3252      00
 3253              	.LASF134:
 3254 01b6 70776D6D 		.ascii	"pwmmode_t\000"
 3254      6F64655F 
 3254      7400
 3255              	.LASF164:
 3256 01c0 70776D64 		.ascii	"pwmd\000"
 3256      00
 3257              	.LASF24:
 3258 01c5 74736C69 		.ascii	"tslices_t\000"
 3258      6365735F 
 3258      7400
 3259              	.LASF118:
 3260 01cf 73746174 		.ascii	"state\000"
 3260      6500
 3261              	.LASF141:
 3262 01d5 6368616E 		.ascii	"channels\000"
 3262      6E656C73 
 3262      00
 3263              	.LASF9:
 3264 01de 6C6F6E67 		.ascii	"long int\000"
 3264      20696E74 
 3264      00
 3265              	.LASF162:
 3266 01e7 636C6561 		.ascii	"clear_all\000"
 3266      725F616C 
 3266      6C00
 3267              	.LASF22:
 3268 01f1 74737461 		.ascii	"tstate_t\000"
 3268      74655F74 
 3268      00
 3269              	.LASF40:
 3270 01fa 705F7265 		.ascii	"p_refs\000"
 3270      667300
 3271              	.LASF12:
 3272 0201 6C6F6E67 		.ascii	"long long int\000"
ARM GAS  /tmp/ccZfLNxd.s 			page 60


 3272      206C6F6E 
 3272      6720696E 
 3272      7400
 3273              	.LASF84:
 3274 020f 715F6275 		.ascii	"q_buffer\000"
 3274      66666572 
 3274      00
 3275              	.LASF86:
 3276 0218 715F7772 		.ascii	"q_wrptr\000"
 3276      70747200 
 3277              	.LASF89:
 3278 0220 715F6C69 		.ascii	"q_link\000"
 3278      6E6B00
 3279              	.LASF35:
 3280 0227 705F6E65 		.ascii	"p_newer\000"
 3280      77657200 
 3281              	.LASF7:
 3282 022f 73686F72 		.ascii	"short unsigned int\000"
 3282      7420756E 
 3282      7369676E 
 3282      65642069 
 3282      6E7400
 3283              	.LASF171:
 3284 0242 50574D44 		.ascii	"PWMD4\000"
 3284      3400
 3285              	.LASF105:
 3286 0248 4F535045 		.ascii	"OSPEEDR\000"
 3286      45445200 
 3287              	.LASF60:
 3288 0250 725F6E65 		.ascii	"r_newer\000"
 3288      77657200 
 3289              	.LASF49:
 3290 0258 705F6D70 		.ascii	"p_mpool\000"
 3290      6F6F6C00 
 3291              	.LASF52:
 3292 0260 72656761 		.ascii	"regarm_t\000"
 3292      726D5F74 
 3292      00
 3293              	.LASF73:
 3294 0269 4576656E 		.ascii	"EventSource\000"
 3294      74536F75 
 3294      72636500 
 3295              	.LASF165:
 3296 0275 7365745F 		.ascii	"set_orange\000"
 3296      6F72616E 
 3296      676500
 3297              	.LASF152:
 3298 0280 75736172 		.ascii	"usart\000"
 3298      7400
 3299              	.LASF0:
 3300 0286 756E7369 		.ascii	"unsigned int\000"
 3300      676E6564 
 3300      20696E74 
 3300      00
 3301              	.LASF107:
 3302 0293 42535252 		.ascii	"BSRR\000"
 3302      00
ARM GAS  /tmp/ccZfLNxd.s 			page 61


 3303              	.LASF16:
 3304 0298 75696E74 		.ascii	"uint16_t\000"
 3304      31365F74 
 3304      00
 3305              	.LASF155:
 3306 02a1 53657269 		.ascii	"SerialDriverVMT\000"
 3306      616C4472 
 3306      69766572 
 3306      564D5400 
 3307              	.LASF42:
 3308 02b1 705F7469 		.ascii	"p_time\000"
 3308      6D6500
 3309              	.LASF150:
 3310 02b8 69717565 		.ascii	"iqueue\000"
 3310      756500
 3311              	.LASF44:
 3312 02bf 705F6D73 		.ascii	"p_msgqueue\000"
 3312      67717565 
 3312      756500
 3313              	.LASF111:
 3314 02ca 4750494F 		.ascii	"GPIO_TypeDef\000"
 3314      5F547970 
 3314      65446566 
 3314      00
 3315              	.LASF176:
 3316 02d7 68616C49 		.ascii	"halInit\000"
 3316      6E697400 
 3317              	.LASF159:
 3318 02df 67657474 		.ascii	"gett\000"
 3318      00
 3319              	.LASF149:
 3320 02e4 6576656E 		.ascii	"event\000"
 3320      7400
 3321              	.LASF123:
 3322 02ea 534D4352 		.ascii	"SMCR\000"
 3322      00
 3323              	.LASF26:
 3324 02ef 6D73675F 		.ascii	"msg_t\000"
 3324      7400
 3325              	.LASF151:
 3326 02f5 6F717565 		.ascii	"oqueue\000"
 3326      756500
 3327              	.LASF138:
 3328 02fc 63616C6C 		.ascii	"callback\000"
 3328      6261636B 
 3328      00
 3329              	.LASF101:
 3330 0305 55534152 		.ascii	"USART_TypeDef\000"
 3330      545F5479 
 3330      70654465 
 3330      6600
 3331              	.LASF160:
 3332 0313 77726974 		.ascii	"writet\000"
 3332      657400
 3333              	.LASF133:
 3334 031a 73746D33 		.ascii	"stm32_tim_t\000"
 3334      325F7469 
ARM GAS  /tmp/ccZfLNxd.s 			page 62


 3334      6D5F7400 
 3335              	.LASF166:
 3336 0326 7365745F 		.ascii	"set_red\000"
 3336      72656400 
 3337              	.LASF51:
 3338 032e 54687265 		.ascii	"ThreadsList\000"
 3338      6164734C 
 3338      69737400 
 3339              	.LASF27:
 3340 033a 6576656E 		.ascii	"eventmask_t\000"
 3340      746D6173 
 3340      6B5F7400 
 3341              	.LASF91:
 3342 0346 496E7075 		.ascii	"InputQueue\000"
 3342      74517565 
 3342      756500
 3343              	.LASF153:
 3344 0351 73706565 		.ascii	"speed\000"
 3344      6400
 3345              	.LASF90:
 3346 0357 716E6F74 		.ascii	"qnotify_t\000"
 3346      6966795F 
 3346      7400
 3347              	.LASF81:
 3348 0361 47656E65 		.ascii	"GenericQueue\000"
 3348      72696351 
 3348      75657565 
 3348      00
 3349              	.LASF53:
 3350 036e 73746B61 		.ascii	"stkalign_t\000"
 3350      6C69676E 
 3350      5F7400
 3351              	.LASF184:
 3352 0379 54687265 		.ascii	"Thread1\000"
 3352      61643100 
 3353              	.LASF186:
 3354 0381 63685468 		.ascii	"chThdCreateStatic\000"
 3354      64437265 
 3354      61746553 
 3354      74617469 
 3354      6300
 3355              	.LASF156:
 3356 0393 77726974 		.ascii	"write\000"
 3356      6500
 3357              	.LASF183:
 3358 0399 2F686F6D 		.ascii	"/home/caroline/Documents/PAF/ChibiOS_2.6.4/demos/AR"
 3358      652F6361 
 3358      726F6C69 
 3358      6E652F44 
 3358      6F63756D 
 3359 03cc 4D434D34 		.ascii	"MCM4-STM32F407-LWIP\000"
 3359      2D53544D 
 3359      33324634 
 3359      30372D4C 
 3359      57495000 
 3360              	.LASF158:
 3361 03e0 70757474 		.ascii	"putt\000"
ARM GAS  /tmp/ccZfLNxd.s 			page 63


 3361      00
 3362              	.LASF56:
 3363 03e5 73697A65 		.ascii	"sizetype\000"
 3363      74797065 
 3363      00
 3364              	.LASF102:
 3365 03ee 636C6561 		.ascii	"clear\000"
 3365      7200
 3366              	.LASF64:
 3367 03f4 4D757465 		.ascii	"Mutex\000"
 3367      7800
 3368              	.LASF36:
 3369 03fa 705F6F6C 		.ascii	"p_older\000"
 3369      64657200 
 3370              	.LASF59:
 3371 0402 725F6374 		.ascii	"r_ctx\000"
 3371      7800
 3372              	.LASF50:
 3373 0408 54687265 		.ascii	"ThreadsQueue\000"
 3373      61647351 
 3373      75657565 
 3373      00
 3374              	.LASF182:
 3375 0415 6D61696E 		.ascii	"main.c\000"
 3375      2E6300
 3376              	.LASF61:
 3377 041c 725F6F6C 		.ascii	"r_older\000"
 3377      64657200 
 3378              	.LASF71:
 3379 0424 656C5F6D 		.ascii	"el_mask\000"
 3379      61736B00 
 3380              	.LASF175:
 3381 042c 63685468 		.ascii	"chThdSleep\000"
 3381      64536C65 
 3381      657000
 3382              	.LASF154:
 3383 0437 53657269 		.ascii	"SerialConfig\000"
 3383      616C436F 
 3383      6E666967 
 3383      00
 3384              	.LASF13:
 3385 0444 5F5F7569 		.ascii	"__uint64_t\000"
 3385      6E743634 
 3385      5F7400
 3386              	.LASF110:
 3387 044f 41465248 		.ascii	"AFRH\000"
 3387      00
 3388              	.LASF109:
 3389 0454 4146524C 		.ascii	"AFRL\000"
 3389      00
 3390              	.LASF168:
 3391 0459 77615468 		.ascii	"waThread1\000"
 3391      72656164 
 3391      3100
 3392              	.LASF122:
 3393 0463 70776D63 		.ascii	"pwmcallback_t\000"
 3393      616C6C62 
ARM GAS  /tmp/ccZfLNxd.s 			page 64


 3393      61636B5F 
 3393      7400
 3394              	.LASF23:
 3395 0471 74726566 		.ascii	"trefs_t\000"
 3395      735F7400 
 3396              	.LASF93:
 3397 0479 52455345 		.ascii	"RESERVED0\000"
 3397      52564544 
 3397      3000
 3398              	.LASF94:
 3399 0483 52455345 		.ascii	"RESERVED1\000"
 3399      52564544 
 3399      3100
 3400              	.LASF95:
 3401 048d 52455345 		.ascii	"RESERVED2\000"
 3401      52564544 
 3401      3200
 3402              	.LASF96:
 3403 0497 52455345 		.ascii	"RESERVED3\000"
 3403      52564544 
 3403      3300
 3404              	.LASF97:
 3405 04a1 52455345 		.ascii	"RESERVED4\000"
 3405      52564544 
 3405      3400
 3406              	.LASF32:
 3407 04ab 705F7072 		.ascii	"p_prev\000"
 3407      657600
 3408              	.LASF100:
 3409 04b2 52455345 		.ascii	"RESERVED6\000"
 3409      52564544 
 3409      3600
 3410              	.LASF25:
 3411 04bc 74707269 		.ascii	"tprio_t\000"
 3411      6F5F7400 
 3412              	.LASF87:
 3413 04c4 715F7264 		.ascii	"q_rdptr\000"
 3413      70747200 
 3414              	.LASF20:
 3415 04cc 5F426F6F 		.ascii	"_Bool\000"
 3415      6C00
 3416              	.LASF17:
 3417 04d2 696E7433 		.ascii	"int32_t\000"
 3417      325F7400 
 3418              	.LASF4:
 3419 04da 756E7369 		.ascii	"unsigned char\000"
 3419      676E6564 
 3419      20636861 
 3419      7200
 3420              	.LASF65:
 3421 04e8 6D5F7175 		.ascii	"m_queue\000"
 3421      65756500 
 3422              	.LASF114:
 3423 04f0 50574D5F 		.ascii	"PWM_STOP\000"
 3423      53544F50 
 3423      00
 3424              	.LASF180:
ARM GAS  /tmp/ccZfLNxd.s 			page 65


 3425 04f9 54657374 		.ascii	"TestThread\000"
 3425      54687265 
 3425      616400
 3426              	.LASF70:
 3427 0504 656C5F6C 		.ascii	"el_listener\000"
 3427      69737465 
 3427      6E657200 
 3428              	.LASF72:
 3429 0510 656C5F66 		.ascii	"el_flags\000"
 3429      6C616773 
 3429      00
 3430              	.LASF47:
 3431 0519 705F6D74 		.ascii	"p_mtxlist\000"
 3431      786C6973 
 3431      7400
 3432              	.LASF5:
 3433 0523 73686F72 		.ascii	"short int\000"
 3433      7420696E 
 3433      7400
 3434              	.LASF38:
 3435 052d 705F7374 		.ascii	"p_state\000"
 3435      61746500 
 3436              	.LASF41:
 3437 0535 705F7072 		.ascii	"p_preempt\000"
 3437      65656D70 
 3437      7400
 3438              	.LASF58:
 3439 053f 725F7072 		.ascii	"r_prio\000"
 3439      696F00
 3440              	.LASF78:
 3441 0546 65776D61 		.ascii	"ewmask\000"
 3441      736B00
 3442              	.LASF31:
 3443 054d 705F6E65 		.ascii	"p_next\000"
 3443      787400
 3444              	.LASF39:
 3445 0554 705F666C 		.ascii	"p_flags\000"
 3445      61677300 
 3446              	.LASF69:
 3447 055c 656C5F6E 		.ascii	"el_next\000"
 3447      65787400 
 3448              	.LASF145:
 3449 0564 53445F53 		.ascii	"SD_STOP\000"
 3449      544F5000 
 3450              	.LASF30:
 3451 056c 54687265 		.ascii	"Thread\000"
 3451      616400
 3452              	.LASF28:
 3453 0573 666C6167 		.ascii	"flagsmask_t\000"
 3453      736D6173 
 3453      6B5F7400 
 3454              	.LASF46:
 3455 057f 705F6570 		.ascii	"p_epending\000"
 3455      656E6469 
 3455      6E6700
 3456              	.LASF144:
 3457 058a 53445F55 		.ascii	"SD_UNINIT\000"
ARM GAS  /tmp/ccZfLNxd.s 			page 66


 3457      4E494E49 
 3457      5400
 3458              	.LASF98:
 3459 0594 52455345 		.ascii	"RESERVED5\000"
 3459      52564544 
 3459      3500
 3460              	.LASF83:
 3461 059e 715F636F 		.ascii	"q_counter\000"
 3461      756E7465 
 3461      7200
 3462              	.LASF57:
 3463 05a8 725F7175 		.ascii	"r_queue\000"
 3463      65756500 
 3464              	.LASF147:
 3465 05b0 73647374 		.ascii	"sdstate_t\000"
 3465      6174655F 
 3465      7400
 3466              	.LASF143:
 3467 05ba 50574D43 		.ascii	"PWMConfig\000"
 3467      6F6E6669 
 3467      6700
 3468              	.LASF148:
 3469 05c4 53657269 		.ascii	"SerialDriver\000"
 3469      616C4472 
 3469      69766572 
 3469      00
 3470              	.LASF11:
 3471 05d1 6C6F6E67 		.ascii	"long unsigned int\000"
 3471      20756E73 
 3471      69676E65 
 3471      6420696E 
 3471      7400
 3472              	.LASF62:
 3473 05e3 725F6375 		.ascii	"r_current\000"
 3473      7272656E 
 3473      7400
 3474              	.LASF157:
 3475 05ed 72656164 		.ascii	"read\000"
 3475      00
 3476              	.LASF79:
 3477 05f2 63686172 		.ascii	"char\000"
 3477      00
 3478              	.LASF6:
 3479 05f7 5F5F7569 		.ascii	"__uint16_t\000"
 3479      6E743136 
 3479      5F7400
 3480              	.LASF137:
 3481 0602 6D6F6465 		.ascii	"mode\000"
 3481      00
 3482              	.LASF119:
 3483 0607 636F6E66 		.ascii	"config\000"
 3483      696700
 3484              	.LASF179:
 3485 060e 73645374 		.ascii	"sdStart\000"
 3485      61727400 
 3486              	.LASF129:
 3487 0616 444D4152 		.ascii	"DMAR\000"
ARM GAS  /tmp/ccZfLNxd.s 			page 67


 3487      00
 3488              	.LASF127:
 3489 061b 43434552 		.ascii	"CCER\000"
 3489      00
 3490              	.LASF67:
 3491 0620 6D5F6E65 		.ascii	"m_next\000"
 3491      787400
 3492              	.LASF29:
 3493 0627 73797374 		.ascii	"systime_t\000"
 3493      696D655F 
 3493      7400
 3494              	.LASF48:
 3495 0631 705F7265 		.ascii	"p_realprio\000"
 3495      616C7072 
 3495      696F00
 3496              	.LASF8:
 3497 063c 5F5F696E 		.ascii	"__int32_t\000"
 3497      7433325F 
 3497      7400
 3498              	.LASF10:
 3499 0646 5F5F7569 		.ascii	"__uint32_t\000"
 3499      6E743332 
 3499      5F7400
 3500              	.LASF163:
 3501 0651 7365745F 		.ascii	"set_green\000"
 3501      67726565 
 3501      6E00
 3502              	.LASF55:
 3503 065b 636F6E74 		.ascii	"context\000"
 3503      65787400 
 3504              	.LASF139:
 3505 0663 50574D43 		.ascii	"PWMChannelConfig\000"
 3505      68616E6E 
 3505      656C436F 
 3505      6E666967 
 3505      00
 3506              	.LASF54:
 3507 0674 696E7463 		.ascii	"intctx\000"
 3507      747800
 3508              	.LASF146:
 3509 067b 53445F52 		.ascii	"SD_READY\000"
 3509      45414459 
 3509      00
 3510              	.LASF167:
 3511 0684 70776D63 		.ascii	"pwmcfg\000"
 3511      666700
 3512              	.LASF18:
 3513 068b 75696E74 		.ascii	"uint32_t\000"
 3513      33325F74 
 3513      00
 3514              	.LASF85:
 3515 0694 715F746F 		.ascii	"q_top\000"
 3515      7000
 3516              	.LASF37:
 3517 069a 705F6E61 		.ascii	"p_name\000"
 3517      6D6500
 3518              	.LASF131:
ARM GAS  /tmp/ccZfLNxd.s 			page 68


 3519 06a1 43435235 		.ascii	"CCR5\000"
 3519      00
 3520              	.LASF132:
 3521 06a6 43435236 		.ascii	"CCR6\000"
 3521      00
 3522              	.LASF63:
 3523 06ab 52656164 		.ascii	"ReadyList\000"
 3523      794C6973 
 3523      7400
 3524              	.LASF88:
 3525 06b5 715F6E6F 		.ascii	"q_notify\000"
 3525      74696679 
 3525      00
 3526              	.LASF169:
 3527 06be 726C6973 		.ascii	"rlist\000"
 3527      7400
 3528              	.LASF15:
 3529 06c4 75696E74 		.ascii	"uint8_t\000"
 3529      385F7400 
 3530              	.LASF117:
 3531 06cc 50574D44 		.ascii	"PWMDriver\000"
 3531      72697665 
 3531      7200
 3532              	.LASF116:
 3533 06d6 70776D73 		.ascii	"pwmstate_t\000"
 3533      74617465 
 3533      5F7400
 3534              	.LASF136:
 3535 06e1 70776D63 		.ascii	"pwmcnt_t\000"
 3535      6E745F74 
 3535      00
 3536              	.LASF68:
 3537 06ea 4576656E 		.ascii	"EventListener\000"
 3537      744C6973 
 3537      74656E65 
 3537      7200
 3538              	.LASF77:
 3539 06f8 77746F62 		.ascii	"wtobjp\000"
 3539      6A7000
 3540              	.LASF172:
 3541 06ff 77615F6C 		.ascii	"wa_lwip_thread\000"
 3541      7769705F 
 3541      74687265 
 3541      616400
 3542              	.LASF21:
 3543 070e 746D6F64 		.ascii	"tmode_t\000"
 3543      655F7400 
 3544              	.LASF121:
 3545 0716 636C6F63 		.ascii	"clock\000"
 3545      6B00
 3546              	.LASF45:
 3547 071c 705F6D73 		.ascii	"p_msg\000"
 3547      6700
 3548              	.LASF185:
 3549 0722 6D61696E 		.ascii	"main\000"
 3549      00
 3550              	.LASF113:
ARM GAS  /tmp/ccZfLNxd.s 			page 69


 3551 0727 50574D5F 		.ascii	"PWM_UNINIT\000"
 3551      554E494E 
 3551      495400
 3552              	.LASF66:
 3553 0732 6D5F6F77 		.ascii	"m_owner\000"
 3553      6E657200 
 3554              	.LASF174:
 3555 073a 70776D45 		.ascii	"pwmEnableChannel\000"
 3555      6E61626C 
 3555      65436861 
 3555      6E6E656C 
 3555      00
 3556              	.LASF34:
 3557 074b 705F6374 		.ascii	"p_ctx\000"
 3557      7800
 3558              	.LASF43:
 3559 0751 705F7761 		.ascii	"p_waiting\000"
 3559      6974696E 
 3559      6700
 3560              	.LASF142:
 3561 075b 64696572 		.ascii	"dier\000"
 3561      00
 3562              	.LASF173:
 3563 0760 77615F68 		.ascii	"wa_http_server\000"
 3563      7474705F 
 3563      73657276 
 3563      657200
 3564              		.ident	"GCC: (4.8.2-14ubuntu1+6) 4.8.2"
ARM GAS  /tmp/ccZfLNxd.s 			page 70


DEFINED SYMBOLS
                            *ABS*:0000000000000000 main.c
     /tmp/ccZfLNxd.s:19     .text.clear_all:0000000000000000 $t
     /tmp/ccZfLNxd.s:24     .text.clear_all:0000000000000000 clear_all
     /tmp/ccZfLNxd.s:53     .text.set_green:0000000000000000 $t
     /tmp/ccZfLNxd.s:58     .text.set_green:0000000000000000 set_green
     /tmp/ccZfLNxd.s:76     .text.set_orange:0000000000000000 $t
     /tmp/ccZfLNxd.s:81     .text.set_orange:0000000000000000 set_orange
     /tmp/ccZfLNxd.s:99     .text.set_red:0000000000000000 $t
     /tmp/ccZfLNxd.s:104    .text.set_red:0000000000000000 set_red
     /tmp/ccZfLNxd.s:122    .text.Thread1:0000000000000000 $t
     /tmp/ccZfLNxd.s:127    .text.Thread1:0000000000000000 Thread1
     /tmp/ccZfLNxd.s:391    .rodata.str1.4:0000000000000000 .LC0
     /tmp/ccZfLNxd.s:269    .text.startup.main:0000000000000000 $t
     /tmp/ccZfLNxd.s:275    .text.startup.main:0000000000000000 main
     /tmp/ccZfLNxd.s:371    .data.pwmcfg:0000000000000000 .LANCHOR0
     /tmp/ccZfLNxd.s:364    .bss.waThread1:0000000000000000 .LANCHOR1
     /tmp/ccZfLNxd.s:363    .bss.waThread1:0000000000000000 $d
     /tmp/ccZfLNxd.s:367    .bss.waThread1:0000000000000000 waThread1
     /tmp/ccZfLNxd.s:370    .data.pwmcfg:0000000000000000 $d
     /tmp/ccZfLNxd.s:374    .data.pwmcfg:0000000000000000 pwmcfg
     /tmp/ccZfLNxd.s:390    .rodata.str1.4:0000000000000000 $d
                     .debug_frame:0000000000000010 $d

UNDEFINED SYMBOLS
rlist
PWMD4
pwmEnableChannel
chThdSleep
halInit
chSysInit
pwmStart
SD6
sdStart
chThdCreateStatic
wa_lwip_thread
lwip_thread
wa_http_server
http_server
TestThread
