ARM GAS  /tmp/ccZfLNxd.s 			page 1


   1              		.syntax unified
   2              		.cpu cortex-m4
   3              		.fpu softvfp
   4              		.eabi_attribute 20, 1
   5              		.eabi_attribute 21, 1
   6              		.eabi_attribute 23, 3
   7              		.eabi_attribute 24, 1
   8              		.eabi_attribute 25, 1
   9              		.eabi_attribute 26, 1
  10              		.eabi_attribute 30, 2
  11              		.eabi_attribute 34, 1
  12              		.eabi_attribute 18, 4
  13              		.thumb
  14              		.file	"main.c"
  15              		.text
  16              	.Ltext0:
  17              		.cfi_sections	.debug_frame
  18              		.section	.text.clear_all,"ax",%progbits
  19              		.align	2
  20              		.p2align 4,,15
  21              		.thumb
  22              		.thumb_func
  23              		.type	clear_all, %function
  24              	clear_all:
  25              	.LFB118:
  26              		.file 1 "main.c"
  27              		.loc 1 26 0
  28              		.cfi_startproc
  29              		@ args = 0, pretend = 0, frame = 0
  30              		@ frame_needed = 0, uses_anonymous_args = 0
  31              		@ link register save eliminated.
  32              	.LVL0:
  33              		.loc 1 27 0
  34 0000 4FF4A053 		mov	r3, #5120
  35 0004 C4F20203 		movt	r3, 16386
  36 0008 4020     		movs	r0, #64
  37              	.LVL1:
  38              		.loc 1 28 0
  39 000a 8021     		movs	r1, #128
  40              		.loc 1 29 0
  41 000c 4FF48072 		mov	r2, #256
  42              		.loc 1 27 0
  43 0010 1883     		strh	r0, [r3, #24]	@ movhi
  44              		.loc 1 28 0
  45 0012 1983     		strh	r1, [r3, #24]	@ movhi
  46              		.loc 1 29 0
  47 0014 1A83     		strh	r2, [r3, #24]	@ movhi
  48 0016 7047     		bx	lr
  49              		.cfi_endproc
  50              	.LFE118:
  51              		.size	clear_all, .-clear_all
  52 0018 AFF30080 		.section	.text.set_green,"ax",%progbits
  52      AFF30080 
  53              		.align	2
  54              		.p2align 4,,15
  55              		.thumb
  56              		.thumb_func
ARM GAS  /tmp/ccZfLNxd.s 			page 2


  57              		.type	set_green, %function
  58              	set_green:
  59              	.LFB119:
  60              		.loc 1 33 0
  61              		.cfi_startproc
  62              		@ args = 0, pretend = 0, frame = 0
  63              		@ frame_needed = 0, uses_anonymous_args = 0
  64              		@ link register save eliminated.
  65              	.LVL2:
  66              		.loc 1 34 0
  67 0000 4FF4A053 		mov	r3, #5120
  68 0004 C4F20203 		movt	r3, 16386
  69 0008 4022     		movs	r2, #64
  70 000a 5A83     		strh	r2, [r3, #26]	@ movhi
  71 000c 7047     		bx	lr
  72              		.cfi_endproc
  73              	.LFE119:
  74              		.size	set_green, .-set_green
  75 000e 00BF     		.section	.text.set_orange,"ax",%progbits
  76              		.align	2
  77              		.p2align 4,,15
  78              		.thumb
  79              		.thumb_func
  80              		.type	set_orange, %function
  81              	set_orange:
  82              	.LFB120:
  83              		.loc 1 38 0
  84              		.cfi_startproc
  85              		@ args = 0, pretend = 0, frame = 0
  86              		@ frame_needed = 0, uses_anonymous_args = 0
  87              		@ link register save eliminated.
  88              	.LVL3:
  89              		.loc 1 39 0
  90 0000 4FF4A053 		mov	r3, #5120
  91 0004 C4F20203 		movt	r3, 16386
  92 0008 8022     		movs	r2, #128
  93 000a 5A83     		strh	r2, [r3, #26]	@ movhi
  94 000c 7047     		bx	lr
  95              		.cfi_endproc
  96              	.LFE120:
  97              		.size	set_orange, .-set_orange
  98 000e 00BF     		.section	.text.set_red,"ax",%progbits
  99              		.align	2
 100              		.p2align 4,,15
 101              		.thumb
 102              		.thumb_func
 103              		.type	set_red, %function
 104              	set_red:
 105              	.LFB121:
 106              		.loc 1 42 0
 107              		.cfi_startproc
 108              		@ args = 0, pretend = 0, frame = 0
 109              		@ frame_needed = 0, uses_anonymous_args = 0
 110              		@ link register save eliminated.
 111              	.LVL4:
 112              		.loc 1 43 0
 113 0000 4FF4A053 		mov	r3, #5120
ARM GAS  /tmp/ccZfLNxd.s 			page 3


 114 0004 C4F20203 		movt	r3, 16386
 115 0008 4FF48072 		mov	r2, #256
 116 000c 5A83     		strh	r2, [r3, #26]	@ movhi
 117 000e 7047     		bx	lr
 118              		.cfi_endproc
 119              	.LFE121:
 120              		.size	set_red, .-set_red
 121              		.section	.text.Thread1,"ax",%progbits
 122              		.align	2
 123              		.p2align 4,,15
 124              		.thumb
 125              		.thumb_func
 126              		.type	Thread1, %function
 127              	Thread1:
 128              	.LFB122:
 129              		.loc 1 66 0
 130              		.cfi_startproc
 131              		@ args = 0, pretend = 0, frame = 0
 132              		@ frame_needed = 0, uses_anonymous_args = 0
 133              	.LVL5:
 134              		.loc 1 69 0
 135 0000 40F20002 		movw	r2, #:lower16:rlist
 136 0004 C0F20002 		movt	r2, #:upper16:rlist
 137 0008 40F20003 		movw	r3, #:lower16:.LC0
 138 000c 9269     		ldr	r2, [r2, #24]
 139              		.loc 1 66 0
 140 000e 2DE9F041 		push	{r4, r5, r6, r7, r8, lr}
 141              		.cfi_def_cfa_offset 24
 142              		.cfi_offset 4, -24
 143              		.cfi_offset 5, -20
 144              		.cfi_offset 6, -16
 145              		.cfi_offset 7, -12
 146              		.cfi_offset 8, -8
 147              		.cfi_offset 14, -4
 148              		.loc 1 69 0
 149 0012 C0F20003 		movt	r3, #:upper16:.LC0
 150              	.LBB2:
 151              	.LBB3:
 152              		.loc 1 76 0
 153 0016 48F21F57 		movw	r7, #34079
 154              	.LBE3:
 155              	.LBE2:
 156              		.loc 1 69 0
 157 001a 9361     		str	r3, [r2, #24]
 158              	.LBB7:
 159              	.LBB4:
 160              		.loc 1 76 0
 161 001c C5F2EB17 		movt	r7, 20971
 162              	.LBE4:
 163              		.loc 1 71 0
 164 0020 0124     		movs	r4, #1
 165              	.LBB5:
 166              		.loc 1 76 0
 167 0022 4FF4C878 		mov	r8, #400
 168 0026 1BE0     		b	.L6
 169              	.LVL6:
 170              	.L10:
ARM GAS  /tmp/ccZfLNxd.s 			page 4


 171              		.loc 1 78 0 discriminator 3
 172 0028 40F20000 		movw	r0, #:lower16:PWMD4
 173 002c 92B2     		uxth	r2, r2
 174 002e C0F20000 		movt	r0, #:upper16:PWMD4
 175 0032 0021     		movs	r1, #0
 176 0034 FFF7FEFF 		bl	pwmEnableChannel
 177              	.LVL7:
 178              		.loc 1 79 0 discriminator 3
 179 0038 40F20000 		movw	r0, #:lower16:PWMD4
 180 003c B2B2     		uxth	r2, r6
 181 003e C0F20000 		movt	r0, #:upper16:PWMD4
 182 0042 0121     		movs	r1, #1
 183 0044 FFF7FEFF 		bl	pwmEnableChannel
 184              	.LVL8:
 185              		.loc 1 80 0 discriminator 3
 186 0048 40F20000 		movw	r0, #:lower16:PWMD4
 187 004c AAB2     		uxth	r2, r5
 188 004e C0F20000 		movt	r0, #:upper16:PWMD4
 189 0052 0221     		movs	r1, #2
 190 0054 FFF7FEFF 		bl	pwmEnableChannel
 191              	.LVL9:
 192              		.loc 1 81 0 discriminator 3
 193 0058 0820     		movs	r0, #8
 194 005a FFF7FEFF 		bl	chThdSleep
 195              	.LVL10:
 196              	.LBE5:
 197              		.loc 1 71 0 discriminator 3
 198 005e 0134     		adds	r4, r4, #1
 199              	.LVL11:
 200              	.L6:
 201              		.loc 1 71 0 is_stmt 0 discriminator 1
 202 0060 B4F5C87F 		cmp	r4, #400
 203 0064 04F18503 		add	r3, r4, #133
 204 0068 A8BF     		it	ge
 205 006a 0124     		movge	r4, #1
 206              	.LVL12:
 207 006c 1946     		mov	r1, r3
 208 006e A4BF     		itt	ge
 209 0070 2246     		movge	r2, r4
 210 0072 8626     		movge	r6, #134
 211 0074 21DA     		bge	.L12
 212              	.LBB6:
 213              		.loc 1 74 0 is_stmt 1
 214 0076 C72C     		cmp	r4, #199
 215 0078 29DD     		ble	.L14
 216 007a 87FB0316 		smull	r1, r6, r7, r3
 217 007e D917     		asrs	r1, r3, #31
 218              		.loc 1 74 0 is_stmt 0 discriminator 1
 219 0080 C4F5C772 		rsb	r2, r4, #398
 220 0084 C1EBE616 		rsb	r6, r1, r6, asr #7
 221 0088 0132     		adds	r2, r2, #1
 222 008a 08FB1636 		mls	r6, r8, r6, r3
 223              	.LVL13:
 224              	.L8:
 225              		.loc 1 76 0 is_stmt 1 discriminator 3
 226 008e 04F58573 		add	r3, r4, #266
 227 0092 87FB0315 		smull	r1, r5, r7, r3
ARM GAS  /tmp/ccZfLNxd.s 			page 5


 228 0096 D917     		asrs	r1, r3, #31
 229 0098 C1EBE515 		rsb	r5, r1, r5, asr #7
 230              		.loc 1 75 0 discriminator 3
 231 009c C72E     		cmp	r6, #199
 232              		.loc 1 76 0 discriminator 3
 233 009e 08FB1535 		mls	r5, r8, r5, r3
 234              		.loc 1 75 0 discriminator 3
 235 00a2 C4F58573 		rsb	r3, r4, #266
 236 00a6 C1BF     		itttt	gt
 237 00a8 87FB0316 		smullgt	r1, r6, r7, r3
 238 00ac D917     		asrgt	r1, r3, #31
 239 00ae C1EBE616 		rsbgt	r6, r1, r6, asr #7
 240 00b2 08FB1636 		mlsgt	r6, r8, r6, r3
 241              	.LVL14:
 242              		.loc 1 76 0 discriminator 3
 243 00b6 C72D     		cmp	r5, #199
 244 00b8 B6DD     		ble	.L10
 245              	.LVL15:
 246              	.L12:
 247              		.loc 1 76 0 is_stmt 0 discriminator 2
 248 00ba C4F18503 		rsb	r3, r4, #133
 249 00be 87FB0315 		smull	r1, r5, r7, r3
 250 00c2 D917     		asrs	r1, r3, #31
 251 00c4 C1EBE515 		rsb	r5, r1, r5, asr #7
 252 00c8 08FB1535 		mls	r5, r8, r5, r3
 253 00cc ACE7     		b	.L10
 254              	.LVL16:
 255              	.L14:
 256 00ce 87FB0136 		smull	r3, r6, r7, r1
 257 00d2 CB17     		asrs	r3, r1, #31
 258 00d4 C3EBE616 		rsb	r6, r3, r6, asr #7
 259              		.loc 1 74 0 is_stmt 1
 260 00d8 2246     		mov	r2, r4
 261 00da 08FB1616 		mls	r6, r8, r6, r1
 262 00de D6E7     		b	.L8
 263              	.LBE6:
 264              	.LBE7:
 265              		.cfi_endproc
 266              	.LFE122:
 267              		.size	Thread1, .-Thread1
 268              		.section	.text.startup.main,"ax",%progbits
 269              		.align	2
 270              		.p2align 4,,15
 271              		.global	main
 272              		.thumb
 273              		.thumb_func
 274              		.type	main, %function
 275              	main:
 276              	.LFB123:
 277              		.loc 1 90 0
 278              		.cfi_startproc
 279              		@ Volatile: function does not return.
 280              		@ args = 0, pretend = 0, frame = 0
 281              		@ frame_needed = 0, uses_anonymous_args = 0
 282 0000 00B5     		push	{lr}
 283              		.cfi_def_cfa_offset 4
 284              		.cfi_offset 14, -4
ARM GAS  /tmp/ccZfLNxd.s 			page 6


 285 0002 83B0     		sub	sp, sp, #12
 286              		.cfi_def_cfa_offset 16
 287              		.loc 1 99 0
 288 0004 FFF7FEFF 		bl	halInit
 289              	.LVL17:
 290              		.loc 1 100 0
 291 0008 FFF7FEFF 		bl	chSysInit
 292              	.LVL18:
 293              		.loc 1 102 0
 294 000c 40F20000 		movw	r0, #:lower16:PWMD4
 295 0010 40F20001 		movw	r1, #:lower16:.LANCHOR0
 296 0014 C0F20000 		movt	r0, #:upper16:PWMD4
 297 0018 C0F20001 		movt	r1, #:upper16:.LANCHOR0
 298 001c FFF7FEFF 		bl	pwmStart
 299              	.LVL19:
 300              		.loc 1 107 0
 301 0020 40F20000 		movw	r0, #:lower16:SD6
 302 0024 C0F20000 		movt	r0, #:upper16:SD6
 303 0028 0021     		movs	r1, #0
 304 002a FFF7FEFF 		bl	sdStart
 305              	.LVL20:
 306              		.loc 1 112 0
 307 002e 0024     		movs	r4, #0
 308 0030 40F20000 		movw	r0, #:lower16:.LANCHOR1
 309 0034 40F20003 		movw	r3, #:lower16:Thread1
 310 0038 0094     		str	r4, [sp]
 311 003a C0F20003 		movt	r3, #:upper16:Thread1
 312 003e 4FF4A871 		mov	r1, #336
 313 0042 4022     		movs	r2, #64
 314 0044 C0F20000 		movt	r0, #:upper16:.LANCHOR1
 315 0048 FFF7FEFF 		bl	chThdCreateStatic
 316              	.LVL21:
 317              		.loc 1 117 0
 318 004c 40F20000 		movw	r0, #:lower16:wa_lwip_thread
 319 0050 40F20003 		movw	r3, #:lower16:lwip_thread
 320 0054 0094     		str	r4, [sp]
 321 0056 C0F20003 		movt	r3, #:upper16:lwip_thread
 322 005a 4FF40071 		mov	r1, #512
 323 005e 4122     		movs	r2, #65
 324 0060 C0F20000 		movt	r0, #:upper16:wa_lwip_thread
 325 0064 FFF7FEFF 		bl	chThdCreateStatic
 326              	.LVL22:
 327              		.loc 1 123 0
 328 0068 40F20000 		movw	r0, #:lower16:wa_http_server
 329 006c 40F20003 		movw	r3, #:lower16:http_server
 330 0070 0094     		str	r4, [sp]
 331 0072 C0F20000 		movt	r0, #:upper16:wa_http_server
 332 0076 C0F20003 		movt	r3, #:upper16:http_server
 333 007a 4FF49A61 		mov	r1, #1232
 334 007e 4122     		movs	r2, #65
 335              		.loc 1 131 0
 336 0080 4FF40064 		mov	r4, #2048
 337              		.loc 1 123 0
 338 0084 FFF7FEFF 		bl	chThdCreateStatic
 339              	.LVL23:
 340              		.loc 1 131 0
 341 0088 C4F20204 		movt	r4, 16386
ARM GAS  /tmp/ccZfLNxd.s 			page 7


 342 008c 03E0     		b	.L17
 343              	.L16:
 344              		.loc 1 133 0
 345 008e 4FF4FA70 		mov	r0, #500
 346 0092 FFF7FEFF 		bl	chThdSleep
 347              	.LVL24:
 348              	.L17:
 349              		.loc 1 131 0
 350 0096 2369     		ldr	r3, [r4, #16]
 351 0098 9B04     		lsls	r3, r3, #18
 352 009a F8D4     		bmi	.L16
 353              		.loc 1 132 0
 354 009c 40F20000 		movw	r0, #:lower16:SD6
 355 00a0 C0F20000 		movt	r0, #:upper16:SD6
 356 00a4 FFF7FEFF 		bl	TestThread
 357              	.LVL25:
 358 00a8 F1E7     		b	.L16
 359              		.cfi_endproc
 360              	.LFE123:
 361              		.size	main, .-main
 362 00aa 00BFAFF3 		.section	.bss.waThread1,"aw",%nobits
 362      0080
 363              		.align	3
 364              		.set	.LANCHOR1,. + 0
 365              		.type	waThread1, %object
 366              		.size	waThread1, 336
 367              	waThread1:
 368 0000 00000000 		.space	336
 368      00000000 
 368      00000000 
 368      00000000 
 368      00000000 
 369              		.section	.data.pwmcfg,"aw",%progbits
 370              		.align	2
 371              		.set	.LANCHOR0,. + 0
 372              		.type	pwmcfg, %object
 373              		.size	pwmcfg, 52
 374              	pwmcfg:
 375 0000 204E0000 		.word	20000
 376 0004 C800     		.short	200
 377 0006 0000     		.space	2
 378 0008 00000000 		.word	clear_all
 379 000c 00000000 		.word	0
 380 0010 00000000 		.word	set_green
 381 0014 00000000 		.word	0
 382 0018 00000000 		.word	set_orange
 383 001c 00000000 		.word	0
 384 0020 00000000 		.word	set_red
 385 0024 00000000 		.word	0
 386 0028 00000000 		.word	0
 387 002c 00000000 		.word	0
 388 0030 00000000 		.word	0
 389              		.section	.rodata.str1.4,"aMS",%progbits,1
 390              		.align	2
 391              	.LC0:
 392 0000 626C696E 		.ascii	"blinker\000"
 392      6B657200 
ARM GAS  /tmp/ccZfLNxd.s 			page 8


 393              		.text
 394              	.Letext0:
 395              		.file 2 "/usr/lib/gcc/arm-none-eabi/4.8.2/include/stddef.h"
 396              		.file 3 "/usr/include/newlib/machine/_default_types.h"
 397              		.file 4 "/usr/include/newlib/stdint.h"
 398              		.file 5 "../../os/ports/GCC/ARMCMx/chtypes.h"
 399              		.file 6 "../../os/kernel/include/chlists.h"
 400              		.file 7 "../../os/kernel/include/chthreads.h"
 401              		.file 8 "../../os/ports/GCC/ARMCMx/chcore_v7m.h"
 402              		.file 9 "../../os/kernel/include/chschd.h"
 403              		.file 10 "../../os/kernel/include/chmtx.h"
 404              		.file 11 "../../os/kernel/include/chevents.h"
 405              		.file 12 "../../os/kernel/include/chqueues.h"
 406              		.file 13 "../../os/hal/platforms/STM32F4xx/stm32f4xx.h"
 407              		.file 14 "../../os/hal/platforms/STM32/GPIOv2/pal_lld.h"
 408              		.file 15 "../../os/hal/include/pwm.h"
 409              		.file 16 "../../os/hal/platforms/STM32/TIMv1/pwm_lld.h"
 410              		.file 17 "../../os/hal/platforms/STM32/TIMv1/stm32_tim.h"
 411              		.file 18 "../../os/hal/include/serial.h"
 412              		.file 19 "../../os/hal/platforms/STM32/USARTv1/serial_lld.h"
 413              		.file 20 "../../os/ports/common/ARMCMx/CMSIS/include/core_cm4.h"
 414              		.file 21 "../../os/various/lwip_bindings/lwipthread.h"
 415              		.file 22 "web/web.h"
 416              		.file 23 "../../os/hal/include/hal.h"
 417              		.file 24 "../../os/kernel/include/chsys.h"
 418              		.file 25 "../../test/test.h"