ARM GAS  /tmp/cc1mYkJK.s 			page 1


   1              		.syntax unified
   2              		.cpu cortex-m4
   3              		.fpu softvfp
   4              		.eabi_attribute 20, 1
   5              		.eabi_attribute 21, 1
   6              		.eabi_attribute 23, 3
   7              		.eabi_attribute 24, 1
   8              		.eabi_attribute 25, 1
   9              		.eabi_attribute 26, 1
  10              		.eabi_attribute 30, 2
  11              		.eabi_attribute 34, 1
  12              		.eabi_attribute 18, 4
  13              		.thumb
  14              		.file	"mem.c"
  15              		.text
  16              	.Ltext0:
  17              		.cfi_sections	.debug_frame
  18              		.section	.text.mem_init,"ax",%progbits
  19              		.align	2
  20              		.p2align 4,,15
  21              		.global	mem_init
  22              		.thumb
  23              		.thumb_func
  24              		.type	mem_init, %function
  25              	mem_init:
  26              	.LFB8:
  27              		.file 1 "../../ext/lwip/src/core/mem.c"
  28              		.loc 1 275 0
  29              		.cfi_startproc
  30              		@ args = 0, pretend = 0, frame = 0
  31              		@ frame_needed = 0, uses_anonymous_args = 0
  32              		.loc 1 282 0
  33 0000 1D4B     		ldr	r3, .L5
  34              		.loc 1 275 0
  35 0002 2DE9F041 		push	{r4, r5, r6, r7, r8, lr}
  36              		.cfi_def_cfa_offset 24
  37              		.cfi_offset 4, -24
  38              		.cfi_offset 5, -20
  39              		.cfi_offset 6, -16
  40              		.cfi_offset 7, -12
  41              		.cfi_offset 8, -8
  42              		.cfi_offset 14, -4
  43              		.loc 1 297 0
  44 0006 40F20004 		movw	r4, #:lower16:lwip_stats
  45              		.loc 1 282 0
  46 000a 23F00303 		bic	r3, r3, #3
  47 000e 40F20007 		movw	r7, #:lower16:.LANCHOR1
  48              		.loc 1 295 0
  49 0012 40F20006 		movw	r6, #:lower16:.LANCHOR3
  50              		.loc 1 289 0
  51 0016 40F20005 		movw	r5, #:lower16:.LANCHOR2
  52              		.loc 1 297 0
  53 001a C0F20004 		movt	r4, #:upper16:lwip_stats
  54              		.loc 1 285 0
  55 001e 4FF4C862 		mov	r2, #1600
  56              		.loc 1 290 0
  57 0022 4FF0010E 		mov	lr, #1
ARM GAS  /tmp/cc1mYkJK.s 			page 2


  58              		.loc 1 286 0
  59 0026 4FF0000C 		mov	ip, #0
  60              		.loc 1 282 0
  61 002a C0F20007 		movt	r7, #:upper16:.LANCHOR1
  62              		.loc 1 295 0
  63 002e C0F20006 		movt	r6, #:upper16:.LANCHOR3
  64              		.loc 1 289 0
  65 0032 C0F20005 		movt	r5, #:upper16:.LANCHOR2
  66              		.loc 1 299 0
  67 0036 40F20000 		movw	r0, #:lower16:.LANCHOR4
  68              		.loc 1 289 0
  69 003a 03F5C868 		add	r8, r3, #1600
  70              		.loc 1 285 0
  71 003e 1A80     		strh	r2, [r3]	@ movhi
  72              		.loc 1 299 0
  73 0040 7146     		mov	r1, lr
  74              		.loc 1 297 0
  75 0042 A4F8A820 		strh	r2, [r4, #168]	@ movhi
  76              		.loc 1 299 0
  77 0046 C0F20000 		movt	r0, #:upper16:.LANCHOR4
  78              		.loc 1 291 0
  79 004a A3F84026 		strh	r2, [r3, #1600]	@ movhi
  80              		.loc 1 292 0
  81 004e A3F84226 		strh	r2, [r3, #1602]	@ movhi
  82              		.loc 1 286 0
  83 0052 A3F802C0 		strh	ip, [r3, #2]	@ movhi
  84              		.loc 1 287 0
  85 0056 83F804C0 		strb	ip, [r3, #4]
  86              		.loc 1 290 0
  87 005a 83F844E6 		strb	lr, [r3, #1604]
  88              		.loc 1 282 0
  89 005e 3B60     		str	r3, [r7]
  90              	.LVL0:
  91              		.loc 1 295 0
  92 0060 3360     		str	r3, [r6]
  93              		.loc 1 289 0
  94 0062 C5F80080 		str	r8, [r5]
  95              		.loc 1 299 0
  96 0066 FFF7FEFF 		bl	sys_sem_new
  97              	.LVL1:
  98 006a 08B9     		cbnz	r0, .L4
  99 006c BDE8F081 		pop	{r4, r5, r6, r7, r8, pc}
 100              	.LVL2:
 101              	.L4:
 102              		.loc 1 302 0 discriminator 1
 103 0070 BDE8F041 		pop	{r4, r5, r6, r7, r8, lr}
 104              		.loc 1 300 0 discriminator 1
 105 0074 FFF7FEBF 		b	port_halt
 106              	.LVL3:
 107              	.L6:
 108              		.align	2
 109              	.L5:
 110 0078 03000000 		.word	.LANCHOR0+3
 111              		.cfi_endproc
 112              	.LFE8:
 113              		.size	mem_init, .-mem_init
 114 007c AFF30080 		.section	.text.mem_free,"ax",%progbits
ARM GAS  /tmp/cc1mYkJK.s 			page 3


 115              		.align	2
 116              		.p2align 4,,15
 117              		.global	mem_free
 118              		.thumb
 119              		.thumb_func
 120              		.type	mem_free, %function
 121              	mem_free:
 122              	.LFB9:
 123              		.loc 1 312 0
 124              		.cfi_startproc
 125              		@ args = 0, pretend = 0, frame = 0
 126              		@ frame_needed = 0, uses_anonymous_args = 0
 127              	.LVL4:
 128 0000 2DE9F041 		push	{r4, r5, r6, r7, r8, lr}
 129              		.cfi_def_cfa_offset 24
 130              		.cfi_offset 4, -24
 131              		.cfi_offset 5, -20
 132              		.cfi_offset 6, -16
 133              		.cfi_offset 7, -12
 134              		.cfi_offset 8, -8
 135              		.cfi_offset 14, -4
 136              		.loc 1 316 0
 137 0004 0446     		mov	r4, r0
 138 0006 00B3     		cbz	r0, .L7
 139              		.loc 1 320 0
 140 0008 8307     		lsls	r3, r0, #30
 141 000a 40F09680 		bne	.L34
 142              	.LVL5:
 143              	.L9:
 144              		.loc 1 322 0
 145 000e 40F20005 		movw	r5, #:lower16:.LANCHOR1
 146 0012 C0F20005 		movt	r5, #:upper16:.LANCHOR1
 147 0016 2B68     		ldr	r3, [r5]
 148 0018 9C42     		cmp	r4, r3
 149 001a 06D3     		bcc	.L10
 150              		.loc 1 322 0 is_stmt 0 discriminator 2
 151 001c 40F20006 		movw	r6, #:lower16:.LANCHOR2
 152 0020 C0F20006 		movt	r6, #:upper16:.LANCHOR2
 153 0024 3368     		ldr	r3, [r6]
 154 0026 9C42     		cmp	r4, r3
 155 0028 18D3     		bcc	.L11
 156              	.L10:
 157              		.loc 1 322 0 discriminator 1
 158 002a FFF7FEFF 		bl	port_halt
 159              	.LVL6:
 160              		.loc 1 325 0 is_stmt 1 discriminator 1
 161 002e 2B68     		ldr	r3, [r5]
 162 0030 9C42     		cmp	r4, r3
 163 0032 0CD2     		bcs	.L12
 164              	.L13:
 165              		.loc 1 330 0
 166 0034 40F20003 		movw	r3, #:lower16:lwip_stats
 167 0038 C0F20003 		movt	r3, #:upper16:lwip_stats
 168 003c B3F8B020 		ldrh	r2, [r3, #176]
 169 0040 0132     		adds	r2, r2, #1
 170 0042 A3F8B020 		strh	r2, [r3, #176]	@ movhi
 171              		.loc 1 332 0
ARM GAS  /tmp/cc1mYkJK.s 			page 4


 172 0046 BDE8F081 		pop	{r4, r5, r6, r7, r8, pc}
 173              	.LVL7:
 174              	.L7:
 175 004a BDE8F081 		pop	{r4, r5, r6, r7, r8, pc}
 176              	.LVL8:
 177              	.L12:
 178 004e 40F20006 		movw	r6, #:lower16:.LANCHOR2
 179 0052 C0F20006 		movt	r6, #:upper16:.LANCHOR2
 180              		.loc 1 325 0
 181 0056 3368     		ldr	r3, [r6]
 182 0058 9C42     		cmp	r4, r3
 183 005a EBD2     		bcs	.L13
 184              	.L11:
 185              		.loc 1 335 0
 186 005c 40F20000 		movw	r0, #:lower16:.LANCHOR4
 187 0060 C0F20000 		movt	r0, #:upper16:.LANCHOR4
 188 0064 0021     		movs	r1, #0
 189 0066 FFF7FEFF 		bl	sys_arch_sem_wait
 190              	.LVL9:
 191              		.loc 1 339 0
 192 006a 14F8043C 		ldrb	r3, [r4, #-4]	@ zero_extendqisi2
 193              		.loc 1 337 0
 194 006e A4F10807 		sub	r7, r4, #8
 195              	.LVL10:
 196              		.loc 1 339 0
 197 0072 002B     		cmp	r3, #0
 198 0074 72D0     		beq	.L35
 199              	.L14:
 200              		.loc 1 343 0
 201 0076 40F20008 		movw	r8, #:lower16:.LANCHOR3
 202 007a C0F20008 		movt	r8, #:upper16:.LANCHOR3
 203              		.loc 1 341 0
 204 007e 0022     		movs	r2, #0
 205              		.loc 1 343 0
 206 0080 D8F80030 		ldr	r3, [r8]
 207              		.loc 1 341 0
 208 0084 04F8042C 		strb	r2, [r4, #-4]
 209              		.loc 1 343 0
 210 0088 9F42     		cmp	r7, r3
 211              		.loc 1 348 0
 212 008a 40F20003 		movw	r3, #:lower16:lwip_stats
 213 008e C0F20003 		movt	r3, #:upper16:lwip_stats
 214 0092 34F8081C 		ldrh	r1, [r4, #-8]
 215 0096 B3F8AA00 		ldrh	r0, [r3, #170]
 216 009a 2A68     		ldr	r2, [r5]
 217              		.loc 1 345 0
 218 009c 38BF     		it	cc
 219 009e C8F80070 		strcc	r7, [r8]
 220              		.loc 1 348 0
 221 00a2 411A     		subs	r1, r0, r1
 222 00a4 B81A     		subs	r0, r7, r2
 223 00a6 0144     		add	r1, r1, r0
 224              	.LBB4:
 225              	.LBB5:
 226              		.loc 1 241 0
 227 00a8 9742     		cmp	r7, r2
 228              	.LBE5:
ARM GAS  /tmp/cc1mYkJK.s 			page 5


 229              	.LBE4:
 230              		.loc 1 348 0
 231 00aa A3F8AA10 		strh	r1, [r3, #170]	@ movhi
 232              	.LVL11:
 233              	.LBB8:
 234              	.LBB6:
 235              		.loc 1 241 0
 236 00ae 52D3     		bcc	.L36
 237              	.L16:
 238              		.loc 1 242 0
 239 00b0 3368     		ldr	r3, [r6]
 240 00b2 9F42     		cmp	r7, r3
 241 00b4 4CD2     		bcs	.L37
 242              	.L17:
 243              		.loc 1 243 0
 244 00b6 14F8043C 		ldrb	r3, [r4, #-4]	@ zero_extendqisi2
 245 00ba 002B     		cmp	r3, #0
 246 00bc 45D1     		bne	.L38
 247              	.L18:
 248              		.loc 1 246 0
 249 00be 34F8082C 		ldrh	r2, [r4, #-8]
 250 00c2 B2F5C86F 		cmp	r2, #1600
 251 00c6 3BD8     		bhi	.L39
 252              	.L19:
 253              		.loc 1 248 0
 254 00c8 2B68     		ldr	r3, [r5]
 255 00ca 1A44     		add	r2, r2, r3
 256              	.LVL12:
 257              		.loc 1 249 0
 258 00cc 9742     		cmp	r7, r2
 259 00ce 14D0     		beq	.L20
 260 00d0 1179     		ldrb	r1, [r2, #4]	@ zero_extendqisi2
 261 00d2 91B9     		cbnz	r1, .L20
 262 00d4 3168     		ldr	r1, [r6]
 263 00d6 8A42     		cmp	r2, r1
 264 00d8 0FD0     		beq	.L20
 265              		.loc 1 251 0
 266 00da D8F80000 		ldr	r0, [r8]
 267 00de 40F20001 		movw	r1, #:lower16:.LANCHOR3
 268 00e2 C0F20001 		movt	r1, #:upper16:.LANCHOR3
 269 00e6 8242     		cmp	r2, r0
 270              		.loc 1 252 0
 271 00e8 08BF     		it	eq
 272 00ea 0F60     		streq	r7, [r1]
 273              		.loc 1 254 0
 274 00ec 1188     		ldrh	r1, [r2]
 275 00ee 24F8081C 		strh	r1, [r4, #-8]	@ movhi
 276              		.loc 1 255 0
 277 00f2 1288     		ldrh	r2, [r2]
 278              	.LVL13:
 279 00f4 1A44     		add	r2, r2, r3
 280 00f6 F91A     		subs	r1, r7, r3
 281 00f8 5180     		strh	r1, [r2, #2]	@ movhi
 282              	.L20:
 283              		.loc 1 259 0
 284 00fa 34F8061C 		ldrh	r1, [r4, #-6]
 285 00fe 5A18     		adds	r2, r3, r1
ARM GAS  /tmp/cc1mYkJK.s 			page 6


 286              	.LVL14:
 287              		.loc 1 260 0
 288 0100 9742     		cmp	r7, r2
 289 0102 12D0     		beq	.L22
 290 0104 1079     		ldrb	r0, [r2, #4]	@ zero_extendqisi2
 291 0106 80B9     		cbnz	r0, .L22
 292              		.loc 1 262 0
 293 0108 D8F80050 		ldr	r5, [r8]
 294 010c 40F20000 		movw	r0, #:lower16:.LANCHOR3
 295 0110 C0F20000 		movt	r0, #:upper16:.LANCHOR3
 296 0114 AF42     		cmp	r7, r5
 297              		.loc 1 263 0
 298 0116 08BF     		it	eq
 299 0118 0260     		streq	r2, [r0]
 300              		.loc 1 265 0
 301 011a 34F8080C 		ldrh	r0, [r4, #-8]
 302 011e 5852     		strh	r0, [r3, r1]	@ movhi
 303              		.loc 1 266 0
 304 0120 34F8081C 		ldrh	r1, [r4, #-8]
 305 0124 1944     		add	r1, r1, r3
 306 0126 D31A     		subs	r3, r2, r3
 307 0128 4B80     		strh	r3, [r1, #2]	@ movhi
 308              	.L22:
 309              	.LBE6:
 310              	.LBE8:
 311              		.loc 1 355 0
 312 012a 40F20000 		movw	r0, #:lower16:.LANCHOR4
 313 012e C0F20000 		movt	r0, #:upper16:.LANCHOR4
 314              		.loc 1 356 0
 315 0132 BDE8F041 		pop	{r4, r5, r6, r7, r8, lr}
 316              	.LVL15:
 317              		.loc 1 355 0
 318 0136 FFF7FEBF 		b	sys_sem_signal
 319              	.LVL16:
 320              	.L34:
 321              		.loc 1 320 0 discriminator 1
 322 013a FFF7FEFF 		bl	port_halt
 323              	.LVL17:
 324 013e 66E7     		b	.L9
 325              	.LVL18:
 326              	.L39:
 327              	.LBB9:
 328              	.LBB7:
 329              		.loc 1 246 0
 330 0140 FFF7FEFF 		bl	port_halt
 331              	.LVL19:
 332 0144 34F8082C 		ldrh	r2, [r4, #-8]
 333 0148 BEE7     		b	.L19
 334              	.L38:
 335              		.loc 1 243 0
 336 014a FFF7FEFF 		bl	port_halt
 337              	.LVL20:
 338 014e B6E7     		b	.L18
 339              	.L37:
 340              		.loc 1 242 0
 341 0150 FFF7FEFF 		bl	port_halt
 342              	.LVL21:
ARM GAS  /tmp/cc1mYkJK.s 			page 7


 343 0154 AFE7     		b	.L17
 344              	.L36:
 345              		.loc 1 241 0
 346 0156 FFF7FEFF 		bl	port_halt
 347              	.LVL22:
 348 015a A9E7     		b	.L16
 349              	.LVL23:
 350              	.L35:
 351              	.LBE7:
 352              	.LBE9:
 353              		.loc 1 339 0 discriminator 1
 354 015c FFF7FEFF 		bl	port_halt
 355              	.LVL24:
 356 0160 89E7     		b	.L14
 357              		.cfi_endproc
 358              	.LFE9:
 359              		.size	mem_free, .-mem_free
 360 0162 00BFAFF3 		.section	.text.mem_trim,"ax",%progbits
 360      0080AFF3 
 360      0080AFF3 
 360      0080
 361              		.align	2
 362              		.p2align 4,,15
 363              		.global	mem_trim
 364              		.thumb
 365              		.thumb_func
 366              		.type	mem_trim, %function
 367              	mem_trim:
 368              	.LFB10:
 369              		.loc 1 370 0
 370              		.cfi_startproc
 371              		@ args = 0, pretend = 0, frame = 0
 372              		@ frame_needed = 0, uses_anonymous_args = 0
 373              	.LVL25:
 374 0000 2DE9F041 		push	{r4, r5, r6, r7, r8, lr}
 375              		.cfi_def_cfa_offset 24
 376              		.cfi_offset 4, -24
 377              		.cfi_offset 5, -20
 378              		.cfi_offset 6, -16
 379              		.cfi_offset 7, -12
 380              		.cfi_offset 8, -8
 381              		.cfi_offset 14, -4
 382              		.loc 1 379 0
 383 0004 0331     		adds	r1, r1, #3
 384              	.LVL26:
 385 0006 4FF6FC74 		movw	r4, #65532
 386 000a 0C40     		ands	r4, r4, r1
 387              	.LVL27:
 388              		.loc 1 381 0
 389 000c 0B2C     		cmp	r4, #11
 390              		.loc 1 370 0
 391 000e 0546     		mov	r5, r0
 392              		.loc 1 381 0
 393 0010 73D9     		bls	.L56
 394              		.loc 1 386 0
 395 0012 B4F5C86F 		cmp	r4, #1600
 396 0016 7AD8     		bhi	.L67
ARM GAS  /tmp/cc1mYkJK.s 			page 8


 397              	.LVL28:
 398              	.L41:
 399              		.loc 1 390 0
 400 0018 40F20006 		movw	r6, #:lower16:.LANCHOR1
 401 001c C0F20006 		movt	r6, #:upper16:.LANCHOR1
 402 0020 3368     		ldr	r3, [r6]
 403 0022 AB42     		cmp	r3, r5
 404 0024 58D8     		bhi	.L43
 405              		.loc 1 390 0 is_stmt 0 discriminator 2
 406 0026 40F20002 		movw	r2, #:lower16:.LANCHOR2
 407 002a C0F20002 		movt	r2, #:upper16:.LANCHOR2
 408 002e 1268     		ldr	r2, [r2]
 409 0030 9542     		cmp	r5, r2
 410 0032 51D2     		bcs	.L43
 411              	.LVL29:
 412              	.L44:
 413              		.loc 1 403 0 is_stmt 1
 414 0034 A5F10808 		sub	r8, r5, #8
 415              	.LVL30:
 416              		.loc 1 407 0
 417 0038 35F8087C 		ldrh	r7, [r5, #-8]
 418              		.loc 1 405 0
 419 003c C3EB0803 		rsb	r3, r3, r8
 420 0040 1FFA83F8 		uxth	r8, r3
 421              	.LVL31:
 422              		.loc 1 407 0
 423 0044 083F     		subs	r7, r7, #8
 424 0046 C8EB0707 		rsb	r7, r8, r7
 425 004a BFB2     		uxth	r7, r7
 426              	.LVL32:
 427              		.loc 1 408 0
 428 004c A742     		cmp	r7, r4
 429 004e 64D3     		bcc	.L68
 430              		.loc 1 413 0
 431 0050 BC42     		cmp	r4, r7
 432 0052 5FD0     		beq	.L69
 433              		.loc 1 419 0
 434 0054 40F20000 		movw	r0, #:lower16:.LANCHOR4
 435 0058 0021     		movs	r1, #0
 436 005a C0F20000 		movt	r0, #:upper16:.LANCHOR4
 437 005e FFF7FEFF 		bl	sys_arch_sem_wait
 438              	.LVL33:
 439              		.loc 1 421 0
 440 0062 3368     		ldr	r3, [r6]
 441 0064 35F8082C 		ldrh	r2, [r5, #-8]
 442 0068 9918     		adds	r1, r3, r2
 443              	.LVL34:
 444              		.loc 1 422 0
 445 006a 0879     		ldrb	r0, [r1, #4]	@ zero_extendqisi2
 446 006c 0028     		cmp	r0, #0
 447 006e 59D1     		bne	.L48
 448              	.LBB10:
 449              		.loc 1 429 0
 450 0070 40F20006 		movw	r6, #:lower16:.LANCHOR3
 451 0074 C0F20006 		movt	r6, #:upper16:.LANCHOR3
 452              		.loc 1 428 0
 453 0078 04F1080E 		add	lr, r4, #8
ARM GAS  /tmp/cc1mYkJK.s 			page 9


 454 007c C644     		add	lr, lr, r8
 455              		.loc 1 429 0
 456 007e 3068     		ldr	r0, [r6]
 457              		.loc 1 426 0
 458 0080 33F802C0 		ldrh	ip, [r3, r2]
 459              	.LVL35:
 460              		.loc 1 428 0
 461 0084 1FFA8EFE 		uxth	lr, lr
 462              	.LVL36:
 463              		.loc 1 430 0
 464 0088 03EB0E02 		add	r2, r3, lr
 465              		.loc 1 429 0
 466 008c 8842     		cmp	r0, r1
 467              		.loc 1 433 0
 468 008e 4FF00001 		mov	r1, #0
 469              	.LVL37:
 470              		.loc 1 435 0
 471 0092 A2F800C0 		strh	ip, [r2]	@ movhi
 472              	.LVL38:
 473              		.loc 1 437 0
 474 0096 A2F80280 		strh	r8, [r2, #2]	@ movhi
 475              		.loc 1 433 0
 476 009a 1171     		strb	r1, [r2, #4]
 477              		.loc 1 439 0
 478 009c 25F808EC 		strh	lr, [r5, #-8]	@ movhi
 479              		.loc 1 430 0
 480 00a0 08BF     		it	eq
 481 00a2 3260     		streq	r2, [r6]
 482              	.LVL39:
 483              		.loc 1 443 0
 484 00a4 1288     		ldrh	r2, [r2]
 485              	.LVL40:
 486 00a6 B2F5C86F 		cmp	r2, #1600
 487 00aa 02D0     		beq	.L54
 488              		.loc 1 444 0
 489 00ac 1344     		add	r3, r3, r2
 490              	.LVL41:
 491 00ae A3F802E0 		strh	lr, [r3, #2]	@ movhi
 492              	.LVL42:
 493              	.L54:
 494              	.LBE10:
 495              		.loc 1 468 0
 496 00b2 40F20003 		movw	r3, #:lower16:lwip_stats
 497 00b6 C0F20003 		movt	r3, #:upper16:lwip_stats
 498 00ba B3F8AA20 		ldrh	r2, [r3, #170]
 499 00be 1444     		add	r4, r4, r2
 500              	.LVL43:
 501 00c0 E71B     		subs	r7, r4, r7
 502              	.LVL44:
 503 00c2 A3F8AA70 		strh	r7, [r3, #170]	@ movhi
 504              	.L52:
 505              		.loc 1 480 0
 506 00c6 40F20000 		movw	r0, #:lower16:.LANCHOR4
 507 00ca C0F20000 		movt	r0, #:upper16:.LANCHOR4
 508 00ce FFF7FEFF 		bl	sys_sem_signal
 509              	.LVL45:
 510              		.loc 1 481 0
ARM GAS  /tmp/cc1mYkJK.s 			page 10


 511 00d2 2846     		mov	r0, r5
 512 00d4 BDE8F081 		pop	{r4, r5, r6, r7, r8, pc}
 513              	.LVL46:
 514              	.L43:
 515              		.loc 1 390 0 discriminator 1
 516 00d8 FFF7FEFF 		bl	port_halt
 517              	.LVL47:
 518              		.loc 1 393 0 discriminator 1
 519 00dc 3368     		ldr	r3, [r6]
 520 00de 9D42     		cmp	r5, r3
 521 00e0 0DD2     		bcs	.L45
 522              	.L46:
 523              		.loc 1 398 0
 524 00e2 40F20003 		movw	r3, #:lower16:lwip_stats
 525 00e6 C0F20003 		movt	r3, #:upper16:lwip_stats
 526              		.loc 1 400 0
 527 00ea 2846     		mov	r0, r5
 528              		.loc 1 398 0
 529 00ec B3F8B020 		ldrh	r2, [r3, #176]
 530 00f0 0132     		adds	r2, r2, #1
 531 00f2 A3F8B020 		strh	r2, [r3, #176]	@ movhi
 532              		.loc 1 400 0
 533 00f6 BDE8F081 		pop	{r4, r5, r6, r7, r8, pc}
 534              	.LVL48:
 535              	.L56:
 536              		.loc 1 383 0
 537 00fa 0C24     		movs	r4, #12
 538              	.LVL49:
 539 00fc 8CE7     		b	.L41
 540              	.LVL50:
 541              	.L45:
 542 00fe 40F20002 		movw	r2, #:lower16:.LANCHOR2
 543 0102 C0F20002 		movt	r2, #:upper16:.LANCHOR2
 544              		.loc 1 393 0
 545 0106 1268     		ldr	r2, [r2]
 546 0108 9542     		cmp	r5, r2
 547 010a EAD2     		bcs	.L46
 548 010c 92E7     		b	.L44
 549              	.LVL51:
 550              	.L67:
 551              		.loc 1 387 0
 552 010e 0020     		movs	r0, #0
 553              	.LVL52:
 554 0110 BDE8F081 		pop	{r4, r5, r6, r7, r8, pc}
 555              	.LVL53:
 556              	.L69:
 557 0114 2846     		mov	r0, r5
 558 0116 BDE8F081 		pop	{r4, r5, r6, r7, r8, pc}
 559              	.LVL54:
 560              	.L68:
 561              		.loc 1 408 0 discriminator 1
 562 011a FFF7FEFF 		bl	port_halt
 563              	.LVL55:
 564              		.loc 1 411 0 discriminator 1
 565 011e 0020     		movs	r0, #0
 566 0120 BDE8F081 		pop	{r4, r5, r6, r7, r8, pc}
 567              	.LVL56:
ARM GAS  /tmp/cc1mYkJK.s 			page 11


 568              	.L48:
 569              		.loc 1 448 0
 570 0124 04F11401 		add	r1, r4, #20
 571              	.LVL57:
 572 0128 B942     		cmp	r1, r7
 573 012a CCD8     		bhi	.L52
 574              		.loc 1 458 0
 575 012c 40F2000E 		movw	lr, #:lower16:.LANCHOR3
 576 0130 C0F2000E 		movt	lr, #:upper16:.LANCHOR3
 577              		.loc 1 456 0
 578 0134 04F10801 		add	r1, r4, #8
 579 0138 4144     		add	r1, r1, r8
 580 013a 89B2     		uxth	r1, r1
 581              	.LVL58:
 582              		.loc 1 458 0
 583 013c DEF80000 		ldr	r0, [lr]
 584              		.loc 1 457 0
 585 0140 5E18     		adds	r6, r3, r1
 586              	.LVL59:
 587              		.loc 1 458 0
 588 0142 8642     		cmp	r6, r0
 589              		.loc 1 461 0
 590 0144 4FF00000 		mov	r0, #0
 591 0148 3071     		strb	r0, [r6, #4]
 592              		.loc 1 462 0
 593 014a 5A52     		strh	r2, [r3, r1]	@ movhi
 594              		.loc 1 463 0
 595 014c A6F80280 		strh	r8, [r6, #2]	@ movhi
 596              		.loc 1 464 0
 597 0150 25F8081C 		strh	r1, [r5, #-8]	@ movhi
 598              		.loc 1 465 0
 599 0154 5A5A     		ldrh	r2, [r3, r1]
 600              		.loc 1 459 0
 601 0156 38BF     		it	cc
 602 0158 CEF80060 		strcc	r6, [lr]
 603              		.loc 1 465 0
 604 015c B2F5C86F 		cmp	r2, #1600
 605              		.loc 1 466 0
 606 0160 1CBF     		itt	ne
 607 0162 9B18     		addne	r3, r3, r2
 608 0164 5980     		strhne	r1, [r3, #2]	@ movhi
 609 0166 A4E7     		b	.L54
 610              		.cfi_endproc
 611              	.LFE10:
 612              		.size	mem_trim, .-mem_trim
 613 0168 AFF30080 		.section	.text.mem_malloc,"ax",%progbits
 613      AFF30080 
 614              		.align	2
 615              		.p2align 4,,15
 616              		.global	mem_malloc
 617              		.thumb
 618              		.thumb_func
 619              		.type	mem_malloc, %function
 620              	mem_malloc:
 621              	.LFB11:
 622              		.loc 1 495 0
 623              		.cfi_startproc
ARM GAS  /tmp/cc1mYkJK.s 			page 12


 624              		@ args = 0, pretend = 0, frame = 0
 625              		@ frame_needed = 0, uses_anonymous_args = 0
 626              	.LVL60:
 627 0000 2DE9F047 		push	{r4, r5, r6, r7, r8, r9, r10, lr}
 628              		.cfi_def_cfa_offset 32
 629              		.cfi_offset 4, -32
 630              		.cfi_offset 5, -28
 631              		.cfi_offset 6, -24
 632              		.cfi_offset 7, -20
 633              		.cfi_offset 8, -16
 634              		.cfi_offset 9, -12
 635              		.cfi_offset 10, -8
 636              		.cfi_offset 14, -4
 637              		.loc 1 503 0
 638 0004 0028     		cmp	r0, #0
 639 0006 47D0     		beq	.L108
 640              		.loc 1 509 0
 641 0008 0330     		adds	r0, r0, #3
 642              	.LVL61:
 643 000a 4FF6FC77 		movw	r7, #65532
 644 000e 0740     		ands	r7, r7, r0
 645              	.LVL62:
 646              		.loc 1 511 0
 647 0010 0B2F     		cmp	r7, #11
 648 0012 43D9     		bls	.L91
 649              		.loc 1 516 0
 650 0014 B7F5C86F 		cmp	r7, #1600
 651 0018 98BF     		it	ls
 652 001a C7F5C865 		rsbls	r5, r7, #1600
 653 001e 00F29980 		bhi	.L110
 654              	.LVL63:
 655              	.L72:
 656              		.loc 1 521 0
 657 0022 40F20000 		movw	r0, #:lower16:.LANCHOR4
 658 0026 C0F20000 		movt	r0, #:upper16:.LANCHOR4
 659 002a 0021     		movs	r1, #0
 660 002c FFF7FEFF 		bl	sys_arch_sem_wait
 661              	.LVL64:
 662              		.loc 1 532 0
 663 0030 40F20008 		movw	r8, #:lower16:.LANCHOR3
 664 0034 40F2000C 		movw	ip, #:lower16:.LANCHOR1
 665 0038 C0F20008 		movt	r8, #:upper16:.LANCHOR3
 666 003c C0F2000C 		movt	ip, #:upper16:.LANCHOR1
 667 0040 D8F800E0 		ldr	lr, [r8]
 668 0044 DCF80020 		ldr	r2, [ip]
 669 0048 C2EB0E03 		rsb	r3, r2, lr
 670 004c 9BB2     		uxth	r3, r3
 671              	.LVL65:
 672 004e 9D42     		cmp	r5, r3
 673 0050 09DC     		bgt	.L88
 674 0052 0FE0     		b	.L73
 675              	.LVL66:
 676              	.L112:
 677              		.loc 1 549 0 discriminator 1
 678 0054 D05A     		ldrh	r0, [r2, r3]
 679 0056 A0F10806 		sub	r6, r0, #8
 680 005a F61A     		subs	r6, r6, r3
ARM GAS  /tmp/cc1mYkJK.s 			page 13


 681              		.loc 1 548 0 discriminator 1
 682 005c BE42     		cmp	r6, r7
 683 005e 21D2     		bcs	.L111
 684              		.loc 1 549 0
 685 0060 0346     		mov	r3, r0
 686              	.LVL67:
 687              		.loc 1 532 0
 688 0062 AB42     		cmp	r3, r5
 689 0064 06DA     		bge	.L73
 690              	.LVL68:
 691              	.L88:
 692              		.loc 1 534 0
 693 0066 D418     		adds	r4, r2, r3
 694              	.LVL69:
 695              		.loc 1 548 0
 696 0068 2179     		ldrb	r1, [r4, #4]	@ zero_extendqisi2
 697 006a 0029     		cmp	r1, #0
 698 006c F2D0     		beq	.L112
 699 006e D35A     		ldrh	r3, [r2, r3]
 700              	.LVL70:
 701              		.loc 1 532 0
 702 0070 AB42     		cmp	r3, r5
 703 0072 F8DB     		blt	.L88
 704              	.LVL71:
 705              	.L73:
 706              		.loc 1 629 0
 707 0074 40F20003 		movw	r3, #:lower16:lwip_stats
 708 0078 C0F20003 		movt	r3, #:upper16:lwip_stats
 709              		.loc 1 631 0
 710 007c 40F20000 		movw	r0, #:lower16:.LANCHOR4
 711              		.loc 1 629 0
 712 0080 B3F8AE20 		ldrh	r2, [r3, #174]
 713              		.loc 1 631 0
 714 0084 C0F20000 		movt	r0, #:upper16:.LANCHOR4
 715              		.loc 1 629 0
 716 0088 0132     		adds	r2, r2, #1
 717 008a A3F8AE20 		strh	r2, [r3, #174]	@ movhi
 718              		.loc 1 631 0
 719 008e FFF7FEFF 		bl	sys_sem_signal
 720              	.LVL72:
 721              		.loc 1 632 0
 722 0092 0020     		movs	r0, #0
 723 0094 BDE8F087 		pop	{r4, r5, r6, r7, r8, r9, r10, pc}
 724              	.LVL73:
 725              	.L108:
 726              		.loc 1 633 0
 727 0098 BDE8F087 		pop	{r4, r5, r6, r7, r8, r9, r10, pc}
 728              	.LVL74:
 729              	.L91:
 730 009c 40F23465 		movw	r5, #1588
 731              		.loc 1 513 0
 732 00a0 0C27     		movs	r7, #12
 733              	.LVL75:
 734 00a2 BEE7     		b	.L72
 735              	.LVL76:
 736              	.L111:
 737              		.loc 1 553 0
ARM GAS  /tmp/cc1mYkJK.s 			page 14


 738 00a4 07F11405 		add	r5, r7, #20
 739 00a8 B542     		cmp	r5, r6
 740 00aa 2BD9     		bls	.L113
 741              		.loc 1 587 0
 742 00ac 40F20003 		movw	r3, #:lower16:lwip_stats
 743              	.LVL77:
 744 00b0 C0F20003 		movt	r3, #:upper16:lwip_stats
 745              		.loc 1 586 0
 746 00b4 0121     		movs	r1, #1
 747 00b6 2171     		strb	r1, [r4, #4]
 748              		.loc 1 587 0
 749 00b8 B3F8AA50 		ldrh	r5, [r3, #170]
 750 00bc B3F8AC10 		ldrh	r1, [r3, #172]
 751 00c0 A21A     		subs	r2, r4, r2
 752 00c2 2844     		add	r0, r0, r5
 753 00c4 821A     		subs	r2, r0, r2
 754 00c6 92B2     		uxth	r2, r2
 755 00c8 9142     		cmp	r1, r2
 756 00ca A3F8AA20 		strh	r2, [r3, #170]	@ movhi
 757 00ce 38BF     		it	cc
 758 00d0 A3F8AC20 		strhcc	r2, [r3, #172]	@ movhi
 759 00d4 07F10806 		add	r6, r7, #8
 760              	.L79:
 761              		.loc 1 592 0
 762 00d8 A645     		cmp	lr, r4
 763 00da 46D0     		beq	.L81
 764 00dc 40F20005 		movw	r5, #:lower16:.LANCHOR2
 765 00e0 C0F20005 		movt	r5, #:upper16:.LANCHOR2
 766              	.L82:
 767              		.loc 1 613 0
 768 00e4 40F20000 		movw	r0, #:lower16:.LANCHOR4
 769 00e8 C0F20000 		movt	r0, #:upper16:.LANCHOR4
 770 00ec FFF7FEFF 		bl	sys_sem_signal
 771              	.LVL78:
 772              		.loc 1 614 0
 773 00f0 2B68     		ldr	r3, [r5]
 774 00f2 2644     		add	r6, r6, r4
 775 00f4 B342     		cmp	r3, r6
 776 00f6 35D3     		bcc	.L114
 777              	.L86:
 778              		.loc 1 616 0
 779 00f8 A207     		lsls	r2, r4, #30
 780 00fa 2ED1     		bne	.L115
 781              	.L87:
 782              		.loc 1 621 0
 783 00fc 04F10800 		add	r0, r4, #8
 784 0100 BDE8F087 		pop	{r4, r5, r6, r7, r8, r9, r10, pc}
 785              	.LVL79:
 786              	.L113:
 787              		.loc 1 564 0
 788 0104 07F10806 		add	r6, r7, #8
 789 0108 9D19     		adds	r5, r3, r6
 790 010a ADB2     		uxth	r5, r5
 791              	.LVL80:
 792              		.loc 1 566 0
 793 010c 02EB0509 		add	r9, r2, r5
 794              	.LVL81:
ARM GAS  /tmp/cc1mYkJK.s 			page 15


 795              		.loc 1 572 0
 796 0110 4FF0010A 		mov	r10, #1
 797              		.loc 1 567 0
 798 0114 89F80410 		strb	r1, [r9, #4]
 799              		.loc 1 568 0
 800 0118 5053     		strh	r0, [r2, r5]	@ movhi
 801              		.loc 1 569 0
 802 011a A9F80230 		strh	r3, [r9, #2]	@ movhi
 803              		.loc 1 571 0
 804 011e 2580     		strh	r5, [r4]	@ movhi
 805              		.loc 1 574 0
 806 0120 535B     		ldrh	r3, [r2, r5]
 807              	.LVL82:
 808              		.loc 1 572 0
 809 0122 84F804A0 		strb	r10, [r4, #4]
 810              		.loc 1 574 0
 811 0126 B3F5C86F 		cmp	r3, #1600
 812              		.loc 1 575 0
 813 012a 1CBF     		itt	ne
 814 012c 9B18     		addne	r3, r3, r2
 815 012e 5D80     		strhne	r5, [r3, #2]	@ movhi
 816              		.loc 1 577 0
 817 0130 40F20003 		movw	r3, #:lower16:lwip_stats
 818 0134 C0F20003 		movt	r3, #:upper16:lwip_stats
 819 0138 B3F8AA20 		ldrh	r2, [r3, #170]
 820 013c B3F8AC10 		ldrh	r1, [r3, #172]
 821 0140 0832     		adds	r2, r2, #8
 822 0142 3A44     		add	r2, r2, r7
 823 0144 92B2     		uxth	r2, r2
 824 0146 9142     		cmp	r1, r2
 825 0148 A3F8AA20 		strh	r2, [r3, #170]	@ movhi
 826 014c 38BF     		it	cc
 827 014e A3F8AC20 		strhcc	r2, [r3, #172]	@ movhi
 828 0152 C1E7     		b	.L79
 829              	.LVL83:
 830              	.L110:
 831              		.loc 1 504 0
 832 0154 0020     		movs	r0, #0
 833 0156 BDE8F087 		pop	{r4, r5, r6, r7, r8, r9, r10, pc}
 834              	.LVL84:
 835              	.L115:
 836              		.loc 1 616 0 discriminator 1
 837 015a FFF7FEFF 		bl	port_halt
 838              	.LVL85:
 839              		.loc 1 618 0 discriminator 1
 840 015e FFF7FEFF 		bl	port_halt
 841              	.LVL86:
 842 0162 CBE7     		b	.L87
 843              	.L114:
 844              		.loc 1 614 0 discriminator 1
 845 0164 FFF7FEFF 		bl	port_halt
 846              	.LVL87:
 847 0168 C6E7     		b	.L86
 848              	.L81:
 849              	.LVL88:
 850              	.LBB11:
 851              		.loc 1 595 0 discriminator 1
ARM GAS  /tmp/cc1mYkJK.s 			page 16


 852 016a 9EF80430 		ldrb	r3, [lr, #4]	@ zero_extendqisi2
 853 016e 40F20005 		movw	r5, #:lower16:.LANCHOR2
 854 0172 C0F20005 		movt	r5, #:upper16:.LANCHOR2
 855 0176 73B1     		cbz	r3, .L84
 856              		.loc 1 595 0 is_stmt 0
 857 0178 2A68     		ldr	r2, [r5]
 858 017a 9645     		cmp	lr, r2
 859 017c 0BD0     		beq	.L84
 860 017e DCF80010 		ldr	r1, [ip]
 861 0182 01E0     		b	.L85
 862              	.L116:
 863              		.loc 1 595 0 discriminator 2
 864 0184 9645     		cmp	lr, r2
 865 0186 06D0     		beq	.L84
 866              	.L85:
 867              		.loc 1 607 0 is_stmt 1
 868 0188 BEF800E0 		ldrh	lr, [lr]
 869              	.LVL89:
 870 018c 8E44     		add	lr, lr, r1
 871              	.LVL90:
 872              		.loc 1 595 0
 873 018e 9EF80430 		ldrb	r3, [lr, #4]	@ zero_extendqisi2
 874 0192 002B     		cmp	r3, #0
 875 0194 F6D1     		bne	.L116
 876              	.L84:
 877              		.loc 1 609 0
 878 0196 C8F800E0 		str	lr, [r8]
 879 019a A3E7     		b	.L82
 880              	.LBE11:
 881              		.cfi_endproc
 882              	.LFE11:
 883              		.size	mem_malloc, .-mem_malloc
 884 019c AFF30080 		.section	.text.mem_calloc,"ax",%progbits
 885              		.align	2
 886              		.p2align 4,,15
 887              		.global	mem_calloc
 888              		.thumb
 889              		.thumb_func
 890              		.type	mem_calloc, %function
 891              	mem_calloc:
 892              	.LFB12:
 893              		.loc 1 647 0
 894              		.cfi_startproc
 895              		@ args = 0, pretend = 0, frame = 0
 896              		@ frame_needed = 0, uses_anonymous_args = 0
 897              	.LVL91:
 898 0000 38B5     		push	{r3, r4, r5, lr}
 899              		.cfi_def_cfa_offset 16
 900              		.cfi_offset 3, -16
 901              		.cfi_offset 4, -12
 902              		.cfi_offset 5, -8
 903              		.cfi_offset 14, -4
 904              		.loc 1 651 0
 905 0002 01FB00F4 		mul	r4, r1, r0
 906 0006 A0B2     		uxth	r0, r4
 907              	.LVL92:
 908 0008 FFF7FEFF 		bl	mem_malloc
ARM GAS  /tmp/cc1mYkJK.s 			page 17


 909              	.LVL93:
 910              		.loc 1 652 0
 911 000c 0546     		mov	r5, r0
 912 000e 18B1     		cbz	r0, .L118
 913              		.loc 1 654 0
 914 0010 2246     		mov	r2, r4
 915 0012 0021     		movs	r1, #0
 916 0014 FFF7FEFF 		bl	memset
 917              	.LVL94:
 918              	.L118:
 919              		.loc 1 657 0
 920 0018 2846     		mov	r0, r5
 921 001a 38BD     		pop	{r3, r4, r5, pc}
 922              		.cfi_endproc
 923              	.LFE12:
 924              		.size	mem_calloc, .-mem_calloc
 925              		.global	ram_heap
 926 001c AFF30080 		.section	.bss.ram_heap,"aw",%nobits
 927              		.align	2
 928              		.set	.LANCHOR0,. + 0
 929              		.type	ram_heap, %object
 930              		.size	ram_heap, 1620
 931              	ram_heap:
 932 0000 00000000 		.space	1620
 932      00000000 
 932      00000000 
 932      00000000 
 932      00000000 
 933              		.section	.bss.lfree,"aw",%nobits
 934              		.align	2
 935              		.set	.LANCHOR3,. + 0
 936              		.type	lfree, %object
 937              		.size	lfree, 4
 938              	lfree:
 939 0000 00000000 		.space	4
 940              		.section	.bss.ram_end,"aw",%nobits
 941              		.align	2
 942              		.set	.LANCHOR2,. + 0
 943              		.type	ram_end, %object
 944              		.size	ram_end, 4
 945              	ram_end:
 946 0000 00000000 		.space	4
 947              		.section	.bss.mem_mutex,"aw",%nobits
 948              		.align	2
 949              		.set	.LANCHOR4,. + 0
 950              		.type	mem_mutex, %object
 951              		.size	mem_mutex, 4
 952              	mem_mutex:
 953 0000 00000000 		.space	4
 954              		.section	.bss.ram,"aw",%nobits
 955              		.align	2
 956              		.set	.LANCHOR1,. + 0
 957              		.type	ram, %object
 958              		.size	ram, 4
 959              	ram:
 960 0000 00000000 		.space	4
 961              		.text
ARM GAS  /tmp/cc1mYkJK.s 			page 18


 962              	.Letext0:
 963              		.file 2 "/usr/include/newlib/machine/_default_types.h"
 964              		.file 3 "/usr/include/newlib/stdint.h"
 965              		.file 4 "../../os/ports/GCC/ARMCMx/chtypes.h"
 966              		.file 5 "../../os/kernel/include/chlists.h"
 967              		.file 6 "../../os/kernel/include/chthreads.h"
 968              		.file 7 "../../os/ports/GCC/ARMCMx/chcore_v7m.h"
 969              		.file 8 "../../os/kernel/include/chsem.h"
 970              		.file 9 "../../os/kernel/include/chmtx.h"
 971              		.file 10 "../../os/various/lwip_bindings/arch/cc.h"
 972              		.file 11 "../../ext/lwip/src/include/lwip/mem.h"
 973              		.file 12 "../../ext/lwip/src/include/lwip/err.h"
 974              		.file 13 "../../os/various/lwip_bindings/arch/sys_arch.h"
 975              		.file 14 "../../ext/lwip/src/include/lwip/stats.h"
 976              		.file 15 "../../ext/lwip/src/include/lwip/sys.h"
 977              		.file 16 "../../ext/lwip/src/include/lwip/memp.h"