ARM GAS  /tmp/ccq1Sx9S.s 			page 1


   1              		.syntax unified
   2              		.cpu cortex-m4
   3              		.fpu softvfp
   4              		.eabi_attribute 20, 1
   5              		.eabi_attribute 21, 1
   6              		.eabi_attribute 23, 3
   7              		.eabi_attribute 24, 1
   8              		.eabi_attribute 25, 1
   9              		.eabi_attribute 26, 1
  10              		.eabi_attribute 30, 2
  11              		.eabi_attribute 34, 1
  12              		.eabi_attribute 18, 4
  13              		.thumb
  14              		.file	"memp.c"
  15              		.text
  16              	.Ltext0:
  17              		.cfi_sections	.debug_frame
  18              		.section	.text.memp_init,"ax",%progbits
  19              		.align	2
  20              		.p2align 4,,15
  21              		.global	memp_init
  22              		.thumb
  23              		.thumb_func
  24              		.type	memp_init, %function
  25              	memp_init:
  26              	.LFB7:
  27              		.file 1 "../../ext/lwip/src/core/memp.c"
  28              		.loc 1 339 0
  29              		.cfi_startproc
  30              		@ args = 0, pretend = 0, frame = 0
  31              		@ frame_needed = 0, uses_anonymous_args = 0
  32              		@ link register save eliminated.
  33              	.LVL0:
  34 0000 40F20003 		movw	r3, #:lower16:lwip_stats
  35 0004 C0F20003 		movt	r3, #:upper16:lwip_stats
  36 0008 2449     		ldr	r1, .L16
  37 000a 2DE9F00F 		push	{r4, r5, r6, r7, r8, r9, r10, fp}
  38              		.cfi_def_cfa_offset 32
  39              		.cfi_offset 4, -32
  40              		.cfi_offset 5, -28
  41              		.cfi_offset 6, -24
  42              		.cfi_offset 7, -20
  43              		.cfi_offset 8, -16
  44              		.cfi_offset 9, -12
  45              		.cfi_offset 10, -8
  46              		.cfi_offset 11, -4
  47              		.loc 1 344 0
  48 000e 0022     		movs	r2, #0
  49 0010 03F18C04 		add	r4, r3, #140
  50              	.LVL1:
  51              	.L3:
  52              		.loc 1 347 0 discriminator 2
  53 0014 31F8020F 		ldrh	r0, [r1, #2]!
  54              		.loc 1 344 0 discriminator 2
  55 0018 A3F8B420 		strh	r2, [r3, #180]	@ movhi
  56              		.loc 1 345 0 discriminator 2
  57 001c A3F8B620 		strh	r2, [r3, #182]	@ movhi
ARM GAS  /tmp/ccq1Sx9S.s 			page 2


  58              		.loc 1 346 0 discriminator 2
  59 0020 A3F8B820 		strh	r2, [r3, #184]	@ movhi
  60              		.loc 1 347 0 discriminator 2
  61 0024 A3F8B200 		strh	r0, [r3, #178]	@ movhi
  62 0028 0A33     		adds	r3, r3, #10
  63              		.loc 1 343 0 discriminator 2
  64 002a A342     		cmp	r3, r4
  65 002c F2D1     		bne	.L3
  66 002e 40F20005 		movw	r5, #:lower16:.LANCHOR2
  67              		.loc 1 351 0
  68 0032 1B4F     		ldr	r7, .L16+4
  69 0034 C0F20005 		movt	r5, #:upper16:.LANCHOR2
  70 0038 0026     		movs	r6, #0
  71 003a 40F2000C 		movw	ip, #:lower16:.LANCHOR0
  72 003e 40F20008 		movw	r8, #:lower16:.LANCHOR3
  73 0042 05F1380A 		add	r10, r5, #56
  74 0046 27F00307 		bic	r7, r7, #3
  75              	.LVL2:
  76              		.loc 1 355 0
  77 004a B146     		mov	r9, r6
  78 004c C0F2000C 		movt	ip, #:upper16:.LANCHOR0
  79 0050 C0F20008 		movt	r8, #:upper16:.LANCHOR3
  80              	.LVL3:
  81              	.L8:
  82              		.loc 1 360 0
  83 0054 3CF80640 		ldrh	r4, [ip, r6]
  84              		.loc 1 355 0
  85 0058 45F8049B 		str	r9, [r5], #4
  86              	.LVL4:
  87              		.loc 1 360 0
  88 005c BCB1     		cbz	r4, .L4
  89 005e 0021     		movs	r1, #0
  90 0060 36F80800 		ldrh	r0, [r6, r8]
  91 0064 0A46     		mov	r2, r1
  92 0066 3B46     		mov	r3, r7
  93 0068 01E0     		b	.L6
  94              	.LVL5:
  95              	.L15:
  96 006a 1946     		mov	r1, r3
  97              		.loc 1 363 0
  98 006c 5B46     		mov	r3, fp
  99              	.LVL6:
 100              	.L6:
 101              		.loc 1 360 0 discriminator 2
 102 006e 0132     		adds	r2, r2, #1
 103              	.LVL7:
 104 0070 92B2     		uxth	r2, r2
 105              	.LVL8:
 106 0072 A242     		cmp	r2, r4
 107              		.loc 1 361 0 discriminator 2
 108 0074 1960     		str	r1, [r3]
 109              		.loc 1 363 0 discriminator 2
 110 0076 03EB000B 		add	fp, r3, r0
 111              	.LVL9:
 112              		.loc 1 360 0 discriminator 2
 113 007a F6D1     		bne	.L15
 114 007c 013A     		subs	r2, r2, #1
ARM GAS  /tmp/ccq1Sx9S.s 			page 3


 115              	.LVL10:
 116 007e 92B2     		uxth	r2, r2
 117              	.LVL11:
 118 0080 00FB0273 		mla	r3, r0, r2, r7
 119 0084 02FB0000 		mla	r0, r2, r0, r0
 120 0088 45F8043C 		str	r3, [r5, #-4]
 121 008c 0744     		add	r7, r7, r0
 122              	.LVL12:
 123              	.L4:
 124              		.loc 1 354 0
 125 008e 5545     		cmp	r5, r10
 126 0090 06F10206 		add	r6, r6, #2
 127 0094 DED1     		bne	.L8
 128              		.loc 1 375 0
 129 0096 BDE8F00F 		pop	{r4, r5, r6, r7, r8, r9, r10, fp}
 130              	.LVL13:
 131 009a 7047     		bx	lr
 132              	.L17:
 133              		.align	2
 134              	.L16:
 135 009c FEFFFFFF 		.word	.LANCHOR0-2
 136 00a0 03000000 		.word	.LANCHOR1+3
 137              		.cfi_endproc
 138              	.LFE7:
 139              		.size	memp_init, .-memp_init
 140 00a4 AFF30080 		.section	.text.memp_malloc,"ax",%progbits
 140      AFF30080 
 140      AFF30080 
 141              		.align	2
 142              		.p2align 4,,15
 143              		.global	memp_malloc
 144              		.thumb
 145              		.thumb_func
 146              		.type	memp_malloc, %function
 147              	memp_malloc:
 148              	.LFB8:
 149              		.loc 1 394 0
 150              		.cfi_startproc
 151              		@ args = 0, pretend = 0, frame = 0
 152              		@ frame_needed = 0, uses_anonymous_args = 0
 153              	.LVL14:
 154              		.loc 1 398 0
 155 0000 0D28     		cmp	r0, #13
 156              		.loc 1 394 0
 157 0002 70B5     		push	{r4, r5, r6, lr}
 158              		.cfi_def_cfa_offset 16
 159              		.cfi_offset 4, -16
 160              		.cfi_offset 5, -12
 161              		.cfi_offset 6, -8
 162              		.cfi_offset 14, -4
 163              		.loc 1 398 0
 164 0004 34D8     		bhi	.L24
 165              		.loc 1 405 0
 166 0006 40F20003 		movw	r3, #:lower16:.LANCHOR2
 167 000a C0F20003 		movt	r3, #:upper16:.LANCHOR2
 168 000e 53F82040 		ldr	r4, [r3, r0, lsl #2]
 169              	.LVL15:
ARM GAS  /tmp/ccq1Sx9S.s 			page 4


 170              		.loc 1 407 0
 171 0012 F4B1     		cbz	r4, .L21
 172              		.loc 1 414 0
 173 0014 40F20002 		movw	r2, #:lower16:lwip_stats
 174 0018 00EB8001 		add	r1, r0, r0, lsl #2
 175 001c C0F20002 		movt	r2, #:upper16:lwip_stats
 176 0020 02EB4102 		add	r2, r2, r1, lsl #1
 177              		.loc 1 408 0
 178 0024 2168     		ldr	r1, [r4]
 179              		.loc 1 414 0
 180 0026 B2F8B460 		ldrh	r6, [r2, #180]
 181 002a B2F8B650 		ldrh	r5, [r2, #182]
 182              		.loc 1 408 0
 183 002e 43F82010 		str	r1, [r3, r0, lsl #2]
 184              		.loc 1 414 0
 185 0032 731C     		adds	r3, r6, #1
 186 0034 9BB2     		uxth	r3, r3
 187 0036 9D42     		cmp	r5, r3
 188 0038 A2F8B430 		strh	r3, [r2, #180]	@ movhi
 189 003c 38BF     		it	cc
 190 003e A2F8B630 		strhcc	r3, [r2, #182]	@ movhi
 191              		.loc 1 415 0
 192 0042 A307     		lsls	r3, r4, #30
 193 0044 01D1     		bne	.L25
 194 0046 2046     		mov	r0, r4
 195              	.LVL16:
 196              		.loc 1 426 0
 197 0048 70BD     		pop	{r4, r5, r6, pc}
 198              	.LVL17:
 199              	.L25:
 200              		.loc 1 415 0 discriminator 1
 201 004a FFF7FEFF 		bl	port_halt
 202              	.LVL18:
 203 004e 2046     		mov	r0, r4
 204 0050 70BD     		pop	{r4, r5, r6, pc}
 205              	.LVL19:
 206              	.L21:
 207              		.loc 1 420 0
 208 0052 40F20003 		movw	r3, #:lower16:lwip_stats
 209 0056 00EB8000 		add	r0, r0, r0, lsl #2
 210              	.LVL20:
 211 005a C0F20003 		movt	r3, #:upper16:lwip_stats
 212 005e 03EB4003 		add	r3, r3, r0, lsl #1
 213 0062 2046     		mov	r0, r4
 214 0064 B3F8B820 		ldrh	r2, [r3, #184]
 215 0068 0132     		adds	r2, r2, #1
 216 006a A3F8B820 		strh	r2, [r3, #184]	@ movhi
 217 006e 70BD     		pop	{r4, r5, r6, pc}
 218              	.LVL21:
 219              	.L24:
 220              		.loc 1 398 0 discriminator 1
 221 0070 FFF7FEFF 		bl	port_halt
 222              	.LVL22:
 223 0074 0020     		movs	r0, #0
 224 0076 70BD     		pop	{r4, r5, r6, pc}
 225              		.cfi_endproc
 226              	.LFE8:
ARM GAS  /tmp/ccq1Sx9S.s 			page 5


 227              		.size	memp_malloc, .-memp_malloc
 228 0078 AFF30080 		.section	.text.memp_free,"ax",%progbits
 228      AFF30080 
 229              		.align	2
 230              		.p2align 4,,15
 231              		.global	memp_free
 232              		.thumb
 233              		.thumb_func
 234              		.type	memp_free, %function
 235              	memp_free:
 236              	.LFB9:
 237              		.loc 1 436 0
 238              		.cfi_startproc
 239              		@ args = 0, pretend = 0, frame = 0
 240              		@ frame_needed = 0, uses_anonymous_args = 0
 241              	.LVL23:
 242 0000 38B5     		push	{r3, r4, r5, lr}
 243              		.cfi_def_cfa_offset 16
 244              		.cfi_offset 3, -16
 245              		.cfi_offset 4, -12
 246              		.cfi_offset 5, -8
 247              		.cfi_offset 14, -4
 248              		.loc 1 440 0
 249 0002 0C46     		mov	r4, r1
 250              		.loc 1 436 0
 251 0004 0546     		mov	r5, r0
 252              		.loc 1 440 0
 253 0006 B9B1     		cbz	r1, .L26
 254              		.loc 1 443 0
 255 0008 8A07     		lsls	r2, r1, #30
 256 000a 16D1     		bne	.L35
 257              	.LVL24:
 258              	.L28:
 259              		.loc 1 458 0
 260 000c 40F20003 		movw	r3, #:lower16:lwip_stats
 261 0010 C0F20003 		movt	r3, #:upper16:lwip_stats
 262 0014 05EB8502 		add	r2, r5, r5, lsl #2
 263 0018 03EB4202 		add	r2, r3, r2, lsl #1
 264              		.loc 1 460 0
 265 001c 40F20003 		movw	r3, #:lower16:.LANCHOR2
 266 0020 C0F20003 		movt	r3, #:upper16:.LANCHOR2
 267              		.loc 1 458 0
 268 0024 B2F8B400 		ldrh	r0, [r2, #180]
 269              		.loc 1 460 0
 270 0028 53F82510 		ldr	r1, [r3, r5, lsl #2]
 271              		.loc 1 458 0
 272 002c 0138     		subs	r0, r0, #1
 273 002e A2F8B400 		strh	r0, [r2, #180]	@ movhi
 274              		.loc 1 460 0
 275 0032 2160     		str	r1, [r4]
 276              		.loc 1 461 0
 277 0034 43F82540 		str	r4, [r3, r5, lsl #2]
 278              	.LVL25:
 279              	.L26:
 280 0038 38BD     		pop	{r3, r4, r5, pc}
 281              	.LVL26:
 282              	.L35:
ARM GAS  /tmp/ccq1Sx9S.s 			page 6


 283              		.loc 1 443 0 discriminator 1
 284 003a FFF7FEFF 		bl	port_halt
 285              	.LVL27:
 286 003e E5E7     		b	.L28
 287              		.cfi_endproc
 288              	.LFE9:
 289              		.size	memp_free, .-memp_free
 290              		.section	.rodata.memp_num,"a",%progbits
 291              		.align	2
 292              		.set	.LANCHOR0,. + 0
 293              		.type	memp_num, %object
 294              		.size	memp_num, 28
 295              	memp_num:
 296 0000 0400     		.short	4
 297 0002 0400     		.short	4
 298 0004 0500     		.short	5
 299 0006 0800     		.short	8
 300 0008 1000     		.short	16
 301 000a 0500     		.short	5
 302 000c 0F00     		.short	15
 303 000e 0200     		.short	2
 304 0010 0400     		.short	4
 305 0012 0800     		.short	8
 306 0014 0800     		.short	8
 307 0016 0300     		.short	3
 308 0018 1000     		.short	16
 309 001a 1000     		.short	16
 310              		.section	.bss.memp_memory,"aw",%nobits
 311              		.align	2
 312              		.set	.LANCHOR1,. + 0
 313              		.type	memp_memory, %object
 314              		.size	memp_memory, 12563
 315              	memp_memory:
 316 0000 00000000 		.space	12563
 316      00000000 
 316      00000000 
 316      00000000 
 316      00000000 
 317 3113 00       		.section	.bss.memp_tab,"aw",%nobits
 318              		.align	2
 319              		.set	.LANCHOR2,. + 0
 320              		.type	memp_tab, %object
 321              		.size	memp_tab, 56
 322              	memp_tab:
 323 0000 00000000 		.space	56
 323      00000000 
 323      00000000 
 323      00000000 
 323      00000000 
 324              		.section	.rodata.memp_sizes,"a",%progbits
 325              		.align	2
 326              		.set	.LANCHOR3,. + 0
 327              		.type	memp_sizes, %object
 328              		.size	memp_sizes, 28
 329              	memp_sizes:
 330 0000 1C00     		.short	28
 331 0002 2000     		.short	32
ARM GAS  /tmp/ccq1Sx9S.s 			page 7


 332 0004 9800     		.short	152
 333 0006 1C00     		.short	28
 334 0008 1000     		.short	16
 335 000a 2000     		.short	32
 336 000c 1800     		.short	24
 337 000e 1000     		.short	16
 338 0010 2C00     		.short	44
 339 0012 1400     		.short	20
 340 0014 1400     		.short	20
 341 0016 1000     		.short	16
 342 0018 1000     		.short	16
 343 001a 6002     		.short	608
 344              		.text
 345              	.Letext0:
 346              		.file 2 "/usr/include/newlib/machine/_default_types.h"
 347              		.file 3 "/usr/include/newlib/stdint.h"
 348              		.file 4 "../../os/various/lwip_bindings/arch/cc.h"
 349              		.file 5 "../../ext/lwip/src/include/lwip/memp.h"
 350              		.file 6 "../../ext/lwip/src/include/lwip/mem.h"
 351              		.file 7 "../../ext/lwip/src/include/lwip/stats.h"
 352              		.file 8 "../../os/ports/GCC/ARMCMx/chcore_v7m.h"