ARM GAS  /tmp/ccq1Sx9S.s 			page 1


   1              		.syntax unified
   2              		.cpu cortex-m4
   3              		.fpu softvfp
   4              		.eabi_attribute 20, 1
   5              		.eabi_attribute 21, 1
   6              		.eabi_attribute 23, 3
   7              		.eabi_attribute 24, 1
   8              		.eabi_attribute 25, 1
   9              		.eabi_attribute 26, 1
  10              		.eabi_attribute 30, 2
  11              		.eabi_attribute 34, 1
  12              		.eabi_attribute 18, 4
  13              		.thumb
  14              		.file	"memp.c"
  15              		.text
  16              	.Ltext0:
  17              		.cfi_sections	.debug_frame
  18              		.section	.text.memp_init,"ax",%progbits
  19              		.align	2
  20              		.p2align 4,,15
  21              		.global	memp_init
  22              		.thumb
  23              		.thumb_func
  24              		.type	memp_init, %function
  25              	memp_init:
  26              	.LFB7:
  27              		.file 1 "../../ext/lwip/src/core/memp.c"
  28              		.loc 1 339 0
  29              		.cfi_startproc
  30              		@ args = 0, pretend = 0, frame = 0
  31              		@ frame_needed = 0, uses_anonymous_args = 0
  32              		@ link register save eliminated.
  33              	.LVL0:
  34 0000 40F20003 		movw	r3, #:lower16:lwip_stats
  35 0004 C0F20003 		movt	r3, #:upper16:lwip_stats
  36 0008 2449     		ldr	r1, .L16
  37 000a 2DE9F00F 		push	{r4, r5, r6, r7, r8, r9, r10, fp}
  38              		.cfi_def_cfa_offset 32
  39              		.cfi_offset 4, -32
  40              		.cfi_offset 5, -28
  41              		.cfi_offset 6, -24
  42              		.cfi_offset 7, -20
  43              		.cfi_offset 8, -16
  44              		.cfi_offset 9, -12
  45              		.cfi_offset 10, -8
  46              		.cfi_offset 11, -4
  47              		.loc 1 344 0
  48 000e 0022     		movs	r2, #0
  49 0010 03F18C04 		add	r4, r3, #140
  50              	.LVL1:
  51              	.L3:
  52              		.loc 1 347 0 discriminator 2
  53 0014 31F8020F 		ldrh	r0, [r1, #2]!
  54              		.loc 1 344 0 discriminator 2
  55 0018 A3F8B420 		strh	r2, [r3, #180]	@ movhi
  56              		.loc 1 345 0 discriminator 2
  57 001c A3F8B620 		strh	r2, [r3, #182]	@ movhi
ARM GAS  /tmp/ccq1Sx9S.s 			page 2


  58              		.loc 1 346 0 discriminator 2
  59 0020 A3F8B820 		strh	r2, [r3, #184]	@ movhi
  60              		.loc 1 347 0 discriminator 2
  61 0024 A3F8B200 		strh	r0, [r3, #178]	@ movhi
  62 0028 0A33     		adds	r3, r3, #10
  63              		.loc 1 343 0 discriminator 2
  64 002a A342     		cmp	r3, r4
  65 002c F2D1     		bne	.L3
  66 002e 40F20005 		movw	r5, #:lower16:.LANCHOR2
  67              		.loc 1 351 0
  68 0032 1B4F     		ldr	r7, .L16+4
  69 0034 C0F20005 		movt	r5, #:upper16:.LANCHOR2
  70 0038 0026     		movs	r6, #0
  71 003a 40F2000C 		movw	ip, #:lower16:.LANCHOR0
  72 003e 40F20008 		movw	r8, #:lower16:.LANCHOR3
  73 0042 05F1380A 		add	r10, r5, #56
  74 0046 27F00307 		bic	r7, r7, #3
  75              	.LVL2:
  76              		.loc 1 355 0
  77 004a B146     		mov	r9, r6
  78 004c C0F2000C 		movt	ip, #:upper16:.LANCHOR0
  79 0050 C0F20008 		movt	r8, #:upper16:.LANCHOR3
  80              	.LVL3:
  81              	.L8:
  82              		.loc 1 360 0
  83 0054 3CF80640 		ldrh	r4, [ip, r6]
  84              		.loc 1 355 0
  85 0058 45F8049B 		str	r9, [r5], #4
  86              	.LVL4:
  87              		.loc 1 360 0
  88 005c BCB1     		cbz	r4, .L4
  89 005e 0021     		movs	r1, #0
  90 0060 36F80800 		ldrh	r0, [r6, r8]
  91 0064 0A46     		mov	r2, r1
  92 0066 3B46     		mov	r3, r7
  93 0068 01E0     		b	.L6
  94              	.LVL5:
  95              	.L15:
  96 006a 1946     		mov	r1, r3
  97              		.loc 1 363 0
  98 006c 5B46     		mov	r3, fp
  99              	.LVL6:
 100              	.L6:
 101              		.loc 1 360 0 discriminator 2
 102 006e 0132     		adds	r2, r2, #1
 103              	.LVL7:
 104 0070 92B2     		uxth	r2, r2
 105              	.LVL8:
 106 0072 A242     		cmp	r2, r4
 107              		.loc 1 361 0 discriminator 2
 108 0074 1960     		str	r1, [r3]
 109              		.loc 1 363 0 discriminator 2
 110 0076 03EB000B 		add	fp, r3, r0
 111              	.LVL9:
 112              		.loc 1 360 0 discriminator 2
 113 007a F6D1     		bne	.L15
 114 007c 013A     		subs	r2, r2, #1
ARM GAS  /tmp/ccq1Sx9S.s 			page 3


 115              	.LVL10:
 116 007e 92B2     		uxth	r2, r2
 117              	.LVL11:
 118 0080 00FB0273 		mla	r3, r0, r2, r7
 119 0084 02FB0000 		mla	r0, r2, r0, r0
 120 0088 45F8043C 		str	r3, [r5, #-4]
 121 008c 0744     		add	r7, r7, r0
 122              	.LVL12:
 123              	.L4:
 124              		.loc 1 354 0
 125 008e 5545     		cmp	r5, r10
 126 0090 06F10206 		add	r6, r6, #2
 127 0094 DED1     		bne	.L8
 128              		.loc 1 375 0
 129 0096 BDE8F00F 		pop	{r4, r5, r6, r7, r8, r9, r10, fp}
 130              	.LVL13:
 131 009a 7047     		bx	lr
 132              	.L17:
 133              		.align	2
 134              	.L16:
 135 009c FEFFFFFF 		.word	.LANCHOR0-2
 136 00a0 03000000 		.word	.LANCHOR1+3
 137              		.cfi_endproc
 138              	.LFE7:
 139              		.size	memp_init, .-memp_init
 140 00a4 AFF30080 		.section	.text.memp_malloc,"ax",%progbits
 140      AFF30080 
 140      AFF30080 
 141              		.align	2
 142              		.p2align 4,,15
 143              		.global	memp_malloc
 144              		.thumb
 145              		.thumb_func
 146              		.type	memp_malloc, %function
 147              	memp_malloc:
 148              	.LFB8:
 149              		.loc 1 394 0
 150              		.cfi_startproc
 151              		@ args = 0, pretend = 0, frame = 0
 152              		@ frame_needed = 0, uses_anonymous_args = 0
 153              	.LVL14:
 154              		.loc 1 398 0
 155 0000 0D28     		cmp	r0, #13
 156              		.loc 1 394 0
 157 0002 70B5     		push	{r4, r5, r6, lr}
 158              		.cfi_def_cfa_offset 16
 159              		.cfi_offset 4, -16
 160              		.cfi_offset 5, -12
 161              		.cfi_offset 6, -8
 162              		.cfi_offset 14, -4
 163              		.loc 1 398 0
 164 0004 34D8     		bhi	.L24
 165              		.loc 1 405 0
 166 0006 40F20003 		movw	r3, #:lower16:.LANCHOR2
 167 000a C0F20003 		movt	r3, #:upper16:.LANCHOR2
 168 000e 53F82040 		ldr	r4, [r3, r0, lsl #2]
 169              	.LVL15:
ARM GAS  /tmp/ccq1Sx9S.s 			page 4


 170              		.loc 1 407 0
 171 0012 F4B1     		cbz	r4, .L21
 172              		.loc 1 414 0
 173 0014 40F20002 		movw	r2, #:lower16:lwip_stats
 174 0018 00EB8001 		add	r1, r0, r0, lsl #2
 175 001c C0F20002 		movt	r2, #:upper16:lwip_stats
 176 0020 02EB4102 		add	r2, r2, r1, lsl #1
 177              		.loc 1 408 0
 178 0024 2168     		ldr	r1, [r4]
 179              		.loc 1 414 0
 180 0026 B2F8B460 		ldrh	r6, [r2, #180]
 181 002a B2F8B650 		ldrh	r5, [r2, #182]
 182              		.loc 1 408 0
 183 002e 43F82010 		str	r1, [r3, r0, lsl #2]
 184              		.loc 1 414 0
 185 0032 731C     		adds	r3, r6, #1
 186 0034 9BB2     		uxth	r3, r3
 187 0036 9D42     		cmp	r5, r3
 188 0038 A2F8B430 		strh	r3, [r2, #180]	@ movhi
 189 003c 38BF     		it	cc
 190 003e A2F8B630 		strhcc	r3, [r2, #182]	@ movhi
 191              		.loc 1 415 0
 192 0042 A307     		lsls	r3, r4, #30
 193 0044 01D1     		bne	.L25
 194 0046 2046     		mov	r0, r4
 195              	.LVL16:
 196              		.loc 1 426 0
 197 0048 70BD     		pop	{r4, r5, r6, pc}
 198              	.LVL17:
 199              	.L25:
 200              		.loc 1 415 0 discriminator 1
 201 004a FFF7FEFF 		bl	port_halt
 202              	.LVL18:
 203 004e 2046     		mov	r0, r4
 204 0050 70BD     		pop	{r4, r5, r6, pc}
 205              	.LVL19:
 206              	.L21:
 207              		.loc 1 420 0
 208 0052 40F20003 		movw	r3, #:lower16:lwip_stats
 209 0056 00EB8000 		add	r0, r0, r0, lsl #2
 210              	.LVL20:
 211 005a C0F20003 		movt	r3, #:upper16:lwip_stats
 212 005e 03EB4003 		add	r3, r3, r0, lsl #1
 213 0062 2046     		mov	r0, r4
 214 0064 B3F8B820 		ldrh	r2, [r3, #184]
 215 0068 0132     		adds	r2, r2, #1
 216 006a A3F8B820 		strh	r2, [r3, #184]	@ movhi
 217 006e 70BD     		pop	{r4, r5, r6, pc}
 218              	.LVL21:
 219              	.L24:
 220              		.loc 1 398 0 discriminator 1
 221 0070 FFF7FEFF 		bl	port_halt
 222              	.LVL22:
 223 0074 0020     		movs	r0, #0
 224 0076 70BD     		pop	{r4, r5, r6, pc}
 225              		.cfi_endproc
 226              	.LFE8:
ARM GAS  /tmp/ccq1Sx9S.s 			page 5


 227              		.size	memp_malloc, .-memp_malloc
 228 0078 AFF30080 		.section	.text.memp_free,"ax",%progbits
 228      AFF30080 
 229              		.align	2
 230              		.p2align 4,,15
 231              		.global	memp_free
 232              		.thumb
 233              		.thumb_func
 234              		.type	memp_free, %function
 235              	memp_free:
 236              	.LFB9:
 237              		.loc 1 436 0
 238              		.cfi_startproc
 239              		@ args = 0, pretend = 0, frame = 0
 240              		@ frame_needed = 0, uses_anonymous_args = 0
 241              	.LVL23:
 242 0000 38B5     		push	{r3, r4, r5, lr}
 243              		.cfi_def_cfa_offset 16
 244              		.cfi_offset 3, -16
 245              		.cfi_offset 4, -12
 246              		.cfi_offset 5, -8
 247              		.cfi_offset 14, -4
 248              		.loc 1 440 0
 249 0002 0C46     		mov	r4, r1
 250              		.loc 1 436 0
 251 0004 0546     		mov	r5, r0
 252              		.loc 1 440 0
 253 0006 B9B1     		cbz	r1, .L26
 254              		.loc 1 443 0
 255 0008 8A07     		lsls	r2, r1, #30
 256 000a 16D1     		bne	.L35
 257              	.LVL24:
 258              	.L28:
 259              		.loc 1 458 0
 260 000c 40F20003 		movw	r3, #:lower16:lwip_stats
 261 0010 C0F20003 		movt	r3, #:upper16:lwip_stats
 262 0014 05EB8502 		add	r2, r5, r5, lsl #2
 263 0018 03EB4202 		add	r2, r3, r2, lsl #1
 264              		.loc 1 460 0
 265 001c 40F20003 		movw	r3, #:lower16:.LANCHOR2
 266 0020 C0F20003 		movt	r3, #:upper16:.LANCHOR2
 267              		.loc 1 458 0
 268 0024 B2F8B400 		ldrh	r0, [r2, #180]
 269              		.loc 1 460 0
 270 0028 53F82510 		ldr	r1, [r3, r5, lsl #2]
 271              		.loc 1 458 0
 272 002c 0138     		subs	r0, r0, #1
 273 002e A2F8B400 		strh	r0, [r2, #180]	@ movhi
 274              		.loc 1 460 0
 275 0032 2160     		str	r1, [r4]
 276              		.loc 1 461 0
 277 0034 43F82540 		str	r4, [r3, r5, lsl #2]
 278              	.LVL25:
 279              	.L26:
 280 0038 38BD     		pop	{r3, r4, r5, pc}
 281              	.LVL26:
 282              	.L35:
ARM GAS  /tmp/ccq1Sx9S.s 			page 6


 283              		.loc 1 443 0 discriminator 1
 284 003a FFF7FEFF 		bl	port_halt
 285              	.LVL27:
 286 003e E5E7     		b	.L28
 287              		.cfi_endproc
 288              	.LFE9:
 289              		.size	memp_free, .-memp_free
 290              		.section	.rodata.memp_num,"a",%progbits
 291              		.align	2
 292              		.set	.LANCHOR0,. + 0
 293              		.type	memp_num, %object
 294              		.size	memp_num, 28
 295              	memp_num:
 296 0000 0400     		.short	4
 297 0002 0400     		.short	4
 298 0004 0500     		.short	5
 299 0006 0800     		.short	8
 300 0008 1000     		.short	16
 301 000a 0500     		.short	5
 302 000c 0F00     		.short	15
 303 000e 0200     		.short	2
 304 0010 0400     		.short	4
 305 0012 0800     		.short	8
 306 0014 0800     		.short	8
 307 0016 0300     		.short	3
 308 0018 1000     		.short	16
 309 001a 1000     		.short	16
 310              		.section	.bss.memp_memory,"aw",%nobits
 311              		.align	2
 312              		.set	.LANCHOR1,. + 0
 313              		.type	memp_memory, %object
 314              		.size	memp_memory, 12563
 315              	memp_memory:
 316 0000 00000000 		.space	12563
 316      00000000 
 316      00000000 
 316      00000000 
 316      00000000 
 317 3113 00       		.section	.bss.memp_tab,"aw",%nobits
 318              		.align	2
 319              		.set	.LANCHOR2,. + 0
 320              		.type	memp_tab, %object
 321              		.size	memp_tab, 56
 322              	memp_tab:
 323 0000 00000000 		.space	56
 323      00000000 
 323      00000000 
 323      00000000 
 323      00000000 
 324              		.section	.rodata.memp_sizes,"a",%progbits
 325              		.align	2
 326              		.set	.LANCHOR3,. + 0
 327              		.type	memp_sizes, %object
 328              		.size	memp_sizes, 28
 329              	memp_sizes:
 330 0000 1C00     		.short	28
 331 0002 2000     		.short	32
ARM GAS  /tmp/ccq1Sx9S.s 			page 7


 332 0004 9800     		.short	152
 333 0006 1C00     		.short	28
 334 0008 1000     		.short	16
 335 000a 2000     		.short	32
 336 000c 1800     		.short	24
 337 000e 1000     		.short	16
 338 0010 2C00     		.short	44
 339 0012 1400     		.short	20
 340 0014 1400     		.short	20
 341 0016 1000     		.short	16
 342 0018 1000     		.short	16
 343 001a 6002     		.short	608
 344              		.text
 345              	.Letext0:
 346              		.file 2 "/usr/include/newlib/machine/_default_types.h"
 347              		.file 3 "/usr/include/newlib/stdint.h"
 348              		.file 4 "../../os/various/lwip_bindings/arch/cc.h"
 349              		.file 5 "../../ext/lwip/src/include/lwip/memp.h"
 350              		.file 6 "../../ext/lwip/src/include/lwip/mem.h"
 351              		.file 7 "../../ext/lwip/src/include/lwip/stats.h"
 352              		.file 8 "../../os/ports/GCC/ARMCMx/chcore_v7m.h"
 353              		.section	.debug_info,"",%progbits
 354              	.Ldebug_info0:
 355 0000 C9040000 		.4byte	0x4c9
 356 0004 0400     		.2byte	0x4
 357 0006 00000000 		.4byte	.Ldebug_abbrev0
 358 000a 04       		.byte	0x4
 359 000b 01       		.uleb128 0x1
 360 000c D1020000 		.4byte	.LASF71
 361 0010 01       		.byte	0x1
 362 0011 9A020000 		.4byte	.LASF72
 363 0015 F5010000 		.4byte	.LASF73
 364 0019 00000000 		.4byte	.Ldebug_ranges0+0
 365 001d 00000000 		.4byte	0
 366 0021 00000000 		.4byte	.Ldebug_line0
 367 0025 02       		.uleb128 0x2
 368 0026 04       		.byte	0x4
 369 0027 05       		.byte	0x5
 370 0028 696E7400 		.ascii	"int\000"
 371 002c 03       		.uleb128 0x3
 372 002d 04       		.byte	0x4
 373 002e 07       		.byte	0x7
 374 002f D0030000 		.4byte	.LASF0
 375 0033 03       		.uleb128 0x3
 376 0034 01       		.byte	0x1
 377 0035 06       		.byte	0x6
 378 0036 7B010000 		.4byte	.LASF1
 379 003a 04       		.uleb128 0x4
 380 003b 2E010000 		.4byte	.LASF4
 381 003f 02       		.byte	0x2
 382 0040 1C       		.byte	0x1c
 383 0041 45000000 		.4byte	0x45
 384 0045 03       		.uleb128 0x3
 385 0046 01       		.byte	0x1
 386 0047 08       		.byte	0x8
 387 0048 64010000 		.4byte	.LASF2
 388 004c 03       		.uleb128 0x3
ARM GAS  /tmp/ccq1Sx9S.s 			page 8


 389 004d 02       		.byte	0x2
 390 004e 05       		.byte	0x5
 391 004f 2E000000 		.4byte	.LASF3
 392 0053 04       		.uleb128 0x4
 393 0054 94000000 		.4byte	.LASF5
 394 0058 02       		.byte	0x2
 395 0059 26       		.byte	0x26
 396 005a 5E000000 		.4byte	0x5e
 397 005e 03       		.uleb128 0x3
 398 005f 02       		.byte	0x2
 399 0060 07       		.byte	0x7
 400 0061 CE010000 		.4byte	.LASF6
 401 0065 03       		.uleb128 0x3
 402 0066 04       		.byte	0x4
 403 0067 05       		.byte	0x5
 404 0068 1B010000 		.4byte	.LASF7
 405 006c 04       		.uleb128 0x4
 406 006d 7F000000 		.4byte	.LASF8
 407 0071 02       		.byte	0x2
 408 0072 38       		.byte	0x38
 409 0073 77000000 		.4byte	0x77
 410 0077 03       		.uleb128 0x3
 411 0078 04       		.byte	0x4
 412 0079 07       		.byte	0x7
 413 007a 88020000 		.4byte	.LASF9
 414 007e 03       		.uleb128 0x3
 415 007f 08       		.byte	0x8
 416 0080 05       		.byte	0x5
 417 0081 0D010000 		.4byte	.LASF10
 418 0085 03       		.uleb128 0x3
 419 0086 08       		.byte	0x8
 420 0087 07       		.byte	0x7
 421 0088 91010000 		.4byte	.LASF11
 422 008c 04       		.uleb128 0x4
 423 008d DA000000 		.4byte	.LASF12
 424 0091 03       		.byte	0x3
 425 0092 2A       		.byte	0x2a
 426 0093 3A000000 		.4byte	0x3a
 427 0097 04       		.uleb128 0x4
 428 0098 AD010000 		.4byte	.LASF13
 429 009c 03       		.byte	0x3
 430 009d 36       		.byte	0x36
 431 009e 53000000 		.4byte	0x53
 432 00a2 04       		.uleb128 0x4
 433 00a3 FF000000 		.4byte	.LASF14
 434 00a7 03       		.byte	0x3
 435 00a8 42       		.byte	0x42
 436 00a9 6C000000 		.4byte	0x6c
 437 00ad 03       		.uleb128 0x3
 438 00ae 01       		.byte	0x1
 439 00af 02       		.byte	0x2
 440 00b0 62020000 		.4byte	.LASF15
 441 00b4 05       		.uleb128 0x5
 442 00b5 04       		.byte	0x4
 443 00b6 03       		.uleb128 0x3
 444 00b7 04       		.byte	0x4
 445 00b8 07       		.byte	0x7
ARM GAS  /tmp/ccq1Sx9S.s 			page 9


 446 00b9 58000000 		.4byte	.LASF16
 447 00bd 03       		.uleb128 0x3
 448 00be 01       		.byte	0x1
 449 00bf 08       		.byte	0x8
 450 00c0 F0010000 		.4byte	.LASF17
 451 00c4 04       		.uleb128 0x4
 452 00c5 79030000 		.4byte	.LASF18
 453 00c9 04       		.byte	0x4
 454 00ca 38       		.byte	0x38
 455 00cb 8C000000 		.4byte	0x8c
 456 00cf 04       		.uleb128 0x4
 457 00d0 7E030000 		.4byte	.LASF19
 458 00d4 04       		.byte	0x4
 459 00d5 3A       		.byte	0x3a
 460 00d6 97000000 		.4byte	0x97
 461 00da 04       		.uleb128 0x4
 462 00db A9000000 		.4byte	.LASF20
 463 00df 04       		.byte	0x4
 464 00e0 3E       		.byte	0x3e
 465 00e1 A2000000 		.4byte	0xa2
 466 00e5 06       		.uleb128 0x6
 467 00e6 01       		.byte	0x1
 468 00e7 05       		.byte	0x5
 469 00e8 2B       		.byte	0x2b
 470 00e9 48010000 		.4byte	0x148
 471 00ed 07       		.uleb128 0x7
 472 00ee BE020000 		.4byte	.LASF21
 473 00f2 00       		.sleb128 0
 474 00f3 07       		.uleb128 0x7
 475 00f4 61000000 		.4byte	.LASF22
 476 00f8 01       		.sleb128 1
 477 00f9 07       		.uleb128 0x7
 478 00fa AB030000 		.4byte	.LASF23
 479 00fe 02       		.sleb128 2
 480 00ff 07       		.uleb128 0x7
 481 0100 EB000000 		.4byte	.LASF24
 482 0104 03       		.sleb128 3
 483 0105 07       		.uleb128 0x7
 484 0106 3F000000 		.4byte	.LASF25
 485 010a 04       		.sleb128 4
 486 010b 07       		.uleb128 0x7
 487 010c E1010000 		.4byte	.LASF26
 488 0110 05       		.sleb128 5
 489 0111 07       		.uleb128 0x7
 490 0112 CB000000 		.4byte	.LASF27
 491 0116 06       		.sleb128 6
 492 0117 07       		.uleb128 0x7
 493 0118 F0030000 		.4byte	.LASF28
 494 011c 07       		.sleb128 7
 495 011d 07       		.uleb128 0x7
 496 011e 9E030000 		.4byte	.LASF29
 497 0122 08       		.sleb128 8
 498 0123 07       		.uleb128 0x7
 499 0124 3C020000 		.4byte	.LASF30
 500 0128 09       		.sleb128 9
 501 0129 07       		.uleb128 0x7
 502 012a 4F010000 		.4byte	.LASF31
ARM GAS  /tmp/ccq1Sx9S.s 			page 10


 503 012e 0A       		.sleb128 10
 504 012f 07       		.uleb128 0x7
 505 0130 BA000000 		.4byte	.LASF32
 506 0134 0B       		.sleb128 11
 507 0135 07       		.uleb128 0x7
 508 0136 70020000 		.4byte	.LASF33
 509 013a 0C       		.sleb128 12
 510 013b 07       		.uleb128 0x7
 511 013c 84030000 		.4byte	.LASF34
 512 0140 0D       		.sleb128 13
 513 0141 07       		.uleb128 0x7
 514 0142 72010000 		.4byte	.LASF35
 515 0146 0E       		.sleb128 14
 516 0147 00       		.byte	0
 517 0148 04       		.uleb128 0x4
 518 0149 38000000 		.4byte	.LASF36
 519 014d 05       		.byte	0x5
 520 014e 2F       		.byte	0x2f
 521 014f E5000000 		.4byte	0xe5
 522 0153 04       		.uleb128 0x4
 523 0154 38010000 		.4byte	.LASF37
 524 0158 06       		.byte	0x6
 525 0159 4C       		.byte	0x4c
 526 015a CF000000 		.4byte	0xcf
 527 015e 08       		.uleb128 0x8
 528 015f 4C000000 		.4byte	.LASF48
 529 0163 18       		.byte	0x18
 530 0164 07       		.byte	0x7
 531 0165 3A       		.byte	0x3a
 532 0166 FA010000 		.4byte	0x1fa
 533 016a 09       		.uleb128 0x9
 534 016b 7A000000 		.4byte	.LASF38
 535 016f 07       		.byte	0x7
 536 0170 3B       		.byte	0x3b
 537 0171 CF000000 		.4byte	0xcf
 538 0175 00       		.byte	0
 539 0176 09       		.uleb128 0x9
 540 0177 CB030000 		.4byte	.LASF39
 541 017b 07       		.byte	0x7
 542 017c 3C       		.byte	0x3c
 543 017d CF000000 		.4byte	0xcf
 544 0181 02       		.byte	0x2
 545 0182 0A       		.uleb128 0xa
 546 0183 667700   		.ascii	"fw\000"
 547 0186 07       		.byte	0x7
 548 0187 3D       		.byte	0x3d
 549 0188 CF000000 		.4byte	0xcf
 550 018c 04       		.byte	0x4
 551 018d 09       		.uleb128 0x9
 552 018e 4A010000 		.4byte	.LASF40
 553 0192 07       		.byte	0x7
 554 0193 3E       		.byte	0x3e
 555 0194 CF000000 		.4byte	0xcf
 556 0198 06       		.byte	0x6
 557 0199 09       		.uleb128 0x9
 558 019a 10000000 		.4byte	.LASF41
 559 019e 07       		.byte	0x7
ARM GAS  /tmp/ccq1Sx9S.s 			page 11


 560 019f 3F       		.byte	0x3f
 561 01a0 CF000000 		.4byte	0xcf
 562 01a4 08       		.byte	0x8
 563 01a5 09       		.uleb128 0x9
 564 01a6 B3000000 		.4byte	.LASF42
 565 01aa 07       		.byte	0x7
 566 01ab 40       		.byte	0x40
 567 01ac CF000000 		.4byte	0xcf
 568 01b0 0A       		.byte	0xa
 569 01b1 09       		.uleb128 0x9
 570 01b2 43010000 		.4byte	.LASF43
 571 01b6 07       		.byte	0x7
 572 01b7 41       		.byte	0x41
 573 01b8 CF000000 		.4byte	0xcf
 574 01bc 0C       		.byte	0xc
 575 01bd 09       		.uleb128 0x9
 576 01be CB020000 		.4byte	.LASF44
 577 01c2 07       		.byte	0x7
 578 01c3 42       		.byte	0x42
 579 01c4 CF000000 		.4byte	0xcf
 580 01c8 0E       		.byte	0xe
 581 01c9 09       		.uleb128 0x9
 582 01ca 5A020000 		.4byte	.LASF45
 583 01ce 07       		.byte	0x7
 584 01cf 43       		.byte	0x43
 585 01d0 CF000000 		.4byte	0xcf
 586 01d4 10       		.byte	0x10
 587 01d5 09       		.uleb128 0x9
 588 01d6 C1010000 		.4byte	.LASF46
 589 01da 07       		.byte	0x7
 590 01db 44       		.byte	0x44
 591 01dc CF000000 		.4byte	0xcf
 592 01e0 12       		.byte	0x12
 593 01e1 0A       		.uleb128 0xa
 594 01e2 65727200 		.ascii	"err\000"
 595 01e6 07       		.byte	0x7
 596 01e7 45       		.byte	0x45
 597 01e8 CF000000 		.4byte	0xcf
 598 01ec 14       		.byte	0x14
 599 01ed 09       		.uleb128 0x9
 600 01ee E2000000 		.4byte	.LASF47
 601 01f2 07       		.byte	0x7
 602 01f3 46       		.byte	0x46
 603 01f4 CF000000 		.4byte	0xcf
 604 01f8 16       		.byte	0x16
 605 01f9 00       		.byte	0
 606 01fa 08       		.uleb128 0x8
 607 01fb 9F000000 		.4byte	.LASF49
 608 01ff 0A       		.byte	0xa
 609 0200 07       		.byte	0x7
 610 0201 5A       		.byte	0x5a
 611 0202 43020000 		.4byte	0x243
 612 0206 09       		.uleb128 0x9
 613 0207 98030000 		.4byte	.LASF50
 614 020b 07       		.byte	0x7
 615 020c 5E       		.byte	0x5e
 616 020d 53010000 		.4byte	0x153
ARM GAS  /tmp/ccq1Sx9S.s 			page 12


 617 0211 00       		.byte	0
 618 0212 09       		.uleb128 0x9
 619 0213 93030000 		.4byte	.LASF51
 620 0217 07       		.byte	0x7
 621 0218 5F       		.byte	0x5f
 622 0219 53010000 		.4byte	0x153
 623 021d 02       		.byte	0x2
 624 021e 0A       		.uleb128 0xa
 625 021f 6D617800 		.ascii	"max\000"
 626 0223 07       		.byte	0x7
 627 0224 60       		.byte	0x60
 628 0225 53010000 		.4byte	0x153
 629 0229 04       		.byte	0x4
 630 022a 0A       		.uleb128 0xa
 631 022b 65727200 		.ascii	"err\000"
 632 022f 07       		.byte	0x7
 633 0230 61       		.byte	0x61
 634 0231 CF000000 		.4byte	0xcf
 635 0235 06       		.byte	0x6
 636 0236 09       		.uleb128 0x9
 637 0237 68020000 		.4byte	.LASF52
 638 023b 07       		.byte	0x7
 639 023c 62       		.byte	0x62
 640 023d CF000000 		.4byte	0xcf
 641 0241 08       		.byte	0x8
 642 0242 00       		.byte	0
 643 0243 08       		.uleb128 0x8
 644 0244 7A020000 		.4byte	.LASF53
 645 0248 06       		.byte	0x6
 646 0249 07       		.byte	0x7
 647 024a 65       		.byte	0x65
 648 024b 74020000 		.4byte	0x274
 649 024f 09       		.uleb128 0x9
 650 0250 93030000 		.4byte	.LASF51
 651 0254 07       		.byte	0x7
 652 0255 66       		.byte	0x66
 653 0256 CF000000 		.4byte	0xcf
 654 025a 00       		.byte	0
 655 025b 0A       		.uleb128 0xa
 656 025c 6D617800 		.ascii	"max\000"
 657 0260 07       		.byte	0x7
 658 0261 67       		.byte	0x67
 659 0262 CF000000 		.4byte	0xcf
 660 0266 02       		.byte	0x2
 661 0267 0A       		.uleb128 0xa
 662 0268 65727200 		.ascii	"err\000"
 663 026c 07       		.byte	0x7
 664 026d 68       		.byte	0x68
 665 026e CF000000 		.4byte	0xcf
 666 0272 04       		.byte	0x4
 667 0273 00       		.byte	0
 668 0274 08       		.uleb128 0x8
 669 0275 87010000 		.4byte	.LASF54
 670 0279 12       		.byte	0x12
 671 027a 07       		.byte	0x7
 672 027b 6B       		.byte	0x6b
 673 027c A5020000 		.4byte	0x2a5
ARM GAS  /tmp/ccq1Sx9S.s 			page 13


 674 0280 0A       		.uleb128 0xa
 675 0281 73656D00 		.ascii	"sem\000"
 676 0285 07       		.byte	0x7
 677 0286 6C       		.byte	0x6c
 678 0287 43020000 		.4byte	0x243
 679 028b 00       		.byte	0
 680 028c 09       		.uleb128 0x9
 681 028d C8010000 		.4byte	.LASF55
 682 0291 07       		.byte	0x7
 683 0292 6D       		.byte	0x6d
 684 0293 43020000 		.4byte	0x243
 685 0297 06       		.byte	0x6
 686 0298 09       		.uleb128 0x9
 687 0299 21000000 		.4byte	.LASF56
 688 029d 07       		.byte	0x7
 689 029e 6E       		.byte	0x6e
 690 029f 43020000 		.4byte	0x243
 691 02a3 0C       		.byte	0xc
 692 02a4 00       		.byte	0
 693 02a5 0B       		.uleb128 0xb
 694 02a6 00000000 		.4byte	.LASF57
 695 02aa 5001     		.2byte	0x150
 696 02ac 07       		.byte	0x7
 697 02ad 71       		.byte	0x71
 698 02ae 2B030000 		.4byte	0x32b
 699 02b2 09       		.uleb128 0x9
 700 02b3 08010000 		.4byte	.LASF58
 701 02b7 07       		.byte	0x7
 702 02b8 73       		.byte	0x73
 703 02b9 5E010000 		.4byte	0x15e
 704 02bd 00       		.byte	0
 705 02be 09       		.uleb128 0x9
 706 02bf B8030000 		.4byte	.LASF59
 707 02c3 07       		.byte	0x7
 708 02c4 76       		.byte	0x76
 709 02c5 5E010000 		.4byte	0x15e
 710 02c9 18       		.byte	0x18
 711 02ca 09       		.uleb128 0x9
 712 02cb 26000000 		.4byte	.LASF60
 713 02cf 07       		.byte	0x7
 714 02d0 79       		.byte	0x79
 715 02d1 5E010000 		.4byte	0x15e
 716 02d5 30       		.byte	0x30
 717 02d6 0A       		.uleb128 0xa
 718 02d7 697000   		.ascii	"ip\000"
 719 02da 07       		.byte	0x7
 720 02db 7C       		.byte	0x7c
 721 02dc 5E010000 		.4byte	0x15e
 722 02e0 48       		.byte	0x48
 723 02e1 09       		.uleb128 0x9
 724 02e2 E6030000 		.4byte	.LASF61
 725 02e6 07       		.byte	0x7
 726 02e7 7F       		.byte	0x7f
 727 02e8 5E010000 		.4byte	0x15e
 728 02ec 60       		.byte	0x60
 729 02ed 0A       		.uleb128 0xa
 730 02ee 75647000 		.ascii	"udp\000"
ARM GAS  /tmp/ccq1Sx9S.s 			page 14


 731 02f2 07       		.byte	0x7
 732 02f3 85       		.byte	0x85
 733 02f4 5E010000 		.4byte	0x15e
 734 02f8 78       		.byte	0x78
 735 02f9 0A       		.uleb128 0xa
 736 02fa 74637000 		.ascii	"tcp\000"
 737 02fe 07       		.byte	0x7
 738 02ff 88       		.byte	0x88
 739 0300 5E010000 		.4byte	0x15e
 740 0304 90       		.byte	0x90
 741 0305 0A       		.uleb128 0xa
 742 0306 6D656D00 		.ascii	"mem\000"
 743 030a 07       		.byte	0x7
 744 030b 8B       		.byte	0x8b
 745 030c FA010000 		.4byte	0x1fa
 746 0310 A8       		.byte	0xa8
 747 0311 09       		.uleb128 0x9
 748 0312 B9020000 		.4byte	.LASF62
 749 0316 07       		.byte	0x7
 750 0317 8E       		.byte	0x8e
 751 0318 2B030000 		.4byte	0x32b
 752 031c B2       		.byte	0xb2
 753 031d 0C       		.uleb128 0xc
 754 031e 73797300 		.ascii	"sys\000"
 755 0322 07       		.byte	0x7
 756 0323 91       		.byte	0x91
 757 0324 74020000 		.4byte	0x274
 758 0328 3E01     		.2byte	0x13e
 759 032a 00       		.byte	0
 760 032b 0D       		.uleb128 0xd
 761 032c FA010000 		.4byte	0x1fa
 762 0330 3B030000 		.4byte	0x33b
 763 0334 0E       		.uleb128 0xe
 764 0335 B6000000 		.4byte	0xb6
 765 0339 0D       		.byte	0xd
 766 033a 00       		.byte	0
 767 033b 08       		.uleb128 0x8
 768 033c B9020000 		.4byte	.LASF62
 769 0340 04       		.byte	0x4
 770 0341 01       		.byte	0x1
 771 0342 42       		.byte	0x42
 772 0343 54030000 		.4byte	0x354
 773 0347 09       		.uleb128 0x9
 774 0348 EB030000 		.4byte	.LASF63
 775 034c 01       		.byte	0x1
 776 034d 43       		.byte	0x43
 777 034e 54030000 		.4byte	0x354
 778 0352 00       		.byte	0
 779 0353 00       		.byte	0
 780 0354 0F       		.uleb128 0xf
 781 0355 04       		.byte	0x4
 782 0356 3B030000 		.4byte	0x33b
 783 035a 10       		.uleb128 0x10
 784 035b 24010000 		.4byte	.LASF64
 785 035f 01       		.byte	0x1
 786 0360 5201     		.2byte	0x152
 787 0362 00000000 		.4byte	.LFB7
ARM GAS  /tmp/ccq1Sx9S.s 			page 15


 788 0366 A4000000 		.4byte	.LFE7-.LFB7
 789 036a 01       		.uleb128 0x1
 790 036b 9C       		.byte	0x9c
 791 036c 9D030000 		.4byte	0x39d
 792 0370 11       		.uleb128 0x11
 793 0371 B9020000 		.4byte	.LASF62
 794 0375 01       		.byte	0x1
 795 0376 5401     		.2byte	0x154
 796 0378 54030000 		.4byte	0x354
 797 037c 00000000 		.4byte	.LLST0
 798 0380 12       		.uleb128 0x12
 799 0381 6900     		.ascii	"i\000"
 800 0383 01       		.byte	0x1
 801 0384 5501     		.2byte	0x155
 802 0386 CF000000 		.4byte	0xcf
 803 038a 3F000000 		.4byte	.LLST1
 804 038e 12       		.uleb128 0x12
 805 038f 6A00     		.ascii	"j\000"
 806 0391 01       		.byte	0x1
 807 0392 5501     		.2byte	0x155
 808 0394 CF000000 		.4byte	0xcf
 809 0398 5F000000 		.4byte	.LLST2
 810 039c 00       		.byte	0
 811 039d 13       		.uleb128 0x13
 812 039e BF030000 		.4byte	.LASF74
 813 03a2 01       		.byte	0x1
 814 03a3 8601     		.2byte	0x186
 815 03a5 B4000000 		.4byte	0xb4
 816 03a9 00000000 		.4byte	.LFB8
 817 03ad 78000000 		.4byte	.LFE8-.LFB8
 818 03b1 01       		.uleb128 0x1
 819 03b2 9C       		.byte	0x9c
 820 03b3 EA030000 		.4byte	0x3ea
 821 03b7 14       		.uleb128 0x14
 822 03b8 A8010000 		.4byte	.LASF66
 823 03bc 01       		.byte	0x1
 824 03bd 8601     		.2byte	0x186
 825 03bf 48010000 		.4byte	0x148
 826 03c3 A3000000 		.4byte	.LLST3
 827 03c7 11       		.uleb128 0x11
 828 03c8 B9020000 		.4byte	.LASF62
 829 03cc 01       		.byte	0x1
 830 03cd 8B01     		.2byte	0x18b
 831 03cf 54030000 		.4byte	0x354
 832 03d3 0F010000 		.4byte	.LLST4
 833 03d7 15       		.uleb128 0x15
 834 03d8 4E000000 		.4byte	.LVL18
 835 03dc C4040000 		.4byte	0x4c4
 836 03e0 15       		.uleb128 0x15
 837 03e1 74000000 		.4byte	.LVL22
 838 03e5 C4040000 		.4byte	0x4c4
 839 03e9 00       		.byte	0
 840 03ea 10       		.uleb128 0x10
 841 03eb 17000000 		.4byte	.LASF65
 842 03ef 01       		.byte	0x1
 843 03f0 B301     		.2byte	0x1b3
 844 03f2 00000000 		.4byte	.LFB9
ARM GAS  /tmp/ccq1Sx9S.s 			page 16


 845 03f6 40000000 		.4byte	.LFE9-.LFB9
 846 03fa 01       		.uleb128 0x1
 847 03fb 9C       		.byte	0x9c
 848 03fc 3A040000 		.4byte	0x43a
 849 0400 14       		.uleb128 0x14
 850 0401 A8010000 		.4byte	.LASF66
 851 0405 01       		.byte	0x1
 852 0406 B301     		.2byte	0x1b3
 853 0408 48010000 		.4byte	0x148
 854 040c 22010000 		.4byte	.LLST5
 855 0410 16       		.uleb128 0x16
 856 0411 6D656D00 		.ascii	"mem\000"
 857 0415 01       		.byte	0x1
 858 0416 B301     		.2byte	0x1b3
 859 0418 B4000000 		.4byte	0xb4
 860 041c 5C010000 		.4byte	.LLST6
 861 0420 11       		.uleb128 0x11
 862 0421 B9020000 		.4byte	.LASF62
 863 0425 01       		.byte	0x1
 864 0426 B501     		.2byte	0x1b5
 865 0428 54030000 		.4byte	0x354
 866 042c 90010000 		.4byte	.LLST7
 867 0430 15       		.uleb128 0x15
 868 0431 3E000000 		.4byte	.LVL27
 869 0435 C4040000 		.4byte	0x4c4
 870 0439 00       		.byte	0
 871 043a 0D       		.uleb128 0xd
 872 043b 54030000 		.4byte	0x354
 873 043f 4A040000 		.4byte	0x44a
 874 0443 0E       		.uleb128 0xe
 875 0444 B6000000 		.4byte	0xb6
 876 0448 0D       		.byte	0xd
 877 0449 00       		.byte	0
 878 044a 17       		.uleb128 0x17
 879 044b DD030000 		.4byte	.LASF67
 880 044f 01       		.byte	0x1
 881 0450 75       		.byte	0x75
 882 0451 3A040000 		.4byte	0x43a
 883 0455 05       		.uleb128 0x5
 884 0456 03       		.byte	0x3
 885 0457 00000000 		.4byte	memp_tab
 886 045b 0D       		.uleb128 0xd
 887 045c CF000000 		.4byte	0xcf
 888 0460 6B040000 		.4byte	0x46b
 889 0464 0E       		.uleb128 0xe
 890 0465 B6000000 		.4byte	0xb6
 891 0469 0D       		.byte	0xd
 892 046a 00       		.byte	0
 893 046b 17       		.uleb128 0x17
 894 046c B6010000 		.4byte	.LASF68
 895 0470 01       		.byte	0x1
 896 0471 81       		.byte	0x81
 897 0472 7C040000 		.4byte	0x47c
 898 0476 05       		.uleb128 0x5
 899 0477 03       		.byte	0x3
 900 0478 00000000 		.4byte	memp_sizes
 901 047c 18       		.uleb128 0x18
ARM GAS  /tmp/ccq1Sx9S.s 			page 17


 902 047d 5B040000 		.4byte	0x45b
 903 0481 17       		.uleb128 0x17
 904 0482 07000000 		.4byte	.LASF69
 905 0486 01       		.byte	0x1
 906 0487 89       		.byte	0x89
 907 0488 92040000 		.4byte	0x492
 908 048c 05       		.uleb128 0x5
 909 048d 03       		.byte	0x3
 910 048e 00000000 		.4byte	memp_num
 911 0492 18       		.uleb128 0x18
 912 0493 5B040000 		.4byte	0x45b
 913 0497 0D       		.uleb128 0xd
 914 0498 C4000000 		.4byte	0xc4
 915 049c A8040000 		.4byte	0x4a8
 916 04a0 19       		.uleb128 0x19
 917 04a1 B6000000 		.4byte	0xb6
 918 04a5 1231     		.2byte	0x3112
 919 04a7 00       		.byte	0
 920 04a8 17       		.uleb128 0x17
 921 04a9 6E000000 		.4byte	.LASF70
 922 04ad 01       		.byte	0x1
 923 04ae AA       		.byte	0xaa
 924 04af 97040000 		.4byte	0x497
 925 04b3 05       		.uleb128 0x5
 926 04b4 03       		.byte	0x3
 927 04b5 00000000 		.4byte	memp_memory
 928 04b9 1A       		.uleb128 0x1a
 929 04ba 4F020000 		.4byte	.LASF75
 930 04be 07       		.byte	0x7
 931 04bf 95       		.byte	0x95
 932 04c0 A5020000 		.4byte	0x2a5
 933 04c4 1B       		.uleb128 0x1b
 934 04c5 8A000000 		.4byte	.LASF76
 935 04c9 08       		.byte	0x8
 936 04ca 0102     		.2byte	0x201
 937 04cc 00       		.byte	0
 938              		.section	.debug_abbrev,"",%progbits
 939              	.Ldebug_abbrev0:
 940 0000 01       		.uleb128 0x1
 941 0001 11       		.uleb128 0x11
 942 0002 01       		.byte	0x1
 943 0003 25       		.uleb128 0x25
 944 0004 0E       		.uleb128 0xe
 945 0005 13       		.uleb128 0x13
 946 0006 0B       		.uleb128 0xb
 947 0007 03       		.uleb128 0x3
 948 0008 0E       		.uleb128 0xe
 949 0009 1B       		.uleb128 0x1b
 950 000a 0E       		.uleb128 0xe
 951 000b 55       		.uleb128 0x55
 952 000c 17       		.uleb128 0x17
 953 000d 11       		.uleb128 0x11
 954 000e 01       		.uleb128 0x1
 955 000f 10       		.uleb128 0x10
 956 0010 17       		.uleb128 0x17
 957 0011 00       		.byte	0
 958 0012 00       		.byte	0
ARM GAS  /tmp/ccq1Sx9S.s 			page 18


 959 0013 02       		.uleb128 0x2
 960 0014 24       		.uleb128 0x24
 961 0015 00       		.byte	0
 962 0016 0B       		.uleb128 0xb
 963 0017 0B       		.uleb128 0xb
 964 0018 3E       		.uleb128 0x3e
 965 0019 0B       		.uleb128 0xb
 966 001a 03       		.uleb128 0x3
 967 001b 08       		.uleb128 0x8
 968 001c 00       		.byte	0
 969 001d 00       		.byte	0
 970 001e 03       		.uleb128 0x3
 971 001f 24       		.uleb128 0x24
 972 0020 00       		.byte	0
 973 0021 0B       		.uleb128 0xb
 974 0022 0B       		.uleb128 0xb
 975 0023 3E       		.uleb128 0x3e
 976 0024 0B       		.uleb128 0xb
 977 0025 03       		.uleb128 0x3
 978 0026 0E       		.uleb128 0xe
 979 0027 00       		.byte	0
 980 0028 00       		.byte	0
 981 0029 04       		.uleb128 0x4
 982 002a 16       		.uleb128 0x16
 983 002b 00       		.byte	0
 984 002c 03       		.uleb128 0x3
 985 002d 0E       		.uleb128 0xe
 986 002e 3A       		.uleb128 0x3a
 987 002f 0B       		.uleb128 0xb
 988 0030 3B       		.uleb128 0x3b
 989 0031 0B       		.uleb128 0xb
 990 0032 49       		.uleb128 0x49
 991 0033 13       		.uleb128 0x13
 992 0034 00       		.byte	0
 993 0035 00       		.byte	0
 994 0036 05       		.uleb128 0x5
 995 0037 0F       		.uleb128 0xf
 996 0038 00       		.byte	0
 997 0039 0B       		.uleb128 0xb
 998 003a 0B       		.uleb128 0xb
 999 003b 00       		.byte	0
 1000 003c 00       		.byte	0
 1001 003d 06       		.uleb128 0x6
 1002 003e 04       		.uleb128 0x4
 1003 003f 01       		.byte	0x1
 1004 0040 0B       		.uleb128 0xb
 1005 0041 0B       		.uleb128 0xb
 1006 0042 3A       		.uleb128 0x3a
 1007 0043 0B       		.uleb128 0xb
 1008 0044 3B       		.uleb128 0x3b
 1009 0045 0B       		.uleb128 0xb
 1010 0046 01       		.uleb128 0x1
 1011 0047 13       		.uleb128 0x13
 1012 0048 00       		.byte	0
 1013 0049 00       		.byte	0
 1014 004a 07       		.uleb128 0x7
 1015 004b 28       		.uleb128 0x28
ARM GAS  /tmp/ccq1Sx9S.s 			page 19


 1016 004c 00       		.byte	0
 1017 004d 03       		.uleb128 0x3
 1018 004e 0E       		.uleb128 0xe
 1019 004f 1C       		.uleb128 0x1c
 1020 0050 0D       		.uleb128 0xd
 1021 0051 00       		.byte	0
 1022 0052 00       		.byte	0
 1023 0053 08       		.uleb128 0x8
 1024 0054 13       		.uleb128 0x13
 1025 0055 01       		.byte	0x1
 1026 0056 03       		.uleb128 0x3
 1027 0057 0E       		.uleb128 0xe
 1028 0058 0B       		.uleb128 0xb
 1029 0059 0B       		.uleb128 0xb
 1030 005a 3A       		.uleb128 0x3a
 1031 005b 0B       		.uleb128 0xb
 1032 005c 3B       		.uleb128 0x3b
 1033 005d 0B       		.uleb128 0xb
 1034 005e 01       		.uleb128 0x1
 1035 005f 13       		.uleb128 0x13
 1036 0060 00       		.byte	0
 1037 0061 00       		.byte	0
 1038 0062 09       		.uleb128 0x9
 1039 0063 0D       		.uleb128 0xd
 1040 0064 00       		.byte	0
 1041 0065 03       		.uleb128 0x3
 1042 0066 0E       		.uleb128 0xe
 1043 0067 3A       		.uleb128 0x3a
 1044 0068 0B       		.uleb128 0xb
 1045 0069 3B       		.uleb128 0x3b
 1046 006a 0B       		.uleb128 0xb
 1047 006b 49       		.uleb128 0x49
 1048 006c 13       		.uleb128 0x13
 1049 006d 38       		.uleb128 0x38
 1050 006e 0B       		.uleb128 0xb
 1051 006f 00       		.byte	0
 1052 0070 00       		.byte	0
 1053 0071 0A       		.uleb128 0xa
 1054 0072 0D       		.uleb128 0xd
 1055 0073 00       		.byte	0
 1056 0074 03       		.uleb128 0x3
 1057 0075 08       		.uleb128 0x8
 1058 0076 3A       		.uleb128 0x3a
 1059 0077 0B       		.uleb128 0xb
 1060 0078 3B       		.uleb128 0x3b
 1061 0079 0B       		.uleb128 0xb
 1062 007a 49       		.uleb128 0x49
 1063 007b 13       		.uleb128 0x13
 1064 007c 38       		.uleb128 0x38
 1065 007d 0B       		.uleb128 0xb
 1066 007e 00       		.byte	0
 1067 007f 00       		.byte	0
 1068 0080 0B       		.uleb128 0xb
 1069 0081 13       		.uleb128 0x13
 1070 0082 01       		.byte	0x1
 1071 0083 03       		.uleb128 0x3
 1072 0084 0E       		.uleb128 0xe
ARM GAS  /tmp/ccq1Sx9S.s 			page 20


 1073 0085 0B       		.uleb128 0xb
 1074 0086 05       		.uleb128 0x5
 1075 0087 3A       		.uleb128 0x3a
 1076 0088 0B       		.uleb128 0xb
 1077 0089 3B       		.uleb128 0x3b
 1078 008a 0B       		.uleb128 0xb
 1079 008b 01       		.uleb128 0x1
 1080 008c 13       		.uleb128 0x13
 1081 008d 00       		.byte	0
 1082 008e 00       		.byte	0
 1083 008f 0C       		.uleb128 0xc
 1084 0090 0D       		.uleb128 0xd
 1085 0091 00       		.byte	0
 1086 0092 03       		.uleb128 0x3
 1087 0093 08       		.uleb128 0x8
 1088 0094 3A       		.uleb128 0x3a
 1089 0095 0B       		.uleb128 0xb
 1090 0096 3B       		.uleb128 0x3b
 1091 0097 0B       		.uleb128 0xb
 1092 0098 49       		.uleb128 0x49
 1093 0099 13       		.uleb128 0x13
 1094 009a 38       		.uleb128 0x38
 1095 009b 05       		.uleb128 0x5
 1096 009c 00       		.byte	0
 1097 009d 00       		.byte	0
 1098 009e 0D       		.uleb128 0xd
 1099 009f 01       		.uleb128 0x1
 1100 00a0 01       		.byte	0x1
 1101 00a1 49       		.uleb128 0x49
 1102 00a2 13       		.uleb128 0x13
 1103 00a3 01       		.uleb128 0x1
 1104 00a4 13       		.uleb128 0x13
 1105 00a5 00       		.byte	0
 1106 00a6 00       		.byte	0
 1107 00a7 0E       		.uleb128 0xe
 1108 00a8 21       		.uleb128 0x21
 1109 00a9 00       		.byte	0
 1110 00aa 49       		.uleb128 0x49
 1111 00ab 13       		.uleb128 0x13
 1112 00ac 2F       		.uleb128 0x2f
 1113 00ad 0B       		.uleb128 0xb
 1114 00ae 00       		.byte	0
 1115 00af 00       		.byte	0
 1116 00b0 0F       		.uleb128 0xf
 1117 00b1 0F       		.uleb128 0xf
 1118 00b2 00       		.byte	0
 1119 00b3 0B       		.uleb128 0xb
 1120 00b4 0B       		.uleb128 0xb
 1121 00b5 49       		.uleb128 0x49
 1122 00b6 13       		.uleb128 0x13
 1123 00b7 00       		.byte	0
 1124 00b8 00       		.byte	0
 1125 00b9 10       		.uleb128 0x10
 1126 00ba 2E       		.uleb128 0x2e
 1127 00bb 01       		.byte	0x1
 1128 00bc 3F       		.uleb128 0x3f
 1129 00bd 19       		.uleb128 0x19
ARM GAS  /tmp/ccq1Sx9S.s 			page 21


 1130 00be 03       		.uleb128 0x3
 1131 00bf 0E       		.uleb128 0xe
 1132 00c0 3A       		.uleb128 0x3a
 1133 00c1 0B       		.uleb128 0xb
 1134 00c2 3B       		.uleb128 0x3b
 1135 00c3 05       		.uleb128 0x5
 1136 00c4 27       		.uleb128 0x27
 1137 00c5 19       		.uleb128 0x19
 1138 00c6 11       		.uleb128 0x11
 1139 00c7 01       		.uleb128 0x1
 1140 00c8 12       		.uleb128 0x12
 1141 00c9 06       		.uleb128 0x6
 1142 00ca 40       		.uleb128 0x40
 1143 00cb 18       		.uleb128 0x18
 1144 00cc 9742     		.uleb128 0x2117
 1145 00ce 19       		.uleb128 0x19
 1146 00cf 01       		.uleb128 0x1
 1147 00d0 13       		.uleb128 0x13
 1148 00d1 00       		.byte	0
 1149 00d2 00       		.byte	0
 1150 00d3 11       		.uleb128 0x11
 1151 00d4 34       		.uleb128 0x34
 1152 00d5 00       		.byte	0
 1153 00d6 03       		.uleb128 0x3
 1154 00d7 0E       		.uleb128 0xe
 1155 00d8 3A       		.uleb128 0x3a
 1156 00d9 0B       		.uleb128 0xb
 1157 00da 3B       		.uleb128 0x3b
 1158 00db 05       		.uleb128 0x5
 1159 00dc 49       		.uleb128 0x49
 1160 00dd 13       		.uleb128 0x13
 1161 00de 02       		.uleb128 0x2
 1162 00df 17       		.uleb128 0x17
 1163 00e0 00       		.byte	0
 1164 00e1 00       		.byte	0
 1165 00e2 12       		.uleb128 0x12
 1166 00e3 34       		.uleb128 0x34
 1167 00e4 00       		.byte	0
 1168 00e5 03       		.uleb128 0x3
 1169 00e6 08       		.uleb128 0x8
 1170 00e7 3A       		.uleb128 0x3a
 1171 00e8 0B       		.uleb128 0xb
 1172 00e9 3B       		.uleb128 0x3b
 1173 00ea 05       		.uleb128 0x5
 1174 00eb 49       		.uleb128 0x49
 1175 00ec 13       		.uleb128 0x13
 1176 00ed 02       		.uleb128 0x2
 1177 00ee 17       		.uleb128 0x17
 1178 00ef 00       		.byte	0
 1179 00f0 00       		.byte	0
 1180 00f1 13       		.uleb128 0x13
 1181 00f2 2E       		.uleb128 0x2e
 1182 00f3 01       		.byte	0x1
 1183 00f4 3F       		.uleb128 0x3f
 1184 00f5 19       		.uleb128 0x19
 1185 00f6 03       		.uleb128 0x3
 1186 00f7 0E       		.uleb128 0xe
ARM GAS  /tmp/ccq1Sx9S.s 			page 22


 1187 00f8 3A       		.uleb128 0x3a
 1188 00f9 0B       		.uleb128 0xb
 1189 00fa 3B       		.uleb128 0x3b
 1190 00fb 05       		.uleb128 0x5
 1191 00fc 27       		.uleb128 0x27
 1192 00fd 19       		.uleb128 0x19
 1193 00fe 49       		.uleb128 0x49
 1194 00ff 13       		.uleb128 0x13
 1195 0100 11       		.uleb128 0x11
 1196 0101 01       		.uleb128 0x1
 1197 0102 12       		.uleb128 0x12
 1198 0103 06       		.uleb128 0x6
 1199 0104 40       		.uleb128 0x40
 1200 0105 18       		.uleb128 0x18
 1201 0106 9742     		.uleb128 0x2117
 1202 0108 19       		.uleb128 0x19
 1203 0109 01       		.uleb128 0x1
 1204 010a 13       		.uleb128 0x13
 1205 010b 00       		.byte	0
 1206 010c 00       		.byte	0
 1207 010d 14       		.uleb128 0x14
 1208 010e 05       		.uleb128 0x5
 1209 010f 00       		.byte	0
 1210 0110 03       		.uleb128 0x3
 1211 0111 0E       		.uleb128 0xe
 1212 0112 3A       		.uleb128 0x3a
 1213 0113 0B       		.uleb128 0xb
 1214 0114 3B       		.uleb128 0x3b
 1215 0115 05       		.uleb128 0x5
 1216 0116 49       		.uleb128 0x49
 1217 0117 13       		.uleb128 0x13
 1218 0118 02       		.uleb128 0x2
 1219 0119 17       		.uleb128 0x17
 1220 011a 00       		.byte	0
 1221 011b 00       		.byte	0
 1222 011c 15       		.uleb128 0x15
 1223 011d 898201   		.uleb128 0x4109
 1224 0120 00       		.byte	0
 1225 0121 11       		.uleb128 0x11
 1226 0122 01       		.uleb128 0x1
 1227 0123 31       		.uleb128 0x31
 1228 0124 13       		.uleb128 0x13
 1229 0125 00       		.byte	0
 1230 0126 00       		.byte	0
 1231 0127 16       		.uleb128 0x16
 1232 0128 05       		.uleb128 0x5
 1233 0129 00       		.byte	0
 1234 012a 03       		.uleb128 0x3
 1235 012b 08       		.uleb128 0x8
 1236 012c 3A       		.uleb128 0x3a
 1237 012d 0B       		.uleb128 0xb
 1238 012e 3B       		.uleb128 0x3b
 1239 012f 05       		.uleb128 0x5
 1240 0130 49       		.uleb128 0x49
 1241 0131 13       		.uleb128 0x13
 1242 0132 02       		.uleb128 0x2
 1243 0133 17       		.uleb128 0x17
ARM GAS  /tmp/ccq1Sx9S.s 			page 23


 1244 0134 00       		.byte	0
 1245 0135 00       		.byte	0
 1246 0136 17       		.uleb128 0x17
 1247 0137 34       		.uleb128 0x34
 1248 0138 00       		.byte	0
 1249 0139 03       		.uleb128 0x3
 1250 013a 0E       		.uleb128 0xe
 1251 013b 3A       		.uleb128 0x3a
 1252 013c 0B       		.uleb128 0xb
 1253 013d 3B       		.uleb128 0x3b
 1254 013e 0B       		.uleb128 0xb
 1255 013f 49       		.uleb128 0x49
 1256 0140 13       		.uleb128 0x13
 1257 0141 02       		.uleb128 0x2
 1258 0142 18       		.uleb128 0x18
 1259 0143 00       		.byte	0
 1260 0144 00       		.byte	0
 1261 0145 18       		.uleb128 0x18
 1262 0146 26       		.uleb128 0x26
 1263 0147 00       		.byte	0
 1264 0148 49       		.uleb128 0x49
 1265 0149 13       		.uleb128 0x13
 1266 014a 00       		.byte	0
 1267 014b 00       		.byte	0
 1268 014c 19       		.uleb128 0x19
 1269 014d 21       		.uleb128 0x21
 1270 014e 00       		.byte	0
 1271 014f 49       		.uleb128 0x49
 1272 0150 13       		.uleb128 0x13
 1273 0151 2F       		.uleb128 0x2f
 1274 0152 05       		.uleb128 0x5
 1275 0153 00       		.byte	0
 1276 0154 00       		.byte	0
 1277 0155 1A       		.uleb128 0x1a
 1278 0156 34       		.uleb128 0x34
 1279 0157 00       		.byte	0
 1280 0158 03       		.uleb128 0x3
 1281 0159 0E       		.uleb128 0xe
 1282 015a 3A       		.uleb128 0x3a
 1283 015b 0B       		.uleb128 0xb
 1284 015c 3B       		.uleb128 0x3b
 1285 015d 0B       		.uleb128 0xb
 1286 015e 49       		.uleb128 0x49
 1287 015f 13       		.uleb128 0x13
 1288 0160 3F       		.uleb128 0x3f
 1289 0161 19       		.uleb128 0x19
 1290 0162 3C       		.uleb128 0x3c
 1291 0163 19       		.uleb128 0x19
 1292 0164 00       		.byte	0
 1293 0165 00       		.byte	0
 1294 0166 1B       		.uleb128 0x1b
 1295 0167 2E       		.uleb128 0x2e
 1296 0168 00       		.byte	0
 1297 0169 3F       		.uleb128 0x3f
 1298 016a 19       		.uleb128 0x19
 1299 016b 03       		.uleb128 0x3
 1300 016c 0E       		.uleb128 0xe
ARM GAS  /tmp/ccq1Sx9S.s 			page 24


 1301 016d 3A       		.uleb128 0x3a
 1302 016e 0B       		.uleb128 0xb
 1303 016f 3B       		.uleb128 0x3b
 1304 0170 05       		.uleb128 0x5
 1305 0171 27       		.uleb128 0x27
 1306 0172 19       		.uleb128 0x19
 1307 0173 3C       		.uleb128 0x3c
 1308 0174 19       		.uleb128 0x19
 1309 0175 00       		.byte	0
 1310 0176 00       		.byte	0
 1311 0177 00       		.byte	0
 1312              		.section	.debug_loc,"",%progbits
 1313              	.Ldebug_loc0:
 1314              	.LLST0:
 1315 0000 4A000000 		.4byte	.LVL2
 1316 0004 6A000000 		.4byte	.LVL5
 1317 0008 0100     		.2byte	0x1
 1318 000a 57       		.byte	0x57
 1319 000b 6A000000 		.4byte	.LVL5
 1320 000f 6E000000 		.4byte	.LVL6
 1321 0013 0100     		.2byte	0x1
 1322 0015 5B       		.byte	0x5b
 1323 0016 6E000000 		.4byte	.LVL6
 1324 001a 7A000000 		.4byte	.LVL9
 1325 001e 0100     		.2byte	0x1
 1326 0020 53       		.byte	0x53
 1327 0021 7A000000 		.4byte	.LVL9
 1328 0025 8E000000 		.4byte	.LVL12
 1329 0029 0100     		.2byte	0x1
 1330 002b 5B       		.byte	0x5b
 1331 002c 8E000000 		.4byte	.LVL12
 1332 0030 9A000000 		.4byte	.LVL13
 1333 0034 0100     		.2byte	0x1
 1334 0036 57       		.byte	0x57
 1335 0037 00000000 		.4byte	0
 1336 003b 00000000 		.4byte	0
 1337              	.LLST1:
 1338 003f 00000000 		.4byte	.LVL0
 1339 0043 14000000 		.4byte	.LVL1
 1340 0047 0200     		.2byte	0x2
 1341 0049 30       		.byte	0x30
 1342 004a 9F       		.byte	0x9f
 1343 004b 4A000000 		.4byte	.LVL2
 1344 004f 54000000 		.4byte	.LVL3
 1345 0053 0200     		.2byte	0x2
 1346 0055 30       		.byte	0x30
 1347 0056 9F       		.byte	0x9f
 1348 0057 00000000 		.4byte	0
 1349 005b 00000000 		.4byte	0
 1350              	.LLST2:
 1351 005f 5C000000 		.4byte	.LVL4
 1352 0063 6A000000 		.4byte	.LVL5
 1353 0067 0200     		.2byte	0x2
 1354 0069 30       		.byte	0x30
 1355 006a 9F       		.byte	0x9f
 1356 006b 6A000000 		.4byte	.LVL5
 1357 006f 70000000 		.4byte	.LVL7
ARM GAS  /tmp/ccq1Sx9S.s 			page 25


 1358 0073 0100     		.2byte	0x1
 1359 0075 52       		.byte	0x52
 1360 0076 70000000 		.4byte	.LVL7
 1361 007a 72000000 		.4byte	.LVL8
 1362 007e 0300     		.2byte	0x3
 1363 0080 72       		.byte	0x72
 1364 0081 7F       		.sleb128 -1
 1365 0082 9F       		.byte	0x9f
 1366 0083 7A000000 		.4byte	.LVL9
 1367 0087 7E000000 		.4byte	.LVL10
 1368 008b 0100     		.2byte	0x1
 1369 008d 52       		.byte	0x52
 1370 008e 7E000000 		.4byte	.LVL10
 1371 0092 80000000 		.4byte	.LVL11
 1372 0096 0300     		.2byte	0x3
 1373 0098 72       		.byte	0x72
 1374 0099 01       		.sleb128 1
 1375 009a 9F       		.byte	0x9f
 1376 009b 00000000 		.4byte	0
 1377 009f 00000000 		.4byte	0
 1378              	.LLST3:
 1379 00a3 00000000 		.4byte	.LVL14
 1380 00a7 48000000 		.4byte	.LVL16
 1381 00ab 0100     		.2byte	0x1
 1382 00ad 50       		.byte	0x50
 1383 00ae 48000000 		.4byte	.LVL16
 1384 00b2 4A000000 		.4byte	.LVL17
 1385 00b6 0400     		.2byte	0x4
 1386 00b8 F3       		.byte	0xf3
 1387 00b9 01       		.uleb128 0x1
 1388 00ba 50       		.byte	0x50
 1389 00bb 9F       		.byte	0x9f
 1390 00bc 4A000000 		.4byte	.LVL17
 1391 00c0 4D000000 		.4byte	.LVL18-1
 1392 00c4 0100     		.2byte	0x1
 1393 00c6 50       		.byte	0x50
 1394 00c7 4D000000 		.4byte	.LVL18-1
 1395 00cb 52000000 		.4byte	.LVL19
 1396 00cf 0400     		.2byte	0x4
 1397 00d1 F3       		.byte	0xf3
 1398 00d2 01       		.uleb128 0x1
 1399 00d3 50       		.byte	0x50
 1400 00d4 9F       		.byte	0x9f
 1401 00d5 52000000 		.4byte	.LVL19
 1402 00d9 5A000000 		.4byte	.LVL20
 1403 00dd 0100     		.2byte	0x1
 1404 00df 50       		.byte	0x50
 1405 00e0 5A000000 		.4byte	.LVL20
 1406 00e4 70000000 		.4byte	.LVL21
 1407 00e8 0400     		.2byte	0x4
 1408 00ea F3       		.byte	0xf3
 1409 00eb 01       		.uleb128 0x1
 1410 00ec 50       		.byte	0x50
 1411 00ed 9F       		.byte	0x9f
 1412 00ee 70000000 		.4byte	.LVL21
 1413 00f2 73000000 		.4byte	.LVL22-1
 1414 00f6 0100     		.2byte	0x1
ARM GAS  /tmp/ccq1Sx9S.s 			page 26


 1415 00f8 50       		.byte	0x50
 1416 00f9 73000000 		.4byte	.LVL22-1
 1417 00fd 78000000 		.4byte	.LFE8
 1418 0101 0400     		.2byte	0x4
 1419 0103 F3       		.byte	0xf3
 1420 0104 01       		.uleb128 0x1
 1421 0105 50       		.byte	0x50
 1422 0106 9F       		.byte	0x9f
 1423 0107 00000000 		.4byte	0
 1424 010b 00000000 		.4byte	0
 1425              	.LLST4:
 1426 010f 12000000 		.4byte	.LVL15
 1427 0113 70000000 		.4byte	.LVL21
 1428 0117 0100     		.2byte	0x1
 1429 0119 54       		.byte	0x54
 1430 011a 00000000 		.4byte	0
 1431 011e 00000000 		.4byte	0
 1432              	.LLST5:
 1433 0122 00000000 		.4byte	.LVL23
 1434 0126 0C000000 		.4byte	.LVL24
 1435 012a 0100     		.2byte	0x1
 1436 012c 50       		.byte	0x50
 1437 012d 0C000000 		.4byte	.LVL24
 1438 0131 3A000000 		.4byte	.LVL26
 1439 0135 0400     		.2byte	0x4
 1440 0137 F3       		.byte	0xf3
 1441 0138 01       		.uleb128 0x1
 1442 0139 50       		.byte	0x50
 1443 013a 9F       		.byte	0x9f
 1444 013b 3A000000 		.4byte	.LVL26
 1445 013f 3D000000 		.4byte	.LVL27-1
 1446 0143 0100     		.2byte	0x1
 1447 0145 50       		.byte	0x50
 1448 0146 3D000000 		.4byte	.LVL27-1
 1449 014a 40000000 		.4byte	.LFE9
 1450 014e 0400     		.2byte	0x4
 1451 0150 F3       		.byte	0xf3
 1452 0151 01       		.uleb128 0x1
 1453 0152 50       		.byte	0x50
 1454 0153 9F       		.byte	0x9f
 1455 0154 00000000 		.4byte	0
 1456 0158 00000000 		.4byte	0
 1457              	.LLST6:
 1458 015c 00000000 		.4byte	.LVL23
 1459 0160 0C000000 		.4byte	.LVL24
 1460 0164 0100     		.2byte	0x1
 1461 0166 51       		.byte	0x51
 1462 0167 0C000000 		.4byte	.LVL24
 1463 016b 3A000000 		.4byte	.LVL26
 1464 016f 0100     		.2byte	0x1
 1465 0171 54       		.byte	0x54
 1466 0172 3A000000 		.4byte	.LVL26
 1467 0176 3D000000 		.4byte	.LVL27-1
 1468 017a 0100     		.2byte	0x1
 1469 017c 51       		.byte	0x51
 1470 017d 3D000000 		.4byte	.LVL27-1
 1471 0181 40000000 		.4byte	.LFE9
ARM GAS  /tmp/ccq1Sx9S.s 			page 27


 1472 0185 0100     		.2byte	0x1
 1473 0187 54       		.byte	0x54
 1474 0188 00000000 		.4byte	0
 1475 018c 00000000 		.4byte	0
 1476              	.LLST7:
 1477 0190 0C000000 		.4byte	.LVL24
 1478 0194 38000000 		.4byte	.LVL25
 1479 0198 0100     		.2byte	0x1
 1480 019a 54       		.byte	0x54
 1481 019b 00000000 		.4byte	0
 1482 019f 00000000 		.4byte	0
 1483              		.section	.debug_aranges,"",%progbits
 1484 0000 2C000000 		.4byte	0x2c
 1485 0004 0200     		.2byte	0x2
 1486 0006 00000000 		.4byte	.Ldebug_info0
 1487 000a 04       		.byte	0x4
 1488 000b 00       		.byte	0
 1489 000c 0000     		.2byte	0
 1490 000e 0000     		.2byte	0
 1491 0010 00000000 		.4byte	.LFB7
 1492 0014 A4000000 		.4byte	.LFE7-.LFB7
 1493 0018 00000000 		.4byte	.LFB8
 1494 001c 78000000 		.4byte	.LFE8-.LFB8
 1495 0020 00000000 		.4byte	.LFB9
 1496 0024 40000000 		.4byte	.LFE9-.LFB9
 1497 0028 00000000 		.4byte	0
 1498 002c 00000000 		.4byte	0
 1499              		.section	.debug_ranges,"",%progbits
 1500              	.Ldebug_ranges0:
 1501 0000 00000000 		.4byte	.LFB7
 1502 0004 A4000000 		.4byte	.LFE7
 1503 0008 00000000 		.4byte	.LFB8
 1504 000c 78000000 		.4byte	.LFE8
 1505 0010 00000000 		.4byte	.LFB9
 1506 0014 40000000 		.4byte	.LFE9
 1507 0018 00000000 		.4byte	0
 1508 001c 00000000 		.4byte	0
 1509              		.section	.debug_line,"",%progbits
 1510              	.Ldebug_line0:
 1511 0000 C3010000 		.section	.debug_str,"MS",%progbits,1
 1511      02001901 
 1511      00000201 
 1511      FB0E0D00 
 1511      01010101 
 1512              	.LASF57:
 1513 0000 73746174 		.ascii	"stats_\000"
 1513      735F00
 1514              	.LASF69:
 1515 0007 6D656D70 		.ascii	"memp_num\000"
 1515      5F6E756D 
 1515      00
 1516              	.LASF41:
 1517 0010 63686B65 		.ascii	"chkerr\000"
 1517      727200
 1518              	.LASF65:
 1519 0017 6D656D70 		.ascii	"memp_free\000"
 1519      5F667265 
ARM GAS  /tmp/ccq1Sx9S.s 			page 28


 1519      6500
 1520              	.LASF56:
 1521 0021 6D626F78 		.ascii	"mbox\000"
 1521      00
 1522              	.LASF60:
 1523 0026 69705F66 		.ascii	"ip_frag\000"
 1523      72616700 
 1524              	.LASF3:
 1525 002e 73686F72 		.ascii	"short int\000"
 1525      7420696E 
 1525      7400
 1526              	.LASF36:
 1527 0038 6D656D70 		.ascii	"memp_t\000"
 1527      5F7400
 1528              	.LASF25:
 1529 003f 4D454D50 		.ascii	"MEMP_TCP_SEG\000"
 1529      5F544350 
 1529      5F534547 
 1529      00
 1530              	.LASF48:
 1531 004c 73746174 		.ascii	"stats_proto\000"
 1531      735F7072 
 1531      6F746F00 
 1532              	.LASF16:
 1533 0058 73697A65 		.ascii	"sizetype\000"
 1533      74797065 
 1533      00
 1534              	.LASF22:
 1535 0061 4D454D50 		.ascii	"MEMP_UDP_PCB\000"
 1535      5F554450 
 1535      5F504342 
 1535      00
 1536              	.LASF70:
 1537 006e 6D656D70 		.ascii	"memp_memory\000"
 1537      5F6D656D 
 1537      6F727900 
 1538              	.LASF38:
 1539 007a 786D6974 		.ascii	"xmit\000"
 1539      00
 1540              	.LASF8:
 1541 007f 5F5F7569 		.ascii	"__uint32_t\000"
 1541      6E743332 
 1541      5F7400
 1542              	.LASF76:
 1543 008a 706F7274 		.ascii	"port_halt\000"
 1543      5F68616C 
 1543      7400
 1544              	.LASF5:
 1545 0094 5F5F7569 		.ascii	"__uint16_t\000"
 1545      6E743136 
 1545      5F7400
 1546              	.LASF49:
 1547 009f 73746174 		.ascii	"stats_mem\000"
 1547      735F6D65 
 1547      6D00
 1548              	.LASF20:
 1549 00a9 6D656D5F 		.ascii	"mem_ptr_t\000"
ARM GAS  /tmp/ccq1Sx9S.s 			page 29


 1549      7074725F 
 1549      7400
 1550              	.LASF42:
 1551 00b3 6C656E65 		.ascii	"lenerr\000"
 1551      727200
 1552              	.LASF32:
 1553 00ba 4D454D50 		.ascii	"MEMP_SYS_TIMEOUT\000"
 1553      5F535953 
 1553      5F54494D 
 1553      454F5554 
 1553      00
 1554              	.LASF27:
 1555 00cb 4D454D50 		.ascii	"MEMP_FRAG_PBUF\000"
 1555      5F465241 
 1555      475F5042 
 1555      554600
 1556              	.LASF12:
 1557 00da 75696E74 		.ascii	"uint8_t\000"
 1557      385F7400 
 1558              	.LASF47:
 1559 00e2 63616368 		.ascii	"cachehit\000"
 1559      65686974 
 1559      00
 1560              	.LASF24:
 1561 00eb 4D454D50 		.ascii	"MEMP_TCP_PCB_LISTEN\000"
 1561      5F544350 
 1561      5F504342 
 1561      5F4C4953 
 1561      54454E00 
 1562              	.LASF14:
 1563 00ff 75696E74 		.ascii	"uint32_t\000"
 1563      33325F74 
 1563      00
 1564              	.LASF58:
 1565 0108 6C696E6B 		.ascii	"link\000"
 1565      00
 1566              	.LASF10:
 1567 010d 6C6F6E67 		.ascii	"long long int\000"
 1567      206C6F6E 
 1567      6720696E 
 1567      7400
 1568              	.LASF7:
 1569 011b 6C6F6E67 		.ascii	"long int\000"
 1569      20696E74 
 1569      00
 1570              	.LASF64:
 1571 0124 6D656D70 		.ascii	"memp_init\000"
 1571      5F696E69 
 1571      7400
 1572              	.LASF4:
 1573 012e 5F5F7569 		.ascii	"__uint8_t\000"
 1573      6E74385F 
 1573      7400
 1574              	.LASF37:
 1575 0138 6D656D5F 		.ascii	"mem_size_t\000"
 1575      73697A65 
 1575      5F7400
ARM GAS  /tmp/ccq1Sx9S.s 			page 30


 1576              	.LASF43:
 1577 0143 6D656D65 		.ascii	"memerr\000"
 1577      727200
 1578              	.LASF40:
 1579 014a 64726F70 		.ascii	"drop\000"
 1579      00
 1580              	.LASF31:
 1581 014f 4D454D50 		.ascii	"MEMP_TCPIP_MSG_INPKT\000"
 1581      5F544350 
 1581      49505F4D 
 1581      53475F49 
 1581      4E504B54 
 1582              	.LASF2:
 1583 0164 756E7369 		.ascii	"unsigned char\000"
 1583      676E6564 
 1583      20636861 
 1583      7200
 1584              	.LASF35:
 1585 0172 4D454D50 		.ascii	"MEMP_MAX\000"
 1585      5F4D4158 
 1585      00
 1586              	.LASF1:
 1587 017b 7369676E 		.ascii	"signed char\000"
 1587      65642063 
 1587      68617200 
 1588              	.LASF54:
 1589 0187 73746174 		.ascii	"stats_sys\000"
 1589      735F7379 
 1589      7300
 1590              	.LASF11:
 1591 0191 6C6F6E67 		.ascii	"long long unsigned int\000"
 1591      206C6F6E 
 1591      6720756E 
 1591      7369676E 
 1591      65642069 
 1592              	.LASF66:
 1593 01a8 74797065 		.ascii	"type\000"
 1593      00
 1594              	.LASF13:
 1595 01ad 75696E74 		.ascii	"uint16_t\000"
 1595      31365F74 
 1595      00
 1596              	.LASF68:
 1597 01b6 6D656D70 		.ascii	"memp_sizes\000"
 1597      5F73697A 
 1597      657300
 1598              	.LASF46:
 1599 01c1 6F707465 		.ascii	"opterr\000"
 1599      727200
 1600              	.LASF55:
 1601 01c8 6D757465 		.ascii	"mutex\000"
 1601      7800
 1602              	.LASF6:
 1603 01ce 73686F72 		.ascii	"short unsigned int\000"
 1603      7420756E 
 1603      7369676E 
 1603      65642069 
ARM GAS  /tmp/ccq1Sx9S.s 			page 31


 1603      6E7400
 1604              	.LASF26:
 1605 01e1 4D454D50 		.ascii	"MEMP_REASSDATA\000"
 1605      5F524541 
 1605      53534441 
 1605      544100
 1606              	.LASF17:
 1607 01f0 63686172 		.ascii	"char\000"
 1607      00
 1608              	.LASF73:
 1609 01f5 2F686F6D 		.ascii	"/home/caroline/Documents/PAF/ChibiOS_2.6.4/demos/AR"
 1609      652F6361 
 1609      726F6C69 
 1609      6E652F44 
 1609      6F63756D 
 1610 0228 4D434D34 		.ascii	"MCM4-STM32F407-LWIP\000"
 1610      2D53544D 
 1610      33324634 
 1610      30372D4C 
 1610      57495000 
 1611              	.LASF30:
 1612 023c 4D454D50 		.ascii	"MEMP_TCPIP_MSG_API\000"
 1612      5F544350 
 1612      49505F4D 
 1612      53475F41 
 1612      504900
 1613              	.LASF75:
 1614 024f 6C776970 		.ascii	"lwip_stats\000"
 1614      5F737461 
 1614      747300
 1615              	.LASF45:
 1616 025a 70726F74 		.ascii	"proterr\000"
 1616      65727200 
 1617              	.LASF15:
 1618 0262 5F426F6F 		.ascii	"_Bool\000"
 1618      6C00
 1619              	.LASF52:
 1620 0268 696C6C65 		.ascii	"illegal\000"
 1620      67616C00 
 1621              	.LASF33:
 1622 0270 4D454D50 		.ascii	"MEMP_PBUF\000"
 1622      5F504255 
 1622      4600
 1623              	.LASF53:
 1624 027a 73746174 		.ascii	"stats_syselem\000"
 1624      735F7379 
 1624      73656C65 
 1624      6D00
 1625              	.LASF9:
 1626 0288 6C6F6E67 		.ascii	"long unsigned int\000"
 1626      20756E73 
 1626      69676E65 
 1626      6420696E 
 1626      7400
 1627              	.LASF72:
 1628 029a 2E2E2F2E 		.ascii	"../../ext/lwip/src/core/memp.c\000"
 1628      2E2F6578 
ARM GAS  /tmp/ccq1Sx9S.s 			page 32


 1628      742F6C77 
 1628      69702F73 
 1628      72632F63 
 1629              	.LASF62:
 1630 02b9 6D656D70 		.ascii	"memp\000"
 1630      00
 1631              	.LASF21:
 1632 02be 4D454D50 		.ascii	"MEMP_RAW_PCB\000"
 1632      5F524157 
 1632      5F504342 
 1632      00
 1633              	.LASF44:
 1634 02cb 72746572 		.ascii	"rterr\000"
 1634      7200
 1635              	.LASF71:
 1636 02d1 474E5520 		.ascii	"GNU C 4.8.2 -mcpu=cortex-m4 -mno-thumb-interwork -m"
 1636      4320342E 
 1636      382E3220 
 1636      2D6D6370 
 1636      753D636F 
 1637 0304 7468756D 		.ascii	"thumb -ggdb -O2 -std=gnu99 -fomit-frame-pointer -fa"
 1637      62202D67 
 1637      67646220 
 1637      2D4F3220 
 1637      2D737464 
 1638 0337 6C69676E 		.ascii	"lign-functions=16 -ffunction-sections -fdata-sectio"
 1638      2D66756E 
 1638      6374696F 
 1638      6E733D31 
 1638      36202D66 
 1639 036a 6E73202D 		.ascii	"ns -fno-common\000"
 1639      666E6F2D 
 1639      636F6D6D 
 1639      6F6E00
 1640              	.LASF18:
 1641 0379 75385F74 		.ascii	"u8_t\000"
 1641      00
 1642              	.LASF19:
 1643 037e 7531365F 		.ascii	"u16_t\000"
 1643      7400
 1644              	.LASF34:
 1645 0384 4D454D50 		.ascii	"MEMP_PBUF_POOL\000"
 1645      5F504255 
 1645      465F504F 
 1645      4F4C00
 1646              	.LASF51:
 1647 0393 75736564 		.ascii	"used\000"
 1647      00
 1648              	.LASF50:
 1649 0398 61766169 		.ascii	"avail\000"
 1649      6C00
 1650              	.LASF29:
 1651 039e 4D454D50 		.ascii	"MEMP_NETCONN\000"
 1651      5F4E4554 
 1651      434F4E4E 
 1651      00
 1652              	.LASF23:
ARM GAS  /tmp/ccq1Sx9S.s 			page 33


 1653 03ab 4D454D50 		.ascii	"MEMP_TCP_PCB\000"
 1653      5F544350 
 1653      5F504342 
 1653      00
 1654              	.LASF59:
 1655 03b8 65746861 		.ascii	"etharp\000"
 1655      727000
 1656              	.LASF74:
 1657 03bf 6D656D70 		.ascii	"memp_malloc\000"
 1657      5F6D616C 
 1657      6C6F6300 
 1658              	.LASF39:
 1659 03cb 72656376 		.ascii	"recv\000"
 1659      00
 1660              	.LASF0:
 1661 03d0 756E7369 		.ascii	"unsigned int\000"
 1661      676E6564 
 1661      20696E74 
 1661      00
 1662              	.LASF67:
 1663 03dd 6D656D70 		.ascii	"memp_tab\000"
 1663      5F746162 
 1663      00
 1664              	.LASF61:
 1665 03e6 69636D70 		.ascii	"icmp\000"
 1665      00
 1666              	.LASF63:
 1667 03eb 6E657874 		.ascii	"next\000"
 1667      00
 1668              	.LASF28:
 1669 03f0 4D454D50 		.ascii	"MEMP_NETBUF\000"
 1669      5F4E4554 
 1669      42554600 
 1670              		.ident	"GCC: (4.8.2-14ubuntu1+6) 4.8.2"
ARM GAS  /tmp/ccq1Sx9S.s 			page 34


DEFINED SYMBOLS
                            *ABS*:0000000000000000 memp.c
     /tmp/ccq1Sx9S.s:19     .text.memp_init:0000000000000000 $t
     /tmp/ccq1Sx9S.s:25     .text.memp_init:0000000000000000 memp_init
     /tmp/ccq1Sx9S.s:319    .bss.memp_tab:0000000000000000 .LANCHOR2
     /tmp/ccq1Sx9S.s:292    .rodata.memp_num:0000000000000000 .LANCHOR0
     /tmp/ccq1Sx9S.s:326    .rodata.memp_sizes:0000000000000000 .LANCHOR3
     /tmp/ccq1Sx9S.s:135    .text.memp_init:000000000000009c $d
     /tmp/ccq1Sx9S.s:141    .text.memp_malloc:0000000000000000 $t
     /tmp/ccq1Sx9S.s:147    .text.memp_malloc:0000000000000000 memp_malloc
     /tmp/ccq1Sx9S.s:229    .text.memp_free:0000000000000000 $t
     /tmp/ccq1Sx9S.s:235    .text.memp_free:0000000000000000 memp_free
     /tmp/ccq1Sx9S.s:291    .rodata.memp_num:0000000000000000 $d
     /tmp/ccq1Sx9S.s:295    .rodata.memp_num:0000000000000000 memp_num
     /tmp/ccq1Sx9S.s:311    .bss.memp_memory:0000000000000000 $d
     /tmp/ccq1Sx9S.s:315    .bss.memp_memory:0000000000000000 memp_memory
     /tmp/ccq1Sx9S.s:318    .bss.memp_tab:0000000000000000 $d
     /tmp/ccq1Sx9S.s:322    .bss.memp_tab:0000000000000000 memp_tab
     /tmp/ccq1Sx9S.s:325    .rodata.memp_sizes:0000000000000000 $d
     /tmp/ccq1Sx9S.s:329    .rodata.memp_sizes:0000000000000000 memp_sizes
                     .debug_frame:0000000000000010 $d
     /tmp/ccq1Sx9S.s:140    .text.memp_init:00000000000000a4 $t

UNDEFINED SYMBOLS
lwip_stats
port_halt
