ARM GAS  /tmp/ccKiUCdL.s 			page 1


   1              		.syntax unified
   2              		.cpu cortex-m4
   3              		.fpu softvfp
   4              		.eabi_attribute 20, 1
   5              		.eabi_attribute 21, 1
   6              		.eabi_attribute 23, 3
   7              		.eabi_attribute 24, 1
   8              		.eabi_attribute 25, 1
   9              		.eabi_attribute 26, 1
  10              		.eabi_attribute 30, 2
  11              		.eabi_attribute 34, 1
  12              		.eabi_attribute 18, 4
  13              		.thumb
  14              		.file	"netbuf.c"
  15              		.text
  16              	.Ltext0:
  17              		.cfi_sections	.debug_frame
  18              		.section	.text.netbuf_new,"ax",%progbits
  19              		.align	2
  20              		.p2align 4,,15
  21              		.global	netbuf_new
  22              		.thumb
  23              		.thumb_func
  24              		.type	netbuf_new, %function
  25              	netbuf_new:
  26              	.LFB7:
  27              		.file 1 "../../ext/lwip/src/api/netbuf.c"
  28              		.loc 1 57 0
  29              		.cfi_startproc
  30              		@ args = 0, pretend = 0, frame = 0
  31              		@ frame_needed = 0, uses_anonymous_args = 0
  32 0000 08B5     		push	{r3, lr}
  33              		.cfi_def_cfa_offset 8
  34              		.cfi_offset 3, -8
  35              		.cfi_offset 14, -4
  36              		.loc 1 60 0
  37 0002 0720     		movs	r0, #7
  38 0004 FFF7FEFF 		bl	memp_malloc
  39              	.LVL0:
  40              		.loc 1 61 0
  41 0008 20B1     		cbz	r0, .L2
  42              		.loc 1 62 0
  43 000a 0023     		movs	r3, #0
  44 000c 0360     		str	r3, [r0]
  45              		.loc 1 63 0
  46 000e 4360     		str	r3, [r0, #4]
  47              		.loc 1 64 0
  48 0010 8360     		str	r3, [r0, #8]
  49              		.loc 1 65 0
  50 0012 8381     		strh	r3, [r0, #12]	@ movhi
  51              	.L2:
  52              		.loc 1 79 0
  53 0014 08BD     		pop	{r3, pc}
  54              		.cfi_endproc
  55              	.LFE7:
  56              		.size	netbuf_new, .-netbuf_new
  57 0016 00BFAFF3 		.section	.text.netbuf_delete,"ax",%progbits
ARM GAS  /tmp/ccKiUCdL.s 			page 2


  57      0080AFF3 
  57      0080
  58              		.align	2
  59              		.p2align 4,,15
  60              		.global	netbuf_delete
  61              		.thumb
  62              		.thumb_func
  63              		.type	netbuf_delete, %function
  64              	netbuf_delete:
  65              	.LFB8:
  66              		.loc 1 88 0
  67              		.cfi_startproc
  68              		@ args = 0, pretend = 0, frame = 0
  69              		@ frame_needed = 0, uses_anonymous_args = 0
  70              	.LVL1:
  71 0000 10B5     		push	{r4, lr}
  72              		.cfi_def_cfa_offset 8
  73              		.cfi_offset 4, -8
  74              		.cfi_offset 14, -4
  75              		.loc 1 89 0
  76 0002 0446     		mov	r4, r0
  77 0004 60B1     		cbz	r0, .L7
  78              		.loc 1 90 0
  79 0006 0068     		ldr	r0, [r0]
  80              	.LVL2:
  81 0008 20B1     		cbz	r0, .L9
  82              		.loc 1 91 0
  83 000a FFF7FEFF 		bl	pbuf_free
  84              	.LVL3:
  85              		.loc 1 92 0
  86 000e 0023     		movs	r3, #0
  87 0010 6360     		str	r3, [r4, #4]
  88 0012 2360     		str	r3, [r4]
  89              	.L9:
  90              		.loc 1 94 0
  91 0014 2146     		mov	r1, r4
  92 0016 0720     		movs	r0, #7
  93              		.loc 1 96 0
  94 0018 BDE81040 		pop	{r4, lr}
  95              	.LVL4:
  96              		.loc 1 94 0
  97 001c FFF7FEBF 		b	memp_free
  98              	.LVL5:
  99              	.L7:
 100 0020 10BD     		pop	{r4, pc}
 101              		.cfi_endproc
 102              	.LFE8:
 103              		.size	netbuf_delete, .-netbuf_delete
 104 0022 00BFAFF3 		.section	.text.netbuf_alloc,"ax",%progbits
 104      0080AFF3 
 104      0080AFF3 
 104      0080
 105              		.align	2
 106              		.p2align 4,,15
 107              		.global	netbuf_alloc
 108              		.thumb
 109              		.thumb_func
ARM GAS  /tmp/ccKiUCdL.s 			page 3


 110              		.type	netbuf_alloc, %function
 111              	netbuf_alloc:
 112              	.LFB9:
 113              		.loc 1 108 0
 114              		.cfi_startproc
 115              		@ args = 0, pretend = 0, frame = 0
 116              		@ frame_needed = 0, uses_anonymous_args = 0
 117              	.LVL6:
 118 0000 38B5     		push	{r3, r4, r5, lr}
 119              		.cfi_def_cfa_offset 16
 120              		.cfi_offset 3, -16
 121              		.cfi_offset 4, -12
 122              		.cfi_offset 5, -8
 123              		.cfi_offset 14, -4
 124              		.loc 1 109 0
 125 0002 0446     		mov	r4, r0
 126              		.loc 1 108 0
 127 0004 0D46     		mov	r5, r1
 128              		.loc 1 109 0
 129 0006 A0B1     		cbz	r0, .L22
 130              		.loc 1 112 0
 131 0008 0068     		ldr	r0, [r0]
 132              	.LVL7:
 133 000a 08B1     		cbz	r0, .L16
 134              		.loc 1 113 0
 135 000c FFF7FEFF 		bl	pbuf_free
 136              	.LVL8:
 137              	.L16:
 138              		.loc 1 115 0
 139 0010 0020     		movs	r0, #0
 140 0012 0246     		mov	r2, r0
 141 0014 2946     		mov	r1, r5
 142 0016 FFF7FEFF 		bl	pbuf_alloc
 143              	.LVL9:
 144 001a 2060     		str	r0, [r4]
 145              		.loc 1 116 0
 146 001c 20B1     		cbz	r0, .L15
 147              		.loc 1 119 0
 148 001e 4289     		ldrh	r2, [r0, #10]
 149 0020 AA42     		cmp	r2, r5
 150 0022 02D3     		bcc	.L23
 151              	.L17:
 152              		.loc 1 121 0
 153 0024 6060     		str	r0, [r4, #4]
 154              		.loc 1 122 0
 155 0026 4068     		ldr	r0, [r0, #4]
 156              	.L15:
 157              		.loc 1 123 0
 158 0028 38BD     		pop	{r3, r4, r5, pc}
 159              	.LVL10:
 160              	.L23:
 161              		.loc 1 119 0 discriminator 1
 162 002a FFF7FEFF 		bl	port_halt
 163              	.LVL11:
 164 002e 2068     		ldr	r0, [r4]
 165 0030 F8E7     		b	.L17
 166              	.LVL12:
ARM GAS  /tmp/ccKiUCdL.s 			page 4


 167              	.L22:
 168              		.loc 1 109 0 discriminator 1
 169 0032 FFF7FEFF 		bl	port_halt
 170              	.LVL13:
 171 0036 2046     		mov	r0, r4
 172 0038 38BD     		pop	{r3, r4, r5, pc}
 173              		.cfi_endproc
 174              	.LFE9:
 175              		.size	netbuf_alloc, .-netbuf_alloc
 176 003a 00BFAFF3 		.section	.text.netbuf_free,"ax",%progbits
 176      0080
 177              		.align	2
 178              		.p2align 4,,15
 179              		.global	netbuf_free
 180              		.thumb
 181              		.thumb_func
 182              		.type	netbuf_free, %function
 183              	netbuf_free:
 184              	.LFB10:
 185              		.loc 1 132 0
 186              		.cfi_startproc
 187              		@ args = 0, pretend = 0, frame = 0
 188              		@ frame_needed = 0, uses_anonymous_args = 0
 189              	.LVL14:
 190 0000 10B5     		push	{r4, lr}
 191              		.cfi_def_cfa_offset 8
 192              		.cfi_offset 4, -8
 193              		.cfi_offset 14, -4
 194              		.loc 1 133 0
 195 0002 0446     		mov	r4, r0
 196 0004 38B1     		cbz	r0, .L30
 197              		.loc 1 134 0
 198 0006 0068     		ldr	r0, [r0]
 199              	.LVL15:
 200 0008 08B1     		cbz	r0, .L26
 201              		.loc 1 135 0
 202 000a FFF7FEFF 		bl	pbuf_free
 203              	.LVL16:
 204              	.L26:
 205              		.loc 1 137 0
 206 000e 0023     		movs	r3, #0
 207 0010 6360     		str	r3, [r4, #4]
 208 0012 2360     		str	r3, [r4]
 209 0014 10BD     		pop	{r4, pc}
 210              	.LVL17:
 211              	.L30:
 212              		.loc 1 138 0 discriminator 1
 213 0016 BDE81040 		pop	{r4, lr}
 214              		.loc 1 133 0 discriminator 1
 215 001a FFF7FEBF 		b	port_halt
 216              	.LVL18:
 217              		.cfi_endproc
 218              	.LFE10:
 219              		.size	netbuf_free, .-netbuf_free
 220 001e 00BF     		.section	.text.netbuf_ref,"ax",%progbits
 221              		.align	2
 222              		.p2align 4,,15
ARM GAS  /tmp/ccKiUCdL.s 			page 5


 223              		.global	netbuf_ref
 224              		.thumb
 225              		.thumb_func
 226              		.type	netbuf_ref, %function
 227              	netbuf_ref:
 228              	.LFB11:
 229              		.loc 1 151 0
 230              		.cfi_startproc
 231              		@ args = 0, pretend = 0, frame = 0
 232              		@ frame_needed = 0, uses_anonymous_args = 0
 233              	.LVL19:
 234 0000 70B5     		push	{r4, r5, r6, lr}
 235              		.cfi_def_cfa_offset 16
 236              		.cfi_offset 4, -16
 237              		.cfi_offset 5, -12
 238              		.cfi_offset 6, -8
 239              		.cfi_offset 14, -4
 240              		.loc 1 152 0
 241 0002 0446     		mov	r4, r0
 242              		.loc 1 151 0
 243 0004 0E46     		mov	r6, r1
 244 0006 1546     		mov	r5, r2
 245              		.loc 1 152 0
 246 0008 A8B1     		cbz	r0, .L39
 247              		.loc 1 153 0
 248 000a 0068     		ldr	r0, [r0]
 249              	.LVL20:
 250 000c 08B1     		cbz	r0, .L34
 251              		.loc 1 154 0
 252 000e FFF7FEFF 		bl	pbuf_free
 253              	.LVL21:
 254              	.L34:
 255              		.loc 1 156 0
 256 0012 0020     		movs	r0, #0
 257 0014 0146     		mov	r1, r0
 258 0016 0222     		movs	r2, #2
 259 0018 FFF7FEFF 		bl	pbuf_alloc
 260              	.LVL22:
 261 001c 0346     		mov	r3, r0
 262 001e 2060     		str	r0, [r4]
 263              		.loc 1 157 0
 264 0020 30B1     		cbz	r0, .L40
 265              		.loc 1 161 0
 266 0022 4660     		str	r6, [r0, #4]
 267              		.loc 1 162 0
 268 0024 0581     		strh	r5, [r0, #8]	@ movhi
 269 0026 4581     		strh	r5, [r0, #10]	@ movhi
 270              		.loc 1 164 0
 271 0028 0020     		movs	r0, #0
 272              		.loc 1 163 0
 273 002a 6360     		str	r3, [r4, #4]
 274              	.L33:
 275              		.loc 1 165 0
 276 002c 40B2     		sxtb	r0, r0
 277 002e 70BD     		pop	{r4, r5, r6, pc}
 278              	.LVL23:
 279              	.L40:
ARM GAS  /tmp/ccKiUCdL.s 			page 6


 280              		.loc 1 158 0
 281 0030 6060     		str	r0, [r4, #4]
 282              		.loc 1 159 0
 283 0032 FF20     		movs	r0, #255
 284 0034 FAE7     		b	.L33
 285              	.LVL24:
 286              	.L39:
 287              		.loc 1 152 0 discriminator 1
 288 0036 FFF7FEFF 		bl	port_halt
 289              	.LVL25:
 290 003a F220     		movs	r0, #242
 291 003c F6E7     		b	.L33
 292              		.cfi_endproc
 293              	.LFE11:
 294              		.size	netbuf_ref, .-netbuf_ref
 295 003e 00BF     		.section	.text.netbuf_chain,"ax",%progbits
 296              		.align	2
 297              		.p2align 4,,15
 298              		.global	netbuf_chain
 299              		.thumb
 300              		.thumb_func
 301              		.type	netbuf_chain, %function
 302              	netbuf_chain:
 303              	.LFB12:
 304              		.loc 1 175 0
 305              		.cfi_startproc
 306              		@ args = 0, pretend = 0, frame = 0
 307              		@ frame_needed = 0, uses_anonymous_args = 0
 308              	.LVL26:
 309 0000 38B5     		push	{r3, r4, r5, lr}
 310              		.cfi_def_cfa_offset 16
 311              		.cfi_offset 3, -16
 312              		.cfi_offset 4, -12
 313              		.cfi_offset 5, -8
 314              		.cfi_offset 14, -4
 315              		.loc 1 176 0
 316 0002 0446     		mov	r4, r0
 317              		.loc 1 175 0
 318 0004 0D46     		mov	r5, r1
 319              		.loc 1 176 0
 320 0006 60B1     		cbz	r0, .L43
 321              		.loc 1 177 0
 322 0008 59B1     		cbz	r1, .L43
 323              		.loc 1 178 0
 324 000a 0068     		ldr	r0, [r0]
 325              	.LVL27:
 326 000c 0968     		ldr	r1, [r1]
 327              	.LVL28:
 328 000e FFF7FEFF 		bl	pbuf_cat
 329              	.LVL29:
 330              		.loc 1 179 0
 331 0012 2368     		ldr	r3, [r4]
 332              		.loc 1 180 0
 333 0014 2946     		mov	r1, r5
 334              		.loc 1 179 0
 335 0016 6360     		str	r3, [r4, #4]
 336              		.loc 1 180 0
ARM GAS  /tmp/ccKiUCdL.s 			page 7


 337 0018 0720     		movs	r0, #7
 338              		.loc 1 181 0
 339 001a BDE83840 		pop	{r3, r4, r5, lr}
 340              	.LVL30:
 341              		.loc 1 180 0
 342 001e FFF7FEBF 		b	memp_free
 343              	.LVL31:
 344              	.L43:
 345              		.loc 1 181 0 discriminator 1
 346 0022 BDE83840 		pop	{r3, r4, r5, lr}
 347              		.loc 1 176 0 discriminator 1
 348 0026 FFF7FEBF 		b	port_halt
 349              	.LVL32:
 350              		.cfi_endproc
 351              	.LFE12:
 352              		.size	netbuf_chain, .-netbuf_chain
 353              		.section	.text.netbuf_data,"ax",%progbits
 354              		.align	2
 355              		.p2align 4,,15
 356              		.global	netbuf_data
 357              		.thumb
 358              		.thumb_func
 359              		.type	netbuf_data, %function
 360              	netbuf_data:
 361              	.LFB13:
 362              		.loc 1 194 0
 363              		.cfi_startproc
 364              		@ args = 0, pretend = 0, frame = 0
 365              		@ frame_needed = 0, uses_anonymous_args = 0
 366              	.LVL33:
 367 0000 08B5     		push	{r3, lr}
 368              		.cfi_def_cfa_offset 8
 369              		.cfi_offset 3, -8
 370              		.cfi_offset 14, -4
 371              		.loc 1 195 0
 372 0002 58B1     		cbz	r0, .L50
 373              		.loc 1 196 0
 374 0004 51B1     		cbz	r1, .L50
 375              		.loc 1 197 0
 376 0006 4AB1     		cbz	r2, .L50
 377              		.loc 1 199 0
 378 0008 4368     		ldr	r3, [r0, #4]
 379 000a 5BB1     		cbz	r3, .L51
 380              		.loc 1 202 0
 381 000c 5B68     		ldr	r3, [r3, #4]
 382 000e 0B60     		str	r3, [r1]
 383              		.loc 1 203 0
 384 0010 4368     		ldr	r3, [r0, #4]
 385 0012 5B89     		ldrh	r3, [r3, #10]
 386              		.loc 1 204 0
 387 0014 0020     		movs	r0, #0
 388              	.LVL34:
 389              		.loc 1 203 0
 390 0016 1380     		strh	r3, [r2]	@ movhi
 391              	.LVL35:
 392              	.L49:
 393              		.loc 1 205 0
ARM GAS  /tmp/ccKiUCdL.s 			page 8


 394 0018 40B2     		sxtb	r0, r0
 395 001a 08BD     		pop	{r3, pc}
 396              	.LVL36:
 397              	.L50:
 398              		.loc 1 195 0 discriminator 1
 399 001c FFF7FEFF 		bl	port_halt
 400              	.LVL37:
 401 0020 F220     		movs	r0, #242
 402 0022 F9E7     		b	.L49
 403              	.LVL38:
 404              	.L51:
 405              		.loc 1 200 0
 406 0024 FE20     		movs	r0, #254
 407              	.LVL39:
 408 0026 F7E7     		b	.L49
 409              		.cfi_endproc
 410              	.LFE13:
 411              		.size	netbuf_data, .-netbuf_data
 412 0028 AFF30080 		.section	.text.netbuf_next,"ax",%progbits
 412      AFF30080 
 413              		.align	2
 414              		.p2align 4,,15
 415              		.global	netbuf_next
 416              		.thumb
 417              		.thumb_func
 418              		.type	netbuf_next, %function
 419              	netbuf_next:
 420              	.LFB14:
 421              		.loc 1 219 0
 422              		.cfi_startproc
 423              		@ args = 0, pretend = 0, frame = 0
 424              		@ frame_needed = 0, uses_anonymous_args = 0
 425              	.LVL40:
 426 0000 08B5     		push	{r3, lr}
 427              		.cfi_def_cfa_offset 8
 428              		.cfi_offset 3, -8
 429              		.cfi_offset 14, -4
 430              		.loc 1 220 0
 431 0002 60B1     		cbz	r0, .L62
 432              		.loc 1 221 0
 433 0004 4368     		ldr	r3, [r0, #4]
 434 0006 1B68     		ldr	r3, [r3]
 435 0008 3BB1     		cbz	r3, .L61
 436              		.loc 1 225 0
 437 000a 1A68     		ldr	r2, [r3]
 438              		.loc 1 224 0
 439 000c 4360     		str	r3, [r0, #4]
 440              		.loc 1 220 0
 441 000e D2F10100 		rsbs	r0, r2, #1
 442              	.LVL41:
 443 0012 38BF     		it	cc
 444 0014 0020     		movcc	r0, #0
 445              	.L60:
 446              		.loc 1 229 0
 447 0016 40B2     		sxtb	r0, r0
 448 0018 08BD     		pop	{r3, pc}
 449              	.LVL42:
ARM GAS  /tmp/ccKiUCdL.s 			page 9


 450              	.L61:
 451              		.loc 1 222 0
 452 001a FF20     		movs	r0, #255
 453              	.LVL43:
 454 001c FBE7     		b	.L60
 455              	.LVL44:
 456              	.L62:
 457              		.loc 1 220 0 discriminator 1
 458 001e FFF7FEFF 		bl	port_halt
 459              	.LVL45:
 460 0022 FF20     		movs	r0, #255
 461 0024 F7E7     		b	.L60
 462              		.cfi_endproc
 463              	.LFE14:
 464              		.size	netbuf_next, .-netbuf_next
 465 0026 00BFAFF3 		.section	.text.netbuf_first,"ax",%progbits
 465      0080AFF3 
 465      0080
 466              		.align	2
 467              		.p2align 4,,15
 468              		.global	netbuf_first
 469              		.thumb
 470              		.thumb_func
 471              		.type	netbuf_first, %function
 472              	netbuf_first:
 473              	.LFB15:
 474              		.loc 1 240 0
 475              		.cfi_startproc
 476              		@ args = 0, pretend = 0, frame = 0
 477              		@ frame_needed = 0, uses_anonymous_args = 0
 478              		@ link register save eliminated.
 479              	.LVL46:
 480              		.loc 1 241 0
 481 0000 10B1     		cbz	r0, .L65
 482              		.loc 1 242 0
 483 0002 0368     		ldr	r3, [r0]
 484 0004 4360     		str	r3, [r0, #4]
 485 0006 7047     		bx	lr
 486              	.L65:
 487              		.loc 1 241 0 discriminator 1
 488 0008 FFF7FEBF 		b	port_halt
 489              	.LVL47:
 490              		.cfi_endproc
 491              	.LFE15:
 492              		.size	netbuf_first, .-netbuf_first
 493 000c AFF30080 		.text
 494              	.Letext0:
 495              		.file 2 "/usr/include/newlib/machine/_default_types.h"
 496              		.file 3 "/usr/include/newlib/stdint.h"
 497              		.file 4 "../../os/various/lwip_bindings/arch/cc.h"
 498              		.file 5 "../../ext/lwip/src/include/lwip/err.h"
 499              		.file 6 "../../ext/lwip/src/include/lwip/pbuf.h"
 500              		.file 7 "../../ext/lwip/src/include/ipv4/lwip/ip_addr.h"
 501              		.file 8 "../../ext/lwip/src/include/lwip/netbuf.h"
 502              		.file 9 "../../ext/lwip/src/include/lwip/memp.h"
 503              		.file 10 "../../os/ports/GCC/ARMCMx/chcore_v7m.h"
 504              		.section	.debug_info,"",%progbits
ARM GAS  /tmp/ccKiUCdL.s 			page 10


 505              	.Ldebug_info0:
 506 0000 D4050000 		.4byte	0x5d4
 507 0004 0400     		.2byte	0x4
 508 0006 00000000 		.4byte	.Ldebug_abbrev0
 509 000a 04       		.byte	0x4
 510 000b 01       		.uleb128 0x1
 511 000c FB020000 		.4byte	.LASF78
 512 0010 01       		.byte	0x1
 513 0011 00000000 		.4byte	.LASF79
 514 0015 01020000 		.4byte	.LASF80
 515 0019 00000000 		.4byte	.Ldebug_ranges0+0
 516 001d 00000000 		.4byte	0
 517 0021 00000000 		.4byte	.Ldebug_line0
 518 0025 02       		.uleb128 0x2
 519 0026 04       		.byte	0x4
 520 0027 05       		.byte	0x5
 521 0028 696E7400 		.ascii	"int\000"
 522 002c 03       		.uleb128 0x3
 523 002d 04       		.byte	0x4
 524 002e 07       		.byte	0x7
 525 002f A7010000 		.4byte	.LASF0
 526 0033 04       		.uleb128 0x4
 527 0034 E1010000 		.4byte	.LASF2
 528 0038 02       		.byte	0x2
 529 0039 1B       		.byte	0x1b
 530 003a 3E000000 		.4byte	0x3e
 531 003e 03       		.uleb128 0x3
 532 003f 01       		.byte	0x1
 533 0040 06       		.byte	0x6
 534 0041 75010000 		.4byte	.LASF1
 535 0045 04       		.uleb128 0x4
 536 0046 46010000 		.4byte	.LASF3
 537 004a 02       		.byte	0x2
 538 004b 1C       		.byte	0x1c
 539 004c 50000000 		.4byte	0x50
 540 0050 03       		.uleb128 0x3
 541 0051 01       		.byte	0x1
 542 0052 08       		.byte	0x8
 543 0053 59010000 		.4byte	.LASF4
 544 0057 03       		.uleb128 0x3
 545 0058 02       		.byte	0x2
 546 0059 05       		.byte	0x5
 547 005a 61000000 		.4byte	.LASF5
 548 005e 04       		.uleb128 0x4
 549 005f 9D000000 		.4byte	.LASF6
 550 0063 02       		.byte	0x2
 551 0064 26       		.byte	0x26
 552 0065 69000000 		.4byte	0x69
 553 0069 03       		.uleb128 0x3
 554 006a 02       		.byte	0x2
 555 006b 07       		.byte	0x7
 556 006c 5B020000 		.4byte	.LASF7
 557 0070 03       		.uleb128 0x3
 558 0071 04       		.byte	0x4
 559 0072 05       		.byte	0x5
 560 0073 2E010000 		.4byte	.LASF8
 561 0077 04       		.uleb128 0x4
ARM GAS  /tmp/ccKiUCdL.s 			page 11


 562 0078 88000000 		.4byte	.LASF9
 563 007c 02       		.byte	0x2
 564 007d 38       		.byte	0x38
 565 007e 82000000 		.4byte	0x82
 566 0082 03       		.uleb128 0x3
 567 0083 04       		.byte	0x4
 568 0084 07       		.byte	0x7
 569 0085 BF020000 		.4byte	.LASF10
 570 0089 03       		.uleb128 0x3
 571 008a 08       		.byte	0x8
 572 008b 05       		.byte	0x5
 573 008c FD000000 		.4byte	.LASF11
 574 0090 03       		.uleb128 0x3
 575 0091 08       		.byte	0x8
 576 0092 07       		.byte	0x7
 577 0093 87010000 		.4byte	.LASF12
 578 0097 04       		.uleb128 0x4
 579 0098 40000000 		.4byte	.LASF13
 580 009c 03       		.byte	0x3
 581 009d 29       		.byte	0x29
 582 009e 33000000 		.4byte	0x33
 583 00a2 04       		.uleb128 0x4
 584 00a3 AE030000 		.4byte	.LASF14
 585 00a7 03       		.byte	0x3
 586 00a8 2A       		.byte	0x2a
 587 00a9 45000000 		.4byte	0x45
 588 00ad 04       		.uleb128 0x4
 589 00ae B4010000 		.4byte	.LASF15
 590 00b2 03       		.byte	0x3
 591 00b3 36       		.byte	0x36
 592 00b4 5E000000 		.4byte	0x5e
 593 00b8 04       		.uleb128 0x4
 594 00b9 9E010000 		.4byte	.LASF16
 595 00bd 03       		.byte	0x3
 596 00be 42       		.byte	0x42
 597 00bf 77000000 		.4byte	0x77
 598 00c3 03       		.uleb128 0x3
 599 00c4 01       		.byte	0x1
 600 00c5 02       		.byte	0x2
 601 00c6 79020000 		.4byte	.LASF17
 602 00ca 05       		.uleb128 0x5
 603 00cb 04       		.byte	0x4
 604 00cc 03       		.uleb128 0x3
 605 00cd 04       		.byte	0x4
 606 00ce 07       		.byte	0x7
 607 00cf 7F000000 		.4byte	.LASF18
 608 00d3 03       		.uleb128 0x3
 609 00d4 01       		.byte	0x1
 610 00d5 08       		.byte	0x8
 611 00d6 FC010000 		.4byte	.LASF19
 612 00da 04       		.uleb128 0x4
 613 00db A3030000 		.4byte	.LASF20
 614 00df 04       		.byte	0x4
 615 00e0 38       		.byte	0x38
 616 00e1 A2000000 		.4byte	0xa2
 617 00e5 04       		.uleb128 0x4
 618 00e6 F3000000 		.4byte	.LASF21
ARM GAS  /tmp/ccKiUCdL.s 			page 12


 619 00ea 04       		.byte	0x4
 620 00eb 39       		.byte	0x39
 621 00ec 97000000 		.4byte	0x97
 622 00f0 04       		.uleb128 0x4
 623 00f1 B6030000 		.4byte	.LASF22
 624 00f5 04       		.byte	0x4
 625 00f6 3A       		.byte	0x3a
 626 00f7 AD000000 		.4byte	0xad
 627 00fb 04       		.uleb128 0x4
 628 00fc A8030000 		.4byte	.LASF23
 629 0100 04       		.byte	0x4
 630 0101 3C       		.byte	0x3c
 631 0102 B8000000 		.4byte	0xb8
 632 0106 04       		.uleb128 0x4
 633 0107 F6010000 		.4byte	.LASF24
 634 010b 05       		.byte	0x5
 635 010c 2F       		.byte	0x2f
 636 010d E5000000 		.4byte	0xe5
 637 0111 06       		.uleb128 0x6
 638 0112 01       		.byte	0x1
 639 0113 06       		.byte	0x6
 640 0114 32       		.byte	0x32
 641 0115 32010000 		.4byte	0x132
 642 0119 07       		.uleb128 0x7
 643 011a 96020000 		.4byte	.LASF25
 644 011e 00       		.sleb128 0
 645 011f 07       		.uleb128 0x7
 646 0120 A5020000 		.4byte	.LASF26
 647 0124 01       		.sleb128 1
 648 0125 07       		.uleb128 0x7
 649 0126 54040000 		.4byte	.LASF27
 650 012a 02       		.sleb128 2
 651 012b 07       		.uleb128 0x7
 652 012c DB000000 		.4byte	.LASF28
 653 0130 03       		.sleb128 3
 654 0131 00       		.byte	0
 655 0132 04       		.uleb128 0x4
 656 0133 BD010000 		.4byte	.LASF29
 657 0137 06       		.byte	0x6
 658 0138 37       		.byte	0x37
 659 0139 11010000 		.4byte	0x111
 660 013d 06       		.uleb128 0x6
 661 013e 01       		.byte	0x1
 662 013f 06       		.byte	0x6
 663 0140 39       		.byte	0x39
 664 0141 5E010000 		.4byte	0x15e
 665 0145 07       		.uleb128 0x7
 666 0146 BE000000 		.4byte	.LASF30
 667 014a 00       		.sleb128 0
 668 014b 07       		.uleb128 0x7
 669 014c 32040000 		.4byte	.LASF31
 670 0150 01       		.sleb128 1
 671 0151 07       		.uleb128 0x7
 672 0152 21040000 		.4byte	.LASF32
 673 0156 02       		.sleb128 2
 674 0157 07       		.uleb128 0x7
 675 0158 C8010000 		.4byte	.LASF33
ARM GAS  /tmp/ccKiUCdL.s 			page 13


 676 015c 03       		.sleb128 3
 677 015d 00       		.byte	0
 678 015e 04       		.uleb128 0x4
 679 015f D1020000 		.4byte	.LASF34
 680 0163 06       		.byte	0x6
 681 0164 3E       		.byte	0x3e
 682 0165 3D010000 		.4byte	0x13d
 683 0169 08       		.uleb128 0x8
 684 016a 29010000 		.4byte	.LASF40
 685 016e 10       		.byte	0x10
 686 016f 06       		.byte	0x6
 687 0170 4F       		.byte	0x4f
 688 0171 CA010000 		.4byte	0x1ca
 689 0175 09       		.uleb128 0x9
 690 0176 43040000 		.4byte	.LASF35
 691 017a 06       		.byte	0x6
 692 017b 51       		.byte	0x51
 693 017c CA010000 		.4byte	0x1ca
 694 0180 00       		.byte	0
 695 0181 09       		.uleb128 0x9
 696 0182 3B040000 		.4byte	.LASF36
 697 0186 06       		.byte	0x6
 698 0187 54       		.byte	0x54
 699 0188 CA000000 		.4byte	0xca
 700 018c 04       		.byte	0x4
 701 018d 09       		.uleb128 0x9
 702 018e F3030000 		.4byte	.LASF37
 703 0192 06       		.byte	0x6
 704 0193 5D       		.byte	0x5d
 705 0194 F0000000 		.4byte	0xf0
 706 0198 08       		.byte	0x8
 707 0199 0A       		.uleb128 0xa
 708 019a 6C656E00 		.ascii	"len\000"
 709 019e 06       		.byte	0x6
 710 019f 60       		.byte	0x60
 711 01a0 F0000000 		.4byte	0xf0
 712 01a4 0A       		.byte	0xa
 713 01a5 09       		.uleb128 0x9
 714 01a6 F8000000 		.4byte	.LASF38
 715 01aa 06       		.byte	0x6
 716 01ab 63       		.byte	0x63
 717 01ac DA000000 		.4byte	0xda
 718 01b0 0C       		.byte	0xc
 719 01b1 09       		.uleb128 0x9
 720 01b2 81010000 		.4byte	.LASF39
 721 01b6 06       		.byte	0x6
 722 01b7 66       		.byte	0x66
 723 01b8 DA000000 		.4byte	0xda
 724 01bc 0D       		.byte	0xd
 725 01bd 0A       		.uleb128 0xa
 726 01be 72656600 		.ascii	"ref\000"
 727 01c2 06       		.byte	0x6
 728 01c3 6D       		.byte	0x6d
 729 01c4 F0000000 		.4byte	0xf0
 730 01c8 0E       		.byte	0xe
 731 01c9 00       		.byte	0
 732 01ca 0B       		.uleb128 0xb
ARM GAS  /tmp/ccKiUCdL.s 			page 14


 733 01cb 04       		.byte	0x4
 734 01cc 69010000 		.4byte	0x169
 735 01d0 08       		.uleb128 0x8
 736 01d1 2A040000 		.4byte	.LASF41
 737 01d5 04       		.byte	0x4
 738 01d6 07       		.byte	0x7
 739 01d7 2C       		.byte	0x2c
 740 01d8 E9010000 		.4byte	0x1e9
 741 01dc 09       		.uleb128 0x9
 742 01dd 41010000 		.4byte	.LASF42
 743 01e1 07       		.byte	0x7
 744 01e2 2D       		.byte	0x2d
 745 01e3 FB000000 		.4byte	0xfb
 746 01e7 00       		.byte	0
 747 01e8 00       		.byte	0
 748 01e9 04       		.uleb128 0x4
 749 01ea 37010000 		.4byte	.LASF43
 750 01ee 07       		.byte	0x7
 751 01ef 40       		.byte	0x40
 752 01f0 D0010000 		.4byte	0x1d0
 753 01f4 08       		.uleb128 0x8
 754 01f5 22010000 		.4byte	.LASF44
 755 01f9 10       		.byte	0x10
 756 01fa 08       		.byte	0x8
 757 01fb 30       		.byte	0x30
 758 01fc 2F020000 		.4byte	0x22f
 759 0200 0A       		.uleb128 0xa
 760 0201 7000     		.ascii	"p\000"
 761 0203 08       		.byte	0x8
 762 0204 31       		.byte	0x31
 763 0205 CA010000 		.4byte	0x1ca
 764 0209 00       		.byte	0
 765 020a 0A       		.uleb128 0xa
 766 020b 70747200 		.ascii	"ptr\000"
 767 020f 08       		.byte	0x8
 768 0210 31       		.byte	0x31
 769 0211 CA010000 		.4byte	0x1ca
 770 0215 04       		.byte	0x4
 771 0216 09       		.uleb128 0x9
 772 0217 41010000 		.4byte	.LASF42
 773 021b 08       		.byte	0x8
 774 021c 32       		.byte	0x32
 775 021d E9010000 		.4byte	0x1e9
 776 0221 08       		.byte	0x8
 777 0222 09       		.uleb128 0x9
 778 0223 AD020000 		.4byte	.LASF45
 779 0227 08       		.byte	0x8
 780 0228 33       		.byte	0x33
 781 0229 F0000000 		.4byte	0xf0
 782 022d 0C       		.byte	0xc
 783 022e 00       		.byte	0
 784 022f 06       		.uleb128 0x6
 785 0230 01       		.byte	0x1
 786 0231 09       		.byte	0x9
 787 0232 2B       		.byte	0x2b
 788 0233 92020000 		.4byte	0x292
 789 0237 07       		.uleb128 0x7
ARM GAS  /tmp/ccKiUCdL.s 			page 15


 790 0238 DB020000 		.4byte	.LASF46
 791 023c 00       		.sleb128 0
 792 023d 07       		.uleb128 0x7
 793 023e 14040000 		.4byte	.LASF47
 794 0242 01       		.sleb128 1
 795 0243 07       		.uleb128 0x7
 796 0244 FB030000 		.4byte	.LASF48
 797 0248 02       		.sleb128 2
 798 0249 07       		.uleb128 0x7
 799 024a C7000000 		.4byte	.LASF49
 800 024e 03       		.sleb128 3
 801 024f 07       		.uleb128 0x7
 802 0250 72000000 		.4byte	.LASF50
 803 0254 04       		.sleb128 4
 804 0255 07       		.uleb128 0x7
 805 0256 D2010000 		.4byte	.LASF51
 806 025a 05       		.sleb128 5
 807 025b 07       		.uleb128 0x7
 808 025c E4000000 		.4byte	.LASF52
 809 0260 06       		.sleb128 6
 810 0261 07       		.uleb128 0x7
 811 0262 48040000 		.4byte	.LASF53
 812 0266 07       		.sleb128 7
 813 0267 07       		.uleb128 0x7
 814 0268 54000000 		.4byte	.LASF54
 815 026c 08       		.sleb128 8
 816 026d 07       		.uleb128 0x7
 817 026e 48020000 		.4byte	.LASF55
 818 0272 09       		.sleb128 9
 819 0273 07       		.uleb128 0x7
 820 0274 D6030000 		.4byte	.LASF56
 821 0278 0A       		.sleb128 10
 822 0279 07       		.uleb128 0x7
 823 027a A8000000 		.4byte	.LASF57
 824 027e 0B       		.sleb128 11
 825 027f 07       		.uleb128 0x7
 826 0280 7F020000 		.4byte	.LASF58
 827 0284 0C       		.sleb128 12
 828 0285 07       		.uleb128 0x7
 829 0286 BC030000 		.4byte	.LASF59
 830 028a 0D       		.sleb128 13
 831 028b 07       		.uleb128 0x7
 832 028c 6C010000 		.4byte	.LASF60
 833 0290 0E       		.sleb128 14
 834 0291 00       		.byte	0
 835 0292 04       		.uleb128 0x4
 836 0293 6B000000 		.4byte	.LASF61
 837 0297 09       		.byte	0x9
 838 0298 2F       		.byte	0x2f
 839 0299 2F020000 		.4byte	0x22f
 840 029d 0C       		.uleb128 0xc
 841 029e CB030000 		.4byte	.LASF62
 842 02a2 01       		.byte	0x1
 843 02a3 38       		.byte	0x38
 844 02a4 D3020000 		.4byte	0x2d3
 845 02a8 00000000 		.4byte	.LFB7
 846 02ac 16000000 		.4byte	.LFE7-.LFB7
ARM GAS  /tmp/ccKiUCdL.s 			page 16


 847 02b0 01       		.uleb128 0x1
 848 02b1 9C       		.byte	0x9c
 849 02b2 D3020000 		.4byte	0x2d3
 850 02b6 0D       		.uleb128 0xd
 851 02b7 62756600 		.ascii	"buf\000"
 852 02bb 01       		.byte	0x1
 853 02bc 3A       		.byte	0x3a
 854 02bd D3020000 		.4byte	0x2d3
 855 02c1 01       		.uleb128 0x1
 856 02c2 50       		.byte	0x50
 857 02c3 0E       		.uleb128 0xe
 858 02c4 08000000 		.4byte	.LVL0
 859 02c8 5E050000 		.4byte	0x55e
 860 02cc 0F       		.uleb128 0xf
 861 02cd 01       		.uleb128 0x1
 862 02ce 50       		.byte	0x50
 863 02cf 01       		.uleb128 0x1
 864 02d0 37       		.byte	0x37
 865 02d1 00       		.byte	0
 866 02d2 00       		.byte	0
 867 02d3 0B       		.uleb128 0xb
 868 02d4 04       		.byte	0x4
 869 02d5 F4010000 		.4byte	0x1f4
 870 02d9 10       		.uleb128 0x10
 871 02da ED020000 		.4byte	.LASF65
 872 02de 01       		.byte	0x1
 873 02df 57       		.byte	0x57
 874 02e0 00000000 		.4byte	.LFB8
 875 02e4 22000000 		.4byte	.LFE8-.LFB8
 876 02e8 01       		.uleb128 0x1
 877 02e9 9C       		.byte	0x9c
 878 02ea 1D030000 		.4byte	0x31d
 879 02ee 11       		.uleb128 0x11
 880 02ef 62756600 		.ascii	"buf\000"
 881 02f3 01       		.byte	0x1
 882 02f4 57       		.byte	0x57
 883 02f5 D3020000 		.4byte	0x2d3
 884 02f9 00000000 		.4byte	.LLST0
 885 02fd 12       		.uleb128 0x12
 886 02fe 0E000000 		.4byte	.LVL3
 887 0302 73050000 		.4byte	0x573
 888 0306 13       		.uleb128 0x13
 889 0307 20000000 		.4byte	.LVL5
 890 030b 88050000 		.4byte	0x588
 891 030f 0F       		.uleb128 0xf
 892 0310 01       		.uleb128 0x1
 893 0311 51       		.byte	0x51
 894 0312 03       		.uleb128 0x3
 895 0313 F3       		.byte	0xf3
 896 0314 01       		.uleb128 0x1
 897 0315 50       		.byte	0x50
 898 0316 0F       		.uleb128 0xf
 899 0317 01       		.uleb128 0x1
 900 0318 50       		.byte	0x50
 901 0319 01       		.uleb128 0x1
 902 031a 37       		.byte	0x37
 903 031b 00       		.byte	0
ARM GAS  /tmp/ccKiUCdL.s 			page 17


 904 031c 00       		.byte	0
 905 031d 0C       		.uleb128 0xc
 906 031e 47000000 		.4byte	.LASF63
 907 0322 01       		.byte	0x1
 908 0323 6B       		.byte	0x6b
 909 0324 CA000000 		.4byte	0xca
 910 0328 00000000 		.4byte	.LFB9
 911 032c 3A000000 		.4byte	.LFE9-.LFB9
 912 0330 01       		.uleb128 0x1
 913 0331 9C       		.byte	0x9c
 914 0332 8E030000 		.4byte	0x38e
 915 0336 11       		.uleb128 0x11
 916 0337 62756600 		.ascii	"buf\000"
 917 033b 01       		.byte	0x1
 918 033c 6B       		.byte	0x6b
 919 033d D3020000 		.4byte	0x2d3
 920 0341 42000000 		.4byte	.LLST1
 921 0345 14       		.uleb128 0x14
 922 0346 E8020000 		.4byte	.LASF64
 923 034a 01       		.byte	0x1
 924 034b 6B       		.byte	0x6b
 925 034c F0000000 		.4byte	0xf0
 926 0350 76000000 		.4byte	.LLST2
 927 0354 12       		.uleb128 0x12
 928 0355 10000000 		.4byte	.LVL8
 929 0359 73050000 		.4byte	0x573
 930 035d 15       		.uleb128 0x15
 931 035e 1A000000 		.4byte	.LVL9
 932 0362 9E050000 		.4byte	0x59e
 933 0366 7B030000 		.4byte	0x37b
 934 036a 0F       		.uleb128 0xf
 935 036b 01       		.uleb128 0x1
 936 036c 52       		.byte	0x52
 937 036d 01       		.uleb128 0x1
 938 036e 30       		.byte	0x30
 939 036f 0F       		.uleb128 0xf
 940 0370 01       		.uleb128 0x1
 941 0371 51       		.byte	0x51
 942 0372 02       		.uleb128 0x2
 943 0373 75       		.byte	0x75
 944 0374 00       		.sleb128 0
 945 0375 0F       		.uleb128 0xf
 946 0376 01       		.uleb128 0x1
 947 0377 50       		.byte	0x50
 948 0378 01       		.uleb128 0x1
 949 0379 30       		.byte	0x30
 950 037a 00       		.byte	0
 951 037b 12       		.uleb128 0x12
 952 037c 2E000000 		.4byte	.LVL11
 953 0380 BD050000 		.4byte	0x5bd
 954 0384 12       		.uleb128 0x12
 955 0385 36000000 		.4byte	.LVL13
 956 0389 BD050000 		.4byte	0x5bd
 957 038d 00       		.byte	0
 958 038e 10       		.uleb128 0x10
 959 038f EA010000 		.4byte	.LASF66
 960 0393 01       		.byte	0x1
ARM GAS  /tmp/ccKiUCdL.s 			page 18


 961 0394 83       		.byte	0x83
 962 0395 00000000 		.4byte	.LFB10
 963 0399 1E000000 		.4byte	.LFE10-.LFB10
 964 039d 01       		.uleb128 0x1
 965 039e 9C       		.byte	0x9c
 966 039f C5030000 		.4byte	0x3c5
 967 03a3 11       		.uleb128 0x11
 968 03a4 62756600 		.ascii	"buf\000"
 969 03a8 01       		.byte	0x1
 970 03a9 83       		.byte	0x83
 971 03aa D3020000 		.4byte	0x2d3
 972 03ae B0000000 		.4byte	.LLST3
 973 03b2 12       		.uleb128 0x12
 974 03b3 0E000000 		.4byte	.LVL16
 975 03b7 73050000 		.4byte	0x573
 976 03bb 16       		.uleb128 0x16
 977 03bc 1E000000 		.4byte	.LVL18
 978 03c0 BD050000 		.4byte	0x5bd
 979 03c4 00       		.byte	0
 980 03c5 0C       		.uleb128 0xc
 981 03c6 17010000 		.4byte	.LASF67
 982 03ca 01       		.byte	0x1
 983 03cb 96       		.byte	0x96
 984 03cc 06010000 		.4byte	0x106
 985 03d0 00000000 		.4byte	.LFB11
 986 03d4 3E000000 		.4byte	.LFE11-.LFB11
 987 03d8 01       		.uleb128 0x1
 988 03d9 9C       		.byte	0x9c
 989 03da 3B040000 		.4byte	0x43b
 990 03de 11       		.uleb128 0x11
 991 03df 62756600 		.ascii	"buf\000"
 992 03e3 01       		.byte	0x1
 993 03e4 96       		.byte	0x96
 994 03e5 D3020000 		.4byte	0x2d3
 995 03e9 E7000000 		.4byte	.LLST4
 996 03ed 14       		.uleb128 0x14
 997 03ee EB030000 		.4byte	.LASF68
 998 03f2 01       		.byte	0x1
 999 03f3 96       		.byte	0x96
 1000 03f4 3B040000 		.4byte	0x43b
 1001 03f8 1B010000 		.4byte	.LLST5
 1002 03fc 14       		.uleb128 0x14
 1003 03fd E8020000 		.4byte	.LASF64
 1004 0401 01       		.byte	0x1
 1005 0402 96       		.byte	0x96
 1006 0403 F0000000 		.4byte	0xf0
 1007 0407 4F010000 		.4byte	.LLST6
 1008 040b 12       		.uleb128 0x12
 1009 040c 12000000 		.4byte	.LVL21
 1010 0410 73050000 		.4byte	0x573
 1011 0414 15       		.uleb128 0x15
 1012 0415 1C000000 		.4byte	.LVL22
 1013 0419 9E050000 		.4byte	0x59e
 1014 041d 31040000 		.4byte	0x431
 1015 0421 0F       		.uleb128 0xf
 1016 0422 01       		.uleb128 0x1
 1017 0423 52       		.byte	0x52
ARM GAS  /tmp/ccKiUCdL.s 			page 19


 1018 0424 01       		.uleb128 0x1
 1019 0425 32       		.byte	0x32
 1020 0426 0F       		.uleb128 0xf
 1021 0427 01       		.uleb128 0x1
 1022 0428 51       		.byte	0x51
 1023 0429 01       		.uleb128 0x1
 1024 042a 30       		.byte	0x30
 1025 042b 0F       		.uleb128 0xf
 1026 042c 01       		.uleb128 0x1
 1027 042d 50       		.byte	0x50
 1028 042e 01       		.uleb128 0x1
 1029 042f 30       		.byte	0x30
 1030 0430 00       		.byte	0
 1031 0431 12       		.uleb128 0x12
 1032 0432 3A000000 		.4byte	.LVL25
 1033 0436 BD050000 		.4byte	0x5bd
 1034 043a 00       		.byte	0
 1035 043b 0B       		.uleb128 0xb
 1036 043c 04       		.byte	0x4
 1037 043d 41040000 		.4byte	0x441
 1038 0441 17       		.uleb128 0x17
 1039 0442 10       		.uleb128 0x10
 1040 0443 89020000 		.4byte	.LASF69
 1041 0447 01       		.byte	0x1
 1042 0448 AE       		.byte	0xae
 1043 0449 00000000 		.4byte	.LFB12
 1044 044d 2A000000 		.4byte	.LFE12-.LFB12
 1045 0451 01       		.uleb128 0x1
 1046 0452 9C       		.byte	0x9c
 1047 0453 A2040000 		.4byte	0x4a2
 1048 0457 14       		.uleb128 0x14
 1049 0458 B9000000 		.4byte	.LASF70
 1050 045c 01       		.byte	0x1
 1051 045d AE       		.byte	0xae
 1052 045e D3020000 		.4byte	0x2d3
 1053 0462 89010000 		.4byte	.LLST7
 1054 0466 14       		.uleb128 0x14
 1055 0467 67010000 		.4byte	.LASF71
 1056 046b 01       		.byte	0x1
 1057 046c AE       		.byte	0xae
 1058 046d D3020000 		.4byte	0x2d3
 1059 0471 CE010000 		.4byte	.LLST8
 1060 0475 12       		.uleb128 0x12
 1061 0476 12000000 		.4byte	.LVL29
 1062 047a C5050000 		.4byte	0x5c5
 1063 047e 18       		.uleb128 0x18
 1064 047f 22000000 		.4byte	.LVL31
 1065 0483 88050000 		.4byte	0x588
 1066 0487 98040000 		.4byte	0x498
 1067 048b 0F       		.uleb128 0xf
 1068 048c 01       		.uleb128 0x1
 1069 048d 51       		.byte	0x51
 1070 048e 03       		.uleb128 0x3
 1071 048f F3       		.byte	0xf3
 1072 0490 01       		.uleb128 0x1
 1073 0491 51       		.byte	0x51
 1074 0492 0F       		.uleb128 0xf
ARM GAS  /tmp/ccKiUCdL.s 			page 20


 1075 0493 01       		.uleb128 0x1
 1076 0494 50       		.byte	0x50
 1077 0495 01       		.uleb128 0x1
 1078 0496 37       		.byte	0x37
 1079 0497 00       		.byte	0
 1080 0498 16       		.uleb128 0x16
 1081 0499 2A000000 		.4byte	.LVL32
 1082 049d BD050000 		.4byte	0x5bd
 1083 04a1 00       		.byte	0
 1084 04a2 0C       		.uleb128 0xc
 1085 04a3 34000000 		.4byte	.LASF72
 1086 04a7 01       		.byte	0x1
 1087 04a8 C1       		.byte	0xc1
 1088 04a9 06010000 		.4byte	0x106
 1089 04ad 00000000 		.4byte	.LFB13
 1090 04b1 28000000 		.4byte	.LFE13-.LFB13
 1091 04b5 01       		.uleb128 0x1
 1092 04b6 9C       		.byte	0x9c
 1093 04b7 F2040000 		.4byte	0x4f2
 1094 04bb 11       		.uleb128 0x11
 1095 04bc 62756600 		.ascii	"buf\000"
 1096 04c0 01       		.byte	0x1
 1097 04c1 C1       		.byte	0xc1
 1098 04c2 D3020000 		.4byte	0x2d3
 1099 04c6 1E020000 		.4byte	.LLST9
 1100 04ca 14       		.uleb128 0x14
 1101 04cb EB030000 		.4byte	.LASF68
 1102 04cf 01       		.byte	0x1
 1103 04d0 C1       		.byte	0xc1
 1104 04d1 F2040000 		.4byte	0x4f2
 1105 04d5 71020000 		.4byte	.LLST10
 1106 04d9 11       		.uleb128 0x11
 1107 04da 6C656E00 		.ascii	"len\000"
 1108 04de 01       		.byte	0x1
 1109 04df C1       		.byte	0xc1
 1110 04e0 F8040000 		.4byte	0x4f8
 1111 04e4 B6020000 		.4byte	.LLST11
 1112 04e8 12       		.uleb128 0x12
 1113 04e9 20000000 		.4byte	.LVL37
 1114 04ed BD050000 		.4byte	0x5bd
 1115 04f1 00       		.byte	0
 1116 04f2 0B       		.uleb128 0xb
 1117 04f3 04       		.byte	0x4
 1118 04f4 CA000000 		.4byte	0xca
 1119 04f8 0B       		.uleb128 0xb
 1120 04f9 04       		.byte	0x4
 1121 04fa F0000000 		.4byte	0xf0
 1122 04fe 0C       		.uleb128 0xc
 1123 04ff 0B010000 		.4byte	.LASF73
 1124 0503 01       		.byte	0x1
 1125 0504 DA       		.byte	0xda
 1126 0505 E5000000 		.4byte	0xe5
 1127 0509 00000000 		.4byte	.LFB14
 1128 050d 26000000 		.4byte	.LFE14-.LFB14
 1129 0511 01       		.uleb128 0x1
 1130 0512 9C       		.byte	0x9c
 1131 0513 30050000 		.4byte	0x530
ARM GAS  /tmp/ccKiUCdL.s 			page 21


 1132 0517 11       		.uleb128 0x11
 1133 0518 62756600 		.ascii	"buf\000"
 1134 051c 01       		.byte	0x1
 1135 051d DA       		.byte	0xda
 1136 051e D3020000 		.4byte	0x2d3
 1137 0522 FB020000 		.4byte	.LLST12
 1138 0526 12       		.uleb128 0x12
 1139 0527 22000000 		.4byte	.LVL45
 1140 052b BD050000 		.4byte	0x5bd
 1141 052f 00       		.byte	0
 1142 0530 10       		.uleb128 0x10
 1143 0531 B2020000 		.4byte	.LASF74
 1144 0535 01       		.byte	0x1
 1145 0536 EF       		.byte	0xef
 1146 0537 00000000 		.4byte	.LFB15
 1147 053b 0C000000 		.4byte	.LFE15-.LFB15
 1148 053f 01       		.uleb128 0x1
 1149 0540 9C       		.byte	0x9c
 1150 0541 5E050000 		.4byte	0x55e
 1151 0545 11       		.uleb128 0x11
 1152 0546 62756600 		.ascii	"buf\000"
 1153 054a 01       		.byte	0x1
 1154 054b EF       		.byte	0xef
 1155 054c D3020000 		.4byte	0x2d3
 1156 0550 4E030000 		.4byte	.LLST13
 1157 0554 16       		.uleb128 0x16
 1158 0555 0C000000 		.4byte	.LVL47
 1159 0559 BD050000 		.4byte	0x5bd
 1160 055d 00       		.byte	0
 1161 055e 19       		.uleb128 0x19
 1162 055f 08040000 		.4byte	.LASF75
 1163 0563 09       		.byte	0x9
 1164 0564 6A       		.byte	0x6a
 1165 0565 CA000000 		.4byte	0xca
 1166 0569 73050000 		.4byte	0x573
 1167 056d 1A       		.uleb128 0x1a
 1168 056e 92020000 		.4byte	0x292
 1169 0572 00       		.byte	0
 1170 0573 19       		.uleb128 0x19
 1171 0574 20000000 		.4byte	.LASF76
 1172 0578 06       		.byte	0x6
 1173 0579 9B       		.byte	0x9b
 1174 057a DA000000 		.4byte	0xda
 1175 057e 88050000 		.4byte	0x588
 1176 0582 1A       		.uleb128 0x1a
 1177 0583 CA010000 		.4byte	0x1ca
 1178 0587 00       		.byte	0
 1179 0588 1B       		.uleb128 0x1b
 1180 0589 2A000000 		.4byte	.LASF81
 1181 058d 09       		.byte	0x9
 1182 058e 6C       		.byte	0x6c
 1183 058f 9E050000 		.4byte	0x59e
 1184 0593 1A       		.uleb128 0x1a
 1185 0594 92020000 		.4byte	0x292
 1186 0598 1A       		.uleb128 0x1a
 1187 0599 CA000000 		.4byte	0xca
 1188 059d 00       		.byte	0
ARM GAS  /tmp/ccKiUCdL.s 			page 22


 1189 059e 19       		.uleb128 0x19
 1190 059f 6E020000 		.4byte	.LASF77
 1191 05a3 06       		.byte	0x6
 1192 05a4 92       		.byte	0x92
 1193 05a5 CA010000 		.4byte	0x1ca
 1194 05a9 BD050000 		.4byte	0x5bd
 1195 05ad 1A       		.uleb128 0x1a
 1196 05ae 32010000 		.4byte	0x132
 1197 05b2 1A       		.uleb128 0x1a
 1198 05b3 F0000000 		.4byte	0xf0
 1199 05b7 1A       		.uleb128 0x1a
 1200 05b8 5E010000 		.4byte	0x15e
 1201 05bc 00       		.byte	0
 1202 05bd 1C       		.uleb128 0x1c
 1203 05be 93000000 		.4byte	.LASF82
 1204 05c2 0A       		.byte	0xa
 1205 05c3 0102     		.2byte	0x201
 1206 05c5 1D       		.uleb128 0x1d
 1207 05c6 50010000 		.4byte	.LASF83
 1208 05ca 06       		.byte	0x6
 1209 05cb 9D       		.byte	0x9d
 1210 05cc 1A       		.uleb128 0x1a
 1211 05cd CA010000 		.4byte	0x1ca
 1212 05d1 1A       		.uleb128 0x1a
 1213 05d2 CA010000 		.4byte	0x1ca
 1214 05d6 00       		.byte	0
 1215 05d7 00       		.byte	0
 1216              		.section	.debug_abbrev,"",%progbits
 1217              	.Ldebug_abbrev0:
 1218 0000 01       		.uleb128 0x1
 1219 0001 11       		.uleb128 0x11
 1220 0002 01       		.byte	0x1
 1221 0003 25       		.uleb128 0x25
 1222 0004 0E       		.uleb128 0xe
 1223 0005 13       		.uleb128 0x13
 1224 0006 0B       		.uleb128 0xb
 1225 0007 03       		.uleb128 0x3
 1226 0008 0E       		.uleb128 0xe
 1227 0009 1B       		.uleb128 0x1b
 1228 000a 0E       		.uleb128 0xe
 1229 000b 55       		.uleb128 0x55
 1230 000c 17       		.uleb128 0x17
 1231 000d 11       		.uleb128 0x11
 1232 000e 01       		.uleb128 0x1
 1233 000f 10       		.uleb128 0x10
 1234 0010 17       		.uleb128 0x17
 1235 0011 00       		.byte	0
 1236 0012 00       		.byte	0
 1237 0013 02       		.uleb128 0x2
 1238 0014 24       		.uleb128 0x24
 1239 0015 00       		.byte	0
 1240 0016 0B       		.uleb128 0xb
 1241 0017 0B       		.uleb128 0xb
 1242 0018 3E       		.uleb128 0x3e
 1243 0019 0B       		.uleb128 0xb
 1244 001a 03       		.uleb128 0x3
 1245 001b 08       		.uleb128 0x8
ARM GAS  /tmp/ccKiUCdL.s 			page 23


 1246 001c 00       		.byte	0
 1247 001d 00       		.byte	0
 1248 001e 03       		.uleb128 0x3
 1249 001f 24       		.uleb128 0x24
 1250 0020 00       		.byte	0
 1251 0021 0B       		.uleb128 0xb
 1252 0022 0B       		.uleb128 0xb
 1253 0023 3E       		.uleb128 0x3e
 1254 0024 0B       		.uleb128 0xb
 1255 0025 03       		.uleb128 0x3
 1256 0026 0E       		.uleb128 0xe
 1257 0027 00       		.byte	0
 1258 0028 00       		.byte	0
 1259 0029 04       		.uleb128 0x4
 1260 002a 16       		.uleb128 0x16
 1261 002b 00       		.byte	0
 1262 002c 03       		.uleb128 0x3
 1263 002d 0E       		.uleb128 0xe
 1264 002e 3A       		.uleb128 0x3a
 1265 002f 0B       		.uleb128 0xb
 1266 0030 3B       		.uleb128 0x3b
 1267 0031 0B       		.uleb128 0xb
 1268 0032 49       		.uleb128 0x49
 1269 0033 13       		.uleb128 0x13
 1270 0034 00       		.byte	0
 1271 0035 00       		.byte	0
 1272 0036 05       		.uleb128 0x5
 1273 0037 0F       		.uleb128 0xf
 1274 0038 00       		.byte	0
 1275 0039 0B       		.uleb128 0xb
 1276 003a 0B       		.uleb128 0xb
 1277 003b 00       		.byte	0
 1278 003c 00       		.byte	0
 1279 003d 06       		.uleb128 0x6
 1280 003e 04       		.uleb128 0x4
 1281 003f 01       		.byte	0x1
 1282 0040 0B       		.uleb128 0xb
 1283 0041 0B       		.uleb128 0xb
 1284 0042 3A       		.uleb128 0x3a
 1285 0043 0B       		.uleb128 0xb
 1286 0044 3B       		.uleb128 0x3b
 1287 0045 0B       		.uleb128 0xb
 1288 0046 01       		.uleb128 0x1
 1289 0047 13       		.uleb128 0x13
 1290 0048 00       		.byte	0
 1291 0049 00       		.byte	0
 1292 004a 07       		.uleb128 0x7
 1293 004b 28       		.uleb128 0x28
 1294 004c 00       		.byte	0
 1295 004d 03       		.uleb128 0x3
 1296 004e 0E       		.uleb128 0xe
 1297 004f 1C       		.uleb128 0x1c
 1298 0050 0D       		.uleb128 0xd
 1299 0051 00       		.byte	0
 1300 0052 00       		.byte	0
 1301 0053 08       		.uleb128 0x8
 1302 0054 13       		.uleb128 0x13
ARM GAS  /tmp/ccKiUCdL.s 			page 24


 1303 0055 01       		.byte	0x1
 1304 0056 03       		.uleb128 0x3
 1305 0057 0E       		.uleb128 0xe
 1306 0058 0B       		.uleb128 0xb
 1307 0059 0B       		.uleb128 0xb
 1308 005a 3A       		.uleb128 0x3a
 1309 005b 0B       		.uleb128 0xb
 1310 005c 3B       		.uleb128 0x3b
 1311 005d 0B       		.uleb128 0xb
 1312 005e 01       		.uleb128 0x1
 1313 005f 13       		.uleb128 0x13
 1314 0060 00       		.byte	0
 1315 0061 00       		.byte	0
 1316 0062 09       		.uleb128 0x9
 1317 0063 0D       		.uleb128 0xd
 1318 0064 00       		.byte	0
 1319 0065 03       		.uleb128 0x3
 1320 0066 0E       		.uleb128 0xe
 1321 0067 3A       		.uleb128 0x3a
 1322 0068 0B       		.uleb128 0xb
 1323 0069 3B       		.uleb128 0x3b
 1324 006a 0B       		.uleb128 0xb
 1325 006b 49       		.uleb128 0x49
 1326 006c 13       		.uleb128 0x13
 1327 006d 38       		.uleb128 0x38
 1328 006e 0B       		.uleb128 0xb
 1329 006f 00       		.byte	0
 1330 0070 00       		.byte	0
 1331 0071 0A       		.uleb128 0xa
 1332 0072 0D       		.uleb128 0xd
 1333 0073 00       		.byte	0
 1334 0074 03       		.uleb128 0x3
 1335 0075 08       		.uleb128 0x8
 1336 0076 3A       		.uleb128 0x3a
 1337 0077 0B       		.uleb128 0xb
 1338 0078 3B       		.uleb128 0x3b
 1339 0079 0B       		.uleb128 0xb
 1340 007a 49       		.uleb128 0x49
 1341 007b 13       		.uleb128 0x13
 1342 007c 38       		.uleb128 0x38
 1343 007d 0B       		.uleb128 0xb
 1344 007e 00       		.byte	0
 1345 007f 00       		.byte	0
 1346 0080 0B       		.uleb128 0xb
 1347 0081 0F       		.uleb128 0xf
 1348 0082 00       		.byte	0
 1349 0083 0B       		.uleb128 0xb
 1350 0084 0B       		.uleb128 0xb
 1351 0085 49       		.uleb128 0x49
 1352 0086 13       		.uleb128 0x13
 1353 0087 00       		.byte	0
 1354 0088 00       		.byte	0
 1355 0089 0C       		.uleb128 0xc
 1356 008a 2E       		.uleb128 0x2e
 1357 008b 01       		.byte	0x1
 1358 008c 3F       		.uleb128 0x3f
 1359 008d 19       		.uleb128 0x19
ARM GAS  /tmp/ccKiUCdL.s 			page 25


 1360 008e 03       		.uleb128 0x3
 1361 008f 0E       		.uleb128 0xe
 1362 0090 3A       		.uleb128 0x3a
 1363 0091 0B       		.uleb128 0xb
 1364 0092 3B       		.uleb128 0x3b
 1365 0093 0B       		.uleb128 0xb
 1366 0094 27       		.uleb128 0x27
 1367 0095 19       		.uleb128 0x19
 1368 0096 49       		.uleb128 0x49
 1369 0097 13       		.uleb128 0x13
 1370 0098 11       		.uleb128 0x11
 1371 0099 01       		.uleb128 0x1
 1372 009a 12       		.uleb128 0x12
 1373 009b 06       		.uleb128 0x6
 1374 009c 40       		.uleb128 0x40
 1375 009d 18       		.uleb128 0x18
 1376 009e 9742     		.uleb128 0x2117
 1377 00a0 19       		.uleb128 0x19
 1378 00a1 01       		.uleb128 0x1
 1379 00a2 13       		.uleb128 0x13
 1380 00a3 00       		.byte	0
 1381 00a4 00       		.byte	0
 1382 00a5 0D       		.uleb128 0xd
 1383 00a6 34       		.uleb128 0x34
 1384 00a7 00       		.byte	0
 1385 00a8 03       		.uleb128 0x3
 1386 00a9 08       		.uleb128 0x8
 1387 00aa 3A       		.uleb128 0x3a
 1388 00ab 0B       		.uleb128 0xb
 1389 00ac 3B       		.uleb128 0x3b
 1390 00ad 0B       		.uleb128 0xb
 1391 00ae 49       		.uleb128 0x49
 1392 00af 13       		.uleb128 0x13
 1393 00b0 02       		.uleb128 0x2
 1394 00b1 18       		.uleb128 0x18
 1395 00b2 00       		.byte	0
 1396 00b3 00       		.byte	0
 1397 00b4 0E       		.uleb128 0xe
 1398 00b5 898201   		.uleb128 0x4109
 1399 00b8 01       		.byte	0x1
 1400 00b9 11       		.uleb128 0x11
 1401 00ba 01       		.uleb128 0x1
 1402 00bb 31       		.uleb128 0x31
 1403 00bc 13       		.uleb128 0x13
 1404 00bd 00       		.byte	0
 1405 00be 00       		.byte	0
 1406 00bf 0F       		.uleb128 0xf
 1407 00c0 8A8201   		.uleb128 0x410a
 1408 00c3 00       		.byte	0
 1409 00c4 02       		.uleb128 0x2
 1410 00c5 18       		.uleb128 0x18
 1411 00c6 9142     		.uleb128 0x2111
 1412 00c8 18       		.uleb128 0x18
 1413 00c9 00       		.byte	0
 1414 00ca 00       		.byte	0
 1415 00cb 10       		.uleb128 0x10
 1416 00cc 2E       		.uleb128 0x2e
ARM GAS  /tmp/ccKiUCdL.s 			page 26


 1417 00cd 01       		.byte	0x1
 1418 00ce 3F       		.uleb128 0x3f
 1419 00cf 19       		.uleb128 0x19
 1420 00d0 03       		.uleb128 0x3
 1421 00d1 0E       		.uleb128 0xe
 1422 00d2 3A       		.uleb128 0x3a
 1423 00d3 0B       		.uleb128 0xb
 1424 00d4 3B       		.uleb128 0x3b
 1425 00d5 0B       		.uleb128 0xb
 1426 00d6 27       		.uleb128 0x27
 1427 00d7 19       		.uleb128 0x19
 1428 00d8 11       		.uleb128 0x11
 1429 00d9 01       		.uleb128 0x1
 1430 00da 12       		.uleb128 0x12
 1431 00db 06       		.uleb128 0x6
 1432 00dc 40       		.uleb128 0x40
 1433 00dd 18       		.uleb128 0x18
 1434 00de 9742     		.uleb128 0x2117
 1435 00e0 19       		.uleb128 0x19
 1436 00e1 01       		.uleb128 0x1
 1437 00e2 13       		.uleb128 0x13
 1438 00e3 00       		.byte	0
 1439 00e4 00       		.byte	0
 1440 00e5 11       		.uleb128 0x11
 1441 00e6 05       		.uleb128 0x5
 1442 00e7 00       		.byte	0
 1443 00e8 03       		.uleb128 0x3
 1444 00e9 08       		.uleb128 0x8
 1445 00ea 3A       		.uleb128 0x3a
 1446 00eb 0B       		.uleb128 0xb
 1447 00ec 3B       		.uleb128 0x3b
 1448 00ed 0B       		.uleb128 0xb
 1449 00ee 49       		.uleb128 0x49
 1450 00ef 13       		.uleb128 0x13
 1451 00f0 02       		.uleb128 0x2
 1452 00f1 17       		.uleb128 0x17
 1453 00f2 00       		.byte	0
 1454 00f3 00       		.byte	0
 1455 00f4 12       		.uleb128 0x12
 1456 00f5 898201   		.uleb128 0x4109
 1457 00f8 00       		.byte	0
 1458 00f9 11       		.uleb128 0x11
 1459 00fa 01       		.uleb128 0x1
 1460 00fb 31       		.uleb128 0x31
 1461 00fc 13       		.uleb128 0x13
 1462 00fd 00       		.byte	0
 1463 00fe 00       		.byte	0
 1464 00ff 13       		.uleb128 0x13
 1465 0100 898201   		.uleb128 0x4109
 1466 0103 01       		.byte	0x1
 1467 0104 11       		.uleb128 0x11
 1468 0105 01       		.uleb128 0x1
 1469 0106 9542     		.uleb128 0x2115
 1470 0108 19       		.uleb128 0x19
 1471 0109 31       		.uleb128 0x31
 1472 010a 13       		.uleb128 0x13
 1473 010b 00       		.byte	0
ARM GAS  /tmp/ccKiUCdL.s 			page 27


 1474 010c 00       		.byte	0
 1475 010d 14       		.uleb128 0x14
 1476 010e 05       		.uleb128 0x5
 1477 010f 00       		.byte	0
 1478 0110 03       		.uleb128 0x3
 1479 0111 0E       		.uleb128 0xe
 1480 0112 3A       		.uleb128 0x3a
 1481 0113 0B       		.uleb128 0xb
 1482 0114 3B       		.uleb128 0x3b
 1483 0115 0B       		.uleb128 0xb
 1484 0116 49       		.uleb128 0x49
 1485 0117 13       		.uleb128 0x13
 1486 0118 02       		.uleb128 0x2
 1487 0119 17       		.uleb128 0x17
 1488 011a 00       		.byte	0
 1489 011b 00       		.byte	0
 1490 011c 15       		.uleb128 0x15
 1491 011d 898201   		.uleb128 0x4109
 1492 0120 01       		.byte	0x1
 1493 0121 11       		.uleb128 0x11
 1494 0122 01       		.uleb128 0x1
 1495 0123 31       		.uleb128 0x31
 1496 0124 13       		.uleb128 0x13
 1497 0125 01       		.uleb128 0x1
 1498 0126 13       		.uleb128 0x13
 1499 0127 00       		.byte	0
 1500 0128 00       		.byte	0
 1501 0129 16       		.uleb128 0x16
 1502 012a 898201   		.uleb128 0x4109
 1503 012d 00       		.byte	0
 1504 012e 11       		.uleb128 0x11
 1505 012f 01       		.uleb128 0x1
 1506 0130 9542     		.uleb128 0x2115
 1507 0132 19       		.uleb128 0x19
 1508 0133 31       		.uleb128 0x31
 1509 0134 13       		.uleb128 0x13
 1510 0135 00       		.byte	0
 1511 0136 00       		.byte	0
 1512 0137 17       		.uleb128 0x17
 1513 0138 26       		.uleb128 0x26
 1514 0139 00       		.byte	0
 1515 013a 00       		.byte	0
 1516 013b 00       		.byte	0
 1517 013c 18       		.uleb128 0x18
 1518 013d 898201   		.uleb128 0x4109
 1519 0140 01       		.byte	0x1
 1520 0141 11       		.uleb128 0x11
 1521 0142 01       		.uleb128 0x1
 1522 0143 9542     		.uleb128 0x2115
 1523 0145 19       		.uleb128 0x19
 1524 0146 31       		.uleb128 0x31
 1525 0147 13       		.uleb128 0x13
 1526 0148 01       		.uleb128 0x1
 1527 0149 13       		.uleb128 0x13
 1528 014a 00       		.byte	0
 1529 014b 00       		.byte	0
 1530 014c 19       		.uleb128 0x19
ARM GAS  /tmp/ccKiUCdL.s 			page 28


 1531 014d 2E       		.uleb128 0x2e
 1532 014e 01       		.byte	0x1
 1533 014f 3F       		.uleb128 0x3f
 1534 0150 19       		.uleb128 0x19
 1535 0151 03       		.uleb128 0x3
 1536 0152 0E       		.uleb128 0xe
 1537 0153 3A       		.uleb128 0x3a
 1538 0154 0B       		.uleb128 0xb
 1539 0155 3B       		.uleb128 0x3b
 1540 0156 0B       		.uleb128 0xb
 1541 0157 27       		.uleb128 0x27
 1542 0158 19       		.uleb128 0x19
 1543 0159 49       		.uleb128 0x49
 1544 015a 13       		.uleb128 0x13
 1545 015b 3C       		.uleb128 0x3c
 1546 015c 19       		.uleb128 0x19
 1547 015d 01       		.uleb128 0x1
 1548 015e 13       		.uleb128 0x13
 1549 015f 00       		.byte	0
 1550 0160 00       		.byte	0
 1551 0161 1A       		.uleb128 0x1a
 1552 0162 05       		.uleb128 0x5
 1553 0163 00       		.byte	0
 1554 0164 49       		.uleb128 0x49
 1555 0165 13       		.uleb128 0x13
 1556 0166 00       		.byte	0
 1557 0167 00       		.byte	0
 1558 0168 1B       		.uleb128 0x1b
 1559 0169 2E       		.uleb128 0x2e
 1560 016a 01       		.byte	0x1
 1561 016b 3F       		.uleb128 0x3f
 1562 016c 19       		.uleb128 0x19
 1563 016d 03       		.uleb128 0x3
 1564 016e 0E       		.uleb128 0xe
 1565 016f 3A       		.uleb128 0x3a
 1566 0170 0B       		.uleb128 0xb
 1567 0171 3B       		.uleb128 0x3b
 1568 0172 0B       		.uleb128 0xb
 1569 0173 27       		.uleb128 0x27
 1570 0174 19       		.uleb128 0x19
 1571 0175 3C       		.uleb128 0x3c
 1572 0176 19       		.uleb128 0x19
 1573 0177 01       		.uleb128 0x1
 1574 0178 13       		.uleb128 0x13
 1575 0179 00       		.byte	0
 1576 017a 00       		.byte	0
 1577 017b 1C       		.uleb128 0x1c
 1578 017c 2E       		.uleb128 0x2e
 1579 017d 00       		.byte	0
 1580 017e 3F       		.uleb128 0x3f
 1581 017f 19       		.uleb128 0x19
 1582 0180 03       		.uleb128 0x3
 1583 0181 0E       		.uleb128 0xe
 1584 0182 3A       		.uleb128 0x3a
 1585 0183 0B       		.uleb128 0xb
 1586 0184 3B       		.uleb128 0x3b
 1587 0185 05       		.uleb128 0x5
ARM GAS  /tmp/ccKiUCdL.s 			page 29


 1588 0186 27       		.uleb128 0x27
 1589 0187 19       		.uleb128 0x19
 1590 0188 3C       		.uleb128 0x3c
 1591 0189 19       		.uleb128 0x19
 1592 018a 00       		.byte	0
 1593 018b 00       		.byte	0
 1594 018c 1D       		.uleb128 0x1d
 1595 018d 2E       		.uleb128 0x2e
 1596 018e 01       		.byte	0x1
 1597 018f 3F       		.uleb128 0x3f
 1598 0190 19       		.uleb128 0x19
 1599 0191 03       		.uleb128 0x3
 1600 0192 0E       		.uleb128 0xe
 1601 0193 3A       		.uleb128 0x3a
 1602 0194 0B       		.uleb128 0xb
 1603 0195 3B       		.uleb128 0x3b
 1604 0196 0B       		.uleb128 0xb
 1605 0197 27       		.uleb128 0x27
 1606 0198 19       		.uleb128 0x19
 1607 0199 3C       		.uleb128 0x3c
 1608 019a 19       		.uleb128 0x19
 1609 019b 00       		.byte	0
 1610 019c 00       		.byte	0
 1611 019d 00       		.byte	0
 1612              		.section	.debug_loc,"",%progbits
 1613              	.Ldebug_loc0:
 1614              	.LLST0:
 1615 0000 00000000 		.4byte	.LVL1
 1616 0004 08000000 		.4byte	.LVL2
 1617 0008 0100     		.2byte	0x1
 1618 000a 50       		.byte	0x50
 1619 000b 08000000 		.4byte	.LVL2
 1620 000f 1C000000 		.4byte	.LVL4
 1621 0013 0100     		.2byte	0x1
 1622 0015 54       		.byte	0x54
 1623 0016 1C000000 		.4byte	.LVL4
 1624 001a 1F000000 		.4byte	.LVL5-1
 1625 001e 0100     		.2byte	0x1
 1626 0020 51       		.byte	0x51
 1627 0021 1F000000 		.4byte	.LVL5-1
 1628 0025 20000000 		.4byte	.LVL5
 1629 0029 0400     		.2byte	0x4
 1630 002b F3       		.byte	0xf3
 1631 002c 01       		.uleb128 0x1
 1632 002d 50       		.byte	0x50
 1633 002e 9F       		.byte	0x9f
 1634 002f 20000000 		.4byte	.LVL5
 1635 0033 22000000 		.4byte	.LFE8
 1636 0037 0100     		.2byte	0x1
 1637 0039 50       		.byte	0x50
 1638 003a 00000000 		.4byte	0
 1639 003e 00000000 		.4byte	0
 1640              	.LLST1:
 1641 0042 00000000 		.4byte	.LVL6
 1642 0046 0A000000 		.4byte	.LVL7
 1643 004a 0100     		.2byte	0x1
 1644 004c 50       		.byte	0x50
ARM GAS  /tmp/ccKiUCdL.s 			page 30


 1645 004d 0A000000 		.4byte	.LVL7
 1646 0051 32000000 		.4byte	.LVL12
 1647 0055 0100     		.2byte	0x1
 1648 0057 54       		.byte	0x54
 1649 0058 32000000 		.4byte	.LVL12
 1650 005c 35000000 		.4byte	.LVL13-1
 1651 0060 0100     		.2byte	0x1
 1652 0062 50       		.byte	0x50
 1653 0063 35000000 		.4byte	.LVL13-1
 1654 0067 3A000000 		.4byte	.LFE9
 1655 006b 0100     		.2byte	0x1
 1656 006d 54       		.byte	0x54
 1657 006e 00000000 		.4byte	0
 1658 0072 00000000 		.4byte	0
 1659              	.LLST2:
 1660 0076 00000000 		.4byte	.LVL6
 1661 007a 0F000000 		.4byte	.LVL8-1
 1662 007e 0100     		.2byte	0x1
 1663 0080 51       		.byte	0x51
 1664 0081 0F000000 		.4byte	.LVL8-1
 1665 0085 32000000 		.4byte	.LVL12
 1666 0089 0400     		.2byte	0x4
 1667 008b F3       		.byte	0xf3
 1668 008c 01       		.uleb128 0x1
 1669 008d 51       		.byte	0x51
 1670 008e 9F       		.byte	0x9f
 1671 008f 32000000 		.4byte	.LVL12
 1672 0093 35000000 		.4byte	.LVL13-1
 1673 0097 0100     		.2byte	0x1
 1674 0099 51       		.byte	0x51
 1675 009a 35000000 		.4byte	.LVL13-1
 1676 009e 3A000000 		.4byte	.LFE9
 1677 00a2 0400     		.2byte	0x4
 1678 00a4 F3       		.byte	0xf3
 1679 00a5 01       		.uleb128 0x1
 1680 00a6 51       		.byte	0x51
 1681 00a7 9F       		.byte	0x9f
 1682 00a8 00000000 		.4byte	0
 1683 00ac 00000000 		.4byte	0
 1684              	.LLST3:
 1685 00b0 00000000 		.4byte	.LVL14
 1686 00b4 08000000 		.4byte	.LVL15
 1687 00b8 0100     		.2byte	0x1
 1688 00ba 50       		.byte	0x50
 1689 00bb 08000000 		.4byte	.LVL15
 1690 00bf 16000000 		.4byte	.LVL17
 1691 00c3 0100     		.2byte	0x1
 1692 00c5 54       		.byte	0x54
 1693 00c6 16000000 		.4byte	.LVL17
 1694 00ca 1D000000 		.4byte	.LVL18-1
 1695 00ce 0100     		.2byte	0x1
 1696 00d0 50       		.byte	0x50
 1697 00d1 1D000000 		.4byte	.LVL18-1
 1698 00d5 1E000000 		.4byte	.LFE10
 1699 00d9 0400     		.2byte	0x4
 1700 00db F3       		.byte	0xf3
 1701 00dc 01       		.uleb128 0x1
ARM GAS  /tmp/ccKiUCdL.s 			page 31


 1702 00dd 50       		.byte	0x50
 1703 00de 9F       		.byte	0x9f
 1704 00df 00000000 		.4byte	0
 1705 00e3 00000000 		.4byte	0
 1706              	.LLST4:
 1707 00e7 00000000 		.4byte	.LVL19
 1708 00eb 0C000000 		.4byte	.LVL20
 1709 00ef 0100     		.2byte	0x1
 1710 00f1 50       		.byte	0x50
 1711 00f2 0C000000 		.4byte	.LVL20
 1712 00f6 36000000 		.4byte	.LVL24
 1713 00fa 0100     		.2byte	0x1
 1714 00fc 54       		.byte	0x54
 1715 00fd 36000000 		.4byte	.LVL24
 1716 0101 39000000 		.4byte	.LVL25-1
 1717 0105 0100     		.2byte	0x1
 1718 0107 50       		.byte	0x50
 1719 0108 39000000 		.4byte	.LVL25-1
 1720 010c 3E000000 		.4byte	.LFE11
 1721 0110 0100     		.2byte	0x1
 1722 0112 54       		.byte	0x54
 1723 0113 00000000 		.4byte	0
 1724 0117 00000000 		.4byte	0
 1725              	.LLST5:
 1726 011b 00000000 		.4byte	.LVL19
 1727 011f 11000000 		.4byte	.LVL21-1
 1728 0123 0100     		.2byte	0x1
 1729 0125 51       		.byte	0x51
 1730 0126 11000000 		.4byte	.LVL21-1
 1731 012a 36000000 		.4byte	.LVL24
 1732 012e 0100     		.2byte	0x1
 1733 0130 56       		.byte	0x56
 1734 0131 36000000 		.4byte	.LVL24
 1735 0135 39000000 		.4byte	.LVL25-1
 1736 0139 0100     		.2byte	0x1
 1737 013b 51       		.byte	0x51
 1738 013c 39000000 		.4byte	.LVL25-1
 1739 0140 3E000000 		.4byte	.LFE11
 1740 0144 0100     		.2byte	0x1
 1741 0146 56       		.byte	0x56
 1742 0147 00000000 		.4byte	0
 1743 014b 00000000 		.4byte	0
 1744              	.LLST6:
 1745 014f 00000000 		.4byte	.LVL19
 1746 0153 11000000 		.4byte	.LVL21-1
 1747 0157 0100     		.2byte	0x1
 1748 0159 52       		.byte	0x52
 1749 015a 11000000 		.4byte	.LVL21-1
 1750 015e 36000000 		.4byte	.LVL24
 1751 0162 0400     		.2byte	0x4
 1752 0164 F3       		.byte	0xf3
 1753 0165 01       		.uleb128 0x1
 1754 0166 52       		.byte	0x52
 1755 0167 9F       		.byte	0x9f
 1756 0168 36000000 		.4byte	.LVL24
 1757 016c 39000000 		.4byte	.LVL25-1
 1758 0170 0100     		.2byte	0x1
ARM GAS  /tmp/ccKiUCdL.s 			page 32


 1759 0172 52       		.byte	0x52
 1760 0173 39000000 		.4byte	.LVL25-1
 1761 0177 3E000000 		.4byte	.LFE11
 1762 017b 0400     		.2byte	0x4
 1763 017d F3       		.byte	0xf3
 1764 017e 01       		.uleb128 0x1
 1765 017f 52       		.byte	0x52
 1766 0180 9F       		.byte	0x9f
 1767 0181 00000000 		.4byte	0
 1768 0185 00000000 		.4byte	0
 1769              	.LLST7:
 1770 0189 00000000 		.4byte	.LVL26
 1771 018d 0C000000 		.4byte	.LVL27
 1772 0191 0100     		.2byte	0x1
 1773 0193 50       		.byte	0x50
 1774 0194 0C000000 		.4byte	.LVL27
 1775 0198 1E000000 		.4byte	.LVL30
 1776 019c 0100     		.2byte	0x1
 1777 019e 54       		.byte	0x54
 1778 019f 1E000000 		.4byte	.LVL30
 1779 01a3 22000000 		.4byte	.LVL31
 1780 01a7 0400     		.2byte	0x4
 1781 01a9 F3       		.byte	0xf3
 1782 01aa 01       		.uleb128 0x1
 1783 01ab 50       		.byte	0x50
 1784 01ac 9F       		.byte	0x9f
 1785 01ad 22000000 		.4byte	.LVL31
 1786 01b1 29000000 		.4byte	.LVL32-1
 1787 01b5 0100     		.2byte	0x1
 1788 01b7 50       		.byte	0x50
 1789 01b8 29000000 		.4byte	.LVL32-1
 1790 01bc 2A000000 		.4byte	.LFE12
 1791 01c0 0400     		.2byte	0x4
 1792 01c2 F3       		.byte	0xf3
 1793 01c3 01       		.uleb128 0x1
 1794 01c4 50       		.byte	0x50
 1795 01c5 9F       		.byte	0x9f
 1796 01c6 00000000 		.4byte	0
 1797 01ca 00000000 		.4byte	0
 1798              	.LLST8:
 1799 01ce 00000000 		.4byte	.LVL26
 1800 01d2 0E000000 		.4byte	.LVL28
 1801 01d6 0100     		.2byte	0x1
 1802 01d8 51       		.byte	0x51
 1803 01d9 0E000000 		.4byte	.LVL28
 1804 01dd 1E000000 		.4byte	.LVL30
 1805 01e1 0100     		.2byte	0x1
 1806 01e3 55       		.byte	0x55
 1807 01e4 1E000000 		.4byte	.LVL30
 1808 01e8 21000000 		.4byte	.LVL31-1
 1809 01ec 0100     		.2byte	0x1
 1810 01ee 51       		.byte	0x51
 1811 01ef 21000000 		.4byte	.LVL31-1
 1812 01f3 22000000 		.4byte	.LVL31
 1813 01f7 0400     		.2byte	0x4
 1814 01f9 F3       		.byte	0xf3
 1815 01fa 01       		.uleb128 0x1
ARM GAS  /tmp/ccKiUCdL.s 			page 33


 1816 01fb 51       		.byte	0x51
 1817 01fc 9F       		.byte	0x9f
 1818 01fd 22000000 		.4byte	.LVL31
 1819 0201 29000000 		.4byte	.LVL32-1
 1820 0205 0100     		.2byte	0x1
 1821 0207 51       		.byte	0x51
 1822 0208 29000000 		.4byte	.LVL32-1
 1823 020c 2A000000 		.4byte	.LFE12
 1824 0210 0400     		.2byte	0x4
 1825 0212 F3       		.byte	0xf3
 1826 0213 01       		.uleb128 0x1
 1827 0214 51       		.byte	0x51
 1828 0215 9F       		.byte	0x9f
 1829 0216 00000000 		.4byte	0
 1830 021a 00000000 		.4byte	0
 1831              	.LLST9:
 1832 021e 00000000 		.4byte	.LVL33
 1833 0222 16000000 		.4byte	.LVL34
 1834 0226 0100     		.2byte	0x1
 1835 0228 50       		.byte	0x50
 1836 0229 16000000 		.4byte	.LVL34
 1837 022d 1C000000 		.4byte	.LVL36
 1838 0231 0400     		.2byte	0x4
 1839 0233 F3       		.byte	0xf3
 1840 0234 01       		.uleb128 0x1
 1841 0235 50       		.byte	0x50
 1842 0236 9F       		.byte	0x9f
 1843 0237 1C000000 		.4byte	.LVL36
 1844 023b 1F000000 		.4byte	.LVL37-1
 1845 023f 0100     		.2byte	0x1
 1846 0241 50       		.byte	0x50
 1847 0242 1F000000 		.4byte	.LVL37-1
 1848 0246 24000000 		.4byte	.LVL38
 1849 024a 0400     		.2byte	0x4
 1850 024c F3       		.byte	0xf3
 1851 024d 01       		.uleb128 0x1
 1852 024e 50       		.byte	0x50
 1853 024f 9F       		.byte	0x9f
 1854 0250 24000000 		.4byte	.LVL38
 1855 0254 26000000 		.4byte	.LVL39
 1856 0258 0100     		.2byte	0x1
 1857 025a 50       		.byte	0x50
 1858 025b 26000000 		.4byte	.LVL39
 1859 025f 28000000 		.4byte	.LFE13
 1860 0263 0400     		.2byte	0x4
 1861 0265 F3       		.byte	0xf3
 1862 0266 01       		.uleb128 0x1
 1863 0267 50       		.byte	0x50
 1864 0268 9F       		.byte	0x9f
 1865 0269 00000000 		.4byte	0
 1866 026d 00000000 		.4byte	0
 1867              	.LLST10:
 1868 0271 00000000 		.4byte	.LVL33
 1869 0275 18000000 		.4byte	.LVL35
 1870 0279 0100     		.2byte	0x1
 1871 027b 51       		.byte	0x51
 1872 027c 18000000 		.4byte	.LVL35
ARM GAS  /tmp/ccKiUCdL.s 			page 34


 1873 0280 1C000000 		.4byte	.LVL36
 1874 0284 0400     		.2byte	0x4
 1875 0286 F3       		.byte	0xf3
 1876 0287 01       		.uleb128 0x1
 1877 0288 51       		.byte	0x51
 1878 0289 9F       		.byte	0x9f
 1879 028a 1C000000 		.4byte	.LVL36
 1880 028e 1F000000 		.4byte	.LVL37-1
 1881 0292 0100     		.2byte	0x1
 1882 0294 51       		.byte	0x51
 1883 0295 1F000000 		.4byte	.LVL37-1
 1884 0299 24000000 		.4byte	.LVL38
 1885 029d 0400     		.2byte	0x4
 1886 029f F3       		.byte	0xf3
 1887 02a0 01       		.uleb128 0x1
 1888 02a1 51       		.byte	0x51
 1889 02a2 9F       		.byte	0x9f
 1890 02a3 24000000 		.4byte	.LVL38
 1891 02a7 28000000 		.4byte	.LFE13
 1892 02ab 0100     		.2byte	0x1
 1893 02ad 51       		.byte	0x51
 1894 02ae 00000000 		.4byte	0
 1895 02b2 00000000 		.4byte	0
 1896              	.LLST11:
 1897 02b6 00000000 		.4byte	.LVL33
 1898 02ba 18000000 		.4byte	.LVL35
 1899 02be 0100     		.2byte	0x1
 1900 02c0 52       		.byte	0x52
 1901 02c1 18000000 		.4byte	.LVL35
 1902 02c5 1C000000 		.4byte	.LVL36
 1903 02c9 0400     		.2byte	0x4
 1904 02cb F3       		.byte	0xf3
 1905 02cc 01       		.uleb128 0x1
 1906 02cd 52       		.byte	0x52
 1907 02ce 9F       		.byte	0x9f
 1908 02cf 1C000000 		.4byte	.LVL36
 1909 02d3 1F000000 		.4byte	.LVL37-1
 1910 02d7 0100     		.2byte	0x1
 1911 02d9 52       		.byte	0x52
 1912 02da 1F000000 		.4byte	.LVL37-1
 1913 02de 24000000 		.4byte	.LVL38
 1914 02e2 0400     		.2byte	0x4
 1915 02e4 F3       		.byte	0xf3
 1916 02e5 01       		.uleb128 0x1
 1917 02e6 52       		.byte	0x52
 1918 02e7 9F       		.byte	0x9f
 1919 02e8 24000000 		.4byte	.LVL38
 1920 02ec 28000000 		.4byte	.LFE13
 1921 02f0 0100     		.2byte	0x1
 1922 02f2 52       		.byte	0x52
 1923 02f3 00000000 		.4byte	0
 1924 02f7 00000000 		.4byte	0
 1925              	.LLST12:
 1926 02fb 00000000 		.4byte	.LVL40
 1927 02ff 12000000 		.4byte	.LVL41
 1928 0303 0100     		.2byte	0x1
 1929 0305 50       		.byte	0x50
ARM GAS  /tmp/ccKiUCdL.s 			page 35


 1930 0306 12000000 		.4byte	.LVL41
 1931 030a 1A000000 		.4byte	.LVL42
 1932 030e 0400     		.2byte	0x4
 1933 0310 F3       		.byte	0xf3
 1934 0311 01       		.uleb128 0x1
 1935 0312 50       		.byte	0x50
 1936 0313 9F       		.byte	0x9f
 1937 0314 1A000000 		.4byte	.LVL42
 1938 0318 1C000000 		.4byte	.LVL43
 1939 031c 0100     		.2byte	0x1
 1940 031e 50       		.byte	0x50
 1941 031f 1C000000 		.4byte	.LVL43
 1942 0323 1E000000 		.4byte	.LVL44
 1943 0327 0400     		.2byte	0x4
 1944 0329 F3       		.byte	0xf3
 1945 032a 01       		.uleb128 0x1
 1946 032b 50       		.byte	0x50
 1947 032c 9F       		.byte	0x9f
 1948 032d 1E000000 		.4byte	.LVL44
 1949 0331 21000000 		.4byte	.LVL45-1
 1950 0335 0100     		.2byte	0x1
 1951 0337 50       		.byte	0x50
 1952 0338 21000000 		.4byte	.LVL45-1
 1953 033c 26000000 		.4byte	.LFE14
 1954 0340 0400     		.2byte	0x4
 1955 0342 F3       		.byte	0xf3
 1956 0343 01       		.uleb128 0x1
 1957 0344 50       		.byte	0x50
 1958 0345 9F       		.byte	0x9f
 1959 0346 00000000 		.4byte	0
 1960 034a 00000000 		.4byte	0
 1961              	.LLST13:
 1962 034e 00000000 		.4byte	.LVL46
 1963 0352 0B000000 		.4byte	.LVL47-1
 1964 0356 0100     		.2byte	0x1
 1965 0358 50       		.byte	0x50
 1966 0359 0B000000 		.4byte	.LVL47-1
 1967 035d 0C000000 		.4byte	.LFE15
 1968 0361 0400     		.2byte	0x4
 1969 0363 F3       		.byte	0xf3
 1970 0364 01       		.uleb128 0x1
 1971 0365 50       		.byte	0x50
 1972 0366 9F       		.byte	0x9f
 1973 0367 00000000 		.4byte	0
 1974 036b 00000000 		.4byte	0
 1975              		.section	.debug_aranges,"",%progbits
 1976 0000 5C000000 		.4byte	0x5c
 1977 0004 0200     		.2byte	0x2
 1978 0006 00000000 		.4byte	.Ldebug_info0
 1979 000a 04       		.byte	0x4
 1980 000b 00       		.byte	0
 1981 000c 0000     		.2byte	0
 1982 000e 0000     		.2byte	0
 1983 0010 00000000 		.4byte	.LFB7
 1984 0014 16000000 		.4byte	.LFE7-.LFB7
 1985 0018 00000000 		.4byte	.LFB8
 1986 001c 22000000 		.4byte	.LFE8-.LFB8
ARM GAS  /tmp/ccKiUCdL.s 			page 36


 1987 0020 00000000 		.4byte	.LFB9
 1988 0024 3A000000 		.4byte	.LFE9-.LFB9
 1989 0028 00000000 		.4byte	.LFB10
 1990 002c 1E000000 		.4byte	.LFE10-.LFB10
 1991 0030 00000000 		.4byte	.LFB11
 1992 0034 3E000000 		.4byte	.LFE11-.LFB11
 1993 0038 00000000 		.4byte	.LFB12
 1994 003c 2A000000 		.4byte	.LFE12-.LFB12
 1995 0040 00000000 		.4byte	.LFB13
 1996 0044 28000000 		.4byte	.LFE13-.LFB13
 1997 0048 00000000 		.4byte	.LFB14
 1998 004c 26000000 		.4byte	.LFE14-.LFB14
 1999 0050 00000000 		.4byte	.LFB15
 2000 0054 0C000000 		.4byte	.LFE15-.LFB15
 2001 0058 00000000 		.4byte	0
 2002 005c 00000000 		.4byte	0
 2003              		.section	.debug_ranges,"",%progbits
 2004              	.Ldebug_ranges0:
 2005 0000 00000000 		.4byte	.LFB7
 2006 0004 16000000 		.4byte	.LFE7
 2007 0008 00000000 		.4byte	.LFB8
 2008 000c 22000000 		.4byte	.LFE8
 2009 0010 00000000 		.4byte	.LFB9
 2010 0014 3A000000 		.4byte	.LFE9
 2011 0018 00000000 		.4byte	.LFB10
 2012 001c 1E000000 		.4byte	.LFE10
 2013 0020 00000000 		.4byte	.LFB11
 2014 0024 3E000000 		.4byte	.LFE11
 2015 0028 00000000 		.4byte	.LFB12
 2016 002c 2A000000 		.4byte	.LFE12
 2017 0030 00000000 		.4byte	.LFB13
 2018 0034 28000000 		.4byte	.LFE13
 2019 0038 00000000 		.4byte	.LFB14
 2020 003c 26000000 		.4byte	.LFE14
 2021 0040 00000000 		.4byte	.LFB15
 2022 0044 0C000000 		.4byte	.LFE15
 2023 0048 00000000 		.4byte	0
 2024 004c 00000000 		.4byte	0
 2025              		.section	.debug_line,"",%progbits
 2026              	.Ldebug_line0:
 2027 0000 75020000 		.section	.debug_str,"MS",%progbits,1
 2027      02005701 
 2027      00000201 
 2027      FB0E0D00 
 2027      01010101 
 2028              	.LASF79:
 2029 0000 2E2E2F2E 		.ascii	"../../ext/lwip/src/api/netbuf.c\000"
 2029      2E2F6578 
 2029      742F6C77 
 2029      69702F73 
 2029      72632F61 
 2030              	.LASF76:
 2031 0020 70627566 		.ascii	"pbuf_free\000"
 2031      5F667265 
 2031      6500
 2032              	.LASF81:
 2033 002a 6D656D70 		.ascii	"memp_free\000"
ARM GAS  /tmp/ccKiUCdL.s 			page 37


 2033      5F667265 
 2033      6500
 2034              	.LASF72:
 2035 0034 6E657462 		.ascii	"netbuf_data\000"
 2035      75665F64 
 2035      61746100 
 2036              	.LASF13:
 2037 0040 696E7438 		.ascii	"int8_t\000"
 2037      5F7400
 2038              	.LASF63:
 2039 0047 6E657462 		.ascii	"netbuf_alloc\000"
 2039      75665F61 
 2039      6C6C6F63 
 2039      00
 2040              	.LASF54:
 2041 0054 4D454D50 		.ascii	"MEMP_NETCONN\000"
 2041      5F4E4554 
 2041      434F4E4E 
 2041      00
 2042              	.LASF5:
 2043 0061 73686F72 		.ascii	"short int\000"
 2043      7420696E 
 2043      7400
 2044              	.LASF61:
 2045 006b 6D656D70 		.ascii	"memp_t\000"
 2045      5F7400
 2046              	.LASF50:
 2047 0072 4D454D50 		.ascii	"MEMP_TCP_SEG\000"
 2047      5F544350 
 2047      5F534547 
 2047      00
 2048              	.LASF18:
 2049 007f 73697A65 		.ascii	"sizetype\000"
 2049      74797065 
 2049      00
 2050              	.LASF9:
 2051 0088 5F5F7569 		.ascii	"__uint32_t\000"
 2051      6E743332 
 2051      5F7400
 2052              	.LASF82:
 2053 0093 706F7274 		.ascii	"port_halt\000"
 2053      5F68616C 
 2053      7400
 2054              	.LASF6:
 2055 009d 5F5F7569 		.ascii	"__uint16_t\000"
 2055      6E743136 
 2055      5F7400
 2056              	.LASF57:
 2057 00a8 4D454D50 		.ascii	"MEMP_SYS_TIMEOUT\000"
 2057      5F535953 
 2057      5F54494D 
 2057      454F5554 
 2057      00
 2058              	.LASF70:
 2059 00b9 68656164 		.ascii	"head\000"
 2059      00
 2060              	.LASF30:
ARM GAS  /tmp/ccKiUCdL.s 			page 38


 2061 00be 50425546 		.ascii	"PBUF_RAM\000"
 2061      5F52414D 
 2061      00
 2062              	.LASF49:
 2063 00c7 4D454D50 		.ascii	"MEMP_TCP_PCB_LISTEN\000"
 2063      5F544350 
 2063      5F504342 
 2063      5F4C4953 
 2063      54454E00 
 2064              	.LASF28:
 2065 00db 50425546 		.ascii	"PBUF_RAW\000"
 2065      5F524157 
 2065      00
 2066              	.LASF52:
 2067 00e4 4D454D50 		.ascii	"MEMP_FRAG_PBUF\000"
 2067      5F465241 
 2067      475F5042 
 2067      554600
 2068              	.LASF21:
 2069 00f3 73385F74 		.ascii	"s8_t\000"
 2069      00
 2070              	.LASF38:
 2071 00f8 74797065 		.ascii	"type\000"
 2071      00
 2072              	.LASF11:
 2073 00fd 6C6F6E67 		.ascii	"long long int\000"
 2073      206C6F6E 
 2073      6720696E 
 2073      7400
 2074              	.LASF73:
 2075 010b 6E657462 		.ascii	"netbuf_next\000"
 2075      75665F6E 
 2075      65787400 
 2076              	.LASF67:
 2077 0117 6E657462 		.ascii	"netbuf_ref\000"
 2077      75665F72 
 2077      656600
 2078              	.LASF44:
 2079 0122 6E657462 		.ascii	"netbuf\000"
 2079      756600
 2080              	.LASF40:
 2081 0129 70627566 		.ascii	"pbuf\000"
 2081      00
 2082              	.LASF8:
 2083 012e 6C6F6E67 		.ascii	"long int\000"
 2083      20696E74 
 2083      00
 2084              	.LASF43:
 2085 0137 69705F61 		.ascii	"ip_addr_t\000"
 2085      6464725F 
 2085      7400
 2086              	.LASF42:
 2087 0141 61646472 		.ascii	"addr\000"
 2087      00
 2088              	.LASF3:
 2089 0146 5F5F7569 		.ascii	"__uint8_t\000"
 2089      6E74385F 
ARM GAS  /tmp/ccKiUCdL.s 			page 39


 2089      7400
 2090              	.LASF83:
 2091 0150 70627566 		.ascii	"pbuf_cat\000"
 2091      5F636174 
 2091      00
 2092              	.LASF4:
 2093 0159 756E7369 		.ascii	"unsigned char\000"
 2093      676E6564 
 2093      20636861 
 2093      7200
 2094              	.LASF71:
 2095 0167 7461696C 		.ascii	"tail\000"
 2095      00
 2096              	.LASF60:
 2097 016c 4D454D50 		.ascii	"MEMP_MAX\000"
 2097      5F4D4158 
 2097      00
 2098              	.LASF1:
 2099 0175 7369676E 		.ascii	"signed char\000"
 2099      65642063 
 2099      68617200 
 2100              	.LASF39:
 2101 0181 666C6167 		.ascii	"flags\000"
 2101      7300
 2102              	.LASF12:
 2103 0187 6C6F6E67 		.ascii	"long long unsigned int\000"
 2103      206C6F6E 
 2103      6720756E 
 2103      7369676E 
 2103      65642069 
 2104              	.LASF16:
 2105 019e 75696E74 		.ascii	"uint32_t\000"
 2105      33325F74 
 2105      00
 2106              	.LASF0:
 2107 01a7 756E7369 		.ascii	"unsigned int\000"
 2107      676E6564 
 2107      20696E74 
 2107      00
 2108              	.LASF15:
 2109 01b4 75696E74 		.ascii	"uint16_t\000"
 2109      31365F74 
 2109      00
 2110              	.LASF29:
 2111 01bd 70627566 		.ascii	"pbuf_layer\000"
 2111      5F6C6179 
 2111      657200
 2112              	.LASF33:
 2113 01c8 50425546 		.ascii	"PBUF_POOL\000"
 2113      5F504F4F 
 2113      4C00
 2114              	.LASF51:
 2115 01d2 4D454D50 		.ascii	"MEMP_REASSDATA\000"
 2115      5F524541 
 2115      53534441 
 2115      544100
 2116              	.LASF2:
ARM GAS  /tmp/ccKiUCdL.s 			page 40


 2117 01e1 5F5F696E 		.ascii	"__int8_t\000"
 2117      74385F74 
 2117      00
 2118              	.LASF66:
 2119 01ea 6E657462 		.ascii	"netbuf_free\000"
 2119      75665F66 
 2119      72656500 
 2120              	.LASF24:
 2121 01f6 6572725F 		.ascii	"err_t\000"
 2121      7400
 2122              	.LASF19:
 2123 01fc 63686172 		.ascii	"char\000"
 2123      00
 2124              	.LASF80:
 2125 0201 2F686F6D 		.ascii	"/home/caroline/Documents/PAF/ChibiOS_2.6.4/demos/AR"
 2125      652F6361 
 2125      726F6C69 
 2125      6E652F44 
 2125      6F63756D 
 2126 0234 4D434D34 		.ascii	"MCM4-STM32F407-LWIP\000"
 2126      2D53544D 
 2126      33324634 
 2126      30372D4C 
 2126      57495000 
 2127              	.LASF55:
 2128 0248 4D454D50 		.ascii	"MEMP_TCPIP_MSG_API\000"
 2128      5F544350 
 2128      49505F4D 
 2128      53475F41 
 2128      504900
 2129              	.LASF7:
 2130 025b 73686F72 		.ascii	"short unsigned int\000"
 2130      7420756E 
 2130      7369676E 
 2130      65642069 
 2130      6E7400
 2131              	.LASF77:
 2132 026e 70627566 		.ascii	"pbuf_alloc\000"
 2132      5F616C6C 
 2132      6F6300
 2133              	.LASF17:
 2134 0279 5F426F6F 		.ascii	"_Bool\000"
 2134      6C00
 2135              	.LASF58:
 2136 027f 4D454D50 		.ascii	"MEMP_PBUF\000"
 2136      5F504255 
 2136      4600
 2137              	.LASF69:
 2138 0289 6E657462 		.ascii	"netbuf_chain\000"
 2138      75665F63 
 2138      6861696E 
 2138      00
 2139              	.LASF25:
 2140 0296 50425546 		.ascii	"PBUF_TRANSPORT\000"
 2140      5F545241 
 2140      4E53504F 
 2140      525400
ARM GAS  /tmp/ccKiUCdL.s 			page 41


 2141              	.LASF26:
 2142 02a5 50425546 		.ascii	"PBUF_IP\000"
 2142      5F495000 
 2143              	.LASF45:
 2144 02ad 706F7274 		.ascii	"port\000"
 2144      00
 2145              	.LASF74:
 2146 02b2 6E657462 		.ascii	"netbuf_first\000"
 2146      75665F66 
 2146      69727374 
 2146      00
 2147              	.LASF10:
 2148 02bf 6C6F6E67 		.ascii	"long unsigned int\000"
 2148      20756E73 
 2148      69676E65 
 2148      6420696E 
 2148      7400
 2149              	.LASF34:
 2150 02d1 70627566 		.ascii	"pbuf_type\000"
 2150      5F747970 
 2150      6500
 2151              	.LASF46:
 2152 02db 4D454D50 		.ascii	"MEMP_RAW_PCB\000"
 2152      5F524157 
 2152      5F504342 
 2152      00
 2153              	.LASF64:
 2154 02e8 73697A65 		.ascii	"size\000"
 2154      00
 2155              	.LASF65:
 2156 02ed 6E657462 		.ascii	"netbuf_delete\000"
 2156      75665F64 
 2156      656C6574 
 2156      6500
 2157              	.LASF78:
 2158 02fb 474E5520 		.ascii	"GNU C 4.8.2 -mcpu=cortex-m4 -mno-thumb-interwork -m"
 2158      4320342E 
 2158      382E3220 
 2158      2D6D6370 
 2158      753D636F 
 2159 032e 7468756D 		.ascii	"thumb -ggdb -O2 -std=gnu99 -fomit-frame-pointer -fa"
 2159      62202D67 
 2159      67646220 
 2159      2D4F3220 
 2159      2D737464 
 2160 0361 6C69676E 		.ascii	"lign-functions=16 -ffunction-sections -fdata-sectio"
 2160      2D66756E 
 2160      6374696F 
 2160      6E733D31 
 2160      36202D66 
 2161 0394 6E73202D 		.ascii	"ns -fno-common\000"
 2161      666E6F2D 
 2161      636F6D6D 
 2161      6F6E00
 2162              	.LASF20:
 2163 03a3 75385F74 		.ascii	"u8_t\000"
 2163      00
ARM GAS  /tmp/ccKiUCdL.s 			page 42


 2164              	.LASF23:
 2165 03a8 7533325F 		.ascii	"u32_t\000"
 2165      7400
 2166              	.LASF14:
 2167 03ae 75696E74 		.ascii	"uint8_t\000"
 2167      385F7400 
 2168              	.LASF22:
 2169 03b6 7531365F 		.ascii	"u16_t\000"
 2169      7400
 2170              	.LASF59:
 2171 03bc 4D454D50 		.ascii	"MEMP_PBUF_POOL\000"
 2171      5F504255 
 2171      465F504F 
 2171      4F4C00
 2172              	.LASF62:
 2173 03cb 6E657462 		.ascii	"netbuf_new\000"
 2173      75665F6E 
 2173      657700
 2174              	.LASF56:
 2175 03d6 4D454D50 		.ascii	"MEMP_TCPIP_MSG_INPKT\000"
 2175      5F544350 
 2175      49505F4D 
 2175      53475F49 
 2175      4E504B54 
 2176              	.LASF68:
 2177 03eb 64617461 		.ascii	"dataptr\000"
 2177      70747200 
 2178              	.LASF37:
 2179 03f3 746F745F 		.ascii	"tot_len\000"
 2179      6C656E00 
 2180              	.LASF48:
 2181 03fb 4D454D50 		.ascii	"MEMP_TCP_PCB\000"
 2181      5F544350 
 2181      5F504342 
 2181      00
 2182              	.LASF75:
 2183 0408 6D656D70 		.ascii	"memp_malloc\000"
 2183      5F6D616C 
 2183      6C6F6300 
 2184              	.LASF47:
 2185 0414 4D454D50 		.ascii	"MEMP_UDP_PCB\000"
 2185      5F554450 
 2185      5F504342 
 2185      00
 2186              	.LASF32:
 2187 0421 50425546 		.ascii	"PBUF_REF\000"
 2187      5F524546 
 2187      00
 2188              	.LASF41:
 2189 042a 69705F61 		.ascii	"ip_addr\000"
 2189      64647200 
 2190              	.LASF31:
 2191 0432 50425546 		.ascii	"PBUF_ROM\000"
 2191      5F524F4D 
 2191      00
 2192              	.LASF36:
 2193 043b 7061796C 		.ascii	"payload\000"
ARM GAS  /tmp/ccKiUCdL.s 			page 43


 2193      6F616400 
 2194              	.LASF35:
 2195 0443 6E657874 		.ascii	"next\000"
 2195      00
 2196              	.LASF53:
 2197 0448 4D454D50 		.ascii	"MEMP_NETBUF\000"
 2197      5F4E4554 
 2197      42554600 
 2198              	.LASF27:
 2199 0454 50425546 		.ascii	"PBUF_LINK\000"
 2199      5F4C494E 
 2199      4B00
 2200              		.ident	"GCC: (4.8.2-14ubuntu1+6) 4.8.2"
ARM GAS  /tmp/ccKiUCdL.s 			page 44


DEFINED SYMBOLS
                            *ABS*:0000000000000000 netbuf.c
     /tmp/ccKiUCdL.s:19     .text.netbuf_new:0000000000000000 $t
     /tmp/ccKiUCdL.s:25     .text.netbuf_new:0000000000000000 netbuf_new
     /tmp/ccKiUCdL.s:58     .text.netbuf_delete:0000000000000000 $t
     /tmp/ccKiUCdL.s:64     .text.netbuf_delete:0000000000000000 netbuf_delete
     /tmp/ccKiUCdL.s:105    .text.netbuf_alloc:0000000000000000 $t
     /tmp/ccKiUCdL.s:111    .text.netbuf_alloc:0000000000000000 netbuf_alloc
     /tmp/ccKiUCdL.s:177    .text.netbuf_free:0000000000000000 $t
     /tmp/ccKiUCdL.s:183    .text.netbuf_free:0000000000000000 netbuf_free
     /tmp/ccKiUCdL.s:221    .text.netbuf_ref:0000000000000000 $t
     /tmp/ccKiUCdL.s:227    .text.netbuf_ref:0000000000000000 netbuf_ref
     /tmp/ccKiUCdL.s:296    .text.netbuf_chain:0000000000000000 $t
     /tmp/ccKiUCdL.s:302    .text.netbuf_chain:0000000000000000 netbuf_chain
     /tmp/ccKiUCdL.s:354    .text.netbuf_data:0000000000000000 $t
     /tmp/ccKiUCdL.s:360    .text.netbuf_data:0000000000000000 netbuf_data
     /tmp/ccKiUCdL.s:413    .text.netbuf_next:0000000000000000 $t
     /tmp/ccKiUCdL.s:419    .text.netbuf_next:0000000000000000 netbuf_next
     /tmp/ccKiUCdL.s:466    .text.netbuf_first:0000000000000000 $t
     /tmp/ccKiUCdL.s:472    .text.netbuf_first:0000000000000000 netbuf_first
                     .debug_frame:0000000000000010 $d

UNDEFINED SYMBOLS
memp_malloc
pbuf_free
memp_free
pbuf_alloc
port_halt
pbuf_cat
