ARM GAS  /tmp/ccKiUCdL.s 			page 1


   1              		.syntax unified
   2              		.cpu cortex-m4
   3              		.fpu softvfp
   4              		.eabi_attribute 20, 1
   5              		.eabi_attribute 21, 1
   6              		.eabi_attribute 23, 3
   7              		.eabi_attribute 24, 1
   8              		.eabi_attribute 25, 1
   9              		.eabi_attribute 26, 1
  10              		.eabi_attribute 30, 2
  11              		.eabi_attribute 34, 1
  12              		.eabi_attribute 18, 4
  13              		.thumb
  14              		.file	"netbuf.c"
  15              		.text
  16              	.Ltext0:
  17              		.cfi_sections	.debug_frame
  18              		.section	.text.netbuf_new,"ax",%progbits
  19              		.align	2
  20              		.p2align 4,,15
  21              		.global	netbuf_new
  22              		.thumb
  23              		.thumb_func
  24              		.type	netbuf_new, %function
  25              	netbuf_new:
  26              	.LFB7:
  27              		.file 1 "../../ext/lwip/src/api/netbuf.c"
  28              		.loc 1 57 0
  29              		.cfi_startproc
  30              		@ args = 0, pretend = 0, frame = 0
  31              		@ frame_needed = 0, uses_anonymous_args = 0
  32 0000 08B5     		push	{r3, lr}
  33              		.cfi_def_cfa_offset 8
  34              		.cfi_offset 3, -8
  35              		.cfi_offset 14, -4
  36              		.loc 1 60 0
  37 0002 0720     		movs	r0, #7
  38 0004 FFF7FEFF 		bl	memp_malloc
  39              	.LVL0:
  40              		.loc 1 61 0
  41 0008 20B1     		cbz	r0, .L2
  42              		.loc 1 62 0
  43 000a 0023     		movs	r3, #0
  44 000c 0360     		str	r3, [r0]
  45              		.loc 1 63 0
  46 000e 4360     		str	r3, [r0, #4]
  47              		.loc 1 64 0
  48 0010 8360     		str	r3, [r0, #8]
  49              		.loc 1 65 0
  50 0012 8381     		strh	r3, [r0, #12]	@ movhi
  51              	.L2:
  52              		.loc 1 79 0
  53 0014 08BD     		pop	{r3, pc}
  54              		.cfi_endproc
  55              	.LFE7:
  56              		.size	netbuf_new, .-netbuf_new
  57 0016 00BFAFF3 		.section	.text.netbuf_delete,"ax",%progbits
ARM GAS  /tmp/ccKiUCdL.s 			page 2


  57      0080AFF3 
  57      0080
  58              		.align	2
  59              		.p2align 4,,15
  60              		.global	netbuf_delete
  61              		.thumb
  62              		.thumb_func
  63              		.type	netbuf_delete, %function
  64              	netbuf_delete:
  65              	.LFB8:
  66              		.loc 1 88 0
  67              		.cfi_startproc
  68              		@ args = 0, pretend = 0, frame = 0
  69              		@ frame_needed = 0, uses_anonymous_args = 0
  70              	.LVL1:
  71 0000 10B5     		push	{r4, lr}
  72              		.cfi_def_cfa_offset 8
  73              		.cfi_offset 4, -8
  74              		.cfi_offset 14, -4
  75              		.loc 1 89 0
  76 0002 0446     		mov	r4, r0
  77 0004 60B1     		cbz	r0, .L7
  78              		.loc 1 90 0
  79 0006 0068     		ldr	r0, [r0]
  80              	.LVL2:
  81 0008 20B1     		cbz	r0, .L9
  82              		.loc 1 91 0
  83 000a FFF7FEFF 		bl	pbuf_free
  84              	.LVL3:
  85              		.loc 1 92 0
  86 000e 0023     		movs	r3, #0
  87 0010 6360     		str	r3, [r4, #4]
  88 0012 2360     		str	r3, [r4]
  89              	.L9:
  90              		.loc 1 94 0
  91 0014 2146     		mov	r1, r4
  92 0016 0720     		movs	r0, #7
  93              		.loc 1 96 0
  94 0018 BDE81040 		pop	{r4, lr}
  95              	.LVL4:
  96              		.loc 1 94 0
  97 001c FFF7FEBF 		b	memp_free
  98              	.LVL5:
  99              	.L7:
 100 0020 10BD     		pop	{r4, pc}
 101              		.cfi_endproc
 102              	.LFE8:
 103              		.size	netbuf_delete, .-netbuf_delete
 104 0022 00BFAFF3 		.section	.text.netbuf_alloc,"ax",%progbits
 104      0080AFF3 
 104      0080AFF3 
 104      0080
 105              		.align	2
 106              		.p2align 4,,15
 107              		.global	netbuf_alloc
 108              		.thumb
 109              		.thumb_func
ARM GAS  /tmp/ccKiUCdL.s 			page 3


 110              		.type	netbuf_alloc, %function
 111              	netbuf_alloc:
 112              	.LFB9:
 113              		.loc 1 108 0
 114              		.cfi_startproc
 115              		@ args = 0, pretend = 0, frame = 0
 116              		@ frame_needed = 0, uses_anonymous_args = 0
 117              	.LVL6:
 118 0000 38B5     		push	{r3, r4, r5, lr}
 119              		.cfi_def_cfa_offset 16
 120              		.cfi_offset 3, -16
 121              		.cfi_offset 4, -12
 122              		.cfi_offset 5, -8
 123              		.cfi_offset 14, -4
 124              		.loc 1 109 0
 125 0002 0446     		mov	r4, r0
 126              		.loc 1 108 0
 127 0004 0D46     		mov	r5, r1
 128              		.loc 1 109 0
 129 0006 A0B1     		cbz	r0, .L22
 130              		.loc 1 112 0
 131 0008 0068     		ldr	r0, [r0]
 132              	.LVL7:
 133 000a 08B1     		cbz	r0, .L16
 134              		.loc 1 113 0
 135 000c FFF7FEFF 		bl	pbuf_free
 136              	.LVL8:
 137              	.L16:
 138              		.loc 1 115 0
 139 0010 0020     		movs	r0, #0
 140 0012 0246     		mov	r2, r0
 141 0014 2946     		mov	r1, r5
 142 0016 FFF7FEFF 		bl	pbuf_alloc
 143              	.LVL9:
 144 001a 2060     		str	r0, [r4]
 145              		.loc 1 116 0
 146 001c 20B1     		cbz	r0, .L15
 147              		.loc 1 119 0
 148 001e 4289     		ldrh	r2, [r0, #10]
 149 0020 AA42     		cmp	r2, r5
 150 0022 02D3     		bcc	.L23
 151              	.L17:
 152              		.loc 1 121 0
 153 0024 6060     		str	r0, [r4, #4]
 154              		.loc 1 122 0
 155 0026 4068     		ldr	r0, [r0, #4]
 156              	.L15:
 157              		.loc 1 123 0
 158 0028 38BD     		pop	{r3, r4, r5, pc}
 159              	.LVL10:
 160              	.L23:
 161              		.loc 1 119 0 discriminator 1
 162 002a FFF7FEFF 		bl	port_halt
 163              	.LVL11:
 164 002e 2068     		ldr	r0, [r4]
 165 0030 F8E7     		b	.L17
 166              	.LVL12:
ARM GAS  /tmp/ccKiUCdL.s 			page 4


 167              	.L22:
 168              		.loc 1 109 0 discriminator 1
 169 0032 FFF7FEFF 		bl	port_halt
 170              	.LVL13:
 171 0036 2046     		mov	r0, r4
 172 0038 38BD     		pop	{r3, r4, r5, pc}
 173              		.cfi_endproc
 174              	.LFE9:
 175              		.size	netbuf_alloc, .-netbuf_alloc
 176 003a 00BFAFF3 		.section	.text.netbuf_free,"ax",%progbits
 176      0080
 177              		.align	2
 178              		.p2align 4,,15
 179              		.global	netbuf_free
 180              		.thumb
 181              		.thumb_func
 182              		.type	netbuf_free, %function
 183              	netbuf_free:
 184              	.LFB10:
 185              		.loc 1 132 0
 186              		.cfi_startproc
 187              		@ args = 0, pretend = 0, frame = 0
 188              		@ frame_needed = 0, uses_anonymous_args = 0
 189              	.LVL14:
 190 0000 10B5     		push	{r4, lr}
 191              		.cfi_def_cfa_offset 8
 192              		.cfi_offset 4, -8
 193              		.cfi_offset 14, -4
 194              		.loc 1 133 0
 195 0002 0446     		mov	r4, r0
 196 0004 38B1     		cbz	r0, .L30
 197              		.loc 1 134 0
 198 0006 0068     		ldr	r0, [r0]
 199              	.LVL15:
 200 0008 08B1     		cbz	r0, .L26
 201              		.loc 1 135 0
 202 000a FFF7FEFF 		bl	pbuf_free
 203              	.LVL16:
 204              	.L26:
 205              		.loc 1 137 0
 206 000e 0023     		movs	r3, #0
 207 0010 6360     		str	r3, [r4, #4]
 208 0012 2360     		str	r3, [r4]
 209 0014 10BD     		pop	{r4, pc}
 210              	.LVL17:
 211              	.L30:
 212              		.loc 1 138 0 discriminator 1
 213 0016 BDE81040 		pop	{r4, lr}
 214              		.loc 1 133 0 discriminator 1
 215 001a FFF7FEBF 		b	port_halt
 216              	.LVL18:
 217              		.cfi_endproc
 218              	.LFE10:
 219              		.size	netbuf_free, .-netbuf_free
 220 001e 00BF     		.section	.text.netbuf_ref,"ax",%progbits
 221              		.align	2
 222              		.p2align 4,,15
ARM GAS  /tmp/ccKiUCdL.s 			page 5


 223              		.global	netbuf_ref
 224              		.thumb
 225              		.thumb_func
 226              		.type	netbuf_ref, %function
 227              	netbuf_ref:
 228              	.LFB11:
 229              		.loc 1 151 0
 230              		.cfi_startproc
 231              		@ args = 0, pretend = 0, frame = 0
 232              		@ frame_needed = 0, uses_anonymous_args = 0
 233              	.LVL19:
 234 0000 70B5     		push	{r4, r5, r6, lr}
 235              		.cfi_def_cfa_offset 16
 236              		.cfi_offset 4, -16
 237              		.cfi_offset 5, -12
 238              		.cfi_offset 6, -8
 239              		.cfi_offset 14, -4
 240              		.loc 1 152 0
 241 0002 0446     		mov	r4, r0
 242              		.loc 1 151 0
 243 0004 0E46     		mov	r6, r1
 244 0006 1546     		mov	r5, r2
 245              		.loc 1 152 0
 246 0008 A8B1     		cbz	r0, .L39
 247              		.loc 1 153 0
 248 000a 0068     		ldr	r0, [r0]
 249              	.LVL20:
 250 000c 08B1     		cbz	r0, .L34
 251              		.loc 1 154 0
 252 000e FFF7FEFF 		bl	pbuf_free
 253              	.LVL21:
 254              	.L34:
 255              		.loc 1 156 0
 256 0012 0020     		movs	r0, #0
 257 0014 0146     		mov	r1, r0
 258 0016 0222     		movs	r2, #2
 259 0018 FFF7FEFF 		bl	pbuf_alloc
 260              	.LVL22:
 261 001c 0346     		mov	r3, r0
 262 001e 2060     		str	r0, [r4]
 263              		.loc 1 157 0
 264 0020 30B1     		cbz	r0, .L40
 265              		.loc 1 161 0
 266 0022 4660     		str	r6, [r0, #4]
 267              		.loc 1 162 0
 268 0024 0581     		strh	r5, [r0, #8]	@ movhi
 269 0026 4581     		strh	r5, [r0, #10]	@ movhi
 270              		.loc 1 164 0
 271 0028 0020     		movs	r0, #0
 272              		.loc 1 163 0
 273 002a 6360     		str	r3, [r4, #4]
 274              	.L33:
 275              		.loc 1 165 0
 276 002c 40B2     		sxtb	r0, r0
 277 002e 70BD     		pop	{r4, r5, r6, pc}
 278              	.LVL23:
 279              	.L40:
ARM GAS  /tmp/ccKiUCdL.s 			page 6


 280              		.loc 1 158 0
 281 0030 6060     		str	r0, [r4, #4]
 282              		.loc 1 159 0
 283 0032 FF20     		movs	r0, #255
 284 0034 FAE7     		b	.L33
 285              	.LVL24:
 286              	.L39:
 287              		.loc 1 152 0 discriminator 1
 288 0036 FFF7FEFF 		bl	port_halt
 289              	.LVL25:
 290 003a F220     		movs	r0, #242
 291 003c F6E7     		b	.L33
 292              		.cfi_endproc
 293              	.LFE11:
 294              		.size	netbuf_ref, .-netbuf_ref
 295 003e 00BF     		.section	.text.netbuf_chain,"ax",%progbits
 296              		.align	2
 297              		.p2align 4,,15
 298              		.global	netbuf_chain
 299              		.thumb
 300              		.thumb_func
 301              		.type	netbuf_chain, %function
 302              	netbuf_chain:
 303              	.LFB12:
 304              		.loc 1 175 0
 305              		.cfi_startproc
 306              		@ args = 0, pretend = 0, frame = 0
 307              		@ frame_needed = 0, uses_anonymous_args = 0
 308              	.LVL26:
 309 0000 38B5     		push	{r3, r4, r5, lr}
 310              		.cfi_def_cfa_offset 16
 311              		.cfi_offset 3, -16
 312              		.cfi_offset 4, -12
 313              		.cfi_offset 5, -8
 314              		.cfi_offset 14, -4
 315              		.loc 1 176 0
 316 0002 0446     		mov	r4, r0
 317              		.loc 1 175 0
 318 0004 0D46     		mov	r5, r1
 319              		.loc 1 176 0
 320 0006 60B1     		cbz	r0, .L43
 321              		.loc 1 177 0
 322 0008 59B1     		cbz	r1, .L43
 323              		.loc 1 178 0
 324 000a 0068     		ldr	r0, [r0]
 325              	.LVL27:
 326 000c 0968     		ldr	r1, [r1]
 327              	.LVL28:
 328 000e FFF7FEFF 		bl	pbuf_cat
 329              	.LVL29:
 330              		.loc 1 179 0
 331 0012 2368     		ldr	r3, [r4]
 332              		.loc 1 180 0
 333 0014 2946     		mov	r1, r5
 334              		.loc 1 179 0
 335 0016 6360     		str	r3, [r4, #4]
 336              		.loc 1 180 0
ARM GAS  /tmp/ccKiUCdL.s 			page 7


 337 0018 0720     		movs	r0, #7
 338              		.loc 1 181 0
 339 001a BDE83840 		pop	{r3, r4, r5, lr}
 340              	.LVL30:
 341              		.loc 1 180 0
 342 001e FFF7FEBF 		b	memp_free
 343              	.LVL31:
 344              	.L43:
 345              		.loc 1 181 0 discriminator 1
 346 0022 BDE83840 		pop	{r3, r4, r5, lr}
 347              		.loc 1 176 0 discriminator 1
 348 0026 FFF7FEBF 		b	port_halt
 349              	.LVL32:
 350              		.cfi_endproc
 351              	.LFE12:
 352              		.size	netbuf_chain, .-netbuf_chain
 353              		.section	.text.netbuf_data,"ax",%progbits
 354              		.align	2
 355              		.p2align 4,,15
 356              		.global	netbuf_data
 357              		.thumb
 358              		.thumb_func
 359              		.type	netbuf_data, %function
 360              	netbuf_data:
 361              	.LFB13:
 362              		.loc 1 194 0
 363              		.cfi_startproc
 364              		@ args = 0, pretend = 0, frame = 0
 365              		@ frame_needed = 0, uses_anonymous_args = 0
 366              	.LVL33:
 367 0000 08B5     		push	{r3, lr}
 368              		.cfi_def_cfa_offset 8
 369              		.cfi_offset 3, -8
 370              		.cfi_offset 14, -4
 371              		.loc 1 195 0
 372 0002 58B1     		cbz	r0, .L50
 373              		.loc 1 196 0
 374 0004 51B1     		cbz	r1, .L50
 375              		.loc 1 197 0
 376 0006 4AB1     		cbz	r2, .L50
 377              		.loc 1 199 0
 378 0008 4368     		ldr	r3, [r0, #4]
 379 000a 5BB1     		cbz	r3, .L51
 380              		.loc 1 202 0
 381 000c 5B68     		ldr	r3, [r3, #4]
 382 000e 0B60     		str	r3, [r1]
 383              		.loc 1 203 0
 384 0010 4368     		ldr	r3, [r0, #4]
 385 0012 5B89     		ldrh	r3, [r3, #10]
 386              		.loc 1 204 0
 387 0014 0020     		movs	r0, #0
 388              	.LVL34:
 389              		.loc 1 203 0
 390 0016 1380     		strh	r3, [r2]	@ movhi
 391              	.LVL35:
 392              	.L49:
 393              		.loc 1 205 0
ARM GAS  /tmp/ccKiUCdL.s 			page 8


 394 0018 40B2     		sxtb	r0, r0
 395 001a 08BD     		pop	{r3, pc}
 396              	.LVL36:
 397              	.L50:
 398              		.loc 1 195 0 discriminator 1
 399 001c FFF7FEFF 		bl	port_halt
 400              	.LVL37:
 401 0020 F220     		movs	r0, #242
 402 0022 F9E7     		b	.L49
 403              	.LVL38:
 404              	.L51:
 405              		.loc 1 200 0
 406 0024 FE20     		movs	r0, #254
 407              	.LVL39:
 408 0026 F7E7     		b	.L49
 409              		.cfi_endproc
 410              	.LFE13:
 411              		.size	netbuf_data, .-netbuf_data
 412 0028 AFF30080 		.section	.text.netbuf_next,"ax",%progbits
 412      AFF30080 
 413              		.align	2
 414              		.p2align 4,,15
 415              		.global	netbuf_next
 416              		.thumb
 417              		.thumb_func
 418              		.type	netbuf_next, %function
 419              	netbuf_next:
 420              	.LFB14:
 421              		.loc 1 219 0
 422              		.cfi_startproc
 423              		@ args = 0, pretend = 0, frame = 0
 424              		@ frame_needed = 0, uses_anonymous_args = 0
 425              	.LVL40:
 426 0000 08B5     		push	{r3, lr}
 427              		.cfi_def_cfa_offset 8
 428              		.cfi_offset 3, -8
 429              		.cfi_offset 14, -4
 430              		.loc 1 220 0
 431 0002 60B1     		cbz	r0, .L62
 432              		.loc 1 221 0
 433 0004 4368     		ldr	r3, [r0, #4]
 434 0006 1B68     		ldr	r3, [r3]
 435 0008 3BB1     		cbz	r3, .L61
 436              		.loc 1 225 0
 437 000a 1A68     		ldr	r2, [r3]
 438              		.loc 1 224 0
 439 000c 4360     		str	r3, [r0, #4]
 440              		.loc 1 220 0
 441 000e D2F10100 		rsbs	r0, r2, #1
 442              	.LVL41:
 443 0012 38BF     		it	cc
 444 0014 0020     		movcc	r0, #0
 445              	.L60:
 446              		.loc 1 229 0
 447 0016 40B2     		sxtb	r0, r0
 448 0018 08BD     		pop	{r3, pc}
 449              	.LVL42:
ARM GAS  /tmp/ccKiUCdL.s 			page 9


 450              	.L61:
 451              		.loc 1 222 0
 452 001a FF20     		movs	r0, #255
 453              	.LVL43:
 454 001c FBE7     		b	.L60
 455              	.LVL44:
 456              	.L62:
 457              		.loc 1 220 0 discriminator 1
 458 001e FFF7FEFF 		bl	port_halt
 459              	.LVL45:
 460 0022 FF20     		movs	r0, #255
 461 0024 F7E7     		b	.L60
 462              		.cfi_endproc
 463              	.LFE14:
 464              		.size	netbuf_next, .-netbuf_next
 465 0026 00BFAFF3 		.section	.text.netbuf_first,"ax",%progbits
 465      0080AFF3 
 465      0080
 466              		.align	2
 467              		.p2align 4,,15
 468              		.global	netbuf_first
 469              		.thumb
 470              		.thumb_func
 471              		.type	netbuf_first, %function
 472              	netbuf_first:
 473              	.LFB15:
 474              		.loc 1 240 0
 475              		.cfi_startproc
 476              		@ args = 0, pretend = 0, frame = 0
 477              		@ frame_needed = 0, uses_anonymous_args = 0
 478              		@ link register save eliminated.
 479              	.LVL46:
 480              		.loc 1 241 0
 481 0000 10B1     		cbz	r0, .L65
 482              		.loc 1 242 0
 483 0002 0368     		ldr	r3, [r0]
 484 0004 4360     		str	r3, [r0, #4]
 485 0006 7047     		bx	lr
 486              	.L65:
 487              		.loc 1 241 0 discriminator 1
 488 0008 FFF7FEBF 		b	port_halt
 489              	.LVL47:
 490              		.cfi_endproc
 491              	.LFE15:
 492              		.size	netbuf_first, .-netbuf_first
 493 000c AFF30080 		.text
 494              	.Letext0:
 495              		.file 2 "/usr/include/newlib/machine/_default_types.h"
 496              		.file 3 "/usr/include/newlib/stdint.h"
 497              		.file 4 "../../os/various/lwip_bindings/arch/cc.h"
 498              		.file 5 "../../ext/lwip/src/include/lwip/err.h"
 499              		.file 6 "../../ext/lwip/src/include/lwip/pbuf.h"
 500              		.file 7 "../../ext/lwip/src/include/ipv4/lwip/ip_addr.h"
 501              		.file 8 "../../ext/lwip/src/include/lwip/netbuf.h"
 502              		.file 9 "../../ext/lwip/src/include/lwip/memp.h"
 503              		.file 10 "../../os/ports/GCC/ARMCMx/chcore_v7m.h"