ARM GAS  /tmp/ccHspVc2.s 			page 1


   1              		.syntax unified
   2              		.cpu cortex-m4
   3              		.fpu softvfp
   4              		.eabi_attribute 20, 1
   5              		.eabi_attribute 21, 1
   6              		.eabi_attribute 23, 3
   7              		.eabi_attribute 24, 1
   8              		.eabi_attribute 25, 1
   9              		.eabi_attribute 26, 1
  10              		.eabi_attribute 30, 2
  11              		.eabi_attribute 34, 1
  12              		.eabi_attribute 18, 4
  13              		.thumb
  14              		.file	"netif.c"
  15              		.text
  16              	.Ltext0:
  17              		.cfi_sections	.debug_frame
  18              		.section	.text.netif_init,"ax",%progbits
  19              		.align	2
  20              		.p2align 4,,15
  21              		.global	netif_init
  22              		.thumb
  23              		.thumb_func
  24              		.type	netif_init, %function
  25              	netif_init:
  26              	.LFB7:
  27              		.file 1 "../../ext/lwip/src/core/netif.c"
  28              		.loc 1 107 0
  29              		.cfi_startproc
  30              		@ args = 0, pretend = 0, frame = 0
  31              		@ frame_needed = 0, uses_anonymous_args = 0
  32              		@ link register save eliminated.
  33 0000 7047     		bx	lr
  34              		.cfi_endproc
  35              	.LFE7:
  36              		.size	netif_init, .-netif_init
  37 0002 00BFAFF3 		.section	.text.netif_find,"ax",%progbits
  37      0080AFF3 
  37      0080AFF3 
  37      0080
  38              		.align	2
  39              		.p2align 4,,15
  40              		.global	netif_find
  41              		.thumb
  42              		.thumb_func
  43              		.type	netif_find, %function
  44              	netif_find:
  45              	.LFB11:
  46              		.loc 1 291 0
  47              		.cfi_startproc
  48              		@ args = 0, pretend = 0, frame = 0
  49              		@ frame_needed = 0, uses_anonymous_args = 0
  50              		@ link register save eliminated.
  51              	.LVL0:
  52              		.loc 1 291 0
  53 0000 10B4     		push	{r4}
  54              		.cfi_def_cfa_offset 4
ARM GAS  /tmp/ccHspVc2.s 			page 2


  55              		.cfi_offset 4, -4
  56              		.loc 1 295 0
  57 0002 D0B1     		cbz	r0, .L3
  58              		.loc 1 301 0
  59 0004 40F20003 		movw	r3, #:lower16:.LANCHOR0
  60 0008 C0F20003 		movt	r3, #:upper16:.LANCHOR0
  61              		.loc 1 299 0
  62 000c 8178     		ldrb	r1, [r0, #2]	@ zero_extendqisi2
  63              		.loc 1 301 0
  64 000e 1B68     		ldr	r3, [r3]
  65              		.loc 1 299 0
  66 0010 3039     		subs	r1, r1, #48
  67 0012 C9B2     		uxtb	r1, r1
  68              	.LVL1:
  69              		.loc 1 301 0
  70 0014 13B9     		cbnz	r3, .L5
  71 0016 0FE0     		b	.L9
  72              	.L4:
  73 0018 1B68     		ldr	r3, [r3]
  74              	.LVL2:
  75 001a 6BB1     		cbz	r3, .L9
  76              	.L5:
  77              		.loc 1 302 0
  78 001c 93F82C20 		ldrb	r2, [r3, #44]	@ zero_extendqisi2
  79 0020 8A42     		cmp	r2, r1
  80 0022 F9D1     		bne	.L4
  81              		.loc 1 302 0 is_stmt 0 discriminator 1
  82 0024 0478     		ldrb	r4, [r0]	@ zero_extendqisi2
  83 0026 93F82A20 		ldrb	r2, [r3, #42]	@ zero_extendqisi2
  84 002a 9442     		cmp	r4, r2
  85 002c F4D1     		bne	.L4
  86              		.loc 1 303 0 is_stmt 1
  87 002e 4478     		ldrb	r4, [r0, #1]	@ zero_extendqisi2
  88 0030 93F82B20 		ldrb	r2, [r3, #43]	@ zero_extendqisi2
  89 0034 9442     		cmp	r4, r2
  90 0036 EFD1     		bne	.L4
  91              	.L9:
  92              		.loc 1 296 0
  93 0038 1846     		mov	r0, r3
  94              	.LVL3:
  95              	.L3:
  96              		.loc 1 311 0
  97 003a 5DF8044B 		ldr	r4, [sp], #4
  98 003e 7047     		bx	lr
  99              		.cfi_endproc
 100              	.LFE11:
 101              		.size	netif_find, .-netif_find
 102              		.section	.text.netif_set_ipaddr,"ax",%progbits
 103              		.align	2
 104              		.p2align 4,,15
 105              		.global	netif_set_ipaddr
 106              		.thumb
 107              		.thumb_func
 108              		.type	netif_set_ipaddr, %function
 109              	netif_set_ipaddr:
 110              	.LFB12:
 111              		.loc 1 324 0
ARM GAS  /tmp/ccHspVc2.s 			page 3


 112              		.cfi_startproc
 113              		@ args = 0, pretend = 0, frame = 0
 114              		@ frame_needed = 0, uses_anonymous_args = 0
 115              	.LVL4:
 116 0000 70B5     		push	{r4, r5, r6, lr}
 117              		.cfi_def_cfa_offset 16
 118              		.cfi_offset 4, -16
 119              		.cfi_offset 5, -12
 120              		.cfi_offset 6, -8
 121              		.cfi_offset 14, -4
 122              		.loc 1 332 0
 123 0002 0E46     		mov	r6, r1
 124              		.loc 1 324 0
 125 0004 0546     		mov	r5, r0
 126              		.loc 1 332 0
 127 0006 002E     		cmp	r6, #0
 128 0008 2CD0     		beq	.L12
 129              		.loc 1 332 0 is_stmt 0 discriminator 1
 130 000a 3168     		ldr	r1, [r6]
 131              	.LVL5:
 132 000c 4468     		ldr	r4, [r0, #4]
 133 000e A142     		cmp	r1, r4
 134 0010 28D0     		beq	.L12
 135              		.loc 1 335 0 is_stmt 1
 136 0012 40F20003 		movw	r3, #:lower16:tcp_active_pcbs
 137 0016 C0F20003 		movt	r3, #:upper16:tcp_active_pcbs
 138 001a 1868     		ldr	r0, [r3]
 139              	.LVL6:
 140              		.loc 1 336 0
 141 001c 90B1     		cbz	r0, .L14
 142              		.loc 1 338 0
 143 001e 0268     		ldr	r2, [r0]
 144 0020 A242     		cmp	r2, r4
 145              		.loc 1 350 0
 146 0022 18BF     		it	ne
 147 0024 C068     		ldrne	r0, [r0, #12]
 148              	.LVL7:
 149              		.loc 1 338 0
 150 0026 06D0     		beq	.L34
 151              	.LVL8:
 152              	.L16:
 153              		.loc 1 336 0 discriminator 1
 154 0028 58B1     		cbz	r0, .L17
 155              	.L35:
 156              		.loc 1 338 0
 157 002a 0268     		ldr	r2, [r0]
 158 002c 6C68     		ldr	r4, [r5, #4]
 159 002e A242     		cmp	r2, r4
 160              		.loc 1 350 0
 161 0030 18BF     		it	ne
 162 0032 C068     		ldrne	r0, [r0, #12]
 163              	.LVL9:
 164              		.loc 1 338 0
 165 0034 F8D1     		bne	.L16
 166              	.L34:
 167              	.LBB15:
 168              		.loc 1 345 0
ARM GAS  /tmp/ccHspVc2.s 			page 4


 169 0036 C468     		ldr	r4, [r0, #12]
 170              	.LVL10:
 171              		.loc 1 347 0
 172 0038 FFF7FEFF 		bl	tcp_abort
 173              	.LVL11:
 174              		.loc 1 348 0
 175 003c 2046     		mov	r0, r4
 176              	.LBE15:
 177              		.loc 1 336 0
 178 003e 0028     		cmp	r0, #0
 179 0040 F3D1     		bne	.L35
 180              	.LVL12:
 181              	.L17:
 182 0042 3168     		ldr	r1, [r6]
 183              	.L14:
 184              		.loc 1 353 0
 185 0044 40F20003 		movw	r3, #:lower16:tcp_listen_pcbs
 186 0048 C0F20003 		movt	r3, #:upper16:tcp_listen_pcbs
 187 004c 1B68     		ldr	r3, [r3]
 188              	.LVL13:
 189 004e 4BB1     		cbz	r3, .L12
 190              	.LVL14:
 191              	.L20:
 192              		.loc 1 355 0
 193 0050 1A68     		ldr	r2, [r3]
 194 0052 22B1     		cbz	r2, .L19
 195              		.loc 1 355 0 is_stmt 0 discriminator 1
 196 0054 6868     		ldr	r0, [r5, #4]
 197 0056 8242     		cmp	r2, r0
 198              		.loc 1 359 0 is_stmt 1 discriminator 1
 199 0058 04BF     		itt	eq
 200 005a 1960     		streq	r1, [r3]
 201 005c 3168     		ldreq	r1, [r6]
 202              	.L19:
 203              		.loc 1 353 0
 204 005e DB68     		ldr	r3, [r3, #12]
 205              	.LVL15:
 206 0060 002B     		cmp	r3, #0
 207 0062 F5D1     		bne	.L20
 208              	.LVL16:
 209              	.L12:
 210              		.loc 1 367 0 discriminator 3
 211 0064 6960     		str	r1, [r5, #4]
 212 0066 70BD     		pop	{r4, r5, r6, pc}
 213              		.cfi_endproc
 214              	.LFE12:
 215              		.size	netif_set_ipaddr, .-netif_set_ipaddr
 216 0068 AFF30080 		.section	.text.netif_set_addr,"ax",%progbits
 216      AFF30080 
 217              		.align	2
 218              		.p2align 4,,15
 219              		.global	netif_set_addr
 220              		.thumb
 221              		.thumb_func
 222              		.type	netif_set_addr, %function
 223              	netif_set_addr:
 224              	.LFB9:
ARM GAS  /tmp/ccHspVc2.s 			page 5


 225              		.loc 1 223 0
 226              		.cfi_startproc
 227              		@ args = 0, pretend = 0, frame = 0
 228              		@ frame_needed = 0, uses_anonymous_args = 0
 229              	.LVL17:
 230 0000 70B5     		push	{r4, r5, r6, lr}
 231              		.cfi_def_cfa_offset 16
 232              		.cfi_offset 4, -16
 233              		.cfi_offset 5, -12
 234              		.cfi_offset 6, -8
 235              		.cfi_offset 14, -4
 236              		.loc 1 223 0
 237 0002 1446     		mov	r4, r2
 238 0004 1E46     		mov	r6, r3
 239 0006 0546     		mov	r5, r0
 240              		.loc 1 224 0
 241 0008 FFF7FEFF 		bl	netif_set_ipaddr
 242              	.LVL18:
 243              	.LBB16:
 244              	.LBB17:
 245              		.loc 1 413 0
 246 000c 04B1     		cbz	r4, .L37
 247 000e 2468     		ldr	r4, [r4]
 248              	.LVL19:
 249              	.L37:
 250 0010 AC60     		str	r4, [r5, #8]
 251              	.LVL20:
 252              	.LBE17:
 253              	.LBE16:
 254              	.LBB18:
 255              	.LBB19:
 256              		.loc 1 390 0
 257 0012 06B1     		cbz	r6, .L38
 258 0014 3668     		ldr	r6, [r6]
 259              	.LVL21:
 260              	.L38:
 261 0016 EE60     		str	r6, [r5, #12]
 262 0018 70BD     		pop	{r4, r5, r6, pc}
 263              	.LBE19:
 264              	.LBE18:
 265              		.cfi_endproc
 266              	.LFE9:
 267              		.size	netif_set_addr, .-netif_set_addr
 268 001a 00BFAFF3 		.section	.text.netif_add,"ax",%progbits
 268      0080
 269              		.align	2
 270              		.p2align 4,,15
 271              		.global	netif_add
 272              		.thumb
 273              		.thumb_func
 274              		.type	netif_add, %function
 275              	netif_add:
 276              	.LFB8:
 277              		.loc 1 141 0
 278              		.cfi_startproc
 279              		@ args = 12, pretend = 0, frame = 8
 280              		@ frame_needed = 0, uses_anonymous_args = 0
ARM GAS  /tmp/ccHspVc2.s 			page 6


 281              	.LVL22:
 282 0000 2DE9F042 		push	{r4, r5, r6, r7, r9, lr}
 283              		.cfi_def_cfa_offset 24
 284              		.cfi_offset 4, -24
 285              		.cfi_offset 5, -20
 286              		.cfi_offset 6, -16
 287              		.cfi_offset 7, -12
 288              		.cfi_offset 9, -8
 289              		.cfi_offset 14, -4
 290 0004 82B0     		sub	sp, sp, #8
 291              		.cfi_def_cfa_offset 32
 292              		.loc 1 141 0
 293 0006 0446     		mov	r4, r0
 294 0008 099E     		ldr	r6, [sp, #36]
 295 000a 9146     		mov	r9, r2
 296 000c 1F46     		mov	r7, r3
 297              		.loc 1 143 0
 298 000e 002E     		cmp	r6, #0
 299 0010 32D0     		beq	.L49
 300              	.LVL23:
 301              	.L42:
 302              		.loc 1 174 0
 303 0012 40F20005 		movw	r5, #:lower16:.LANCHOR1
 304              		.loc 1 173 0
 305 0016 089A     		ldr	r2, [sp, #32]
 306              		.loc 1 174 0
 307 0018 C0F20005 		movt	r5, #:upper16:.LANCHOR1
 308              		.loc 1 173 0
 309 001c E261     		str	r2, [r4, #28]
 310              		.loc 1 174 0
 311 001e 2B78     		ldrb	r3, [r5]	@ zero_extendqisi2
 312              		.loc 1 175 0
 313 0020 0A9A     		ldr	r2, [sp, #40]
 314              		.loc 1 174 0
 315 0022 84F82C30 		strb	r3, [r4, #44]
 316              		.loc 1 146 0
 317 0026 0020     		movs	r0, #0
 318              		.loc 1 174 0
 319 0028 0133     		adds	r3, r3, #1
 320              		.loc 1 146 0
 321 002a 6060     		str	r0, [r4, #4]
 322              		.loc 1 147 0
 323 002c A060     		str	r0, [r4, #8]
 324              		.loc 1 148 0
 325 002e E060     		str	r0, [r4, #12]
 326              		.loc 1 149 0
 327 0030 84F82900 		strb	r0, [r4, #41]
 328              		.loc 1 175 0
 329 0034 2261     		str	r2, [r4, #16]
 330              	.LVL24:
 331              	.LBB20:
 332              	.LBB21:
 333              		.loc 1 224 0
 334 0036 2046     		mov	r0, r4
 335              	.LBE21:
 336              	.LBE20:
 337              		.loc 1 174 0
ARM GAS  /tmp/ccHspVc2.s 			page 7


 338 0038 2B70     		strb	r3, [r5]
 339              	.LBB27:
 340              	.LBB26:
 341              		.loc 1 224 0
 342 003a FFF7FEFF 		bl	netif_set_ipaddr
 343              	.LVL25:
 344              	.LBB22:
 345              	.LBB23:
 346              		.loc 1 413 0
 347 003e 4B46     		mov	r3, r9
 348 0040 B9F1000F 		cmp	r9, #0
 349 0044 01D0     		beq	.L43
 350              	.LVL26:
 351 0046 D9F80030 		ldr	r3, [r9]
 352              	.LVL27:
 353              	.L43:
 354 004a A360     		str	r3, [r4, #8]
 355              	.LVL28:
 356              	.LBE23:
 357              	.LBE22:
 358              	.LBB24:
 359              	.LBB25:
 360              		.loc 1 390 0
 361 004c 3B46     		mov	r3, r7
 362 004e 07B1     		cbz	r7, .L44
 363              	.LVL29:
 364 0050 3B68     		ldr	r3, [r7]
 365              	.LVL30:
 366              	.L44:
 367 0052 E360     		str	r3, [r4, #12]
 368              	.LBE25:
 369              	.LBE24:
 370              	.LBE26:
 371              	.LBE27:
 372              		.loc 1 184 0
 373 0054 2046     		mov	r0, r4
 374 0056 B047     		blx	r6
 375              	.LVL31:
 376 0058 50B9     		cbnz	r0, .L48
 377              		.loc 1 189 0
 378 005a 40F20003 		movw	r3, #:lower16:.LANCHOR0
 379 005e C0F20003 		movt	r3, #:upper16:.LANCHOR0
 380              		.loc 1 208 0
 381 0062 2046     		mov	r0, r4
 382              		.loc 1 189 0
 383 0064 1A68     		ldr	r2, [r3]
 384 0066 2260     		str	r2, [r4]
 385              		.loc 1 190 0
 386 0068 1C60     		str	r4, [r3]
 387              		.loc 1 209 0
 388 006a 02B0     		add	sp, sp, #8
 389              		@ sp needed
 390 006c BDE8F082 		pop	{r4, r5, r6, r7, r9, pc}
 391              	.LVL32:
 392              	.L48:
 393              		.loc 1 185 0
 394 0070 0020     		movs	r0, #0
ARM GAS  /tmp/ccHspVc2.s 			page 8


 395              		.loc 1 209 0
 396 0072 02B0     		add	sp, sp, #8
 397              		@ sp needed
 398 0074 BDE8F082 		pop	{r4, r5, r6, r7, r9, pc}
 399              	.LVL33:
 400              	.L49:
 401              		.loc 1 143 0 discriminator 1
 402 0078 0191     		str	r1, [sp, #4]
 403 007a FFF7FEFF 		bl	port_halt
 404              	.LVL34:
 405 007e 0199     		ldr	r1, [sp, #4]
 406 0080 C7E7     		b	.L42
 407              		.cfi_endproc
 408              	.LFE8:
 409              		.size	netif_add, .-netif_add
 410 0082 00BFAFF3 		.section	.text.netif_set_gw,"ax",%progbits
 410      0080AFF3 
 410      0080AFF3 
 410      0080
 411              		.align	2
 412              		.p2align 4,,15
 413              		.global	netif_set_gw
 414              		.thumb
 415              		.thumb_func
 416              		.type	netif_set_gw, %function
 417              	netif_set_gw:
 418              	.LFB13:
 419              		.loc 1 389 0
 420              		.cfi_startproc
 421              		@ args = 0, pretend = 0, frame = 0
 422              		@ frame_needed = 0, uses_anonymous_args = 0
 423              		@ link register save eliminated.
 424              	.LVL35:
 425              		.loc 1 390 0
 426 0000 01B1     		cbz	r1, .L51
 427              		.loc 1 390 0 is_stmt 0 discriminator 1
 428 0002 0968     		ldr	r1, [r1]
 429              	.LVL36:
 430              	.L51:
 431              		.loc 1 390 0 discriminator 3
 432 0004 C160     		str	r1, [r0, #12]
 433 0006 7047     		bx	lr
 434              		.cfi_endproc
 435              	.LFE13:
 436              		.size	netif_set_gw, .-netif_set_gw
 437 0008 AFF30080 		.section	.text.netif_set_netmask,"ax",%progbits
 437      AFF30080 
 438              		.align	2
 439              		.p2align 4,,15
 440              		.global	netif_set_netmask
 441              		.thumb
 442              		.thumb_func
 443              		.type	netif_set_netmask, %function
 444              	netif_set_netmask:
 445              	.LFB14:
 446              		.loc 1 410 0 is_stmt 1
 447              		.cfi_startproc
ARM GAS  /tmp/ccHspVc2.s 			page 9


 448              		@ args = 0, pretend = 0, frame = 0
 449              		@ frame_needed = 0, uses_anonymous_args = 0
 450              		@ link register save eliminated.
 451              	.LVL37:
 452              		.loc 1 413 0
 453 0000 01B1     		cbz	r1, .L54
 454              		.loc 1 413 0 is_stmt 0 discriminator 1
 455 0002 0968     		ldr	r1, [r1]
 456              	.LVL38:
 457              	.L54:
 458              		.loc 1 413 0 discriminator 3
 459 0004 8160     		str	r1, [r0, #8]
 460 0006 7047     		bx	lr
 461              		.cfi_endproc
 462              	.LFE14:
 463              		.size	netif_set_netmask, .-netif_set_netmask
 464 0008 AFF30080 		.section	.text.netif_set_default,"ax",%progbits
 464      AFF30080 
 465              		.align	2
 466              		.p2align 4,,15
 467              		.global	netif_set_default
 468              		.thumb
 469              		.thumb_func
 470              		.type	netif_set_default, %function
 471              	netif_set_default:
 472              	.LFB15:
 473              		.loc 1 431 0 is_stmt 1
 474              		.cfi_startproc
 475              		@ args = 0, pretend = 0, frame = 0
 476              		@ frame_needed = 0, uses_anonymous_args = 0
 477              		@ link register save eliminated.
 478              	.LVL39:
 479              		.loc 1 439 0
 480 0000 40F20003 		movw	r3, #:lower16:.LANCHOR2
 481 0004 C0F20003 		movt	r3, #:upper16:.LANCHOR2
 482 0008 1860     		str	r0, [r3]
 483 000a 7047     		bx	lr
 484              		.cfi_endproc
 485              	.LFE15:
 486              		.size	netif_set_default, .-netif_set_default
 487 000c AFF30080 		.section	.text.netif_set_up,"ax",%progbits
 488              		.align	2
 489              		.p2align 4,,15
 490              		.global	netif_set_up
 491              		.thumb
 492              		.thumb_func
 493              		.type	netif_set_up, %function
 494              	netif_set_up:
 495              	.LFB16:
 496              		.loc 1 454 0
 497              		.cfi_startproc
 498              		@ args = 0, pretend = 0, frame = 0
 499              		@ frame_needed = 0, uses_anonymous_args = 0
 500              		@ link register save eliminated.
 501              	.LVL40:
 502              		.loc 1 455 0
 503 0000 90F82930 		ldrb	r3, [r0, #41]	@ zero_extendqisi2
ARM GAS  /tmp/ccHspVc2.s 			page 10


 504 0004 DA07     		lsls	r2, r3, #31
 505 0006 07D4     		bmi	.L57
 506              		.loc 1 456 0
 507 0008 43F00102 		orr	r2, r3, #1
 508              		.loc 1 467 0
 509 000c 03F03003 		and	r3, r3, #48
 510 0010 302B     		cmp	r3, #48
 511              		.loc 1 456 0
 512 0012 80F82920 		strb	r2, [r0, #41]
 513              		.loc 1 467 0
 514 0016 00D0     		beq	.L61
 515              	.L57:
 516 0018 7047     		bx	lr
 517              	.L61:
 518              		.loc 1 468 0
 519 001a 011D     		adds	r1, r0, #4
 520 001c FFF7FEBF 		b	etharp_request
 521              	.LVL41:
 522              		.cfi_endproc
 523              	.LFE16:
 524              		.size	netif_set_up, .-netif_set_up
 525              		.section	.text.netif_set_down,"ax",%progbits
 526              		.align	2
 527              		.p2align 4,,15
 528              		.global	netif_set_down
 529              		.thumb
 530              		.thumb_func
 531              		.type	netif_set_down, %function
 532              	netif_set_down:
 533              	.LFB17:
 534              		.loc 1 491 0
 535              		.cfi_startproc
 536              		@ args = 0, pretend = 0, frame = 0
 537              		@ frame_needed = 0, uses_anonymous_args = 0
 538              		@ link register save eliminated.
 539              	.LVL42:
 540              		.loc 1 492 0
 541 0000 90F82930 		ldrb	r3, [r0, #41]	@ zero_extendqisi2
 542 0004 D907     		lsls	r1, r3, #31
 543 0006 05D5     		bpl	.L62
 544              		.loc 1 493 0
 545 0008 23F00101 		bic	r1, r3, #1
 546 000c 80F82910 		strb	r1, [r0, #41]
 547              		.loc 1 499 0
 548 0010 9906     		lsls	r1, r3, #26
 549 0012 00D4     		bmi	.L69
 550              	.L62:
 551 0014 7047     		bx	lr
 552              	.L69:
 553              		.loc 1 500 0
 554 0016 FFF7FEBF 		b	etharp_cleanup_netif
 555              	.LVL43:
 556              		.cfi_endproc
 557              	.LFE17:
 558              		.size	netif_set_down, .-netif_set_down
 559 001a 00BFAFF3 		.section	.text.netif_remove,"ax",%progbits
 559      0080
ARM GAS  /tmp/ccHspVc2.s 			page 11


 560              		.align	2
 561              		.p2align 4,,15
 562              		.global	netif_remove
 563              		.thumb
 564              		.thumb_func
 565              		.type	netif_remove, %function
 566              	netif_remove:
 567              	.LFB10:
 568              		.loc 1 236 0
 569              		.cfi_startproc
 570              		@ args = 0, pretend = 0, frame = 0
 571              		@ frame_needed = 0, uses_anonymous_args = 0
 572              	.LVL44:
 573 0000 10B5     		push	{r4, lr}
 574              		.cfi_def_cfa_offset 8
 575              		.cfi_offset 4, -8
 576              		.cfi_offset 14, -4
 577              		.loc 1 237 0
 578 0002 0446     		mov	r4, r0
 579 0004 10B3     		cbz	r0, .L70
 580              		.loc 1 247 0
 581 0006 90F82930 		ldrb	r3, [r0, #41]	@ zero_extendqisi2
 582 000a DB07     		lsls	r3, r3, #31
 583 000c 1FD4     		bmi	.L87
 584              	.LVL45:
 585              	.L73:
 586              		.loc 1 255 0
 587 000e 40F20003 		movw	r3, #:lower16:.LANCHOR0
 588 0012 C0F20003 		movt	r3, #:upper16:.LANCHOR0
 589 0016 1A68     		ldr	r2, [r3]
 590 0018 A242     		cmp	r2, r4
 591 001a 0CD0     		beq	.L76
 592              	.LVL46:
 593              	.LBB28:
 594              		.loc 1 260 0 discriminator 1
 595 001c B2B1     		cbz	r2, .L70
 596              		.loc 1 261 0
 597 001e 1368     		ldr	r3, [r2]
 598 0020 A342     		cmp	r3, r4
 599 0022 07D0     		beq	.L88
 600              	.LVL47:
 601              		.loc 1 260 0
 602 0024 2BB1     		cbz	r3, .L89
 603              	.L77:
 604              		.loc 1 261 0
 605 0026 1A68     		ldr	r2, [r3]
 606 0028 A242     		cmp	r2, r4
 607 002a 04D0     		beq	.L76
 608 002c 1346     		mov	r3, r2
 609              	.LVL48:
 610              		.loc 1 260 0
 611 002e 002B     		cmp	r3, #0
 612 0030 F9D1     		bne	.L77
 613              	.LVL49:
 614              	.L89:
 615 0032 10BD     		pop	{r4, pc}
 616              	.LVL50:
ARM GAS  /tmp/ccHspVc2.s 			page 12


 617              	.L88:
 618              		.loc 1 261 0
 619 0034 1346     		mov	r3, r2
 620              	.LVL51:
 621              	.L76:
 622              		.loc 1 262 0
 623 0036 2268     		ldr	r2, [r4]
 624 0038 1A60     		str	r2, [r3]
 625              	.LBE28:
 626              		.loc 1 271 0
 627 003a 40F20003 		movw	r3, #:lower16:.LANCHOR2
 628 003e C0F20003 		movt	r3, #:upper16:.LANCHOR2
 629 0042 1A68     		ldr	r2, [r3]
 630 0044 A242     		cmp	r2, r4
 631              	.LVL52:
 632              	.LBB29:
 633              	.LBB30:
 634              		.loc 1 439 0
 635 0046 04BF     		itt	eq
 636 0048 0022     		moveq	r2, #0
 637 004a 1A60     		streq	r2, [r3]
 638              	.LVL53:
 639              	.L70:
 640 004c 10BD     		pop	{r4, pc}
 641              	.LVL54:
 642              	.L87:
 643              	.LBE30:
 644              	.LBE29:
 645              		.loc 1 249 0
 646 004e FFF7FEFF 		bl	netif_set_down
 647              	.LVL55:
 648 0052 DCE7     		b	.L73
 649              		.cfi_endproc
 650              	.LFE10:
 651              		.size	netif_remove, .-netif_remove
 652 0054 AFF30080 		.section	.text.netif_set_link_up,"ax",%progbits
 652      AFF30080 
 652      AFF30080 
 653              		.align	2
 654              		.p2align 4,,15
 655              		.global	netif_set_link_up
 656              		.thumb
 657              		.thumb_func
 658              		.type	netif_set_link_up, %function
 659              	netif_set_link_up:
 660              	.LFB18:
 661              		.loc 1 536 0
 662              		.cfi_startproc
 663              		@ args = 0, pretend = 0, frame = 0
 664              		@ frame_needed = 0, uses_anonymous_args = 0
 665              		@ link register save eliminated.
 666              	.LVL56:
 667              		.loc 1 537 0
 668 0000 90F82930 		ldrb	r3, [r0, #41]	@ zero_extendqisi2
 669 0004 DA06     		lsls	r2, r3, #27
 670 0006 07D4     		bmi	.L90
 671              		.loc 1 538 0
ARM GAS  /tmp/ccHspVc2.s 			page 13


 672 0008 43F01002 		orr	r2, r3, #16
 673              		.loc 1 555 0
 674 000c 03F02103 		and	r3, r3, #33
 675 0010 212B     		cmp	r3, #33
 676              		.loc 1 538 0
 677 0012 80F82920 		strb	r2, [r0, #41]
 678              		.loc 1 555 0
 679 0016 00D0     		beq	.L94
 680              	.L90:
 681 0018 7047     		bx	lr
 682              	.L94:
 683              		.loc 1 556 0
 684 001a 011D     		adds	r1, r0, #4
 685 001c FFF7FEBF 		b	etharp_request
 686              	.LVL57:
 687              		.cfi_endproc
 688              	.LFE18:
 689              		.size	netif_set_link_up, .-netif_set_link_up
 690              		.section	.text.netif_set_link_down,"ax",%progbits
 691              		.align	2
 692              		.p2align 4,,15
 693              		.global	netif_set_link_down
 694              		.thumb
 695              		.thumb_func
 696              		.type	netif_set_link_down, %function
 697              	netif_set_link_down:
 698              	.LFB19:
 699              		.loc 1 575 0
 700              		.cfi_startproc
 701              		@ args = 0, pretend = 0, frame = 0
 702              		@ frame_needed = 0, uses_anonymous_args = 0
 703              		@ link register save eliminated.
 704              	.LVL58:
 705              		.loc 1 576 0
 706 0000 90F82930 		ldrb	r3, [r0, #41]	@ zero_extendqisi2
 707 0004 D906     		lsls	r1, r3, #27
 708              		.loc 1 577 0
 709 0006 44BF     		itt	mi
 710 0008 23F01003 		bicmi	r3, r3, #16
 711 000c 80F82930 		strbmi	r3, [r0, #41]
 712 0010 7047     		bx	lr
 713              		.cfi_endproc
 714              	.LFE19:
 715              		.size	netif_set_link_down, .-netif_set_link_down
 716              		.global	netif_default
 717              		.global	netif_list
 718 0012 00BFAFF3 		.section	.bss.netif_list,"aw",%nobits
 718      0080AFF3 
 718      0080AFF3 
 718      0080
 719              		.align	2
 720              		.set	.LANCHOR0,. + 0
 721              		.type	netif_list, %object
 722              		.size	netif_list, 4
 723              	netif_list:
 724 0000 00000000 		.space	4
 725              		.section	.bss.netif_default,"aw",%nobits
ARM GAS  /tmp/ccHspVc2.s 			page 14


 726              		.align	2
 727              		.set	.LANCHOR2,. + 0
 728              		.type	netif_default, %object
 729              		.size	netif_default, 4
 730              	netif_default:
 731 0000 00000000 		.space	4
 732              		.section	.bss.netif_num,"aw",%nobits
 733              		.set	.LANCHOR1,. + 0
 734              		.type	netif_num, %object
 735              		.size	netif_num, 1
 736              	netif_num:
 737 0000 00       		.space	1
 738              		.text
 739              	.Letext0:
 740              		.file 2 "/usr/include/newlib/machine/_default_types.h"
 741              		.file 3 "/usr/include/newlib/stdint.h"
 742              		.file 4 "../../os/various/lwip_bindings/arch/cc.h"
 743              		.file 5 "../../ext/lwip/src/include/ipv4/lwip/ip_addr.h"
 744              		.file 6 "../../ext/lwip/src/include/lwip/err.h"
 745              		.file 7 "../../ext/lwip/src/include/lwip/pbuf.h"
 746              		.file 8 "../../ext/lwip/src/include/lwip/netif.h"
 747              		.file 9 "../../ext/lwip/src/include/lwip/tcp.h"
 748              		.file 10 "../../ext/lwip/src/include/lwip/tcp_impl.h"
 749              		.file 11 "../../ext/lwip/src/include/lwip/memp.h"
 750              		.file 12 "../../os/ports/GCC/ARMCMx/chcore_v7m.h"
 751              		.file 13 "../../ext/lwip/src/include/netif/etharp.h"