ARM GAS  /tmp/ccHspVc2.s 			page 1


   1              		.syntax unified
   2              		.cpu cortex-m4
   3              		.fpu softvfp
   4              		.eabi_attribute 20, 1
   5              		.eabi_attribute 21, 1
   6              		.eabi_attribute 23, 3
   7              		.eabi_attribute 24, 1
   8              		.eabi_attribute 25, 1
   9              		.eabi_attribute 26, 1
  10              		.eabi_attribute 30, 2
  11              		.eabi_attribute 34, 1
  12              		.eabi_attribute 18, 4
  13              		.thumb
  14              		.file	"netif.c"
  15              		.text
  16              	.Ltext0:
  17              		.cfi_sections	.debug_frame
  18              		.section	.text.netif_init,"ax",%progbits
  19              		.align	2
  20              		.p2align 4,,15
  21              		.global	netif_init
  22              		.thumb
  23              		.thumb_func
  24              		.type	netif_init, %function
  25              	netif_init:
  26              	.LFB7:
  27              		.file 1 "../../ext/lwip/src/core/netif.c"
  28              		.loc 1 107 0
  29              		.cfi_startproc
  30              		@ args = 0, pretend = 0, frame = 0
  31              		@ frame_needed = 0, uses_anonymous_args = 0
  32              		@ link register save eliminated.
  33 0000 7047     		bx	lr
  34              		.cfi_endproc
  35              	.LFE7:
  36              		.size	netif_init, .-netif_init
  37 0002 00BFAFF3 		.section	.text.netif_find,"ax",%progbits
  37      0080AFF3 
  37      0080AFF3 
  37      0080
  38              		.align	2
  39              		.p2align 4,,15
  40              		.global	netif_find
  41              		.thumb
  42              		.thumb_func
  43              		.type	netif_find, %function
  44              	netif_find:
  45              	.LFB11:
  46              		.loc 1 291 0
  47              		.cfi_startproc
  48              		@ args = 0, pretend = 0, frame = 0
  49              		@ frame_needed = 0, uses_anonymous_args = 0
  50              		@ link register save eliminated.
  51              	.LVL0:
  52              		.loc 1 291 0
  53 0000 10B4     		push	{r4}
  54              		.cfi_def_cfa_offset 4
ARM GAS  /tmp/ccHspVc2.s 			page 2


  55              		.cfi_offset 4, -4
  56              		.loc 1 295 0
  57 0002 D0B1     		cbz	r0, .L3
  58              		.loc 1 301 0
  59 0004 40F20003 		movw	r3, #:lower16:.LANCHOR0
  60 0008 C0F20003 		movt	r3, #:upper16:.LANCHOR0
  61              		.loc 1 299 0
  62 000c 8178     		ldrb	r1, [r0, #2]	@ zero_extendqisi2
  63              		.loc 1 301 0
  64 000e 1B68     		ldr	r3, [r3]
  65              		.loc 1 299 0
  66 0010 3039     		subs	r1, r1, #48
  67 0012 C9B2     		uxtb	r1, r1
  68              	.LVL1:
  69              		.loc 1 301 0
  70 0014 13B9     		cbnz	r3, .L5
  71 0016 0FE0     		b	.L9
  72              	.L4:
  73 0018 1B68     		ldr	r3, [r3]
  74              	.LVL2:
  75 001a 6BB1     		cbz	r3, .L9
  76              	.L5:
  77              		.loc 1 302 0
  78 001c 93F82C20 		ldrb	r2, [r3, #44]	@ zero_extendqisi2
  79 0020 8A42     		cmp	r2, r1
  80 0022 F9D1     		bne	.L4
  81              		.loc 1 302 0 is_stmt 0 discriminator 1
  82 0024 0478     		ldrb	r4, [r0]	@ zero_extendqisi2
  83 0026 93F82A20 		ldrb	r2, [r3, #42]	@ zero_extendqisi2
  84 002a 9442     		cmp	r4, r2
  85 002c F4D1     		bne	.L4
  86              		.loc 1 303 0 is_stmt 1
  87 002e 4478     		ldrb	r4, [r0, #1]	@ zero_extendqisi2
  88 0030 93F82B20 		ldrb	r2, [r3, #43]	@ zero_extendqisi2
  89 0034 9442     		cmp	r4, r2
  90 0036 EFD1     		bne	.L4
  91              	.L9:
  92              		.loc 1 296 0
  93 0038 1846     		mov	r0, r3
  94              	.LVL3:
  95              	.L3:
  96              		.loc 1 311 0
  97 003a 5DF8044B 		ldr	r4, [sp], #4
  98 003e 7047     		bx	lr
  99              		.cfi_endproc
 100              	.LFE11:
 101              		.size	netif_find, .-netif_find
 102              		.section	.text.netif_set_ipaddr,"ax",%progbits
 103              		.align	2
 104              		.p2align 4,,15
 105              		.global	netif_set_ipaddr
 106              		.thumb
 107              		.thumb_func
 108              		.type	netif_set_ipaddr, %function
 109              	netif_set_ipaddr:
 110              	.LFB12:
 111              		.loc 1 324 0
ARM GAS  /tmp/ccHspVc2.s 			page 3


 112              		.cfi_startproc
 113              		@ args = 0, pretend = 0, frame = 0
 114              		@ frame_needed = 0, uses_anonymous_args = 0
 115              	.LVL4:
 116 0000 70B5     		push	{r4, r5, r6, lr}
 117              		.cfi_def_cfa_offset 16
 118              		.cfi_offset 4, -16
 119              		.cfi_offset 5, -12
 120              		.cfi_offset 6, -8
 121              		.cfi_offset 14, -4
 122              		.loc 1 332 0
 123 0002 0E46     		mov	r6, r1
 124              		.loc 1 324 0
 125 0004 0546     		mov	r5, r0
 126              		.loc 1 332 0
 127 0006 002E     		cmp	r6, #0
 128 0008 2CD0     		beq	.L12
 129              		.loc 1 332 0 is_stmt 0 discriminator 1
 130 000a 3168     		ldr	r1, [r6]
 131              	.LVL5:
 132 000c 4468     		ldr	r4, [r0, #4]
 133 000e A142     		cmp	r1, r4
 134 0010 28D0     		beq	.L12
 135              		.loc 1 335 0 is_stmt 1
 136 0012 40F20003 		movw	r3, #:lower16:tcp_active_pcbs
 137 0016 C0F20003 		movt	r3, #:upper16:tcp_active_pcbs
 138 001a 1868     		ldr	r0, [r3]
 139              	.LVL6:
 140              		.loc 1 336 0
 141 001c 90B1     		cbz	r0, .L14
 142              		.loc 1 338 0
 143 001e 0268     		ldr	r2, [r0]
 144 0020 A242     		cmp	r2, r4
 145              		.loc 1 350 0
 146 0022 18BF     		it	ne
 147 0024 C068     		ldrne	r0, [r0, #12]
 148              	.LVL7:
 149              		.loc 1 338 0
 150 0026 06D0     		beq	.L34
 151              	.LVL8:
 152              	.L16:
 153              		.loc 1 336 0 discriminator 1
 154 0028 58B1     		cbz	r0, .L17
 155              	.L35:
 156              		.loc 1 338 0
 157 002a 0268     		ldr	r2, [r0]
 158 002c 6C68     		ldr	r4, [r5, #4]
 159 002e A242     		cmp	r2, r4
 160              		.loc 1 350 0
 161 0030 18BF     		it	ne
 162 0032 C068     		ldrne	r0, [r0, #12]
 163              	.LVL9:
 164              		.loc 1 338 0
 165 0034 F8D1     		bne	.L16
 166              	.L34:
 167              	.LBB15:
 168              		.loc 1 345 0
ARM GAS  /tmp/ccHspVc2.s 			page 4


 169 0036 C468     		ldr	r4, [r0, #12]
 170              	.LVL10:
 171              		.loc 1 347 0
 172 0038 FFF7FEFF 		bl	tcp_abort
 173              	.LVL11:
 174              		.loc 1 348 0
 175 003c 2046     		mov	r0, r4
 176              	.LBE15:
 177              		.loc 1 336 0
 178 003e 0028     		cmp	r0, #0
 179 0040 F3D1     		bne	.L35
 180              	.LVL12:
 181              	.L17:
 182 0042 3168     		ldr	r1, [r6]
 183              	.L14:
 184              		.loc 1 353 0
 185 0044 40F20003 		movw	r3, #:lower16:tcp_listen_pcbs
 186 0048 C0F20003 		movt	r3, #:upper16:tcp_listen_pcbs
 187 004c 1B68     		ldr	r3, [r3]
 188              	.LVL13:
 189 004e 4BB1     		cbz	r3, .L12
 190              	.LVL14:
 191              	.L20:
 192              		.loc 1 355 0
 193 0050 1A68     		ldr	r2, [r3]
 194 0052 22B1     		cbz	r2, .L19
 195              		.loc 1 355 0 is_stmt 0 discriminator 1
 196 0054 6868     		ldr	r0, [r5, #4]
 197 0056 8242     		cmp	r2, r0
 198              		.loc 1 359 0 is_stmt 1 discriminator 1
 199 0058 04BF     		itt	eq
 200 005a 1960     		streq	r1, [r3]
 201 005c 3168     		ldreq	r1, [r6]
 202              	.L19:
 203              		.loc 1 353 0
 204 005e DB68     		ldr	r3, [r3, #12]
 205              	.LVL15:
 206 0060 002B     		cmp	r3, #0
 207 0062 F5D1     		bne	.L20
 208              	.LVL16:
 209              	.L12:
 210              		.loc 1 367 0 discriminator 3
 211 0064 6960     		str	r1, [r5, #4]
 212 0066 70BD     		pop	{r4, r5, r6, pc}
 213              		.cfi_endproc
 214              	.LFE12:
 215              		.size	netif_set_ipaddr, .-netif_set_ipaddr
 216 0068 AFF30080 		.section	.text.netif_set_addr,"ax",%progbits
 216      AFF30080 
 217              		.align	2
 218              		.p2align 4,,15
 219              		.global	netif_set_addr
 220              		.thumb
 221              		.thumb_func
 222              		.type	netif_set_addr, %function
 223              	netif_set_addr:
 224              	.LFB9:
ARM GAS  /tmp/ccHspVc2.s 			page 5


 225              		.loc 1 223 0
 226              		.cfi_startproc
 227              		@ args = 0, pretend = 0, frame = 0
 228              		@ frame_needed = 0, uses_anonymous_args = 0
 229              	.LVL17:
 230 0000 70B5     		push	{r4, r5, r6, lr}
 231              		.cfi_def_cfa_offset 16
 232              		.cfi_offset 4, -16
 233              		.cfi_offset 5, -12
 234              		.cfi_offset 6, -8
 235              		.cfi_offset 14, -4
 236              		.loc 1 223 0
 237 0002 1446     		mov	r4, r2
 238 0004 1E46     		mov	r6, r3
 239 0006 0546     		mov	r5, r0
 240              		.loc 1 224 0
 241 0008 FFF7FEFF 		bl	netif_set_ipaddr
 242              	.LVL18:
 243              	.LBB16:
 244              	.LBB17:
 245              		.loc 1 413 0
 246 000c 04B1     		cbz	r4, .L37
 247 000e 2468     		ldr	r4, [r4]
 248              	.LVL19:
 249              	.L37:
 250 0010 AC60     		str	r4, [r5, #8]
 251              	.LVL20:
 252              	.LBE17:
 253              	.LBE16:
 254              	.LBB18:
 255              	.LBB19:
 256              		.loc 1 390 0
 257 0012 06B1     		cbz	r6, .L38
 258 0014 3668     		ldr	r6, [r6]
 259              	.LVL21:
 260              	.L38:
 261 0016 EE60     		str	r6, [r5, #12]
 262 0018 70BD     		pop	{r4, r5, r6, pc}
 263              	.LBE19:
 264              	.LBE18:
 265              		.cfi_endproc
 266              	.LFE9:
 267              		.size	netif_set_addr, .-netif_set_addr
 268 001a 00BFAFF3 		.section	.text.netif_add,"ax",%progbits
 268      0080
 269              		.align	2
 270              		.p2align 4,,15
 271              		.global	netif_add
 272              		.thumb
 273              		.thumb_func
 274              		.type	netif_add, %function
 275              	netif_add:
 276              	.LFB8:
 277              		.loc 1 141 0
 278              		.cfi_startproc
 279              		@ args = 12, pretend = 0, frame = 8
 280              		@ frame_needed = 0, uses_anonymous_args = 0
ARM GAS  /tmp/ccHspVc2.s 			page 6


 281              	.LVL22:
 282 0000 2DE9F042 		push	{r4, r5, r6, r7, r9, lr}
 283              		.cfi_def_cfa_offset 24
 284              		.cfi_offset 4, -24
 285              		.cfi_offset 5, -20
 286              		.cfi_offset 6, -16
 287              		.cfi_offset 7, -12
 288              		.cfi_offset 9, -8
 289              		.cfi_offset 14, -4
 290 0004 82B0     		sub	sp, sp, #8
 291              		.cfi_def_cfa_offset 32
 292              		.loc 1 141 0
 293 0006 0446     		mov	r4, r0
 294 0008 099E     		ldr	r6, [sp, #36]
 295 000a 9146     		mov	r9, r2
 296 000c 1F46     		mov	r7, r3
 297              		.loc 1 143 0
 298 000e 002E     		cmp	r6, #0
 299 0010 32D0     		beq	.L49
 300              	.LVL23:
 301              	.L42:
 302              		.loc 1 174 0
 303 0012 40F20005 		movw	r5, #:lower16:.LANCHOR1
 304              		.loc 1 173 0
 305 0016 089A     		ldr	r2, [sp, #32]
 306              		.loc 1 174 0
 307 0018 C0F20005 		movt	r5, #:upper16:.LANCHOR1
 308              		.loc 1 173 0
 309 001c E261     		str	r2, [r4, #28]
 310              		.loc 1 174 0
 311 001e 2B78     		ldrb	r3, [r5]	@ zero_extendqisi2
 312              		.loc 1 175 0
 313 0020 0A9A     		ldr	r2, [sp, #40]
 314              		.loc 1 174 0
 315 0022 84F82C30 		strb	r3, [r4, #44]
 316              		.loc 1 146 0
 317 0026 0020     		movs	r0, #0
 318              		.loc 1 174 0
 319 0028 0133     		adds	r3, r3, #1
 320              		.loc 1 146 0
 321 002a 6060     		str	r0, [r4, #4]
 322              		.loc 1 147 0
 323 002c A060     		str	r0, [r4, #8]
 324              		.loc 1 148 0
 325 002e E060     		str	r0, [r4, #12]
 326              		.loc 1 149 0
 327 0030 84F82900 		strb	r0, [r4, #41]
 328              		.loc 1 175 0
 329 0034 2261     		str	r2, [r4, #16]
 330              	.LVL24:
 331              	.LBB20:
 332              	.LBB21:
 333              		.loc 1 224 0
 334 0036 2046     		mov	r0, r4
 335              	.LBE21:
 336              	.LBE20:
 337              		.loc 1 174 0
ARM GAS  /tmp/ccHspVc2.s 			page 7


 338 0038 2B70     		strb	r3, [r5]
 339              	.LBB27:
 340              	.LBB26:
 341              		.loc 1 224 0
 342 003a FFF7FEFF 		bl	netif_set_ipaddr
 343              	.LVL25:
 344              	.LBB22:
 345              	.LBB23:
 346              		.loc 1 413 0
 347 003e 4B46     		mov	r3, r9
 348 0040 B9F1000F 		cmp	r9, #0
 349 0044 01D0     		beq	.L43
 350              	.LVL26:
 351 0046 D9F80030 		ldr	r3, [r9]
 352              	.LVL27:
 353              	.L43:
 354 004a A360     		str	r3, [r4, #8]
 355              	.LVL28:
 356              	.LBE23:
 357              	.LBE22:
 358              	.LBB24:
 359              	.LBB25:
 360              		.loc 1 390 0
 361 004c 3B46     		mov	r3, r7
 362 004e 07B1     		cbz	r7, .L44
 363              	.LVL29:
 364 0050 3B68     		ldr	r3, [r7]
 365              	.LVL30:
 366              	.L44:
 367 0052 E360     		str	r3, [r4, #12]
 368              	.LBE25:
 369              	.LBE24:
 370              	.LBE26:
 371              	.LBE27:
 372              		.loc 1 184 0
 373 0054 2046     		mov	r0, r4
 374 0056 B047     		blx	r6
 375              	.LVL31:
 376 0058 50B9     		cbnz	r0, .L48
 377              		.loc 1 189 0
 378 005a 40F20003 		movw	r3, #:lower16:.LANCHOR0
 379 005e C0F20003 		movt	r3, #:upper16:.LANCHOR0
 380              		.loc 1 208 0
 381 0062 2046     		mov	r0, r4
 382              		.loc 1 189 0
 383 0064 1A68     		ldr	r2, [r3]
 384 0066 2260     		str	r2, [r4]
 385              		.loc 1 190 0
 386 0068 1C60     		str	r4, [r3]
 387              		.loc 1 209 0
 388 006a 02B0     		add	sp, sp, #8
 389              		@ sp needed
 390 006c BDE8F082 		pop	{r4, r5, r6, r7, r9, pc}
 391              	.LVL32:
 392              	.L48:
 393              		.loc 1 185 0
 394 0070 0020     		movs	r0, #0
ARM GAS  /tmp/ccHspVc2.s 			page 8


 395              		.loc 1 209 0
 396 0072 02B0     		add	sp, sp, #8
 397              		@ sp needed
 398 0074 BDE8F082 		pop	{r4, r5, r6, r7, r9, pc}
 399              	.LVL33:
 400              	.L49:
 401              		.loc 1 143 0 discriminator 1
 402 0078 0191     		str	r1, [sp, #4]
 403 007a FFF7FEFF 		bl	port_halt
 404              	.LVL34:
 405 007e 0199     		ldr	r1, [sp, #4]
 406 0080 C7E7     		b	.L42
 407              		.cfi_endproc
 408              	.LFE8:
 409              		.size	netif_add, .-netif_add
 410 0082 00BFAFF3 		.section	.text.netif_set_gw,"ax",%progbits
 410      0080AFF3 
 410      0080AFF3 
 410      0080
 411              		.align	2
 412              		.p2align 4,,15
 413              		.global	netif_set_gw
 414              		.thumb
 415              		.thumb_func
 416              		.type	netif_set_gw, %function
 417              	netif_set_gw:
 418              	.LFB13:
 419              		.loc 1 389 0
 420              		.cfi_startproc
 421              		@ args = 0, pretend = 0, frame = 0
 422              		@ frame_needed = 0, uses_anonymous_args = 0
 423              		@ link register save eliminated.
 424              	.LVL35:
 425              		.loc 1 390 0
 426 0000 01B1     		cbz	r1, .L51
 427              		.loc 1 390 0 is_stmt 0 discriminator 1
 428 0002 0968     		ldr	r1, [r1]
 429              	.LVL36:
 430              	.L51:
 431              		.loc 1 390 0 discriminator 3
 432 0004 C160     		str	r1, [r0, #12]
 433 0006 7047     		bx	lr
 434              		.cfi_endproc
 435              	.LFE13:
 436              		.size	netif_set_gw, .-netif_set_gw
 437 0008 AFF30080 		.section	.text.netif_set_netmask,"ax",%progbits
 437      AFF30080 
 438              		.align	2
 439              		.p2align 4,,15
 440              		.global	netif_set_netmask
 441              		.thumb
 442              		.thumb_func
 443              		.type	netif_set_netmask, %function
 444              	netif_set_netmask:
 445              	.LFB14:
 446              		.loc 1 410 0 is_stmt 1
 447              		.cfi_startproc
ARM GAS  /tmp/ccHspVc2.s 			page 9


 448              		@ args = 0, pretend = 0, frame = 0
 449              		@ frame_needed = 0, uses_anonymous_args = 0
 450              		@ link register save eliminated.
 451              	.LVL37:
 452              		.loc 1 413 0
 453 0000 01B1     		cbz	r1, .L54
 454              		.loc 1 413 0 is_stmt 0 discriminator 1
 455 0002 0968     		ldr	r1, [r1]
 456              	.LVL38:
 457              	.L54:
 458              		.loc 1 413 0 discriminator 3
 459 0004 8160     		str	r1, [r0, #8]
 460 0006 7047     		bx	lr
 461              		.cfi_endproc
 462              	.LFE14:
 463              		.size	netif_set_netmask, .-netif_set_netmask
 464 0008 AFF30080 		.section	.text.netif_set_default,"ax",%progbits
 464      AFF30080 
 465              		.align	2
 466              		.p2align 4,,15
 467              		.global	netif_set_default
 468              		.thumb
 469              		.thumb_func
 470              		.type	netif_set_default, %function
 471              	netif_set_default:
 472              	.LFB15:
 473              		.loc 1 431 0 is_stmt 1
 474              		.cfi_startproc
 475              		@ args = 0, pretend = 0, frame = 0
 476              		@ frame_needed = 0, uses_anonymous_args = 0
 477              		@ link register save eliminated.
 478              	.LVL39:
 479              		.loc 1 439 0
 480 0000 40F20003 		movw	r3, #:lower16:.LANCHOR2
 481 0004 C0F20003 		movt	r3, #:upper16:.LANCHOR2
 482 0008 1860     		str	r0, [r3]
 483 000a 7047     		bx	lr
 484              		.cfi_endproc
 485              	.LFE15:
 486              		.size	netif_set_default, .-netif_set_default
 487 000c AFF30080 		.section	.text.netif_set_up,"ax",%progbits
 488              		.align	2
 489              		.p2align 4,,15
 490              		.global	netif_set_up
 491              		.thumb
 492              		.thumb_func
 493              		.type	netif_set_up, %function
 494              	netif_set_up:
 495              	.LFB16:
 496              		.loc 1 454 0
 497              		.cfi_startproc
 498              		@ args = 0, pretend = 0, frame = 0
 499              		@ frame_needed = 0, uses_anonymous_args = 0
 500              		@ link register save eliminated.
 501              	.LVL40:
 502              		.loc 1 455 0
 503 0000 90F82930 		ldrb	r3, [r0, #41]	@ zero_extendqisi2
ARM GAS  /tmp/ccHspVc2.s 			page 10


 504 0004 DA07     		lsls	r2, r3, #31
 505 0006 07D4     		bmi	.L57
 506              		.loc 1 456 0
 507 0008 43F00102 		orr	r2, r3, #1
 508              		.loc 1 467 0
 509 000c 03F03003 		and	r3, r3, #48
 510 0010 302B     		cmp	r3, #48
 511              		.loc 1 456 0
 512 0012 80F82920 		strb	r2, [r0, #41]
 513              		.loc 1 467 0
 514 0016 00D0     		beq	.L61
 515              	.L57:
 516 0018 7047     		bx	lr
 517              	.L61:
 518              		.loc 1 468 0
 519 001a 011D     		adds	r1, r0, #4
 520 001c FFF7FEBF 		b	etharp_request
 521              	.LVL41:
 522              		.cfi_endproc
 523              	.LFE16:
 524              		.size	netif_set_up, .-netif_set_up
 525              		.section	.text.netif_set_down,"ax",%progbits
 526              		.align	2
 527              		.p2align 4,,15
 528              		.global	netif_set_down
 529              		.thumb
 530              		.thumb_func
 531              		.type	netif_set_down, %function
 532              	netif_set_down:
 533              	.LFB17:
 534              		.loc 1 491 0
 535              		.cfi_startproc
 536              		@ args = 0, pretend = 0, frame = 0
 537              		@ frame_needed = 0, uses_anonymous_args = 0
 538              		@ link register save eliminated.
 539              	.LVL42:
 540              		.loc 1 492 0
 541 0000 90F82930 		ldrb	r3, [r0, #41]	@ zero_extendqisi2
 542 0004 D907     		lsls	r1, r3, #31
 543 0006 05D5     		bpl	.L62
 544              		.loc 1 493 0
 545 0008 23F00101 		bic	r1, r3, #1
 546 000c 80F82910 		strb	r1, [r0, #41]
 547              		.loc 1 499 0
 548 0010 9906     		lsls	r1, r3, #26
 549 0012 00D4     		bmi	.L69
 550              	.L62:
 551 0014 7047     		bx	lr
 552              	.L69:
 553              		.loc 1 500 0
 554 0016 FFF7FEBF 		b	etharp_cleanup_netif
 555              	.LVL43:
 556              		.cfi_endproc
 557              	.LFE17:
 558              		.size	netif_set_down, .-netif_set_down
 559 001a 00BFAFF3 		.section	.text.netif_remove,"ax",%progbits
 559      0080
ARM GAS  /tmp/ccHspVc2.s 			page 11


 560              		.align	2
 561              		.p2align 4,,15
 562              		.global	netif_remove
 563              		.thumb
 564              		.thumb_func
 565              		.type	netif_remove, %function
 566              	netif_remove:
 567              	.LFB10:
 568              		.loc 1 236 0
 569              		.cfi_startproc
 570              		@ args = 0, pretend = 0, frame = 0
 571              		@ frame_needed = 0, uses_anonymous_args = 0
 572              	.LVL44:
 573 0000 10B5     		push	{r4, lr}
 574              		.cfi_def_cfa_offset 8
 575              		.cfi_offset 4, -8
 576              		.cfi_offset 14, -4
 577              		.loc 1 237 0
 578 0002 0446     		mov	r4, r0
 579 0004 10B3     		cbz	r0, .L70
 580              		.loc 1 247 0
 581 0006 90F82930 		ldrb	r3, [r0, #41]	@ zero_extendqisi2
 582 000a DB07     		lsls	r3, r3, #31
 583 000c 1FD4     		bmi	.L87
 584              	.LVL45:
 585              	.L73:
 586              		.loc 1 255 0
 587 000e 40F20003 		movw	r3, #:lower16:.LANCHOR0
 588 0012 C0F20003 		movt	r3, #:upper16:.LANCHOR0
 589 0016 1A68     		ldr	r2, [r3]
 590 0018 A242     		cmp	r2, r4
 591 001a 0CD0     		beq	.L76
 592              	.LVL46:
 593              	.LBB28:
 594              		.loc 1 260 0 discriminator 1
 595 001c B2B1     		cbz	r2, .L70
 596              		.loc 1 261 0
 597 001e 1368     		ldr	r3, [r2]
 598 0020 A342     		cmp	r3, r4
 599 0022 07D0     		beq	.L88
 600              	.LVL47:
 601              		.loc 1 260 0
 602 0024 2BB1     		cbz	r3, .L89
 603              	.L77:
 604              		.loc 1 261 0
 605 0026 1A68     		ldr	r2, [r3]
 606 0028 A242     		cmp	r2, r4
 607 002a 04D0     		beq	.L76
 608 002c 1346     		mov	r3, r2
 609              	.LVL48:
 610              		.loc 1 260 0
 611 002e 002B     		cmp	r3, #0
 612 0030 F9D1     		bne	.L77
 613              	.LVL49:
 614              	.L89:
 615 0032 10BD     		pop	{r4, pc}
 616              	.LVL50:
ARM GAS  /tmp/ccHspVc2.s 			page 12


 617              	.L88:
 618              		.loc 1 261 0
 619 0034 1346     		mov	r3, r2
 620              	.LVL51:
 621              	.L76:
 622              		.loc 1 262 0
 623 0036 2268     		ldr	r2, [r4]
 624 0038 1A60     		str	r2, [r3]
 625              	.LBE28:
 626              		.loc 1 271 0
 627 003a 40F20003 		movw	r3, #:lower16:.LANCHOR2
 628 003e C0F20003 		movt	r3, #:upper16:.LANCHOR2
 629 0042 1A68     		ldr	r2, [r3]
 630 0044 A242     		cmp	r2, r4
 631              	.LVL52:
 632              	.LBB29:
 633              	.LBB30:
 634              		.loc 1 439 0
 635 0046 04BF     		itt	eq
 636 0048 0022     		moveq	r2, #0
 637 004a 1A60     		streq	r2, [r3]
 638              	.LVL53:
 639              	.L70:
 640 004c 10BD     		pop	{r4, pc}
 641              	.LVL54:
 642              	.L87:
 643              	.LBE30:
 644              	.LBE29:
 645              		.loc 1 249 0
 646 004e FFF7FEFF 		bl	netif_set_down
 647              	.LVL55:
 648 0052 DCE7     		b	.L73
 649              		.cfi_endproc
 650              	.LFE10:
 651              		.size	netif_remove, .-netif_remove
 652 0054 AFF30080 		.section	.text.netif_set_link_up,"ax",%progbits
 652      AFF30080 
 652      AFF30080 
 653              		.align	2
 654              		.p2align 4,,15
 655              		.global	netif_set_link_up
 656              		.thumb
 657              		.thumb_func
 658              		.type	netif_set_link_up, %function
 659              	netif_set_link_up:
 660              	.LFB18:
 661              		.loc 1 536 0
 662              		.cfi_startproc
 663              		@ args = 0, pretend = 0, frame = 0
 664              		@ frame_needed = 0, uses_anonymous_args = 0
 665              		@ link register save eliminated.
 666              	.LVL56:
 667              		.loc 1 537 0
 668 0000 90F82930 		ldrb	r3, [r0, #41]	@ zero_extendqisi2
 669 0004 DA06     		lsls	r2, r3, #27
 670 0006 07D4     		bmi	.L90
 671              		.loc 1 538 0
ARM GAS  /tmp/ccHspVc2.s 			page 13


 672 0008 43F01002 		orr	r2, r3, #16
 673              		.loc 1 555 0
 674 000c 03F02103 		and	r3, r3, #33
 675 0010 212B     		cmp	r3, #33
 676              		.loc 1 538 0
 677 0012 80F82920 		strb	r2, [r0, #41]
 678              		.loc 1 555 0
 679 0016 00D0     		beq	.L94
 680              	.L90:
 681 0018 7047     		bx	lr
 682              	.L94:
 683              		.loc 1 556 0
 684 001a 011D     		adds	r1, r0, #4
 685 001c FFF7FEBF 		b	etharp_request
 686              	.LVL57:
 687              		.cfi_endproc
 688              	.LFE18:
 689              		.size	netif_set_link_up, .-netif_set_link_up
 690              		.section	.text.netif_set_link_down,"ax",%progbits
 691              		.align	2
 692              		.p2align 4,,15
 693              		.global	netif_set_link_down
 694              		.thumb
 695              		.thumb_func
 696              		.type	netif_set_link_down, %function
 697              	netif_set_link_down:
 698              	.LFB19:
 699              		.loc 1 575 0
 700              		.cfi_startproc
 701              		@ args = 0, pretend = 0, frame = 0
 702              		@ frame_needed = 0, uses_anonymous_args = 0
 703              		@ link register save eliminated.
 704              	.LVL58:
 705              		.loc 1 576 0
 706 0000 90F82930 		ldrb	r3, [r0, #41]	@ zero_extendqisi2
 707 0004 D906     		lsls	r1, r3, #27
 708              		.loc 1 577 0
 709 0006 44BF     		itt	mi
 710 0008 23F01003 		bicmi	r3, r3, #16
 711 000c 80F82930 		strbmi	r3, [r0, #41]
 712 0010 7047     		bx	lr
 713              		.cfi_endproc
 714              	.LFE19:
 715              		.size	netif_set_link_down, .-netif_set_link_down
 716              		.global	netif_default
 717              		.global	netif_list
 718 0012 00BFAFF3 		.section	.bss.netif_list,"aw",%nobits
 718      0080AFF3 
 718      0080AFF3 
 718      0080
 719              		.align	2
 720              		.set	.LANCHOR0,. + 0
 721              		.type	netif_list, %object
 722              		.size	netif_list, 4
 723              	netif_list:
 724 0000 00000000 		.space	4
 725              		.section	.bss.netif_default,"aw",%nobits
ARM GAS  /tmp/ccHspVc2.s 			page 14


 726              		.align	2
 727              		.set	.LANCHOR2,. + 0
 728              		.type	netif_default, %object
 729              		.size	netif_default, 4
 730              	netif_default:
 731 0000 00000000 		.space	4
 732              		.section	.bss.netif_num,"aw",%nobits
 733              		.set	.LANCHOR1,. + 0
 734              		.type	netif_num, %object
 735              		.size	netif_num, 1
 736              	netif_num:
 737 0000 00       		.space	1
 738              		.text
 739              	.Letext0:
 740              		.file 2 "/usr/include/newlib/machine/_default_types.h"
 741              		.file 3 "/usr/include/newlib/stdint.h"
 742              		.file 4 "../../os/various/lwip_bindings/arch/cc.h"
 743              		.file 5 "../../ext/lwip/src/include/ipv4/lwip/ip_addr.h"
 744              		.file 6 "../../ext/lwip/src/include/lwip/err.h"
 745              		.file 7 "../../ext/lwip/src/include/lwip/pbuf.h"
 746              		.file 8 "../../ext/lwip/src/include/lwip/netif.h"
 747              		.file 9 "../../ext/lwip/src/include/lwip/tcp.h"
 748              		.file 10 "../../ext/lwip/src/include/lwip/tcp_impl.h"
 749              		.file 11 "../../ext/lwip/src/include/lwip/memp.h"
 750              		.file 12 "../../os/ports/GCC/ARMCMx/chcore_v7m.h"
 751              		.file 13 "../../ext/lwip/src/include/netif/etharp.h"
 752              		.section	.debug_info,"",%progbits
 753              	.Ldebug_info0:
 754 0000 6A0E0000 		.4byte	0xe6a
 755 0004 0400     		.2byte	0x4
 756 0006 00000000 		.4byte	.Ldebug_abbrev0
 757 000a 04       		.byte	0x4
 758 000b 01       		.uleb128 0x1
 759 000c FF050000 		.4byte	.LASF163
 760 0010 01       		.byte	0x1
 761 0011 C1010000 		.4byte	.LASF164
 762 0015 2B000000 		.4byte	.LASF165
 763 0019 18000000 		.4byte	.Ldebug_ranges0+0x18
 764 001d 00000000 		.4byte	0
 765 0021 00000000 		.4byte	.Ldebug_line0
 766 0025 02       		.uleb128 0x2
 767 0026 04       		.byte	0x4
 768 0027 05       		.byte	0x5
 769 0028 696E7400 		.ascii	"int\000"
 770 002c 03       		.uleb128 0x3
 771 002d 04       		.byte	0x4
 772 002e 07       		.byte	0x7
 773 002f 9D000000 		.4byte	.LASF0
 774 0033 04       		.uleb128 0x4
 775 0034 59040000 		.4byte	.LASF2
 776 0038 02       		.byte	0x2
 777 0039 1B       		.byte	0x1b
 778 003a 3E000000 		.4byte	0x3e
 779 003e 03       		.uleb128 0x3
 780 003f 01       		.byte	0x1
 781 0040 06       		.byte	0x6
 782 0041 94070000 		.4byte	.LASF1
ARM GAS  /tmp/ccHspVc2.s 			page 15


 783 0045 04       		.uleb128 0x4
 784 0046 3B050000 		.4byte	.LASF3
 785 004a 02       		.byte	0x2
 786 004b 1C       		.byte	0x1c
 787 004c 50000000 		.4byte	0x50
 788 0050 03       		.uleb128 0x3
 789 0051 01       		.byte	0x1
 790 0052 08       		.byte	0x8
 791 0053 D4060000 		.4byte	.LASF4
 792 0057 04       		.uleb128 0x4
 793 0058 EA030000 		.4byte	.LASF5
 794 005c 02       		.byte	0x2
 795 005d 25       		.byte	0x25
 796 005e 62000000 		.4byte	0x62
 797 0062 03       		.uleb128 0x3
 798 0063 02       		.byte	0x2
 799 0064 05       		.byte	0x5
 800 0065 A5040000 		.4byte	.LASF6
 801 0069 04       		.uleb128 0x4
 802 006a 00020000 		.4byte	.LASF7
 803 006e 02       		.byte	0x2
 804 006f 26       		.byte	0x26
 805 0070 74000000 		.4byte	0x74
 806 0074 03       		.uleb128 0x3
 807 0075 02       		.byte	0x2
 808 0076 07       		.byte	0x7
 809 0077 A8070000 		.4byte	.LASF8
 810 007b 03       		.uleb128 0x3
 811 007c 04       		.byte	0x4
 812 007d 05       		.byte	0x5
 813 007e AF040000 		.4byte	.LASF9
 814 0082 04       		.uleb128 0x4
 815 0083 E2060000 		.4byte	.LASF10
 816 0087 02       		.byte	0x2
 817 0088 38       		.byte	0x38
 818 0089 8D000000 		.4byte	0x8d
 819 008d 03       		.uleb128 0x3
 820 008e 04       		.byte	0x4
 821 008f 07       		.byte	0x7
 822 0090 ED050000 		.4byte	.LASF11
 823 0094 03       		.uleb128 0x3
 824 0095 08       		.byte	0x8
 825 0096 05       		.byte	0x5
 826 0097 A5030000 		.4byte	.LASF12
 827 009b 03       		.uleb128 0x3
 828 009c 08       		.byte	0x8
 829 009d 07       		.byte	0x7
 830 009e E9010000 		.4byte	.LASF13
 831 00a2 04       		.uleb128 0x4
 832 00a3 7D010000 		.4byte	.LASF14
 833 00a7 03       		.byte	0x3
 834 00a8 29       		.byte	0x29
 835 00a9 33000000 		.4byte	0x33
 836 00ad 04       		.uleb128 0x4
 837 00ae 47030000 		.4byte	.LASF15
 838 00b2 03       		.byte	0x3
 839 00b3 2A       		.byte	0x2a
ARM GAS  /tmp/ccHspVc2.s 			page 16


 840 00b4 45000000 		.4byte	0x45
 841 00b8 04       		.uleb128 0x4
 842 00b9 A7010000 		.4byte	.LASF16
 843 00bd 03       		.byte	0x3
 844 00be 35       		.byte	0x35
 845 00bf 57000000 		.4byte	0x57
 846 00c3 04       		.uleb128 0x4
 847 00c4 6E040000 		.4byte	.LASF17
 848 00c8 03       		.byte	0x3
 849 00c9 36       		.byte	0x36
 850 00ca 69000000 		.4byte	0x69
 851 00ce 04       		.uleb128 0x4
 852 00cf 74010000 		.4byte	.LASF18
 853 00d3 03       		.byte	0x3
 854 00d4 42       		.byte	0x42
 855 00d5 82000000 		.4byte	0x82
 856 00d9 03       		.uleb128 0x3
 857 00da 01       		.byte	0x1
 858 00db 02       		.byte	0x2
 859 00dc AE020000 		.4byte	.LASF19
 860 00e0 05       		.uleb128 0x5
 861 00e1 04       		.byte	0x4
 862 00e2 03       		.uleb128 0x3
 863 00e3 04       		.byte	0x4
 864 00e4 07       		.byte	0x7
 865 00e5 E4050000 		.4byte	.LASF20
 866 00e9 03       		.uleb128 0x3
 867 00ea 01       		.byte	0x1
 868 00eb 08       		.byte	0x8
 869 00ec 21030000 		.4byte	.LASF21
 870 00f0 04       		.uleb128 0x4
 871 00f1 E5030000 		.4byte	.LASF22
 872 00f5 04       		.byte	0x4
 873 00f6 38       		.byte	0x38
 874 00f7 AD000000 		.4byte	0xad
 875 00fb 04       		.uleb128 0x4
 876 00fc CD020000 		.4byte	.LASF23
 877 0100 04       		.byte	0x4
 878 0101 39       		.byte	0x39
 879 0102 A2000000 		.4byte	0xa2
 880 0106 04       		.uleb128 0x4
 881 0107 E3000000 		.4byte	.LASF24
 882 010b 04       		.byte	0x4
 883 010c 3A       		.byte	0x3a
 884 010d C3000000 		.4byte	0xc3
 885 0111 04       		.uleb128 0x4
 886 0112 AE060000 		.4byte	.LASF25
 887 0116 04       		.byte	0x4
 888 0117 3B       		.byte	0x3b
 889 0118 B8000000 		.4byte	0xb8
 890 011c 04       		.uleb128 0x4
 891 011d 9F040000 		.4byte	.LASF26
 892 0121 04       		.byte	0x4
 893 0122 3C       		.byte	0x3c
 894 0123 CE000000 		.4byte	0xce
 895 0127 06       		.uleb128 0x6
 896 0128 EE070000 		.4byte	.LASF29
ARM GAS  /tmp/ccHspVc2.s 			page 17


 897 012c 04       		.byte	0x4
 898 012d 05       		.byte	0x5
 899 012e 2C       		.byte	0x2c
 900 012f 40010000 		.4byte	0x140
 901 0133 07       		.uleb128 0x7
 902 0134 53070000 		.4byte	.LASF31
 903 0138 05       		.byte	0x5
 904 0139 2D       		.byte	0x2d
 905 013a 1C010000 		.4byte	0x11c
 906 013e 00       		.byte	0
 907 013f 00       		.byte	0
 908 0140 04       		.uleb128 0x4
 909 0141 D1070000 		.4byte	.LASF27
 910 0145 05       		.byte	0x5
 911 0146 40       		.byte	0x40
 912 0147 27010000 		.4byte	0x127
 913 014b 04       		.uleb128 0x4
 914 014c C0000000 		.4byte	.LASF28
 915 0150 06       		.byte	0x6
 916 0151 2F       		.byte	0x2f
 917 0152 FB000000 		.4byte	0xfb
 918 0156 06       		.uleb128 0x6
 919 0157 1B070000 		.4byte	.LASF30
 920 015b 10       		.byte	0x10
 921 015c 07       		.byte	0x7
 922 015d 4F       		.byte	0x4f
 923 015e B7010000 		.4byte	0x1b7
 924 0162 07       		.uleb128 0x7
 925 0163 BB000000 		.4byte	.LASF32
 926 0167 07       		.byte	0x7
 927 0168 51       		.byte	0x51
 928 0169 B7010000 		.4byte	0x1b7
 929 016d 00       		.byte	0
 930 016e 07       		.uleb128 0x7
 931 016f 80020000 		.4byte	.LASF33
 932 0173 07       		.byte	0x7
 933 0174 54       		.byte	0x54
 934 0175 E0000000 		.4byte	0xe0
 935 0179 04       		.byte	0x4
 936 017a 07       		.uleb128 0x7
 937 017b 71020000 		.4byte	.LASF34
 938 017f 07       		.byte	0x7
 939 0180 5D       		.byte	0x5d
 940 0181 06010000 		.4byte	0x106
 941 0185 08       		.byte	0x8
 942 0186 08       		.uleb128 0x8
 943 0187 6C656E00 		.ascii	"len\000"
 944 018b 07       		.byte	0x7
 945 018c 60       		.byte	0x60
 946 018d 06010000 		.4byte	0x106
 947 0191 0A       		.byte	0xa
 948 0192 07       		.uleb128 0x7
 949 0193 CF060000 		.4byte	.LASF35
 950 0197 07       		.byte	0x7
 951 0198 63       		.byte	0x63
 952 0199 F0000000 		.4byte	0xf0
 953 019d 0C       		.byte	0xc
ARM GAS  /tmp/ccHspVc2.s 			page 18


 954 019e 07       		.uleb128 0x7
 955 019f 8D000000 		.4byte	.LASF36
 956 01a3 07       		.byte	0x7
 957 01a4 66       		.byte	0x66
 958 01a5 F0000000 		.4byte	0xf0
 959 01a9 0D       		.byte	0xd
 960 01aa 08       		.uleb128 0x8
 961 01ab 72656600 		.ascii	"ref\000"
 962 01af 07       		.byte	0x7
 963 01b0 6D       		.byte	0x6d
 964 01b1 06010000 		.4byte	0x106
 965 01b5 0E       		.byte	0xe
 966 01b6 00       		.byte	0
 967 01b7 09       		.uleb128 0x9
 968 01b8 04       		.byte	0x4
 969 01b9 56010000 		.4byte	0x156
 970 01bd 04       		.uleb128 0x4
 971 01be 84040000 		.4byte	.LASF37
 972 01c2 08       		.byte	0x8
 973 01c3 66       		.byte	0x66
 974 01c4 C8010000 		.4byte	0x1c8
 975 01c8 09       		.uleb128 0x9
 976 01c9 04       		.byte	0x4
 977 01ca CE010000 		.4byte	0x1ce
 978 01ce 0A       		.uleb128 0xa
 979 01cf 4B010000 		.4byte	0x14b
 980 01d3 DD010000 		.4byte	0x1dd
 981 01d7 0B       		.uleb128 0xb
 982 01d8 DD010000 		.4byte	0x1dd
 983 01dc 00       		.byte	0
 984 01dd 09       		.uleb128 0x9
 985 01de 04       		.byte	0x4
 986 01df E3010000 		.4byte	0x1e3
 987 01e3 06       		.uleb128 0x6
 988 01e4 5E070000 		.4byte	.LASF38
 989 01e8 30       		.byte	0x30
 990 01e9 08       		.byte	0x8
 991 01ea 88       		.byte	0x88
 992 01eb 97020000 		.4byte	0x297
 993 01ef 07       		.uleb128 0x7
 994 01f0 BB000000 		.4byte	.LASF32
 995 01f4 08       		.byte	0x8
 996 01f5 8A       		.byte	0x8a
 997 01f6 DD010000 		.4byte	0x1dd
 998 01fa 00       		.byte	0
 999 01fb 07       		.uleb128 0x7
 1000 01fc EE070000 		.4byte	.LASF29
 1001 0200 08       		.byte	0x8
 1002 0201 8D       		.byte	0x8d
 1003 0202 40010000 		.4byte	0x140
 1004 0206 04       		.byte	0x4
 1005 0207 07       		.uleb128 0x7
 1006 0208 9D030000 		.4byte	.LASF39
 1007 020c 08       		.byte	0x8
 1008 020d 8E       		.byte	0x8e
 1009 020e 40010000 		.4byte	0x140
 1010 0212 08       		.byte	0x8
ARM GAS  /tmp/ccHspVc2.s 			page 19


 1011 0213 08       		.uleb128 0x8
 1012 0214 677700   		.ascii	"gw\000"
 1013 0217 08       		.byte	0x8
 1014 0218 8F       		.byte	0x8f
 1015 0219 40010000 		.4byte	0x140
 1016 021d 0C       		.byte	0xc
 1017 021e 07       		.uleb128 0x7
 1018 021f C1060000 		.4byte	.LASF40
 1019 0223 08       		.byte	0x8
 1020 0224 93       		.byte	0x93
 1021 0225 97020000 		.4byte	0x297
 1022 0229 10       		.byte	0x10
 1023 022a 07       		.uleb128 0x7
 1024 022b 9D020000 		.4byte	.LASF41
 1025 022f 08       		.byte	0x8
 1026 0230 97       		.byte	0x97
 1027 0231 BC020000 		.4byte	0x2bc
 1028 0235 14       		.byte	0x14
 1029 0236 07       		.uleb128 0x7
 1030 0237 C6000000 		.4byte	.LASF42
 1031 023b 08       		.byte	0x8
 1032 023c 9B       		.byte	0x9b
 1033 023d EC020000 		.4byte	0x2ec
 1034 0241 18       		.byte	0x18
 1035 0242 07       		.uleb128 0x7
 1036 0243 58070000 		.4byte	.LASF43
 1037 0247 08       		.byte	0x8
 1038 0248 AC       		.byte	0xac
 1039 0249 E0000000 		.4byte	0xe0
 1040 024d 1C       		.byte	0x1c
 1041 024e 08       		.uleb128 0x8
 1042 024f 6D747500 		.ascii	"mtu\000"
 1043 0253 08       		.byte	0x8
 1044 0254 BA       		.byte	0xba
 1045 0255 06010000 		.4byte	0x106
 1046 0259 20       		.byte	0x20
 1047 025a 07       		.uleb128 0x7
 1048 025b 1B020000 		.4byte	.LASF44
 1049 025f 08       		.byte	0x8
 1050 0260 BC       		.byte	0xbc
 1051 0261 F0000000 		.4byte	0xf0
 1052 0265 22       		.byte	0x22
 1053 0266 07       		.uleb128 0x7
 1054 0267 BA010000 		.4byte	.LASF45
 1055 026b 08       		.byte	0x8
 1056 026c BE       		.byte	0xbe
 1057 026d 11030000 		.4byte	0x311
 1058 0271 23       		.byte	0x23
 1059 0272 07       		.uleb128 0x7
 1060 0273 8D000000 		.4byte	.LASF36
 1061 0277 08       		.byte	0x8
 1062 0278 C0       		.byte	0xc0
 1063 0279 F0000000 		.4byte	0xf0
 1064 027d 29       		.byte	0x29
 1065 027e 07       		.uleb128 0x7
 1066 027f 5D050000 		.4byte	.LASF46
 1067 0283 08       		.byte	0x8
ARM GAS  /tmp/ccHspVc2.s 			page 20


 1068 0284 C2       		.byte	0xc2
 1069 0285 21030000 		.4byte	0x321
 1070 0289 2A       		.byte	0x2a
 1071 028a 08       		.uleb128 0x8
 1072 028b 6E756D00 		.ascii	"num\000"
 1073 028f 08       		.byte	0x8
 1074 0290 C4       		.byte	0xc4
 1075 0291 F0000000 		.4byte	0xf0
 1076 0295 2C       		.byte	0x2c
 1077 0296 00       		.byte	0
 1078 0297 04       		.uleb128 0x4
 1079 0298 65010000 		.4byte	.LASF47
 1080 029c 08       		.byte	0x8
 1081 029d 6D       		.byte	0x6d
 1082 029e A2020000 		.4byte	0x2a2
 1083 02a2 09       		.uleb128 0x9
 1084 02a3 04       		.byte	0x4
 1085 02a4 A8020000 		.4byte	0x2a8
 1086 02a8 0A       		.uleb128 0xa
 1087 02a9 4B010000 		.4byte	0x14b
 1088 02ad BC020000 		.4byte	0x2bc
 1089 02b1 0B       		.uleb128 0xb
 1090 02b2 B7010000 		.4byte	0x1b7
 1091 02b6 0B       		.uleb128 0xb
 1092 02b7 DD010000 		.4byte	0x1dd
 1093 02bb 00       		.byte	0
 1094 02bc 04       		.uleb128 0x4
 1095 02bd 1C010000 		.4byte	.LASF48
 1096 02c1 08       		.byte	0x8
 1097 02c2 76       		.byte	0x76
 1098 02c3 C7020000 		.4byte	0x2c7
 1099 02c7 09       		.uleb128 0x9
 1100 02c8 04       		.byte	0x4
 1101 02c9 CD020000 		.4byte	0x2cd
 1102 02cd 0A       		.uleb128 0xa
 1103 02ce 4B010000 		.4byte	0x14b
 1104 02d2 E6020000 		.4byte	0x2e6
 1105 02d6 0B       		.uleb128 0xb
 1106 02d7 DD010000 		.4byte	0x1dd
 1107 02db 0B       		.uleb128 0xb
 1108 02dc B7010000 		.4byte	0x1b7
 1109 02e0 0B       		.uleb128 0xb
 1110 02e1 E6020000 		.4byte	0x2e6
 1111 02e5 00       		.byte	0
 1112 02e6 09       		.uleb128 0x9
 1113 02e7 04       		.byte	0x4
 1114 02e8 40010000 		.4byte	0x140
 1115 02ec 04       		.uleb128 0x4
 1116 02ed 6F050000 		.4byte	.LASF49
 1117 02f1 08       		.byte	0x8
 1118 02f2 7E       		.byte	0x7e
 1119 02f3 F7020000 		.4byte	0x2f7
 1120 02f7 09       		.uleb128 0x9
 1121 02f8 04       		.byte	0x4
 1122 02f9 FD020000 		.4byte	0x2fd
 1123 02fd 0A       		.uleb128 0xa
 1124 02fe 4B010000 		.4byte	0x14b
ARM GAS  /tmp/ccHspVc2.s 			page 21


 1125 0302 11030000 		.4byte	0x311
 1126 0306 0B       		.uleb128 0xb
 1127 0307 DD010000 		.4byte	0x1dd
 1128 030b 0B       		.uleb128 0xb
 1129 030c B7010000 		.4byte	0x1b7
 1130 0310 00       		.byte	0
 1131 0311 0C       		.uleb128 0xc
 1132 0312 F0000000 		.4byte	0xf0
 1133 0316 21030000 		.4byte	0x321
 1134 031a 0D       		.uleb128 0xd
 1135 031b E2000000 		.4byte	0xe2
 1136 031f 05       		.byte	0x5
 1137 0320 00       		.byte	0
 1138 0321 0C       		.uleb128 0xc
 1139 0322 E9000000 		.4byte	0xe9
 1140 0326 31030000 		.4byte	0x331
 1141 032a 0D       		.uleb128 0xd
 1142 032b E2000000 		.4byte	0xe2
 1143 032f 01       		.byte	0x1
 1144 0330 00       		.byte	0
 1145 0331 04       		.uleb128 0x4
 1146 0332 7F000000 		.4byte	.LASF50
 1147 0336 09       		.byte	0x9
 1148 0337 3C       		.byte	0x3c
 1149 0338 3C030000 		.4byte	0x33c
 1150 033c 09       		.uleb128 0x9
 1151 033d 04       		.byte	0x4
 1152 033e 42030000 		.4byte	0x342
 1153 0342 0A       		.uleb128 0xa
 1154 0343 4B010000 		.4byte	0x14b
 1155 0347 5B030000 		.4byte	0x35b
 1156 034b 0B       		.uleb128 0xb
 1157 034c E0000000 		.4byte	0xe0
 1158 0350 0B       		.uleb128 0xb
 1159 0351 5B030000 		.4byte	0x35b
 1160 0355 0B       		.uleb128 0xb
 1161 0356 4B010000 		.4byte	0x14b
 1162 035a 00       		.byte	0
 1163 035b 09       		.uleb128 0x9
 1164 035c 04       		.byte	0x4
 1165 035d 61030000 		.4byte	0x361
 1166 0361 06       		.uleb128 0x6
 1167 0362 A0070000 		.4byte	.LASF51
 1168 0366 98       		.byte	0x98
 1169 0367 09       		.byte	0x9
 1170 0368 A8       		.byte	0xa8
 1171 0369 13060000 		.4byte	0x613
 1172 036d 07       		.uleb128 0x7
 1173 036e 0B050000 		.4byte	.LASF52
 1174 0372 09       		.byte	0x9
 1175 0373 AA       		.byte	0xaa
 1176 0374 40010000 		.4byte	0x140
 1177 0378 00       		.byte	0
 1178 0379 07       		.uleb128 0x7
 1179 037a C7070000 		.4byte	.LASF53
 1180 037e 09       		.byte	0x9
 1181 037f AA       		.byte	0xaa
ARM GAS  /tmp/ccHspVc2.s 			page 22


 1182 0380 40010000 		.4byte	0x140
 1183 0384 04       		.byte	0x4
 1184 0385 07       		.uleb128 0x7
 1185 0386 20000000 		.4byte	.LASF54
 1186 038a 09       		.byte	0x9
 1187 038b AA       		.byte	0xaa
 1188 038c F0000000 		.4byte	0xf0
 1189 0390 08       		.byte	0x8
 1190 0391 08       		.uleb128 0x8
 1191 0392 746F7300 		.ascii	"tos\000"
 1192 0396 09       		.byte	0x9
 1193 0397 AA       		.byte	0xaa
 1194 0398 F0000000 		.4byte	0xf0
 1195 039c 09       		.byte	0x9
 1196 039d 08       		.uleb128 0x8
 1197 039e 74746C00 		.ascii	"ttl\000"
 1198 03a2 09       		.byte	0x9
 1199 03a3 AA       		.byte	0xaa
 1200 03a4 F0000000 		.4byte	0xf0
 1201 03a8 0A       		.byte	0xa
 1202 03a9 07       		.uleb128 0x7
 1203 03aa BB000000 		.4byte	.LASF32
 1204 03ae 09       		.byte	0x9
 1205 03af AC       		.byte	0xac
 1206 03b0 5B030000 		.4byte	0x35b
 1207 03b4 0C       		.byte	0xc
 1208 03b5 07       		.uleb128 0x7
 1209 03b6 2A070000 		.4byte	.LASF55
 1210 03ba 09       		.byte	0x9
 1211 03bb AC       		.byte	0xac
 1212 03bc E0000000 		.4byte	0xe0
 1213 03c0 10       		.byte	0x10
 1214 03c1 07       		.uleb128 0x7
 1215 03c2 0B030000 		.4byte	.LASF56
 1216 03c6 09       		.byte	0x9
 1217 03c7 AC       		.byte	0xac
 1218 03c8 31030000 		.4byte	0x331
 1219 03cc 14       		.byte	0x14
 1220 03cd 07       		.uleb128 0x7
 1221 03ce 58070000 		.4byte	.LASF43
 1222 03d2 09       		.byte	0x9
 1223 03d3 AC       		.byte	0xac
 1224 03d4 BD060000 		.4byte	0x6bd
 1225 03d8 18       		.byte	0x18
 1226 03d9 07       		.uleb128 0x7
 1227 03da 06030000 		.4byte	.LASF57
 1228 03de 09       		.byte	0x9
 1229 03df AC       		.byte	0xac
 1230 03e0 F0000000 		.4byte	0xf0
 1231 03e4 19       		.byte	0x19
 1232 03e5 07       		.uleb128 0x7
 1233 03e6 9C010000 		.4byte	.LASF58
 1234 03ea 09       		.byte	0x9
 1235 03eb AC       		.byte	0xac
 1236 03ec 06010000 		.4byte	0x106
 1237 03f0 1A       		.byte	0x1a
 1238 03f1 07       		.uleb128 0x7
ARM GAS  /tmp/ccHspVc2.s 			page 23


 1239 03f2 F4030000 		.4byte	.LASF59
 1240 03f6 09       		.byte	0x9
 1241 03f7 AF       		.byte	0xaf
 1242 03f8 06010000 		.4byte	0x106
 1243 03fc 1C       		.byte	0x1c
 1244 03fd 07       		.uleb128 0x7
 1245 03fe 8D000000 		.4byte	.LASF36
 1246 0402 09       		.byte	0x9
 1247 0403 B1       		.byte	0xb1
 1248 0404 F0000000 		.4byte	0xf0
 1249 0408 1E       		.byte	0x1e
 1250 0409 07       		.uleb128 0x7
 1251 040a 77000000 		.4byte	.LASF60
 1252 040e 09       		.byte	0x9
 1253 040f BF       		.byte	0xbf
 1254 0410 F0000000 		.4byte	0xf0
 1255 0414 1F       		.byte	0x1f
 1256 0415 07       		.uleb128 0x7
 1257 0416 B2050000 		.4byte	.LASF61
 1258 041a 09       		.byte	0x9
 1259 041b BF       		.byte	0xbf
 1260 041c F0000000 		.4byte	0xf0
 1261 0420 20       		.byte	0x20
 1262 0421 07       		.uleb128 0x7
 1263 0422 F3040000 		.4byte	.LASF62
 1264 0426 09       		.byte	0x9
 1265 0427 C0       		.byte	0xc0
 1266 0428 F0000000 		.4byte	0xf0
 1267 042c 21       		.byte	0x21
 1268 042d 08       		.uleb128 0x8
 1269 042e 746D7200 		.ascii	"tmr\000"
 1270 0432 09       		.byte	0x9
 1271 0433 C1       		.byte	0xc1
 1272 0434 1C010000 		.4byte	0x11c
 1273 0438 24       		.byte	0x24
 1274 0439 07       		.uleb128 0x7
 1275 043a 38020000 		.4byte	.LASF63
 1276 043e 09       		.byte	0x9
 1277 043f C4       		.byte	0xc4
 1278 0440 1C010000 		.4byte	0x11c
 1279 0444 28       		.byte	0x28
 1280 0445 07       		.uleb128 0x7
 1281 0446 BF040000 		.4byte	.LASF64
 1282 044a 09       		.byte	0x9
 1283 044b C5       		.byte	0xc5
 1284 044c 06010000 		.4byte	0x106
 1285 0450 2C       		.byte	0x2c
 1286 0451 07       		.uleb128 0x7
 1287 0452 10040000 		.4byte	.LASF65
 1288 0456 09       		.byte	0x9
 1289 0457 C6       		.byte	0xc6
 1290 0458 06010000 		.4byte	0x106
 1291 045c 2E       		.byte	0x2e
 1292 045d 07       		.uleb128 0x7
 1293 045e F8000000 		.4byte	.LASF66
 1294 0462 09       		.byte	0x9
 1295 0463 C7       		.byte	0xc7
ARM GAS  /tmp/ccHspVc2.s 			page 24


 1296 0464 1C010000 		.4byte	0x11c
 1297 0468 30       		.byte	0x30
 1298 0469 07       		.uleb128 0x7
 1299 046a 15020000 		.4byte	.LASF67
 1300 046e 09       		.byte	0x9
 1301 046f CA       		.byte	0xca
 1302 0470 11010000 		.4byte	0x111
 1303 0474 34       		.byte	0x34
 1304 0475 08       		.uleb128 0x8
 1305 0476 6D737300 		.ascii	"mss\000"
 1306 047a 09       		.byte	0x9
 1307 047b CC       		.byte	0xcc
 1308 047c 06010000 		.4byte	0x106
 1309 0480 36       		.byte	0x36
 1310 0481 07       		.uleb128 0x7
 1311 0482 C7040000 		.4byte	.LASF68
 1312 0486 09       		.byte	0x9
 1313 0487 CF       		.byte	0xcf
 1314 0488 1C010000 		.4byte	0x11c
 1315 048c 38       		.byte	0x38
 1316 048d 07       		.uleb128 0x7
 1317 048e DF020000 		.4byte	.LASF69
 1318 0492 09       		.byte	0x9
 1319 0493 D0       		.byte	0xd0
 1320 0494 1C010000 		.4byte	0x11c
 1321 0498 3C       		.byte	0x3c
 1322 0499 08       		.uleb128 0x8
 1323 049a 736100   		.ascii	"sa\000"
 1324 049d 09       		.byte	0x9
 1325 049e D1       		.byte	0xd1
 1326 049f 11010000 		.4byte	0x111
 1327 04a3 40       		.byte	0x40
 1328 04a4 08       		.uleb128 0x8
 1329 04a5 737600   		.ascii	"sv\000"
 1330 04a8 09       		.byte	0x9
 1331 04a9 D1       		.byte	0xd1
 1332 04aa 11010000 		.4byte	0x111
 1333 04ae 42       		.byte	0x42
 1334 04af 08       		.uleb128 0x8
 1335 04b0 72746F00 		.ascii	"rto\000"
 1336 04b4 09       		.byte	0x9
 1337 04b5 D3       		.byte	0xd3
 1338 04b6 11010000 		.4byte	0x111
 1339 04ba 44       		.byte	0x44
 1340 04bb 07       		.uleb128 0x7
 1341 04bc DB070000 		.4byte	.LASF70
 1342 04c0 09       		.byte	0x9
 1343 04c1 D4       		.byte	0xd4
 1344 04c2 F0000000 		.4byte	0xf0
 1345 04c6 46       		.byte	0x46
 1346 04c7 07       		.uleb128 0x7
 1347 04c8 F5020000 		.4byte	.LASF71
 1348 04cc 09       		.byte	0x9
 1349 04cd D7       		.byte	0xd7
 1350 04ce F0000000 		.4byte	0xf0
 1351 04d2 47       		.byte	0x47
 1352 04d3 07       		.uleb128 0x7
ARM GAS  /tmp/ccHspVc2.s 			page 25


 1353 04d4 BC020000 		.4byte	.LASF72
 1354 04d8 09       		.byte	0x9
 1355 04d9 D8       		.byte	0xd8
 1356 04da 1C010000 		.4byte	0x11c
 1357 04de 48       		.byte	0x48
 1358 04df 07       		.uleb128 0x7
 1359 04e0 84010000 		.4byte	.LASF73
 1360 04e4 09       		.byte	0x9
 1361 04e5 DB       		.byte	0xdb
 1362 04e6 06010000 		.4byte	0x106
 1363 04ea 4C       		.byte	0x4c
 1364 04eb 07       		.uleb128 0x7
 1365 04ec 92050000 		.4byte	.LASF74
 1366 04f0 09       		.byte	0x9
 1367 04f1 DC       		.byte	0xdc
 1368 04f2 06010000 		.4byte	0x106
 1369 04f6 4E       		.byte	0x4e
 1370 04f7 07       		.uleb128 0x7
 1371 04f8 33050000 		.4byte	.LASF75
 1372 04fc 09       		.byte	0x9
 1373 04fd DF       		.byte	0xdf
 1374 04fe 1C010000 		.4byte	0x11c
 1375 0502 50       		.byte	0x50
 1376 0503 07       		.uleb128 0x7
 1377 0504 4F030000 		.4byte	.LASF76
 1378 0508 09       		.byte	0x9
 1379 0509 E0       		.byte	0xe0
 1380 050a 1C010000 		.4byte	0x11c
 1381 050e 54       		.byte	0x54
 1382 050f 07       		.uleb128 0x7
 1383 0510 57030000 		.4byte	.LASF77
 1384 0514 09       		.byte	0x9
 1385 0515 E0       		.byte	0xe0
 1386 0516 1C010000 		.4byte	0x11c
 1387 051a 58       		.byte	0x58
 1388 051b 07       		.uleb128 0x7
 1389 051c 89030000 		.4byte	.LASF78
 1390 0520 09       		.byte	0x9
 1391 0521 E2       		.byte	0xe2
 1392 0522 1C010000 		.4byte	0x11c
 1393 0526 5C       		.byte	0x5c
 1394 0527 07       		.uleb128 0x7
 1395 0528 7C040000 		.4byte	.LASF79
 1396 052c 09       		.byte	0x9
 1397 052d E3       		.byte	0xe3
 1398 052e 06010000 		.4byte	0x106
 1399 0532 60       		.byte	0x60
 1400 0533 07       		.uleb128 0x7
 1401 0534 51050000 		.4byte	.LASF80
 1402 0538 09       		.byte	0x9
 1403 0539 E4       		.byte	0xe4
 1404 053a 06010000 		.4byte	0x106
 1405 053e 62       		.byte	0x62
 1406 053f 07       		.uleb128 0x7
 1407 0540 26030000 		.4byte	.LASF81
 1408 0544 09       		.byte	0x9
 1409 0545 E6       		.byte	0xe6
ARM GAS  /tmp/ccHspVc2.s 			page 26


 1410 0546 06010000 		.4byte	0x106
 1411 054a 64       		.byte	0x64
 1412 054b 07       		.uleb128 0x7
 1413 054c 9B050000 		.4byte	.LASF82
 1414 0550 09       		.byte	0x9
 1415 0551 E8       		.byte	0xe8
 1416 0552 06010000 		.4byte	0x106
 1417 0556 66       		.byte	0x66
 1418 0557 07       		.uleb128 0x7
 1419 0558 64070000 		.4byte	.LASF83
 1420 055c 09       		.byte	0x9
 1421 055d EA       		.byte	0xea
 1422 055e 06010000 		.4byte	0x106
 1423 0562 68       		.byte	0x68
 1424 0563 07       		.uleb128 0x7
 1425 0564 14050000 		.4byte	.LASF84
 1426 0568 09       		.byte	0x9
 1427 0569 EE       		.byte	0xee
 1428 056a 06010000 		.4byte	0x106
 1429 056e 6A       		.byte	0x6a
 1430 056f 07       		.uleb128 0x7
 1431 0570 B8040000 		.4byte	.LASF85
 1432 0574 09       		.byte	0x9
 1433 0575 F2       		.byte	0xf2
 1434 0576 59070000 		.4byte	0x759
 1435 057a 6C       		.byte	0x6c
 1436 057b 07       		.uleb128 0x7
 1437 057c 55020000 		.4byte	.LASF86
 1438 0580 09       		.byte	0x9
 1439 0581 F3       		.byte	0xf3
 1440 0582 59070000 		.4byte	0x759
 1441 0586 70       		.byte	0x70
 1442 0587 07       		.uleb128 0x7
 1443 0588 92040000 		.4byte	.LASF87
 1444 058c 09       		.byte	0x9
 1445 058d F5       		.byte	0xf5
 1446 058e 59070000 		.4byte	0x759
 1447 0592 74       		.byte	0x74
 1448 0593 07       		.uleb128 0x7
 1449 0594 B4060000 		.4byte	.LASF88
 1450 0598 09       		.byte	0x9
 1451 0599 F8       		.byte	0xf8
 1452 059a B7010000 		.4byte	0x1b7
 1453 059e 78       		.byte	0x78
 1454 059f 07       		.uleb128 0x7
 1455 05a0 42030000 		.4byte	.LASF89
 1456 05a4 09       		.byte	0x9
 1457 05a5 FC       		.byte	0xfc
 1458 05a6 42060000 		.4byte	0x642
 1459 05aa 7C       		.byte	0x7c
 1460 05ab 07       		.uleb128 0x7
 1461 05ac 8F070000 		.4byte	.LASF90
 1462 05b0 09       		.byte	0x9
 1463 05b1 FE       		.byte	0xfe
 1464 05b2 13060000 		.4byte	0x613
 1465 05b6 80       		.byte	0x80
 1466 05b7 0E       		.uleb128 0xe
ARM GAS  /tmp/ccHspVc2.s 			page 27


 1467 05b8 A4020000 		.4byte	.LASF91
 1468 05bc 09       		.byte	0x9
 1469 05bd 0001     		.2byte	0x100
 1470 05bf B2060000 		.4byte	0x6b2
 1471 05c3 84       		.byte	0x84
 1472 05c4 0E       		.uleb128 0xe
 1473 05c5 1C030000 		.4byte	.LASF92
 1474 05c9 09       		.byte	0x9
 1475 05ca 0201     		.2byte	0x102
 1476 05cc 6C060000 		.4byte	0x66c
 1477 05d0 88       		.byte	0x88
 1478 05d1 0E       		.uleb128 0xe
 1479 05d2 77040000 		.4byte	.LASF93
 1480 05d6 09       		.byte	0x9
 1481 05d7 0401     		.2byte	0x104
 1482 05d9 91060000 		.4byte	0x691
 1483 05dd 8C       		.byte	0x8c
 1484 05de 0E       		.uleb128 0xe
 1485 05df 20070000 		.4byte	.LASF94
 1486 05e3 09       		.byte	0x9
 1487 05e4 0D01     		.2byte	0x10d
 1488 05e6 1C010000 		.4byte	0x11c
 1489 05ea 90       		.byte	0x90
 1490 05eb 0E       		.uleb128 0xe
 1491 05ec BB070000 		.4byte	.LASF95
 1492 05f0 09       		.byte	0x9
 1493 05f1 1401     		.2byte	0x114
 1494 05f3 F0000000 		.4byte	0xf0
 1495 05f7 94       		.byte	0x94
 1496 05f8 0E       		.uleb128 0xe
 1497 05f9 C8030000 		.4byte	.LASF96
 1498 05fd 09       		.byte	0x9
 1499 05fe 1601     		.2byte	0x116
 1500 0600 F0000000 		.4byte	0xf0
 1501 0604 95       		.byte	0x95
 1502 0605 0E       		.uleb128 0xe
 1503 0606 2C010000 		.4byte	.LASF97
 1504 060a 09       		.byte	0x9
 1505 060b 1901     		.2byte	0x119
 1506 060d F0000000 		.4byte	0xf0
 1507 0611 96       		.byte	0x96
 1508 0612 00       		.byte	0
 1509 0613 04       		.uleb128 0x4
 1510 0614 35040000 		.4byte	.LASF98
 1511 0618 09       		.byte	0x9
 1512 0619 48       		.byte	0x48
 1513 061a 1E060000 		.4byte	0x61e
 1514 061e 09       		.uleb128 0x9
 1515 061f 04       		.byte	0x4
 1516 0620 24060000 		.4byte	0x624
 1517 0624 0A       		.uleb128 0xa
 1518 0625 4B010000 		.4byte	0x14b
 1519 0629 42060000 		.4byte	0x642
 1520 062d 0B       		.uleb128 0xb
 1521 062e E0000000 		.4byte	0xe0
 1522 0632 0B       		.uleb128 0xb
 1523 0633 5B030000 		.4byte	0x35b
ARM GAS  /tmp/ccHspVc2.s 			page 28


 1524 0637 0B       		.uleb128 0xb
 1525 0638 B7010000 		.4byte	0x1b7
 1526 063c 0B       		.uleb128 0xb
 1527 063d 4B010000 		.4byte	0x14b
 1528 0641 00       		.byte	0
 1529 0642 04       		.uleb128 0x4
 1530 0643 49010000 		.4byte	.LASF99
 1531 0647 09       		.byte	0x9
 1532 0648 56       		.byte	0x56
 1533 0649 4D060000 		.4byte	0x64d
 1534 064d 09       		.uleb128 0x9
 1535 064e 04       		.byte	0x4
 1536 064f 53060000 		.4byte	0x653
 1537 0653 0A       		.uleb128 0xa
 1538 0654 4B010000 		.4byte	0x14b
 1539 0658 6C060000 		.4byte	0x66c
 1540 065c 0B       		.uleb128 0xb
 1541 065d E0000000 		.4byte	0xe0
 1542 0661 0B       		.uleb128 0xb
 1543 0662 5B030000 		.4byte	0x35b
 1544 0666 0B       		.uleb128 0xb
 1545 0667 06010000 		.4byte	0x106
 1546 066b 00       		.byte	0
 1547 066c 04       		.uleb128 0x4
 1548 066d 62040000 		.4byte	.LASF100
 1549 0671 09       		.byte	0x9
 1550 0672 62       		.byte	0x62
 1551 0673 77060000 		.4byte	0x677
 1552 0677 09       		.uleb128 0x9
 1553 0678 04       		.byte	0x4
 1554 0679 7D060000 		.4byte	0x67d
 1555 067d 0A       		.uleb128 0xa
 1556 067e 4B010000 		.4byte	0x14b
 1557 0682 91060000 		.4byte	0x691
 1558 0686 0B       		.uleb128 0xb
 1559 0687 E0000000 		.4byte	0xe0
 1560 068b 0B       		.uleb128 0xb
 1561 068c 5B030000 		.4byte	0x35b
 1562 0690 00       		.byte	0
 1563 0691 04       		.uleb128 0x4
 1564 0692 5F030000 		.4byte	.LASF101
 1565 0696 09       		.byte	0x9
 1566 0697 6E       		.byte	0x6e
 1567 0698 9C060000 		.4byte	0x69c
 1568 069c 09       		.uleb128 0x9
 1569 069d 04       		.byte	0x4
 1570 069e A2060000 		.4byte	0x6a2
 1571 06a2 0F       		.uleb128 0xf
 1572 06a3 B2060000 		.4byte	0x6b2
 1573 06a7 0B       		.uleb128 0xb
 1574 06a8 E0000000 		.4byte	0xe0
 1575 06ac 0B       		.uleb128 0xb
 1576 06ad 4B010000 		.4byte	0x14b
 1577 06b1 00       		.byte	0
 1578 06b2 04       		.uleb128 0x4
 1579 06b3 AA000000 		.4byte	.LASF102
 1580 06b7 09       		.byte	0x9
ARM GAS  /tmp/ccHspVc2.s 			page 29


 1581 06b8 7C       		.byte	0x7c
 1582 06b9 3C030000 		.4byte	0x33c
 1583 06bd 10       		.uleb128 0x10
 1584 06be 0B020000 		.4byte	.LASF166
 1585 06c2 01       		.byte	0x1
 1586 06c3 09       		.byte	0x9
 1587 06c4 7E       		.byte	0x7e
 1588 06c5 0C070000 		.4byte	0x70c
 1589 06c9 11       		.uleb128 0x11
 1590 06ca 98040000 		.4byte	.LASF103
 1591 06ce 00       		.sleb128 0
 1592 06cf 11       		.uleb128 0x11
 1593 06d0 41070000 		.4byte	.LASF104
 1594 06d4 01       		.sleb128 1
 1595 06d5 11       		.uleb128 0x11
 1596 06d6 05070000 		.4byte	.LASF105
 1597 06da 02       		.sleb128 2
 1598 06db 11       		.uleb128 0x11
 1599 06dc E5070000 		.4byte	.LASF106
 1600 06e0 03       		.sleb128 3
 1601 06e1 11       		.uleb128 0x11
 1602 06e2 45050000 		.4byte	.LASF107
 1603 06e6 04       		.sleb128 4
 1604 06e7 11       		.uleb128 0x11
 1605 06e8 5D020000 		.4byte	.LASF108
 1606 06ec 05       		.sleb128 5
 1607 06ed 11       		.uleb128 0x11
 1608 06ee ED060000 		.4byte	.LASF109
 1609 06f2 06       		.sleb128 6
 1610 06f3 11       		.uleb128 0x11
 1611 06f4 2C030000 		.4byte	.LASF110
 1612 06f8 07       		.sleb128 7
 1613 06f9 11       		.uleb128 0x11
 1614 06fa B4020000 		.4byte	.LASF111
 1615 06fe 08       		.sleb128 8
 1616 06ff 11       		.uleb128 0x11
 1617 0700 68020000 		.4byte	.LASF112
 1618 0704 09       		.sleb128 9
 1619 0705 11       		.uleb128 0x11
 1620 0706 93000000 		.4byte	.LASF113
 1621 070a 0A       		.sleb128 10
 1622 070b 00       		.byte	0
 1623 070c 12       		.uleb128 0x12
 1624 070d E1010000 		.4byte	.LASF114
 1625 0711 10       		.byte	0x10
 1626 0712 0A       		.byte	0xa
 1627 0713 1501     		.2byte	0x115
 1628 0715 59070000 		.4byte	0x759
 1629 0719 0E       		.uleb128 0xe
 1630 071a BB000000 		.4byte	.LASF32
 1631 071e 0A       		.byte	0xa
 1632 071f 1601     		.2byte	0x116
 1633 0721 59070000 		.4byte	0x759
 1634 0725 00       		.byte	0
 1635 0726 13       		.uleb128 0x13
 1636 0727 7000     		.ascii	"p\000"
 1637 0729 0A       		.byte	0xa
ARM GAS  /tmp/ccHspVc2.s 			page 30


 1638 072a 1701     		.2byte	0x117
 1639 072c B7010000 		.4byte	0x1b7
 1640 0730 04       		.byte	0x4
 1641 0731 13       		.uleb128 0x13
 1642 0732 6C656E00 		.ascii	"len\000"
 1643 0736 0A       		.byte	0xa
 1644 0737 1801     		.2byte	0x118
 1645 0739 06010000 		.4byte	0x106
 1646 073d 08       		.byte	0x8
 1647 073e 0E       		.uleb128 0xe
 1648 073f 8D000000 		.4byte	.LASF36
 1649 0743 0A       		.byte	0xa
 1650 0744 2201     		.2byte	0x122
 1651 0746 F0000000 		.4byte	0xf0
 1652 074a 0A       		.byte	0xa
 1653 074b 0E       		.uleb128 0xe
 1654 074c A7060000 		.4byte	.LASF115
 1655 0750 0A       		.byte	0xa
 1656 0751 2701     		.2byte	0x127
 1657 0753 6F080000 		.4byte	0x86f
 1658 0757 0C       		.byte	0xc
 1659 0758 00       		.byte	0
 1660 0759 09       		.uleb128 0x9
 1661 075a 04       		.byte	0x4
 1662 075b 0C070000 		.4byte	0x70c
 1663 075f 12       		.uleb128 0x12
 1664 0760 B3030000 		.4byte	.LASF116
 1665 0764 1C       		.byte	0x1c
 1666 0765 09       		.byte	0x9
 1667 0766 1C01     		.2byte	0x11c
 1668 0768 FC070000 		.4byte	0x7fc
 1669 076c 0E       		.uleb128 0xe
 1670 076d 0B050000 		.4byte	.LASF52
 1671 0771 09       		.byte	0x9
 1672 0772 1E01     		.2byte	0x11e
 1673 0774 40010000 		.4byte	0x140
 1674 0778 00       		.byte	0
 1675 0779 0E       		.uleb128 0xe
 1676 077a C7070000 		.4byte	.LASF53
 1677 077e 09       		.byte	0x9
 1678 077f 1E01     		.2byte	0x11e
 1679 0781 40010000 		.4byte	0x140
 1680 0785 04       		.byte	0x4
 1681 0786 0E       		.uleb128 0xe
 1682 0787 20000000 		.4byte	.LASF54
 1683 078b 09       		.byte	0x9
 1684 078c 1E01     		.2byte	0x11e
 1685 078e F0000000 		.4byte	0xf0
 1686 0792 08       		.byte	0x8
 1687 0793 13       		.uleb128 0x13
 1688 0794 746F7300 		.ascii	"tos\000"
 1689 0798 09       		.byte	0x9
 1690 0799 1E01     		.2byte	0x11e
 1691 079b F0000000 		.4byte	0xf0
 1692 079f 09       		.byte	0x9
 1693 07a0 13       		.uleb128 0x13
 1694 07a1 74746C00 		.ascii	"ttl\000"
ARM GAS  /tmp/ccHspVc2.s 			page 31


 1695 07a5 09       		.byte	0x9
 1696 07a6 1E01     		.2byte	0x11e
 1697 07a8 F0000000 		.4byte	0xf0
 1698 07ac 0A       		.byte	0xa
 1699 07ad 0E       		.uleb128 0xe
 1700 07ae BB000000 		.4byte	.LASF32
 1701 07b2 09       		.byte	0x9
 1702 07b3 2001     		.2byte	0x120
 1703 07b5 FC070000 		.4byte	0x7fc
 1704 07b9 0C       		.byte	0xc
 1705 07ba 0E       		.uleb128 0xe
 1706 07bb 2A070000 		.4byte	.LASF55
 1707 07bf 09       		.byte	0x9
 1708 07c0 2001     		.2byte	0x120
 1709 07c2 E0000000 		.4byte	0xe0
 1710 07c6 10       		.byte	0x10
 1711 07c7 0E       		.uleb128 0xe
 1712 07c8 0B030000 		.4byte	.LASF56
 1713 07cc 09       		.byte	0x9
 1714 07cd 2001     		.2byte	0x120
 1715 07cf 31030000 		.4byte	0x331
 1716 07d3 14       		.byte	0x14
 1717 07d4 0E       		.uleb128 0xe
 1718 07d5 58070000 		.4byte	.LASF43
 1719 07d9 09       		.byte	0x9
 1720 07da 2001     		.2byte	0x120
 1721 07dc BD060000 		.4byte	0x6bd
 1722 07e0 18       		.byte	0x18
 1723 07e1 0E       		.uleb128 0xe
 1724 07e2 06030000 		.4byte	.LASF57
 1725 07e6 09       		.byte	0x9
 1726 07e7 2001     		.2byte	0x120
 1727 07e9 F0000000 		.4byte	0xf0
 1728 07ed 19       		.byte	0x19
 1729 07ee 0E       		.uleb128 0xe
 1730 07ef 9C010000 		.4byte	.LASF58
 1731 07f3 09       		.byte	0x9
 1732 07f4 2001     		.2byte	0x120
 1733 07f6 06010000 		.4byte	0x106
 1734 07fa 1A       		.byte	0x1a
 1735 07fb 00       		.byte	0
 1736 07fc 09       		.uleb128 0x9
 1737 07fd 04       		.byte	0x4
 1738 07fe 5F070000 		.4byte	0x75f
 1739 0802 06       		.uleb128 0x6
 1740 0803 C7060000 		.4byte	.LASF117
 1741 0807 14       		.byte	0x14
 1742 0808 0A       		.byte	0xa
 1743 0809 9F       		.byte	0x9f
 1744 080a 6F080000 		.4byte	0x86f
 1745 080e 08       		.uleb128 0x8
 1746 080f 73726300 		.ascii	"src\000"
 1747 0813 0A       		.byte	0xa
 1748 0814 A0       		.byte	0xa0
 1749 0815 06010000 		.4byte	0x106
 1750 0819 00       		.byte	0
 1751 081a 07       		.uleb128 0x7
ARM GAS  /tmp/ccHspVc2.s 			page 32


 1752 081b E0070000 		.4byte	.LASF118
 1753 081f 0A       		.byte	0xa
 1754 0820 A1       		.byte	0xa1
 1755 0821 06010000 		.4byte	0x106
 1756 0825 02       		.byte	0x2
 1757 0826 07       		.uleb128 0x7
 1758 0827 5F010000 		.4byte	.LASF119
 1759 082b 0A       		.byte	0xa
 1760 082c A2       		.byte	0xa2
 1761 082d 1C010000 		.4byte	0x11c
 1762 0831 04       		.byte	0x4
 1763 0832 07       		.uleb128 0x7
 1764 0833 C2030000 		.4byte	.LASF120
 1765 0837 0A       		.byte	0xa
 1766 0838 A3       		.byte	0xa3
 1767 0839 1C010000 		.4byte	0x11c
 1768 083d 08       		.byte	0x8
 1769 083e 07       		.uleb128 0x7
 1770 083f CC050000 		.4byte	.LASF121
 1771 0843 0A       		.byte	0xa
 1772 0844 A4       		.byte	0xa4
 1773 0845 06010000 		.4byte	0x106
 1774 0849 0C       		.byte	0xc
 1775 084a 08       		.uleb128 0x8
 1776 084b 776E6400 		.ascii	"wnd\000"
 1777 084f 0A       		.byte	0xa
 1778 0850 A5       		.byte	0xa5
 1779 0851 06010000 		.4byte	0x106
 1780 0855 0E       		.byte	0xe
 1781 0856 07       		.uleb128 0x7
 1782 0857 71070000 		.4byte	.LASF122
 1783 085b 0A       		.byte	0xa
 1784 085c A6       		.byte	0xa6
 1785 085d 06010000 		.4byte	0x106
 1786 0861 10       		.byte	0x10
 1787 0862 07       		.uleb128 0x7
 1788 0863 72000000 		.4byte	.LASF123
 1789 0867 0A       		.byte	0xa
 1790 0868 A7       		.byte	0xa7
 1791 0869 06010000 		.4byte	0x106
 1792 086d 12       		.byte	0x12
 1793 086e 00       		.byte	0
 1794 086f 09       		.uleb128 0x9
 1795 0870 04       		.byte	0x4
 1796 0871 02080000 		.4byte	0x802
 1797 0875 14       		.uleb128 0x14
 1798 0876 6A030000 		.4byte	.LASF167
 1799 087a 04       		.byte	0x4
 1800 087b 0A       		.byte	0xa
 1801 087c 3701     		.2byte	0x137
 1802 087e 9B080000 		.4byte	0x89b
 1803 0882 15       		.uleb128 0x15
 1804 0883 00000000 		.4byte	.LASF124
 1805 0887 0A       		.byte	0xa
 1806 0888 3801     		.2byte	0x138
 1807 088a FC070000 		.4byte	0x7fc
 1808 088e 15       		.uleb128 0x15
ARM GAS  /tmp/ccHspVc2.s 			page 33


 1809 088f F6070000 		.4byte	.LASF125
 1810 0893 0A       		.byte	0xa
 1811 0894 3901     		.2byte	0x139
 1812 0896 5B030000 		.4byte	0x35b
 1813 089a 00       		.byte	0
 1814 089b 16       		.uleb128 0x16
 1815 089c 01       		.byte	0x1
 1816 089d 0B       		.byte	0xb
 1817 089e 2B       		.byte	0x2b
 1818 089f FE080000 		.4byte	0x8fe
 1819 08a3 11       		.uleb128 0x11
 1820 08a4 BF050000 		.4byte	.LASF126
 1821 08a8 00       		.sleb128 0
 1822 08a9 11       		.uleb128 0x11
 1823 08aa FE040000 		.4byte	.LASF127
 1824 08ae 01       		.sleb128 1
 1825 08af 11       		.uleb128 0x11
 1826 08b0 D8030000 		.4byte	.LASF128
 1827 08b4 02       		.sleb128 2
 1828 08b5 11       		.uleb128 0x11
 1829 08b6 0C000000 		.4byte	.LASF129
 1830 08ba 03       		.sleb128 3
 1831 08bb 11       		.uleb128 0x11
 1832 08bc F8060000 		.4byte	.LASF130
 1833 08c0 04       		.sleb128 4
 1834 08c1 11       		.uleb128 0x11
 1835 08c2 26040000 		.4byte	.LASF131
 1836 08c6 05       		.sleb128 5
 1837 08c7 11       		.uleb128 0x11
 1838 08c8 83050000 		.4byte	.LASF132
 1839 08cc 06       		.sleb128 6
 1840 08cd 11       		.uleb128 0x11
 1841 08ce 91030000 		.4byte	.LASF133
 1842 08d2 07       		.sleb128 7
 1843 08d3 11       		.uleb128 0x11
 1844 08d4 D2020000 		.4byte	.LASF134
 1845 08d8 08       		.sleb128 8
 1846 08d9 11       		.uleb128 0x11
 1847 08da 89010000 		.4byte	.LASF135
 1848 08de 09       		.sleb128 9
 1849 08df 11       		.uleb128 0x11
 1850 08e0 40020000 		.4byte	.LASF136
 1851 08e4 0A       		.sleb128 10
 1852 08e5 11       		.uleb128 0x11
 1853 08e6 E2040000 		.4byte	.LASF137
 1854 08ea 0B       		.sleb128 11
 1855 08eb 11       		.uleb128 0x11
 1856 08ec 12030000 		.4byte	.LASF138
 1857 08f0 0C       		.sleb128 12
 1858 08f1 11       		.uleb128 0x11
 1859 08f2 3A010000 		.4byte	.LASF139
 1860 08f6 0D       		.sleb128 13
 1861 08f7 11       		.uleb128 0x11
 1862 08f8 C4020000 		.4byte	.LASF140
 1863 08fc 0E       		.sleb128 14
 1864 08fd 00       		.byte	0
 1865 08fe 17       		.uleb128 0x17
ARM GAS  /tmp/ccHspVc2.s 			page 34


 1866 08ff 26020000 		.4byte	.LASF141
 1867 0903 01       		.byte	0x1
 1868 0904 9901     		.2byte	0x199
 1869 0906 01       		.byte	0x1
 1870 0907 24090000 		.4byte	0x924
 1871 090b 18       		.uleb128 0x18
 1872 090c 5E070000 		.4byte	.LASF38
 1873 0910 01       		.byte	0x1
 1874 0911 9901     		.2byte	0x199
 1875 0913 DD010000 		.4byte	0x1dd
 1876 0917 18       		.uleb128 0x18
 1877 0918 9D030000 		.4byte	.LASF39
 1878 091c 01       		.byte	0x1
 1879 091d 9901     		.2byte	0x199
 1880 091f E6020000 		.4byte	0x2e6
 1881 0923 00       		.byte	0
 1882 0924 17       		.uleb128 0x17
 1883 0925 0E070000 		.4byte	.LASF142
 1884 0929 01       		.byte	0x1
 1885 092a 8401     		.2byte	0x184
 1886 092c 01       		.byte	0x1
 1887 092d 49090000 		.4byte	0x949
 1888 0931 18       		.uleb128 0x18
 1889 0932 5E070000 		.4byte	.LASF38
 1890 0936 01       		.byte	0x1
 1891 0937 8401     		.2byte	0x184
 1892 0939 DD010000 		.4byte	0x1dd
 1893 093d 19       		.uleb128 0x19
 1894 093e 677700   		.ascii	"gw\000"
 1895 0941 01       		.byte	0x1
 1896 0942 8401     		.2byte	0x184
 1897 0944 E6020000 		.4byte	0x2e6
 1898 0948 00       		.byte	0
 1899 0949 1A       		.uleb128 0x1a
 1900 094a A3050000 		.4byte	.LASF143
 1901 094e 01       		.byte	0x1
 1902 094f DD       		.byte	0xdd
 1903 0950 01       		.byte	0x1
 1904 0951 81090000 		.4byte	0x981
 1905 0955 1B       		.uleb128 0x1b
 1906 0956 5E070000 		.4byte	.LASF38
 1907 095a 01       		.byte	0x1
 1908 095b DD       		.byte	0xdd
 1909 095c DD010000 		.4byte	0x1dd
 1910 0960 1B       		.uleb128 0x1b
 1911 0961 79020000 		.4byte	.LASF144
 1912 0965 01       		.byte	0x1
 1913 0966 DD       		.byte	0xdd
 1914 0967 E6020000 		.4byte	0x2e6
 1915 096b 1B       		.uleb128 0x1b
 1916 096c 9D030000 		.4byte	.LASF39
 1917 0970 01       		.byte	0x1
 1918 0971 DD       		.byte	0xdd
 1919 0972 E6020000 		.4byte	0x2e6
 1920 0976 1C       		.uleb128 0x1c
 1921 0977 677700   		.ascii	"gw\000"
 1922 097a 01       		.byte	0x1
ARM GAS  /tmp/ccHspVc2.s 			page 35


 1923 097b DE       		.byte	0xde
 1924 097c E6020000 		.4byte	0x2e6
 1925 0980 00       		.byte	0
 1926 0981 17       		.uleb128 0x17
 1927 0982 D1000000 		.4byte	.LASF145
 1928 0986 01       		.byte	0x1
 1929 0987 AE01     		.2byte	0x1ae
 1930 0989 01       		.byte	0x1
 1931 098a 9B090000 		.4byte	0x99b
 1932 098e 18       		.uleb128 0x18
 1933 098f 5E070000 		.4byte	.LASF38
 1934 0993 01       		.byte	0x1
 1935 0994 AE01     		.2byte	0x1ae
 1936 0996 DD010000 		.4byte	0x1dd
 1937 099a 00       		.byte	0
 1938 099b 1D       		.uleb128 0x1d
 1939 099c 48070000 		.4byte	.LASF168
 1940 09a0 01       		.byte	0x1
 1941 09a1 6A       		.byte	0x6a
 1942 09a2 00000000 		.4byte	.LFB7
 1943 09a6 02000000 		.4byte	.LFE7-.LFB7
 1944 09aa 01       		.uleb128 0x1
 1945 09ab 9C       		.byte	0x9c
 1946 09ac 1E       		.uleb128 0x1e
 1947 09ad 37030000 		.4byte	.LASF147
 1948 09b1 01       		.byte	0x1
 1949 09b2 2201     		.2byte	0x122
 1950 09b4 DD010000 		.4byte	0x1dd
 1951 09b8 00000000 		.4byte	.LFB11
 1952 09bc 40000000 		.4byte	.LFE11-.LFB11
 1953 09c0 01       		.uleb128 0x1
 1954 09c1 9C       		.byte	0x9c
 1955 09c2 F7090000 		.4byte	0x9f7
 1956 09c6 1F       		.uleb128 0x1f
 1957 09c7 5D050000 		.4byte	.LASF46
 1958 09cb 01       		.byte	0x1
 1959 09cc 2201     		.2byte	0x122
 1960 09ce F7090000 		.4byte	0x9f7
 1961 09d2 00000000 		.4byte	.LLST0
 1962 09d6 20       		.uleb128 0x20
 1963 09d7 5E070000 		.4byte	.LASF38
 1964 09db 01       		.byte	0x1
 1965 09dc 2401     		.2byte	0x124
 1966 09de DD010000 		.4byte	0x1dd
 1967 09e2 21000000 		.4byte	.LLST1
 1968 09e6 21       		.uleb128 0x21
 1969 09e7 6E756D00 		.ascii	"num\000"
 1970 09eb 01       		.byte	0x1
 1971 09ec 2501     		.2byte	0x125
 1972 09ee F0000000 		.4byte	0xf0
 1973 09f2 34000000 		.4byte	.LLST2
 1974 09f6 00       		.byte	0
 1975 09f7 09       		.uleb128 0x9
 1976 09f8 04       		.byte	0x4
 1977 09f9 E9000000 		.4byte	0xe9
 1978 09fd 22       		.uleb128 0x22
 1979 09fe 0B010000 		.4byte	.LASF150
ARM GAS  /tmp/ccHspVc2.s 			page 36


 1980 0a02 01       		.byte	0x1
 1981 0a03 4301     		.2byte	0x143
 1982 0a05 00000000 		.4byte	.LFB12
 1983 0a09 68000000 		.4byte	.LFE12-.LFB12
 1984 0a0d 01       		.uleb128 0x1
 1985 0a0e 9C       		.byte	0x9c
 1986 0a0f 770A0000 		.4byte	0xa77
 1987 0a13 1F       		.uleb128 0x1f
 1988 0a14 5E070000 		.4byte	.LASF38
 1989 0a18 01       		.byte	0x1
 1990 0a19 4301     		.2byte	0x143
 1991 0a1b DD010000 		.4byte	0x1dd
 1992 0a1f 47000000 		.4byte	.LLST3
 1993 0a23 1F       		.uleb128 0x1f
 1994 0a24 79020000 		.4byte	.LASF144
 1995 0a28 01       		.byte	0x1
 1996 0a29 4301     		.2byte	0x143
 1997 0a2b E6020000 		.4byte	0x2e6
 1998 0a2f 65000000 		.4byte	.LLST4
 1999 0a33 21       		.uleb128 0x21
 2000 0a34 70636200 		.ascii	"pcb\000"
 2001 0a38 01       		.byte	0x1
 2002 0a39 4801     		.2byte	0x148
 2003 0a3b 5B030000 		.4byte	0x35b
 2004 0a3f 83000000 		.4byte	.LLST5
 2005 0a43 20       		.uleb128 0x20
 2006 0a44 78070000 		.4byte	.LASF146
 2007 0a48 01       		.byte	0x1
 2008 0a49 4901     		.2byte	0x149
 2009 0a4b FC070000 		.4byte	0x7fc
 2010 0a4f C3000000 		.4byte	.LLST6
 2011 0a53 23       		.uleb128 0x23
 2012 0a54 36000000 		.4byte	.LBB15
 2013 0a58 08000000 		.4byte	.LBE15-.LBB15
 2014 0a5c 20       		.uleb128 0x20
 2015 0a5d BB000000 		.4byte	.LASF32
 2016 0a61 01       		.byte	0x1
 2017 0a62 5901     		.2byte	0x159
 2018 0a64 5B030000 		.4byte	0x35b
 2019 0a68 D6000000 		.4byte	.LLST7
 2020 0a6c 24       		.uleb128 0x24
 2021 0a6d 3C000000 		.4byte	.LVL11
 2022 0a71 2C0E0000 		.4byte	0xe2c
 2023 0a75 00       		.byte	0
 2024 0a76 00       		.byte	0
 2025 0a77 25       		.uleb128 0x25
 2026 0a78 49090000 		.4byte	0x949
 2027 0a7c 00000000 		.4byte	.LFB9
 2028 0a80 1A000000 		.4byte	.LFE9-.LFB9
 2029 0a84 01       		.uleb128 0x1
 2030 0a85 9C       		.byte	0x9c
 2031 0a86 0E0B0000 		.4byte	0xb0e
 2032 0a8a 26       		.uleb128 0x26
 2033 0a8b 55090000 		.4byte	0x955
 2034 0a8f E9000000 		.4byte	.LLST8
 2035 0a93 26       		.uleb128 0x26
 2036 0a94 60090000 		.4byte	0x960
ARM GAS  /tmp/ccHspVc2.s 			page 37


 2037 0a98 07010000 		.4byte	.LLST9
 2038 0a9c 26       		.uleb128 0x26
 2039 0a9d 6B090000 		.4byte	0x96b
 2040 0aa1 28010000 		.4byte	.LLST10
 2041 0aa5 26       		.uleb128 0x26
 2042 0aa6 76090000 		.4byte	0x976
 2043 0aaa 54010000 		.4byte	.LLST11
 2044 0aae 27       		.uleb128 0x27
 2045 0aaf FE080000 		.4byte	0x8fe
 2046 0ab3 0C000000 		.4byte	.LBB16
 2047 0ab7 06000000 		.4byte	.LBE16-.LBB16
 2048 0abb 01       		.byte	0x1
 2049 0abc E1       		.byte	0xe1
 2050 0abd D20A0000 		.4byte	0xad2
 2051 0ac1 26       		.uleb128 0x26
 2052 0ac2 17090000 		.4byte	0x917
 2053 0ac6 80010000 		.4byte	.LLST12
 2054 0aca 28       		.uleb128 0x28
 2055 0acb 0B090000 		.4byte	0x90b
 2056 0acf 01       		.uleb128 0x1
 2057 0ad0 55       		.byte	0x55
 2058 0ad1 00       		.byte	0
 2059 0ad2 27       		.uleb128 0x27
 2060 0ad3 24090000 		.4byte	0x924
 2061 0ad7 12000000 		.4byte	.LBB18
 2062 0adb 08000000 		.4byte	.LBE18-.LBB18
 2063 0adf 01       		.byte	0x1
 2064 0ae0 E2       		.byte	0xe2
 2065 0ae1 F60A0000 		.4byte	0xaf6
 2066 0ae5 26       		.uleb128 0x26
 2067 0ae6 3D090000 		.4byte	0x93d
 2068 0aea A1010000 		.4byte	.LLST13
 2069 0aee 28       		.uleb128 0x28
 2070 0aef 31090000 		.4byte	0x931
 2071 0af3 01       		.uleb128 0x1
 2072 0af4 55       		.byte	0x55
 2073 0af5 00       		.byte	0
 2074 0af6 29       		.uleb128 0x29
 2075 0af7 0C000000 		.4byte	.LVL18
 2076 0afb FD090000 		.4byte	0x9fd
 2077 0aff 2A       		.uleb128 0x2a
 2078 0b00 01       		.uleb128 0x1
 2079 0b01 51       		.byte	0x51
 2080 0b02 03       		.uleb128 0x3
 2081 0b03 F3       		.byte	0xf3
 2082 0b04 01       		.uleb128 0x1
 2083 0b05 51       		.byte	0x51
 2084 0b06 2A       		.uleb128 0x2a
 2085 0b07 01       		.uleb128 0x1
 2086 0b08 50       		.byte	0x50
 2087 0b09 02       		.uleb128 0x2
 2088 0b0a 75       		.byte	0x75
 2089 0b0b 00       		.sleb128 0
 2090 0b0c 00       		.byte	0
 2091 0b0d 00       		.byte	0
 2092 0b0e 2B       		.uleb128 0x2b
 2093 0b0f 1C040000 		.4byte	.LASF148
ARM GAS  /tmp/ccHspVc2.s 			page 38


 2094 0b13 01       		.byte	0x1
 2095 0b14 8B       		.byte	0x8b
 2096 0b15 DD010000 		.4byte	0x1dd
 2097 0b19 00000000 		.4byte	.LFB8
 2098 0b1d 82000000 		.4byte	.LFE8-.LFB8
 2099 0b21 01       		.uleb128 0x1
 2100 0b22 9C       		.byte	0x9c
 2101 0b23 3D0C0000 		.4byte	0xc3d
 2102 0b27 2C       		.uleb128 0x2c
 2103 0b28 5E070000 		.4byte	.LASF38
 2104 0b2c 01       		.byte	0x1
 2105 0b2d 8B       		.byte	0x8b
 2106 0b2e DD010000 		.4byte	0x1dd
 2107 0b32 C2010000 		.4byte	.LLST14
 2108 0b36 2C       		.uleb128 0x2c
 2109 0b37 79020000 		.4byte	.LASF144
 2110 0b3b 01       		.byte	0x1
 2111 0b3c 8B       		.byte	0x8b
 2112 0b3d E6020000 		.4byte	0x2e6
 2113 0b41 F6010000 		.4byte	.LLST15
 2114 0b45 2C       		.uleb128 0x2c
 2115 0b46 9D030000 		.4byte	.LASF39
 2116 0b4a 01       		.byte	0x1
 2117 0b4b 8B       		.byte	0x8b
 2118 0b4c E6020000 		.4byte	0x2e6
 2119 0b50 30020000 		.4byte	.LLST16
 2120 0b54 2D       		.uleb128 0x2d
 2121 0b55 677700   		.ascii	"gw\000"
 2122 0b58 01       		.byte	0x1
 2123 0b59 8C       		.byte	0x8c
 2124 0b5a E6020000 		.4byte	0x2e6
 2125 0b5e 7A020000 		.4byte	.LLST17
 2126 0b62 2C       		.uleb128 0x2c
 2127 0b63 58070000 		.4byte	.LASF43
 2128 0b67 01       		.byte	0x1
 2129 0b68 8C       		.byte	0x8c
 2130 0b69 E0000000 		.4byte	0xe0
 2131 0b6d C4020000 		.4byte	.LLST18
 2132 0b71 2C       		.uleb128 0x2c
 2133 0b72 DF050000 		.4byte	.LASF149
 2134 0b76 01       		.byte	0x1
 2135 0b77 8C       		.byte	0x8c
 2136 0b78 BD010000 		.4byte	0x1bd
 2137 0b7c E4020000 		.4byte	.LLST19
 2138 0b80 2C       		.uleb128 0x2c
 2139 0b81 C1060000 		.4byte	.LASF40
 2140 0b85 01       		.byte	0x1
 2141 0b86 8C       		.byte	0x8c
 2142 0b87 97020000 		.4byte	0x297
 2143 0b8b 04030000 		.4byte	.LLST20
 2144 0b8f 2E       		.uleb128 0x2e
 2145 0b90 49090000 		.4byte	0x949
 2146 0b94 36000000 		.4byte	.LBB20
 2147 0b98 00000000 		.4byte	.Ldebug_ranges0+0
 2148 0b9c 01       		.byte	0x1
 2149 0b9d B5       		.byte	0xb5
 2150 0b9e 230C0000 		.4byte	0xc23
ARM GAS  /tmp/ccHspVc2.s 			page 39


 2151 0ba2 26       		.uleb128 0x26
 2152 0ba3 76090000 		.4byte	0x976
 2153 0ba7 24030000 		.4byte	.LLST21
 2154 0bab 26       		.uleb128 0x26
 2155 0bac 6B090000 		.4byte	0x96b
 2156 0bb0 4D030000 		.4byte	.LLST22
 2157 0bb4 26       		.uleb128 0x26
 2158 0bb5 60090000 		.4byte	0x960
 2159 0bb9 76030000 		.4byte	.LLST23
 2160 0bbd 26       		.uleb128 0x26
 2161 0bbe 55090000 		.4byte	0x955
 2162 0bc2 89030000 		.4byte	.LLST24
 2163 0bc6 27       		.uleb128 0x27
 2164 0bc7 FE080000 		.4byte	0x8fe
 2165 0bcb 3E000000 		.4byte	.LBB22
 2166 0bcf 0E000000 		.4byte	.LBE22-.LBB22
 2167 0bd3 01       		.byte	0x1
 2168 0bd4 E1       		.byte	0xe1
 2169 0bd5 EC0B0000 		.4byte	0xbec
 2170 0bd9 26       		.uleb128 0x26
 2171 0bda 17090000 		.4byte	0x917
 2172 0bde 9C030000 		.4byte	.LLST25
 2173 0be2 26       		.uleb128 0x26
 2174 0be3 0B090000 		.4byte	0x90b
 2175 0be7 C5030000 		.4byte	.LLST26
 2176 0beb 00       		.byte	0
 2177 0bec 27       		.uleb128 0x27
 2178 0bed 24090000 		.4byte	0x924
 2179 0bf1 4C000000 		.4byte	.LBB24
 2180 0bf5 08000000 		.4byte	.LBE24-.LBB24
 2181 0bf9 01       		.byte	0x1
 2182 0bfa E2       		.byte	0xe2
 2183 0bfb 120C0000 		.4byte	0xc12
 2184 0bff 26       		.uleb128 0x26
 2185 0c00 3D090000 		.4byte	0x93d
 2186 0c04 D8030000 		.4byte	.LLST27
 2187 0c08 26       		.uleb128 0x26
 2188 0c09 31090000 		.4byte	0x931
 2189 0c0d 01040000 		.4byte	.LLST28
 2190 0c11 00       		.byte	0
 2191 0c12 29       		.uleb128 0x29
 2192 0c13 3E000000 		.4byte	.LVL25
 2193 0c17 FD090000 		.4byte	0x9fd
 2194 0c1b 2A       		.uleb128 0x2a
 2195 0c1c 01       		.uleb128 0x1
 2196 0c1d 50       		.byte	0x50
 2197 0c1e 02       		.uleb128 0x2
 2198 0c1f 74       		.byte	0x74
 2199 0c20 00       		.sleb128 0
 2200 0c21 00       		.byte	0
 2201 0c22 00       		.byte	0
 2202 0c23 2F       		.uleb128 0x2f
 2203 0c24 58000000 		.4byte	.LVL31
 2204 0c28 330C0000 		.4byte	0xc33
 2205 0c2c 2A       		.uleb128 0x2a
 2206 0c2d 01       		.uleb128 0x1
 2207 0c2e 50       		.byte	0x50
ARM GAS  /tmp/ccHspVc2.s 			page 40


 2208 0c2f 02       		.uleb128 0x2
 2209 0c30 74       		.byte	0x74
 2210 0c31 00       		.sleb128 0
 2211 0c32 00       		.byte	0
 2212 0c33 24       		.uleb128 0x24
 2213 0c34 7E000000 		.4byte	.LVL34
 2214 0c38 3E0E0000 		.4byte	0xe3e
 2215 0c3c 00       		.byte	0
 2216 0c3d 25       		.uleb128 0x25
 2217 0c3e 24090000 		.4byte	0x924
 2218 0c42 00000000 		.4byte	.LFB13
 2219 0c46 08000000 		.4byte	.LFE13-.LFB13
 2220 0c4a 01       		.uleb128 0x1
 2221 0c4b 9C       		.byte	0x9c
 2222 0c4c 610C0000 		.4byte	0xc61
 2223 0c50 28       		.uleb128 0x28
 2224 0c51 31090000 		.4byte	0x931
 2225 0c55 01       		.uleb128 0x1
 2226 0c56 50       		.byte	0x50
 2227 0c57 26       		.uleb128 0x26
 2228 0c58 3D090000 		.4byte	0x93d
 2229 0c5c 14040000 		.4byte	.LLST29
 2230 0c60 00       		.byte	0
 2231 0c61 25       		.uleb128 0x25
 2232 0c62 FE080000 		.4byte	0x8fe
 2233 0c66 00000000 		.4byte	.LFB14
 2234 0c6a 08000000 		.4byte	.LFE14-.LFB14
 2235 0c6e 01       		.uleb128 0x1
 2236 0c6f 9C       		.byte	0x9c
 2237 0c70 850C0000 		.4byte	0xc85
 2238 0c74 28       		.uleb128 0x28
 2239 0c75 0B090000 		.4byte	0x90b
 2240 0c79 01       		.uleb128 0x1
 2241 0c7a 50       		.byte	0x50
 2242 0c7b 26       		.uleb128 0x26
 2243 0c7c 17090000 		.4byte	0x917
 2244 0c80 35040000 		.4byte	.LLST30
 2245 0c84 00       		.byte	0
 2246 0c85 25       		.uleb128 0x25
 2247 0c86 81090000 		.4byte	0x981
 2248 0c8a 00000000 		.4byte	.LFB15
 2249 0c8e 0C000000 		.4byte	.LFE15-.LFB15
 2250 0c92 01       		.uleb128 0x1
 2251 0c93 9C       		.byte	0x9c
 2252 0c94 A00C0000 		.4byte	0xca0
 2253 0c98 28       		.uleb128 0x28
 2254 0c99 8E090000 		.4byte	0x98e
 2255 0c9d 01       		.uleb128 0x1
 2256 0c9e 50       		.byte	0x50
 2257 0c9f 00       		.byte	0
 2258 0ca0 22       		.uleb128 0x22
 2259 0ca1 62050000 		.4byte	.LASF151
 2260 0ca5 01       		.byte	0x1
 2261 0ca6 C501     		.2byte	0x1c5
 2262 0ca8 00000000 		.4byte	.LFB16
 2263 0cac 20000000 		.4byte	.LFE16-.LFB16
 2264 0cb0 01       		.uleb128 0x1
ARM GAS  /tmp/ccHspVc2.s 			page 41


 2265 0cb1 9C       		.byte	0x9c
 2266 0cb2 E10C0000 		.4byte	0xce1
 2267 0cb6 1F       		.uleb128 0x1f
 2268 0cb7 5E070000 		.4byte	.LASF38
 2269 0cbb 01       		.byte	0x1
 2270 0cbc C501     		.2byte	0x1c5
 2271 0cbe DD010000 		.4byte	0x1dd
 2272 0cc2 56040000 		.4byte	.LLST31
 2273 0cc6 30       		.uleb128 0x30
 2274 0cc7 20000000 		.4byte	.LVL41
 2275 0ccb 460E0000 		.4byte	0xe46
 2276 0ccf 2A       		.uleb128 0x2a
 2277 0cd0 01       		.uleb128 0x1
 2278 0cd1 51       		.byte	0x51
 2279 0cd2 05       		.uleb128 0x5
 2280 0cd3 F3       		.byte	0xf3
 2281 0cd4 01       		.uleb128 0x1
 2282 0cd5 50       		.byte	0x50
 2283 0cd6 23       		.byte	0x23
 2284 0cd7 04       		.uleb128 0x4
 2285 0cd8 2A       		.uleb128 0x2a
 2286 0cd9 01       		.uleb128 0x1
 2287 0cda 50       		.byte	0x50
 2288 0cdb 03       		.uleb128 0x3
 2289 0cdc F3       		.byte	0xf3
 2290 0cdd 01       		.uleb128 0x1
 2291 0cde 50       		.byte	0x50
 2292 0cdf 00       		.byte	0
 2293 0ce0 00       		.byte	0
 2294 0ce1 22       		.uleb128 0x22
 2295 0ce2 E9000000 		.4byte	.LASF152
 2296 0ce6 01       		.byte	0x1
 2297 0ce7 EA01     		.2byte	0x1ea
 2298 0ce9 00000000 		.4byte	.LFB17
 2299 0ced 1A000000 		.4byte	.LFE17-.LFB17
 2300 0cf1 01       		.uleb128 0x1
 2301 0cf2 9C       		.byte	0x9c
 2302 0cf3 110D0000 		.4byte	0xd11
 2303 0cf7 1F       		.uleb128 0x1f
 2304 0cf8 5E070000 		.4byte	.LASF38
 2305 0cfc 01       		.byte	0x1
 2306 0cfd EA01     		.2byte	0x1ea
 2307 0cff DD010000 		.4byte	0x1dd
 2308 0d03 77040000 		.4byte	.LLST32
 2309 0d07 31       		.uleb128 0x31
 2310 0d08 1A000000 		.4byte	.LVL43
 2311 0d0c 600E0000 		.4byte	0xe60
 2312 0d10 00       		.byte	0
 2313 0d11 32       		.uleb128 0x32
 2314 0d12 7C030000 		.4byte	.LASF153
 2315 0d16 01       		.byte	0x1
 2316 0d17 EB       		.byte	0xeb
 2317 0d18 00000000 		.4byte	.LFB10
 2318 0d1c 54000000 		.4byte	.LFE10-.LFB10
 2319 0d20 01       		.uleb128 0x1
 2320 0d21 9C       		.byte	0x9c
 2321 0d22 7B0D0000 		.4byte	0xd7b
ARM GAS  /tmp/ccHspVc2.s 			page 42


 2322 0d26 2C       		.uleb128 0x2c
 2323 0d27 5E070000 		.4byte	.LASF38
 2324 0d2b 01       		.byte	0x1
 2325 0d2c EB       		.byte	0xeb
 2326 0d2d DD010000 		.4byte	0x1dd
 2327 0d31 98040000 		.4byte	.LLST33
 2328 0d35 33       		.uleb128 0x33
 2329 0d36 1C000000 		.4byte	.LBB28
 2330 0d3a 1E000000 		.4byte	.LBE28-.LBB28
 2331 0d3e 530D0000 		.4byte	0xd53
 2332 0d42 20       		.uleb128 0x20
 2333 0d43 FD020000 		.4byte	.LASF154
 2334 0d47 01       		.byte	0x1
 2335 0d48 0301     		.2byte	0x103
 2336 0d4a DD010000 		.4byte	0x1dd
 2337 0d4e CC040000 		.4byte	.LLST34
 2338 0d52 00       		.byte	0
 2339 0d53 34       		.uleb128 0x34
 2340 0d54 81090000 		.4byte	0x981
 2341 0d58 46000000 		.4byte	.LBB29
 2342 0d5c 08000000 		.4byte	.LBE29-.LBB29
 2343 0d60 01       		.byte	0x1
 2344 0d61 1101     		.2byte	0x111
 2345 0d63 710D0000 		.4byte	0xd71
 2346 0d67 26       		.uleb128 0x26
 2347 0d68 8E090000 		.4byte	0x98e
 2348 0d6c 0B050000 		.4byte	.LLST35
 2349 0d70 00       		.byte	0
 2350 0d71 24       		.uleb128 0x24
 2351 0d72 52000000 		.4byte	.LVL55
 2352 0d76 E10C0000 		.4byte	0xce1
 2353 0d7a 00       		.byte	0
 2354 0d7b 22       		.uleb128 0x22
 2355 0d7c 7D070000 		.4byte	.LASF155
 2356 0d80 01       		.byte	0x1
 2357 0d81 1702     		.2byte	0x217
 2358 0d83 00000000 		.4byte	.LFB18
 2359 0d87 20000000 		.4byte	.LFE18-.LFB18
 2360 0d8b 01       		.uleb128 0x1
 2361 0d8c 9C       		.byte	0x9c
 2362 0d8d BC0D0000 		.4byte	0xdbc
 2363 0d91 1F       		.uleb128 0x1f
 2364 0d92 5E070000 		.4byte	.LASF38
 2365 0d96 01       		.byte	0x1
 2366 0d97 1702     		.2byte	0x217
 2367 0d99 DD010000 		.4byte	0x1dd
 2368 0d9d 1F050000 		.4byte	.LLST36
 2369 0da1 30       		.uleb128 0x30
 2370 0da2 20000000 		.4byte	.LVL57
 2371 0da6 460E0000 		.4byte	0xe46
 2372 0daa 2A       		.uleb128 0x2a
 2373 0dab 01       		.uleb128 0x1
 2374 0dac 51       		.byte	0x51
 2375 0dad 05       		.uleb128 0x5
 2376 0dae F3       		.byte	0xf3
 2377 0daf 01       		.uleb128 0x1
 2378 0db0 50       		.byte	0x50
ARM GAS  /tmp/ccHspVc2.s 			page 43


 2379 0db1 23       		.byte	0x23
 2380 0db2 04       		.uleb128 0x4
 2381 0db3 2A       		.uleb128 0x2a
 2382 0db4 01       		.uleb128 0x1
 2383 0db5 50       		.byte	0x50
 2384 0db6 03       		.uleb128 0x3
 2385 0db7 F3       		.byte	0xf3
 2386 0db8 01       		.uleb128 0x1
 2387 0db9 50       		.byte	0x50
 2388 0dba 00       		.byte	0
 2389 0dbb 00       		.byte	0
 2390 0dbc 22       		.uleb128 0x22
 2391 0dbd CE040000 		.4byte	.LASF156
 2392 0dc1 01       		.byte	0x1
 2393 0dc2 3E02     		.2byte	0x23e
 2394 0dc4 00000000 		.4byte	.LFB19
 2395 0dc8 12000000 		.4byte	.LFE19-.LFB19
 2396 0dcc 01       		.uleb128 0x1
 2397 0dcd 9C       		.byte	0x9c
 2398 0dce E10D0000 		.4byte	0xde1
 2399 0dd2 35       		.uleb128 0x35
 2400 0dd3 5E070000 		.4byte	.LASF38
 2401 0dd7 01       		.byte	0x1
 2402 0dd8 3E02     		.2byte	0x23e
 2403 0dda DD010000 		.4byte	0x1dd
 2404 0dde 01       		.uleb128 0x1
 2405 0ddf 50       		.byte	0x50
 2406 0de0 00       		.byte	0
 2407 0de1 36       		.uleb128 0x36
 2408 0de2 55010000 		.4byte	.LASF157
 2409 0de6 01       		.byte	0x1
 2410 0de7 4E       		.byte	0x4e
 2411 0de8 F0000000 		.4byte	0xf0
 2412 0dec 05       		.uleb128 0x5
 2413 0ded 03       		.byte	0x3
 2414 0dee 00000000 		.4byte	netif_num
 2415 0df2 37       		.uleb128 0x37
 2416 0df3 AF010000 		.4byte	.LASF158
 2417 0df7 01       		.byte	0x1
 2418 0df8 4B       		.byte	0x4b
 2419 0df9 DD010000 		.4byte	0x1dd
 2420 0dfd 05       		.uleb128 0x5
 2421 0dfe 03       		.byte	0x3
 2422 0dff 00000000 		.4byte	netif_list
 2423 0e03 37       		.uleb128 0x37
 2424 0e04 4B040000 		.4byte	.LASF159
 2425 0e08 01       		.byte	0x1
 2426 0e09 4C       		.byte	0x4c
 2427 0e0a DD010000 		.4byte	0x1dd
 2428 0e0e 05       		.uleb128 0x5
 2429 0e0f 03       		.byte	0x3
 2430 0e10 00000000 		.4byte	netif_default
 2431 0e14 38       		.uleb128 0x38
 2432 0e15 00040000 		.4byte	.LASF160
 2433 0e19 0A       		.byte	0xa
 2434 0e1a 3C01     		.2byte	0x13c
 2435 0e1c 75080000 		.4byte	0x875
ARM GAS  /tmp/ccHspVc2.s 			page 44


 2436 0e20 38       		.uleb128 0x38
 2437 0e21 E5020000 		.4byte	.LASF161
 2438 0e25 0A       		.byte	0xa
 2439 0e26 3D01     		.2byte	0x13d
 2440 0e28 5B030000 		.4byte	0x35b
 2441 0e2c 39       		.uleb128 0x39
 2442 0e2d 41040000 		.4byte	.LASF162
 2443 0e31 09       		.byte	0x9
 2444 0e32 5E01     		.2byte	0x15e
 2445 0e34 3E0E0000 		.4byte	0xe3e
 2446 0e38 0B       		.uleb128 0xb
 2447 0e39 5B030000 		.4byte	0x35b
 2448 0e3d 00       		.byte	0
 2449 0e3e 3A       		.uleb128 0x3a
 2450 0e3f 37070000 		.4byte	.LASF169
 2451 0e43 0C       		.byte	0xc
 2452 0e44 0102     		.2byte	0x201
 2453 0e46 3B       		.uleb128 0x3b
 2454 0e47 24050000 		.4byte	.LASF170
 2455 0e4b 0D       		.byte	0xd
 2456 0e4c BB       		.byte	0xbb
 2457 0e4d 4B010000 		.4byte	0x14b
 2458 0e51 600E0000 		.4byte	0xe60
 2459 0e55 0B       		.uleb128 0xb
 2460 0e56 DD010000 		.4byte	0x1dd
 2461 0e5a 0B       		.uleb128 0xb
 2462 0e5b E6020000 		.4byte	0x2e6
 2463 0e5f 00       		.byte	0
 2464 0e60 3C       		.uleb128 0x3c
 2465 0e61 88020000 		.4byte	.LASF171
 2466 0e65 0D       		.byte	0xd
 2467 0e66 C1       		.byte	0xc1
 2468 0e67 0B       		.uleb128 0xb
 2469 0e68 DD010000 		.4byte	0x1dd
 2470 0e6c 00       		.byte	0
 2471 0e6d 00       		.byte	0
 2472              		.section	.debug_abbrev,"",%progbits
 2473              	.Ldebug_abbrev0:
 2474 0000 01       		.uleb128 0x1
 2475 0001 11       		.uleb128 0x11
 2476 0002 01       		.byte	0x1
 2477 0003 25       		.uleb128 0x25
 2478 0004 0E       		.uleb128 0xe
 2479 0005 13       		.uleb128 0x13
 2480 0006 0B       		.uleb128 0xb
 2481 0007 03       		.uleb128 0x3
 2482 0008 0E       		.uleb128 0xe
 2483 0009 1B       		.uleb128 0x1b
 2484 000a 0E       		.uleb128 0xe
 2485 000b 55       		.uleb128 0x55
 2486 000c 17       		.uleb128 0x17
 2487 000d 11       		.uleb128 0x11
 2488 000e 01       		.uleb128 0x1
 2489 000f 10       		.uleb128 0x10
 2490 0010 17       		.uleb128 0x17
 2491 0011 00       		.byte	0
 2492 0012 00       		.byte	0
ARM GAS  /tmp/ccHspVc2.s 			page 45


 2493 0013 02       		.uleb128 0x2
 2494 0014 24       		.uleb128 0x24
 2495 0015 00       		.byte	0
 2496 0016 0B       		.uleb128 0xb
 2497 0017 0B       		.uleb128 0xb
 2498 0018 3E       		.uleb128 0x3e
 2499 0019 0B       		.uleb128 0xb
 2500 001a 03       		.uleb128 0x3
 2501 001b 08       		.uleb128 0x8
 2502 001c 00       		.byte	0
 2503 001d 00       		.byte	0
 2504 001e 03       		.uleb128 0x3
 2505 001f 24       		.uleb128 0x24
 2506 0020 00       		.byte	0
 2507 0021 0B       		.uleb128 0xb
 2508 0022 0B       		.uleb128 0xb
 2509 0023 3E       		.uleb128 0x3e
 2510 0024 0B       		.uleb128 0xb
 2511 0025 03       		.uleb128 0x3
 2512 0026 0E       		.uleb128 0xe
 2513 0027 00       		.byte	0
 2514 0028 00       		.byte	0
 2515 0029 04       		.uleb128 0x4
 2516 002a 16       		.uleb128 0x16
 2517 002b 00       		.byte	0
 2518 002c 03       		.uleb128 0x3
 2519 002d 0E       		.uleb128 0xe
 2520 002e 3A       		.uleb128 0x3a
 2521 002f 0B       		.uleb128 0xb
 2522 0030 3B       		.uleb128 0x3b
 2523 0031 0B       		.uleb128 0xb
 2524 0032 49       		.uleb128 0x49
 2525 0033 13       		.uleb128 0x13
 2526 0034 00       		.byte	0
 2527 0035 00       		.byte	0
 2528 0036 05       		.uleb128 0x5
 2529 0037 0F       		.uleb128 0xf
 2530 0038 00       		.byte	0
 2531 0039 0B       		.uleb128 0xb
 2532 003a 0B       		.uleb128 0xb
 2533 003b 00       		.byte	0
 2534 003c 00       		.byte	0
 2535 003d 06       		.uleb128 0x6
 2536 003e 13       		.uleb128 0x13
 2537 003f 01       		.byte	0x1
 2538 0040 03       		.uleb128 0x3
 2539 0041 0E       		.uleb128 0xe
 2540 0042 0B       		.uleb128 0xb
 2541 0043 0B       		.uleb128 0xb
 2542 0044 3A       		.uleb128 0x3a
 2543 0045 0B       		.uleb128 0xb
 2544 0046 3B       		.uleb128 0x3b
 2545 0047 0B       		.uleb128 0xb
 2546 0048 01       		.uleb128 0x1
 2547 0049 13       		.uleb128 0x13
 2548 004a 00       		.byte	0
 2549 004b 00       		.byte	0
ARM GAS  /tmp/ccHspVc2.s 			page 46


 2550 004c 07       		.uleb128 0x7
 2551 004d 0D       		.uleb128 0xd
 2552 004e 00       		.byte	0
 2553 004f 03       		.uleb128 0x3
 2554 0050 0E       		.uleb128 0xe
 2555 0051 3A       		.uleb128 0x3a
 2556 0052 0B       		.uleb128 0xb
 2557 0053 3B       		.uleb128 0x3b
 2558 0054 0B       		.uleb128 0xb
 2559 0055 49       		.uleb128 0x49
 2560 0056 13       		.uleb128 0x13
 2561 0057 38       		.uleb128 0x38
 2562 0058 0B       		.uleb128 0xb
 2563 0059 00       		.byte	0
 2564 005a 00       		.byte	0
 2565 005b 08       		.uleb128 0x8
 2566 005c 0D       		.uleb128 0xd
 2567 005d 00       		.byte	0
 2568 005e 03       		.uleb128 0x3
 2569 005f 08       		.uleb128 0x8
 2570 0060 3A       		.uleb128 0x3a
 2571 0061 0B       		.uleb128 0xb
 2572 0062 3B       		.uleb128 0x3b
 2573 0063 0B       		.uleb128 0xb
 2574 0064 49       		.uleb128 0x49
 2575 0065 13       		.uleb128 0x13
 2576 0066 38       		.uleb128 0x38
 2577 0067 0B       		.uleb128 0xb
 2578 0068 00       		.byte	0
 2579 0069 00       		.byte	0
 2580 006a 09       		.uleb128 0x9
 2581 006b 0F       		.uleb128 0xf
 2582 006c 00       		.byte	0
 2583 006d 0B       		.uleb128 0xb
 2584 006e 0B       		.uleb128 0xb
 2585 006f 49       		.uleb128 0x49
 2586 0070 13       		.uleb128 0x13
 2587 0071 00       		.byte	0
 2588 0072 00       		.byte	0
 2589 0073 0A       		.uleb128 0xa
 2590 0074 15       		.uleb128 0x15
 2591 0075 01       		.byte	0x1
 2592 0076 27       		.uleb128 0x27
 2593 0077 19       		.uleb128 0x19
 2594 0078 49       		.uleb128 0x49
 2595 0079 13       		.uleb128 0x13
 2596 007a 01       		.uleb128 0x1
 2597 007b 13       		.uleb128 0x13
 2598 007c 00       		.byte	0
 2599 007d 00       		.byte	0
 2600 007e 0B       		.uleb128 0xb
 2601 007f 05       		.uleb128 0x5
 2602 0080 00       		.byte	0
 2603 0081 49       		.uleb128 0x49
 2604 0082 13       		.uleb128 0x13
 2605 0083 00       		.byte	0
 2606 0084 00       		.byte	0
ARM GAS  /tmp/ccHspVc2.s 			page 47


 2607 0085 0C       		.uleb128 0xc
 2608 0086 01       		.uleb128 0x1
 2609 0087 01       		.byte	0x1
 2610 0088 49       		.uleb128 0x49
 2611 0089 13       		.uleb128 0x13
 2612 008a 01       		.uleb128 0x1
 2613 008b 13       		.uleb128 0x13
 2614 008c 00       		.byte	0
 2615 008d 00       		.byte	0
 2616 008e 0D       		.uleb128 0xd
 2617 008f 21       		.uleb128 0x21
 2618 0090 00       		.byte	0
 2619 0091 49       		.uleb128 0x49
 2620 0092 13       		.uleb128 0x13
 2621 0093 2F       		.uleb128 0x2f
 2622 0094 0B       		.uleb128 0xb
 2623 0095 00       		.byte	0
 2624 0096 00       		.byte	0
 2625 0097 0E       		.uleb128 0xe
 2626 0098 0D       		.uleb128 0xd
 2627 0099 00       		.byte	0
 2628 009a 03       		.uleb128 0x3
 2629 009b 0E       		.uleb128 0xe
 2630 009c 3A       		.uleb128 0x3a
 2631 009d 0B       		.uleb128 0xb
 2632 009e 3B       		.uleb128 0x3b
 2633 009f 05       		.uleb128 0x5
 2634 00a0 49       		.uleb128 0x49
 2635 00a1 13       		.uleb128 0x13
 2636 00a2 38       		.uleb128 0x38
 2637 00a3 0B       		.uleb128 0xb
 2638 00a4 00       		.byte	0
 2639 00a5 00       		.byte	0
 2640 00a6 0F       		.uleb128 0xf
 2641 00a7 15       		.uleb128 0x15
 2642 00a8 01       		.byte	0x1
 2643 00a9 27       		.uleb128 0x27
 2644 00aa 19       		.uleb128 0x19
 2645 00ab 01       		.uleb128 0x1
 2646 00ac 13       		.uleb128 0x13
 2647 00ad 00       		.byte	0
 2648 00ae 00       		.byte	0
 2649 00af 10       		.uleb128 0x10
 2650 00b0 04       		.uleb128 0x4
 2651 00b1 01       		.byte	0x1
 2652 00b2 03       		.uleb128 0x3
 2653 00b3 0E       		.uleb128 0xe
 2654 00b4 0B       		.uleb128 0xb
 2655 00b5 0B       		.uleb128 0xb
 2656 00b6 3A       		.uleb128 0x3a
 2657 00b7 0B       		.uleb128 0xb
 2658 00b8 3B       		.uleb128 0x3b
 2659 00b9 0B       		.uleb128 0xb
 2660 00ba 01       		.uleb128 0x1
 2661 00bb 13       		.uleb128 0x13
 2662 00bc 00       		.byte	0
 2663 00bd 00       		.byte	0
ARM GAS  /tmp/ccHspVc2.s 			page 48


 2664 00be 11       		.uleb128 0x11
 2665 00bf 28       		.uleb128 0x28
 2666 00c0 00       		.byte	0
 2667 00c1 03       		.uleb128 0x3
 2668 00c2 0E       		.uleb128 0xe
 2669 00c3 1C       		.uleb128 0x1c
 2670 00c4 0D       		.uleb128 0xd
 2671 00c5 00       		.byte	0
 2672 00c6 00       		.byte	0
 2673 00c7 12       		.uleb128 0x12
 2674 00c8 13       		.uleb128 0x13
 2675 00c9 01       		.byte	0x1
 2676 00ca 03       		.uleb128 0x3
 2677 00cb 0E       		.uleb128 0xe
 2678 00cc 0B       		.uleb128 0xb
 2679 00cd 0B       		.uleb128 0xb
 2680 00ce 3A       		.uleb128 0x3a
 2681 00cf 0B       		.uleb128 0xb
 2682 00d0 3B       		.uleb128 0x3b
 2683 00d1 05       		.uleb128 0x5
 2684 00d2 01       		.uleb128 0x1
 2685 00d3 13       		.uleb128 0x13
 2686 00d4 00       		.byte	0
 2687 00d5 00       		.byte	0
 2688 00d6 13       		.uleb128 0x13
 2689 00d7 0D       		.uleb128 0xd
 2690 00d8 00       		.byte	0
 2691 00d9 03       		.uleb128 0x3
 2692 00da 08       		.uleb128 0x8
 2693 00db 3A       		.uleb128 0x3a
 2694 00dc 0B       		.uleb128 0xb
 2695 00dd 3B       		.uleb128 0x3b
 2696 00de 05       		.uleb128 0x5
 2697 00df 49       		.uleb128 0x49
 2698 00e0 13       		.uleb128 0x13
 2699 00e1 38       		.uleb128 0x38
 2700 00e2 0B       		.uleb128 0xb
 2701 00e3 00       		.byte	0
 2702 00e4 00       		.byte	0
 2703 00e5 14       		.uleb128 0x14
 2704 00e6 17       		.uleb128 0x17
 2705 00e7 01       		.byte	0x1
 2706 00e8 03       		.uleb128 0x3
 2707 00e9 0E       		.uleb128 0xe
 2708 00ea 0B       		.uleb128 0xb
 2709 00eb 0B       		.uleb128 0xb
 2710 00ec 3A       		.uleb128 0x3a
 2711 00ed 0B       		.uleb128 0xb
 2712 00ee 3B       		.uleb128 0x3b
 2713 00ef 05       		.uleb128 0x5
 2714 00f0 01       		.uleb128 0x1
 2715 00f1 13       		.uleb128 0x13
 2716 00f2 00       		.byte	0
 2717 00f3 00       		.byte	0
 2718 00f4 15       		.uleb128 0x15
 2719 00f5 0D       		.uleb128 0xd
 2720 00f6 00       		.byte	0
ARM GAS  /tmp/ccHspVc2.s 			page 49


 2721 00f7 03       		.uleb128 0x3
 2722 00f8 0E       		.uleb128 0xe
 2723 00f9 3A       		.uleb128 0x3a
 2724 00fa 0B       		.uleb128 0xb
 2725 00fb 3B       		.uleb128 0x3b
 2726 00fc 05       		.uleb128 0x5
 2727 00fd 49       		.uleb128 0x49
 2728 00fe 13       		.uleb128 0x13
 2729 00ff 00       		.byte	0
 2730 0100 00       		.byte	0
 2731 0101 16       		.uleb128 0x16
 2732 0102 04       		.uleb128 0x4
 2733 0103 01       		.byte	0x1
 2734 0104 0B       		.uleb128 0xb
 2735 0105 0B       		.uleb128 0xb
 2736 0106 3A       		.uleb128 0x3a
 2737 0107 0B       		.uleb128 0xb
 2738 0108 3B       		.uleb128 0x3b
 2739 0109 0B       		.uleb128 0xb
 2740 010a 01       		.uleb128 0x1
 2741 010b 13       		.uleb128 0x13
 2742 010c 00       		.byte	0
 2743 010d 00       		.byte	0
 2744 010e 17       		.uleb128 0x17
 2745 010f 2E       		.uleb128 0x2e
 2746 0110 01       		.byte	0x1
 2747 0111 3F       		.uleb128 0x3f
 2748 0112 19       		.uleb128 0x19
 2749 0113 03       		.uleb128 0x3
 2750 0114 0E       		.uleb128 0xe
 2751 0115 3A       		.uleb128 0x3a
 2752 0116 0B       		.uleb128 0xb
 2753 0117 3B       		.uleb128 0x3b
 2754 0118 05       		.uleb128 0x5
 2755 0119 27       		.uleb128 0x27
 2756 011a 19       		.uleb128 0x19
 2757 011b 20       		.uleb128 0x20
 2758 011c 0B       		.uleb128 0xb
 2759 011d 01       		.uleb128 0x1
 2760 011e 13       		.uleb128 0x13
 2761 011f 00       		.byte	0
 2762 0120 00       		.byte	0
 2763 0121 18       		.uleb128 0x18
 2764 0122 05       		.uleb128 0x5
 2765 0123 00       		.byte	0
 2766 0124 03       		.uleb128 0x3
 2767 0125 0E       		.uleb128 0xe
 2768 0126 3A       		.uleb128 0x3a
 2769 0127 0B       		.uleb128 0xb
 2770 0128 3B       		.uleb128 0x3b
 2771 0129 05       		.uleb128 0x5
 2772 012a 49       		.uleb128 0x49
 2773 012b 13       		.uleb128 0x13
 2774 012c 00       		.byte	0
 2775 012d 00       		.byte	0
 2776 012e 19       		.uleb128 0x19
 2777 012f 05       		.uleb128 0x5
ARM GAS  /tmp/ccHspVc2.s 			page 50


 2778 0130 00       		.byte	0
 2779 0131 03       		.uleb128 0x3
 2780 0132 08       		.uleb128 0x8
 2781 0133 3A       		.uleb128 0x3a
 2782 0134 0B       		.uleb128 0xb
 2783 0135 3B       		.uleb128 0x3b
 2784 0136 05       		.uleb128 0x5
 2785 0137 49       		.uleb128 0x49
 2786 0138 13       		.uleb128 0x13
 2787 0139 00       		.byte	0
 2788 013a 00       		.byte	0
 2789 013b 1A       		.uleb128 0x1a
 2790 013c 2E       		.uleb128 0x2e
 2791 013d 01       		.byte	0x1
 2792 013e 3F       		.uleb128 0x3f
 2793 013f 19       		.uleb128 0x19
 2794 0140 03       		.uleb128 0x3
 2795 0141 0E       		.uleb128 0xe
 2796 0142 3A       		.uleb128 0x3a
 2797 0143 0B       		.uleb128 0xb
 2798 0144 3B       		.uleb128 0x3b
 2799 0145 0B       		.uleb128 0xb
 2800 0146 27       		.uleb128 0x27
 2801 0147 19       		.uleb128 0x19
 2802 0148 20       		.uleb128 0x20
 2803 0149 0B       		.uleb128 0xb
 2804 014a 01       		.uleb128 0x1
 2805 014b 13       		.uleb128 0x13
 2806 014c 00       		.byte	0
 2807 014d 00       		.byte	0
 2808 014e 1B       		.uleb128 0x1b
 2809 014f 05       		.uleb128 0x5
 2810 0150 00       		.byte	0
 2811 0151 03       		.uleb128 0x3
 2812 0152 0E       		.uleb128 0xe
 2813 0153 3A       		.uleb128 0x3a
 2814 0154 0B       		.uleb128 0xb
 2815 0155 3B       		.uleb128 0x3b
 2816 0156 0B       		.uleb128 0xb
 2817 0157 49       		.uleb128 0x49
 2818 0158 13       		.uleb128 0x13
 2819 0159 00       		.byte	0
 2820 015a 00       		.byte	0
 2821 015b 1C       		.uleb128 0x1c
 2822 015c 05       		.uleb128 0x5
 2823 015d 00       		.byte	0
 2824 015e 03       		.uleb128 0x3
 2825 015f 08       		.uleb128 0x8
 2826 0160 3A       		.uleb128 0x3a
 2827 0161 0B       		.uleb128 0xb
 2828 0162 3B       		.uleb128 0x3b
 2829 0163 0B       		.uleb128 0xb
 2830 0164 49       		.uleb128 0x49
 2831 0165 13       		.uleb128 0x13
 2832 0166 00       		.byte	0
 2833 0167 00       		.byte	0
 2834 0168 1D       		.uleb128 0x1d
ARM GAS  /tmp/ccHspVc2.s 			page 51


 2835 0169 2E       		.uleb128 0x2e
 2836 016a 00       		.byte	0
 2837 016b 3F       		.uleb128 0x3f
 2838 016c 19       		.uleb128 0x19
 2839 016d 03       		.uleb128 0x3
 2840 016e 0E       		.uleb128 0xe
 2841 016f 3A       		.uleb128 0x3a
 2842 0170 0B       		.uleb128 0xb
 2843 0171 3B       		.uleb128 0x3b
 2844 0172 0B       		.uleb128 0xb
 2845 0173 27       		.uleb128 0x27
 2846 0174 19       		.uleb128 0x19
 2847 0175 11       		.uleb128 0x11
 2848 0176 01       		.uleb128 0x1
 2849 0177 12       		.uleb128 0x12
 2850 0178 06       		.uleb128 0x6
 2851 0179 40       		.uleb128 0x40
 2852 017a 18       		.uleb128 0x18
 2853 017b 9742     		.uleb128 0x2117
 2854 017d 19       		.uleb128 0x19
 2855 017e 00       		.byte	0
 2856 017f 00       		.byte	0
 2857 0180 1E       		.uleb128 0x1e
 2858 0181 2E       		.uleb128 0x2e
 2859 0182 01       		.byte	0x1
 2860 0183 3F       		.uleb128 0x3f
 2861 0184 19       		.uleb128 0x19
 2862 0185 03       		.uleb128 0x3
 2863 0186 0E       		.uleb128 0xe
 2864 0187 3A       		.uleb128 0x3a
 2865 0188 0B       		.uleb128 0xb
 2866 0189 3B       		.uleb128 0x3b
 2867 018a 05       		.uleb128 0x5
 2868 018b 27       		.uleb128 0x27
 2869 018c 19       		.uleb128 0x19
 2870 018d 49       		.uleb128 0x49
 2871 018e 13       		.uleb128 0x13
 2872 018f 11       		.uleb128 0x11
 2873 0190 01       		.uleb128 0x1
 2874 0191 12       		.uleb128 0x12
 2875 0192 06       		.uleb128 0x6
 2876 0193 40       		.uleb128 0x40
 2877 0194 18       		.uleb128 0x18
 2878 0195 9742     		.uleb128 0x2117
 2879 0197 19       		.uleb128 0x19
 2880 0198 01       		.uleb128 0x1
 2881 0199 13       		.uleb128 0x13
 2882 019a 00       		.byte	0
 2883 019b 00       		.byte	0
 2884 019c 1F       		.uleb128 0x1f
 2885 019d 05       		.uleb128 0x5
 2886 019e 00       		.byte	0
 2887 019f 03       		.uleb128 0x3
 2888 01a0 0E       		.uleb128 0xe
 2889 01a1 3A       		.uleb128 0x3a
 2890 01a2 0B       		.uleb128 0xb
 2891 01a3 3B       		.uleb128 0x3b
ARM GAS  /tmp/ccHspVc2.s 			page 52


 2892 01a4 05       		.uleb128 0x5
 2893 01a5 49       		.uleb128 0x49
 2894 01a6 13       		.uleb128 0x13
 2895 01a7 02       		.uleb128 0x2
 2896 01a8 17       		.uleb128 0x17
 2897 01a9 00       		.byte	0
 2898 01aa 00       		.byte	0
 2899 01ab 20       		.uleb128 0x20
 2900 01ac 34       		.uleb128 0x34
 2901 01ad 00       		.byte	0
 2902 01ae 03       		.uleb128 0x3
 2903 01af 0E       		.uleb128 0xe
 2904 01b0 3A       		.uleb128 0x3a
 2905 01b1 0B       		.uleb128 0xb
 2906 01b2 3B       		.uleb128 0x3b
 2907 01b3 05       		.uleb128 0x5
 2908 01b4 49       		.uleb128 0x49
 2909 01b5 13       		.uleb128 0x13
 2910 01b6 02       		.uleb128 0x2
 2911 01b7 17       		.uleb128 0x17
 2912 01b8 00       		.byte	0
 2913 01b9 00       		.byte	0
 2914 01ba 21       		.uleb128 0x21
 2915 01bb 34       		.uleb128 0x34
 2916 01bc 00       		.byte	0
 2917 01bd 03       		.uleb128 0x3
 2918 01be 08       		.uleb128 0x8
 2919 01bf 3A       		.uleb128 0x3a
 2920 01c0 0B       		.uleb128 0xb
 2921 01c1 3B       		.uleb128 0x3b
 2922 01c2 05       		.uleb128 0x5
 2923 01c3 49       		.uleb128 0x49
 2924 01c4 13       		.uleb128 0x13
 2925 01c5 02       		.uleb128 0x2
 2926 01c6 17       		.uleb128 0x17
 2927 01c7 00       		.byte	0
 2928 01c8 00       		.byte	0
 2929 01c9 22       		.uleb128 0x22
 2930 01ca 2E       		.uleb128 0x2e
 2931 01cb 01       		.byte	0x1
 2932 01cc 3F       		.uleb128 0x3f
 2933 01cd 19       		.uleb128 0x19
 2934 01ce 03       		.uleb128 0x3
 2935 01cf 0E       		.uleb128 0xe
 2936 01d0 3A       		.uleb128 0x3a
 2937 01d1 0B       		.uleb128 0xb
 2938 01d2 3B       		.uleb128 0x3b
 2939 01d3 05       		.uleb128 0x5
 2940 01d4 27       		.uleb128 0x27
 2941 01d5 19       		.uleb128 0x19
 2942 01d6 11       		.uleb128 0x11
 2943 01d7 01       		.uleb128 0x1
 2944 01d8 12       		.uleb128 0x12
 2945 01d9 06       		.uleb128 0x6
 2946 01da 40       		.uleb128 0x40
 2947 01db 18       		.uleb128 0x18
 2948 01dc 9742     		.uleb128 0x2117
ARM GAS  /tmp/ccHspVc2.s 			page 53


 2949 01de 19       		.uleb128 0x19
 2950 01df 01       		.uleb128 0x1
 2951 01e0 13       		.uleb128 0x13
 2952 01e1 00       		.byte	0
 2953 01e2 00       		.byte	0
 2954 01e3 23       		.uleb128 0x23
 2955 01e4 0B       		.uleb128 0xb
 2956 01e5 01       		.byte	0x1
 2957 01e6 11       		.uleb128 0x11
 2958 01e7 01       		.uleb128 0x1
 2959 01e8 12       		.uleb128 0x12
 2960 01e9 06       		.uleb128 0x6
 2961 01ea 00       		.byte	0
 2962 01eb 00       		.byte	0
 2963 01ec 24       		.uleb128 0x24
 2964 01ed 898201   		.uleb128 0x4109
 2965 01f0 00       		.byte	0
 2966 01f1 11       		.uleb128 0x11
 2967 01f2 01       		.uleb128 0x1
 2968 01f3 31       		.uleb128 0x31
 2969 01f4 13       		.uleb128 0x13
 2970 01f5 00       		.byte	0
 2971 01f6 00       		.byte	0
 2972 01f7 25       		.uleb128 0x25
 2973 01f8 2E       		.uleb128 0x2e
 2974 01f9 01       		.byte	0x1
 2975 01fa 31       		.uleb128 0x31
 2976 01fb 13       		.uleb128 0x13
 2977 01fc 11       		.uleb128 0x11
 2978 01fd 01       		.uleb128 0x1
 2979 01fe 12       		.uleb128 0x12
 2980 01ff 06       		.uleb128 0x6
 2981 0200 40       		.uleb128 0x40
 2982 0201 18       		.uleb128 0x18
 2983 0202 9742     		.uleb128 0x2117
 2984 0204 19       		.uleb128 0x19
 2985 0205 01       		.uleb128 0x1
 2986 0206 13       		.uleb128 0x13
 2987 0207 00       		.byte	0
 2988 0208 00       		.byte	0
 2989 0209 26       		.uleb128 0x26
 2990 020a 05       		.uleb128 0x5
 2991 020b 00       		.byte	0
 2992 020c 31       		.uleb128 0x31
 2993 020d 13       		.uleb128 0x13
 2994 020e 02       		.uleb128 0x2
 2995 020f 17       		.uleb128 0x17
 2996 0210 00       		.byte	0
 2997 0211 00       		.byte	0
 2998 0212 27       		.uleb128 0x27
 2999 0213 1D       		.uleb128 0x1d
 3000 0214 01       		.byte	0x1
 3001 0215 31       		.uleb128 0x31
 3002 0216 13       		.uleb128 0x13
 3003 0217 11       		.uleb128 0x11
 3004 0218 01       		.uleb128 0x1
 3005 0219 12       		.uleb128 0x12
ARM GAS  /tmp/ccHspVc2.s 			page 54


 3006 021a 06       		.uleb128 0x6
 3007 021b 58       		.uleb128 0x58
 3008 021c 0B       		.uleb128 0xb
 3009 021d 59       		.uleb128 0x59
 3010 021e 0B       		.uleb128 0xb
 3011 021f 01       		.uleb128 0x1
 3012 0220 13       		.uleb128 0x13
 3013 0221 00       		.byte	0
 3014 0222 00       		.byte	0
 3015 0223 28       		.uleb128 0x28
 3016 0224 05       		.uleb128 0x5
 3017 0225 00       		.byte	0
 3018 0226 31       		.uleb128 0x31
 3019 0227 13       		.uleb128 0x13
 3020 0228 02       		.uleb128 0x2
 3021 0229 18       		.uleb128 0x18
 3022 022a 00       		.byte	0
 3023 022b 00       		.byte	0
 3024 022c 29       		.uleb128 0x29
 3025 022d 898201   		.uleb128 0x4109
 3026 0230 01       		.byte	0x1
 3027 0231 11       		.uleb128 0x11
 3028 0232 01       		.uleb128 0x1
 3029 0233 31       		.uleb128 0x31
 3030 0234 13       		.uleb128 0x13
 3031 0235 00       		.byte	0
 3032 0236 00       		.byte	0
 3033 0237 2A       		.uleb128 0x2a
 3034 0238 8A8201   		.uleb128 0x410a
 3035 023b 00       		.byte	0
 3036 023c 02       		.uleb128 0x2
 3037 023d 18       		.uleb128 0x18
 3038 023e 9142     		.uleb128 0x2111
 3039 0240 18       		.uleb128 0x18
 3040 0241 00       		.byte	0
 3041 0242 00       		.byte	0
 3042 0243 2B       		.uleb128 0x2b
 3043 0244 2E       		.uleb128 0x2e
 3044 0245 01       		.byte	0x1
 3045 0246 3F       		.uleb128 0x3f
 3046 0247 19       		.uleb128 0x19
 3047 0248 03       		.uleb128 0x3
 3048 0249 0E       		.uleb128 0xe
 3049 024a 3A       		.uleb128 0x3a
 3050 024b 0B       		.uleb128 0xb
 3051 024c 3B       		.uleb128 0x3b
 3052 024d 0B       		.uleb128 0xb
 3053 024e 27       		.uleb128 0x27
 3054 024f 19       		.uleb128 0x19
 3055 0250 49       		.uleb128 0x49
 3056 0251 13       		.uleb128 0x13
 3057 0252 11       		.uleb128 0x11
 3058 0253 01       		.uleb128 0x1
 3059 0254 12       		.uleb128 0x12
 3060 0255 06       		.uleb128 0x6
 3061 0256 40       		.uleb128 0x40
 3062 0257 18       		.uleb128 0x18
ARM GAS  /tmp/ccHspVc2.s 			page 55


 3063 0258 9742     		.uleb128 0x2117
 3064 025a 19       		.uleb128 0x19
 3065 025b 01       		.uleb128 0x1
 3066 025c 13       		.uleb128 0x13
 3067 025d 00       		.byte	0
 3068 025e 00       		.byte	0
 3069 025f 2C       		.uleb128 0x2c
 3070 0260 05       		.uleb128 0x5
 3071 0261 00       		.byte	0
 3072 0262 03       		.uleb128 0x3
 3073 0263 0E       		.uleb128 0xe
 3074 0264 3A       		.uleb128 0x3a
 3075 0265 0B       		.uleb128 0xb
 3076 0266 3B       		.uleb128 0x3b
 3077 0267 0B       		.uleb128 0xb
 3078 0268 49       		.uleb128 0x49
 3079 0269 13       		.uleb128 0x13
 3080 026a 02       		.uleb128 0x2
 3081 026b 17       		.uleb128 0x17
 3082 026c 00       		.byte	0
 3083 026d 00       		.byte	0
 3084 026e 2D       		.uleb128 0x2d
 3085 026f 05       		.uleb128 0x5
 3086 0270 00       		.byte	0
 3087 0271 03       		.uleb128 0x3
 3088 0272 08       		.uleb128 0x8
 3089 0273 3A       		.uleb128 0x3a
 3090 0274 0B       		.uleb128 0xb
 3091 0275 3B       		.uleb128 0x3b
 3092 0276 0B       		.uleb128 0xb
 3093 0277 49       		.uleb128 0x49
 3094 0278 13       		.uleb128 0x13
 3095 0279 02       		.uleb128 0x2
 3096 027a 17       		.uleb128 0x17
 3097 027b 00       		.byte	0
 3098 027c 00       		.byte	0
 3099 027d 2E       		.uleb128 0x2e
 3100 027e 1D       		.uleb128 0x1d
 3101 027f 01       		.byte	0x1
 3102 0280 31       		.uleb128 0x31
 3103 0281 13       		.uleb128 0x13
 3104 0282 52       		.uleb128 0x52
 3105 0283 01       		.uleb128 0x1
 3106 0284 55       		.uleb128 0x55
 3107 0285 17       		.uleb128 0x17
 3108 0286 58       		.uleb128 0x58
 3109 0287 0B       		.uleb128 0xb
 3110 0288 59       		.uleb128 0x59
 3111 0289 0B       		.uleb128 0xb
 3112 028a 01       		.uleb128 0x1
 3113 028b 13       		.uleb128 0x13
 3114 028c 00       		.byte	0
 3115 028d 00       		.byte	0
 3116 028e 2F       		.uleb128 0x2f
 3117 028f 898201   		.uleb128 0x4109
 3118 0292 01       		.byte	0x1
 3119 0293 11       		.uleb128 0x11
ARM GAS  /tmp/ccHspVc2.s 			page 56


 3120 0294 01       		.uleb128 0x1
 3121 0295 01       		.uleb128 0x1
 3122 0296 13       		.uleb128 0x13
 3123 0297 00       		.byte	0
 3124 0298 00       		.byte	0
 3125 0299 30       		.uleb128 0x30
 3126 029a 898201   		.uleb128 0x4109
 3127 029d 01       		.byte	0x1
 3128 029e 11       		.uleb128 0x11
 3129 029f 01       		.uleb128 0x1
 3130 02a0 9542     		.uleb128 0x2115
 3131 02a2 19       		.uleb128 0x19
 3132 02a3 31       		.uleb128 0x31
 3133 02a4 13       		.uleb128 0x13
 3134 02a5 00       		.byte	0
 3135 02a6 00       		.byte	0
 3136 02a7 31       		.uleb128 0x31
 3137 02a8 898201   		.uleb128 0x4109
 3138 02ab 00       		.byte	0
 3139 02ac 11       		.uleb128 0x11
 3140 02ad 01       		.uleb128 0x1
 3141 02ae 9542     		.uleb128 0x2115
 3142 02b0 19       		.uleb128 0x19
 3143 02b1 31       		.uleb128 0x31
 3144 02b2 13       		.uleb128 0x13
 3145 02b3 00       		.byte	0
 3146 02b4 00       		.byte	0
 3147 02b5 32       		.uleb128 0x32
 3148 02b6 2E       		.uleb128 0x2e
 3149 02b7 01       		.byte	0x1
 3150 02b8 3F       		.uleb128 0x3f
 3151 02b9 19       		.uleb128 0x19
 3152 02ba 03       		.uleb128 0x3
 3153 02bb 0E       		.uleb128 0xe
 3154 02bc 3A       		.uleb128 0x3a
 3155 02bd 0B       		.uleb128 0xb
 3156 02be 3B       		.uleb128 0x3b
 3157 02bf 0B       		.uleb128 0xb
 3158 02c0 27       		.uleb128 0x27
 3159 02c1 19       		.uleb128 0x19
 3160 02c2 11       		.uleb128 0x11
 3161 02c3 01       		.uleb128 0x1
 3162 02c4 12       		.uleb128 0x12
 3163 02c5 06       		.uleb128 0x6
 3164 02c6 40       		.uleb128 0x40
 3165 02c7 18       		.uleb128 0x18
 3166 02c8 9742     		.uleb128 0x2117
 3167 02ca 19       		.uleb128 0x19
 3168 02cb 01       		.uleb128 0x1
 3169 02cc 13       		.uleb128 0x13
 3170 02cd 00       		.byte	0
 3171 02ce 00       		.byte	0
 3172 02cf 33       		.uleb128 0x33
 3173 02d0 0B       		.uleb128 0xb
 3174 02d1 01       		.byte	0x1
 3175 02d2 11       		.uleb128 0x11
 3176 02d3 01       		.uleb128 0x1
ARM GAS  /tmp/ccHspVc2.s 			page 57


 3177 02d4 12       		.uleb128 0x12
 3178 02d5 06       		.uleb128 0x6
 3179 02d6 01       		.uleb128 0x1
 3180 02d7 13       		.uleb128 0x13
 3181 02d8 00       		.byte	0
 3182 02d9 00       		.byte	0
 3183 02da 34       		.uleb128 0x34
 3184 02db 1D       		.uleb128 0x1d
 3185 02dc 01       		.byte	0x1
 3186 02dd 31       		.uleb128 0x31
 3187 02de 13       		.uleb128 0x13
 3188 02df 11       		.uleb128 0x11
 3189 02e0 01       		.uleb128 0x1
 3190 02e1 12       		.uleb128 0x12
 3191 02e2 06       		.uleb128 0x6
 3192 02e3 58       		.uleb128 0x58
 3193 02e4 0B       		.uleb128 0xb
 3194 02e5 59       		.uleb128 0x59
 3195 02e6 05       		.uleb128 0x5
 3196 02e7 01       		.uleb128 0x1
 3197 02e8 13       		.uleb128 0x13
 3198 02e9 00       		.byte	0
 3199 02ea 00       		.byte	0
 3200 02eb 35       		.uleb128 0x35
 3201 02ec 05       		.uleb128 0x5
 3202 02ed 00       		.byte	0
 3203 02ee 03       		.uleb128 0x3
 3204 02ef 0E       		.uleb128 0xe
 3205 02f0 3A       		.uleb128 0x3a
 3206 02f1 0B       		.uleb128 0xb
 3207 02f2 3B       		.uleb128 0x3b
 3208 02f3 05       		.uleb128 0x5
 3209 02f4 49       		.uleb128 0x49
 3210 02f5 13       		.uleb128 0x13
 3211 02f6 02       		.uleb128 0x2
 3212 02f7 18       		.uleb128 0x18
 3213 02f8 00       		.byte	0
 3214 02f9 00       		.byte	0
 3215 02fa 36       		.uleb128 0x36
 3216 02fb 34       		.uleb128 0x34
 3217 02fc 00       		.byte	0
 3218 02fd 03       		.uleb128 0x3
 3219 02fe 0E       		.uleb128 0xe
 3220 02ff 3A       		.uleb128 0x3a
 3221 0300 0B       		.uleb128 0xb
 3222 0301 3B       		.uleb128 0x3b
 3223 0302 0B       		.uleb128 0xb
 3224 0303 49       		.uleb128 0x49
 3225 0304 13       		.uleb128 0x13
 3226 0305 02       		.uleb128 0x2
 3227 0306 18       		.uleb128 0x18
 3228 0307 00       		.byte	0
 3229 0308 00       		.byte	0
 3230 0309 37       		.uleb128 0x37
 3231 030a 34       		.uleb128 0x34
 3232 030b 00       		.byte	0
 3233 030c 03       		.uleb128 0x3
ARM GAS  /tmp/ccHspVc2.s 			page 58


 3234 030d 0E       		.uleb128 0xe
 3235 030e 3A       		.uleb128 0x3a
 3236 030f 0B       		.uleb128 0xb
 3237 0310 3B       		.uleb128 0x3b
 3238 0311 0B       		.uleb128 0xb
 3239 0312 49       		.uleb128 0x49
 3240 0313 13       		.uleb128 0x13
 3241 0314 3F       		.uleb128 0x3f
 3242 0315 19       		.uleb128 0x19
 3243 0316 02       		.uleb128 0x2
 3244 0317 18       		.uleb128 0x18
 3245 0318 00       		.byte	0
 3246 0319 00       		.byte	0
 3247 031a 38       		.uleb128 0x38
 3248 031b 34       		.uleb128 0x34
 3249 031c 00       		.byte	0
 3250 031d 03       		.uleb128 0x3
 3251 031e 0E       		.uleb128 0xe
 3252 031f 3A       		.uleb128 0x3a
 3253 0320 0B       		.uleb128 0xb
 3254 0321 3B       		.uleb128 0x3b
 3255 0322 05       		.uleb128 0x5
 3256 0323 49       		.uleb128 0x49
 3257 0324 13       		.uleb128 0x13
 3258 0325 3F       		.uleb128 0x3f
 3259 0326 19       		.uleb128 0x19
 3260 0327 3C       		.uleb128 0x3c
 3261 0328 19       		.uleb128 0x19
 3262 0329 00       		.byte	0
 3263 032a 00       		.byte	0
 3264 032b 39       		.uleb128 0x39
 3265 032c 2E       		.uleb128 0x2e
 3266 032d 01       		.byte	0x1
 3267 032e 3F       		.uleb128 0x3f
 3268 032f 19       		.uleb128 0x19
 3269 0330 03       		.uleb128 0x3
 3270 0331 0E       		.uleb128 0xe
 3271 0332 3A       		.uleb128 0x3a
 3272 0333 0B       		.uleb128 0xb
 3273 0334 3B       		.uleb128 0x3b
 3274 0335 05       		.uleb128 0x5
 3275 0336 27       		.uleb128 0x27
 3276 0337 19       		.uleb128 0x19
 3277 0338 3C       		.uleb128 0x3c
 3278 0339 19       		.uleb128 0x19
 3279 033a 01       		.uleb128 0x1
 3280 033b 13       		.uleb128 0x13
 3281 033c 00       		.byte	0
 3282 033d 00       		.byte	0
 3283 033e 3A       		.uleb128 0x3a
 3284 033f 2E       		.uleb128 0x2e
 3285 0340 00       		.byte	0
 3286 0341 3F       		.uleb128 0x3f
 3287 0342 19       		.uleb128 0x19
 3288 0343 03       		.uleb128 0x3
 3289 0344 0E       		.uleb128 0xe
 3290 0345 3A       		.uleb128 0x3a
ARM GAS  /tmp/ccHspVc2.s 			page 59


 3291 0346 0B       		.uleb128 0xb
 3292 0347 3B       		.uleb128 0x3b
 3293 0348 05       		.uleb128 0x5
 3294 0349 27       		.uleb128 0x27
 3295 034a 19       		.uleb128 0x19
 3296 034b 3C       		.uleb128 0x3c
 3297 034c 19       		.uleb128 0x19
 3298 034d 00       		.byte	0
 3299 034e 00       		.byte	0
 3300 034f 3B       		.uleb128 0x3b
 3301 0350 2E       		.uleb128 0x2e
 3302 0351 01       		.byte	0x1
 3303 0352 3F       		.uleb128 0x3f
 3304 0353 19       		.uleb128 0x19
 3305 0354 03       		.uleb128 0x3
 3306 0355 0E       		.uleb128 0xe
 3307 0356 3A       		.uleb128 0x3a
 3308 0357 0B       		.uleb128 0xb
 3309 0358 3B       		.uleb128 0x3b
 3310 0359 0B       		.uleb128 0xb
 3311 035a 27       		.uleb128 0x27
 3312 035b 19       		.uleb128 0x19
 3313 035c 49       		.uleb128 0x49
 3314 035d 13       		.uleb128 0x13
 3315 035e 3C       		.uleb128 0x3c
 3316 035f 19       		.uleb128 0x19
 3317 0360 01       		.uleb128 0x1
 3318 0361 13       		.uleb128 0x13
 3319 0362 00       		.byte	0
 3320 0363 00       		.byte	0
 3321 0364 3C       		.uleb128 0x3c
 3322 0365 2E       		.uleb128 0x2e
 3323 0366 01       		.byte	0x1
 3324 0367 3F       		.uleb128 0x3f
 3325 0368 19       		.uleb128 0x19
 3326 0369 03       		.uleb128 0x3
 3327 036a 0E       		.uleb128 0xe
 3328 036b 3A       		.uleb128 0x3a
 3329 036c 0B       		.uleb128 0xb
 3330 036d 3B       		.uleb128 0x3b
 3331 036e 0B       		.uleb128 0xb
 3332 036f 27       		.uleb128 0x27
 3333 0370 19       		.uleb128 0x19
 3334 0371 3C       		.uleb128 0x3c
 3335 0372 19       		.uleb128 0x19
 3336 0373 00       		.byte	0
 3337 0374 00       		.byte	0
 3338 0375 00       		.byte	0
 3339              		.section	.debug_loc,"",%progbits
 3340              	.Ldebug_loc0:
 3341              	.LLST0:
 3342 0000 00000000 		.4byte	.LVL0
 3343 0004 3A000000 		.4byte	.LVL3
 3344 0008 0100     		.2byte	0x1
 3345 000a 50       		.byte	0x50
 3346 000b 3A000000 		.4byte	.LVL3
 3347 000f 40000000 		.4byte	.LFE11
ARM GAS  /tmp/ccHspVc2.s 			page 60


 3348 0013 0400     		.2byte	0x4
 3349 0015 F3       		.byte	0xf3
 3350 0016 01       		.uleb128 0x1
 3351 0017 50       		.byte	0x50
 3352 0018 9F       		.byte	0x9f
 3353 0019 00000000 		.4byte	0
 3354 001d 00000000 		.4byte	0
 3355              	.LLST1:
 3356 0021 14000000 		.4byte	.LVL1
 3357 0025 3A000000 		.4byte	.LVL3
 3358 0029 0100     		.2byte	0x1
 3359 002b 53       		.byte	0x53
 3360 002c 00000000 		.4byte	0
 3361 0030 00000000 		.4byte	0
 3362              	.LLST2:
 3363 0034 14000000 		.4byte	.LVL1
 3364 0038 3A000000 		.4byte	.LVL3
 3365 003c 0100     		.2byte	0x1
 3366 003e 51       		.byte	0x51
 3367 003f 00000000 		.4byte	0
 3368 0043 00000000 		.4byte	0
 3369              	.LLST3:
 3370 0047 00000000 		.4byte	.LVL4
 3371 004b 1C000000 		.4byte	.LVL6
 3372 004f 0100     		.2byte	0x1
 3373 0051 50       		.byte	0x50
 3374 0052 1C000000 		.4byte	.LVL6
 3375 0056 68000000 		.4byte	.LFE12
 3376 005a 0100     		.2byte	0x1
 3377 005c 55       		.byte	0x55
 3378 005d 00000000 		.4byte	0
 3379 0061 00000000 		.4byte	0
 3380              	.LLST4:
 3381 0065 00000000 		.4byte	.LVL4
 3382 0069 0C000000 		.4byte	.LVL5
 3383 006d 0100     		.2byte	0x1
 3384 006f 51       		.byte	0x51
 3385 0070 0C000000 		.4byte	.LVL5
 3386 0074 68000000 		.4byte	.LFE12
 3387 0078 0100     		.2byte	0x1
 3388 007a 56       		.byte	0x56
 3389 007b 00000000 		.4byte	0
 3390 007f 00000000 		.4byte	0
 3391              	.LLST5:
 3392 0083 1C000000 		.4byte	.LVL6
 3393 0087 26000000 		.4byte	.LVL7
 3394 008b 0100     		.2byte	0x1
 3395 008d 50       		.byte	0x50
 3396 008e 26000000 		.4byte	.LVL7
 3397 0092 28000000 		.4byte	.LVL8
 3398 0096 0200     		.2byte	0x2
 3399 0098 73       		.byte	0x73
 3400 0099 00       		.sleb128 0
 3401 009a 28000000 		.4byte	.LVL8
 3402 009e 34000000 		.4byte	.LVL9
 3403 00a2 0100     		.2byte	0x1
 3404 00a4 50       		.byte	0x50
ARM GAS  /tmp/ccHspVc2.s 			page 61


 3405 00a5 3C000000 		.4byte	.LVL11
 3406 00a9 42000000 		.4byte	.LVL12
 3407 00ad 0100     		.2byte	0x1
 3408 00af 54       		.byte	0x54
 3409 00b0 42000000 		.4byte	.LVL12
 3410 00b4 50000000 		.4byte	.LVL14
 3411 00b8 0100     		.2byte	0x1
 3412 00ba 50       		.byte	0x50
 3413 00bb 00000000 		.4byte	0
 3414 00bf 00000000 		.4byte	0
 3415              	.LLST6:
 3416 00c3 4E000000 		.4byte	.LVL13
 3417 00c7 64000000 		.4byte	.LVL16
 3418 00cb 0100     		.2byte	0x1
 3419 00cd 53       		.byte	0x53
 3420 00ce 00000000 		.4byte	0
 3421 00d2 00000000 		.4byte	0
 3422              	.LLST7:
 3423 00d6 38000000 		.4byte	.LVL10
 3424 00da 42000000 		.4byte	.LVL12
 3425 00de 0100     		.2byte	0x1
 3426 00e0 54       		.byte	0x54
 3427 00e1 00000000 		.4byte	0
 3428 00e5 00000000 		.4byte	0
 3429              	.LLST8:
 3430 00e9 00000000 		.4byte	.LVL17
 3431 00ed 0B000000 		.4byte	.LVL18-1
 3432 00f1 0100     		.2byte	0x1
 3433 00f3 50       		.byte	0x50
 3434 00f4 0B000000 		.4byte	.LVL18-1
 3435 00f8 1A000000 		.4byte	.LFE9
 3436 00fc 0100     		.2byte	0x1
 3437 00fe 55       		.byte	0x55
 3438 00ff 00000000 		.4byte	0
 3439 0103 00000000 		.4byte	0
 3440              	.LLST9:
 3441 0107 00000000 		.4byte	.LVL17
 3442 010b 0B000000 		.4byte	.LVL18-1
 3443 010f 0100     		.2byte	0x1
 3444 0111 51       		.byte	0x51
 3445 0112 0B000000 		.4byte	.LVL18-1
 3446 0116 1A000000 		.4byte	.LFE9
 3447 011a 0400     		.2byte	0x4
 3448 011c F3       		.byte	0xf3
 3449 011d 01       		.uleb128 0x1
 3450 011e 51       		.byte	0x51
 3451 011f 9F       		.byte	0x9f
 3452 0120 00000000 		.4byte	0
 3453 0124 00000000 		.4byte	0
 3454              	.LLST10:
 3455 0128 00000000 		.4byte	.LVL17
 3456 012c 0B000000 		.4byte	.LVL18-1
 3457 0130 0100     		.2byte	0x1
 3458 0132 52       		.byte	0x52
 3459 0133 0B000000 		.4byte	.LVL18-1
 3460 0137 10000000 		.4byte	.LVL19
 3461 013b 0100     		.2byte	0x1
ARM GAS  /tmp/ccHspVc2.s 			page 62


 3462 013d 54       		.byte	0x54
 3463 013e 10000000 		.4byte	.LVL19
 3464 0142 1A000000 		.4byte	.LFE9
 3465 0146 0400     		.2byte	0x4
 3466 0148 F3       		.byte	0xf3
 3467 0149 01       		.uleb128 0x1
 3468 014a 52       		.byte	0x52
 3469 014b 9F       		.byte	0x9f
 3470 014c 00000000 		.4byte	0
 3471 0150 00000000 		.4byte	0
 3472              	.LLST11:
 3473 0154 00000000 		.4byte	.LVL17
 3474 0158 0B000000 		.4byte	.LVL18-1
 3475 015c 0100     		.2byte	0x1
 3476 015e 53       		.byte	0x53
 3477 015f 0B000000 		.4byte	.LVL18-1
 3478 0163 16000000 		.4byte	.LVL21
 3479 0167 0100     		.2byte	0x1
 3480 0169 56       		.byte	0x56
 3481 016a 16000000 		.4byte	.LVL21
 3482 016e 1A000000 		.4byte	.LFE9
 3483 0172 0400     		.2byte	0x4
 3484 0174 F3       		.byte	0xf3
 3485 0175 01       		.uleb128 0x1
 3486 0176 53       		.byte	0x53
 3487 0177 9F       		.byte	0x9f
 3488 0178 00000000 		.4byte	0
 3489 017c 00000000 		.4byte	0
 3490              	.LLST12:
 3491 0180 0C000000 		.4byte	.LVL18
 3492 0184 10000000 		.4byte	.LVL19
 3493 0188 0100     		.2byte	0x1
 3494 018a 54       		.byte	0x54
 3495 018b 10000000 		.4byte	.LVL19
 3496 018f 1A000000 		.4byte	.LFE9
 3497 0193 0400     		.2byte	0x4
 3498 0195 F3       		.byte	0xf3
 3499 0196 01       		.uleb128 0x1
 3500 0197 52       		.byte	0x52
 3501 0198 9F       		.byte	0x9f
 3502 0199 00000000 		.4byte	0
 3503 019d 00000000 		.4byte	0
 3504              	.LLST13:
 3505 01a1 12000000 		.4byte	.LVL20
 3506 01a5 16000000 		.4byte	.LVL21
 3507 01a9 0100     		.2byte	0x1
 3508 01ab 56       		.byte	0x56
 3509 01ac 16000000 		.4byte	.LVL21
 3510 01b0 1A000000 		.4byte	.LFE9
 3511 01b4 0400     		.2byte	0x4
 3512 01b6 F3       		.byte	0xf3
 3513 01b7 01       		.uleb128 0x1
 3514 01b8 53       		.byte	0x53
 3515 01b9 9F       		.byte	0x9f
 3516 01ba 00000000 		.4byte	0
 3517 01be 00000000 		.4byte	0
 3518              	.LLST14:
ARM GAS  /tmp/ccHspVc2.s 			page 63


 3519 01c2 00000000 		.4byte	.LVL22
 3520 01c6 12000000 		.4byte	.LVL23
 3521 01ca 0100     		.2byte	0x1
 3522 01cc 50       		.byte	0x50
 3523 01cd 12000000 		.4byte	.LVL23
 3524 01d1 78000000 		.4byte	.LVL33
 3525 01d5 0100     		.2byte	0x1
 3526 01d7 54       		.byte	0x54
 3527 01d8 78000000 		.4byte	.LVL33
 3528 01dc 7D000000 		.4byte	.LVL34-1
 3529 01e0 0100     		.2byte	0x1
 3530 01e2 50       		.byte	0x50
 3531 01e3 7D000000 		.4byte	.LVL34-1
 3532 01e7 82000000 		.4byte	.LFE8
 3533 01eb 0100     		.2byte	0x1
 3534 01ed 54       		.byte	0x54
 3535 01ee 00000000 		.4byte	0
 3536 01f2 00000000 		.4byte	0
 3537              	.LLST15:
 3538 01f6 00000000 		.4byte	.LVL22
 3539 01fa 12000000 		.4byte	.LVL23
 3540 01fe 0100     		.2byte	0x1
 3541 0200 51       		.byte	0x51
 3542 0201 12000000 		.4byte	.LVL23
 3543 0205 78000000 		.4byte	.LVL33
 3544 0209 0400     		.2byte	0x4
 3545 020b F3       		.byte	0xf3
 3546 020c 01       		.uleb128 0x1
 3547 020d 51       		.byte	0x51
 3548 020e 9F       		.byte	0x9f
 3549 020f 78000000 		.4byte	.LVL33
 3550 0213 7D000000 		.4byte	.LVL34-1
 3551 0217 0100     		.2byte	0x1
 3552 0219 51       		.byte	0x51
 3553 021a 7D000000 		.4byte	.LVL34-1
 3554 021e 82000000 		.4byte	.LFE8
 3555 0222 0400     		.2byte	0x4
 3556 0224 F3       		.byte	0xf3
 3557 0225 01       		.uleb128 0x1
 3558 0226 51       		.byte	0x51
 3559 0227 9F       		.byte	0x9f
 3560 0228 00000000 		.4byte	0
 3561 022c 00000000 		.4byte	0
 3562              	.LLST16:
 3563 0230 00000000 		.4byte	.LVL22
 3564 0234 12000000 		.4byte	.LVL23
 3565 0238 0100     		.2byte	0x1
 3566 023a 52       		.byte	0x52
 3567 023b 12000000 		.4byte	.LVL23
 3568 023f 46000000 		.4byte	.LVL26
 3569 0243 0100     		.2byte	0x1
 3570 0245 59       		.byte	0x59
 3571 0246 46000000 		.4byte	.LVL26
 3572 024a 4A000000 		.4byte	.LVL27
 3573 024e 0100     		.2byte	0x1
 3574 0250 53       		.byte	0x53
 3575 0251 4A000000 		.4byte	.LVL27
ARM GAS  /tmp/ccHspVc2.s 			page 64


 3576 0255 78000000 		.4byte	.LVL33
 3577 0259 0100     		.2byte	0x1
 3578 025b 59       		.byte	0x59
 3579 025c 78000000 		.4byte	.LVL33
 3580 0260 7D000000 		.4byte	.LVL34-1
 3581 0264 0100     		.2byte	0x1
 3582 0266 52       		.byte	0x52
 3583 0267 7D000000 		.4byte	.LVL34-1
 3584 026b 82000000 		.4byte	.LFE8
 3585 026f 0100     		.2byte	0x1
 3586 0271 59       		.byte	0x59
 3587 0272 00000000 		.4byte	0
 3588 0276 00000000 		.4byte	0
 3589              	.LLST17:
 3590 027a 00000000 		.4byte	.LVL22
 3591 027e 12000000 		.4byte	.LVL23
 3592 0282 0100     		.2byte	0x1
 3593 0284 53       		.byte	0x53
 3594 0285 12000000 		.4byte	.LVL23
 3595 0289 50000000 		.4byte	.LVL29
 3596 028d 0100     		.2byte	0x1
 3597 028f 57       		.byte	0x57
 3598 0290 50000000 		.4byte	.LVL29
 3599 0294 52000000 		.4byte	.LVL30
 3600 0298 0100     		.2byte	0x1
 3601 029a 53       		.byte	0x53
 3602 029b 52000000 		.4byte	.LVL30
 3603 029f 78000000 		.4byte	.LVL33
 3604 02a3 0100     		.2byte	0x1
 3605 02a5 57       		.byte	0x57
 3606 02a6 78000000 		.4byte	.LVL33
 3607 02aa 7D000000 		.4byte	.LVL34-1
 3608 02ae 0100     		.2byte	0x1
 3609 02b0 53       		.byte	0x53
 3610 02b1 7D000000 		.4byte	.LVL34-1
 3611 02b5 82000000 		.4byte	.LFE8
 3612 02b9 0100     		.2byte	0x1
 3613 02bb 57       		.byte	0x57
 3614 02bc 00000000 		.4byte	0
 3615 02c0 00000000 		.4byte	0
 3616              	.LLST18:
 3617 02c4 00000000 		.4byte	.LVL22
 3618 02c8 70000000 		.4byte	.LVL32
 3619 02cc 0200     		.2byte	0x2
 3620 02ce 91       		.byte	0x91
 3621 02cf 00       		.sleb128 0
 3622 02d0 70000000 		.4byte	.LVL32
 3623 02d4 82000000 		.4byte	.LFE8
 3624 02d8 0200     		.2byte	0x2
 3625 02da 91       		.byte	0x91
 3626 02db 00       		.sleb128 0
 3627 02dc 00000000 		.4byte	0
 3628 02e0 00000000 		.4byte	0
 3629              	.LLST19:
 3630 02e4 00000000 		.4byte	.LVL22
 3631 02e8 70000000 		.4byte	.LVL32
 3632 02ec 0200     		.2byte	0x2
ARM GAS  /tmp/ccHspVc2.s 			page 65


 3633 02ee 91       		.byte	0x91
 3634 02ef 04       		.sleb128 4
 3635 02f0 70000000 		.4byte	.LVL32
 3636 02f4 82000000 		.4byte	.LFE8
 3637 02f8 0200     		.2byte	0x2
 3638 02fa 91       		.byte	0x91
 3639 02fb 04       		.sleb128 4
 3640 02fc 00000000 		.4byte	0
 3641 0300 00000000 		.4byte	0
 3642              	.LLST20:
 3643 0304 00000000 		.4byte	.LVL22
 3644 0308 70000000 		.4byte	.LVL32
 3645 030c 0200     		.2byte	0x2
 3646 030e 91       		.byte	0x91
 3647 030f 08       		.sleb128 8
 3648 0310 70000000 		.4byte	.LVL32
 3649 0314 82000000 		.4byte	.LFE8
 3650 0318 0200     		.2byte	0x2
 3651 031a 91       		.byte	0x91
 3652 031b 08       		.sleb128 8
 3653 031c 00000000 		.4byte	0
 3654 0320 00000000 		.4byte	0
 3655              	.LLST21:
 3656 0324 36000000 		.4byte	.LVL24
 3657 0328 50000000 		.4byte	.LVL29
 3658 032c 0100     		.2byte	0x1
 3659 032e 57       		.byte	0x57
 3660 032f 50000000 		.4byte	.LVL29
 3661 0333 52000000 		.4byte	.LVL30
 3662 0337 0100     		.2byte	0x1
 3663 0339 53       		.byte	0x53
 3664 033a 52000000 		.4byte	.LVL30
 3665 033e 78000000 		.4byte	.LVL33
 3666 0342 0100     		.2byte	0x1
 3667 0344 57       		.byte	0x57
 3668 0345 00000000 		.4byte	0
 3669 0349 00000000 		.4byte	0
 3670              	.LLST22:
 3671 034d 36000000 		.4byte	.LVL24
 3672 0351 46000000 		.4byte	.LVL26
 3673 0355 0100     		.2byte	0x1
 3674 0357 59       		.byte	0x59
 3675 0358 46000000 		.4byte	.LVL26
 3676 035c 4A000000 		.4byte	.LVL27
 3677 0360 0100     		.2byte	0x1
 3678 0362 53       		.byte	0x53
 3679 0363 4A000000 		.4byte	.LVL27
 3680 0367 78000000 		.4byte	.LVL33
 3681 036b 0100     		.2byte	0x1
 3682 036d 59       		.byte	0x59
 3683 036e 00000000 		.4byte	0
 3684 0372 00000000 		.4byte	0
 3685              	.LLST23:
 3686 0376 36000000 		.4byte	.LVL24
 3687 037a 3D000000 		.4byte	.LVL25-1
 3688 037e 0100     		.2byte	0x1
 3689 0380 51       		.byte	0x51
ARM GAS  /tmp/ccHspVc2.s 			page 66


 3690 0381 00000000 		.4byte	0
 3691 0385 00000000 		.4byte	0
 3692              	.LLST24:
 3693 0389 36000000 		.4byte	.LVL24
 3694 038d 78000000 		.4byte	.LVL33
 3695 0391 0100     		.2byte	0x1
 3696 0393 54       		.byte	0x54
 3697 0394 00000000 		.4byte	0
 3698 0398 00000000 		.4byte	0
 3699              	.LLST25:
 3700 039c 3E000000 		.4byte	.LVL25
 3701 03a0 46000000 		.4byte	.LVL26
 3702 03a4 0100     		.2byte	0x1
 3703 03a6 59       		.byte	0x59
 3704 03a7 46000000 		.4byte	.LVL26
 3705 03ab 4A000000 		.4byte	.LVL27
 3706 03af 0100     		.2byte	0x1
 3707 03b1 53       		.byte	0x53
 3708 03b2 4A000000 		.4byte	.LVL27
 3709 03b6 78000000 		.4byte	.LVL33
 3710 03ba 0100     		.2byte	0x1
 3711 03bc 59       		.byte	0x59
 3712 03bd 00000000 		.4byte	0
 3713 03c1 00000000 		.4byte	0
 3714              	.LLST26:
 3715 03c5 3E000000 		.4byte	.LVL25
 3716 03c9 78000000 		.4byte	.LVL33
 3717 03cd 0100     		.2byte	0x1
 3718 03cf 54       		.byte	0x54
 3719 03d0 00000000 		.4byte	0
 3720 03d4 00000000 		.4byte	0
 3721              	.LLST27:
 3722 03d8 4C000000 		.4byte	.LVL28
 3723 03dc 50000000 		.4byte	.LVL29
 3724 03e0 0100     		.2byte	0x1
 3725 03e2 57       		.byte	0x57
 3726 03e3 50000000 		.4byte	.LVL29
 3727 03e7 52000000 		.4byte	.LVL30
 3728 03eb 0100     		.2byte	0x1
 3729 03ed 53       		.byte	0x53
 3730 03ee 52000000 		.4byte	.LVL30
 3731 03f2 78000000 		.4byte	.LVL33
 3732 03f6 0100     		.2byte	0x1
 3733 03f8 57       		.byte	0x57
 3734 03f9 00000000 		.4byte	0
 3735 03fd 00000000 		.4byte	0
 3736              	.LLST28:
 3737 0401 4C000000 		.4byte	.LVL28
 3738 0405 78000000 		.4byte	.LVL33
 3739 0409 0100     		.2byte	0x1
 3740 040b 54       		.byte	0x54
 3741 040c 00000000 		.4byte	0
 3742 0410 00000000 		.4byte	0
 3743              	.LLST29:
 3744 0414 00000000 		.4byte	.LVL35
 3745 0418 04000000 		.4byte	.LVL36
 3746 041c 0100     		.2byte	0x1
ARM GAS  /tmp/ccHspVc2.s 			page 67


 3747 041e 51       		.byte	0x51
 3748 041f 04000000 		.4byte	.LVL36
 3749 0423 08000000 		.4byte	.LFE13
 3750 0427 0400     		.2byte	0x4
 3751 0429 F3       		.byte	0xf3
 3752 042a 01       		.uleb128 0x1
 3753 042b 51       		.byte	0x51
 3754 042c 9F       		.byte	0x9f
 3755 042d 00000000 		.4byte	0
 3756 0431 00000000 		.4byte	0
 3757              	.LLST30:
 3758 0435 00000000 		.4byte	.LVL37
 3759 0439 04000000 		.4byte	.LVL38
 3760 043d 0100     		.2byte	0x1
 3761 043f 51       		.byte	0x51
 3762 0440 04000000 		.4byte	.LVL38
 3763 0444 08000000 		.4byte	.LFE14
 3764 0448 0400     		.2byte	0x4
 3765 044a F3       		.byte	0xf3
 3766 044b 01       		.uleb128 0x1
 3767 044c 51       		.byte	0x51
 3768 044d 9F       		.byte	0x9f
 3769 044e 00000000 		.4byte	0
 3770 0452 00000000 		.4byte	0
 3771              	.LLST31:
 3772 0456 00000000 		.4byte	.LVL40
 3773 045a 1F000000 		.4byte	.LVL41-1
 3774 045e 0100     		.2byte	0x1
 3775 0460 50       		.byte	0x50
 3776 0461 1F000000 		.4byte	.LVL41-1
 3777 0465 20000000 		.4byte	.LFE16
 3778 0469 0400     		.2byte	0x4
 3779 046b F3       		.byte	0xf3
 3780 046c 01       		.uleb128 0x1
 3781 046d 50       		.byte	0x50
 3782 046e 9F       		.byte	0x9f
 3783 046f 00000000 		.4byte	0
 3784 0473 00000000 		.4byte	0
 3785              	.LLST32:
 3786 0477 00000000 		.4byte	.LVL42
 3787 047b 19000000 		.4byte	.LVL43-1
 3788 047f 0100     		.2byte	0x1
 3789 0481 50       		.byte	0x50
 3790 0482 19000000 		.4byte	.LVL43-1
 3791 0486 1A000000 		.4byte	.LFE17
 3792 048a 0400     		.2byte	0x4
 3793 048c F3       		.byte	0xf3
 3794 048d 01       		.uleb128 0x1
 3795 048e 50       		.byte	0x50
 3796 048f 9F       		.byte	0x9f
 3797 0490 00000000 		.4byte	0
 3798 0494 00000000 		.4byte	0
 3799              	.LLST33:
 3800 0498 00000000 		.4byte	.LVL44
 3801 049c 0E000000 		.4byte	.LVL45
 3802 04a0 0100     		.2byte	0x1
 3803 04a2 50       		.byte	0x50
ARM GAS  /tmp/ccHspVc2.s 			page 68


 3804 04a3 0E000000 		.4byte	.LVL45
 3805 04a7 4E000000 		.4byte	.LVL54
 3806 04ab 0100     		.2byte	0x1
 3807 04ad 54       		.byte	0x54
 3808 04ae 4E000000 		.4byte	.LVL54
 3809 04b2 51000000 		.4byte	.LVL55-1
 3810 04b6 0100     		.2byte	0x1
 3811 04b8 50       		.byte	0x50
 3812 04b9 51000000 		.4byte	.LVL55-1
 3813 04bd 54000000 		.4byte	.LFE10
 3814 04c1 0100     		.2byte	0x1
 3815 04c3 54       		.byte	0x54
 3816 04c4 00000000 		.4byte	0
 3817 04c8 00000000 		.4byte	0
 3818              	.LLST34:
 3819 04cc 1C000000 		.4byte	.LVL46
 3820 04d0 24000000 		.4byte	.LVL47
 3821 04d4 0100     		.2byte	0x1
 3822 04d6 52       		.byte	0x52
 3823 04d7 24000000 		.4byte	.LVL47
 3824 04db 2E000000 		.4byte	.LVL48
 3825 04df 0100     		.2byte	0x1
 3826 04e1 53       		.byte	0x53
 3827 04e2 2E000000 		.4byte	.LVL48
 3828 04e6 32000000 		.4byte	.LVL49
 3829 04ea 0100     		.2byte	0x1
 3830 04ec 52       		.byte	0x52
 3831 04ed 32000000 		.4byte	.LVL49
 3832 04f1 34000000 		.4byte	.LVL50
 3833 04f5 0100     		.2byte	0x1
 3834 04f7 53       		.byte	0x53
 3835 04f8 34000000 		.4byte	.LVL50
 3836 04fc 36000000 		.4byte	.LVL51
 3837 0500 0100     		.2byte	0x1
 3838 0502 52       		.byte	0x52
 3839 0503 00000000 		.4byte	0
 3840 0507 00000000 		.4byte	0
 3841              	.LLST35:
 3842 050b 46000000 		.4byte	.LVL52
 3843 050f 4C000000 		.4byte	.LVL53
 3844 0513 0200     		.2byte	0x2
 3845 0515 30       		.byte	0x30
 3846 0516 9F       		.byte	0x9f
 3847 0517 00000000 		.4byte	0
 3848 051b 00000000 		.4byte	0
 3849              	.LLST36:
 3850 051f 00000000 		.4byte	.LVL56
 3851 0523 1F000000 		.4byte	.LVL57-1
 3852 0527 0100     		.2byte	0x1
 3853 0529 50       		.byte	0x50
 3854 052a 1F000000 		.4byte	.LVL57-1
 3855 052e 20000000 		.4byte	.LFE18
 3856 0532 0400     		.2byte	0x4
 3857 0534 F3       		.byte	0xf3
 3858 0535 01       		.uleb128 0x1
 3859 0536 50       		.byte	0x50
 3860 0537 9F       		.byte	0x9f
ARM GAS  /tmp/ccHspVc2.s 			page 69


 3861 0538 00000000 		.4byte	0
 3862 053c 00000000 		.4byte	0
 3863              		.section	.debug_aranges,"",%progbits
 3864 0000 7C000000 		.4byte	0x7c
 3865 0004 0200     		.2byte	0x2
 3866 0006 00000000 		.4byte	.Ldebug_info0
 3867 000a 04       		.byte	0x4
 3868 000b 00       		.byte	0
 3869 000c 0000     		.2byte	0
 3870 000e 0000     		.2byte	0
 3871 0010 00000000 		.4byte	.LFB7
 3872 0014 02000000 		.4byte	.LFE7-.LFB7
 3873 0018 00000000 		.4byte	.LFB11
 3874 001c 40000000 		.4byte	.LFE11-.LFB11
 3875 0020 00000000 		.4byte	.LFB12
 3876 0024 68000000 		.4byte	.LFE12-.LFB12
 3877 0028 00000000 		.4byte	.LFB9
 3878 002c 1A000000 		.4byte	.LFE9-.LFB9
 3879 0030 00000000 		.4byte	.LFB8
 3880 0034 82000000 		.4byte	.LFE8-.LFB8
 3881 0038 00000000 		.4byte	.LFB13
 3882 003c 08000000 		.4byte	.LFE13-.LFB13
 3883 0040 00000000 		.4byte	.LFB14
 3884 0044 08000000 		.4byte	.LFE14-.LFB14
 3885 0048 00000000 		.4byte	.LFB15
 3886 004c 0C000000 		.4byte	.LFE15-.LFB15
 3887 0050 00000000 		.4byte	.LFB16
 3888 0054 20000000 		.4byte	.LFE16-.LFB16
 3889 0058 00000000 		.4byte	.LFB17
 3890 005c 1A000000 		.4byte	.LFE17-.LFB17
 3891 0060 00000000 		.4byte	.LFB10
 3892 0064 54000000 		.4byte	.LFE10-.LFB10
 3893 0068 00000000 		.4byte	.LFB18
 3894 006c 20000000 		.4byte	.LFE18-.LFB18
 3895 0070 00000000 		.4byte	.LFB19
 3896 0074 12000000 		.4byte	.LFE19-.LFB19
 3897 0078 00000000 		.4byte	0
 3898 007c 00000000 		.4byte	0
 3899              		.section	.debug_ranges,"",%progbits
 3900              	.Ldebug_ranges0:
 3901 0000 36000000 		.4byte	.LBB20
 3902 0004 38000000 		.4byte	.LBE20
 3903 0008 3A000000 		.4byte	.LBB27
 3904 000c 54000000 		.4byte	.LBE27
 3905 0010 00000000 		.4byte	0
 3906 0014 00000000 		.4byte	0
 3907 0018 00000000 		.4byte	.LFB7
 3908 001c 02000000 		.4byte	.LFE7
 3909 0020 00000000 		.4byte	.LFB11
 3910 0024 40000000 		.4byte	.LFE11
 3911 0028 00000000 		.4byte	.LFB12
 3912 002c 68000000 		.4byte	.LFE12
 3913 0030 00000000 		.4byte	.LFB9
 3914 0034 1A000000 		.4byte	.LFE9
 3915 0038 00000000 		.4byte	.LFB8
 3916 003c 82000000 		.4byte	.LFE8
 3917 0040 00000000 		.4byte	.LFB13
ARM GAS  /tmp/ccHspVc2.s 			page 70


 3918 0044 08000000 		.4byte	.LFE13
 3919 0048 00000000 		.4byte	.LFB14
 3920 004c 08000000 		.4byte	.LFE14
 3921 0050 00000000 		.4byte	.LFB15
 3922 0054 0C000000 		.4byte	.LFE15
 3923 0058 00000000 		.4byte	.LFB16
 3924 005c 20000000 		.4byte	.LFE16
 3925 0060 00000000 		.4byte	.LFB17
 3926 0064 1A000000 		.4byte	.LFE17
 3927 0068 00000000 		.4byte	.LFB10
 3928 006c 54000000 		.4byte	.LFE10
 3929 0070 00000000 		.4byte	.LFB18
 3930 0074 20000000 		.4byte	.LFE18
 3931 0078 00000000 		.4byte	.LFB19
 3932 007c 12000000 		.4byte	.LFE19
 3933 0080 00000000 		.4byte	0
 3934 0084 00000000 		.4byte	0
 3935              		.section	.debug_line,"",%progbits
 3936              	.Ldebug_line0:
 3937 0000 69030000 		.section	.debug_str,"MS",%progbits,1
 3937      02009A01 
 3937      00000201 
 3937      FB0E0D00 
 3937      01010101 
 3938              	.LASF124:
 3939 0000 6C697374 		.ascii	"listen_pcbs\000"
 3939      656E5F70 
 3939      63627300 
 3940              	.LASF129:
 3941 000c 4D454D50 		.ascii	"MEMP_TCP_PCB_LISTEN\000"
 3941      5F544350 
 3941      5F504342 
 3941      5F4C4953 
 3941      54454E00 
 3942              	.LASF54:
 3943 0020 736F5F6F 		.ascii	"so_options\000"
 3943      7074696F 
 3943      6E7300
 3944              	.LASF165:
 3945 002b 2F686F6D 		.ascii	"/home/caroline/Documents/PAF/ChibiOS_2.6.4/demos/AR"
 3945      652F6361 
 3945      726F6C69 
 3945      6E652F44 
 3945      6F63756D 
 3946 005e 4D434D34 		.ascii	"MCM4-STM32F407-LWIP\000"
 3946      2D53544D 
 3946      33324634 
 3946      30372D4C 
 3946      57495000 
 3947              	.LASF123:
 3948 0072 75726770 		.ascii	"urgp\000"
 3948      00
 3949              	.LASF60:
 3950 0077 706F6C6C 		.ascii	"polltmr\000"
 3950      746D7200 
 3951              	.LASF50:
 3952 007f 7463705F 		.ascii	"tcp_accept_fn\000"
ARM GAS  /tmp/ccHspVc2.s 			page 71


 3952      61636365 
 3952      70745F66 
 3952      6E00
 3953              	.LASF36:
 3954 008d 666C6167 		.ascii	"flags\000"
 3954      7300
 3955              	.LASF113:
 3956 0093 54494D45 		.ascii	"TIME_WAIT\000"
 3956      5F574149 
 3956      5400
 3957              	.LASF0:
 3958 009d 756E7369 		.ascii	"unsigned int\000"
 3958      676E6564 
 3958      20696E74 
 3958      00
 3959              	.LASF102:
 3960 00aa 7463705F 		.ascii	"tcp_connected_fn\000"
 3960      636F6E6E 
 3960      65637465 
 3960      645F666E 
 3960      00
 3961              	.LASF32:
 3962 00bb 6E657874 		.ascii	"next\000"
 3962      00
 3963              	.LASF28:
 3964 00c0 6572725F 		.ascii	"err_t\000"
 3964      7400
 3965              	.LASF42:
 3966 00c6 6C696E6B 		.ascii	"linkoutput\000"
 3966      6F757470 
 3966      757400
 3967              	.LASF145:
 3968 00d1 6E657469 		.ascii	"netif_set_default\000"
 3968      665F7365 
 3968      745F6465 
 3968      6661756C 
 3968      7400
 3969              	.LASF24:
 3970 00e3 7531365F 		.ascii	"u16_t\000"
 3970      7400
 3971              	.LASF152:
 3972 00e9 6E657469 		.ascii	"netif_set_down\000"
 3972      665F7365 
 3972      745F646F 
 3972      776E00
 3973              	.LASF66:
 3974 00f8 7263765F 		.ascii	"rcv_ann_right_edge\000"
 3974      616E6E5F 
 3974      72696768 
 3974      745F6564 
 3974      676500
 3975              	.LASF150:
 3976 010b 6E657469 		.ascii	"netif_set_ipaddr\000"
 3976      665F7365 
 3976      745F6970 
 3976      61646472 
 3976      00
ARM GAS  /tmp/ccHspVc2.s 			page 72


 3977              	.LASF48:
 3978 011c 6E657469 		.ascii	"netif_output_fn\000"
 3978      665F6F75 
 3978      74707574 
 3978      5F666E00 
 3979              	.LASF97:
 3980 012c 6B656570 		.ascii	"keep_cnt_sent\000"
 3980      5F636E74 
 3980      5F73656E 
 3980      7400
 3981              	.LASF139:
 3982 013a 4D454D50 		.ascii	"MEMP_PBUF_POOL\000"
 3982      5F504255 
 3982      465F504F 
 3982      4F4C00
 3983              	.LASF99:
 3984 0149 7463705F 		.ascii	"tcp_sent_fn\000"
 3984      73656E74 
 3984      5F666E00 
 3985              	.LASF157:
 3986 0155 6E657469 		.ascii	"netif_num\000"
 3986      665F6E75 
 3986      6D00
 3987              	.LASF119:
 3988 015f 7365716E 		.ascii	"seqno\000"
 3988      6F00
 3989              	.LASF47:
 3990 0165 6E657469 		.ascii	"netif_input_fn\000"
 3990      665F696E 
 3990      7075745F 
 3990      666E00
 3991              	.LASF18:
 3992 0174 75696E74 		.ascii	"uint32_t\000"
 3992      33325F74 
 3992      00
 3993              	.LASF14:
 3994 017d 696E7438 		.ascii	"int8_t\000"
 3994      5F7400
 3995              	.LASF73:
 3996 0184 63776E64 		.ascii	"cwnd\000"
 3996      00
 3997              	.LASF135:
 3998 0189 4D454D50 		.ascii	"MEMP_TCPIP_MSG_API\000"
 3998      5F544350 
 3998      49505F4D 
 3998      53475F41 
 3998      504900
 3999              	.LASF58:
 4000 019c 6C6F6361 		.ascii	"local_port\000"
 4000      6C5F706F 
 4000      727400
 4001              	.LASF16:
 4002 01a7 696E7431 		.ascii	"int16_t\000"
 4002      365F7400 
 4003              	.LASF158:
 4004 01af 6E657469 		.ascii	"netif_list\000"
 4004      665F6C69 
ARM GAS  /tmp/ccHspVc2.s 			page 73


 4004      737400
 4005              	.LASF45:
 4006 01ba 68776164 		.ascii	"hwaddr\000"
 4006      647200
 4007              	.LASF164:
 4008 01c1 2E2E2F2E 		.ascii	"../../ext/lwip/src/core/netif.c\000"
 4008      2E2F6578 
 4008      742F6C77 
 4008      69702F73 
 4008      72632F63 
 4009              	.LASF114:
 4010 01e1 7463705F 		.ascii	"tcp_seg\000"
 4010      73656700 
 4011              	.LASF13:
 4012 01e9 6C6F6E67 		.ascii	"long long unsigned int\000"
 4012      206C6F6E 
 4012      6720756E 
 4012      7369676E 
 4012      65642069 
 4013              	.LASF7:
 4014 0200 5F5F7569 		.ascii	"__uint16_t\000"
 4014      6E743136 
 4014      5F7400
 4015              	.LASF166:
 4016 020b 7463705F 		.ascii	"tcp_state\000"
 4016      73746174 
 4016      6500
 4017              	.LASF67:
 4018 0215 7274696D 		.ascii	"rtime\000"
 4018      6500
 4019              	.LASF44:
 4020 021b 68776164 		.ascii	"hwaddr_len\000"
 4020      64725F6C 
 4020      656E00
 4021              	.LASF141:
 4022 0226 6E657469 		.ascii	"netif_set_netmask\000"
 4022      665F7365 
 4022      745F6E65 
 4022      746D6173 
 4022      6B00
 4023              	.LASF63:
 4024 0238 7263765F 		.ascii	"rcv_nxt\000"
 4024      6E787400 
 4025              	.LASF136:
 4026 0240 4D454D50 		.ascii	"MEMP_TCPIP_MSG_INPKT\000"
 4026      5F544350 
 4026      49505F4D 
 4026      53475F49 
 4026      4E504B54 
 4027              	.LASF86:
 4028 0255 756E6163 		.ascii	"unacked\000"
 4028      6B656400 
 4029              	.LASF108:
 4030 025d 46494E5F 		.ascii	"FIN_WAIT_1\000"
 4030      57414954 
 4030      5F3100
 4031              	.LASF112:
ARM GAS  /tmp/ccHspVc2.s 			page 74


 4032 0268 4C415354 		.ascii	"LAST_ACK\000"
 4032      5F41434B 
 4032      00
 4033              	.LASF34:
 4034 0271 746F745F 		.ascii	"tot_len\000"
 4034      6C656E00 
 4035              	.LASF144:
 4036 0279 69706164 		.ascii	"ipaddr\000"
 4036      647200
 4037              	.LASF33:
 4038 0280 7061796C 		.ascii	"payload\000"
 4038      6F616400 
 4039              	.LASF171:
 4040 0288 65746861 		.ascii	"etharp_cleanup_netif\000"
 4040      72705F63 
 4040      6C65616E 
 4040      75705F6E 
 4040      65746966 
 4041              	.LASF41:
 4042 029d 6F757470 		.ascii	"output\000"
 4042      757400
 4043              	.LASF91:
 4044 02a4 636F6E6E 		.ascii	"connected\000"
 4044      65637465 
 4044      6400
 4045              	.LASF19:
 4046 02ae 5F426F6F 		.ascii	"_Bool\000"
 4046      6C00
 4047              	.LASF111:
 4048 02b4 434C4F53 		.ascii	"CLOSING\000"
 4048      494E4700 
 4049              	.LASF72:
 4050 02bc 6C617374 		.ascii	"lastack\000"
 4050      61636B00 
 4051              	.LASF140:
 4052 02c4 4D454D50 		.ascii	"MEMP_MAX\000"
 4052      5F4D4158 
 4052      00
 4053              	.LASF23:
 4054 02cd 73385F74 		.ascii	"s8_t\000"
 4054      00
 4055              	.LASF134:
 4056 02d2 4D454D50 		.ascii	"MEMP_NETCONN\000"
 4056      5F4E4554 
 4056      434F4E4E 
 4056      00
 4057              	.LASF69:
 4058 02df 72747365 		.ascii	"rtseq\000"
 4058      7100
 4059              	.LASF161:
 4060 02e5 7463705F 		.ascii	"tcp_active_pcbs\000"
 4060      61637469 
 4060      76655F70 
 4060      63627300 
 4061              	.LASF71:
 4062 02f5 64757061 		.ascii	"dupacks\000"
 4062      636B7300 
ARM GAS  /tmp/ccHspVc2.s 			page 75


 4063              	.LASF154:
 4064 02fd 746D704E 		.ascii	"tmpNetif\000"
 4064      65746966 
 4064      00
 4065              	.LASF57:
 4066 0306 7072696F 		.ascii	"prio\000"
 4066      00
 4067              	.LASF56:
 4068 030b 61636365 		.ascii	"accept\000"
 4068      707400
 4069              	.LASF138:
 4070 0312 4D454D50 		.ascii	"MEMP_PBUF\000"
 4070      5F504255 
 4070      4600
 4071              	.LASF92:
 4072 031c 706F6C6C 		.ascii	"poll\000"
 4072      00
 4073              	.LASF21:
 4074 0321 63686172 		.ascii	"char\000"
 4074      00
 4075              	.LASF81:
 4076 0326 61636B65 		.ascii	"acked\000"
 4076      6400
 4077              	.LASF110:
 4078 032c 434C4F53 		.ascii	"CLOSE_WAIT\000"
 4078      455F5741 
 4078      495400
 4079              	.LASF147:
 4080 0337 6E657469 		.ascii	"netif_find\000"
 4080      665F6669 
 4080      6E6400
 4081              	.LASF89:
 4082 0342 73656E74 		.ascii	"sent\000"
 4082      00
 4083              	.LASF15:
 4084 0347 75696E74 		.ascii	"uint8_t\000"
 4084      385F7400 
 4085              	.LASF76:
 4086 034f 736E645F 		.ascii	"snd_wl1\000"
 4086      776C3100 
 4087              	.LASF77:
 4088 0357 736E645F 		.ascii	"snd_wl2\000"
 4088      776C3200 
 4089              	.LASF101:
 4090 035f 7463705F 		.ascii	"tcp_err_fn\000"
 4090      6572725F 
 4090      666E00
 4091              	.LASF167:
 4092 036a 7463705F 		.ascii	"tcp_listen_pcbs_t\000"
 4092      6C697374 
 4092      656E5F70 
 4092      6362735F 
 4092      7400
 4093              	.LASF153:
 4094 037c 6E657469 		.ascii	"netif_remove\000"
 4094      665F7265 
 4094      6D6F7665 
ARM GAS  /tmp/ccHspVc2.s 			page 76


 4094      00
 4095              	.LASF78:
 4096 0389 736E645F 		.ascii	"snd_lbb\000"
 4096      6C626200 
 4097              	.LASF133:
 4098 0391 4D454D50 		.ascii	"MEMP_NETBUF\000"
 4098      5F4E4554 
 4098      42554600 
 4099              	.LASF39:
 4100 039d 6E65746D 		.ascii	"netmask\000"
 4100      61736B00 
 4101              	.LASF12:
 4102 03a5 6C6F6E67 		.ascii	"long long int\000"
 4102      206C6F6E 
 4102      6720696E 
 4102      7400
 4103              	.LASF116:
 4104 03b3 7463705F 		.ascii	"tcp_pcb_listen\000"
 4104      7063625F 
 4104      6C697374 
 4104      656E00
 4105              	.LASF120:
 4106 03c2 61636B6E 		.ascii	"ackno\000"
 4106      6F00
 4107              	.LASF96:
 4108 03c8 70657273 		.ascii	"persist_backoff\000"
 4108      6973745F 
 4108      6261636B 
 4108      6F666600 
 4109              	.LASF128:
 4110 03d8 4D454D50 		.ascii	"MEMP_TCP_PCB\000"
 4110      5F544350 
 4110      5F504342 
 4110      00
 4111              	.LASF22:
 4112 03e5 75385F74 		.ascii	"u8_t\000"
 4112      00
 4113              	.LASF5:
 4114 03ea 5F5F696E 		.ascii	"__int16_t\000"
 4114      7431365F 
 4114      7400
 4115              	.LASF59:
 4116 03f4 72656D6F 		.ascii	"remote_port\000"
 4116      74655F70 
 4116      6F727400 
 4117              	.LASF160:
 4118 0400 7463705F 		.ascii	"tcp_listen_pcbs\000"
 4118      6C697374 
 4118      656E5F70 
 4118      63627300 
 4119              	.LASF65:
 4120 0410 7263765F 		.ascii	"rcv_ann_wnd\000"
 4120      616E6E5F 
 4120      776E6400 
 4121              	.LASF148:
 4122 041c 6E657469 		.ascii	"netif_add\000"
 4122      665F6164 
ARM GAS  /tmp/ccHspVc2.s 			page 77


 4122      6400
 4123              	.LASF131:
 4124 0426 4D454D50 		.ascii	"MEMP_REASSDATA\000"
 4124      5F524541 
 4124      53534441 
 4124      544100
 4125              	.LASF98:
 4126 0435 7463705F 		.ascii	"tcp_recv_fn\000"
 4126      72656376 
 4126      5F666E00 
 4127              	.LASF162:
 4128 0441 7463705F 		.ascii	"tcp_abort\000"
 4128      61626F72 
 4128      7400
 4129              	.LASF159:
 4130 044b 6E657469 		.ascii	"netif_default\000"
 4130      665F6465 
 4130      6661756C 
 4130      7400
 4131              	.LASF2:
 4132 0459 5F5F696E 		.ascii	"__int8_t\000"
 4132      74385F74 
 4132      00
 4133              	.LASF100:
 4134 0462 7463705F 		.ascii	"tcp_poll_fn\000"
 4134      706F6C6C 
 4134      5F666E00 
 4135              	.LASF17:
 4136 046e 75696E74 		.ascii	"uint16_t\000"
 4136      31365F74 
 4136      00
 4137              	.LASF93:
 4138 0477 65727266 		.ascii	"errf\000"
 4138      00
 4139              	.LASF79:
 4140 047c 736E645F 		.ascii	"snd_wnd\000"
 4140      776E6400 
 4141              	.LASF37:
 4142 0484 6E657469 		.ascii	"netif_init_fn\000"
 4142      665F696E 
 4142      69745F66 
 4142      6E00
 4143              	.LASF87:
 4144 0492 6F6F7365 		.ascii	"ooseq\000"
 4144      7100
 4145              	.LASF103:
 4146 0498 434C4F53 		.ascii	"CLOSED\000"
 4146      454400
 4147              	.LASF26:
 4148 049f 7533325F 		.ascii	"u32_t\000"
 4148      7400
 4149              	.LASF6:
 4150 04a5 73686F72 		.ascii	"short int\000"
 4150      7420696E 
 4150      7400
 4151              	.LASF9:
 4152 04af 6C6F6E67 		.ascii	"long int\000"
ARM GAS  /tmp/ccHspVc2.s 			page 78


 4152      20696E74 
 4152      00
 4153              	.LASF85:
 4154 04b8 756E7365 		.ascii	"unsent\000"
 4154      6E7400
 4155              	.LASF64:
 4156 04bf 7263765F 		.ascii	"rcv_wnd\000"
 4156      776E6400 
 4157              	.LASF68:
 4158 04c7 72747465 		.ascii	"rttest\000"
 4158      737400
 4159              	.LASF156:
 4160 04ce 6E657469 		.ascii	"netif_set_link_down\000"
 4160      665F7365 
 4160      745F6C69 
 4160      6E6B5F64 
 4160      6F776E00 
 4161              	.LASF137:
 4162 04e2 4D454D50 		.ascii	"MEMP_SYS_TIMEOUT\000"
 4162      5F535953 
 4162      5F54494D 
 4162      454F5554 
 4162      00
 4163              	.LASF62:
 4164 04f3 6C617374 		.ascii	"last_timer\000"
 4164      5F74696D 
 4164      657200
 4165              	.LASF127:
 4166 04fe 4D454D50 		.ascii	"MEMP_UDP_PCB\000"
 4166      5F554450 
 4166      5F504342 
 4166      00
 4167              	.LASF52:
 4168 050b 6C6F6361 		.ascii	"local_ip\000"
 4168      6C5F6970 
 4168      00
 4169              	.LASF84:
 4170 0514 756E7365 		.ascii	"unsent_oversize\000"
 4170      6E745F6F 
 4170      76657273 
 4170      697A6500 
 4171              	.LASF170:
 4172 0524 65746861 		.ascii	"etharp_request\000"
 4172      72705F72 
 4172      65717565 
 4172      737400
 4173              	.LASF75:
 4174 0533 736E645F 		.ascii	"snd_nxt\000"
 4174      6E787400 
 4175              	.LASF3:
 4176 053b 5F5F7569 		.ascii	"__uint8_t\000"
 4176      6E74385F 
 4176      7400
 4177              	.LASF107:
 4178 0545 45535441 		.ascii	"ESTABLISHED\000"
 4178      424C4953 
 4178      48454400 
ARM GAS  /tmp/ccHspVc2.s 			page 79


 4179              	.LASF80:
 4180 0551 736E645F 		.ascii	"snd_wnd_max\000"
 4180      776E645F 
 4180      6D617800 
 4181              	.LASF46:
 4182 055d 6E616D65 		.ascii	"name\000"
 4182      00
 4183              	.LASF151:
 4184 0562 6E657469 		.ascii	"netif_set_up\000"
 4184      665F7365 
 4184      745F7570 
 4184      00
 4185              	.LASF49:
 4186 056f 6E657469 		.ascii	"netif_linkoutput_fn\000"
 4186      665F6C69 
 4186      6E6B6F75 
 4186      74707574 
 4186      5F666E00 
 4187              	.LASF132:
 4188 0583 4D454D50 		.ascii	"MEMP_FRAG_PBUF\000"
 4188      5F465241 
 4188      475F5042 
 4188      554600
 4189              	.LASF74:
 4190 0592 73737468 		.ascii	"ssthresh\000"
 4190      72657368 
 4190      00
 4191              	.LASF82:
 4192 059b 736E645F 		.ascii	"snd_buf\000"
 4192      62756600 
 4193              	.LASF143:
 4194 05a3 6E657469 		.ascii	"netif_set_addr\000"
 4194      665F7365 
 4194      745F6164 
 4194      647200
 4195              	.LASF61:
 4196 05b2 706F6C6C 		.ascii	"pollinterval\000"
 4196      696E7465 
 4196      7276616C 
 4196      00
 4197              	.LASF126:
 4198 05bf 4D454D50 		.ascii	"MEMP_RAW_PCB\000"
 4198      5F524157 
 4198      5F504342 
 4198      00
 4199              	.LASF121:
 4200 05cc 5F686472 		.ascii	"_hdrlen_rsvd_flags\000"
 4200      6C656E5F 
 4200      72737664 
 4200      5F666C61 
 4200      677300
 4201              	.LASF149:
 4202 05df 696E6974 		.ascii	"init\000"
 4202      00
 4203              	.LASF20:
 4204 05e4 73697A65 		.ascii	"sizetype\000"
 4204      74797065 
ARM GAS  /tmp/ccHspVc2.s 			page 80


 4204      00
 4205              	.LASF11:
 4206 05ed 6C6F6E67 		.ascii	"long unsigned int\000"
 4206      20756E73 
 4206      69676E65 
 4206      6420696E 
 4206      7400
 4207              	.LASF163:
 4208 05ff 474E5520 		.ascii	"GNU C 4.8.2 -mcpu=cortex-m4 -mno-thumb-interwork -m"
 4208      4320342E 
 4208      382E3220 
 4208      2D6D6370 
 4208      753D636F 
 4209 0632 7468756D 		.ascii	"thumb -ggdb -O2 -std=gnu99 -fomit-frame-pointer -fa"
 4209      62202D67 
 4209      67646220 
 4209      2D4F3220 
 4209      2D737464 
 4210 0665 6C69676E 		.ascii	"lign-functions=16 -ffunction-sections -fdata-sectio"
 4210      2D66756E 
 4210      6374696F 
 4210      6E733D31 
 4210      36202D66 
 4211 0698 6E73202D 		.ascii	"ns -fno-common\000"
 4211      666E6F2D 
 4211      636F6D6D 
 4211      6F6E00
 4212              	.LASF115:
 4213 06a7 74637068 		.ascii	"tcphdr\000"
 4213      647200
 4214              	.LASF25:
 4215 06ae 7331365F 		.ascii	"s16_t\000"
 4215      7400
 4216              	.LASF88:
 4217 06b4 72656675 		.ascii	"refused_data\000"
 4217      7365645F 
 4217      64617461 
 4217      00
 4218              	.LASF40:
 4219 06c1 696E7075 		.ascii	"input\000"
 4219      7400
 4220              	.LASF117:
 4221 06c7 7463705F 		.ascii	"tcp_hdr\000"
 4221      68647200 
 4222              	.LASF35:
 4223 06cf 74797065 		.ascii	"type\000"
 4223      00
 4224              	.LASF4:
 4225 06d4 756E7369 		.ascii	"unsigned char\000"
 4225      676E6564 
 4225      20636861 
 4225      7200
 4226              	.LASF10:
 4227 06e2 5F5F7569 		.ascii	"__uint32_t\000"
 4227      6E743332 
 4227      5F7400
 4228              	.LASF109:
ARM GAS  /tmp/ccHspVc2.s 			page 81


 4229 06ed 46494E5F 		.ascii	"FIN_WAIT_2\000"
 4229      57414954 
 4229      5F3200
 4230              	.LASF130:
 4231 06f8 4D454D50 		.ascii	"MEMP_TCP_SEG\000"
 4231      5F544350 
 4231      5F534547 
 4231      00
 4232              	.LASF105:
 4233 0705 53594E5F 		.ascii	"SYN_SENT\000"
 4233      53454E54 
 4233      00
 4234              	.LASF142:
 4235 070e 6E657469 		.ascii	"netif_set_gw\000"
 4235      665F7365 
 4235      745F6777 
 4235      00
 4236              	.LASF30:
 4237 071b 70627566 		.ascii	"pbuf\000"
 4237      00
 4238              	.LASF94:
 4239 0720 6B656570 		.ascii	"keep_idle\000"
 4239      5F69646C 
 4239      6500
 4240              	.LASF55:
 4241 072a 63616C6C 		.ascii	"callback_arg\000"
 4241      6261636B 
 4241      5F617267 
 4241      00
 4242              	.LASF169:
 4243 0737 706F7274 		.ascii	"port_halt\000"
 4243      5F68616C 
 4243      7400
 4244              	.LASF104:
 4245 0741 4C495354 		.ascii	"LISTEN\000"
 4245      454E00
 4246              	.LASF168:
 4247 0748 6E657469 		.ascii	"netif_init\000"
 4247      665F696E 
 4247      697400
 4248              	.LASF31:
 4249 0753 61646472 		.ascii	"addr\000"
 4249      00
 4250              	.LASF43:
 4251 0758 73746174 		.ascii	"state\000"
 4251      6500
 4252              	.LASF38:
 4253 075e 6E657469 		.ascii	"netif\000"
 4253      6600
 4254              	.LASF83:
 4255 0764 736E645F 		.ascii	"snd_queuelen\000"
 4255      71756575 
 4255      656C656E 
 4255      00
 4256              	.LASF122:
 4257 0771 63686B73 		.ascii	"chksum\000"
 4257      756D00
ARM GAS  /tmp/ccHspVc2.s 			page 82


 4258              	.LASF146:
 4259 0778 6C706362 		.ascii	"lpcb\000"
 4259      00
 4260              	.LASF155:
 4261 077d 6E657469 		.ascii	"netif_set_link_up\000"
 4261      665F7365 
 4261      745F6C69 
 4261      6E6B5F75 
 4261      7000
 4262              	.LASF90:
 4263 078f 72656376 		.ascii	"recv\000"
 4263      00
 4264              	.LASF1:
 4265 0794 7369676E 		.ascii	"signed char\000"
 4265      65642063 
 4265      68617200 
 4266              	.LASF51:
 4267 07a0 7463705F 		.ascii	"tcp_pcb\000"
 4267      70636200 
 4268              	.LASF8:
 4269 07a8 73686F72 		.ascii	"short unsigned int\000"
 4269      7420756E 
 4269      7369676E 
 4269      65642069 
 4269      6E7400
 4270              	.LASF95:
 4271 07bb 70657273 		.ascii	"persist_cnt\000"
 4271      6973745F 
 4271      636E7400 
 4272              	.LASF53:
 4273 07c7 72656D6F 		.ascii	"remote_ip\000"
 4273      74655F69 
 4273      7000
 4274              	.LASF27:
 4275 07d1 69705F61 		.ascii	"ip_addr_t\000"
 4275      6464725F 
 4275      7400
 4276              	.LASF70:
 4277 07db 6E727478 		.ascii	"nrtx\000"
 4277      00
 4278              	.LASF118:
 4279 07e0 64657374 		.ascii	"dest\000"
 4279      00
 4280              	.LASF106:
 4281 07e5 53594E5F 		.ascii	"SYN_RCVD\000"
 4281      52435644 
 4281      00
 4282              	.LASF29:
 4283 07ee 69705F61 		.ascii	"ip_addr\000"
 4283      64647200 
 4284              	.LASF125:
 4285 07f6 70636273 		.ascii	"pcbs\000"
 4285      00
 4286              		.ident	"GCC: (4.8.2-14ubuntu1+6) 4.8.2"
ARM GAS  /tmp/ccHspVc2.s 			page 83


DEFINED SYMBOLS
                            *ABS*:0000000000000000 netif.c
     /tmp/ccHspVc2.s:19     .text.netif_init:0000000000000000 $t
     /tmp/ccHspVc2.s:25     .text.netif_init:0000000000000000 netif_init
     /tmp/ccHspVc2.s:38     .text.netif_find:0000000000000000 $t
     /tmp/ccHspVc2.s:44     .text.netif_find:0000000000000000 netif_find
     /tmp/ccHspVc2.s:720    .bss.netif_list:0000000000000000 .LANCHOR0
     /tmp/ccHspVc2.s:103    .text.netif_set_ipaddr:0000000000000000 $t
     /tmp/ccHspVc2.s:109    .text.netif_set_ipaddr:0000000000000000 netif_set_ipaddr
     /tmp/ccHspVc2.s:217    .text.netif_set_addr:0000000000000000 $t
     /tmp/ccHspVc2.s:223    .text.netif_set_addr:0000000000000000 netif_set_addr
     /tmp/ccHspVc2.s:269    .text.netif_add:0000000000000000 $t
     /tmp/ccHspVc2.s:275    .text.netif_add:0000000000000000 netif_add
     /tmp/ccHspVc2.s:733    .bss.netif_num:0000000000000000 .LANCHOR1
     /tmp/ccHspVc2.s:411    .text.netif_set_gw:0000000000000000 $t
     /tmp/ccHspVc2.s:417    .text.netif_set_gw:0000000000000000 netif_set_gw
     /tmp/ccHspVc2.s:438    .text.netif_set_netmask:0000000000000000 $t
     /tmp/ccHspVc2.s:444    .text.netif_set_netmask:0000000000000000 netif_set_netmask
     /tmp/ccHspVc2.s:465    .text.netif_set_default:0000000000000000 $t
     /tmp/ccHspVc2.s:471    .text.netif_set_default:0000000000000000 netif_set_default
     /tmp/ccHspVc2.s:727    .bss.netif_default:0000000000000000 .LANCHOR2
     /tmp/ccHspVc2.s:488    .text.netif_set_up:0000000000000000 $t
     /tmp/ccHspVc2.s:494    .text.netif_set_up:0000000000000000 netif_set_up
     /tmp/ccHspVc2.s:526    .text.netif_set_down:0000000000000000 $t
     /tmp/ccHspVc2.s:532    .text.netif_set_down:0000000000000000 netif_set_down
     /tmp/ccHspVc2.s:560    .text.netif_remove:0000000000000000 $t
     /tmp/ccHspVc2.s:566    .text.netif_remove:0000000000000000 netif_remove
     /tmp/ccHspVc2.s:653    .text.netif_set_link_up:0000000000000000 $t
     /tmp/ccHspVc2.s:659    .text.netif_set_link_up:0000000000000000 netif_set_link_up
     /tmp/ccHspVc2.s:691    .text.netif_set_link_down:0000000000000000 $t
     /tmp/ccHspVc2.s:697    .text.netif_set_link_down:0000000000000000 netif_set_link_down
     /tmp/ccHspVc2.s:730    .bss.netif_default:0000000000000000 netif_default
     /tmp/ccHspVc2.s:723    .bss.netif_list:0000000000000000 netif_list
     /tmp/ccHspVc2.s:719    .bss.netif_list:0000000000000000 $d
     /tmp/ccHspVc2.s:726    .bss.netif_default:0000000000000000 $d
     /tmp/ccHspVc2.s:736    .bss.netif_num:0000000000000000 netif_num
     /tmp/ccHspVc2.s:737    .bss.netif_num:0000000000000000 $d
                     .debug_frame:0000000000000010 $d

UNDEFINED SYMBOLS
tcp_active_pcbs
tcp_abort
tcp_listen_pcbs
port_halt
etharp_request
etharp_cleanup_netif
