ARM GAS  /tmp/ccfQAElU.s 			page 1


   1              		.syntax unified
   2              		.cpu cortex-m4
   3              		.fpu softvfp
   4              		.eabi_attribute 20, 1
   5              		.eabi_attribute 21, 1
   6              		.eabi_attribute 23, 3
   7              		.eabi_attribute 24, 1
   8              		.eabi_attribute 25, 1
   9              		.eabi_attribute 26, 1
  10              		.eabi_attribute 30, 2
  11              		.eabi_attribute 34, 1
  12              		.eabi_attribute 18, 4
  13              		.thumb
  14              		.file	"pwm_lld.c"
  15              		.text
  16              	.Ltext0:
  17              		.cfi_sections	.debug_frame
  18              		.section	.text.VectorB8,"ax",%progbits
  19              		.align	2
  20              		.p2align 4,,15
  21              		.global	VectorB8
  22              		.thumb
  23              		.thumb_func
  24              		.type	VectorB8, %function
  25              	VectorB8:
  26              	.LFB119:
  27              		.file 1 "../../os/hal/platforms/STM32/TIMv1/pwm_lld.c"
  28              		.loc 1 235 0
  29              		.cfi_startproc
  30              		@ args = 0, pretend = 0, frame = 0
  31              		@ frame_needed = 0, uses_anonymous_args = 0
  32              	.LVL0:
  33 0000 38B5     		push	{r3, r4, r5, lr}
  34              		.cfi_def_cfa_offset 16
  35              		.cfi_offset 3, -16
  36              		.cfi_offset 4, -12
  37              		.cfi_offset 5, -8
  38              		.cfi_offset 14, -4
  39              	.LBB4:
  40              	.LBB5:
  41              		.loc 1 115 0
  42 0002 40F20005 		movw	r5, #:lower16:.LANCHOR0
  43 0006 C0F20005 		movt	r5, #:upper16:.LANCHOR0
  44 000a 2B69     		ldr	r3, [r5, #16]
  45 000c 1A69     		ldr	r2, [r3, #16]
  46              	.LVL1:
  47              		.loc 1 116 0
  48 000e DC68     		ldr	r4, [r3, #12]
  49 0010 1440     		ands	r4, r4, r2
  50 0012 A4B2     		uxth	r4, r4
  51              	.LVL2:
  52              		.loc 1 117 0
  53 0014 E2B2     		uxtb	r2, r4
  54 0016 D243     		mvns	r2, r2
  55 0018 1A61     		str	r2, [r3, #16]
  56              		.loc 1 118 0
  57 001a A307     		lsls	r3, r4, #30
ARM GAS  /tmp/ccfQAElU.s 			page 2


  58 001c 2AD4     		bmi	.L23
  59              	.L2:
  60              		.loc 1 120 0
  61 001e 6007     		lsls	r0, r4, #29
  62 0020 20D4     		bmi	.L24
  63              	.L3:
  64              		.loc 1 122 0
  65 0022 2107     		lsls	r1, r4, #28
  66 0024 16D4     		bmi	.L25
  67              	.L4:
  68              		.loc 1 124 0
  69 0026 E206     		lsls	r2, r4, #27
  70 0028 0CD4     		bmi	.L26
  71              	.L5:
  72              		.loc 1 126 0
  73 002a E307     		lsls	r3, r4, #31
  74 002c 06D5     		bpl	.L6
  75              		.loc 1 127 0
  76 002e 6B68     		ldr	r3, [r5, #4]
  77 0030 40F20000 		movw	r0, #:lower16:.LANCHOR0
  78 0034 9B68     		ldr	r3, [r3, #8]
  79 0036 C0F20000 		movt	r0, #:upper16:.LANCHOR0
  80 003a 9847     		blx	r3
  81              	.LVL3:
  82              	.L6:
  83              	.LBE5:
  84              	.LBE4:
  85              		.loc 1 242 0
  86 003c BDE83840 		pop	{r3, r4, r5, lr}
  87              	.LVL4:
  88              		.loc 1 241 0
  89 0040 FFF7FEBF 		b	_port_irq_epilogue
  90              	.LVL5:
  91              	.L26:
  92              	.LBB7:
  93              	.LBB6:
  94              		.loc 1 125 0
  95 0044 6B68     		ldr	r3, [r5, #4]
  96 0046 40F20000 		movw	r0, #:lower16:.LANCHOR0
  97 004a 9B6A     		ldr	r3, [r3, #40]
  98 004c C0F20000 		movt	r0, #:upper16:.LANCHOR0
  99 0050 9847     		blx	r3
 100              	.LVL6:
 101 0052 EAE7     		b	.L5
 102              	.L25:
 103              		.loc 1 123 0
 104 0054 6B68     		ldr	r3, [r5, #4]
 105 0056 40F20000 		movw	r0, #:lower16:.LANCHOR0
 106 005a 1B6A     		ldr	r3, [r3, #32]
 107 005c C0F20000 		movt	r0, #:upper16:.LANCHOR0
 108 0060 9847     		blx	r3
 109              	.LVL7:
 110 0062 E0E7     		b	.L4
 111              	.L24:
 112              		.loc 1 121 0
 113 0064 6B68     		ldr	r3, [r5, #4]
 114 0066 40F20000 		movw	r0, #:lower16:.LANCHOR0
ARM GAS  /tmp/ccfQAElU.s 			page 3


 115 006a 9B69     		ldr	r3, [r3, #24]
 116 006c C0F20000 		movt	r0, #:upper16:.LANCHOR0
 117 0070 9847     		blx	r3
 118              	.LVL8:
 119 0072 D6E7     		b	.L3
 120              	.L23:
 121              		.loc 1 119 0
 122 0074 6B68     		ldr	r3, [r5, #4]
 123 0076 2846     		mov	r0, r5
 124 0078 1B69     		ldr	r3, [r3, #16]
 125 007a 9847     		blx	r3
 126              	.LVL9:
 127 007c CFE7     		b	.L2
 128              	.LBE6:
 129              	.LBE7:
 130              		.cfi_endproc
 131              	.LFE119:
 132              		.size	VectorB8, .-VectorB8
 133 007e 00BF     		.section	.text.pwm_lld_init,"ax",%progbits
 134              		.align	2
 135              		.p2align 4,,15
 136              		.global	pwm_lld_init
 137              		.thumb
 138              		.thumb_func
 139              		.type	pwm_lld_init, %function
 140              	pwm_lld_init:
 141              	.LFB120:
 142              		.loc 1 345 0
 143              		.cfi_startproc
 144              		@ args = 0, pretend = 0, frame = 0
 145              		@ frame_needed = 0, uses_anonymous_args = 0
 146 0000 10B5     		push	{r4, lr}
 147              		.cfi_def_cfa_offset 8
 148              		.cfi_offset 4, -8
 149              		.cfi_offset 14, -4
 150              		.loc 1 367 0
 151 0002 40F20004 		movw	r4, #:lower16:.LANCHOR0
 152 0006 C0F20004 		movt	r4, #:upper16:.LANCHOR0
 153 000a 2046     		mov	r0, r4
 154 000c FFF7FEFF 		bl	pwmObjectInit
 155              	.LVL10:
 156              		.loc 1 368 0
 157 0010 4FF40063 		mov	r3, #2048
 158 0014 C4F20003 		movt	r3, 16384
 159 0018 2361     		str	r3, [r4, #16]
 160 001a 10BD     		pop	{r4, pc}
 161              		.cfi_endproc
 162              	.LFE120:
 163              		.size	pwm_lld_init, .-pwm_lld_init
 164 001c AFF30080 		.section	.text.pwm_lld_start,"ax",%progbits
 165              		.align	2
 166              		.p2align 4,,15
 167              		.global	pwm_lld_start
 168              		.thumb
 169              		.thumb_func
 170              		.type	pwm_lld_start, %function
 171              	pwm_lld_start:
ARM GAS  /tmp/ccfQAElU.s 			page 4


 172              	.LFB121:
 173              		.loc 1 399 0
 174              		.cfi_startproc
 175              		@ args = 0, pretend = 0, frame = 0
 176              		@ frame_needed = 0, uses_anonymous_args = 0
 177              	.LVL11:
 178              		.loc 1 403 0
 179 0000 0378     		ldrb	r3, [r0]	@ zero_extendqisi2
 180 0002 012B     		cmp	r3, #1
 181              		.loc 1 399 0
 182 0004 70B5     		push	{r4, r5, r6, lr}
 183              		.cfi_def_cfa_offset 16
 184              		.cfi_offset 4, -16
 185              		.cfi_offset 5, -12
 186              		.cfi_offset 6, -8
 187              		.cfi_offset 14, -4
 188              		.loc 1 399 0
 189 0006 0446     		mov	r4, r0
 190              		.loc 1 403 0
 191 0008 56D0     		beq	.L55
 192              		.loc 1 492 0
 193 000a 4268     		ldr	r2, [r0, #4]
 194              		.loc 1 491 0
 195 000c 0369     		ldr	r3, [r0, #16]
 196              		.loc 1 492 0
 197 000e 106B     		ldr	r0, [r2, #48]
 198              	.LVL12:
 199              		.loc 1 491 0
 200 0010 0021     		movs	r1, #0
 201              		.loc 1 492 0
 202 0012 20F0FF00 		bic	r0, r0, #255
 203              		.loc 1 491 0
 204 0016 1960     		str	r1, [r3]
 205              		.loc 1 492 0
 206 0018 D860     		str	r0, [r3, #12]
 207              		.loc 1 494 0
 208 001a 1961     		str	r1, [r3, #16]
 209              		.loc 1 495 0
 210 001c 5963     		str	r1, [r3, #52]
 211              		.loc 1 496 0
 212 001e 9963     		str	r1, [r3, #56]
 213              		.loc 1 497 0
 214 0020 D963     		str	r1, [r3, #60]
 215              		.loc 1 498 0
 216 0022 1964     		str	r1, [r3, #64]
 217              		.loc 1 499 0
 218 0024 5962     		str	r1, [r3, #36]
 219              	.L31:
 220              	.LVL13:
 221              		.loc 1 503 0
 222 0026 E668     		ldr	r6, [r4, #12]
 223 0028 1068     		ldr	r0, [r2]
 224              		.loc 1 508 0
 225 002a 2589     		ldrh	r5, [r4, #8]
 226              		.loc 1 513 0
 227 002c D168     		ldr	r1, [r2, #12]
 228              		.loc 1 509 0
ARM GAS  /tmp/ccfQAElU.s 			page 5


 229 002e D46A     		ldr	r4, [r2, #44]
 230              	.LVL14:
 231              		.loc 1 503 0
 232 0030 B6FBF0F0 		udiv	r0, r6, r0
 233              		.loc 1 508 0
 234 0034 013D     		subs	r5, r5, #1
 235              		.loc 1 503 0
 236 0036 0138     		subs	r0, r0, #1
 237              	.LVL15:
 238              		.loc 1 513 0
 239 0038 01F00F01 		and	r1, r1, #15
 240              		.loc 1 508 0
 241 003c ADB2     		uxth	r5, r5
 242              		.loc 1 507 0
 243 003e 80B2     		uxth	r0, r0
 244              	.LVL16:
 245              		.loc 1 513 0
 246 0040 0129     		cmp	r1, #1
 247              		.loc 1 507 0
 248 0042 9862     		str	r0, [r3, #40]
 249              	.LVL17:
 250              		.loc 1 508 0
 251 0044 DD62     		str	r5, [r3, #44]
 252              		.loc 1 509 0
 253 0046 5C60     		str	r4, [r3, #4]
 254              	.LVL18:
 255              		.loc 1 513 0
 256 0048 03D0     		beq	.L32
 257              		.loc 1 512 0
 258 004a 0229     		cmp	r1, #2
 259 004c 0CBF     		ite	eq
 260 004e 0321     		moveq	r1, #3
 261 0050 0021     		movne	r1, #0
 262              	.L32:
 263              	.LVL19:
 264              		.loc 1 521 0
 265 0052 5069     		ldr	r0, [r2, #20]
 266 0054 00F00F00 		and	r0, r0, #15
 267 0058 0128     		cmp	r0, #1
 268 005a 2AD0     		beq	.L36
 269 005c 0228     		cmp	r0, #2
 270 005e 26D0     		beq	.L56
 271              	.LVL20:
 272              	.L35:
 273              		.loc 1 529 0
 274 0060 D069     		ldr	r0, [r2, #28]
 275 0062 00F00F00 		and	r0, r0, #15
 276 0066 0128     		cmp	r0, #1
 277 0068 1ED0     		beq	.L39
 278 006a 0228     		cmp	r0, #2
 279 006c 1AD0     		beq	.L57
 280              	.LVL21:
 281              	.L38:
 282              		.loc 1 537 0
 283 006e 506A     		ldr	r0, [r2, #36]
 284 0070 00F00F00 		and	r0, r0, #15
 285 0074 0128     		cmp	r0, #1
ARM GAS  /tmp/ccfQAElU.s 			page 6


 286 0076 03D0     		beq	.L42
 287 0078 0228     		cmp	r0, #2
 288 007a 03D1     		bne	.L41
 289              		.loc 1 539 0
 290 007c 41F40051 		orr	r1, r1, #8192
 291              	.LVL22:
 292              	.L42:
 293              		.loc 1 541 0
 294 0080 41F48051 		orr	r1, r1, #4096
 295              	.LVL23:
 296              	.L41:
 297              		.loc 1 583 0
 298 0084 0120     		movs	r0, #1
 299              		.loc 1 582 0
 300 0086 1962     		str	r1, [r3, #32]
 301              		.loc 1 583 0
 302 0088 5861     		str	r0, [r3, #20]
 303              		.loc 1 584 0
 304 008a 9068     		ldr	r0, [r2, #8]
 305 008c DA68     		ldr	r2, [r3, #12]
 306              		.loc 1 585 0
 307 008e 0021     		movs	r1, #0
 308              	.LVL24:
 309              		.loc 1 584 0
 310 0090 8842     		cmp	r0, r1
 311 0092 0CBF     		ite	eq
 312 0094 1046     		moveq	r0, r2
 313 0096 42F00100 		orrne	r0, r2, #1
 314              		.loc 1 594 0
 315 009a 8522     		movs	r2, #133
 316              		.loc 1 584 0
 317 009c D860     		str	r0, [r3, #12]
 318              		.loc 1 585 0
 319 009e 1961     		str	r1, [r3, #16]
 320              		.loc 1 594 0
 321 00a0 1A60     		str	r2, [r3]
 322 00a2 70BD     		pop	{r4, r5, r6, pc}
 323              	.LVL25:
 324              	.L57:
 325              		.loc 1 531 0
 326 00a4 41F40071 		orr	r1, r1, #512
 327              	.LVL26:
 328              	.L39:
 329              		.loc 1 533 0
 330 00a8 41F48071 		orr	r1, r1, #256
 331              	.LVL27:
 332 00ac DFE7     		b	.L38
 333              	.L56:
 334              		.loc 1 523 0
 335 00ae 41F02001 		orr	r1, r1, #32
 336              	.LVL28:
 337              	.L36:
 338              		.loc 1 525 0
 339 00b2 41F01001 		orr	r1, r1, #16
 340              	.LVL29:
 341 00b6 D3E7     		b	.L35
 342              	.LVL30:
ARM GAS  /tmp/ccfQAElU.s 			page 7


 343              	.L55:
 344              		.loc 1 439 0
 345 00b8 40F20003 		movw	r3, #:lower16:.LANCHOR0
 346 00bc C0F20003 		movt	r3, #:upper16:.LANCHOR0
 347 00c0 9842     		cmp	r0, r3
 348 00c2 06D0     		beq	.L58
 349              	.LVL31:
 350              	.L30:
 351              		.loc 1 484 0
 352 00c4 2369     		ldr	r3, [r4, #16]
 353 00c6 6268     		ldr	r2, [r4, #4]
 354 00c8 46F66801 		movw	r1, #26728
 355 00cc 9961     		str	r1, [r3, #24]
 356              		.loc 1 486 0
 357 00ce D961     		str	r1, [r3, #28]
 358 00d0 A9E7     		b	.L31
 359              	.LVL32:
 360              	.L58:
 361              		.loc 1 440 0
 362 00d2 4FF46053 		mov	r3, #14336
 363 00d6 C4F20203 		movt	r3, 16386
 364              		.loc 1 441 0
 365 00da 0022     		movs	r2, #0
 366              		.loc 1 440 0
 367 00dc 196C     		ldr	r1, [r3, #64]
 368 00de 41F00401 		orr	r1, r1, #4
 369 00e2 1964     		str	r1, [r3, #64]
 370              		.loc 1 441 0
 371 00e4 196A     		ldr	r1, [r3, #32]
 372 00e6 41F00401 		orr	r1, r1, #4
 373 00ea 1962     		str	r1, [r3, #32]
 374              		.loc 1 442 0
 375 00ec 1E20     		movs	r0, #30
 376              	.LVL33:
 377              		.loc 1 441 0
 378 00ee 1A62     		str	r2, [r3, #32]
 379              		.loc 1 442 0
 380 00f0 7021     		movs	r1, #112
 381 00f2 FFF7FEFF 		bl	nvicEnableVector
 382              	.LVL34:
 383              		.loc 1 444 0
 384 00f6 4FF43D43 		mov	r3, #48384
 385 00fa C0F20153 		movt	r3, 1281
 386 00fe E360     		str	r3, [r4, #12]
 387 0100 E0E7     		b	.L30
 388              		.cfi_endproc
 389              	.LFE121:
 390              		.size	pwm_lld_start, .-pwm_lld_start
 391 0102 00BFAFF3 		.section	.text.pwm_lld_stop,"ax",%progbits
 391      0080AFF3 
 391      0080AFF3 
 391      0080
 392              		.align	2
 393              		.p2align 4,,15
 394              		.global	pwm_lld_stop
 395              		.thumb
 396              		.thumb_func
ARM GAS  /tmp/ccfQAElU.s 			page 8


 397              		.type	pwm_lld_stop, %function
 398              	pwm_lld_stop:
 399              	.LFB122:
 400              		.loc 1 605 0
 401              		.cfi_startproc
 402              		@ args = 0, pretend = 0, frame = 0
 403              		@ frame_needed = 0, uses_anonymous_args = 0
 404              	.LVL35:
 405 0000 08B5     		push	{r3, lr}
 406              		.cfi_def_cfa_offset 8
 407              		.cfi_offset 3, -8
 408              		.cfi_offset 14, -4
 409              		.loc 1 608 0
 410 0002 0378     		ldrb	r3, [r0]	@ zero_extendqisi2
 411 0004 022B     		cmp	r3, #2
 412 0006 00D0     		beq	.L63
 413              	.LVL36:
 414              	.L59:
 415 0008 08BD     		pop	{r3, pc}
 416              	.LVL37:
 417              	.L63:
 418              		.loc 1 636 0
 419 000a 40F20003 		movw	r3, #:lower16:.LANCHOR0
 420              		.loc 1 609 0
 421 000e 0269     		ldr	r2, [r0, #16]
 422              		.loc 1 636 0
 423 0010 C0F20003 		movt	r3, #:upper16:.LANCHOR0
 424              		.loc 1 609 0
 425 0014 0021     		movs	r1, #0
 426              		.loc 1 636 0
 427 0016 9842     		cmp	r0, r3
 428              		.loc 1 609 0
 429 0018 1160     		str	r1, [r2]
 430              		.loc 1 610 0
 431 001a D160     		str	r1, [r2, #12]
 432              		.loc 1 611 0
 433 001c 1161     		str	r1, [r2, #16]
 434              		.loc 1 636 0
 435 001e F3D1     		bne	.L59
 436              		.loc 1 637 0
 437 0020 1E20     		movs	r0, #30
 438              	.LVL38:
 439 0022 FFF7FEFF 		bl	nvicDisableVector
 440              	.LVL39:
 441              		.loc 1 638 0
 442 0026 4FF46053 		mov	r3, #14336
 443 002a C4F20203 		movt	r3, 16386
 444 002e 1A6C     		ldr	r2, [r3, #64]
 445 0030 22F00402 		bic	r2, r2, #4
 446 0034 1A64     		str	r2, [r3, #64]
 447 0036 E7E7     		b	.L59
 448              		.cfi_endproc
 449              	.LFE122:
 450              		.size	pwm_lld_stop, .-pwm_lld_stop
 451 0038 AFF30080 		.section	.text.pwm_lld_enable_channel,"ax",%progbits
 451      AFF30080 
 452              		.align	2
ARM GAS  /tmp/ccfQAElU.s 			page 9


 453              		.p2align 4,,15
 454              		.global	pwm_lld_enable_channel
 455              		.thumb
 456              		.thumb_func
 457              		.type	pwm_lld_enable_channel, %function
 458              	pwm_lld_enable_channel:
 459              	.LFB123:
 460              		.loc 1 677 0
 461              		.cfi_startproc
 462              		@ args = 0, pretend = 0, frame = 0
 463              		@ frame_needed = 0, uses_anonymous_args = 0
 464              		@ link register save eliminated.
 465              	.LVL40:
 466 0000 10B4     		push	{r4}
 467              		.cfi_def_cfa_offset 4
 468              		.cfi_offset 4, -4
 469              		.loc 1 682 0
 470 0002 4468     		ldr	r4, [r0, #4]
 471              		.loc 1 679 0
 472 0004 0369     		ldr	r3, [r0, #16]
 473              		.loc 1 682 0
 474 0006 04EBC100 		add	r0, r4, r1, lsl #3
 475              	.LVL41:
 476              		.loc 1 679 0
 477 000a 01F10C04 		add	r4, r1, #12
 478              		.loc 1 682 0
 479 000e 0069     		ldr	r0, [r0, #16]
 480              		.loc 1 679 0
 481 0010 03EB8404 		add	r4, r3, r4, lsl #2
 482 0014 6260     		str	r2, [r4, #4]
 483              		.loc 1 682 0
 484 0016 48B1     		cbz	r0, .L64
 485              	.LBB8:
 486              		.loc 1 683 0
 487 0018 DA68     		ldr	r2, [r3, #12]
 488              	.LVL42:
 489              		.loc 1 686 0
 490 001a 0220     		movs	r0, #2
 491 001c 00FA01F1 		lsl	r1, r0, r1
 492              	.LVL43:
 493 0020 1142     		tst	r1, r2
 494              		.loc 1 687 0
 495 0022 01BF     		itttt	eq
 496 0024 0A43     		orreq	r2, r1, r2
 497              	.LVL44:
 498              		.loc 1 688 0
 499 0026 C943     		mvneq	r1, r1
 500              		.loc 1 687 0
 501 0028 DA60     		streq	r2, [r3, #12]
 502              		.loc 1 688 0
 503 002a 1961     		streq	r1, [r3, #16]
 504              	.L64:
 505              	.LBE8:
 506              		.loc 1 691 0
 507 002c 5DF8044B 		ldr	r4, [sp], #4
 508 0030 7047     		bx	lr
 509              		.cfi_endproc
ARM GAS  /tmp/ccfQAElU.s 			page 10


 510              	.LFE123:
 511              		.size	pwm_lld_enable_channel, .-pwm_lld_enable_channel
 512 0032 00BFAFF3 		.section	.text.pwm_lld_disable_channel,"ax",%progbits
 512      0080AFF3 
 512      0080AFF3 
 512      0080
 513              		.align	2
 514              		.p2align 4,,15
 515              		.global	pwm_lld_disable_channel
 516              		.thumb
 517              		.thumb_func
 518              		.type	pwm_lld_disable_channel, %function
 519              	pwm_lld_disable_channel:
 520              	.LFB124:
 521              		.loc 1 705 0
 522              		.cfi_startproc
 523              		@ args = 0, pretend = 0, frame = 0
 524              		@ frame_needed = 0, uses_anonymous_args = 0
 525              		@ link register save eliminated.
 526              	.LVL45:
 527              		.loc 1 707 0
 528 0000 0369     		ldr	r3, [r0, #16]
 529 0002 01F10C02 		add	r2, r1, #12
 530 0006 03EB8202 		add	r2, r3, r2, lsl #2
 531 000a 0020     		movs	r0, #0
 532              	.LVL46:
 533 000c 5060     		str	r0, [r2, #4]
 534              		.loc 1 708 0
 535 000e DA68     		ldr	r2, [r3, #12]
 536 0010 0220     		movs	r0, #2
 537 0012 00FA01F1 		lsl	r1, r0, r1
 538              	.LVL47:
 539 0016 22EA0101 		bic	r1, r2, r1
 540 001a D960     		str	r1, [r3, #12]
 541 001c 7047     		bx	lr
 542              		.cfi_endproc
 543              	.LFE124:
 544              		.size	pwm_lld_disable_channel, .-pwm_lld_disable_channel
 545              		.global	PWMD4
 546 001e 00BF     		.section	.bss.PWMD4,"aw",%nobits
 547              		.align	2
 548              		.set	.LANCHOR0,. + 0
 549              		.type	PWMD4, %object
 550              		.size	PWMD4, 20
 551              	PWMD4:
 552 0000 00000000 		.space	20
 552      00000000 
 552      00000000 
 552      00000000 
 552      00000000 
 553              		.text
 554              	.Letext0:
 555              		.file 2 "/usr/include/newlib/machine/_default_types.h"
 556              		.file 3 "/usr/include/newlib/stdint.h"
 557              		.file 4 "../../os/hal/platforms/STM32F4xx/stm32f4xx.h"
 558              		.file 5 "../../os/hal/include/pwm.h"
 559              		.file 6 "../../os/hal/platforms/STM32/TIMv1/pwm_lld.h"
ARM GAS  /tmp/ccfQAElU.s 			page 11


 560              		.file 7 "../../os/hal/platforms/STM32/TIMv1/stm32_tim.h"
 561              		.file 8 "../../os/ports/common/ARMCMx/CMSIS/include/core_cm4.h"
 562              		.file 9 "../../os/ports/common/ARMCMx/nvic.h"
 563              		.file 10 "../../os/ports/GCC/ARMCMx/chcore_v7m.h"