ARM GAS  /tmp/ccfQAElU.s 			page 1


   1              		.syntax unified
   2              		.cpu cortex-m4
   3              		.fpu softvfp
   4              		.eabi_attribute 20, 1
   5              		.eabi_attribute 21, 1
   6              		.eabi_attribute 23, 3
   7              		.eabi_attribute 24, 1
   8              		.eabi_attribute 25, 1
   9              		.eabi_attribute 26, 1
  10              		.eabi_attribute 30, 2
  11              		.eabi_attribute 34, 1
  12              		.eabi_attribute 18, 4
  13              		.thumb
  14              		.file	"pwm_lld.c"
  15              		.text
  16              	.Ltext0:
  17              		.cfi_sections	.debug_frame
  18              		.section	.text.VectorB8,"ax",%progbits
  19              		.align	2
  20              		.p2align 4,,15
  21              		.global	VectorB8
  22              		.thumb
  23              		.thumb_func
  24              		.type	VectorB8, %function
  25              	VectorB8:
  26              	.LFB119:
  27              		.file 1 "../../os/hal/platforms/STM32/TIMv1/pwm_lld.c"
  28              		.loc 1 235 0
  29              		.cfi_startproc
  30              		@ args = 0, pretend = 0, frame = 0
  31              		@ frame_needed = 0, uses_anonymous_args = 0
  32              	.LVL0:
  33 0000 38B5     		push	{r3, r4, r5, lr}
  34              		.cfi_def_cfa_offset 16
  35              		.cfi_offset 3, -16
  36              		.cfi_offset 4, -12
  37              		.cfi_offset 5, -8
  38              		.cfi_offset 14, -4
  39              	.LBB4:
  40              	.LBB5:
  41              		.loc 1 115 0
  42 0002 40F20005 		movw	r5, #:lower16:.LANCHOR0
  43 0006 C0F20005 		movt	r5, #:upper16:.LANCHOR0
  44 000a 2B69     		ldr	r3, [r5, #16]
  45 000c 1A69     		ldr	r2, [r3, #16]
  46              	.LVL1:
  47              		.loc 1 116 0
  48 000e DC68     		ldr	r4, [r3, #12]
  49 0010 1440     		ands	r4, r4, r2
  50 0012 A4B2     		uxth	r4, r4
  51              	.LVL2:
  52              		.loc 1 117 0
  53 0014 E2B2     		uxtb	r2, r4
  54 0016 D243     		mvns	r2, r2
  55 0018 1A61     		str	r2, [r3, #16]
  56              		.loc 1 118 0
  57 001a A307     		lsls	r3, r4, #30
ARM GAS  /tmp/ccfQAElU.s 			page 2


  58 001c 2AD4     		bmi	.L23
  59              	.L2:
  60              		.loc 1 120 0
  61 001e 6007     		lsls	r0, r4, #29
  62 0020 20D4     		bmi	.L24
  63              	.L3:
  64              		.loc 1 122 0
  65 0022 2107     		lsls	r1, r4, #28
  66 0024 16D4     		bmi	.L25
  67              	.L4:
  68              		.loc 1 124 0
  69 0026 E206     		lsls	r2, r4, #27
  70 0028 0CD4     		bmi	.L26
  71              	.L5:
  72              		.loc 1 126 0
  73 002a E307     		lsls	r3, r4, #31
  74 002c 06D5     		bpl	.L6
  75              		.loc 1 127 0
  76 002e 6B68     		ldr	r3, [r5, #4]
  77 0030 40F20000 		movw	r0, #:lower16:.LANCHOR0
  78 0034 9B68     		ldr	r3, [r3, #8]
  79 0036 C0F20000 		movt	r0, #:upper16:.LANCHOR0
  80 003a 9847     		blx	r3
  81              	.LVL3:
  82              	.L6:
  83              	.LBE5:
  84              	.LBE4:
  85              		.loc 1 242 0
  86 003c BDE83840 		pop	{r3, r4, r5, lr}
  87              	.LVL4:
  88              		.loc 1 241 0
  89 0040 FFF7FEBF 		b	_port_irq_epilogue
  90              	.LVL5:
  91              	.L26:
  92              	.LBB7:
  93              	.LBB6:
  94              		.loc 1 125 0
  95 0044 6B68     		ldr	r3, [r5, #4]
  96 0046 40F20000 		movw	r0, #:lower16:.LANCHOR0
  97 004a 9B6A     		ldr	r3, [r3, #40]
  98 004c C0F20000 		movt	r0, #:upper16:.LANCHOR0
  99 0050 9847     		blx	r3
 100              	.LVL6:
 101 0052 EAE7     		b	.L5
 102              	.L25:
 103              		.loc 1 123 0
 104 0054 6B68     		ldr	r3, [r5, #4]
 105 0056 40F20000 		movw	r0, #:lower16:.LANCHOR0
 106 005a 1B6A     		ldr	r3, [r3, #32]
 107 005c C0F20000 		movt	r0, #:upper16:.LANCHOR0
 108 0060 9847     		blx	r3
 109              	.LVL7:
 110 0062 E0E7     		b	.L4
 111              	.L24:
 112              		.loc 1 121 0
 113 0064 6B68     		ldr	r3, [r5, #4]
 114 0066 40F20000 		movw	r0, #:lower16:.LANCHOR0
ARM GAS  /tmp/ccfQAElU.s 			page 3


 115 006a 9B69     		ldr	r3, [r3, #24]
 116 006c C0F20000 		movt	r0, #:upper16:.LANCHOR0
 117 0070 9847     		blx	r3
 118              	.LVL8:
 119 0072 D6E7     		b	.L3
 120              	.L23:
 121              		.loc 1 119 0
 122 0074 6B68     		ldr	r3, [r5, #4]
 123 0076 2846     		mov	r0, r5
 124 0078 1B69     		ldr	r3, [r3, #16]
 125 007a 9847     		blx	r3
 126              	.LVL9:
 127 007c CFE7     		b	.L2
 128              	.LBE6:
 129              	.LBE7:
 130              		.cfi_endproc
 131              	.LFE119:
 132              		.size	VectorB8, .-VectorB8
 133 007e 00BF     		.section	.text.pwm_lld_init,"ax",%progbits
 134              		.align	2
 135              		.p2align 4,,15
 136              		.global	pwm_lld_init
 137              		.thumb
 138              		.thumb_func
 139              		.type	pwm_lld_init, %function
 140              	pwm_lld_init:
 141              	.LFB120:
 142              		.loc 1 345 0
 143              		.cfi_startproc
 144              		@ args = 0, pretend = 0, frame = 0
 145              		@ frame_needed = 0, uses_anonymous_args = 0
 146 0000 10B5     		push	{r4, lr}
 147              		.cfi_def_cfa_offset 8
 148              		.cfi_offset 4, -8
 149              		.cfi_offset 14, -4
 150              		.loc 1 367 0
 151 0002 40F20004 		movw	r4, #:lower16:.LANCHOR0
 152 0006 C0F20004 		movt	r4, #:upper16:.LANCHOR0
 153 000a 2046     		mov	r0, r4
 154 000c FFF7FEFF 		bl	pwmObjectInit
 155              	.LVL10:
 156              		.loc 1 368 0
 157 0010 4FF40063 		mov	r3, #2048
 158 0014 C4F20003 		movt	r3, 16384
 159 0018 2361     		str	r3, [r4, #16]
 160 001a 10BD     		pop	{r4, pc}
 161              		.cfi_endproc
 162              	.LFE120:
 163              		.size	pwm_lld_init, .-pwm_lld_init
 164 001c AFF30080 		.section	.text.pwm_lld_start,"ax",%progbits
 165              		.align	2
 166              		.p2align 4,,15
 167              		.global	pwm_lld_start
 168              		.thumb
 169              		.thumb_func
 170              		.type	pwm_lld_start, %function
 171              	pwm_lld_start:
ARM GAS  /tmp/ccfQAElU.s 			page 4


 172              	.LFB121:
 173              		.loc 1 399 0
 174              		.cfi_startproc
 175              		@ args = 0, pretend = 0, frame = 0
 176              		@ frame_needed = 0, uses_anonymous_args = 0
 177              	.LVL11:
 178              		.loc 1 403 0
 179 0000 0378     		ldrb	r3, [r0]	@ zero_extendqisi2
 180 0002 012B     		cmp	r3, #1
 181              		.loc 1 399 0
 182 0004 70B5     		push	{r4, r5, r6, lr}
 183              		.cfi_def_cfa_offset 16
 184              		.cfi_offset 4, -16
 185              		.cfi_offset 5, -12
 186              		.cfi_offset 6, -8
 187              		.cfi_offset 14, -4
 188              		.loc 1 399 0
 189 0006 0446     		mov	r4, r0
 190              		.loc 1 403 0
 191 0008 56D0     		beq	.L55
 192              		.loc 1 492 0
 193 000a 4268     		ldr	r2, [r0, #4]
 194              		.loc 1 491 0
 195 000c 0369     		ldr	r3, [r0, #16]
 196              		.loc 1 492 0
 197 000e 106B     		ldr	r0, [r2, #48]
 198              	.LVL12:
 199              		.loc 1 491 0
 200 0010 0021     		movs	r1, #0
 201              		.loc 1 492 0
 202 0012 20F0FF00 		bic	r0, r0, #255
 203              		.loc 1 491 0
 204 0016 1960     		str	r1, [r3]
 205              		.loc 1 492 0
 206 0018 D860     		str	r0, [r3, #12]
 207              		.loc 1 494 0
 208 001a 1961     		str	r1, [r3, #16]
 209              		.loc 1 495 0
 210 001c 5963     		str	r1, [r3, #52]
 211              		.loc 1 496 0
 212 001e 9963     		str	r1, [r3, #56]
 213              		.loc 1 497 0
 214 0020 D963     		str	r1, [r3, #60]
 215              		.loc 1 498 0
 216 0022 1964     		str	r1, [r3, #64]
 217              		.loc 1 499 0
 218 0024 5962     		str	r1, [r3, #36]
 219              	.L31:
 220              	.LVL13:
 221              		.loc 1 503 0
 222 0026 E668     		ldr	r6, [r4, #12]
 223 0028 1068     		ldr	r0, [r2]
 224              		.loc 1 508 0
 225 002a 2589     		ldrh	r5, [r4, #8]
 226              		.loc 1 513 0
 227 002c D168     		ldr	r1, [r2, #12]
 228              		.loc 1 509 0
ARM GAS  /tmp/ccfQAElU.s 			page 5


 229 002e D46A     		ldr	r4, [r2, #44]
 230              	.LVL14:
 231              		.loc 1 503 0
 232 0030 B6FBF0F0 		udiv	r0, r6, r0
 233              		.loc 1 508 0
 234 0034 013D     		subs	r5, r5, #1
 235              		.loc 1 503 0
 236 0036 0138     		subs	r0, r0, #1
 237              	.LVL15:
 238              		.loc 1 513 0
 239 0038 01F00F01 		and	r1, r1, #15
 240              		.loc 1 508 0
 241 003c ADB2     		uxth	r5, r5
 242              		.loc 1 507 0
 243 003e 80B2     		uxth	r0, r0
 244              	.LVL16:
 245              		.loc 1 513 0
 246 0040 0129     		cmp	r1, #1
 247              		.loc 1 507 0
 248 0042 9862     		str	r0, [r3, #40]
 249              	.LVL17:
 250              		.loc 1 508 0
 251 0044 DD62     		str	r5, [r3, #44]
 252              		.loc 1 509 0
 253 0046 5C60     		str	r4, [r3, #4]
 254              	.LVL18:
 255              		.loc 1 513 0
 256 0048 03D0     		beq	.L32
 257              		.loc 1 512 0
 258 004a 0229     		cmp	r1, #2
 259 004c 0CBF     		ite	eq
 260 004e 0321     		moveq	r1, #3
 261 0050 0021     		movne	r1, #0
 262              	.L32:
 263              	.LVL19:
 264              		.loc 1 521 0
 265 0052 5069     		ldr	r0, [r2, #20]
 266 0054 00F00F00 		and	r0, r0, #15
 267 0058 0128     		cmp	r0, #1
 268 005a 2AD0     		beq	.L36
 269 005c 0228     		cmp	r0, #2
 270 005e 26D0     		beq	.L56
 271              	.LVL20:
 272              	.L35:
 273              		.loc 1 529 0
 274 0060 D069     		ldr	r0, [r2, #28]
 275 0062 00F00F00 		and	r0, r0, #15
 276 0066 0128     		cmp	r0, #1
 277 0068 1ED0     		beq	.L39
 278 006a 0228     		cmp	r0, #2
 279 006c 1AD0     		beq	.L57
 280              	.LVL21:
 281              	.L38:
 282              		.loc 1 537 0
 283 006e 506A     		ldr	r0, [r2, #36]
 284 0070 00F00F00 		and	r0, r0, #15
 285 0074 0128     		cmp	r0, #1
ARM GAS  /tmp/ccfQAElU.s 			page 6


 286 0076 03D0     		beq	.L42
 287 0078 0228     		cmp	r0, #2
 288 007a 03D1     		bne	.L41
 289              		.loc 1 539 0
 290 007c 41F40051 		orr	r1, r1, #8192
 291              	.LVL22:
 292              	.L42:
 293              		.loc 1 541 0
 294 0080 41F48051 		orr	r1, r1, #4096
 295              	.LVL23:
 296              	.L41:
 297              		.loc 1 583 0
 298 0084 0120     		movs	r0, #1
 299              		.loc 1 582 0
 300 0086 1962     		str	r1, [r3, #32]
 301              		.loc 1 583 0
 302 0088 5861     		str	r0, [r3, #20]
 303              		.loc 1 584 0
 304 008a 9068     		ldr	r0, [r2, #8]
 305 008c DA68     		ldr	r2, [r3, #12]
 306              		.loc 1 585 0
 307 008e 0021     		movs	r1, #0
 308              	.LVL24:
 309              		.loc 1 584 0
 310 0090 8842     		cmp	r0, r1
 311 0092 0CBF     		ite	eq
 312 0094 1046     		moveq	r0, r2
 313 0096 42F00100 		orrne	r0, r2, #1
 314              		.loc 1 594 0
 315 009a 8522     		movs	r2, #133
 316              		.loc 1 584 0
 317 009c D860     		str	r0, [r3, #12]
 318              		.loc 1 585 0
 319 009e 1961     		str	r1, [r3, #16]
 320              		.loc 1 594 0
 321 00a0 1A60     		str	r2, [r3]
 322 00a2 70BD     		pop	{r4, r5, r6, pc}
 323              	.LVL25:
 324              	.L57:
 325              		.loc 1 531 0
 326 00a4 41F40071 		orr	r1, r1, #512
 327              	.LVL26:
 328              	.L39:
 329              		.loc 1 533 0
 330 00a8 41F48071 		orr	r1, r1, #256
 331              	.LVL27:
 332 00ac DFE7     		b	.L38
 333              	.L56:
 334              		.loc 1 523 0
 335 00ae 41F02001 		orr	r1, r1, #32
 336              	.LVL28:
 337              	.L36:
 338              		.loc 1 525 0
 339 00b2 41F01001 		orr	r1, r1, #16
 340              	.LVL29:
 341 00b6 D3E7     		b	.L35
 342              	.LVL30:
ARM GAS  /tmp/ccfQAElU.s 			page 7


 343              	.L55:
 344              		.loc 1 439 0
 345 00b8 40F20003 		movw	r3, #:lower16:.LANCHOR0
 346 00bc C0F20003 		movt	r3, #:upper16:.LANCHOR0
 347 00c0 9842     		cmp	r0, r3
 348 00c2 06D0     		beq	.L58
 349              	.LVL31:
 350              	.L30:
 351              		.loc 1 484 0
 352 00c4 2369     		ldr	r3, [r4, #16]
 353 00c6 6268     		ldr	r2, [r4, #4]
 354 00c8 46F66801 		movw	r1, #26728
 355 00cc 9961     		str	r1, [r3, #24]
 356              		.loc 1 486 0
 357 00ce D961     		str	r1, [r3, #28]
 358 00d0 A9E7     		b	.L31
 359              	.LVL32:
 360              	.L58:
 361              		.loc 1 440 0
 362 00d2 4FF46053 		mov	r3, #14336
 363 00d6 C4F20203 		movt	r3, 16386
 364              		.loc 1 441 0
 365 00da 0022     		movs	r2, #0
 366              		.loc 1 440 0
 367 00dc 196C     		ldr	r1, [r3, #64]
 368 00de 41F00401 		orr	r1, r1, #4
 369 00e2 1964     		str	r1, [r3, #64]
 370              		.loc 1 441 0
 371 00e4 196A     		ldr	r1, [r3, #32]
 372 00e6 41F00401 		orr	r1, r1, #4
 373 00ea 1962     		str	r1, [r3, #32]
 374              		.loc 1 442 0
 375 00ec 1E20     		movs	r0, #30
 376              	.LVL33:
 377              		.loc 1 441 0
 378 00ee 1A62     		str	r2, [r3, #32]
 379              		.loc 1 442 0
 380 00f0 7021     		movs	r1, #112
 381 00f2 FFF7FEFF 		bl	nvicEnableVector
 382              	.LVL34:
 383              		.loc 1 444 0
 384 00f6 4FF43D43 		mov	r3, #48384
 385 00fa C0F20153 		movt	r3, 1281
 386 00fe E360     		str	r3, [r4, #12]
 387 0100 E0E7     		b	.L30
 388              		.cfi_endproc
 389              	.LFE121:
 390              		.size	pwm_lld_start, .-pwm_lld_start
 391 0102 00BFAFF3 		.section	.text.pwm_lld_stop,"ax",%progbits
 391      0080AFF3 
 391      0080AFF3 
 391      0080
 392              		.align	2
 393              		.p2align 4,,15
 394              		.global	pwm_lld_stop
 395              		.thumb
 396              		.thumb_func
ARM GAS  /tmp/ccfQAElU.s 			page 8


 397              		.type	pwm_lld_stop, %function
 398              	pwm_lld_stop:
 399              	.LFB122:
 400              		.loc 1 605 0
 401              		.cfi_startproc
 402              		@ args = 0, pretend = 0, frame = 0
 403              		@ frame_needed = 0, uses_anonymous_args = 0
 404              	.LVL35:
 405 0000 08B5     		push	{r3, lr}
 406              		.cfi_def_cfa_offset 8
 407              		.cfi_offset 3, -8
 408              		.cfi_offset 14, -4
 409              		.loc 1 608 0
 410 0002 0378     		ldrb	r3, [r0]	@ zero_extendqisi2
 411 0004 022B     		cmp	r3, #2
 412 0006 00D0     		beq	.L63
 413              	.LVL36:
 414              	.L59:
 415 0008 08BD     		pop	{r3, pc}
 416              	.LVL37:
 417              	.L63:
 418              		.loc 1 636 0
 419 000a 40F20003 		movw	r3, #:lower16:.LANCHOR0
 420              		.loc 1 609 0
 421 000e 0269     		ldr	r2, [r0, #16]
 422              		.loc 1 636 0
 423 0010 C0F20003 		movt	r3, #:upper16:.LANCHOR0
 424              		.loc 1 609 0
 425 0014 0021     		movs	r1, #0
 426              		.loc 1 636 0
 427 0016 9842     		cmp	r0, r3
 428              		.loc 1 609 0
 429 0018 1160     		str	r1, [r2]
 430              		.loc 1 610 0
 431 001a D160     		str	r1, [r2, #12]
 432              		.loc 1 611 0
 433 001c 1161     		str	r1, [r2, #16]
 434              		.loc 1 636 0
 435 001e F3D1     		bne	.L59
 436              		.loc 1 637 0
 437 0020 1E20     		movs	r0, #30
 438              	.LVL38:
 439 0022 FFF7FEFF 		bl	nvicDisableVector
 440              	.LVL39:
 441              		.loc 1 638 0
 442 0026 4FF46053 		mov	r3, #14336
 443 002a C4F20203 		movt	r3, 16386
 444 002e 1A6C     		ldr	r2, [r3, #64]
 445 0030 22F00402 		bic	r2, r2, #4
 446 0034 1A64     		str	r2, [r3, #64]
 447 0036 E7E7     		b	.L59
 448              		.cfi_endproc
 449              	.LFE122:
 450              		.size	pwm_lld_stop, .-pwm_lld_stop
 451 0038 AFF30080 		.section	.text.pwm_lld_enable_channel,"ax",%progbits
 451      AFF30080 
 452              		.align	2
ARM GAS  /tmp/ccfQAElU.s 			page 9


 453              		.p2align 4,,15
 454              		.global	pwm_lld_enable_channel
 455              		.thumb
 456              		.thumb_func
 457              		.type	pwm_lld_enable_channel, %function
 458              	pwm_lld_enable_channel:
 459              	.LFB123:
 460              		.loc 1 677 0
 461              		.cfi_startproc
 462              		@ args = 0, pretend = 0, frame = 0
 463              		@ frame_needed = 0, uses_anonymous_args = 0
 464              		@ link register save eliminated.
 465              	.LVL40:
 466 0000 10B4     		push	{r4}
 467              		.cfi_def_cfa_offset 4
 468              		.cfi_offset 4, -4
 469              		.loc 1 682 0
 470 0002 4468     		ldr	r4, [r0, #4]
 471              		.loc 1 679 0
 472 0004 0369     		ldr	r3, [r0, #16]
 473              		.loc 1 682 0
 474 0006 04EBC100 		add	r0, r4, r1, lsl #3
 475              	.LVL41:
 476              		.loc 1 679 0
 477 000a 01F10C04 		add	r4, r1, #12
 478              		.loc 1 682 0
 479 000e 0069     		ldr	r0, [r0, #16]
 480              		.loc 1 679 0
 481 0010 03EB8404 		add	r4, r3, r4, lsl #2
 482 0014 6260     		str	r2, [r4, #4]
 483              		.loc 1 682 0
 484 0016 48B1     		cbz	r0, .L64
 485              	.LBB8:
 486              		.loc 1 683 0
 487 0018 DA68     		ldr	r2, [r3, #12]
 488              	.LVL42:
 489              		.loc 1 686 0
 490 001a 0220     		movs	r0, #2
 491 001c 00FA01F1 		lsl	r1, r0, r1
 492              	.LVL43:
 493 0020 1142     		tst	r1, r2
 494              		.loc 1 687 0
 495 0022 01BF     		itttt	eq
 496 0024 0A43     		orreq	r2, r1, r2
 497              	.LVL44:
 498              		.loc 1 688 0
 499 0026 C943     		mvneq	r1, r1
 500              		.loc 1 687 0
 501 0028 DA60     		streq	r2, [r3, #12]
 502              		.loc 1 688 0
 503 002a 1961     		streq	r1, [r3, #16]
 504              	.L64:
 505              	.LBE8:
 506              		.loc 1 691 0
 507 002c 5DF8044B 		ldr	r4, [sp], #4
 508 0030 7047     		bx	lr
 509              		.cfi_endproc
ARM GAS  /tmp/ccfQAElU.s 			page 10


 510              	.LFE123:
 511              		.size	pwm_lld_enable_channel, .-pwm_lld_enable_channel
 512 0032 00BFAFF3 		.section	.text.pwm_lld_disable_channel,"ax",%progbits
 512      0080AFF3 
 512      0080AFF3 
 512      0080
 513              		.align	2
 514              		.p2align 4,,15
 515              		.global	pwm_lld_disable_channel
 516              		.thumb
 517              		.thumb_func
 518              		.type	pwm_lld_disable_channel, %function
 519              	pwm_lld_disable_channel:
 520              	.LFB124:
 521              		.loc 1 705 0
 522              		.cfi_startproc
 523              		@ args = 0, pretend = 0, frame = 0
 524              		@ frame_needed = 0, uses_anonymous_args = 0
 525              		@ link register save eliminated.
 526              	.LVL45:
 527              		.loc 1 707 0
 528 0000 0369     		ldr	r3, [r0, #16]
 529 0002 01F10C02 		add	r2, r1, #12
 530 0006 03EB8202 		add	r2, r3, r2, lsl #2
 531 000a 0020     		movs	r0, #0
 532              	.LVL46:
 533 000c 5060     		str	r0, [r2, #4]
 534              		.loc 1 708 0
 535 000e DA68     		ldr	r2, [r3, #12]
 536 0010 0220     		movs	r0, #2
 537 0012 00FA01F1 		lsl	r1, r0, r1
 538              	.LVL47:
 539 0016 22EA0101 		bic	r1, r2, r1
 540 001a D960     		str	r1, [r3, #12]
 541 001c 7047     		bx	lr
 542              		.cfi_endproc
 543              	.LFE124:
 544              		.size	pwm_lld_disable_channel, .-pwm_lld_disable_channel
 545              		.global	PWMD4
 546 001e 00BF     		.section	.bss.PWMD4,"aw",%nobits
 547              		.align	2
 548              		.set	.LANCHOR0,. + 0
 549              		.type	PWMD4, %object
 550              		.size	PWMD4, 20
 551              	PWMD4:
 552 0000 00000000 		.space	20
 552      00000000 
 552      00000000 
 552      00000000 
 552      00000000 
 553              		.text
 554              	.Letext0:
 555              		.file 2 "/usr/include/newlib/machine/_default_types.h"
 556              		.file 3 "/usr/include/newlib/stdint.h"
 557              		.file 4 "../../os/hal/platforms/STM32F4xx/stm32f4xx.h"
 558              		.file 5 "../../os/hal/include/pwm.h"
 559              		.file 6 "../../os/hal/platforms/STM32/TIMv1/pwm_lld.h"
ARM GAS  /tmp/ccfQAElU.s 			page 11


 560              		.file 7 "../../os/hal/platforms/STM32/TIMv1/stm32_tim.h"
 561              		.file 8 "../../os/ports/common/ARMCMx/CMSIS/include/core_cm4.h"
 562              		.file 9 "../../os/ports/common/ARMCMx/nvic.h"
 563              		.file 10 "../../os/ports/GCC/ARMCMx/chcore_v7m.h"
 564              		.section	.debug_info,"",%progbits
 565              	.Ldebug_info0:
 566 0000 080A0000 		.4byte	0xa08
 567 0004 0400     		.2byte	0x4
 568 0006 00000000 		.4byte	.Ldebug_abbrev0
 569 000a 04       		.byte	0x4
 570 000b 01       		.uleb128 0x1
 571 000c 0C070000 		.4byte	.LASF185
 572 0010 01       		.byte	0x1
 573 0011 45020000 		.4byte	.LASF186
 574 0015 2B040000 		.4byte	.LASF187
 575 0019 18000000 		.4byte	.Ldebug_ranges0+0x18
 576 001d 00000000 		.4byte	0
 577 0021 00000000 		.4byte	.Ldebug_line0
 578 0025 02       		.uleb128 0x2
 579 0026 04       		.byte	0x4
 580 0027 07       		.byte	0x7
 581 0028 C9020000 		.4byte	.LASF0
 582 002c 03       		.uleb128 0x3
 583 002d 04       		.byte	0x4
 584 002e 05       		.byte	0x5
 585 002f 696E7400 		.ascii	"int\000"
 586 0033 02       		.uleb128 0x2
 587 0034 01       		.byte	0x1
 588 0035 06       		.byte	0x6
 589 0036 3D010000 		.4byte	.LASF1
 590 003a 04       		.uleb128 0x4
 591 003b 6E000000 		.4byte	.LASF4
 592 003f 02       		.byte	0x2
 593 0040 1C       		.byte	0x1c
 594 0041 45000000 		.4byte	0x45
 595 0045 02       		.uleb128 0x2
 596 0046 01       		.byte	0x1
 597 0047 08       		.byte	0x8
 598 0048 BC050000 		.4byte	.LASF2
 599 004c 02       		.uleb128 0x2
 600 004d 02       		.byte	0x2
 601 004e 05       		.byte	0x5
 602 004f 03060000 		.4byte	.LASF3
 603 0053 04       		.uleb128 0x4
 604 0054 72020000 		.4byte	.LASF5
 605 0058 02       		.byte	0x2
 606 0059 26       		.byte	0x26
 607 005a 5E000000 		.4byte	0x5e
 608 005e 02       		.uleb128 0x2
 609 005f 02       		.byte	0x2
 610 0060 07       		.byte	0x7
 611 0061 3A060000 		.4byte	.LASF6
 612 0065 04       		.uleb128 0x4
 613 0066 1B080000 		.4byte	.LASF7
 614 006a 02       		.byte	0x2
 615 006b 37       		.byte	0x37
 616 006c 70000000 		.4byte	0x70
ARM GAS  /tmp/ccfQAElU.s 			page 12


 617 0070 02       		.uleb128 0x2
 618 0071 04       		.byte	0x4
 619 0072 05       		.byte	0x5
 620 0073 8B010000 		.4byte	.LASF8
 621 0077 04       		.uleb128 0x4
 622 0078 8C020000 		.4byte	.LASF9
 623 007c 02       		.byte	0x2
 624 007d 38       		.byte	0x38
 625 007e 82000000 		.4byte	0x82
 626 0082 02       		.uleb128 0x2
 627 0083 04       		.byte	0x4
 628 0084 07       		.byte	0x7
 629 0085 1D030000 		.4byte	.LASF10
 630 0089 02       		.uleb128 0x2
 631 008a 08       		.byte	0x8
 632 008b 05       		.byte	0x5
 633 008c CF010000 		.4byte	.LASF11
 634 0090 02       		.uleb128 0x2
 635 0091 08       		.byte	0x8
 636 0092 07       		.byte	0x7
 637 0093 A5000000 		.4byte	.LASF12
 638 0097 04       		.uleb128 0x4
 639 0098 DC080000 		.4byte	.LASF13
 640 009c 03       		.byte	0x3
 641 009d 2A       		.byte	0x2a
 642 009e 3A000000 		.4byte	0x3a
 643 00a2 04       		.uleb128 0x4
 644 00a3 EB010000 		.4byte	.LASF14
 645 00a7 03       		.byte	0x3
 646 00a8 36       		.byte	0x36
 647 00a9 53000000 		.4byte	0x53
 648 00ad 04       		.uleb128 0x4
 649 00ae B4050000 		.4byte	.LASF15
 650 00b2 03       		.byte	0x3
 651 00b3 41       		.byte	0x41
 652 00b4 65000000 		.4byte	0x65
 653 00b8 04       		.uleb128 0x4
 654 00b9 94060000 		.4byte	.LASF16
 655 00bd 03       		.byte	0x3
 656 00be 42       		.byte	0x42
 657 00bf 77000000 		.4byte	0x77
 658 00c3 02       		.uleb128 0x2
 659 00c4 01       		.byte	0x1
 660 00c5 02       		.byte	0x2
 661 00c6 AE050000 		.4byte	.LASF17
 662 00ca 05       		.uleb128 0x5
 663 00cb B8000000 		.4byte	0xb8
 664 00cf 02       		.uleb128 0x2
 665 00d0 04       		.byte	0x4
 666 00d1 07       		.byte	0x7
 667 00d2 77040000 		.4byte	.LASF18
 668 00d6 02       		.uleb128 0x2
 669 00d7 01       		.byte	0x1
 670 00d8 08       		.byte	0x8
 671 00d9 07070000 		.4byte	.LASF19
 672 00dd 06       		.uleb128 0x6
 673 00de 72040000 		.4byte	.LASF188
ARM GAS  /tmp/ccfQAElU.s 			page 13


 674 00e2 01       		.byte	0x1
 675 00e3 04       		.byte	0x4
 676 00e4 AA       		.byte	0xaa
 677 00e5 18030000 		.4byte	0x318
 678 00e9 07       		.uleb128 0x7
 679 00ea 07080000 		.4byte	.LASF20
 680 00ee 72       		.sleb128 -14
 681 00ef 07       		.uleb128 0x7
 682 00f0 FA020000 		.4byte	.LASF21
 683 00f4 74       		.sleb128 -12
 684 00f5 07       		.uleb128 0x7
 685 00f6 97020000 		.4byte	.LASF22
 686 00fa 75       		.sleb128 -11
 687 00fb 07       		.uleb128 0x7
 688 00fc A9060000 		.4byte	.LASF23
 689 0100 76       		.sleb128 -10
 690 0101 07       		.uleb128 0x7
 691 0102 5F030000 		.4byte	.LASF24
 692 0106 7B       		.sleb128 -5
 693 0107 07       		.uleb128 0x7
 694 0108 56080000 		.4byte	.LASF25
 695 010c 7C       		.sleb128 -4
 696 010d 07       		.uleb128 0x7
 697 010e 26020000 		.4byte	.LASF26
 698 0112 7E       		.sleb128 -2
 699 0113 07       		.uleb128 0x7
 700 0114 F9030000 		.4byte	.LASF27
 701 0118 7F       		.sleb128 -1
 702 0119 07       		.uleb128 0x7
 703 011a F0000000 		.4byte	.LASF28
 704 011e 00       		.sleb128 0
 705 011f 07       		.uleb128 0x7
 706 0120 25000000 		.4byte	.LASF29
 707 0124 01       		.sleb128 1
 708 0125 07       		.uleb128 0x7
 709 0126 35080000 		.4byte	.LASF30
 710 012a 02       		.sleb128 2
 711 012b 07       		.uleb128 0x7
 712 012c E2000000 		.4byte	.LASF31
 713 0130 03       		.sleb128 3
 714 0131 07       		.uleb128 0x7
 715 0132 70060000 		.4byte	.LASF32
 716 0136 04       		.sleb128 4
 717 0137 07       		.uleb128 0x7
 718 0138 AF090000 		.4byte	.LASF33
 719 013c 05       		.sleb128 5
 720 013d 07       		.uleb128 0x7
 721 013e A3080000 		.4byte	.LASF34
 722 0142 06       		.sleb128 6
 723 0143 07       		.uleb128 0x7
 724 0144 D3090000 		.4byte	.LASF35
 725 0148 07       		.sleb128 7
 726 0149 07       		.uleb128 0x7
 727 014a 4D060000 		.4byte	.LASF36
 728 014e 08       		.sleb128 8
 729 014f 07       		.uleb128 0x7
 730 0150 D6040000 		.4byte	.LASF37
ARM GAS  /tmp/ccfQAElU.s 			page 14


 731 0154 09       		.sleb128 9
 732 0155 07       		.uleb128 0x7
 733 0156 EA050000 		.4byte	.LASF38
 734 015a 0A       		.sleb128 10
 735 015b 07       		.uleb128 0x7
 736 015c E3090000 		.4byte	.LASF39
 737 0160 0B       		.sleb128 11
 738 0161 07       		.uleb128 0x7
 739 0162 E2070000 		.4byte	.LASF40
 740 0166 0C       		.sleb128 12
 741 0167 07       		.uleb128 0x7
 742 0168 EB040000 		.4byte	.LASF41
 743 016c 0D       		.sleb128 13
 744 016d 07       		.uleb128 0x7
 745 016e D6020000 		.4byte	.LASF42
 746 0172 0E       		.sleb128 14
 747 0173 07       		.uleb128 0x7
 748 0174 AE040000 		.4byte	.LASF43
 749 0178 0F       		.sleb128 15
 750 0179 07       		.uleb128 0x7
 751 017a AB010000 		.4byte	.LASF44
 752 017e 10       		.sleb128 16
 753 017f 07       		.uleb128 0x7
 754 0180 E8020000 		.4byte	.LASF45
 755 0184 11       		.sleb128 17
 756 0185 07       		.uleb128 0x7
 757 0186 5F090000 		.4byte	.LASF46
 758 018a 12       		.sleb128 18
 759 018b 07       		.uleb128 0x7
 760 018c 8D030000 		.4byte	.LASF47
 761 0190 13       		.sleb128 19
 762 0191 07       		.uleb128 0x7
 763 0192 17000000 		.4byte	.LASF48
 764 0196 14       		.sleb128 20
 765 0197 07       		.uleb128 0x7
 766 0198 97000000 		.4byte	.LASF49
 767 019c 15       		.sleb128 21
 768 019d 07       		.uleb128 0x7
 769 019e 85090000 		.4byte	.LASF50
 770 01a2 16       		.sleb128 22
 771 01a3 07       		.uleb128 0x7
 772 01a4 BD010000 		.4byte	.LASF51
 773 01a8 17       		.sleb128 23
 774 01a9 07       		.uleb128 0x7
 775 01aa CA050000 		.4byte	.LASF52
 776 01ae 18       		.sleb128 24
 777 01af 07       		.uleb128 0x7
 778 01b0 89040000 		.4byte	.LASF53
 779 01b4 19       		.sleb128 25
 780 01b5 07       		.uleb128 0x7
 781 01b6 22060000 		.4byte	.LASF54
 782 01ba 1A       		.sleb128 26
 783 01bb 07       		.uleb128 0x7
 784 01bc 06040000 		.4byte	.LASF55
 785 01c0 1B       		.sleb128 27
 786 01c1 07       		.uleb128 0x7
 787 01c2 99080000 		.4byte	.LASF56
ARM GAS  /tmp/ccfQAElU.s 			page 15


 788 01c6 1C       		.sleb128 28
 789 01c7 07       		.uleb128 0x7
 790 01c8 C9090000 		.4byte	.LASF57
 791 01cc 1D       		.sleb128 29
 792 01cd 07       		.uleb128 0x7
 793 01ce D8000000 		.4byte	.LASF58
 794 01d2 1E       		.sleb128 30
 795 01d3 07       		.uleb128 0x7
 796 01d4 61000000 		.4byte	.LASF59
 797 01d8 1F       		.sleb128 31
 798 01d9 07       		.uleb128 0x7
 799 01da 45090000 		.4byte	.LASF60
 800 01de 20       		.sleb128 32
 801 01df 07       		.uleb128 0x7
 802 01e0 7A080000 		.4byte	.LASF61
 803 01e4 21       		.sleb128 33
 804 01e5 07       		.uleb128 0x7
 805 01e6 CB000000 		.4byte	.LASF62
 806 01ea 22       		.sleb128 34
 807 01eb 07       		.uleb128 0x7
 808 01ec B2030000 		.4byte	.LASF63
 809 01f0 23       		.sleb128 35
 810 01f1 07       		.uleb128 0x7
 811 01f2 E1040000 		.4byte	.LASF64
 812 01f6 24       		.sleb128 36
 813 01f7 07       		.uleb128 0x7
 814 01f8 B8080000 		.4byte	.LASF65
 815 01fc 25       		.sleb128 37
 816 01fd 07       		.uleb128 0x7
 817 01fe 9D060000 		.4byte	.LASF66
 818 0202 26       		.sleb128 38
 819 0203 07       		.uleb128 0x7
 820 0204 87080000 		.4byte	.LASF67
 821 0208 27       		.sleb128 39
 822 0209 07       		.uleb128 0x7
 823 020a A3030000 		.4byte	.LASF68
 824 020e 28       		.sleb128 40
 825 020f 07       		.uleb128 0x7
 826 0210 BC000000 		.4byte	.LASF69
 827 0214 29       		.sleb128 41
 828 0215 07       		.uleb128 0x7
 829 0216 15020000 		.4byte	.LASF70
 830 021a 2A       		.sleb128 42
 831 021b 07       		.uleb128 0x7
 832 021c E0030000 		.4byte	.LASF71
 833 0220 2B       		.sleb128 43
 834 0221 07       		.uleb128 0x7
 835 0222 32020000 		.4byte	.LASF72
 836 0226 2C       		.sleb128 44
 837 0227 07       		.uleb128 0x7
 838 0228 13040000 		.4byte	.LASF73
 839 022c 2D       		.sleb128 45
 840 022d 07       		.uleb128 0x7
 841 022e A5020000 		.4byte	.LASF74
 842 0232 2E       		.sleb128 46
 843 0233 07       		.uleb128 0x7
 844 0234 D5060000 		.4byte	.LASF75
ARM GAS  /tmp/ccfQAElU.s 			page 16


 845 0238 2F       		.sleb128 47
 846 0239 07       		.uleb128 0x7
 847 023a A4050000 		.4byte	.LASF76
 848 023e 30       		.sleb128 48
 849 023f 07       		.uleb128 0x7
 850 0240 4F030000 		.4byte	.LASF77
 851 0244 31       		.sleb128 49
 852 0245 07       		.uleb128 0x7
 853 0246 CC040000 		.4byte	.LASF78
 854 024a 32       		.sleb128 50
 855 024b 07       		.uleb128 0x7
 856 024c 88050000 		.4byte	.LASF79
 857 0250 33       		.sleb128 51
 858 0251 07       		.uleb128 0x7
 859 0252 0A020000 		.4byte	.LASF80
 860 0256 34       		.sleb128 52
 861 0257 07       		.uleb128 0x7
 862 0258 17060000 		.4byte	.LASF81
 863 025c 35       		.sleb128 53
 864 025d 07       		.uleb128 0x7
 865 025e F4010000 		.4byte	.LASF82
 866 0262 36       		.sleb128 54
 867 0263 07       		.uleb128 0x7
 868 0264 D8070000 		.4byte	.LASF83
 869 0268 37       		.sleb128 55
 870 0269 07       		.uleb128 0x7
 871 026a 68080000 		.4byte	.LASF84
 872 026e 38       		.sleb128 56
 873 026f 07       		.uleb128 0x7
 874 0270 68090000 		.4byte	.LASF85
 875 0274 39       		.sleb128 57
 876 0275 07       		.uleb128 0x7
 877 0276 70030000 		.4byte	.LASF86
 878 027a 3A       		.sleb128 58
 879 027b 07       		.uleb128 0x7
 880 027c 9C040000 		.4byte	.LASF87
 881 0280 3B       		.sleb128 59
 882 0281 07       		.uleb128 0x7
 883 0282 92050000 		.4byte	.LASF88
 884 0286 3C       		.sleb128 60
 885 0287 07       		.uleb128 0x7
 886 0288 80040000 		.4byte	.LASF89
 887 028c 3D       		.sleb128 61
 888 028d 07       		.uleb128 0x7
 889 028e DD010000 		.4byte	.LASF90
 890 0292 3E       		.sleb128 62
 891 0293 07       		.uleb128 0x7
 892 0294 FD040000 		.4byte	.LASF91
 893 0298 3F       		.sleb128 63
 894 0299 07       		.uleb128 0x7
 895 029a 2E000000 		.4byte	.LASF92
 896 029e C000     		.sleb128 64
 897 02a0 07       		.uleb128 0x7
 898 02a1 49010000 		.4byte	.LASF93
 899 02a5 C100     		.sleb128 65
 900 02a7 07       		.uleb128 0x7
 901 02a8 A1090000 		.4byte	.LASF94
ARM GAS  /tmp/ccfQAElU.s 			page 17


 902 02ac C200     		.sleb128 66
 903 02ae 07       		.uleb128 0x7
 904 02af 88060000 		.4byte	.LASF95
 905 02b3 C300     		.sleb128 67
 906 02b5 07       		.uleb128 0x7
 907 02b6 78000000 		.4byte	.LASF96
 908 02ba C400     		.sleb128 68
 909 02bc 07       		.uleb128 0x7
 910 02bd 6A010000 		.4byte	.LASF97
 911 02c1 C500     		.sleb128 69
 912 02c3 07       		.uleb128 0x7
 913 02c4 B2020000 		.4byte	.LASF98
 914 02c8 C600     		.sleb128 70
 915 02ca 07       		.uleb128 0x7
 916 02cb C0040000 		.4byte	.LASF99
 917 02cf C700     		.sleb128 71
 918 02d1 07       		.uleb128 0x7
 919 02d2 10030000 		.4byte	.LASF100
 920 02d6 C800     		.sleb128 72
 921 02d8 07       		.uleb128 0x7
 922 02d9 54000000 		.4byte	.LASF101
 923 02dd C900     		.sleb128 73
 924 02df 07       		.uleb128 0x7
 925 02e0 3B030000 		.4byte	.LASF102
 926 02e4 CA00     		.sleb128 74
 927 02e6 07       		.uleb128 0x7
 928 02e7 F4070000 		.4byte	.LASF103
 929 02eb CB00     		.sleb128 75
 930 02ed 07       		.uleb128 0x7
 931 02ee B8090000 		.4byte	.LASF104
 932 02f2 CC00     		.sleb128 76
 933 02f4 07       		.uleb128 0x7
 934 02f5 1D050000 		.4byte	.LASF105
 935 02f9 CD00     		.sleb128 77
 936 02fb 07       		.uleb128 0x7
 937 02fc EE080000 		.4byte	.LASF106
 938 0300 CE00     		.sleb128 78
 939 0302 07       		.uleb128 0x7
 940 0303 B9070000 		.4byte	.LASF107
 941 0307 CF00     		.sleb128 79
 942 0309 07       		.uleb128 0x7
 943 030a F5050000 		.4byte	.LASF108
 944 030e D000     		.sleb128 80
 945 0310 07       		.uleb128 0x7
 946 0311 19090000 		.4byte	.LASF109
 947 0315 D100     		.sleb128 81
 948 0317 00       		.byte	0
 949 0318 08       		.uleb128 0x8
 950 0319 B8000000 		.4byte	0xb8
 951 031d 28030000 		.4byte	0x328
 952 0321 09       		.uleb128 0x9
 953 0322 CF000000 		.4byte	0xcf
 954 0326 01       		.byte	0x1
 955 0327 00       		.byte	0
 956 0328 08       		.uleb128 0x8
 957 0329 B8000000 		.4byte	0xb8
 958 032d 38030000 		.4byte	0x338
ARM GAS  /tmp/ccfQAElU.s 			page 18


 959 0331 09       		.uleb128 0x9
 960 0332 CF000000 		.4byte	0xcf
 961 0336 03       		.byte	0x3
 962 0337 00       		.byte	0
 963 0338 05       		.uleb128 0x5
 964 0339 AD000000 		.4byte	0xad
 965 033d 0A       		.uleb128 0xa
 966 033e 90       		.byte	0x90
 967 033f 04       		.byte	0x4
 968 0340 5804     		.2byte	0x458
 969 0342 E6040000 		.4byte	0x4e6
 970 0346 0B       		.uleb128 0xb
 971 0347 435200   		.ascii	"CR\000"
 972 034a 04       		.byte	0x4
 973 034b 5A04     		.2byte	0x45a
 974 034d CA000000 		.4byte	0xca
 975 0351 00       		.byte	0
 976 0352 0C       		.uleb128 0xc
 977 0353 02020000 		.4byte	.LASF110
 978 0357 04       		.byte	0x4
 979 0358 5B04     		.2byte	0x45b
 980 035a CA000000 		.4byte	0xca
 981 035e 04       		.byte	0x4
 982 035f 0C       		.uleb128 0xc
 983 0360 22090000 		.4byte	.LASF111
 984 0364 04       		.byte	0x4
 985 0365 5C04     		.2byte	0x45c
 986 0367 CA000000 		.4byte	0xca
 987 036b 08       		.byte	0x8
 988 036c 0B       		.uleb128 0xb
 989 036d 43495200 		.ascii	"CIR\000"
 990 0371 04       		.byte	0x4
 991 0372 5D04     		.2byte	0x45d
 992 0374 CA000000 		.4byte	0xca
 993 0378 0C       		.byte	0xc
 994 0379 0C       		.uleb128 0xc
 995 037a 57010000 		.4byte	.LASF112
 996 037e 04       		.byte	0x4
 997 037f 5E04     		.2byte	0x45e
 998 0381 CA000000 		.4byte	0xca
 999 0385 10       		.byte	0x10
 1000 0386 0C       		.uleb128 0xc
 1001 0387 CF070000 		.4byte	.LASF113
 1002 038b 04       		.byte	0x4
 1003 038c 5F04     		.2byte	0x45f
 1004 038e CA000000 		.4byte	0xca
 1005 0392 14       		.byte	0x14
 1006 0393 0C       		.uleb128 0xc
 1007 0394 9A030000 		.4byte	.LASF114
 1008 0398 04       		.byte	0x4
 1009 0399 6004     		.2byte	0x460
 1010 039b CA000000 		.4byte	0xca
 1011 039f 18       		.byte	0x18
 1012 03a0 0C       		.uleb128 0xc
 1013 03a1 42050000 		.4byte	.LASF115
 1014 03a5 04       		.byte	0x4
 1015 03a6 6104     		.2byte	0x461
ARM GAS  /tmp/ccfQAElU.s 			page 19


 1016 03a8 B8000000 		.4byte	0xb8
 1017 03ac 1C       		.byte	0x1c
 1018 03ad 0C       		.uleb128 0xc
 1019 03ae 14050000 		.4byte	.LASF116
 1020 03b2 04       		.byte	0x4
 1021 03b3 6204     		.2byte	0x462
 1022 03b5 CA000000 		.4byte	0xca
 1023 03b9 20       		.byte	0x20
 1024 03ba 0C       		.uleb128 0xc
 1025 03bb A2010000 		.4byte	.LASF117
 1026 03bf 04       		.byte	0x4
 1027 03c0 6304     		.2byte	0x463
 1028 03c2 CA000000 		.4byte	0xca
 1029 03c6 24       		.byte	0x24
 1030 03c7 0C       		.uleb128 0xc
 1031 03c8 4C050000 		.4byte	.LASF118
 1032 03cc 04       		.byte	0x4
 1033 03cd 6404     		.2byte	0x464
 1034 03cf 18030000 		.4byte	0x318
 1035 03d3 28       		.byte	0x28
 1036 03d4 0C       		.uleb128 0xc
 1037 03d5 0C090000 		.4byte	.LASF119
 1038 03d9 04       		.byte	0x4
 1039 03da 6504     		.2byte	0x465
 1040 03dc CA000000 		.4byte	0xca
 1041 03e0 30       		.byte	0x30
 1042 03e1 0C       		.uleb128 0xc
 1043 03e2 2D080000 		.4byte	.LASF120
 1044 03e6 04       		.byte	0x4
 1045 03e7 6604     		.2byte	0x466
 1046 03e9 CA000000 		.4byte	0xca
 1047 03ed 34       		.byte	0x34
 1048 03ee 0C       		.uleb128 0xc
 1049 03ef 68060000 		.4byte	.LASF121
 1050 03f3 04       		.byte	0x4
 1051 03f4 6704     		.2byte	0x467
 1052 03f6 CA000000 		.4byte	0xca
 1053 03fa 38       		.byte	0x38
 1054 03fb 0C       		.uleb128 0xc
 1055 03fc 56050000 		.4byte	.LASF122
 1056 0400 04       		.byte	0x4
 1057 0401 6804     		.2byte	0x468
 1058 0403 B8000000 		.4byte	0xb8
 1059 0407 3C       		.byte	0x3c
 1060 0408 0C       		.uleb128 0xc
 1061 0409 25080000 		.4byte	.LASF123
 1062 040d 04       		.byte	0x4
 1063 040e 6904     		.2byte	0x469
 1064 0410 CA000000 		.4byte	0xca
 1065 0414 40       		.byte	0x40
 1066 0415 0C       		.uleb128 0xc
 1067 0416 58060000 		.4byte	.LASF124
 1068 041a 04       		.byte	0x4
 1069 041b 6A04     		.2byte	0x46a
 1070 041d CA000000 		.4byte	0xca
 1071 0421 44       		.byte	0x44
 1072 0422 0C       		.uleb128 0xc
ARM GAS  /tmp/ccfQAElU.s 			page 20


 1073 0423 60050000 		.4byte	.LASF125
 1074 0427 04       		.byte	0x4
 1075 0428 6B04     		.2byte	0x46b
 1076 042a 18030000 		.4byte	0x318
 1077 042e 48       		.byte	0x48
 1078 042f 0C       		.uleb128 0xc
 1079 0430 04010000 		.4byte	.LASF126
 1080 0434 04       		.byte	0x4
 1081 0435 6C04     		.2byte	0x46c
 1082 0437 CA000000 		.4byte	0xca
 1083 043b 50       		.byte	0x50
 1084 043c 0C       		.uleb128 0xc
 1085 043d 0A050000 		.4byte	.LASF127
 1086 0441 04       		.byte	0x4
 1087 0442 6D04     		.2byte	0x46d
 1088 0444 CA000000 		.4byte	0xca
 1089 0448 54       		.byte	0x54
 1090 0449 0C       		.uleb128 0xc
 1091 044a 0D060000 		.4byte	.LASF128
 1092 044e 04       		.byte	0x4
 1093 044f 6E04     		.2byte	0x46e
 1094 0451 CA000000 		.4byte	0xca
 1095 0455 58       		.byte	0x58
 1096 0456 0C       		.uleb128 0xc
 1097 0457 6A050000 		.4byte	.LASF129
 1098 045b 04       		.byte	0x4
 1099 045c 6F04     		.2byte	0x46f
 1100 045e B8000000 		.4byte	0xb8
 1101 0462 5C       		.byte	0x5c
 1102 0463 0C       		.uleb128 0xc
 1103 0464 0D000000 		.4byte	.LASF130
 1104 0468 04       		.byte	0x4
 1105 0469 7004     		.2byte	0x470
 1106 046b CA000000 		.4byte	0xca
 1107 046f 60       		.byte	0x60
 1108 0470 0C       		.uleb128 0xc
 1109 0471 D1030000 		.4byte	.LASF131
 1110 0475 04       		.byte	0x4
 1111 0476 7104     		.2byte	0x471
 1112 0478 CA000000 		.4byte	0xca
 1113 047c 64       		.byte	0x64
 1114 047d 0C       		.uleb128 0xc
 1115 047e 74050000 		.4byte	.LASF132
 1116 0482 04       		.byte	0x4
 1117 0483 7204     		.2byte	0x472
 1118 0485 18030000 		.4byte	0x318
 1119 0489 68       		.byte	0x68
 1120 048a 0C       		.uleb128 0xc
 1121 048b C4080000 		.4byte	.LASF133
 1122 048f 04       		.byte	0x4
 1123 0490 7304     		.2byte	0x473
 1124 0492 CA000000 		.4byte	0xca
 1125 0496 70       		.byte	0x70
 1126 0497 0B       		.uleb128 0xb
 1127 0498 43535200 		.ascii	"CSR\000"
 1128 049c 04       		.byte	0x4
 1129 049d 7404     		.2byte	0x474
ARM GAS  /tmp/ccfQAElU.s 			page 21


 1130 049f CA000000 		.4byte	0xca
 1131 04a3 74       		.byte	0x74
 1132 04a4 0C       		.uleb128 0xc
 1133 04a5 7E050000 		.4byte	.LASF134
 1134 04a9 04       		.byte	0x4
 1135 04aa 7504     		.2byte	0x475
 1136 04ac 18030000 		.4byte	0x318
 1137 04b0 78       		.byte	0x78
 1138 04b1 0C       		.uleb128 0xc
 1139 04b2 93080000 		.4byte	.LASF135
 1140 04b6 04       		.byte	0x4
 1141 04b7 7604     		.2byte	0x476
 1142 04b9 CA000000 		.4byte	0xca
 1143 04bd 80       		.byte	0x80
 1144 04be 0C       		.uleb128 0xc
 1145 04bf 82030000 		.4byte	.LASF136
 1146 04c3 04       		.byte	0x4
 1147 04c4 7704     		.2byte	0x477
 1148 04c6 CA000000 		.4byte	0xca
 1149 04ca 84       		.byte	0x84
 1150 04cb 0C       		.uleb128 0xc
 1151 04cc 29050000 		.4byte	.LASF137
 1152 04d0 04       		.byte	0x4
 1153 04d1 7804     		.2byte	0x478
 1154 04d3 CA000000 		.4byte	0xca
 1155 04d7 88       		.byte	0x88
 1156 04d8 0C       		.uleb128 0xc
 1157 04d9 2F010000 		.4byte	.LASF138
 1158 04dd 04       		.byte	0x4
 1159 04de 7904     		.2byte	0x479
 1160 04e0 CA000000 		.4byte	0xca
 1161 04e4 8C       		.byte	0x8c
 1162 04e5 00       		.byte	0
 1163 04e6 0D       		.uleb128 0xd
 1164 04e7 2F030000 		.4byte	.LASF139
 1165 04eb 04       		.byte	0x4
 1166 04ec 7B04     		.2byte	0x47b
 1167 04ee 3D030000 		.4byte	0x33d
 1168 04f2 0E       		.uleb128 0xe
 1169 04f3 01       		.byte	0x1
 1170 04f4 05       		.byte	0x5
 1171 04f5 55       		.byte	0x55
 1172 04f6 0D050000 		.4byte	0x50d
 1173 04fa 07       		.uleb128 0x7
 1174 04fb 7A090000 		.4byte	.LASF140
 1175 04ff 00       		.sleb128 0
 1176 0500 07       		.uleb128 0x7
 1177 0501 FE060000 		.4byte	.LASF141
 1178 0505 01       		.sleb128 1
 1179 0506 07       		.uleb128 0x7
 1180 0507 0E010000 		.4byte	.LASF142
 1181 050b 02       		.sleb128 2
 1182 050c 00       		.byte	0
 1183 050d 04       		.uleb128 0x4
 1184 050e F8080000 		.4byte	.LASF143
 1185 0512 05       		.byte	0x5
 1186 0513 59       		.byte	0x59
ARM GAS  /tmp/ccfQAElU.s 			page 22


 1187 0514 F2040000 		.4byte	0x4f2
 1188 0518 04       		.uleb128 0x4
 1189 0519 E4080000 		.4byte	.LASF144
 1190 051d 05       		.byte	0x5
 1191 051e 5E       		.byte	0x5e
 1192 051f 23050000 		.4byte	0x523
 1193 0523 0F       		.uleb128 0xf
 1194 0524 E4080000 		.4byte	.LASF144
 1195 0528 14       		.byte	0x14
 1196 0529 06       		.byte	0x6
 1197 052a 6F01     		.2byte	0x16f
 1198 052c 72050000 		.4byte	0x572
 1199 0530 0C       		.uleb128 0xc
 1200 0531 7C010000 		.4byte	.LASF145
 1201 0535 06       		.byte	0x6
 1202 0536 7301     		.2byte	0x173
 1203 0538 0D050000 		.4byte	0x50d
 1204 053c 00       		.byte	0
 1205 053d 0C       		.uleb128 0xc
 1206 053e C3070000 		.4byte	.LASF146
 1207 0542 06       		.byte	0x6
 1208 0543 7701     		.2byte	0x177
 1209 0545 86070000 		.4byte	0x786
 1210 0549 04       		.byte	0x4
 1211 054a 0C       		.uleb128 0xc
 1212 054b 90000000 		.4byte	.LASF147
 1213 054f 06       		.byte	0x6
 1214 0550 7B01     		.2byte	0x17b
 1215 0552 D6060000 		.4byte	0x6d6
 1216 0556 08       		.byte	0x8
 1217 0557 0C       		.uleb128 0xc
 1218 0558 3F090000 		.4byte	.LASF148
 1219 055c 06       		.byte	0x6
 1220 055d 8301     		.2byte	0x183
 1221 055f B8000000 		.4byte	0xb8
 1222 0563 0C       		.byte	0xc
 1223 0564 0B       		.uleb128 0xb
 1224 0565 74696D00 		.ascii	"tim\000"
 1225 0569 06       		.byte	0x6
 1226 056a 8701     		.2byte	0x187
 1227 056c 91070000 		.4byte	0x791
 1228 0570 10       		.byte	0x10
 1229 0571 00       		.byte	0
 1230 0572 04       		.uleb128 0x4
 1231 0573 34050000 		.4byte	.LASF149
 1232 0577 05       		.byte	0x5
 1233 0578 65       		.byte	0x65
 1234 0579 7D050000 		.4byte	0x57d
 1235 057d 10       		.uleb128 0x10
 1236 057e 04       		.byte	0x4
 1237 057f 83050000 		.4byte	0x583
 1238 0583 11       		.uleb128 0x11
 1239 0584 8E050000 		.4byte	0x58e
 1240 0588 12       		.uleb128 0x12
 1241 0589 8E050000 		.4byte	0x58e
 1242 058d 00       		.byte	0
 1243 058e 10       		.uleb128 0x10
ARM GAS  /tmp/ccfQAElU.s 			page 23


 1244 058f 04       		.byte	0x4
 1245 0590 18050000 		.4byte	0x518
 1246 0594 0A       		.uleb128 0xa
 1247 0595 60       		.byte	0x60
 1248 0596 07       		.byte	0x7
 1249 0597 9E01     		.2byte	0x19e
 1250 0599 AD060000 		.4byte	0x6ad
 1251 059d 0B       		.uleb128 0xb
 1252 059e 43523100 		.ascii	"CR1\000"
 1253 05a2 07       		.byte	0x7
 1254 05a3 9F01     		.2byte	0x19f
 1255 05a5 CA000000 		.4byte	0xca
 1256 05a9 00       		.byte	0
 1257 05aa 0B       		.uleb128 0xb
 1258 05ab 43523200 		.ascii	"CR2\000"
 1259 05af 07       		.byte	0x7
 1260 05b0 A001     		.2byte	0x1a0
 1261 05b2 CA000000 		.4byte	0xca
 1262 05b6 04       		.byte	0x4
 1263 05b7 0C       		.uleb128 0xc
 1264 05b8 6B030000 		.4byte	.LASF150
 1265 05bc 07       		.byte	0x7
 1266 05bd A101     		.2byte	0x1a1
 1267 05bf CA000000 		.4byte	0xca
 1268 05c3 08       		.byte	0x8
 1269 05c4 0C       		.uleb128 0xc
 1270 05c5 14090000 		.4byte	.LASF151
 1271 05c9 07       		.byte	0x7
 1272 05ca A201     		.2byte	0x1a2
 1273 05cc CA000000 		.4byte	0xca
 1274 05d0 0C       		.byte	0xc
 1275 05d1 0B       		.uleb128 0xb
 1276 05d2 535200   		.ascii	"SR\000"
 1277 05d5 07       		.byte	0x7
 1278 05d6 A301     		.2byte	0x1a3
 1279 05d8 CA000000 		.4byte	0xca
 1280 05dc 10       		.byte	0x10
 1281 05dd 0B       		.uleb128 0xb
 1282 05de 45475200 		.ascii	"EGR\000"
 1283 05e2 07       		.byte	0x7
 1284 05e3 A401     		.2byte	0x1a4
 1285 05e5 CA000000 		.4byte	0xca
 1286 05e9 14       		.byte	0x14
 1287 05ea 0C       		.uleb128 0xc
 1288 05eb 29010000 		.4byte	.LASF152
 1289 05ef 07       		.byte	0x7
 1290 05f0 A501     		.2byte	0x1a5
 1291 05f2 CA000000 		.4byte	0xca
 1292 05f6 18       		.byte	0x18
 1293 05f7 0C       		.uleb128 0xc
 1294 05f8 8A000000 		.4byte	.LASF153
 1295 05fc 07       		.byte	0x7
 1296 05fd A601     		.2byte	0x1a6
 1297 05ff CA000000 		.4byte	0xca
 1298 0603 1C       		.byte	0x1c
 1299 0604 0C       		.uleb128 0xc
 1300 0605 CA010000 		.4byte	.LASF154
ARM GAS  /tmp/ccfQAElU.s 			page 24


 1301 0609 07       		.byte	0x7
 1302 060a A701     		.2byte	0x1a7
 1303 060c CA000000 		.4byte	0xca
 1304 0610 20       		.byte	0x20
 1305 0611 0B       		.uleb128 0xb
 1306 0612 434E5400 		.ascii	"CNT\000"
 1307 0616 07       		.byte	0x7
 1308 0617 A801     		.2byte	0x1a8
 1309 0619 CA000000 		.4byte	0xca
 1310 061d 24       		.byte	0x24
 1311 061e 0B       		.uleb128 0xb
 1312 061f 50534300 		.ascii	"PSC\000"
 1313 0623 07       		.byte	0x7
 1314 0624 A901     		.2byte	0x1a9
 1315 0626 CA000000 		.4byte	0xca
 1316 062a 28       		.byte	0x28
 1317 062b 0B       		.uleb128 0xb
 1318 062c 41525200 		.ascii	"ARR\000"
 1319 0630 07       		.byte	0x7
 1320 0631 AA01     		.2byte	0x1aa
 1321 0633 CA000000 		.4byte	0xca
 1322 0637 2C       		.byte	0x2c
 1323 0638 0B       		.uleb128 0xb
 1324 0639 52435200 		.ascii	"RCR\000"
 1325 063d 07       		.byte	0x7
 1326 063e AB01     		.2byte	0x1ab
 1327 0640 CA000000 		.4byte	0xca
 1328 0644 30       		.byte	0x30
 1329 0645 0B       		.uleb128 0xb
 1330 0646 43435200 		.ascii	"CCR\000"
 1331 064a 07       		.byte	0x7
 1332 064b AC01     		.2byte	0x1ac
 1333 064d AD060000 		.4byte	0x6ad
 1334 0651 34       		.byte	0x34
 1335 0652 0C       		.uleb128 0xc
 1336 0653 C4020000 		.4byte	.LASF155
 1337 0657 07       		.byte	0x7
 1338 0658 AD01     		.2byte	0x1ad
 1339 065a CA000000 		.4byte	0xca
 1340 065e 44       		.byte	0x44
 1341 065f 0B       		.uleb128 0xb
 1342 0660 44435200 		.ascii	"DCR\000"
 1343 0664 07       		.byte	0x7
 1344 0665 AE01     		.2byte	0x1ae
 1345 0667 CA000000 		.4byte	0xca
 1346 066b 48       		.byte	0x48
 1347 066c 0C       		.uleb128 0xc
 1348 066d CA070000 		.4byte	.LASF156
 1349 0671 07       		.byte	0x7
 1350 0672 AF01     		.2byte	0x1af
 1351 0674 CA000000 		.4byte	0xca
 1352 0678 4C       		.byte	0x4c
 1353 0679 0B       		.uleb128 0xb
 1354 067a 4F5200   		.ascii	"OR\000"
 1355 067d 07       		.byte	0x7
 1356 067e B001     		.2byte	0x1b0
 1357 0680 CA000000 		.4byte	0xca
ARM GAS  /tmp/ccfQAElU.s 			page 25


 1358 0684 50       		.byte	0x50
 1359 0685 0C       		.uleb128 0xc
 1360 0686 37010000 		.4byte	.LASF157
 1361 068a 07       		.byte	0x7
 1362 068b B101     		.2byte	0x1b1
 1363 068d CA000000 		.4byte	0xca
 1364 0691 54       		.byte	0x54
 1365 0692 0C       		.uleb128 0xc
 1366 0693 AE080000 		.4byte	.LASF158
 1367 0697 07       		.byte	0x7
 1368 0698 B201     		.2byte	0x1b2
 1369 069a CA000000 		.4byte	0xca
 1370 069e 58       		.byte	0x58
 1371 069f 0C       		.uleb128 0xc
 1372 06a0 B3080000 		.4byte	.LASF159
 1373 06a4 07       		.byte	0x7
 1374 06a5 B301     		.2byte	0x1b3
 1375 06a7 CA000000 		.4byte	0xca
 1376 06ab 5C       		.byte	0x5c
 1377 06ac 00       		.byte	0
 1378 06ad 05       		.uleb128 0x5
 1379 06ae 28030000 		.4byte	0x328
 1380 06b2 0D       		.uleb128 0xd
 1381 06b3 C5030000 		.4byte	.LASF160
 1382 06b7 07       		.byte	0x7
 1383 06b8 B401     		.2byte	0x1b4
 1384 06ba 94050000 		.4byte	0x594
 1385 06be 0D       		.uleb128 0xd
 1386 06bf 60010000 		.4byte	.LASF161
 1387 06c3 06       		.byte	0x6
 1388 06c4 2001     		.2byte	0x120
 1389 06c6 B8000000 		.4byte	0xb8
 1390 06ca 0D       		.uleb128 0xd
 1391 06cb 00000000 		.4byte	.LASF162
 1392 06cf 06       		.byte	0x6
 1393 06d0 2501     		.2byte	0x125
 1394 06d2 97000000 		.4byte	0x97
 1395 06d6 0D       		.uleb128 0xd
 1396 06d7 03090000 		.4byte	.LASF163
 1397 06db 06       		.byte	0x6
 1398 06dc 2A01     		.2byte	0x12a
 1399 06de A2000000 		.4byte	0xa2
 1400 06e2 0A       		.uleb128 0xa
 1401 06e3 08       		.byte	0x8
 1402 06e4 06       		.byte	0x6
 1403 06e5 2F01     		.2byte	0x12f
 1404 06e7 06070000 		.4byte	0x706
 1405 06eb 0C       		.uleb128 0xc
 1406 06ec B4070000 		.4byte	.LASF164
 1407 06f0 06       		.byte	0x6
 1408 06f1 3301     		.2byte	0x133
 1409 06f3 BE060000 		.4byte	0x6be
 1410 06f7 00       		.byte	0
 1411 06f8 0C       		.uleb128 0xc
 1412 06f9 BC030000 		.4byte	.LASF165
 1413 06fd 06       		.byte	0x6
 1414 06fe 3901     		.2byte	0x139
ARM GAS  /tmp/ccfQAElU.s 			page 26


 1415 0700 72050000 		.4byte	0x572
 1416 0704 04       		.byte	0x4
 1417 0705 00       		.byte	0
 1418 0706 0D       		.uleb128 0xd
 1419 0707 45080000 		.4byte	.LASF166
 1420 070b 06       		.byte	0x6
 1421 070c 3B01     		.2byte	0x13b
 1422 070e E2060000 		.4byte	0x6e2
 1423 0712 0A       		.uleb128 0xa
 1424 0713 34       		.byte	0x34
 1425 0714 06       		.byte	0x6
 1426 0715 4001     		.2byte	0x140
 1427 0717 6A070000 		.4byte	0x76a
 1428 071b 0C       		.uleb128 0xc
 1429 071c FA000000 		.4byte	.LASF167
 1430 0720 06       		.byte	0x6
 1431 0721 4601     		.2byte	0x146
 1432 0723 B8000000 		.4byte	0xb8
 1433 0727 00       		.byte	0
 1434 0728 0C       		.uleb128 0xc
 1435 0729 90000000 		.4byte	.LASF147
 1436 072d 06       		.byte	0x6
 1437 072e 4C01     		.2byte	0x14c
 1438 0730 D6060000 		.4byte	0x6d6
 1439 0734 04       		.byte	0x4
 1440 0735 0C       		.uleb128 0xc
 1441 0736 BC030000 		.4byte	.LASF165
 1442 073a 06       		.byte	0x6
 1443 073b 5201     		.2byte	0x152
 1444 073d 72050000 		.4byte	0x572
 1445 0741 08       		.byte	0x8
 1446 0742 0C       		.uleb128 0xc
 1447 0743 82010000 		.4byte	.LASF168
 1448 0747 06       		.byte	0x6
 1449 0748 5601     		.2byte	0x156
 1450 074a 6A070000 		.4byte	0x76a
 1451 074e 0C       		.byte	0xc
 1452 074f 0B       		.uleb128 0xb
 1453 0750 63723200 		.ascii	"cr2\000"
 1454 0754 06       		.byte	0x6
 1455 0755 5C01     		.2byte	0x15c
 1456 0757 B8000000 		.4byte	0xb8
 1457 075b 2C       		.byte	0x2c
 1458 075c 0C       		.uleb128 0xc
 1459 075d DE090000 		.4byte	.LASF169
 1460 0761 06       		.byte	0x6
 1461 0762 6901     		.2byte	0x169
 1462 0764 B8000000 		.4byte	0xb8
 1463 0768 30       		.byte	0x30
 1464 0769 00       		.byte	0
 1465 076a 08       		.uleb128 0x8
 1466 076b 06070000 		.4byte	0x706
 1467 076f 7A070000 		.4byte	0x77a
 1468 0773 09       		.uleb128 0x9
 1469 0774 CF000000 		.4byte	0xcf
 1470 0778 03       		.byte	0x3
 1471 0779 00       		.byte	0
ARM GAS  /tmp/ccfQAElU.s 			page 27


 1472 077a 0D       		.uleb128 0xd
 1473 077b B9060000 		.4byte	.LASF170
 1474 077f 06       		.byte	0x6
 1475 0780 6A01     		.2byte	0x16a
 1476 0782 12070000 		.4byte	0x712
 1477 0786 10       		.uleb128 0x10
 1478 0787 04       		.byte	0x4
 1479 0788 8C070000 		.4byte	0x78c
 1480 078c 13       		.uleb128 0x13
 1481 078d 7A070000 		.4byte	0x77a
 1482 0791 10       		.uleb128 0x10
 1483 0792 04       		.byte	0x4
 1484 0793 B2060000 		.4byte	0x6b2
 1485 0797 14       		.uleb128 0x14
 1486 0798 3C000000 		.4byte	.LASF189
 1487 079c 01       		.byte	0x1
 1488 079d 70       		.byte	0x70
 1489 079e 01       		.byte	0x1
 1490 079f B9070000 		.4byte	0x7b9
 1491 07a3 15       		.uleb128 0x15
 1492 07a4 F4030000 		.4byte	.LASF176
 1493 07a8 01       		.byte	0x1
 1494 07a9 70       		.byte	0x70
 1495 07aa 8E050000 		.4byte	0x58e
 1496 07ae 16       		.uleb128 0x16
 1497 07af 737200   		.ascii	"sr\000"
 1498 07b2 01       		.byte	0x1
 1499 07b3 71       		.byte	0x71
 1500 07b4 A2000000 		.4byte	0xa2
 1501 07b8 00       		.byte	0
 1502 07b9 17       		.uleb128 0x17
 1503 07ba 83020000 		.4byte	.LASF171
 1504 07be 01       		.byte	0x1
 1505 07bf EB       		.byte	0xeb
 1506 07c0 00000000 		.4byte	.LFB119
 1507 07c4 7E000000 		.4byte	.LFE119-.LFB119
 1508 07c8 01       		.uleb128 0x1
 1509 07c9 9C       		.byte	0x9c
 1510 07ca 5F080000 		.4byte	0x85f
 1511 07ce 18       		.uleb128 0x18
 1512 07cf 97070000 		.4byte	0x797
 1513 07d3 02000000 		.4byte	.LBB4
 1514 07d7 00000000 		.4byte	.Ldebug_ranges0+0
 1515 07db 01       		.byte	0x1
 1516 07dc EF       		.byte	0xef
 1517 07dd 55080000 		.4byte	0x855
 1518 07e1 19       		.uleb128 0x19
 1519 07e2 A3070000 		.4byte	0x7a3
 1520 07e6 06       		.uleb128 0x6
 1521 07e7 03       		.byte	0x3
 1522 07e8 00000000 		.4byte	PWMD4
 1523 07ec 9F       		.byte	0x9f
 1524 07ed 1A       		.uleb128 0x1a
 1525 07ee 00000000 		.4byte	.Ldebug_ranges0+0
 1526 07f2 1B       		.uleb128 0x1b
 1527 07f3 AE070000 		.4byte	0x7ae
 1528 07f7 00000000 		.4byte	.LLST0
ARM GAS  /tmp/ccfQAElU.s 			page 28


 1529 07fb 1C       		.uleb128 0x1c
 1530 07fc 3C000000 		.4byte	.LVL3
 1531 0800 0E080000 		.4byte	0x80e
 1532 0804 1D       		.uleb128 0x1d
 1533 0805 01       		.uleb128 0x1
 1534 0806 50       		.byte	0x50
 1535 0807 05       		.uleb128 0x5
 1536 0808 03       		.byte	0x3
 1537 0809 00000000 		.4byte	.LANCHOR0
 1538 080d 00       		.byte	0
 1539 080e 1C       		.uleb128 0x1c
 1540 080f 52000000 		.4byte	.LVL6
 1541 0813 21080000 		.4byte	0x821
 1542 0817 1D       		.uleb128 0x1d
 1543 0818 01       		.uleb128 0x1
 1544 0819 50       		.byte	0x50
 1545 081a 05       		.uleb128 0x5
 1546 081b 03       		.byte	0x3
 1547 081c 00000000 		.4byte	.LANCHOR0
 1548 0820 00       		.byte	0
 1549 0821 1C       		.uleb128 0x1c
 1550 0822 62000000 		.4byte	.LVL7
 1551 0826 34080000 		.4byte	0x834
 1552 082a 1D       		.uleb128 0x1d
 1553 082b 01       		.uleb128 0x1
 1554 082c 50       		.byte	0x50
 1555 082d 05       		.uleb128 0x5
 1556 082e 03       		.byte	0x3
 1557 082f 00000000 		.4byte	.LANCHOR0
 1558 0833 00       		.byte	0
 1559 0834 1C       		.uleb128 0x1c
 1560 0835 72000000 		.4byte	.LVL8
 1561 0839 47080000 		.4byte	0x847
 1562 083d 1D       		.uleb128 0x1d
 1563 083e 01       		.uleb128 0x1
 1564 083f 50       		.byte	0x50
 1565 0840 05       		.uleb128 0x5
 1566 0841 03       		.byte	0x3
 1567 0842 00000000 		.4byte	.LANCHOR0
 1568 0846 00       		.byte	0
 1569 0847 1E       		.uleb128 0x1e
 1570 0848 7C000000 		.4byte	.LVL9
 1571 084c 1D       		.uleb128 0x1d
 1572 084d 01       		.uleb128 0x1
 1573 084e 50       		.byte	0x50
 1574 084f 02       		.uleb128 0x2
 1575 0850 75       		.byte	0x75
 1576 0851 00       		.sleb128 0
 1577 0852 00       		.byte	0
 1578 0853 00       		.byte	0
 1579 0854 00       		.byte	0
 1580 0855 1F       		.uleb128 0x1f
 1581 0856 44000000 		.4byte	.LVL5
 1582 085a CD090000 		.4byte	0x9cd
 1583 085e 00       		.byte	0
 1584 085f 20       		.uleb128 0x20
 1585 0860 52090000 		.4byte	.LASF172
ARM GAS  /tmp/ccfQAElU.s 			page 29


 1586 0864 01       		.byte	0x1
 1587 0865 5901     		.2byte	0x159
 1588 0867 00000000 		.4byte	.LFB120
 1589 086b 1C000000 		.4byte	.LFE120-.LFB120
 1590 086f 01       		.uleb128 0x1
 1591 0870 9C       		.byte	0x9c
 1592 0871 86080000 		.4byte	0x886
 1593 0875 21       		.uleb128 0x21
 1594 0876 10000000 		.4byte	.LVL10
 1595 087a D5090000 		.4byte	0x9d5
 1596 087e 1D       		.uleb128 0x1d
 1597 087f 01       		.uleb128 0x1
 1598 0880 50       		.byte	0x50
 1599 0881 02       		.uleb128 0x2
 1600 0882 74       		.byte	0x74
 1601 0883 00       		.sleb128 0
 1602 0884 00       		.byte	0
 1603 0885 00       		.byte	0
 1604 0886 20       		.uleb128 0x20
 1605 0887 94010000 		.4byte	.LASF173
 1606 088b 01       		.byte	0x1
 1607 088c 8F01     		.2byte	0x18f
 1608 088e 00000000 		.4byte	.LFB121
 1609 0892 02010000 		.4byte	.LFE121-.LFB121
 1610 0896 01       		.uleb128 0x1
 1611 0897 9C       		.byte	0x9c
 1612 0898 E2080000 		.4byte	0x8e2
 1613 089c 22       		.uleb128 0x22
 1614 089d F4030000 		.4byte	.LASF176
 1615 08a1 01       		.byte	0x1
 1616 08a2 8F01     		.2byte	0x18f
 1617 08a4 8E050000 		.4byte	0x58e
 1618 08a8 33000000 		.4byte	.LLST1
 1619 08ac 23       		.uleb128 0x23
 1620 08ad 70736300 		.ascii	"psc\000"
 1621 08b1 01       		.byte	0x1
 1622 08b2 9001     		.2byte	0x190
 1623 08b4 B8000000 		.4byte	0xb8
 1624 08b8 8B000000 		.4byte	.LLST2
 1625 08bc 24       		.uleb128 0x24
 1626 08bd DB030000 		.4byte	.LASF174
 1627 08c1 01       		.byte	0x1
 1628 08c2 9101     		.2byte	0x191
 1629 08c4 A2000000 		.4byte	0xa2
 1630 08c8 EA000000 		.4byte	.LLST3
 1631 08cc 21       		.uleb128 0x21
 1632 08cd F6000000 		.4byte	.LVL34
 1633 08d1 E6090000 		.4byte	0x9e6
 1634 08d5 1D       		.uleb128 0x1d
 1635 08d6 01       		.uleb128 0x1
 1636 08d7 51       		.byte	0x51
 1637 08d8 02       		.uleb128 0x2
 1638 08d9 08       		.byte	0x8
 1639 08da 70       		.byte	0x70
 1640 08db 1D       		.uleb128 0x1d
 1641 08dc 01       		.uleb128 0x1
 1642 08dd 50       		.byte	0x50
ARM GAS  /tmp/ccfQAElU.s 			page 30


 1643 08de 01       		.uleb128 0x1
 1644 08df 4E       		.byte	0x4e
 1645 08e0 00       		.byte	0
 1646 08e1 00       		.byte	0
 1647 08e2 20       		.uleb128 0x20
 1648 08e3 7B060000 		.4byte	.LASF175
 1649 08e7 01       		.byte	0x1
 1650 08e8 5D02     		.2byte	0x25d
 1651 08ea 00000000 		.4byte	.LFB122
 1652 08ee 38000000 		.4byte	.LFE122-.LFB122
 1653 08f2 01       		.uleb128 0x1
 1654 08f3 9C       		.byte	0x9c
 1655 08f4 18090000 		.4byte	0x918
 1656 08f8 22       		.uleb128 0x22
 1657 08f9 F4030000 		.4byte	.LASF176
 1658 08fd 01       		.byte	0x1
 1659 08fe 5D02     		.2byte	0x25d
 1660 0900 8E050000 		.4byte	0x58e
 1661 0904 14010000 		.4byte	.LLST4
 1662 0908 21       		.uleb128 0x21
 1663 0909 26000000 		.4byte	.LVL39
 1664 090d FD090000 		.4byte	0x9fd
 1665 0911 1D       		.uleb128 0x1d
 1666 0912 01       		.uleb128 0x1
 1667 0913 50       		.byte	0x50
 1668 0914 01       		.uleb128 0x1
 1669 0915 4E       		.byte	0x4e
 1670 0916 00       		.byte	0
 1671 0917 00       		.byte	0
 1672 0918 20       		.uleb128 0x20
 1673 0919 E7060000 		.4byte	.LASF177
 1674 091d 01       		.byte	0x1
 1675 091e A302     		.2byte	0x2a3
 1676 0920 00000000 		.4byte	.LFB123
 1677 0924 32000000 		.4byte	.LFE123-.LFB123
 1678 0928 01       		.uleb128 0x1
 1679 0929 9C       		.byte	0x9c
 1680 092a 79090000 		.4byte	0x979
 1681 092e 22       		.uleb128 0x22
 1682 092f F4030000 		.4byte	.LASF176
 1683 0933 01       		.byte	0x1
 1684 0934 A302     		.2byte	0x2a3
 1685 0936 8E050000 		.4byte	0x58e
 1686 093a 4E010000 		.4byte	.LLST5
 1687 093e 22       		.uleb128 0x22
 1688 093f 60060000 		.4byte	.LASF178
 1689 0943 01       		.byte	0x1
 1690 0944 A402     		.2byte	0x2a4
 1691 0946 CA060000 		.4byte	0x6ca
 1692 094a 6F010000 		.4byte	.LLST6
 1693 094e 22       		.uleb128 0x22
 1694 094f 59030000 		.4byte	.LASF179
 1695 0953 01       		.byte	0x1
 1696 0954 A502     		.2byte	0x2a5
 1697 0956 D6060000 		.4byte	0x6d6
 1698 095a 90010000 		.4byte	.LLST7
 1699 095e 25       		.uleb128 0x25
ARM GAS  /tmp/ccfQAElU.s 			page 31


 1700 095f 18000000 		.4byte	.LBB8
 1701 0963 14000000 		.4byte	.LBE8-.LBB8
 1702 0967 24       		.uleb128 0x24
 1703 0968 DE090000 		.4byte	.LASF169
 1704 096c 01       		.byte	0x1
 1705 096d AB02     		.2byte	0x2ab
 1706 096f B8000000 		.4byte	0xb8
 1707 0973 B1010000 		.4byte	.LLST8
 1708 0977 00       		.byte	0
 1709 0978 00       		.byte	0
 1710 0979 20       		.uleb128 0x20
 1711 097a 27090000 		.4byte	.LASF180
 1712 097e 01       		.byte	0x1
 1713 097f C102     		.2byte	0x2c1
 1714 0981 00000000 		.4byte	.LFB124
 1715 0985 1E000000 		.4byte	.LFE124-.LFB124
 1716 0989 01       		.uleb128 0x1
 1717 098a 9C       		.byte	0x9c
 1718 098b B0090000 		.4byte	0x9b0
 1719 098f 22       		.uleb128 0x22
 1720 0990 F4030000 		.4byte	.LASF176
 1721 0994 01       		.byte	0x1
 1722 0995 C102     		.2byte	0x2c1
 1723 0997 8E050000 		.4byte	0x58e
 1724 099b C4010000 		.4byte	.LLST9
 1725 099f 22       		.uleb128 0x22
 1726 09a0 60060000 		.4byte	.LASF178
 1727 09a4 01       		.byte	0x1
 1728 09a5 C102     		.2byte	0x2c1
 1729 09a7 CA060000 		.4byte	0x6ca
 1730 09ab E5010000 		.4byte	.LLST10
 1731 09af 00       		.byte	0
 1732 09b0 26       		.uleb128 0x26
 1733 09b1 DD050000 		.4byte	.LASF181
 1734 09b5 08       		.byte	0x8
 1735 09b6 9806     		.2byte	0x698
 1736 09b8 38030000 		.4byte	0x338
 1737 09bc 27       		.uleb128 0x27
 1738 09bd 7D020000 		.4byte	.LASF182
 1739 09c1 01       		.byte	0x1
 1740 09c2 43       		.byte	0x43
 1741 09c3 18050000 		.4byte	0x518
 1742 09c7 05       		.uleb128 0x5
 1743 09c8 03       		.byte	0x3
 1744 09c9 00000000 		.4byte	PWMD4
 1745 09cd 28       		.uleb128 0x28
 1746 09ce C9080000 		.4byte	.LASF190
 1747 09d2 0A       		.byte	0xa
 1748 09d3 0302     		.2byte	0x203
 1749 09d5 29       		.uleb128 0x29
 1750 09d6 93090000 		.4byte	.LASF183
 1751 09da 05       		.byte	0x5
 1752 09db F3       		.byte	0xf3
 1753 09dc E6090000 		.4byte	0x9e6
 1754 09e0 12       		.uleb128 0x12
 1755 09e1 8E050000 		.4byte	0x58e
 1756 09e5 00       		.byte	0
ARM GAS  /tmp/ccfQAElU.s 			page 32


 1757 09e6 2A       		.uleb128 0x2a
 1758 09e7 18010000 		.4byte	.LASF184
 1759 09eb 09       		.byte	0x9
 1760 09ec 2301     		.2byte	0x123
 1761 09ee FD090000 		.4byte	0x9fd
 1762 09f2 12       		.uleb128 0x12
 1763 09f3 B8000000 		.4byte	0xb8
 1764 09f7 12       		.uleb128 0x12
 1765 09f8 B8000000 		.4byte	0xb8
 1766 09fc 00       		.byte	0
 1767 09fd 2B       		.uleb128 0x2b
 1768 09fe C3060000 		.4byte	.LASF191
 1769 0a02 09       		.byte	0x9
 1770 0a03 2401     		.2byte	0x124
 1771 0a05 12       		.uleb128 0x12
 1772 0a06 B8000000 		.4byte	0xb8
 1773 0a0a 00       		.byte	0
 1774 0a0b 00       		.byte	0
 1775              		.section	.debug_abbrev,"",%progbits
 1776              	.Ldebug_abbrev0:
 1777 0000 01       		.uleb128 0x1
 1778 0001 11       		.uleb128 0x11
 1779 0002 01       		.byte	0x1
 1780 0003 25       		.uleb128 0x25
 1781 0004 0E       		.uleb128 0xe
 1782 0005 13       		.uleb128 0x13
 1783 0006 0B       		.uleb128 0xb
 1784 0007 03       		.uleb128 0x3
 1785 0008 0E       		.uleb128 0xe
 1786 0009 1B       		.uleb128 0x1b
 1787 000a 0E       		.uleb128 0xe
 1788 000b 55       		.uleb128 0x55
 1789 000c 17       		.uleb128 0x17
 1790 000d 11       		.uleb128 0x11
 1791 000e 01       		.uleb128 0x1
 1792 000f 10       		.uleb128 0x10
 1793 0010 17       		.uleb128 0x17
 1794 0011 00       		.byte	0
 1795 0012 00       		.byte	0
 1796 0013 02       		.uleb128 0x2
 1797 0014 24       		.uleb128 0x24
 1798 0015 00       		.byte	0
 1799 0016 0B       		.uleb128 0xb
 1800 0017 0B       		.uleb128 0xb
 1801 0018 3E       		.uleb128 0x3e
 1802 0019 0B       		.uleb128 0xb
 1803 001a 03       		.uleb128 0x3
 1804 001b 0E       		.uleb128 0xe
 1805 001c 00       		.byte	0
 1806 001d 00       		.byte	0
 1807 001e 03       		.uleb128 0x3
 1808 001f 24       		.uleb128 0x24
 1809 0020 00       		.byte	0
 1810 0021 0B       		.uleb128 0xb
 1811 0022 0B       		.uleb128 0xb
 1812 0023 3E       		.uleb128 0x3e
 1813 0024 0B       		.uleb128 0xb
ARM GAS  /tmp/ccfQAElU.s 			page 33


 1814 0025 03       		.uleb128 0x3
 1815 0026 08       		.uleb128 0x8
 1816 0027 00       		.byte	0
 1817 0028 00       		.byte	0
 1818 0029 04       		.uleb128 0x4
 1819 002a 16       		.uleb128 0x16
 1820 002b 00       		.byte	0
 1821 002c 03       		.uleb128 0x3
 1822 002d 0E       		.uleb128 0xe
 1823 002e 3A       		.uleb128 0x3a
 1824 002f 0B       		.uleb128 0xb
 1825 0030 3B       		.uleb128 0x3b
 1826 0031 0B       		.uleb128 0xb
 1827 0032 49       		.uleb128 0x49
 1828 0033 13       		.uleb128 0x13
 1829 0034 00       		.byte	0
 1830 0035 00       		.byte	0
 1831 0036 05       		.uleb128 0x5
 1832 0037 35       		.uleb128 0x35
 1833 0038 00       		.byte	0
 1834 0039 49       		.uleb128 0x49
 1835 003a 13       		.uleb128 0x13
 1836 003b 00       		.byte	0
 1837 003c 00       		.byte	0
 1838 003d 06       		.uleb128 0x6
 1839 003e 04       		.uleb128 0x4
 1840 003f 01       		.byte	0x1
 1841 0040 03       		.uleb128 0x3
 1842 0041 0E       		.uleb128 0xe
 1843 0042 0B       		.uleb128 0xb
 1844 0043 0B       		.uleb128 0xb
 1845 0044 3A       		.uleb128 0x3a
 1846 0045 0B       		.uleb128 0xb
 1847 0046 3B       		.uleb128 0x3b
 1848 0047 0B       		.uleb128 0xb
 1849 0048 01       		.uleb128 0x1
 1850 0049 13       		.uleb128 0x13
 1851 004a 00       		.byte	0
 1852 004b 00       		.byte	0
 1853 004c 07       		.uleb128 0x7
 1854 004d 28       		.uleb128 0x28
 1855 004e 00       		.byte	0
 1856 004f 03       		.uleb128 0x3
 1857 0050 0E       		.uleb128 0xe
 1858 0051 1C       		.uleb128 0x1c
 1859 0052 0D       		.uleb128 0xd
 1860 0053 00       		.byte	0
 1861 0054 00       		.byte	0
 1862 0055 08       		.uleb128 0x8
 1863 0056 01       		.uleb128 0x1
 1864 0057 01       		.byte	0x1
 1865 0058 49       		.uleb128 0x49
 1866 0059 13       		.uleb128 0x13
 1867 005a 01       		.uleb128 0x1
 1868 005b 13       		.uleb128 0x13
 1869 005c 00       		.byte	0
 1870 005d 00       		.byte	0
ARM GAS  /tmp/ccfQAElU.s 			page 34


 1871 005e 09       		.uleb128 0x9
 1872 005f 21       		.uleb128 0x21
 1873 0060 00       		.byte	0
 1874 0061 49       		.uleb128 0x49
 1875 0062 13       		.uleb128 0x13
 1876 0063 2F       		.uleb128 0x2f
 1877 0064 0B       		.uleb128 0xb
 1878 0065 00       		.byte	0
 1879 0066 00       		.byte	0
 1880 0067 0A       		.uleb128 0xa
 1881 0068 13       		.uleb128 0x13
 1882 0069 01       		.byte	0x1
 1883 006a 0B       		.uleb128 0xb
 1884 006b 0B       		.uleb128 0xb
 1885 006c 3A       		.uleb128 0x3a
 1886 006d 0B       		.uleb128 0xb
 1887 006e 3B       		.uleb128 0x3b
 1888 006f 05       		.uleb128 0x5
 1889 0070 01       		.uleb128 0x1
 1890 0071 13       		.uleb128 0x13
 1891 0072 00       		.byte	0
 1892 0073 00       		.byte	0
 1893 0074 0B       		.uleb128 0xb
 1894 0075 0D       		.uleb128 0xd
 1895 0076 00       		.byte	0
 1896 0077 03       		.uleb128 0x3
 1897 0078 08       		.uleb128 0x8
 1898 0079 3A       		.uleb128 0x3a
 1899 007a 0B       		.uleb128 0xb
 1900 007b 3B       		.uleb128 0x3b
 1901 007c 05       		.uleb128 0x5
 1902 007d 49       		.uleb128 0x49
 1903 007e 13       		.uleb128 0x13
 1904 007f 38       		.uleb128 0x38
 1905 0080 0B       		.uleb128 0xb
 1906 0081 00       		.byte	0
 1907 0082 00       		.byte	0
 1908 0083 0C       		.uleb128 0xc
 1909 0084 0D       		.uleb128 0xd
 1910 0085 00       		.byte	0
 1911 0086 03       		.uleb128 0x3
 1912 0087 0E       		.uleb128 0xe
 1913 0088 3A       		.uleb128 0x3a
 1914 0089 0B       		.uleb128 0xb
 1915 008a 3B       		.uleb128 0x3b
 1916 008b 05       		.uleb128 0x5
 1917 008c 49       		.uleb128 0x49
 1918 008d 13       		.uleb128 0x13
 1919 008e 38       		.uleb128 0x38
 1920 008f 0B       		.uleb128 0xb
 1921 0090 00       		.byte	0
 1922 0091 00       		.byte	0
 1923 0092 0D       		.uleb128 0xd
 1924 0093 16       		.uleb128 0x16
 1925 0094 00       		.byte	0
 1926 0095 03       		.uleb128 0x3
 1927 0096 0E       		.uleb128 0xe
ARM GAS  /tmp/ccfQAElU.s 			page 35


 1928 0097 3A       		.uleb128 0x3a
 1929 0098 0B       		.uleb128 0xb
 1930 0099 3B       		.uleb128 0x3b
 1931 009a 05       		.uleb128 0x5
 1932 009b 49       		.uleb128 0x49
 1933 009c 13       		.uleb128 0x13
 1934 009d 00       		.byte	0
 1935 009e 00       		.byte	0
 1936 009f 0E       		.uleb128 0xe
 1937 00a0 04       		.uleb128 0x4
 1938 00a1 01       		.byte	0x1
 1939 00a2 0B       		.uleb128 0xb
 1940 00a3 0B       		.uleb128 0xb
 1941 00a4 3A       		.uleb128 0x3a
 1942 00a5 0B       		.uleb128 0xb
 1943 00a6 3B       		.uleb128 0x3b
 1944 00a7 0B       		.uleb128 0xb
 1945 00a8 01       		.uleb128 0x1
 1946 00a9 13       		.uleb128 0x13
 1947 00aa 00       		.byte	0
 1948 00ab 00       		.byte	0
 1949 00ac 0F       		.uleb128 0xf
 1950 00ad 13       		.uleb128 0x13
 1951 00ae 01       		.byte	0x1
 1952 00af 03       		.uleb128 0x3
 1953 00b0 0E       		.uleb128 0xe
 1954 00b1 0B       		.uleb128 0xb
 1955 00b2 0B       		.uleb128 0xb
 1956 00b3 3A       		.uleb128 0x3a
 1957 00b4 0B       		.uleb128 0xb
 1958 00b5 3B       		.uleb128 0x3b
 1959 00b6 05       		.uleb128 0x5
 1960 00b7 01       		.uleb128 0x1
 1961 00b8 13       		.uleb128 0x13
 1962 00b9 00       		.byte	0
 1963 00ba 00       		.byte	0
 1964 00bb 10       		.uleb128 0x10
 1965 00bc 0F       		.uleb128 0xf
 1966 00bd 00       		.byte	0
 1967 00be 0B       		.uleb128 0xb
 1968 00bf 0B       		.uleb128 0xb
 1969 00c0 49       		.uleb128 0x49
 1970 00c1 13       		.uleb128 0x13
 1971 00c2 00       		.byte	0
 1972 00c3 00       		.byte	0
 1973 00c4 11       		.uleb128 0x11
 1974 00c5 15       		.uleb128 0x15
 1975 00c6 01       		.byte	0x1
 1976 00c7 27       		.uleb128 0x27
 1977 00c8 19       		.uleb128 0x19
 1978 00c9 01       		.uleb128 0x1
 1979 00ca 13       		.uleb128 0x13
 1980 00cb 00       		.byte	0
 1981 00cc 00       		.byte	0
 1982 00cd 12       		.uleb128 0x12
 1983 00ce 05       		.uleb128 0x5
 1984 00cf 00       		.byte	0
ARM GAS  /tmp/ccfQAElU.s 			page 36


 1985 00d0 49       		.uleb128 0x49
 1986 00d1 13       		.uleb128 0x13
 1987 00d2 00       		.byte	0
 1988 00d3 00       		.byte	0
 1989 00d4 13       		.uleb128 0x13
 1990 00d5 26       		.uleb128 0x26
 1991 00d6 00       		.byte	0
 1992 00d7 49       		.uleb128 0x49
 1993 00d8 13       		.uleb128 0x13
 1994 00d9 00       		.byte	0
 1995 00da 00       		.byte	0
 1996 00db 14       		.uleb128 0x14
 1997 00dc 2E       		.uleb128 0x2e
 1998 00dd 01       		.byte	0x1
 1999 00de 03       		.uleb128 0x3
 2000 00df 0E       		.uleb128 0xe
 2001 00e0 3A       		.uleb128 0x3a
 2002 00e1 0B       		.uleb128 0xb
 2003 00e2 3B       		.uleb128 0x3b
 2004 00e3 0B       		.uleb128 0xb
 2005 00e4 27       		.uleb128 0x27
 2006 00e5 19       		.uleb128 0x19
 2007 00e6 20       		.uleb128 0x20
 2008 00e7 0B       		.uleb128 0xb
 2009 00e8 01       		.uleb128 0x1
 2010 00e9 13       		.uleb128 0x13
 2011 00ea 00       		.byte	0
 2012 00eb 00       		.byte	0
 2013 00ec 15       		.uleb128 0x15
 2014 00ed 05       		.uleb128 0x5
 2015 00ee 00       		.byte	0
 2016 00ef 03       		.uleb128 0x3
 2017 00f0 0E       		.uleb128 0xe
 2018 00f1 3A       		.uleb128 0x3a
 2019 00f2 0B       		.uleb128 0xb
 2020 00f3 3B       		.uleb128 0x3b
 2021 00f4 0B       		.uleb128 0xb
 2022 00f5 49       		.uleb128 0x49
 2023 00f6 13       		.uleb128 0x13
 2024 00f7 00       		.byte	0
 2025 00f8 00       		.byte	0
 2026 00f9 16       		.uleb128 0x16
 2027 00fa 34       		.uleb128 0x34
 2028 00fb 00       		.byte	0
 2029 00fc 03       		.uleb128 0x3
 2030 00fd 08       		.uleb128 0x8
 2031 00fe 3A       		.uleb128 0x3a
 2032 00ff 0B       		.uleb128 0xb
 2033 0100 3B       		.uleb128 0x3b
 2034 0101 0B       		.uleb128 0xb
 2035 0102 49       		.uleb128 0x49
 2036 0103 13       		.uleb128 0x13
 2037 0104 00       		.byte	0
 2038 0105 00       		.byte	0
 2039 0106 17       		.uleb128 0x17
 2040 0107 2E       		.uleb128 0x2e
 2041 0108 01       		.byte	0x1
ARM GAS  /tmp/ccfQAElU.s 			page 37


 2042 0109 3F       		.uleb128 0x3f
 2043 010a 19       		.uleb128 0x19
 2044 010b 03       		.uleb128 0x3
 2045 010c 0E       		.uleb128 0xe
 2046 010d 3A       		.uleb128 0x3a
 2047 010e 0B       		.uleb128 0xb
 2048 010f 3B       		.uleb128 0x3b
 2049 0110 0B       		.uleb128 0xb
 2050 0111 27       		.uleb128 0x27
 2051 0112 19       		.uleb128 0x19
 2052 0113 11       		.uleb128 0x11
 2053 0114 01       		.uleb128 0x1
 2054 0115 12       		.uleb128 0x12
 2055 0116 06       		.uleb128 0x6
 2056 0117 40       		.uleb128 0x40
 2057 0118 18       		.uleb128 0x18
 2058 0119 9742     		.uleb128 0x2117
 2059 011b 19       		.uleb128 0x19
 2060 011c 01       		.uleb128 0x1
 2061 011d 13       		.uleb128 0x13
 2062 011e 00       		.byte	0
 2063 011f 00       		.byte	0
 2064 0120 18       		.uleb128 0x18
 2065 0121 1D       		.uleb128 0x1d
 2066 0122 01       		.byte	0x1
 2067 0123 31       		.uleb128 0x31
 2068 0124 13       		.uleb128 0x13
 2069 0125 52       		.uleb128 0x52
 2070 0126 01       		.uleb128 0x1
 2071 0127 55       		.uleb128 0x55
 2072 0128 17       		.uleb128 0x17
 2073 0129 58       		.uleb128 0x58
 2074 012a 0B       		.uleb128 0xb
 2075 012b 59       		.uleb128 0x59
 2076 012c 0B       		.uleb128 0xb
 2077 012d 01       		.uleb128 0x1
 2078 012e 13       		.uleb128 0x13
 2079 012f 00       		.byte	0
 2080 0130 00       		.byte	0
 2081 0131 19       		.uleb128 0x19
 2082 0132 05       		.uleb128 0x5
 2083 0133 00       		.byte	0
 2084 0134 31       		.uleb128 0x31
 2085 0135 13       		.uleb128 0x13
 2086 0136 02       		.uleb128 0x2
 2087 0137 18       		.uleb128 0x18
 2088 0138 00       		.byte	0
 2089 0139 00       		.byte	0
 2090 013a 1A       		.uleb128 0x1a
 2091 013b 0B       		.uleb128 0xb
 2092 013c 01       		.byte	0x1
 2093 013d 55       		.uleb128 0x55
 2094 013e 17       		.uleb128 0x17
 2095 013f 00       		.byte	0
 2096 0140 00       		.byte	0
 2097 0141 1B       		.uleb128 0x1b
 2098 0142 34       		.uleb128 0x34
ARM GAS  /tmp/ccfQAElU.s 			page 38


 2099 0143 00       		.byte	0
 2100 0144 31       		.uleb128 0x31
 2101 0145 13       		.uleb128 0x13
 2102 0146 02       		.uleb128 0x2
 2103 0147 17       		.uleb128 0x17
 2104 0148 00       		.byte	0
 2105 0149 00       		.byte	0
 2106 014a 1C       		.uleb128 0x1c
 2107 014b 898201   		.uleb128 0x4109
 2108 014e 01       		.byte	0x1
 2109 014f 11       		.uleb128 0x11
 2110 0150 01       		.uleb128 0x1
 2111 0151 01       		.uleb128 0x1
 2112 0152 13       		.uleb128 0x13
 2113 0153 00       		.byte	0
 2114 0154 00       		.byte	0
 2115 0155 1D       		.uleb128 0x1d
 2116 0156 8A8201   		.uleb128 0x410a
 2117 0159 00       		.byte	0
 2118 015a 02       		.uleb128 0x2
 2119 015b 18       		.uleb128 0x18
 2120 015c 9142     		.uleb128 0x2111
 2121 015e 18       		.uleb128 0x18
 2122 015f 00       		.byte	0
 2123 0160 00       		.byte	0
 2124 0161 1E       		.uleb128 0x1e
 2125 0162 898201   		.uleb128 0x4109
 2126 0165 01       		.byte	0x1
 2127 0166 11       		.uleb128 0x11
 2128 0167 01       		.uleb128 0x1
 2129 0168 00       		.byte	0
 2130 0169 00       		.byte	0
 2131 016a 1F       		.uleb128 0x1f
 2132 016b 898201   		.uleb128 0x4109
 2133 016e 00       		.byte	0
 2134 016f 11       		.uleb128 0x11
 2135 0170 01       		.uleb128 0x1
 2136 0171 9542     		.uleb128 0x2115
 2137 0173 19       		.uleb128 0x19
 2138 0174 31       		.uleb128 0x31
 2139 0175 13       		.uleb128 0x13
 2140 0176 00       		.byte	0
 2141 0177 00       		.byte	0
 2142 0178 20       		.uleb128 0x20
 2143 0179 2E       		.uleb128 0x2e
 2144 017a 01       		.byte	0x1
 2145 017b 3F       		.uleb128 0x3f
 2146 017c 19       		.uleb128 0x19
 2147 017d 03       		.uleb128 0x3
 2148 017e 0E       		.uleb128 0xe
 2149 017f 3A       		.uleb128 0x3a
 2150 0180 0B       		.uleb128 0xb
 2151 0181 3B       		.uleb128 0x3b
 2152 0182 05       		.uleb128 0x5
 2153 0183 27       		.uleb128 0x27
 2154 0184 19       		.uleb128 0x19
 2155 0185 11       		.uleb128 0x11
ARM GAS  /tmp/ccfQAElU.s 			page 39


 2156 0186 01       		.uleb128 0x1
 2157 0187 12       		.uleb128 0x12
 2158 0188 06       		.uleb128 0x6
 2159 0189 40       		.uleb128 0x40
 2160 018a 18       		.uleb128 0x18
 2161 018b 9742     		.uleb128 0x2117
 2162 018d 19       		.uleb128 0x19
 2163 018e 01       		.uleb128 0x1
 2164 018f 13       		.uleb128 0x13
 2165 0190 00       		.byte	0
 2166 0191 00       		.byte	0
 2167 0192 21       		.uleb128 0x21
 2168 0193 898201   		.uleb128 0x4109
 2169 0196 01       		.byte	0x1
 2170 0197 11       		.uleb128 0x11
 2171 0198 01       		.uleb128 0x1
 2172 0199 31       		.uleb128 0x31
 2173 019a 13       		.uleb128 0x13
 2174 019b 00       		.byte	0
 2175 019c 00       		.byte	0
 2176 019d 22       		.uleb128 0x22
 2177 019e 05       		.uleb128 0x5
 2178 019f 00       		.byte	0
 2179 01a0 03       		.uleb128 0x3
 2180 01a1 0E       		.uleb128 0xe
 2181 01a2 3A       		.uleb128 0x3a
 2182 01a3 0B       		.uleb128 0xb
 2183 01a4 3B       		.uleb128 0x3b
 2184 01a5 05       		.uleb128 0x5
 2185 01a6 49       		.uleb128 0x49
 2186 01a7 13       		.uleb128 0x13
 2187 01a8 02       		.uleb128 0x2
 2188 01a9 17       		.uleb128 0x17
 2189 01aa 00       		.byte	0
 2190 01ab 00       		.byte	0
 2191 01ac 23       		.uleb128 0x23
 2192 01ad 34       		.uleb128 0x34
 2193 01ae 00       		.byte	0
 2194 01af 03       		.uleb128 0x3
 2195 01b0 08       		.uleb128 0x8
 2196 01b1 3A       		.uleb128 0x3a
 2197 01b2 0B       		.uleb128 0xb
 2198 01b3 3B       		.uleb128 0x3b
 2199 01b4 05       		.uleb128 0x5
 2200 01b5 49       		.uleb128 0x49
 2201 01b6 13       		.uleb128 0x13
 2202 01b7 02       		.uleb128 0x2
 2203 01b8 17       		.uleb128 0x17
 2204 01b9 00       		.byte	0
 2205 01ba 00       		.byte	0
 2206 01bb 24       		.uleb128 0x24
 2207 01bc 34       		.uleb128 0x34
 2208 01bd 00       		.byte	0
 2209 01be 03       		.uleb128 0x3
 2210 01bf 0E       		.uleb128 0xe
 2211 01c0 3A       		.uleb128 0x3a
 2212 01c1 0B       		.uleb128 0xb
ARM GAS  /tmp/ccfQAElU.s 			page 40


 2213 01c2 3B       		.uleb128 0x3b
 2214 01c3 05       		.uleb128 0x5
 2215 01c4 49       		.uleb128 0x49
 2216 01c5 13       		.uleb128 0x13
 2217 01c6 02       		.uleb128 0x2
 2218 01c7 17       		.uleb128 0x17
 2219 01c8 00       		.byte	0
 2220 01c9 00       		.byte	0
 2221 01ca 25       		.uleb128 0x25
 2222 01cb 0B       		.uleb128 0xb
 2223 01cc 01       		.byte	0x1
 2224 01cd 11       		.uleb128 0x11
 2225 01ce 01       		.uleb128 0x1
 2226 01cf 12       		.uleb128 0x12
 2227 01d0 06       		.uleb128 0x6
 2228 01d1 00       		.byte	0
 2229 01d2 00       		.byte	0
 2230 01d3 26       		.uleb128 0x26
 2231 01d4 34       		.uleb128 0x34
 2232 01d5 00       		.byte	0
 2233 01d6 03       		.uleb128 0x3
 2234 01d7 0E       		.uleb128 0xe
 2235 01d8 3A       		.uleb128 0x3a
 2236 01d9 0B       		.uleb128 0xb
 2237 01da 3B       		.uleb128 0x3b
 2238 01db 05       		.uleb128 0x5
 2239 01dc 49       		.uleb128 0x49
 2240 01dd 13       		.uleb128 0x13
 2241 01de 3F       		.uleb128 0x3f
 2242 01df 19       		.uleb128 0x19
 2243 01e0 3C       		.uleb128 0x3c
 2244 01e1 19       		.uleb128 0x19
 2245 01e2 00       		.byte	0
 2246 01e3 00       		.byte	0
 2247 01e4 27       		.uleb128 0x27
 2248 01e5 34       		.uleb128 0x34
 2249 01e6 00       		.byte	0
 2250 01e7 03       		.uleb128 0x3
 2251 01e8 0E       		.uleb128 0xe
 2252 01e9 3A       		.uleb128 0x3a
 2253 01ea 0B       		.uleb128 0xb
 2254 01eb 3B       		.uleb128 0x3b
 2255 01ec 0B       		.uleb128 0xb
 2256 01ed 49       		.uleb128 0x49
 2257 01ee 13       		.uleb128 0x13
 2258 01ef 3F       		.uleb128 0x3f
 2259 01f0 19       		.uleb128 0x19
 2260 01f1 02       		.uleb128 0x2
 2261 01f2 18       		.uleb128 0x18
 2262 01f3 00       		.byte	0
 2263 01f4 00       		.byte	0
 2264 01f5 28       		.uleb128 0x28
 2265 01f6 2E       		.uleb128 0x2e
 2266 01f7 00       		.byte	0
 2267 01f8 3F       		.uleb128 0x3f
 2268 01f9 19       		.uleb128 0x19
 2269 01fa 03       		.uleb128 0x3
ARM GAS  /tmp/ccfQAElU.s 			page 41


 2270 01fb 0E       		.uleb128 0xe
 2271 01fc 3A       		.uleb128 0x3a
 2272 01fd 0B       		.uleb128 0xb
 2273 01fe 3B       		.uleb128 0x3b
 2274 01ff 05       		.uleb128 0x5
 2275 0200 27       		.uleb128 0x27
 2276 0201 19       		.uleb128 0x19
 2277 0202 3C       		.uleb128 0x3c
 2278 0203 19       		.uleb128 0x19
 2279 0204 00       		.byte	0
 2280 0205 00       		.byte	0
 2281 0206 29       		.uleb128 0x29
 2282 0207 2E       		.uleb128 0x2e
 2283 0208 01       		.byte	0x1
 2284 0209 3F       		.uleb128 0x3f
 2285 020a 19       		.uleb128 0x19
 2286 020b 03       		.uleb128 0x3
 2287 020c 0E       		.uleb128 0xe
 2288 020d 3A       		.uleb128 0x3a
 2289 020e 0B       		.uleb128 0xb
 2290 020f 3B       		.uleb128 0x3b
 2291 0210 0B       		.uleb128 0xb
 2292 0211 27       		.uleb128 0x27
 2293 0212 19       		.uleb128 0x19
 2294 0213 3C       		.uleb128 0x3c
 2295 0214 19       		.uleb128 0x19
 2296 0215 01       		.uleb128 0x1
 2297 0216 13       		.uleb128 0x13
 2298 0217 00       		.byte	0
 2299 0218 00       		.byte	0
 2300 0219 2A       		.uleb128 0x2a
 2301 021a 2E       		.uleb128 0x2e
 2302 021b 01       		.byte	0x1
 2303 021c 3F       		.uleb128 0x3f
 2304 021d 19       		.uleb128 0x19
 2305 021e 03       		.uleb128 0x3
 2306 021f 0E       		.uleb128 0xe
 2307 0220 3A       		.uleb128 0x3a
 2308 0221 0B       		.uleb128 0xb
 2309 0222 3B       		.uleb128 0x3b
 2310 0223 05       		.uleb128 0x5
 2311 0224 27       		.uleb128 0x27
 2312 0225 19       		.uleb128 0x19
 2313 0226 3C       		.uleb128 0x3c
 2314 0227 19       		.uleb128 0x19
 2315 0228 01       		.uleb128 0x1
 2316 0229 13       		.uleb128 0x13
 2317 022a 00       		.byte	0
 2318 022b 00       		.byte	0
 2319 022c 2B       		.uleb128 0x2b
 2320 022d 2E       		.uleb128 0x2e
 2321 022e 01       		.byte	0x1
 2322 022f 3F       		.uleb128 0x3f
 2323 0230 19       		.uleb128 0x19
 2324 0231 03       		.uleb128 0x3
 2325 0232 0E       		.uleb128 0xe
 2326 0233 3A       		.uleb128 0x3a
ARM GAS  /tmp/ccfQAElU.s 			page 42


 2327 0234 0B       		.uleb128 0xb
 2328 0235 3B       		.uleb128 0x3b
 2329 0236 05       		.uleb128 0x5
 2330 0237 27       		.uleb128 0x27
 2331 0238 19       		.uleb128 0x19
 2332 0239 3C       		.uleb128 0x3c
 2333 023a 19       		.uleb128 0x19
 2334 023b 00       		.byte	0
 2335 023c 00       		.byte	0
 2336 023d 00       		.byte	0
 2337              		.section	.debug_loc,"",%progbits
 2338              	.Ldebug_loc0:
 2339              	.LLST0:
 2340 0000 0E000000 		.4byte	.LVL1
 2341 0004 14000000 		.4byte	.LVL2
 2342 0008 0100     		.2byte	0x1
 2343 000a 52       		.byte	0x52
 2344 000b 14000000 		.4byte	.LVL2
 2345 000f 40000000 		.4byte	.LVL4
 2346 0013 0600     		.2byte	0x6
 2347 0015 74       		.byte	0x74
 2348 0016 00       		.sleb128 0
 2349 0017 08       		.byte	0x8
 2350 0018 FF       		.byte	0xff
 2351 0019 1A       		.byte	0x1a
 2352 001a 9F       		.byte	0x9f
 2353 001b 44000000 		.4byte	.LVL5
 2354 001f 7E000000 		.4byte	.LFE119
 2355 0023 0600     		.2byte	0x6
 2356 0025 74       		.byte	0x74
 2357 0026 00       		.sleb128 0
 2358 0027 08       		.byte	0x8
 2359 0028 FF       		.byte	0xff
 2360 0029 1A       		.byte	0x1a
 2361 002a 9F       		.byte	0x9f
 2362 002b 00000000 		.4byte	0
 2363 002f 00000000 		.4byte	0
 2364              	.LLST1:
 2365 0033 00000000 		.4byte	.LVL11
 2366 0037 10000000 		.4byte	.LVL12
 2367 003b 0100     		.2byte	0x1
 2368 003d 50       		.byte	0x50
 2369 003e 10000000 		.4byte	.LVL12
 2370 0042 30000000 		.4byte	.LVL14
 2371 0046 0100     		.2byte	0x1
 2372 0048 54       		.byte	0x54
 2373 0049 30000000 		.4byte	.LVL14
 2374 004d B8000000 		.4byte	.LVL30
 2375 0051 0400     		.2byte	0x4
 2376 0053 F3       		.byte	0xf3
 2377 0054 01       		.uleb128 0x1
 2378 0055 50       		.byte	0x50
 2379 0056 9F       		.byte	0x9f
 2380 0057 B8000000 		.4byte	.LVL30
 2381 005b C4000000 		.4byte	.LVL31
 2382 005f 0100     		.2byte	0x1
 2383 0061 50       		.byte	0x50
ARM GAS  /tmp/ccfQAElU.s 			page 43


 2384 0062 C4000000 		.4byte	.LVL31
 2385 0066 D2000000 		.4byte	.LVL32
 2386 006a 0100     		.2byte	0x1
 2387 006c 54       		.byte	0x54
 2388 006d D2000000 		.4byte	.LVL32
 2389 0071 EE000000 		.4byte	.LVL33
 2390 0075 0100     		.2byte	0x1
 2391 0077 50       		.byte	0x50
 2392 0078 EE000000 		.4byte	.LVL33
 2393 007c 02010000 		.4byte	.LFE121
 2394 0080 0100     		.2byte	0x1
 2395 0082 54       		.byte	0x54
 2396 0083 00000000 		.4byte	0
 2397 0087 00000000 		.4byte	0
 2398              	.LLST2:
 2399 008b 26000000 		.4byte	.LVL13
 2400 008f 30000000 		.4byte	.LVL14
 2401 0093 1000     		.2byte	0x10
 2402 0095 74       		.byte	0x74
 2403 0096 0C       		.sleb128 12
 2404 0097 06       		.byte	0x6
 2405 0098 F7       		.byte	0xf7
 2406 0099 25       		.uleb128 0x25
 2407 009a 72       		.byte	0x72
 2408 009b 00       		.sleb128 0
 2409 009c 06       		.byte	0x6
 2410 009d F7       		.byte	0xf7
 2411 009e 25       		.uleb128 0x25
 2412 009f 1B       		.byte	0x1b
 2413 00a0 F7       		.byte	0xf7
 2414 00a1 00       		.uleb128 0
 2415 00a2 31       		.byte	0x31
 2416 00a3 1C       		.byte	0x1c
 2417 00a4 9F       		.byte	0x9f
 2418 00a5 30000000 		.4byte	.LVL14
 2419 00a9 38000000 		.4byte	.LVL15
 2420 00ad 0F00     		.2byte	0xf
 2421 00af 76       		.byte	0x76
 2422 00b0 00       		.sleb128 0
 2423 00b1 F7       		.byte	0xf7
 2424 00b2 25       		.uleb128 0x25
 2425 00b3 72       		.byte	0x72
 2426 00b4 00       		.sleb128 0
 2427 00b5 06       		.byte	0x6
 2428 00b6 F7       		.byte	0xf7
 2429 00b7 25       		.uleb128 0x25
 2430 00b8 1B       		.byte	0x1b
 2431 00b9 F7       		.byte	0xf7
 2432 00ba 00       		.uleb128 0
 2433 00bb 31       		.byte	0x31
 2434 00bc 1C       		.byte	0x1c
 2435 00bd 9F       		.byte	0x9f
 2436 00be 38000000 		.4byte	.LVL15
 2437 00c2 40000000 		.4byte	.LVL16
 2438 00c6 0100     		.2byte	0x1
 2439 00c8 50       		.byte	0x50
 2440 00c9 40000000 		.4byte	.LVL16
ARM GAS  /tmp/ccfQAElU.s 			page 44


 2441 00cd 44000000 		.4byte	.LVL17
 2442 00d1 0F00     		.2byte	0xf
 2443 00d3 76       		.byte	0x76
 2444 00d4 00       		.sleb128 0
 2445 00d5 F7       		.byte	0xf7
 2446 00d6 25       		.uleb128 0x25
 2447 00d7 72       		.byte	0x72
 2448 00d8 00       		.sleb128 0
 2449 00d9 06       		.byte	0x6
 2450 00da F7       		.byte	0xf7
 2451 00db 25       		.uleb128 0x25
 2452 00dc 1B       		.byte	0x1b
 2453 00dd F7       		.byte	0xf7
 2454 00de 00       		.uleb128 0
 2455 00df 31       		.byte	0x31
 2456 00e0 1C       		.byte	0x1c
 2457 00e1 9F       		.byte	0x9f
 2458 00e2 00000000 		.4byte	0
 2459 00e6 00000000 		.4byte	0
 2460              	.LLST3:
 2461 00ea 48000000 		.4byte	.LVL18
 2462 00ee 52000000 		.4byte	.LVL19
 2463 00f2 0200     		.2byte	0x2
 2464 00f4 30       		.byte	0x30
 2465 00f5 9F       		.byte	0x9f
 2466 00f6 52000000 		.4byte	.LVL19
 2467 00fa 90000000 		.4byte	.LVL24
 2468 00fe 0100     		.2byte	0x1
 2469 0100 51       		.byte	0x51
 2470 0101 A4000000 		.4byte	.LVL25
 2471 0105 B8000000 		.4byte	.LVL30
 2472 0109 0100     		.2byte	0x1
 2473 010b 51       		.byte	0x51
 2474 010c 00000000 		.4byte	0
 2475 0110 00000000 		.4byte	0
 2476              	.LLST4:
 2477 0114 00000000 		.4byte	.LVL35
 2478 0118 08000000 		.4byte	.LVL36
 2479 011c 0100     		.2byte	0x1
 2480 011e 50       		.byte	0x50
 2481 011f 08000000 		.4byte	.LVL36
 2482 0123 0A000000 		.4byte	.LVL37
 2483 0127 0400     		.2byte	0x4
 2484 0129 F3       		.byte	0xf3
 2485 012a 01       		.uleb128 0x1
 2486 012b 50       		.byte	0x50
 2487 012c 9F       		.byte	0x9f
 2488 012d 0A000000 		.4byte	.LVL37
 2489 0131 22000000 		.4byte	.LVL38
 2490 0135 0100     		.2byte	0x1
 2491 0137 50       		.byte	0x50
 2492 0138 22000000 		.4byte	.LVL38
 2493 013c 38000000 		.4byte	.LFE122
 2494 0140 0400     		.2byte	0x4
 2495 0142 F3       		.byte	0xf3
 2496 0143 01       		.uleb128 0x1
 2497 0144 50       		.byte	0x50
ARM GAS  /tmp/ccfQAElU.s 			page 45


 2498 0145 9F       		.byte	0x9f
 2499 0146 00000000 		.4byte	0
 2500 014a 00000000 		.4byte	0
 2501              	.LLST5:
 2502 014e 00000000 		.4byte	.LVL40
 2503 0152 0A000000 		.4byte	.LVL41
 2504 0156 0100     		.2byte	0x1
 2505 0158 50       		.byte	0x50
 2506 0159 0A000000 		.4byte	.LVL41
 2507 015d 32000000 		.4byte	.LFE123
 2508 0161 0400     		.2byte	0x4
 2509 0163 F3       		.byte	0xf3
 2510 0164 01       		.uleb128 0x1
 2511 0165 50       		.byte	0x50
 2512 0166 9F       		.byte	0x9f
 2513 0167 00000000 		.4byte	0
 2514 016b 00000000 		.4byte	0
 2515              	.LLST6:
 2516 016f 00000000 		.4byte	.LVL40
 2517 0173 20000000 		.4byte	.LVL43
 2518 0177 0100     		.2byte	0x1
 2519 0179 51       		.byte	0x51
 2520 017a 20000000 		.4byte	.LVL43
 2521 017e 32000000 		.4byte	.LFE123
 2522 0182 0400     		.2byte	0x4
 2523 0184 F3       		.byte	0xf3
 2524 0185 01       		.uleb128 0x1
 2525 0186 51       		.byte	0x51
 2526 0187 9F       		.byte	0x9f
 2527 0188 00000000 		.4byte	0
 2528 018c 00000000 		.4byte	0
 2529              	.LLST7:
 2530 0190 00000000 		.4byte	.LVL40
 2531 0194 1A000000 		.4byte	.LVL42
 2532 0198 0100     		.2byte	0x1
 2533 019a 52       		.byte	0x52
 2534 019b 1A000000 		.4byte	.LVL42
 2535 019f 32000000 		.4byte	.LFE123
 2536 01a3 0400     		.2byte	0x4
 2537 01a5 F3       		.byte	0xf3
 2538 01a6 01       		.uleb128 0x1
 2539 01a7 52       		.byte	0x52
 2540 01a8 9F       		.byte	0x9f
 2541 01a9 00000000 		.4byte	0
 2542 01ad 00000000 		.4byte	0
 2543              	.LLST8:
 2544 01b1 1A000000 		.4byte	.LVL42
 2545 01b5 26000000 		.4byte	.LVL44
 2546 01b9 0100     		.2byte	0x1
 2547 01bb 52       		.byte	0x52
 2548 01bc 00000000 		.4byte	0
 2549 01c0 00000000 		.4byte	0
 2550              	.LLST9:
 2551 01c4 00000000 		.4byte	.LVL45
 2552 01c8 0C000000 		.4byte	.LVL46
 2553 01cc 0100     		.2byte	0x1
 2554 01ce 50       		.byte	0x50
ARM GAS  /tmp/ccfQAElU.s 			page 46


 2555 01cf 0C000000 		.4byte	.LVL46
 2556 01d3 1E000000 		.4byte	.LFE124
 2557 01d7 0400     		.2byte	0x4
 2558 01d9 F3       		.byte	0xf3
 2559 01da 01       		.uleb128 0x1
 2560 01db 50       		.byte	0x50
 2561 01dc 9F       		.byte	0x9f
 2562 01dd 00000000 		.4byte	0
 2563 01e1 00000000 		.4byte	0
 2564              	.LLST10:
 2565 01e5 00000000 		.4byte	.LVL45
 2566 01e9 16000000 		.4byte	.LVL47
 2567 01ed 0100     		.2byte	0x1
 2568 01ef 51       		.byte	0x51
 2569 01f0 16000000 		.4byte	.LVL47
 2570 01f4 1E000000 		.4byte	.LFE124
 2571 01f8 0400     		.2byte	0x4
 2572 01fa F3       		.byte	0xf3
 2573 01fb 01       		.uleb128 0x1
 2574 01fc 51       		.byte	0x51
 2575 01fd 9F       		.byte	0x9f
 2576 01fe 00000000 		.4byte	0
 2577 0202 00000000 		.4byte	0
 2578              		.section	.debug_aranges,"",%progbits
 2579 0000 44000000 		.4byte	0x44
 2580 0004 0200     		.2byte	0x2
 2581 0006 00000000 		.4byte	.Ldebug_info0
 2582 000a 04       		.byte	0x4
 2583 000b 00       		.byte	0
 2584 000c 0000     		.2byte	0
 2585 000e 0000     		.2byte	0
 2586 0010 00000000 		.4byte	.LFB119
 2587 0014 7E000000 		.4byte	.LFE119-.LFB119
 2588 0018 00000000 		.4byte	.LFB120
 2589 001c 1C000000 		.4byte	.LFE120-.LFB120
 2590 0020 00000000 		.4byte	.LFB121
 2591 0024 02010000 		.4byte	.LFE121-.LFB121
 2592 0028 00000000 		.4byte	.LFB122
 2593 002c 38000000 		.4byte	.LFE122-.LFB122
 2594 0030 00000000 		.4byte	.LFB123
 2595 0034 32000000 		.4byte	.LFE123-.LFB123
 2596 0038 00000000 		.4byte	.LFB124
 2597 003c 1E000000 		.4byte	.LFE124-.LFB124
 2598 0040 00000000 		.4byte	0
 2599 0044 00000000 		.4byte	0
 2600              		.section	.debug_ranges,"",%progbits
 2601              	.Ldebug_ranges0:
 2602 0000 02000000 		.4byte	.LBB4
 2603 0004 3C000000 		.4byte	.LBE4
 2604 0008 44000000 		.4byte	.LBB7
 2605 000c 7E000000 		.4byte	.LBE7
 2606 0010 00000000 		.4byte	0
 2607 0014 00000000 		.4byte	0
 2608 0018 00000000 		.4byte	.LFB119
 2609 001c 7E000000 		.4byte	.LFE119
 2610 0020 00000000 		.4byte	.LFB120
 2611 0024 1C000000 		.4byte	.LFE120
ARM GAS  /tmp/ccfQAElU.s 			page 47


 2612 0028 00000000 		.4byte	.LFB121
 2613 002c 02010000 		.4byte	.LFE121
 2614 0030 00000000 		.4byte	.LFB122
 2615 0034 38000000 		.4byte	.LFE122
 2616 0038 00000000 		.4byte	.LFB123
 2617 003c 32000000 		.4byte	.LFE123
 2618 0040 00000000 		.4byte	.LFB124
 2619 0044 1E000000 		.4byte	.LFE124
 2620 0048 00000000 		.4byte	0
 2621 004c 00000000 		.4byte	0
 2622              		.section	.debug_line,"",%progbits
 2623              	.Ldebug_line0:
 2624 0000 90020000 		.section	.debug_str,"MS",%progbits,1
 2624      02008701 
 2624      00000201 
 2624      FB0E0D00 
 2624      01010101 
 2625              	.LASF162:
 2626 0000 70776D63 		.ascii	"pwmchannel_t\000"
 2626      68616E6E 
 2626      656C5F74 
 2626      00
 2627              	.LASF130:
 2628 000d 41504231 		.ascii	"APB1LPENR\000"
 2628      4C50454E 
 2628      5200
 2629              	.LASF48:
 2630 0017 43414E31 		.ascii	"CAN1_RX0_IRQn\000"
 2630      5F525830 
 2630      5F495251 
 2630      6E00
 2631              	.LASF29:
 2632 0025 5056445F 		.ascii	"PVD_IRQn\000"
 2632      4952516E 
 2632      00
 2633              	.LASF92:
 2634 002e 43414E32 		.ascii	"CAN2_RX0_IRQn\000"
 2634      5F525830 
 2634      5F495251 
 2634      6E00
 2635              	.LASF189:
 2636 003c 70776D5F 		.ascii	"pwm_lld_serve_interrupt\000"
 2636      6C6C645F 
 2636      73657276 
 2636      655F696E 
 2636      74657272 
 2637              	.LASF101:
 2638 0054 49324333 		.ascii	"I2C3_ER_IRQn\000"
 2638      5F45525F 
 2638      4952516E 
 2638      00
 2639              	.LASF59:
 2640 0061 49324331 		.ascii	"I2C1_EV_IRQn\000"
 2640      5F45565F 
 2640      4952516E 
 2640      00
 2641              	.LASF4:
ARM GAS  /tmp/ccfQAElU.s 			page 48


 2642 006e 5F5F7569 		.ascii	"__uint8_t\000"
 2642      6E74385F 
 2642      7400
 2643              	.LASF96:
 2644 0078 444D4132 		.ascii	"DMA2_Stream5_IRQn\000"
 2644      5F537472 
 2644      65616D35 
 2644      5F495251 
 2644      6E00
 2645              	.LASF153:
 2646 008a 43434D52 		.ascii	"CCMR2\000"
 2646      3200
 2647              	.LASF147:
 2648 0090 70657269 		.ascii	"period\000"
 2648      6F6400
 2649              	.LASF49:
 2650 0097 43414E31 		.ascii	"CAN1_RX1_IRQn\000"
 2650      5F525831 
 2650      5F495251 
 2650      6E00
 2651              	.LASF12:
 2652 00a5 6C6F6E67 		.ascii	"long long unsigned int\000"
 2652      206C6F6E 
 2652      6720756E 
 2652      7369676E 
 2652      65642069 
 2653              	.LASF69:
 2654 00bc 5254435F 		.ascii	"RTC_Alarm_IRQn\000"
 2654      416C6172 
 2654      6D5F4952 
 2654      516E00
 2655              	.LASF62:
 2656 00cb 49324332 		.ascii	"I2C2_ER_IRQn\000"
 2656      5F45525F 
 2656      4952516E 
 2656      00
 2657              	.LASF58:
 2658 00d8 54494D34 		.ascii	"TIM4_IRQn\000"
 2658      5F495251 
 2658      6E00
 2659              	.LASF31:
 2660 00e2 5254435F 		.ascii	"RTC_WKUP_IRQn\000"
 2660      574B5550 
 2660      5F495251 
 2660      6E00
 2661              	.LASF28:
 2662 00f0 57574447 		.ascii	"WWDG_IRQn\000"
 2662      5F495251 
 2662      6E00
 2663              	.LASF167:
 2664 00fa 66726571 		.ascii	"frequency\000"
 2664      75656E63 
 2664      7900
 2665              	.LASF126:
 2666 0104 41484231 		.ascii	"AHB1LPENR\000"
 2666      4C50454E 
 2666      5200
ARM GAS  /tmp/ccfQAElU.s 			page 49


 2667              	.LASF142:
 2668 010e 50574D5F 		.ascii	"PWM_READY\000"
 2668      52454144 
 2668      5900
 2669              	.LASF184:
 2670 0118 6E766963 		.ascii	"nvicEnableVector\000"
 2670      456E6162 
 2670      6C655665 
 2670      63746F72 
 2670      00
 2671              	.LASF152:
 2672 0129 43434D52 		.ascii	"CCMR1\000"
 2672      3100
 2673              	.LASF138:
 2674 012f 44434B43 		.ascii	"DCKCFGR\000"
 2674      46475200 
 2675              	.LASF157:
 2676 0137 43434D52 		.ascii	"CCMR3\000"
 2676      3300
 2677              	.LASF1:
 2678 013d 7369676E 		.ascii	"signed char\000"
 2678      65642063 
 2678      68617200 
 2679              	.LASF93:
 2680 0149 43414E32 		.ascii	"CAN2_RX1_IRQn\000"
 2680      5F525831 
 2680      5F495251 
 2680      6E00
 2681              	.LASF112:
 2682 0157 41484231 		.ascii	"AHB1RSTR\000"
 2682      52535452 
 2682      00
 2683              	.LASF161:
 2684 0160 70776D6D 		.ascii	"pwmmode_t\000"
 2684      6F64655F 
 2684      7400
 2685              	.LASF97:
 2686 016a 444D4132 		.ascii	"DMA2_Stream6_IRQn\000"
 2686      5F537472 
 2686      65616D36 
 2686      5F495251 
 2686      6E00
 2687              	.LASF145:
 2688 017c 73746174 		.ascii	"state\000"
 2688      6500
 2689              	.LASF168:
 2690 0182 6368616E 		.ascii	"channels\000"
 2690      6E656C73 
 2690      00
 2691              	.LASF8:
 2692 018b 6C6F6E67 		.ascii	"long int\000"
 2692      20696E74 
 2692      00
 2693              	.LASF173:
 2694 0194 70776D5F 		.ascii	"pwm_lld_start\000"
 2694      6C6C645F 
 2694      73746172 
ARM GAS  /tmp/ccfQAElU.s 			page 50


 2694      7400
 2695              	.LASF117:
 2696 01a2 41504232 		.ascii	"APB2RSTR\000"
 2696      52535452 
 2696      00
 2697              	.LASF44:
 2698 01ab 444D4131 		.ascii	"DMA1_Stream5_IRQn\000"
 2698      5F537472 
 2698      65616D35 
 2698      5F495251 
 2698      6E00
 2699              	.LASF51:
 2700 01bd 45585449 		.ascii	"EXTI9_5_IRQn\000"
 2700      395F355F 
 2700      4952516E 
 2700      00
 2701              	.LASF154:
 2702 01ca 43434552 		.ascii	"CCER\000"
 2702      00
 2703              	.LASF11:
 2704 01cf 6C6F6E67 		.ascii	"long long int\000"
 2704      206C6F6E 
 2704      6720696E 
 2704      7400
 2705              	.LASF90:
 2706 01dd 4554485F 		.ascii	"ETH_WKUP_IRQn\000"
 2706      574B5550 
 2706      5F495251 
 2706      6E00
 2707              	.LASF14:
 2708 01eb 75696E74 		.ascii	"uint16_t\000"
 2708      31365F74 
 2708      00
 2709              	.LASF82:
 2710 01f4 54494D36 		.ascii	"TIM6_DAC_IRQn\000"
 2710      5F444143 
 2710      5F495251 
 2710      6E00
 2711              	.LASF110:
 2712 0202 504C4C43 		.ascii	"PLLCFGR\000"
 2712      46475200 
 2713              	.LASF80:
 2714 020a 55415254 		.ascii	"UART4_IRQn\000"
 2714      345F4952 
 2714      516E00
 2715              	.LASF70:
 2716 0215 4F54475F 		.ascii	"OTG_FS_WKUP_IRQn\000"
 2716      46535F57 
 2716      4B55505F 
 2716      4952516E 
 2716      00
 2717              	.LASF26:
 2718 0226 50656E64 		.ascii	"PendSV_IRQn\000"
 2718      53565F49 
 2718      52516E00 
 2719              	.LASF72:
 2720 0232 54494D38 		.ascii	"TIM8_UP_TIM13_IRQn\000"
ARM GAS  /tmp/ccfQAElU.s 			page 51


 2720      5F55505F 
 2720      54494D31 
 2720      335F4952 
 2720      516E00
 2721              	.LASF186:
 2722 0245 2E2E2F2E 		.ascii	"../../os/hal/platforms/STM32/TIMv1/pwm_lld.c\000"
 2722      2E2F6F73 
 2722      2F68616C 
 2722      2F706C61 
 2722      74666F72 
 2723              	.LASF5:
 2724 0272 5F5F7569 		.ascii	"__uint16_t\000"
 2724      6E743136 
 2724      5F7400
 2725              	.LASF182:
 2726 027d 50574D44 		.ascii	"PWMD4\000"
 2726      3400
 2727              	.LASF171:
 2728 0283 56656374 		.ascii	"VectorB8\000"
 2728      6F724238 
 2728      00
 2729              	.LASF9:
 2730 028c 5F5F7569 		.ascii	"__uint32_t\000"
 2730      6E743332 
 2730      5F7400
 2731              	.LASF22:
 2732 0297 42757346 		.ascii	"BusFault_IRQn\000"
 2732      61756C74 
 2732      5F495251 
 2732      6E00
 2733              	.LASF74:
 2734 02a5 54494D38 		.ascii	"TIM8_CC_IRQn\000"
 2734      5F43435F 
 2734      4952516E 
 2734      00
 2735              	.LASF98:
 2736 02b2 444D4132 		.ascii	"DMA2_Stream7_IRQn\000"
 2736      5F537472 
 2736      65616D37 
 2736      5F495251 
 2736      6E00
 2737              	.LASF155:
 2738 02c4 42445452 		.ascii	"BDTR\000"
 2738      00
 2739              	.LASF0:
 2740 02c9 756E7369 		.ascii	"unsigned int\000"
 2740      676E6564 
 2740      20696E74 
 2740      00
 2741              	.LASF42:
 2742 02d6 444D4131 		.ascii	"DMA1_Stream3_IRQn\000"
 2742      5F537472 
 2742      65616D33 
 2742      5F495251 
 2742      6E00
 2743              	.LASF45:
 2744 02e8 444D4131 		.ascii	"DMA1_Stream6_IRQn\000"
ARM GAS  /tmp/ccfQAElU.s 			page 52


 2744      5F537472 
 2744      65616D36 
 2744      5F495251 
 2744      6E00
 2745              	.LASF21:
 2746 02fa 4D656D6F 		.ascii	"MemoryManagement_IRQn\000"
 2746      72794D61 
 2746      6E616765 
 2746      6D656E74 
 2746      5F495251 
 2747              	.LASF100:
 2748 0310 49324333 		.ascii	"I2C3_EV_IRQn\000"
 2748      5F45565F 
 2748      4952516E 
 2748      00
 2749              	.LASF10:
 2750 031d 6C6F6E67 		.ascii	"long unsigned int\000"
 2750      20756E73 
 2750      69676E65 
 2750      6420696E 
 2750      7400
 2751              	.LASF139:
 2752 032f 5243435F 		.ascii	"RCC_TypeDef\000"
 2752      54797065 
 2752      44656600 
 2753              	.LASF102:
 2754 033b 4F54475F 		.ascii	"OTG_HS_EP1_OUT_IRQn\000"
 2754      48535F45 
 2754      50315F4F 
 2754      55545F49 
 2754      52516E00 
 2755              	.LASF77:
 2756 034f 5344494F 		.ascii	"SDIO_IRQn\000"
 2756      5F495251 
 2756      6E00
 2757              	.LASF179:
 2758 0359 77696474 		.ascii	"width\000"
 2758      6800
 2759              	.LASF24:
 2760 035f 53564361 		.ascii	"SVCall_IRQn\000"
 2760      6C6C5F49 
 2760      52516E00 
 2761              	.LASF150:
 2762 036b 534D4352 		.ascii	"SMCR\000"
 2762      00
 2763              	.LASF86:
 2764 0370 444D4132 		.ascii	"DMA2_Stream2_IRQn\000"
 2764      5F537472 
 2764      65616D32 
 2764      5F495251 
 2764      6E00
 2765              	.LASF136:
 2766 0382 504C4C49 		.ascii	"PLLI2SCFGR\000"
 2766      32534346 
 2766      475200
 2767              	.LASF47:
 2768 038d 43414E31 		.ascii	"CAN1_TX_IRQn\000"
ARM GAS  /tmp/ccfQAElU.s 			page 53


 2768      5F54585F 
 2768      4952516E 
 2768      00
 2769              	.LASF114:
 2770 039a 41484233 		.ascii	"AHB3RSTR\000"
 2770      52535452 
 2770      00
 2771              	.LASF68:
 2772 03a3 45585449 		.ascii	"EXTI15_10_IRQn\000"
 2772      31355F31 
 2772      305F4952 
 2772      516E00
 2773              	.LASF63:
 2774 03b2 53504931 		.ascii	"SPI1_IRQn\000"
 2774      5F495251 
 2774      6E00
 2775              	.LASF165:
 2776 03bc 63616C6C 		.ascii	"callback\000"
 2776      6261636B 
 2776      00
 2777              	.LASF160:
 2778 03c5 73746D33 		.ascii	"stm32_tim_t\000"
 2778      325F7469 
 2778      6D5F7400 
 2779              	.LASF131:
 2780 03d1 41504232 		.ascii	"APB2LPENR\000"
 2780      4C50454E 
 2780      5200
 2781              	.LASF174:
 2782 03db 63636572 		.ascii	"ccer\000"
 2782      00
 2783              	.LASF71:
 2784 03e0 54494D38 		.ascii	"TIM8_BRK_TIM12_IRQn\000"
 2784      5F42524B 
 2784      5F54494D 
 2784      31325F49 
 2784      52516E00 
 2785              	.LASF176:
 2786 03f4 70776D70 		.ascii	"pwmp\000"
 2786      00
 2787              	.LASF27:
 2788 03f9 53797354 		.ascii	"SysTick_IRQn\000"
 2788      69636B5F 
 2788      4952516E 
 2788      00
 2789              	.LASF55:
 2790 0406 54494D31 		.ascii	"TIM1_CC_IRQn\000"
 2790      5F43435F 
 2790      4952516E 
 2790      00
 2791              	.LASF73:
 2792 0413 54494D38 		.ascii	"TIM8_TRG_COM_TIM14_IRQn\000"
 2792      5F545247 
 2792      5F434F4D 
 2792      5F54494D 
 2792      31345F49 
 2793              	.LASF187:
ARM GAS  /tmp/ccfQAElU.s 			page 54


 2794 042b 2F686F6D 		.ascii	"/home/caroline/Documents/PAF/ChibiOS_2.6.4/demos/AR"
 2794      652F6361 
 2794      726F6C69 
 2794      6E652F44 
 2794      6F63756D 
 2795 045e 4D434D34 		.ascii	"MCM4-STM32F407-LWIP\000"
 2795      2D53544D 
 2795      33324634 
 2795      30372D4C 
 2795      57495000 
 2796              	.LASF188:
 2797 0472 4952516E 		.ascii	"IRQn\000"
 2797      00
 2798              	.LASF18:
 2799 0477 73697A65 		.ascii	"sizetype\000"
 2799      74797065 
 2799      00
 2800              	.LASF89:
 2801 0480 4554485F 		.ascii	"ETH_IRQn\000"
 2801      4952516E 
 2801      00
 2802              	.LASF53:
 2803 0489 54494D31 		.ascii	"TIM1_UP_TIM10_IRQn\000"
 2803      5F55505F 
 2803      54494D31 
 2803      305F4952 
 2803      516E00
 2804              	.LASF87:
 2805 049c 444D4132 		.ascii	"DMA2_Stream3_IRQn\000"
 2805      5F537472 
 2805      65616D33 
 2805      5F495251 
 2805      6E00
 2806              	.LASF43:
 2807 04ae 444D4131 		.ascii	"DMA1_Stream4_IRQn\000"
 2807      5F537472 
 2807      65616D34 
 2807      5F495251 
 2807      6E00
 2808              	.LASF99:
 2809 04c0 55534152 		.ascii	"USART6_IRQn\000"
 2809      54365F49 
 2809      52516E00 
 2810              	.LASF78:
 2811 04cc 54494D35 		.ascii	"TIM5_IRQn\000"
 2811      5F495251 
 2811      6E00
 2812              	.LASF37:
 2813 04d6 45585449 		.ascii	"EXTI3_IRQn\000"
 2813      335F4952 
 2813      516E00
 2814              	.LASF64:
 2815 04e1 53504932 		.ascii	"SPI2_IRQn\000"
 2815      5F495251 
 2815      6E00
 2816              	.LASF41:
 2817 04eb 444D4131 		.ascii	"DMA1_Stream2_IRQn\000"
ARM GAS  /tmp/ccfQAElU.s 			page 55


 2817      5F537472 
 2817      65616D32 
 2817      5F495251 
 2817      6E00
 2818              	.LASF91:
 2819 04fd 43414E32 		.ascii	"CAN2_TX_IRQn\000"
 2819      5F54585F 
 2819      4952516E 
 2819      00
 2820              	.LASF127:
 2821 050a 41484232 		.ascii	"AHB2LPENR\000"
 2821      4C50454E 
 2821      5200
 2822              	.LASF116:
 2823 0514 41504231 		.ascii	"APB1RSTR\000"
 2823      52535452 
 2823      00
 2824              	.LASF105:
 2825 051d 4F54475F 		.ascii	"OTG_HS_IRQn\000"
 2825      48535F49 
 2825      52516E00 
 2826              	.LASF137:
 2827 0529 504C4C53 		.ascii	"PLLSAICFGR\000"
 2827      41494346 
 2827      475200
 2828              	.LASF149:
 2829 0534 70776D63 		.ascii	"pwmcallback_t\000"
 2829      616C6C62 
 2829      61636B5F 
 2829      7400
 2830              	.LASF115:
 2831 0542 52455345 		.ascii	"RESERVED0\000"
 2831      52564544 
 2831      3000
 2832              	.LASF118:
 2833 054c 52455345 		.ascii	"RESERVED1\000"
 2833      52564544 
 2833      3100
 2834              	.LASF122:
 2835 0556 52455345 		.ascii	"RESERVED2\000"
 2835      52564544 
 2835      3200
 2836              	.LASF125:
 2837 0560 52455345 		.ascii	"RESERVED3\000"
 2837      52564544 
 2837      3300
 2838              	.LASF129:
 2839 056a 52455345 		.ascii	"RESERVED4\000"
 2839      52564544 
 2839      3400
 2840              	.LASF132:
 2841 0574 52455345 		.ascii	"RESERVED5\000"
 2841      52564544 
 2841      3500
 2842              	.LASF134:
 2843 057e 52455345 		.ascii	"RESERVED6\000"
 2843      52564544 
ARM GAS  /tmp/ccfQAElU.s 			page 56


 2843      3600
 2844              	.LASF79:
 2845 0588 53504933 		.ascii	"SPI3_IRQn\000"
 2845      5F495251 
 2845      6E00
 2846              	.LASF88:
 2847 0592 444D4132 		.ascii	"DMA2_Stream4_IRQn\000"
 2847      5F537472 
 2847      65616D34 
 2847      5F495251 
 2847      6E00
 2848              	.LASF76:
 2849 05a4 46534D43 		.ascii	"FSMC_IRQn\000"
 2849      5F495251 
 2849      6E00
 2850              	.LASF17:
 2851 05ae 5F426F6F 		.ascii	"_Bool\000"
 2851      6C00
 2852              	.LASF15:
 2853 05b4 696E7433 		.ascii	"int32_t\000"
 2853      325F7400 
 2854              	.LASF2:
 2855 05bc 756E7369 		.ascii	"unsigned char\000"
 2855      676E6564 
 2855      20636861 
 2855      7200
 2856              	.LASF52:
 2857 05ca 54494D31 		.ascii	"TIM1_BRK_TIM9_IRQn\000"
 2857      5F42524B 
 2857      5F54494D 
 2857      395F4952 
 2857      516E00
 2858              	.LASF181:
 2859 05dd 49544D5F 		.ascii	"ITM_RxBuffer\000"
 2859      52784275 
 2859      66666572 
 2859      00
 2860              	.LASF38:
 2861 05ea 45585449 		.ascii	"EXTI4_IRQn\000"
 2861      345F4952 
 2861      516E00
 2862              	.LASF108:
 2863 05f5 48415348 		.ascii	"HASH_RNG_IRQn\000"
 2863      5F524E47 
 2863      5F495251 
 2863      6E00
 2864              	.LASF3:
 2865 0603 73686F72 		.ascii	"short int\000"
 2865      7420696E 
 2865      7400
 2866              	.LASF128:
 2867 060d 41484233 		.ascii	"AHB3LPENR\000"
 2867      4C50454E 
 2867      5200
 2868              	.LASF81:
 2869 0617 55415254 		.ascii	"UART5_IRQn\000"
 2869      355F4952 
ARM GAS  /tmp/ccfQAElU.s 			page 57


 2869      516E00
 2870              	.LASF54:
 2871 0622 54494D31 		.ascii	"TIM1_TRG_COM_TIM11_IRQn\000"
 2871      5F545247 
 2871      5F434F4D 
 2871      5F54494D 
 2871      31315F49 
 2872              	.LASF6:
 2873 063a 73686F72 		.ascii	"short unsigned int\000"
 2873      7420756E 
 2873      7369676E 
 2873      65642069 
 2873      6E7400
 2874              	.LASF36:
 2875 064d 45585449 		.ascii	"EXTI2_IRQn\000"
 2875      325F4952 
 2875      516E00
 2876              	.LASF124:
 2877 0658 41504232 		.ascii	"APB2ENR\000"
 2877      454E5200 
 2878              	.LASF178:
 2879 0660 6368616E 		.ascii	"channel\000"
 2879      6E656C00 
 2880              	.LASF121:
 2881 0668 41484233 		.ascii	"AHB3ENR\000"
 2881      454E5200 
 2882              	.LASF32:
 2883 0670 464C4153 		.ascii	"FLASH_IRQn\000"
 2883      485F4952 
 2883      516E00
 2884              	.LASF175:
 2885 067b 70776D5F 		.ascii	"pwm_lld_stop\000"
 2885      6C6C645F 
 2885      73746F70 
 2885      00
 2886              	.LASF95:
 2887 0688 4F54475F 		.ascii	"OTG_FS_IRQn\000"
 2887      46535F49 
 2887      52516E00 
 2888              	.LASF16:
 2889 0694 75696E74 		.ascii	"uint32_t\000"
 2889      33325F74 
 2889      00
 2890              	.LASF66:
 2891 069d 55534152 		.ascii	"USART2_IRQn\000"
 2891      54325F49 
 2891      52516E00 
 2892              	.LASF23:
 2893 06a9 55736167 		.ascii	"UsageFault_IRQn\000"
 2893      65466175 
 2893      6C745F49 
 2893      52516E00 
 2894              	.LASF170:
 2895 06b9 50574D43 		.ascii	"PWMConfig\000"
 2895      6F6E6669 
 2895      6700
 2896              	.LASF191:
ARM GAS  /tmp/ccfQAElU.s 			page 58


 2897 06c3 6E766963 		.ascii	"nvicDisableVector\000"
 2897      44697361 
 2897      626C6556 
 2897      6563746F 
 2897      7200
 2898              	.LASF75:
 2899 06d5 444D4131 		.ascii	"DMA1_Stream7_IRQn\000"
 2899      5F537472 
 2899      65616D37 
 2899      5F495251 
 2899      6E00
 2900              	.LASF177:
 2901 06e7 70776D5F 		.ascii	"pwm_lld_enable_channel\000"
 2901      6C6C645F 
 2901      656E6162 
 2901      6C655F63 
 2901      68616E6E 
 2902              	.LASF141:
 2903 06fe 50574D5F 		.ascii	"PWM_STOP\000"
 2903      53544F50 
 2903      00
 2904              	.LASF19:
 2905 0707 63686172 		.ascii	"char\000"
 2905      00
 2906              	.LASF185:
 2907 070c 474E5520 		.ascii	"GNU C 4.8.2 -mcpu=cortex-m4 -mno-thumb-interwork -m"
 2907      4320342E 
 2907      382E3220 
 2907      2D6D6370 
 2907      753D636F 
 2908 073f 7468756D 		.ascii	"thumb -ggdb -O2 -std=gnu99 -fomit-frame-pointer -fa"
 2908      62202D67 
 2908      67646220 
 2908      2D4F3220 
 2908      2D737464 
 2909 0772 6C69676E 		.ascii	"lign-functions=16 -ffunction-sections -fdata-sectio"
 2909      2D66756E 
 2909      6374696F 
 2909      6E733D31 
 2909      36202D66 
 2910 07a5 6E73202D 		.ascii	"ns -fno-common\000"
 2910      666E6F2D 
 2910      636F6D6D 
 2910      6F6E00
 2911              	.LASF164:
 2912 07b4 6D6F6465 		.ascii	"mode\000"
 2912      00
 2913              	.LASF107:
 2914 07b9 43525950 		.ascii	"CRYP_IRQn\000"
 2914      5F495251 
 2914      6E00
 2915              	.LASF146:
 2916 07c3 636F6E66 		.ascii	"config\000"
 2916      696700
 2917              	.LASF156:
 2918 07ca 444D4152 		.ascii	"DMAR\000"
 2918      00
ARM GAS  /tmp/ccfQAElU.s 			page 59


 2919              	.LASF113:
 2920 07cf 41484232 		.ascii	"AHB2RSTR\000"
 2920      52535452 
 2920      00
 2921              	.LASF83:
 2922 07d8 54494D37 		.ascii	"TIM7_IRQn\000"
 2922      5F495251 
 2922      6E00
 2923              	.LASF40:
 2924 07e2 444D4131 		.ascii	"DMA1_Stream1_IRQn\000"
 2924      5F537472 
 2924      65616D31 
 2924      5F495251 
 2924      6E00
 2925              	.LASF103:
 2926 07f4 4F54475F 		.ascii	"OTG_HS_EP1_IN_IRQn\000"
 2926      48535F45 
 2926      50315F49 
 2926      4E5F4952 
 2926      516E00
 2927              	.LASF20:
 2928 0807 4E6F6E4D 		.ascii	"NonMaskableInt_IRQn\000"
 2928      61736B61 
 2928      626C6549 
 2928      6E745F49 
 2928      52516E00 
 2929              	.LASF7:
 2930 081b 5F5F696E 		.ascii	"__int32_t\000"
 2930      7433325F 
 2930      7400
 2931              	.LASF123:
 2932 0825 41504231 		.ascii	"APB1ENR\000"
 2932      454E5200 
 2933              	.LASF120:
 2934 082d 41484232 		.ascii	"AHB2ENR\000"
 2934      454E5200 
 2935              	.LASF30:
 2936 0835 54414D50 		.ascii	"TAMP_STAMP_IRQn\000"
 2936      5F535441 
 2936      4D505F49 
 2936      52516E00 
 2937              	.LASF166:
 2938 0845 50574D43 		.ascii	"PWMChannelConfig\000"
 2938      68616E6E 
 2938      656C436F 
 2938      6E666967 
 2938      00
 2939              	.LASF25:
 2940 0856 44656275 		.ascii	"DebugMonitor_IRQn\000"
 2940      674D6F6E 
 2940      69746F72 
 2940      5F495251 
 2940      6E00
 2941              	.LASF84:
 2942 0868 444D4132 		.ascii	"DMA2_Stream0_IRQn\000"
 2942      5F537472 
 2942      65616D30 
ARM GAS  /tmp/ccfQAElU.s 			page 60


 2942      5F495251 
 2942      6E00
 2943              	.LASF61:
 2944 087a 49324332 		.ascii	"I2C2_EV_IRQn\000"
 2944      5F45565F 
 2944      4952516E 
 2944      00
 2945              	.LASF67:
 2946 0887 55534152 		.ascii	"USART3_IRQn\000"
 2946      54335F49 
 2946      52516E00 
 2947              	.LASF135:
 2948 0893 53534347 		.ascii	"SSCGR\000"
 2948      5200
 2949              	.LASF56:
 2950 0899 54494D32 		.ascii	"TIM2_IRQn\000"
 2950      5F495251 
 2950      6E00
 2951              	.LASF34:
 2952 08a3 45585449 		.ascii	"EXTI0_IRQn\000"
 2952      305F4952 
 2952      516E00
 2953              	.LASF158:
 2954 08ae 43435235 		.ascii	"CCR5\000"
 2954      00
 2955              	.LASF159:
 2956 08b3 43435236 		.ascii	"CCR6\000"
 2956      00
 2957              	.LASF65:
 2958 08b8 55534152 		.ascii	"USART1_IRQn\000"
 2958      54315F49 
 2958      52516E00 
 2959              	.LASF133:
 2960 08c4 42444352 		.ascii	"BDCR\000"
 2960      00
 2961              	.LASF190:
 2962 08c9 5F706F72 		.ascii	"_port_irq_epilogue\000"
 2962      745F6972 
 2962      715F6570 
 2962      696C6F67 
 2962      756500
 2963              	.LASF13:
 2964 08dc 75696E74 		.ascii	"uint8_t\000"
 2964      385F7400 
 2965              	.LASF144:
 2966 08e4 50574D44 		.ascii	"PWMDriver\000"
 2966      72697665 
 2966      7200
 2967              	.LASF106:
 2968 08ee 44434D49 		.ascii	"DCMI_IRQn\000"
 2968      5F495251 
 2968      6E00
 2969              	.LASF143:
 2970 08f8 70776D73 		.ascii	"pwmstate_t\000"
 2970      74617465 
 2970      5F7400
 2971              	.LASF163:
ARM GAS  /tmp/ccfQAElU.s 			page 61


 2972 0903 70776D63 		.ascii	"pwmcnt_t\000"
 2972      6E745F74 
 2972      00
 2973              	.LASF119:
 2974 090c 41484231 		.ascii	"AHB1ENR\000"
 2974      454E5200 
 2975              	.LASF151:
 2976 0914 44494552 		.ascii	"DIER\000"
 2976      00
 2977              	.LASF109:
 2978 0919 4650555F 		.ascii	"FPU_IRQn\000"
 2978      4952516E 
 2978      00
 2979              	.LASF111:
 2980 0922 43464752 		.ascii	"CFGR\000"
 2980      00
 2981              	.LASF180:
 2982 0927 70776D5F 		.ascii	"pwm_lld_disable_channel\000"
 2982      6C6C645F 
 2982      64697361 
 2982      626C655F 
 2982      6368616E 
 2983              	.LASF148:
 2984 093f 636C6F63 		.ascii	"clock\000"
 2984      6B00
 2985              	.LASF60:
 2986 0945 49324331 		.ascii	"I2C1_ER_IRQn\000"
 2986      5F45525F 
 2986      4952516E 
 2986      00
 2987              	.LASF172:
 2988 0952 70776D5F 		.ascii	"pwm_lld_init\000"
 2988      6C6C645F 
 2988      696E6974 
 2988      00
 2989              	.LASF46:
 2990 095f 4144435F 		.ascii	"ADC_IRQn\000"
 2990      4952516E 
 2990      00
 2991              	.LASF85:
 2992 0968 444D4132 		.ascii	"DMA2_Stream1_IRQn\000"
 2992      5F537472 
 2992      65616D31 
 2992      5F495251 
 2992      6E00
 2993              	.LASF140:
 2994 097a 50574D5F 		.ascii	"PWM_UNINIT\000"
 2994      554E494E 
 2994      495400
 2995              	.LASF50:
 2996 0985 43414E31 		.ascii	"CAN1_SCE_IRQn\000"
 2996      5F534345 
 2996      5F495251 
 2996      6E00
 2997              	.LASF183:
 2998 0993 70776D4F 		.ascii	"pwmObjectInit\000"
 2998      626A6563 
ARM GAS  /tmp/ccfQAElU.s 			page 62


 2998      74496E69 
 2998      7400
 2999              	.LASF94:
 3000 09a1 43414E32 		.ascii	"CAN2_SCE_IRQn\000"
 3000      5F534345 
 3000      5F495251 
 3000      6E00
 3001              	.LASF33:
 3002 09af 5243435F 		.ascii	"RCC_IRQn\000"
 3002      4952516E 
 3002      00
 3003              	.LASF104:
 3004 09b8 4F54475F 		.ascii	"OTG_HS_WKUP_IRQn\000"
 3004      48535F57 
 3004      4B55505F 
 3004      4952516E 
 3004      00
 3005              	.LASF57:
 3006 09c9 54494D33 		.ascii	"TIM3_IRQn\000"
 3006      5F495251 
 3006      6E00
 3007              	.LASF35:
 3008 09d3 45585449 		.ascii	"EXTI1_IRQn\000"
 3008      315F4952 
 3008      516E00
 3009              	.LASF169:
 3010 09de 64696572 		.ascii	"dier\000"
 3010      00
 3011              	.LASF39:
 3012 09e3 444D4131 		.ascii	"DMA1_Stream0_IRQn\000"
 3012      5F537472 
 3012      65616D30 
 3012      5F495251 
 3012      6E00
 3013              		.ident	"GCC: (4.8.2-14ubuntu1+6) 4.8.2"
ARM GAS  /tmp/ccfQAElU.s 			page 63


DEFINED SYMBOLS
                            *ABS*:0000000000000000 pwm_lld.c
     /tmp/ccfQAElU.s:19     .text.VectorB8:0000000000000000 $t
     /tmp/ccfQAElU.s:25     .text.VectorB8:0000000000000000 VectorB8
     /tmp/ccfQAElU.s:548    .bss.PWMD4:0000000000000000 .LANCHOR0
     /tmp/ccfQAElU.s:134    .text.pwm_lld_init:0000000000000000 $t
     /tmp/ccfQAElU.s:140    .text.pwm_lld_init:0000000000000000 pwm_lld_init
     /tmp/ccfQAElU.s:165    .text.pwm_lld_start:0000000000000000 $t
     /tmp/ccfQAElU.s:171    .text.pwm_lld_start:0000000000000000 pwm_lld_start
     /tmp/ccfQAElU.s:392    .text.pwm_lld_stop:0000000000000000 $t
     /tmp/ccfQAElU.s:398    .text.pwm_lld_stop:0000000000000000 pwm_lld_stop
     /tmp/ccfQAElU.s:452    .text.pwm_lld_enable_channel:0000000000000000 $t
     /tmp/ccfQAElU.s:458    .text.pwm_lld_enable_channel:0000000000000000 pwm_lld_enable_channel
     /tmp/ccfQAElU.s:513    .text.pwm_lld_disable_channel:0000000000000000 $t
     /tmp/ccfQAElU.s:519    .text.pwm_lld_disable_channel:0000000000000000 pwm_lld_disable_channel
     /tmp/ccfQAElU.s:551    .bss.PWMD4:0000000000000000 PWMD4
     /tmp/ccfQAElU.s:547    .bss.PWMD4:0000000000000000 $d
                     .debug_frame:0000000000000010 $d

UNDEFINED SYMBOLS
_port_irq_epilogue
pwmObjectInit
nvicEnableVector
nvicDisableVector
