ARM GAS  /tmp/cci4YM7r.s 			page 1


   1              		.syntax unified
   2              		.cpu cortex-m4
   3              		.fpu softvfp
   4              		.eabi_attribute 20, 1
   5              		.eabi_attribute 21, 1
   6              		.eabi_attribute 23, 3
   7              		.eabi_attribute 24, 1
   8              		.eabi_attribute 25, 1
   9              		.eabi_attribute 26, 1
  10              		.eabi_attribute 30, 2
  11              		.eabi_attribute 34, 1
  12              		.eabi_attribute 18, 4
  13              		.thumb
  14              		.file	"raw.c"
  15              		.text
  16              	.Ltext0:
  17              		.cfi_sections	.debug_frame
  18              		.section	.text.raw_input,"ax",%progbits
  19              		.align	2
  20              		.p2align 4,,15
  21              		.global	raw_input
  22              		.thumb
  23              		.thumb_func
  24              		.type	raw_input, %function
  25              	raw_input:
  26              	.LFB7:
  27              		.file 1 "../../ext/lwip/src/core/raw.c"
  28              		.loc 1 77 0
  29              		.cfi_startproc
  30              		@ args = 0, pretend = 0, frame = 0
  31              		@ frame_needed = 0, uses_anonymous_args = 0
  32              	.LVL0:
  33 0000 2DE9F047 		push	{r4, r5, r6, r7, r8, r9, r10, lr}
  34              		.cfi_def_cfa_offset 32
  35              		.cfi_offset 4, -32
  36              		.cfi_offset 5, -28
  37              		.cfi_offset 6, -24
  38              		.cfi_offset 7, -20
  39              		.cfi_offset 8, -16
  40              		.cfi_offset 9, -12
  41              		.cfi_offset 10, -8
  42              		.cfi_offset 14, -4
  43              		.loc 1 89 0
  44 0004 40F2000A 		movw	r10, #:lower16:.LANCHOR0
  45 0008 C0F2000A 		movt	r10, #:upper16:.LANCHOR0
  46              		.loc 1 86 0
  47 000c 4368     		ldr	r3, [r0, #4]
  48              		.loc 1 89 0
  49 000e DAF80040 		ldr	r4, [r10]
  50              		.loc 1 86 0
  51 0012 5E7A     		ldrb	r6, [r3, #9]	@ zero_extendqisi2
  52              		.loc 1 95 0
  53 0014 40F20009 		movw	r9, #:lower16:current_iphdr_dest
  54              		.loc 1 77 0
  55 0018 8046     		mov	r8, r0
  56              	.LVL1:
  57              		.loc 1 95 0
ARM GAS  /tmp/cci4YM7r.s 			page 2


  58 001a C0F20009 		movt	r9, #:upper16:current_iphdr_dest
  59              		.loc 1 88 0
  60 001e 0025     		movs	r5, #0
  61              		.loc 1 92 0
  62 0020 24B9     		cbnz	r4, .L8
  63 0022 26E0     		b	.L7
  64              	.LVL2:
  65              	.L4:
  66              		.loc 1 122 0
  67 0024 E368     		ldr	r3, [r4, #12]
  68              	.LVL3:
  69              		.loc 1 92 0
  70 0026 23B3     		cbz	r3, .L7
  71 0028 2546     		mov	r5, r4
  72              	.LVL4:
  73              		.loc 1 122 0
  74 002a 1C46     		mov	r4, r3
  75              	.LVL5:
  76              	.L8:
  77              		.loc 1 93 0
  78 002c 237C     		ldrb	r3, [r4, #16]	@ zero_extendqisi2
  79 002e B342     		cmp	r3, r6
  80 0030 F8D1     		bne	.L4
  81              		.loc 1 94 0 discriminator 1
  82 0032 2068     		ldr	r0, [r4]
  83              		.loc 1 104 0 discriminator 1
  84 0034 40F20003 		movw	r3, #:lower16:current_iphdr_src
  85 0038 2146     		mov	r1, r4
  86 003a 4246     		mov	r2, r8
  87 003c C0F20003 		movt	r3, #:upper16:current_iphdr_src
  88              		.loc 1 94 0 discriminator 1
  89 0040 18B1     		cbz	r0, .L5
  90 0042 D9F80070 		ldr	r7, [r9]
  91 0046 B842     		cmp	r0, r7
  92 0048 ECD1     		bne	.L4
  93              	.L5:
  94              		.loc 1 102 0
  95 004a D4F814C0 		ldr	ip, [r4, #20]
  96 004e BCF1000F 		cmp	ip, #0
  97 0052 E7D0     		beq	.L4
  98              		.loc 1 104 0
  99 0054 A069     		ldr	r0, [r4, #24]
 100 0056 E047     		blx	ip
 101              	.LVL6:
 102 0058 0028     		cmp	r0, #0
 103 005a E3D0     		beq	.L4
 104              	.LVL7:
 105              		.loc 1 108 0
 106 005c 35B1     		cbz	r5, .L6
 107              		.loc 1 111 0
 108 005e E368     		ldr	r3, [r4, #12]
 109              		.loc 1 112 0
 110 0060 DAF80020 		ldr	r2, [r10]
 111              		.loc 1 111 0
 112 0064 EB60     		str	r3, [r5, #12]
 113              		.loc 1 113 0
 114 0066 CAF80040 		str	r4, [r10]
ARM GAS  /tmp/cci4YM7r.s 			page 3


 115              		.loc 1 112 0
 116 006a E260     		str	r2, [r4, #12]
 117              	.L6:
 118              	.LVL8:
 119              		.loc 1 88 0
 120 006c 0120     		movs	r0, #1
 121              		.loc 1 125 0
 122 006e BDE8F087 		pop	{r4, r5, r6, r7, r8, r9, r10, pc}
 123              	.LVL9:
 124              	.L7:
 125              		.loc 1 81 0
 126 0072 0020     		movs	r0, #0
 127 0074 BDE8F087 		pop	{r4, r5, r6, r7, r8, r9, r10, pc}
 128              		.cfi_endproc
 129              	.LFE7:
 130              		.size	raw_input, .-raw_input
 131 0078 AFF30080 		.section	.text.raw_bind,"ax",%progbits
 131      AFF30080 
 132              		.align	2
 133              		.p2align 4,,15
 134              		.global	raw_bind
 135              		.thumb
 136              		.thumb_func
 137              		.type	raw_bind, %function
 138              	raw_bind:
 139              	.LFB8:
 140              		.loc 1 143 0
 141              		.cfi_startproc
 142              		@ args = 0, pretend = 0, frame = 0
 143              		@ frame_needed = 0, uses_anonymous_args = 0
 144              		@ link register save eliminated.
 145              	.LVL10:
 146              		.loc 1 144 0
 147 0000 01B1     		cbz	r1, .L27
 148              		.loc 1 144 0 is_stmt 0 discriminator 1
 149 0002 0968     		ldr	r1, [r1]
 150              	.LVL11:
 151              	.L27:
 152              		.loc 1 144 0 discriminator 3
 153 0004 0160     		str	r1, [r0]
 154              		.loc 1 146 0 is_stmt 1 discriminator 3
 155 0006 0020     		movs	r0, #0
 156              	.LVL12:
 157 0008 7047     		bx	lr
 158              		.cfi_endproc
 159              	.LFE8:
 160              		.size	raw_bind, .-raw_bind
 161 000a 00BFAFF3 		.section	.text.raw_connect,"ax",%progbits
 161      0080
 162              		.align	2
 163              		.p2align 4,,15
 164              		.global	raw_connect
 165              		.thumb
 166              		.thumb_func
 167              		.type	raw_connect, %function
 168              	raw_connect:
 169              	.LFB9:
ARM GAS  /tmp/cci4YM7r.s 			page 4


 170              		.loc 1 163 0
 171              		.cfi_startproc
 172              		@ args = 0, pretend = 0, frame = 0
 173              		@ frame_needed = 0, uses_anonymous_args = 0
 174              		@ link register save eliminated.
 175              	.LVL13:
 176              		.loc 1 164 0
 177 0000 01B1     		cbz	r1, .L30
 178              		.loc 1 164 0 is_stmt 0 discriminator 1
 179 0002 0968     		ldr	r1, [r1]
 180              	.LVL14:
 181              	.L30:
 182              		.loc 1 164 0 discriminator 3
 183 0004 4160     		str	r1, [r0, #4]
 184              		.loc 1 166 0 is_stmt 1 discriminator 3
 185 0006 0020     		movs	r0, #0
 186              	.LVL15:
 187 0008 7047     		bx	lr
 188              		.cfi_endproc
 189              	.LFE9:
 190              		.size	raw_connect, .-raw_connect
 191 000a 00BFAFF3 		.section	.text.raw_recv,"ax",%progbits
 191      0080
 192              		.align	2
 193              		.p2align 4,,15
 194              		.global	raw_recv
 195              		.thumb
 196              		.thumb_func
 197              		.type	raw_recv, %function
 198              	raw_recv:
 199              	.LFB10:
 200              		.loc 1 184 0
 201              		.cfi_startproc
 202              		@ args = 0, pretend = 0, frame = 0
 203              		@ frame_needed = 0, uses_anonymous_args = 0
 204              		@ link register save eliminated.
 205              	.LVL16:
 206              		.loc 1 186 0
 207 0000 4161     		str	r1, [r0, #20]
 208              		.loc 1 187 0
 209 0002 8261     		str	r2, [r0, #24]
 210 0004 7047     		bx	lr
 211              		.cfi_endproc
 212              	.LFE10:
 213              		.size	raw_recv, .-raw_recv
 214 0006 00BFAFF3 		.section	.text.raw_sendto,"ax",%progbits
 214      0080AFF3 
 214      0080
 215              		.align	2
 216              		.p2align 4,,15
 217              		.global	raw_sendto
 218              		.thumb
 219              		.thumb_func
 220              		.type	raw_sendto, %function
 221              	raw_sendto:
 222              	.LFB11:
 223              		.loc 1 204 0
ARM GAS  /tmp/cci4YM7r.s 			page 5


 224              		.cfi_startproc
 225              		@ args = 0, pretend = 0, frame = 0
 226              		@ frame_needed = 0, uses_anonymous_args = 0
 227              	.LVL17:
 228 0000 2DE9F041 		push	{r4, r5, r6, r7, r8, lr}
 229              		.cfi_def_cfa_offset 24
 230              		.cfi_offset 4, -24
 231              		.cfi_offset 5, -20
 232              		.cfi_offset 6, -16
 233              		.cfi_offset 7, -12
 234              		.cfi_offset 8, -8
 235              		.cfi_offset 14, -4
 236 0004 0D46     		mov	r5, r1
 237 0006 84B0     		sub	sp, sp, #16
 238              		.cfi_def_cfa_offset 40
 239              		.loc 1 204 0
 240 0008 0446     		mov	r4, r0
 241              		.loc 1 213 0
 242 000a 1421     		movs	r1, #20
 243              	.LVL18:
 244 000c 2846     		mov	r0, r5
 245              	.LVL19:
 246              		.loc 1 204 0
 247 000e 9046     		mov	r8, r2
 248              		.loc 1 213 0
 249 0010 FFF7FEFF 		bl	pbuf_header
 250              	.LVL20:
 251 0014 0028     		cmp	r0, #0
 252 0016 2DD0     		beq	.L34
 253              		.loc 1 215 0
 254 0018 0021     		movs	r1, #0
 255 001a 0A46     		mov	r2, r1
 256 001c 0120     		movs	r0, #1
 257 001e FFF7FEFF 		bl	pbuf_alloc
 258              	.LVL21:
 259              		.loc 1 217 0
 260 0022 0746     		mov	r7, r0
 261 0024 0028     		cmp	r0, #0
 262 0026 44D0     		beq	.L43
 263              		.loc 1 221 0
 264 0028 2B89     		ldrh	r3, [r5, #8]
 265 002a 002B     		cmp	r3, #0
 266 002c 39D1     		bne	.L56
 267              	.LVL22:
 268              	.L36:
 269              		.loc 1 236 0
 270 002e 4046     		mov	r0, r8
 271 0030 FFF7FEFF 		bl	ip_route
 272              	.LVL23:
 273 0034 0646     		mov	r6, r0
 274 0036 50B3     		cbz	r0, .L57
 275              	.L38:
 276              		.loc 1 258 0
 277 0038 2146     		mov	r1, r4
 278 003a 0CB1     		cbz	r4, .L40
 279              	.LVL24:
 280              		.loc 1 258 0 is_stmt 0 discriminator 1
ARM GAS  /tmp/cci4YM7r.s 			page 6


 281 003c 2368     		ldr	r3, [r4]
 282 003e 03B9     		cbnz	r3, .L41
 283              	.L40:
 284              		.loc 1 260 0 is_stmt 1
 285 0040 311D     		adds	r1, r6, #4
 286              	.LVL25:
 287              	.L41:
 288              		.loc 1 267 0
 289 0042 207C     		ldrb	r0, [r4, #16]	@ zero_extendqisi2
 290              	.LVL26:
 291 0044 94F809E0 		ldrb	lr, [r4, #9]	@ zero_extendqisi2
 292 0048 A37A     		ldrb	r3, [r4, #10]	@ zero_extendqisi2
 293 004a 0190     		str	r0, [sp, #4]
 294 004c 0296     		str	r6, [sp, #8]
 295 004e 4246     		mov	r2, r8
 296 0050 CDF800E0 		str	lr, [sp]
 297 0054 3846     		mov	r0, r7
 298 0056 FFF7FEFF 		bl	ip_output_if
 299              	.LVL27:
 300              		.loc 1 271 0
 301 005a AF42     		cmp	r7, r5
 302              		.loc 1 267 0
 303 005c 0446     		mov	r4, r0
 304              	.LVL28:
 305              		.loc 1 275 0
 306 005e 08BF     		it	eq
 307 0060 0046     		moveq	r0, r0
 308              	.LVL29:
 309              		.loc 1 271 0
 310 0062 03D0     		beq	.L35
 311              		.loc 1 273 0
 312 0064 3846     		mov	r0, r7
 313 0066 FFF7FEFF 		bl	pbuf_free
 314              	.LVL30:
 315              		.loc 1 275 0
 316 006a 2046     		mov	r0, r4
 317              	.LVL31:
 318              	.L35:
 319 006c 40B2     		sxtb	r0, r0
 320              		.loc 1 276 0
 321 006e 04B0     		add	sp, sp, #16
 322              		@ sp needed
 323 0070 BDE8F081 		pop	{r4, r5, r6, r7, r8, pc}
 324              	.LVL32:
 325              	.L34:
 326              		.loc 1 230 0
 327 0074 2846     		mov	r0, r5
 328 0076 6FF01301 		mvn	r1, #19
 329 007a FFF7FEFF 		bl	pbuf_header
 330              	.LVL33:
 331 007e A0B9     		cbnz	r0, .L58
 332              		.loc 1 236 0
 333 0080 4046     		mov	r0, r8
 334 0082 FFF7FEFF 		bl	ip_route
 335              	.LVL34:
 336 0086 0646     		mov	r6, r0
 337 0088 30B1     		cbz	r0, .L55
ARM GAS  /tmp/cci4YM7r.s 			page 7


 338 008a 2F46     		mov	r7, r5
 339 008c D4E7     		b	.L38
 340              	.LVL35:
 341              	.L57:
 342              		.loc 1 240 0
 343 008e BD42     		cmp	r5, r7
 344 0090 02D0     		beq	.L55
 345              		.loc 1 241 0
 346 0092 3846     		mov	r0, r7
 347              	.LVL36:
 348 0094 FFF7FEFF 		bl	pbuf_free
 349              	.LVL37:
 350              	.L55:
 351              		.loc 1 243 0
 352 0098 FC20     		movs	r0, #252
 353 009a 40B2     		sxtb	r0, r0
 354              		.loc 1 276 0
 355 009c 04B0     		add	sp, sp, #16
 356              		@ sp needed
 357 009e BDE8F081 		pop	{r4, r5, r6, r7, r8, pc}
 358              	.LVL38:
 359              	.L56:
 360              		.loc 1 223 0
 361 00a2 2946     		mov	r1, r5
 362 00a4 FFF7FEFF 		bl	pbuf_chain
 363              	.LVL39:
 364 00a8 C1E7     		b	.L36
 365              	.LVL40:
 366              	.L58:
 367              		.loc 1 231 0 discriminator 1
 368 00aa FFF7FEFF 		bl	port_halt
 369              	.LVL41:
 370              		.loc 1 232 0 discriminator 1
 371 00ae FF20     		movs	r0, #255
 372 00b0 DCE7     		b	.L35
 373              	.LVL42:
 374              	.L43:
 375              		.loc 1 219 0
 376 00b2 FF20     		movs	r0, #255
 377              	.LVL43:
 378 00b4 DAE7     		b	.L35
 379              		.cfi_endproc
 380              	.LFE11:
 381              		.size	raw_sendto, .-raw_sendto
 382 00b6 00BFAFF3 		.section	.text.raw_send,"ax",%progbits
 382      0080AFF3 
 382      0080
 383              		.align	2
 384              		.p2align 4,,15
 385              		.global	raw_send
 386              		.thumb
 387              		.thumb_func
 388              		.type	raw_send, %function
 389              	raw_send:
 390              	.LFB12:
 391              		.loc 1 287 0
 392              		.cfi_startproc
ARM GAS  /tmp/cci4YM7r.s 			page 8


 393              		@ args = 0, pretend = 0, frame = 0
 394              		@ frame_needed = 0, uses_anonymous_args = 0
 395              		@ link register save eliminated.
 396              	.LVL44:
 397              		.loc 1 288 0
 398 0000 021D     		adds	r2, r0, #4
 399 0002 FFF7FEBF 		b	raw_sendto
 400              	.LVL45:
 401              		.cfi_endproc
 402              	.LFE12:
 403              		.size	raw_send, .-raw_send
 404 0006 00BFAFF3 		.section	.text.raw_remove,"ax",%progbits
 404      0080AFF3 
 404      0080
 405              		.align	2
 406              		.p2align 4,,15
 407              		.global	raw_remove
 408              		.thumb
 409              		.thumb_func
 410              		.type	raw_remove, %function
 411              	raw_remove:
 412              	.LFB13:
 413              		.loc 1 301 0
 414              		.cfi_startproc
 415              		@ args = 0, pretend = 0, frame = 0
 416              		@ frame_needed = 0, uses_anonymous_args = 0
 417              		@ link register save eliminated.
 418              	.LVL46:
 419              		.loc 1 304 0
 420 0000 40F20003 		movw	r3, #:lower16:.LANCHOR0
 421 0004 C0F20003 		movt	r3, #:upper16:.LANCHOR0
 422              		.loc 1 301 0
 423 0008 0146     		mov	r1, r0
 424              		.loc 1 304 0
 425 000a 1A68     		ldr	r2, [r3]
 426 000c 8242     		cmp	r2, r0
 427 000e 0FD0     		beq	.L61
 428              	.LVL47:
 429              		.loc 1 309 0 discriminator 1
 430 0010 1AB9     		cbnz	r2, .L64
 431 0012 05E0     		b	.L63
 432              	.L71:
 433              		.loc 1 311 0 discriminator 1
 434 0014 9942     		cmp	r1, r3
 435 0016 06D0     		beq	.L70
 436              	.LVL48:
 437              	.L66:
 438              		.loc 1 301 0
 439 0018 1A46     		mov	r2, r3
 440              	.L64:
 441              	.LVL49:
 442              		.loc 1 311 0
 443 001a D368     		ldr	r3, [r2, #12]
 444 001c 002B     		cmp	r3, #0
 445 001e F9D1     		bne	.L71
 446              	.LVL50:
 447              	.L63:
ARM GAS  /tmp/cci4YM7r.s 			page 9


 448              		.loc 1 317 0
 449 0020 0020     		movs	r0, #0
 450              	.LVL51:
 451 0022 FFF7FEBF 		b	memp_free
 452              	.LVL52:
 453              	.L70:
 454              		.loc 1 313 0
 455 0026 CB68     		ldr	r3, [r1, #12]
 456 0028 D360     		str	r3, [r2, #12]
 457              	.LVL53:
 458              		.loc 1 309 0
 459 002a 002B     		cmp	r3, #0
 460 002c F4D1     		bne	.L66
 461 002e F7E7     		b	.L63
 462              	.LVL54:
 463              	.L61:
 464              		.loc 1 306 0
 465 0030 C268     		ldr	r2, [r0, #12]
 466              		.loc 1 317 0
 467 0032 0020     		movs	r0, #0
 468              	.LVL55:
 469              		.loc 1 306 0
 470 0034 1A60     		str	r2, [r3]
 471              		.loc 1 317 0
 472 0036 FFF7FEBF 		b	memp_free
 473              	.LVL56:
 474              		.cfi_endproc
 475              	.LFE13:
 476              		.size	raw_remove, .-raw_remove
 477 003a 00BFAFF3 		.section	.text.raw_new,"ax",%progbits
 477      0080
 478              		.align	2
 479              		.p2align 4,,15
 480              		.global	raw_new
 481              		.thumb
 482              		.thumb_func
 483              		.type	raw_new, %function
 484              	raw_new:
 485              	.LFB14:
 486              		.loc 1 332 0
 487              		.cfi_startproc
 488              		@ args = 0, pretend = 0, frame = 0
 489              		@ frame_needed = 0, uses_anonymous_args = 0
 490              	.LVL57:
 491 0000 38B5     		push	{r3, r4, r5, lr}
 492              		.cfi_def_cfa_offset 16
 493              		.cfi_offset 3, -16
 494              		.cfi_offset 4, -12
 495              		.cfi_offset 5, -8
 496              		.cfi_offset 14, -4
 497              		.loc 1 332 0
 498 0002 0546     		mov	r5, r0
 499              		.loc 1 337 0
 500 0004 0020     		movs	r0, #0
 501              	.LVL58:
 502 0006 FFF7FEFF 		bl	memp_malloc
 503              	.LVL59:
ARM GAS  /tmp/cci4YM7r.s 			page 10


 504              		.loc 1 339 0
 505 000a 0446     		mov	r4, r0
 506 000c 68B1     		cbz	r0, .L73
 507              		.loc 1 341 0
 508 000e 0021     		movs	r1, #0
 509 0010 1C22     		movs	r2, #28
 510 0012 FFF7FEFF 		bl	memset
 511              	.LVL60:
 512              		.loc 1 344 0
 513 0016 40F20003 		movw	r3, #:lower16:.LANCHOR0
 514 001a C0F20003 		movt	r3, #:upper16:.LANCHOR0
 515              		.loc 1 343 0
 516 001e FF21     		movs	r1, #255
 517              		.loc 1 344 0
 518 0020 1A68     		ldr	r2, [r3]
 519              		.loc 1 342 0
 520 0022 2574     		strb	r5, [r4, #16]
 521              		.loc 1 344 0
 522 0024 E260     		str	r2, [r4, #12]
 523              		.loc 1 345 0
 524 0026 1C60     		str	r4, [r3]
 525              		.loc 1 343 0
 526 0028 A172     		strb	r1, [r4, #10]
 527              	.L73:
 528              		.loc 1 348 0
 529 002a 2046     		mov	r0, r4
 530 002c 38BD     		pop	{r3, r4, r5, pc}
 531              		.cfi_endproc
 532              	.LFE14:
 533              		.size	raw_new, .-raw_new
 534 002e 00BF     		.section	.bss.raw_pcbs,"aw",%nobits
 535              		.align	2
 536              		.set	.LANCHOR0,. + 0
 537              		.type	raw_pcbs, %object
 538              		.size	raw_pcbs, 4
 539              	raw_pcbs:
 540 0000 00000000 		.space	4
 541              		.text
 542              	.Letext0:
 543              		.file 2 "/usr/include/newlib/machine/_default_types.h"
 544              		.file 3 "/usr/include/newlib/stdint.h"
 545              		.file 4 "../../os/various/lwip_bindings/arch/cc.h"
 546              		.file 5 "../../ext/lwip/src/include/lwip/memp.h"
 547              		.file 6 "../../ext/lwip/src/include/ipv4/lwip/ip_addr.h"
 548              		.file 7 "../../ext/lwip/src/include/lwip/err.h"
 549              		.file 8 "../../ext/lwip/src/include/lwip/pbuf.h"
 550              		.file 9 "../../ext/lwip/src/include/lwip/netif.h"
 551              		.file 10 "../../ext/lwip/src/include/ipv4/lwip/ip.h"
 552              		.file 11 "../../ext/lwip/src/include/lwip/raw.h"
 553              		.file 12 "../../os/ports/GCC/ARMCMx/chcore_v7m.h"