ARM GAS  /tmp/ccAHuN30.s 			page 1


   1              		.syntax unified
   2              		.cpu cortex-m4
   3              		.fpu softvfp
   4              		.eabi_attribute 20, 1
   5              		.eabi_attribute 21, 1
   6              		.eabi_attribute 23, 3
   7              		.eabi_attribute 24, 1
   8              		.eabi_attribute 25, 1
   9              		.eabi_attribute 26, 1
  10              		.eabi_attribute 30, 2
  11              		.eabi_attribute 34, 1
  12              		.eabi_attribute 18, 4
  13              		.thumb
  14              		.file	"serial_lld.c"
  15              		.text
  16              	.Ltext0:
  17              		.cfi_sections	.debug_frame
  18              		.section	.text.notify6,"ax",%progbits
  19              		.align	2
  20              		.p2align 4,,15
  21              		.thumb
  22              		.thumb_func
  23              		.type	notify6, %function
  24              	notify6:
  25              	.LFB122:
  26              		.file 1 "../../os/hal/platforms/STM32/USARTv1/serial_lld.c"
  27              		.loc 1 243 0
  28              		.cfi_startproc
  29              		@ args = 0, pretend = 0, frame = 0
  30              		@ frame_needed = 0, uses_anonymous_args = 0
  31              		@ link register save eliminated.
  32              	.LVL0:
  33              		.loc 1 246 0
  34 0000 4FF4A053 		mov	r3, #5120
  35 0004 C4F20103 		movt	r3, 16385
  36 0008 9A89     		ldrh	r2, [r3, #12]
  37 000a 92B2     		uxth	r2, r2
  38 000c 42F08002 		orr	r2, r2, #128
  39 0010 9A81     		strh	r2, [r3, #12]	@ movhi
  40 0012 7047     		bx	lr
  41              		.cfi_endproc
  42              	.LFE122:
  43              		.size	notify6, .-notify6
  44              		.section	.text.Vector15C,"ax",%progbits
  45              		.align	2
  46              		.p2align 4,,15
  47              		.global	Vector15C
  48              		.thumb
  49              		.thumb_func
  50              		.type	Vector15C, %function
  51              	Vector15C:
  52              	.LFB123:
  53              		.loc 1 358 0
  54              		.cfi_startproc
  55              		@ args = 0, pretend = 0, frame = 0
  56              		@ frame_needed = 0, uses_anonymous_args = 0
  57              	.LVL1:
ARM GAS  /tmp/ccAHuN30.s 			page 2


  58              	.LBB26:
  59              	.LBB27:
  60              		.loc 1 155 0
  61 0000 40F20003 		movw	r3, #:lower16:.LANCHOR0
  62 0004 C0F20003 		movt	r3, #:upper16:.LANCHOR0
  63              	.LBE27:
  64              	.LBE26:
  65              		.loc 1 358 0
  66 0008 70B5     		push	{r4, r5, r6, lr}
  67              		.cfi_def_cfa_offset 16
  68              		.cfi_offset 4, -16
  69              		.cfi_offset 5, -12
  70              		.cfi_offset 6, -8
  71              		.cfi_offset 14, -4
  72              	.LBB41:
  73              	.LBB39:
  74              		.loc 1 155 0
  75 000a 5D6F     		ldr	r5, [r3, #116]
  76              	.LVL2:
  77              		.loc 1 156 0
  78 000c AE89     		ldrh	r6, [r5, #12]
  79              		.loc 1 157 0
  80 000e 2C88     		ldrh	r4, [r5]
  81 0010 A4B2     		uxth	r4, r4
  82              		.loc 1 160 0
  83 0012 E005     		lsls	r0, r4, #23
  84              		.loc 1 156 0
  85 0014 B6B2     		uxth	r6, r6
  86              	.LVL3:
  87              		.loc 1 160 0
  88 0016 47D4     		bmi	.L47
  89              	.L3:
  90              	.LBB28:
  91              		.loc 1 168 0
  92 0018 2023     		movs	r3, #32
  93              	@ 168 "../../os/hal/platforms/STM32/USARTv1/serial_lld.c" 1
  94 001a 83F31188 		msr     BASEPRI, r3
  95              	@ 0 "" 2
  96              		.thumb
  97              	.LBE28:
  98              		.loc 1 169 0
  99 001e A106     		lsls	r1, r4, #26
 100 0020 24D5     		bpl	.L4
 101 0022 0BE0     		b	.L10
 102              	.LVL4:
 103              	.L5:
 104              		.loc 1 173 0
 105 0024 A988     		ldrh	r1, [r5, #4]
 106 0026 40F20000 		movw	r0, #:lower16:.LANCHOR0
 107 002a C0F20000 		movt	r0, #:upper16:.LANCHOR0
 108 002e C9B2     		uxtb	r1, r1
 109 0030 FFF7FEFF 		bl	sdIncomingDataI
 110              	.LVL5:
 111              		.loc 1 174 0
 112 0034 2C88     		ldrh	r4, [r5]
 113 0036 A4B2     		uxth	r4, r4
 114              	.LVL6:
ARM GAS  /tmp/ccAHuN30.s 			page 3


 115              		.loc 1 169 0
 116 0038 A006     		lsls	r0, r4, #26
 117 003a 17D5     		bpl	.L4
 118              	.LVL7:
 119              	.L10:
 120              		.loc 1 171 0
 121 003c 2207     		lsls	r2, r4, #28
 122 003e F1D0     		beq	.L5
 123              	.LVL8:
 124              	.LBB29:
 125              	.LBB30:
 126              		.loc 1 136 0
 127 0040 14F0080F 		tst	r4, #8
 128 0044 14BF     		ite	ne
 129 0046 8021     		movne	r1, #128
 130 0048 0021     		moveq	r1, #0
 131              	.LVL9:
 132              		.loc 1 140 0
 133 004a 14F0010F 		tst	r4, #1
 134              		.loc 1 141 0
 135 004e 18BF     		it	ne
 136 0050 41F02001 		orrne	r1, r1, #32
 137              	.LVL10:
 138              		.loc 1 142 0
 139 0054 A307     		lsls	r3, r4, #30
 140              		.loc 1 143 0
 141 0056 48BF     		it	mi
 142 0058 41F04001 		orrmi	r1, r1, #64
 143              	.LVL11:
 144              		.loc 1 144 0
 145 005c 6407     		lsls	r4, r4, #29
 146              	.LVL12:
 147              		.loc 1 146 0
 148 005e 2648     		ldr	r0, .L50
 149              		.loc 1 145 0
 150 0060 48BF     		it	mi
 151 0062 41F48071 		orrmi	r1, r1, #256
 152              	.LVL13:
 153              		.loc 1 146 0
 154 0066 FFF7FEFF 		bl	chEvtBroadcastFlagsI
 155              	.LVL14:
 156 006a DBE7     		b	.L5
 157              	.LVL15:
 158              	.L4:
 159              	.LBE30:
 160              	.LBE29:
 161              	.LBB31:
 162              		.loc 1 176 0
 163 006c 0023     		movs	r3, #0
 164              	@ 176 "../../os/hal/platforms/STM32/USARTv1/serial_lld.c" 1
 165 006e 83F31188 		msr     BASEPRI, r3
 166              	@ 0 "" 2
 167              		.thumb
 168              	.LBE31:
 169              		.loc 1 179 0
 170 0072 3106     		lsls	r1, r6, #24
 171 0074 01D5     		bpl	.L11
ARM GAS  /tmp/ccAHuN30.s 			page 4


 172 0076 2206     		lsls	r2, r4, #24
 173 0078 25D4     		bmi	.L48
 174              	.L11:
 175              		.loc 1 193 0
 176 007a 6306     		lsls	r3, r4, #25
 177 007c 10D5     		bpl	.L14
 178              	.LBB32:
 179              		.loc 1 194 0
 180 007e 2023     		movs	r3, #32
 181              	@ 194 "../../os/hal/platforms/STM32/USARTv1/serial_lld.c" 1
 182 0080 83F31188 		msr     BASEPRI, r3
 183              	@ 0 "" 2
 184              		.thumb
 185              	.LBE32:
 186              		.loc 1 195 0
 187 0084 1C48     		ldr	r0, .L50
 188 0086 1021     		movs	r1, #16
 189 0088 FFF7FEFF 		bl	chEvtBroadcastFlagsI
 190              	.LVL16:
 191              	.LBB33:
 192              		.loc 1 196 0
 193 008c 0023     		movs	r3, #0
 194              	@ 196 "../../os/hal/platforms/STM32/USARTv1/serial_lld.c" 1
 195 008e 83F31188 		msr     BASEPRI, r3
 196              	@ 0 "" 2
 197              		.thumb
 198              	.LBE33:
 199              		.loc 1 197 0
 200 0092 4FF63F73 		movw	r3, #65343
 201 0096 3340     		ands	r3, r3, r6
 202              		.loc 1 198 0
 203 0098 4FF6BF72 		movw	r2, #65471
 204              		.loc 1 197 0
 205 009c AB81     		strh	r3, [r5, #12]	@ movhi
 206              		.loc 1 198 0
 207 009e 2A80     		strh	r2, [r5]	@ movhi
 208              	.L14:
 209              	.LBE39:
 210              	.LBE41:
 211              		.loc 1 365 0
 212 00a0 BDE87040 		pop	{r4, r5, r6, lr}
 213              	.LVL17:
 214              		.loc 1 364 0
 215 00a4 FFF7FEBF 		b	_port_irq_epilogue
 216              	.LVL18:
 217              	.L47:
 218              	.LBB42:
 219              	.LBB40:
 220              	.LBB34:
 221              		.loc 1 161 0
 222 00a8 2023     		movs	r3, #32
 223              	@ 161 "../../os/hal/platforms/STM32/USARTv1/serial_lld.c" 1
 224 00aa 83F31188 		msr     BASEPRI, r3
 225              	@ 0 "" 2
 226              		.thumb
 227              	.LBE34:
 228              		.loc 1 162 0
ARM GAS  /tmp/ccAHuN30.s 			page 5


 229 00ae 1248     		ldr	r0, .L50
 230 00b0 4FF40071 		mov	r1, #512
 231 00b4 FFF7FEFF 		bl	chEvtBroadcastFlagsI
 232              	.LVL19:
 233              	.LBB35:
 234              		.loc 1 163 0
 235 00b8 0023     		movs	r3, #0
 236              	@ 163 "../../os/hal/platforms/STM32/USARTv1/serial_lld.c" 1
 237 00ba 83F31188 		msr     BASEPRI, r3
 238              	@ 0 "" 2
 239              		.thumb
 240              	.LBE35:
 241              		.loc 1 164 0
 242 00be 4FF6FF63 		movw	r3, #65279
 243 00c2 2B80     		strh	r3, [r5]	@ movhi
 244 00c4 A8E7     		b	.L3
 245              	.LVL20:
 246              	.L48:
 247              	.LBB36:
 248              	.LBB37:
 249              		.loc 1 181 0
 250 00c6 2023     		movs	r3, #32
 251              	@ 181 "../../os/hal/platforms/STM32/USARTv1/serial_lld.c" 1
 252 00c8 83F31188 		msr     BASEPRI, r3
 253              	@ 0 "" 2
 254              		.thumb
 255              	.LBE37:
 256              		.loc 1 182 0
 257 00cc 0B48     		ldr	r0, .L50+4
 258 00ce FFF7FEFF 		bl	chOQGetI
 259              	.LVL21:
 260              		.loc 1 183 0
 261 00d2 0028     		cmp	r0, #0
 262              		.loc 1 188 0
 263 00d4 A4BF     		itt	ge
 264 00d6 80B2     		uxthge	r0, r0
 265              	.LVL22:
 266 00d8 A880     		strhge	r0, [r5, #4]	@ movhi
 267              		.loc 1 183 0
 268 00da 03DB     		blt	.L49
 269              	.L13:
 270              	.LBB38:
 271              		.loc 1 189 0
 272 00dc 0023     		movs	r3, #0
 273              	@ 189 "../../os/hal/platforms/STM32/USARTv1/serial_lld.c" 1
 274 00de 83F31188 		msr     BASEPRI, r3
 275              	@ 0 "" 2
 276              		.thumb
 277 00e2 CAE7     		b	.L11
 278              	.L49:
 279              	.LBE38:
 280              		.loc 1 184 0
 281 00e4 0448     		ldr	r0, .L50
 282 00e6 0821     		movs	r1, #8
 283 00e8 FFF7FEFF 		bl	chEvtBroadcastFlagsI
 284              	.LVL23:
 285              		.loc 1 185 0
ARM GAS  /tmp/ccAHuN30.s 			page 6


 286 00ec 26F0C003 		bic	r3, r6, #192
 287 00f0 43F04003 		orr	r3, r3, #64
 288 00f4 AB81     		strh	r3, [r5, #12]	@ movhi
 289 00f6 F1E7     		b	.L13
 290              	.L51:
 291              		.align	2
 292              	.L50:
 293 00f8 04000000 		.word	.LANCHOR0+4
 294 00fc 30000000 		.word	.LANCHOR0+48
 295              	.LBE36:
 296              	.LBE40:
 297              	.LBE42:
 298              		.cfi_endproc
 299              	.LFE123:
 300              		.size	Vector15C, .-Vector15C
 301              		.section	.text.sd_lld_init,"ax",%progbits
 302              		.align	2
 303              		.p2align 4,,15
 304              		.global	sd_lld_init
 305              		.thumb
 306              		.thumb_func
 307              		.type	sd_lld_init, %function
 308              	sd_lld_init:
 309              	.LFB124:
 310              		.loc 1 377 0
 311              		.cfi_startproc
 312              		@ args = 0, pretend = 0, frame = 0
 313              		@ frame_needed = 0, uses_anonymous_args = 0
 314 0000 10B5     		push	{r4, lr}
 315              		.cfi_def_cfa_offset 8
 316              		.cfi_offset 4, -8
 317              		.cfi_offset 14, -4
 318              		.loc 1 405 0
 319 0002 40F20004 		movw	r4, #:lower16:.LANCHOR0
 320 0006 C0F20004 		movt	r4, #:upper16:.LANCHOR0
 321 000a 40F20002 		movw	r2, #:lower16:notify6
 322 000e 2046     		mov	r0, r4
 323 0010 C0F20002 		movt	r2, #:upper16:notify6
 324 0014 0021     		movs	r1, #0
 325 0016 FFF7FEFF 		bl	sdObjectInit
 326              	.LVL24:
 327              		.loc 1 406 0
 328 001a 4FF4A053 		mov	r3, #5120
 329 001e C4F20103 		movt	r3, 16385
 330 0022 6367     		str	r3, [r4, #116]
 331 0024 10BD     		pop	{r4, pc}
 332              		.cfi_endproc
 333              	.LFE124:
 334              		.size	sd_lld_init, .-sd_lld_init
 335 0026 00BFAFF3 		.section	.text.sd_lld_start,"ax",%progbits
 335      0080AFF3 
 335      0080
 336              		.align	2
 337              		.p2align 4,,15
 338              		.global	sd_lld_start
 339              		.thumb
 340              		.thumb_func
ARM GAS  /tmp/ccAHuN30.s 			page 7


 341              		.type	sd_lld_start, %function
 342              	sd_lld_start:
 343              	.LFB125:
 344              		.loc 1 420 0
 345              		.cfi_startproc
 346              		@ args = 0, pretend = 0, frame = 0
 347              		@ frame_needed = 0, uses_anonymous_args = 0
 348              	.LVL25:
 349 0000 38B5     		push	{r3, r4, r5, lr}
 350              		.cfi_def_cfa_offset 16
 351              		.cfi_offset 3, -16
 352              		.cfi_offset 4, -12
 353              		.cfi_offset 5, -8
 354              		.cfi_offset 14, -4
 355              		.loc 1 423 0
 356 0002 40F20004 		movw	r4, #:lower16:.LANCHOR1
 357              		.loc 1 425 0
 358 0006 037A     		ldrb	r3, [r0, #8]	@ zero_extendqisi2
 359              		.loc 1 423 0
 360 0008 C0F20004 		movt	r4, #:upper16:.LANCHOR1
 361 000c 0029     		cmp	r1, #0
 362 000e 18BF     		it	ne
 363 0010 0C46     		movne	r4, r1
 364              	.LVL26:
 365              		.loc 1 425 0
 366 0012 012B     		cmp	r3, #1
 367              		.loc 1 420 0
 368 0014 0546     		mov	r5, r0
 369              		.loc 1 425 0
 370 0016 31D0     		beq	.L59
 371              	.LVL27:
 372              	.L55:
 373              		.loc 1 420 0
 374 0018 6B6F     		ldr	r3, [r5, #116]
 375              	.LVL28:
 376              	.LBB45:
 377              	.LBB46:
 378              		.loc 1 97 0
 379 001a 4FF4A051 		mov	r1, #5120
 380 001e 4FF48052 		mov	r2, #4096
 381 0022 C4F20102 		movt	r2, 16385
 382 0026 C4F20101 		movt	r1, 16385
 383 002a 9342     		cmp	r3, r2
 384 002c 18BF     		it	ne
 385 002e 8B42     		cmpne	r3, r1
 386              		.loc 1 101 0
 387 0030 0BBF     		itete	eq
 388 0032 2168     		ldreq	r1, [r4]
 389              		.loc 1 103 0
 390 0034 2168     		ldrne	r1, [r4]
 391              		.loc 1 101 0
 392 0036 4FF43D42 		moveq	r2, #48384
 393              		.loc 1 103 0
 394 003a 4DF68062 		movwne	r2, #56960
 395              		.loc 1 101 0
 396 003e 0CBF     		ite	eq
 397 0040 C0F20152 		movteq	r2, 1281
ARM GAS  /tmp/ccAHuN30.s 			page 8


 398              		.loc 1 103 0
 399 0044 C0F28022 		movtne	r2, 640
 400 0048 B2FBF1F2 		udiv	r2, r2, r1
 401 004c 92B2     		uxth	r2, r2
 402 004e 1A81     		strh	r2, [r3, #8]	@ movhi
 403              		.loc 1 108 0
 404 0050 A288     		ldrh	r2, [r4, #4]
 405              		.loc 1 106 0
 406 0052 E188     		ldrh	r1, [r4, #6]
 407              		.loc 1 107 0
 408 0054 2089     		ldrh	r0, [r4, #8]
 409              		.loc 1 108 0
 410 0056 42F40452 		orr	r2, r2, #8448
 411              		.loc 1 106 0
 412 005a 41F04004 		orr	r4, r1, #64
 413              	.LVL29:
 414              		.loc 1 108 0
 415 005e 42F02C02 		orr	r2, r2, #44
 416              		.loc 1 107 0
 417 0062 40F00100 		orr	r0, r0, #1
 418              		.loc 1 108 0
 419 0066 92B2     		uxth	r2, r2
 420              		.loc 1 106 0
 421 0068 A4B2     		uxth	r4, r4
 422              		.loc 1 107 0
 423 006a 80B2     		uxth	r0, r0
 424              		.loc 1 111 0
 425 006c 0021     		movs	r1, #0
 426              		.loc 1 106 0
 427 006e 1C82     		strh	r4, [r3, #16]	@ movhi
 428              		.loc 1 107 0
 429 0070 9882     		strh	r0, [r3, #20]	@ movhi
 430              		.loc 1 108 0
 431 0072 9A81     		strh	r2, [r3, #12]	@ movhi
 432              		.loc 1 111 0
 433 0074 1980     		strh	r1, [r3]	@ movhi
 434              		.loc 1 112 0
 435 0076 1A88     		ldrh	r2, [r3]
 436              		.loc 1 113 0
 437 0078 9B88     		ldrh	r3, [r3, #4]
 438              	.LVL30:
 439 007a 38BD     		pop	{r3, r4, r5, pc}
 440              	.LVL31:
 441              	.L59:
 442              	.LBE46:
 443              	.LBE45:
 444              		.loc 1 462 0
 445 007c 40F20003 		movw	r3, #:lower16:.LANCHOR0
 446 0080 C0F20003 		movt	r3, #:upper16:.LANCHOR0
 447 0084 9842     		cmp	r0, r3
 448 0086 C7D1     		bne	.L55
 449              		.loc 1 463 0
 450 0088 4FF46053 		mov	r3, #14336
 451 008c C4F20203 		movt	r3, 16386
 452              		.loc 1 464 0
 453 0090 4720     		movs	r0, #71
 454              	.LVL32:
ARM GAS  /tmp/ccAHuN30.s 			page 9


 455              		.loc 1 463 0
 456 0092 5A6C     		ldr	r2, [r3, #68]
 457 0094 42F02002 		orr	r2, r2, #32
 458 0098 5A64     		str	r2, [r3, #68]
 459              		.loc 1 464 0
 460 009a C021     		movs	r1, #192
 461 009c FFF7FEFF 		bl	nvicEnableVector
 462              	.LVL33:
 463 00a0 BAE7     		b	.L55
 464              		.cfi_endproc
 465              	.LFE125:
 466              		.size	sd_lld_start, .-sd_lld_start
 467 00a2 00BFAFF3 		.section	.text.sd_lld_stop,"ax",%progbits
 467      0080AFF3 
 467      0080AFF3 
 467      0080
 468              		.align	2
 469              		.p2align 4,,15
 470              		.global	sd_lld_stop
 471              		.thumb
 472              		.thumb_func
 473              		.type	sd_lld_stop, %function
 474              	sd_lld_stop:
 475              	.LFB126:
 476              		.loc 1 481 0
 477              		.cfi_startproc
 478              		@ args = 0, pretend = 0, frame = 0
 479              		@ frame_needed = 0, uses_anonymous_args = 0
 480              		@ link register save eliminated.
 481              	.LVL34:
 482              		.loc 1 483 0
 483 0000 037A     		ldrb	r3, [r0, #8]	@ zero_extendqisi2
 484 0002 022B     		cmp	r3, #2
 485 0004 00D0     		beq	.L64
 486              	.L60:
 487 0006 7047     		bx	lr
 488              	.L64:
 489              		.loc 1 521 0
 490 0008 40F20003 		movw	r3, #:lower16:.LANCHOR0
 491              		.loc 1 484 0
 492 000c 426F     		ldr	r2, [r0, #116]
 493              	.LVL35:
 494              		.loc 1 521 0
 495 000e C0F20003 		movt	r3, #:upper16:.LANCHOR0
 496              	.LBB47:
 497              	.LBB48:
 498              		.loc 1 124 0
 499 0012 0021     		movs	r1, #0
 500              	.LBE48:
 501              	.LBE47:
 502              		.loc 1 521 0
 503 0014 9842     		cmp	r0, r3
 504              	.LBB50:
 505              	.LBB49:
 506              		.loc 1 124 0
 507 0016 9181     		strh	r1, [r2, #12]	@ movhi
 508              		.loc 1 125 0
ARM GAS  /tmp/ccAHuN30.s 			page 10


 509 0018 1182     		strh	r1, [r2, #16]	@ movhi
 510              		.loc 1 126 0
 511 001a 9182     		strh	r1, [r2, #20]	@ movhi
 512              	.LBE49:
 513              	.LBE50:
 514              		.loc 1 521 0
 515 001c F3D1     		bne	.L60
 516              		.loc 1 522 0
 517 001e 4FF46053 		mov	r3, #14336
 518 0022 C4F20203 		movt	r3, 16386
 519              		.loc 1 523 0
 520 0026 4720     		movs	r0, #71
 521              	.LVL36:
 522              		.loc 1 522 0
 523 0028 5A6C     		ldr	r2, [r3, #68]
 524              	.LVL37:
 525 002a 22F02002 		bic	r2, r2, #32
 526 002e 5A64     		str	r2, [r3, #68]
 527              		.loc 1 523 0
 528 0030 FFF7FEBF 		b	nvicDisableVector
 529              	.LVL38:
 530              		.cfi_endproc
 531              	.LFE126:
 532              		.size	sd_lld_stop, .-sd_lld_stop
 533              		.global	SD6
 534 0034 AFF30080 		.section	.rodata.default_config,"a",%progbits
 534      AFF30080 
 534      AFF30080 
 535              		.align	2
 536              		.set	.LANCHOR1,. + 0
 537              		.type	default_config, %object
 538              		.size	default_config, 12
 539              	default_config:
 540 0000 00960000 		.word	38400
 541 0004 0000     		.short	0
 542 0006 0040     		.short	16384
 543 0008 0000     		.short	0
 544 000a 0000     		.space	2
 545              		.section	.bss.SD6,"aw",%nobits
 546              		.align	2
 547              		.set	.LANCHOR0,. + 0
 548              		.type	SD6, %object
 549              		.size	SD6, 120
 550              	SD6:
 551 0000 00000000 		.space	120
 551      00000000 
 551      00000000 
 551      00000000 
 551      00000000 
 552              		.text
 553              	.Letext0:
 554              		.file 2 "/usr/lib/gcc/arm-none-eabi/4.8.2/include/stddef.h"
 555              		.file 3 "/usr/include/newlib/machine/_default_types.h"
 556              		.file 4 "/usr/include/newlib/stdint.h"
 557              		.file 5 "../../os/ports/GCC/ARMCMx/chtypes.h"
 558              		.file 6 "../../os/kernel/include/chlists.h"
 559              		.file 7 "../../os/kernel/include/chthreads.h"
ARM GAS  /tmp/ccAHuN30.s 			page 11


 560              		.file 8 "../../os/ports/GCC/ARMCMx/chcore_v7m.h"
 561              		.file 9 "../../os/kernel/include/chmtx.h"
 562              		.file 10 "../../os/kernel/include/chevents.h"
 563              		.file 11 "../../os/kernel/include/chqueues.h"
 564              		.file 12 "../../os/hal/platforms/STM32F4xx/stm32f4xx.h"
 565              		.file 13 "../../os/hal/include/serial.h"
 566              		.file 14 "../../os/hal/platforms/STM32/USARTv1/serial_lld.h"
 567              		.file 15 "../../os/ports/common/ARMCMx/nvic.h"
 568              		.file 16 "../../os/ports/common/ARMCMx/CMSIS/include/core_cm4.h"