ARM GAS  /tmp/ccAHuN30.s 			page 1


   1              		.syntax unified
   2              		.cpu cortex-m4
   3              		.fpu softvfp
   4              		.eabi_attribute 20, 1
   5              		.eabi_attribute 21, 1
   6              		.eabi_attribute 23, 3
   7              		.eabi_attribute 24, 1
   8              		.eabi_attribute 25, 1
   9              		.eabi_attribute 26, 1
  10              		.eabi_attribute 30, 2
  11              		.eabi_attribute 34, 1
  12              		.eabi_attribute 18, 4
  13              		.thumb
  14              		.file	"serial_lld.c"
  15              		.text
  16              	.Ltext0:
  17              		.cfi_sections	.debug_frame
  18              		.section	.text.notify6,"ax",%progbits
  19              		.align	2
  20              		.p2align 4,,15
  21              		.thumb
  22              		.thumb_func
  23              		.type	notify6, %function
  24              	notify6:
  25              	.LFB122:
  26              		.file 1 "../../os/hal/platforms/STM32/USARTv1/serial_lld.c"
  27              		.loc 1 243 0
  28              		.cfi_startproc
  29              		@ args = 0, pretend = 0, frame = 0
  30              		@ frame_needed = 0, uses_anonymous_args = 0
  31              		@ link register save eliminated.
  32              	.LVL0:
  33              		.loc 1 246 0
  34 0000 4FF4A053 		mov	r3, #5120
  35 0004 C4F20103 		movt	r3, 16385
  36 0008 9A89     		ldrh	r2, [r3, #12]
  37 000a 92B2     		uxth	r2, r2
  38 000c 42F08002 		orr	r2, r2, #128
  39 0010 9A81     		strh	r2, [r3, #12]	@ movhi
  40 0012 7047     		bx	lr
  41              		.cfi_endproc
  42              	.LFE122:
  43              		.size	notify6, .-notify6
  44              		.section	.text.Vector15C,"ax",%progbits
  45              		.align	2
  46              		.p2align 4,,15
  47              		.global	Vector15C
  48              		.thumb
  49              		.thumb_func
  50              		.type	Vector15C, %function
  51              	Vector15C:
  52              	.LFB123:
  53              		.loc 1 358 0
  54              		.cfi_startproc
  55              		@ args = 0, pretend = 0, frame = 0
  56              		@ frame_needed = 0, uses_anonymous_args = 0
  57              	.LVL1:
ARM GAS  /tmp/ccAHuN30.s 			page 2


  58              	.LBB26:
  59              	.LBB27:
  60              		.loc 1 155 0
  61 0000 40F20003 		movw	r3, #:lower16:.LANCHOR0
  62 0004 C0F20003 		movt	r3, #:upper16:.LANCHOR0
  63              	.LBE27:
  64              	.LBE26:
  65              		.loc 1 358 0
  66 0008 70B5     		push	{r4, r5, r6, lr}
  67              		.cfi_def_cfa_offset 16
  68              		.cfi_offset 4, -16
  69              		.cfi_offset 5, -12
  70              		.cfi_offset 6, -8
  71              		.cfi_offset 14, -4
  72              	.LBB41:
  73              	.LBB39:
  74              		.loc 1 155 0
  75 000a 5D6F     		ldr	r5, [r3, #116]
  76              	.LVL2:
  77              		.loc 1 156 0
  78 000c AE89     		ldrh	r6, [r5, #12]
  79              		.loc 1 157 0
  80 000e 2C88     		ldrh	r4, [r5]
  81 0010 A4B2     		uxth	r4, r4
  82              		.loc 1 160 0
  83 0012 E005     		lsls	r0, r4, #23
  84              		.loc 1 156 0
  85 0014 B6B2     		uxth	r6, r6
  86              	.LVL3:
  87              		.loc 1 160 0
  88 0016 47D4     		bmi	.L47
  89              	.L3:
  90              	.LBB28:
  91              		.loc 1 168 0
  92 0018 2023     		movs	r3, #32
  93              	@ 168 "../../os/hal/platforms/STM32/USARTv1/serial_lld.c" 1
  94 001a 83F31188 		msr     BASEPRI, r3
  95              	@ 0 "" 2
  96              		.thumb
  97              	.LBE28:
  98              		.loc 1 169 0
  99 001e A106     		lsls	r1, r4, #26
 100 0020 24D5     		bpl	.L4
 101 0022 0BE0     		b	.L10
 102              	.LVL4:
 103              	.L5:
 104              		.loc 1 173 0
 105 0024 A988     		ldrh	r1, [r5, #4]
 106 0026 40F20000 		movw	r0, #:lower16:.LANCHOR0
 107 002a C0F20000 		movt	r0, #:upper16:.LANCHOR0
 108 002e C9B2     		uxtb	r1, r1
 109 0030 FFF7FEFF 		bl	sdIncomingDataI
 110              	.LVL5:
 111              		.loc 1 174 0
 112 0034 2C88     		ldrh	r4, [r5]
 113 0036 A4B2     		uxth	r4, r4
 114              	.LVL6:
ARM GAS  /tmp/ccAHuN30.s 			page 3


 115              		.loc 1 169 0
 116 0038 A006     		lsls	r0, r4, #26
 117 003a 17D5     		bpl	.L4
 118              	.LVL7:
 119              	.L10:
 120              		.loc 1 171 0
 121 003c 2207     		lsls	r2, r4, #28
 122 003e F1D0     		beq	.L5
 123              	.LVL8:
 124              	.LBB29:
 125              	.LBB30:
 126              		.loc 1 136 0
 127 0040 14F0080F 		tst	r4, #8
 128 0044 14BF     		ite	ne
 129 0046 8021     		movne	r1, #128
 130 0048 0021     		moveq	r1, #0
 131              	.LVL9:
 132              		.loc 1 140 0
 133 004a 14F0010F 		tst	r4, #1
 134              		.loc 1 141 0
 135 004e 18BF     		it	ne
 136 0050 41F02001 		orrne	r1, r1, #32
 137              	.LVL10:
 138              		.loc 1 142 0
 139 0054 A307     		lsls	r3, r4, #30
 140              		.loc 1 143 0
 141 0056 48BF     		it	mi
 142 0058 41F04001 		orrmi	r1, r1, #64
 143              	.LVL11:
 144              		.loc 1 144 0
 145 005c 6407     		lsls	r4, r4, #29
 146              	.LVL12:
 147              		.loc 1 146 0
 148 005e 2648     		ldr	r0, .L50
 149              		.loc 1 145 0
 150 0060 48BF     		it	mi
 151 0062 41F48071 		orrmi	r1, r1, #256
 152              	.LVL13:
 153              		.loc 1 146 0
 154 0066 FFF7FEFF 		bl	chEvtBroadcastFlagsI
 155              	.LVL14:
 156 006a DBE7     		b	.L5
 157              	.LVL15:
 158              	.L4:
 159              	.LBE30:
 160              	.LBE29:
 161              	.LBB31:
 162              		.loc 1 176 0
 163 006c 0023     		movs	r3, #0
 164              	@ 176 "../../os/hal/platforms/STM32/USARTv1/serial_lld.c" 1
 165 006e 83F31188 		msr     BASEPRI, r3
 166              	@ 0 "" 2
 167              		.thumb
 168              	.LBE31:
 169              		.loc 1 179 0
 170 0072 3106     		lsls	r1, r6, #24
 171 0074 01D5     		bpl	.L11
ARM GAS  /tmp/ccAHuN30.s 			page 4


 172 0076 2206     		lsls	r2, r4, #24
 173 0078 25D4     		bmi	.L48
 174              	.L11:
 175              		.loc 1 193 0
 176 007a 6306     		lsls	r3, r4, #25
 177 007c 10D5     		bpl	.L14
 178              	.LBB32:
 179              		.loc 1 194 0
 180 007e 2023     		movs	r3, #32
 181              	@ 194 "../../os/hal/platforms/STM32/USARTv1/serial_lld.c" 1
 182 0080 83F31188 		msr     BASEPRI, r3
 183              	@ 0 "" 2
 184              		.thumb
 185              	.LBE32:
 186              		.loc 1 195 0
 187 0084 1C48     		ldr	r0, .L50
 188 0086 1021     		movs	r1, #16
 189 0088 FFF7FEFF 		bl	chEvtBroadcastFlagsI
 190              	.LVL16:
 191              	.LBB33:
 192              		.loc 1 196 0
 193 008c 0023     		movs	r3, #0
 194              	@ 196 "../../os/hal/platforms/STM32/USARTv1/serial_lld.c" 1
 195 008e 83F31188 		msr     BASEPRI, r3
 196              	@ 0 "" 2
 197              		.thumb
 198              	.LBE33:
 199              		.loc 1 197 0
 200 0092 4FF63F73 		movw	r3, #65343
 201 0096 3340     		ands	r3, r3, r6
 202              		.loc 1 198 0
 203 0098 4FF6BF72 		movw	r2, #65471
 204              		.loc 1 197 0
 205 009c AB81     		strh	r3, [r5, #12]	@ movhi
 206              		.loc 1 198 0
 207 009e 2A80     		strh	r2, [r5]	@ movhi
 208              	.L14:
 209              	.LBE39:
 210              	.LBE41:
 211              		.loc 1 365 0
 212 00a0 BDE87040 		pop	{r4, r5, r6, lr}
 213              	.LVL17:
 214              		.loc 1 364 0
 215 00a4 FFF7FEBF 		b	_port_irq_epilogue
 216              	.LVL18:
 217              	.L47:
 218              	.LBB42:
 219              	.LBB40:
 220              	.LBB34:
 221              		.loc 1 161 0
 222 00a8 2023     		movs	r3, #32
 223              	@ 161 "../../os/hal/platforms/STM32/USARTv1/serial_lld.c" 1
 224 00aa 83F31188 		msr     BASEPRI, r3
 225              	@ 0 "" 2
 226              		.thumb
 227              	.LBE34:
 228              		.loc 1 162 0
ARM GAS  /tmp/ccAHuN30.s 			page 5


 229 00ae 1248     		ldr	r0, .L50
 230 00b0 4FF40071 		mov	r1, #512
 231 00b4 FFF7FEFF 		bl	chEvtBroadcastFlagsI
 232              	.LVL19:
 233              	.LBB35:
 234              		.loc 1 163 0
 235 00b8 0023     		movs	r3, #0
 236              	@ 163 "../../os/hal/platforms/STM32/USARTv1/serial_lld.c" 1
 237 00ba 83F31188 		msr     BASEPRI, r3
 238              	@ 0 "" 2
 239              		.thumb
 240              	.LBE35:
 241              		.loc 1 164 0
 242 00be 4FF6FF63 		movw	r3, #65279
 243 00c2 2B80     		strh	r3, [r5]	@ movhi
 244 00c4 A8E7     		b	.L3
 245              	.LVL20:
 246              	.L48:
 247              	.LBB36:
 248              	.LBB37:
 249              		.loc 1 181 0
 250 00c6 2023     		movs	r3, #32
 251              	@ 181 "../../os/hal/platforms/STM32/USARTv1/serial_lld.c" 1
 252 00c8 83F31188 		msr     BASEPRI, r3
 253              	@ 0 "" 2
 254              		.thumb
 255              	.LBE37:
 256              		.loc 1 182 0
 257 00cc 0B48     		ldr	r0, .L50+4
 258 00ce FFF7FEFF 		bl	chOQGetI
 259              	.LVL21:
 260              		.loc 1 183 0
 261 00d2 0028     		cmp	r0, #0
 262              		.loc 1 188 0
 263 00d4 A4BF     		itt	ge
 264 00d6 80B2     		uxthge	r0, r0
 265              	.LVL22:
 266 00d8 A880     		strhge	r0, [r5, #4]	@ movhi
 267              		.loc 1 183 0
 268 00da 03DB     		blt	.L49
 269              	.L13:
 270              	.LBB38:
 271              		.loc 1 189 0
 272 00dc 0023     		movs	r3, #0
 273              	@ 189 "../../os/hal/platforms/STM32/USARTv1/serial_lld.c" 1
 274 00de 83F31188 		msr     BASEPRI, r3
 275              	@ 0 "" 2
 276              		.thumb
 277 00e2 CAE7     		b	.L11
 278              	.L49:
 279              	.LBE38:
 280              		.loc 1 184 0
 281 00e4 0448     		ldr	r0, .L50
 282 00e6 0821     		movs	r1, #8
 283 00e8 FFF7FEFF 		bl	chEvtBroadcastFlagsI
 284              	.LVL23:
 285              		.loc 1 185 0
ARM GAS  /tmp/ccAHuN30.s 			page 6


 286 00ec 26F0C003 		bic	r3, r6, #192
 287 00f0 43F04003 		orr	r3, r3, #64
 288 00f4 AB81     		strh	r3, [r5, #12]	@ movhi
 289 00f6 F1E7     		b	.L13
 290              	.L51:
 291              		.align	2
 292              	.L50:
 293 00f8 04000000 		.word	.LANCHOR0+4
 294 00fc 30000000 		.word	.LANCHOR0+48
 295              	.LBE36:
 296              	.LBE40:
 297              	.LBE42:
 298              		.cfi_endproc
 299              	.LFE123:
 300              		.size	Vector15C, .-Vector15C
 301              		.section	.text.sd_lld_init,"ax",%progbits
 302              		.align	2
 303              		.p2align 4,,15
 304              		.global	sd_lld_init
 305              		.thumb
 306              		.thumb_func
 307              		.type	sd_lld_init, %function
 308              	sd_lld_init:
 309              	.LFB124:
 310              		.loc 1 377 0
 311              		.cfi_startproc
 312              		@ args = 0, pretend = 0, frame = 0
 313              		@ frame_needed = 0, uses_anonymous_args = 0
 314 0000 10B5     		push	{r4, lr}
 315              		.cfi_def_cfa_offset 8
 316              		.cfi_offset 4, -8
 317              		.cfi_offset 14, -4
 318              		.loc 1 405 0
 319 0002 40F20004 		movw	r4, #:lower16:.LANCHOR0
 320 0006 C0F20004 		movt	r4, #:upper16:.LANCHOR0
 321 000a 40F20002 		movw	r2, #:lower16:notify6
 322 000e 2046     		mov	r0, r4
 323 0010 C0F20002 		movt	r2, #:upper16:notify6
 324 0014 0021     		movs	r1, #0
 325 0016 FFF7FEFF 		bl	sdObjectInit
 326              	.LVL24:
 327              		.loc 1 406 0
 328 001a 4FF4A053 		mov	r3, #5120
 329 001e C4F20103 		movt	r3, 16385
 330 0022 6367     		str	r3, [r4, #116]
 331 0024 10BD     		pop	{r4, pc}
 332              		.cfi_endproc
 333              	.LFE124:
 334              		.size	sd_lld_init, .-sd_lld_init
 335 0026 00BFAFF3 		.section	.text.sd_lld_start,"ax",%progbits
 335      0080AFF3 
 335      0080
 336              		.align	2
 337              		.p2align 4,,15
 338              		.global	sd_lld_start
 339              		.thumb
 340              		.thumb_func
ARM GAS  /tmp/ccAHuN30.s 			page 7


 341              		.type	sd_lld_start, %function
 342              	sd_lld_start:
 343              	.LFB125:
 344              		.loc 1 420 0
 345              		.cfi_startproc
 346              		@ args = 0, pretend = 0, frame = 0
 347              		@ frame_needed = 0, uses_anonymous_args = 0
 348              	.LVL25:
 349 0000 38B5     		push	{r3, r4, r5, lr}
 350              		.cfi_def_cfa_offset 16
 351              		.cfi_offset 3, -16
 352              		.cfi_offset 4, -12
 353              		.cfi_offset 5, -8
 354              		.cfi_offset 14, -4
 355              		.loc 1 423 0
 356 0002 40F20004 		movw	r4, #:lower16:.LANCHOR1
 357              		.loc 1 425 0
 358 0006 037A     		ldrb	r3, [r0, #8]	@ zero_extendqisi2
 359              		.loc 1 423 0
 360 0008 C0F20004 		movt	r4, #:upper16:.LANCHOR1
 361 000c 0029     		cmp	r1, #0
 362 000e 18BF     		it	ne
 363 0010 0C46     		movne	r4, r1
 364              	.LVL26:
 365              		.loc 1 425 0
 366 0012 012B     		cmp	r3, #1
 367              		.loc 1 420 0
 368 0014 0546     		mov	r5, r0
 369              		.loc 1 425 0
 370 0016 31D0     		beq	.L59
 371              	.LVL27:
 372              	.L55:
 373              		.loc 1 420 0
 374 0018 6B6F     		ldr	r3, [r5, #116]
 375              	.LVL28:
 376              	.LBB45:
 377              	.LBB46:
 378              		.loc 1 97 0
 379 001a 4FF4A051 		mov	r1, #5120
 380 001e 4FF48052 		mov	r2, #4096
 381 0022 C4F20102 		movt	r2, 16385
 382 0026 C4F20101 		movt	r1, 16385
 383 002a 9342     		cmp	r3, r2
 384 002c 18BF     		it	ne
 385 002e 8B42     		cmpne	r3, r1
 386              		.loc 1 101 0
 387 0030 0BBF     		itete	eq
 388 0032 2168     		ldreq	r1, [r4]
 389              		.loc 1 103 0
 390 0034 2168     		ldrne	r1, [r4]
 391              		.loc 1 101 0
 392 0036 4FF43D42 		moveq	r2, #48384
 393              		.loc 1 103 0
 394 003a 4DF68062 		movwne	r2, #56960
 395              		.loc 1 101 0
 396 003e 0CBF     		ite	eq
 397 0040 C0F20152 		movteq	r2, 1281
ARM GAS  /tmp/ccAHuN30.s 			page 8


 398              		.loc 1 103 0
 399 0044 C0F28022 		movtne	r2, 640
 400 0048 B2FBF1F2 		udiv	r2, r2, r1
 401 004c 92B2     		uxth	r2, r2
 402 004e 1A81     		strh	r2, [r3, #8]	@ movhi
 403              		.loc 1 108 0
 404 0050 A288     		ldrh	r2, [r4, #4]
 405              		.loc 1 106 0
 406 0052 E188     		ldrh	r1, [r4, #6]
 407              		.loc 1 107 0
 408 0054 2089     		ldrh	r0, [r4, #8]
 409              		.loc 1 108 0
 410 0056 42F40452 		orr	r2, r2, #8448
 411              		.loc 1 106 0
 412 005a 41F04004 		orr	r4, r1, #64
 413              	.LVL29:
 414              		.loc 1 108 0
 415 005e 42F02C02 		orr	r2, r2, #44
 416              		.loc 1 107 0
 417 0062 40F00100 		orr	r0, r0, #1
 418              		.loc 1 108 0
 419 0066 92B2     		uxth	r2, r2
 420              		.loc 1 106 0
 421 0068 A4B2     		uxth	r4, r4
 422              		.loc 1 107 0
 423 006a 80B2     		uxth	r0, r0
 424              		.loc 1 111 0
 425 006c 0021     		movs	r1, #0
 426              		.loc 1 106 0
 427 006e 1C82     		strh	r4, [r3, #16]	@ movhi
 428              		.loc 1 107 0
 429 0070 9882     		strh	r0, [r3, #20]	@ movhi
 430              		.loc 1 108 0
 431 0072 9A81     		strh	r2, [r3, #12]	@ movhi
 432              		.loc 1 111 0
 433 0074 1980     		strh	r1, [r3]	@ movhi
 434              		.loc 1 112 0
 435 0076 1A88     		ldrh	r2, [r3]
 436              		.loc 1 113 0
 437 0078 9B88     		ldrh	r3, [r3, #4]
 438              	.LVL30:
 439 007a 38BD     		pop	{r3, r4, r5, pc}
 440              	.LVL31:
 441              	.L59:
 442              	.LBE46:
 443              	.LBE45:
 444              		.loc 1 462 0
 445 007c 40F20003 		movw	r3, #:lower16:.LANCHOR0
 446 0080 C0F20003 		movt	r3, #:upper16:.LANCHOR0
 447 0084 9842     		cmp	r0, r3
 448 0086 C7D1     		bne	.L55
 449              		.loc 1 463 0
 450 0088 4FF46053 		mov	r3, #14336
 451 008c C4F20203 		movt	r3, 16386
 452              		.loc 1 464 0
 453 0090 4720     		movs	r0, #71
 454              	.LVL32:
ARM GAS  /tmp/ccAHuN30.s 			page 9


 455              		.loc 1 463 0
 456 0092 5A6C     		ldr	r2, [r3, #68]
 457 0094 42F02002 		orr	r2, r2, #32
 458 0098 5A64     		str	r2, [r3, #68]
 459              		.loc 1 464 0
 460 009a C021     		movs	r1, #192
 461 009c FFF7FEFF 		bl	nvicEnableVector
 462              	.LVL33:
 463 00a0 BAE7     		b	.L55
 464              		.cfi_endproc
 465              	.LFE125:
 466              		.size	sd_lld_start, .-sd_lld_start
 467 00a2 00BFAFF3 		.section	.text.sd_lld_stop,"ax",%progbits
 467      0080AFF3 
 467      0080AFF3 
 467      0080
 468              		.align	2
 469              		.p2align 4,,15
 470              		.global	sd_lld_stop
 471              		.thumb
 472              		.thumb_func
 473              		.type	sd_lld_stop, %function
 474              	sd_lld_stop:
 475              	.LFB126:
 476              		.loc 1 481 0
 477              		.cfi_startproc
 478              		@ args = 0, pretend = 0, frame = 0
 479              		@ frame_needed = 0, uses_anonymous_args = 0
 480              		@ link register save eliminated.
 481              	.LVL34:
 482              		.loc 1 483 0
 483 0000 037A     		ldrb	r3, [r0, #8]	@ zero_extendqisi2
 484 0002 022B     		cmp	r3, #2
 485 0004 00D0     		beq	.L64
 486              	.L60:
 487 0006 7047     		bx	lr
 488              	.L64:
 489              		.loc 1 521 0
 490 0008 40F20003 		movw	r3, #:lower16:.LANCHOR0
 491              		.loc 1 484 0
 492 000c 426F     		ldr	r2, [r0, #116]
 493              	.LVL35:
 494              		.loc 1 521 0
 495 000e C0F20003 		movt	r3, #:upper16:.LANCHOR0
 496              	.LBB47:
 497              	.LBB48:
 498              		.loc 1 124 0
 499 0012 0021     		movs	r1, #0
 500              	.LBE48:
 501              	.LBE47:
 502              		.loc 1 521 0
 503 0014 9842     		cmp	r0, r3
 504              	.LBB50:
 505              	.LBB49:
 506              		.loc 1 124 0
 507 0016 9181     		strh	r1, [r2, #12]	@ movhi
 508              		.loc 1 125 0
ARM GAS  /tmp/ccAHuN30.s 			page 10


 509 0018 1182     		strh	r1, [r2, #16]	@ movhi
 510              		.loc 1 126 0
 511 001a 9182     		strh	r1, [r2, #20]	@ movhi
 512              	.LBE49:
 513              	.LBE50:
 514              		.loc 1 521 0
 515 001c F3D1     		bne	.L60
 516              		.loc 1 522 0
 517 001e 4FF46053 		mov	r3, #14336
 518 0022 C4F20203 		movt	r3, 16386
 519              		.loc 1 523 0
 520 0026 4720     		movs	r0, #71
 521              	.LVL36:
 522              		.loc 1 522 0
 523 0028 5A6C     		ldr	r2, [r3, #68]
 524              	.LVL37:
 525 002a 22F02002 		bic	r2, r2, #32
 526 002e 5A64     		str	r2, [r3, #68]
 527              		.loc 1 523 0
 528 0030 FFF7FEBF 		b	nvicDisableVector
 529              	.LVL38:
 530              		.cfi_endproc
 531              	.LFE126:
 532              		.size	sd_lld_stop, .-sd_lld_stop
 533              		.global	SD6
 534 0034 AFF30080 		.section	.rodata.default_config,"a",%progbits
 534      AFF30080 
 534      AFF30080 
 535              		.align	2
 536              		.set	.LANCHOR1,. + 0
 537              		.type	default_config, %object
 538              		.size	default_config, 12
 539              	default_config:
 540 0000 00960000 		.word	38400
 541 0004 0000     		.short	0
 542 0006 0040     		.short	16384
 543 0008 0000     		.short	0
 544 000a 0000     		.space	2
 545              		.section	.bss.SD6,"aw",%nobits
 546              		.align	2
 547              		.set	.LANCHOR0,. + 0
 548              		.type	SD6, %object
 549              		.size	SD6, 120
 550              	SD6:
 551 0000 00000000 		.space	120
 551      00000000 
 551      00000000 
 551      00000000 
 551      00000000 
 552              		.text
 553              	.Letext0:
 554              		.file 2 "/usr/lib/gcc/arm-none-eabi/4.8.2/include/stddef.h"
 555              		.file 3 "/usr/include/newlib/machine/_default_types.h"
 556              		.file 4 "/usr/include/newlib/stdint.h"
 557              		.file 5 "../../os/ports/GCC/ARMCMx/chtypes.h"
 558              		.file 6 "../../os/kernel/include/chlists.h"
 559              		.file 7 "../../os/kernel/include/chthreads.h"
ARM GAS  /tmp/ccAHuN30.s 			page 11


 560              		.file 8 "../../os/ports/GCC/ARMCMx/chcore_v7m.h"
 561              		.file 9 "../../os/kernel/include/chmtx.h"
 562              		.file 10 "../../os/kernel/include/chevents.h"
 563              		.file 11 "../../os/kernel/include/chqueues.h"
 564              		.file 12 "../../os/hal/platforms/STM32F4xx/stm32f4xx.h"
 565              		.file 13 "../../os/hal/include/serial.h"
 566              		.file 14 "../../os/hal/platforms/STM32/USARTv1/serial_lld.h"
 567              		.file 15 "../../os/ports/common/ARMCMx/nvic.h"
 568              		.file 16 "../../os/ports/common/ARMCMx/CMSIS/include/core_cm4.h"
 569              		.section	.debug_info,"",%progbits
 570              	.Ldebug_info0:
 571 0000 63110000 		.4byte	0x1163
 572 0004 0400     		.2byte	0x4
 573 0006 00000000 		.4byte	.Ldebug_abbrev0
 574 000a 04       		.byte	0x4
 575 000b 01       		.uleb128 0x1
 576 000c BE060000 		.4byte	.LASF237
 577 0010 01       		.byte	0x1
 578 0011 47020000 		.4byte	.LASF238
 579 0015 A5090000 		.4byte	.LASF239
 580 0019 38000000 		.4byte	.Ldebug_ranges0+0x38
 581 001d 00000000 		.4byte	0
 582 0021 00000000 		.4byte	.Ldebug_line0
 583 0025 02       		.uleb128 0x2
 584 0026 04       		.byte	0x4
 585 0027 05       		.byte	0x5
 586 0028 696E7400 		.ascii	"int\000"
 587 002c 03       		.uleb128 0x3
 588 002d 00000000 		.4byte	.LASF2
 589 0031 02       		.byte	0x2
 590 0032 D4       		.byte	0xd4
 591 0033 37000000 		.4byte	0x37
 592 0037 04       		.uleb128 0x4
 593 0038 04       		.byte	0x4
 594 0039 07       		.byte	0x7
 595 003a 7E060000 		.4byte	.LASF0
 596 003e 04       		.uleb128 0x4
 597 003f 01       		.byte	0x1
 598 0040 06       		.byte	0x6
 599 0041 79020000 		.4byte	.LASF1
 600 0045 03       		.uleb128 0x3
 601 0046 13010000 		.4byte	.LASF3
 602 004a 03       		.byte	0x3
 603 004b 1C       		.byte	0x1c
 604 004c 50000000 		.4byte	0x50
 605 0050 04       		.uleb128 0x4
 606 0051 01       		.byte	0x1
 607 0052 08       		.byte	0x8
 608 0053 D1020000 		.4byte	.LASF4
 609 0057 04       		.uleb128 0x4
 610 0058 02       		.byte	0x2
 611 0059 05       		.byte	0x5
 612 005a 1C0A0000 		.4byte	.LASF5
 613 005e 03       		.uleb128 0x3
 614 005f 84030000 		.4byte	.LASF6
 615 0063 03       		.byte	0x3
 616 0064 26       		.byte	0x26
ARM GAS  /tmp/ccAHuN30.s 			page 12


 617 0065 69000000 		.4byte	0x69
 618 0069 04       		.uleb128 0x4
 619 006a 02       		.byte	0x2
 620 006b 07       		.byte	0x7
 621 006c 060B0000 		.4byte	.LASF7
 622 0070 03       		.uleb128 0x3
 623 0071 830B0000 		.4byte	.LASF8
 624 0075 03       		.byte	0x3
 625 0076 37       		.byte	0x37
 626 0077 7B000000 		.4byte	0x7b
 627 007b 04       		.uleb128 0x4
 628 007c 04       		.byte	0x4
 629 007d 05       		.byte	0x5
 630 007e 93010000 		.4byte	.LASF9
 631 0082 03       		.uleb128 0x3
 632 0083 8C050000 		.4byte	.LASF10
 633 0087 03       		.byte	0x3
 634 0088 38       		.byte	0x38
 635 0089 8D000000 		.4byte	0x8d
 636 008d 04       		.uleb128 0x4
 637 008e 04       		.byte	0x4
 638 008f 07       		.byte	0x7
 639 0090 CC040000 		.4byte	.LASF11
 640 0094 04       		.uleb128 0x4
 641 0095 08       		.byte	0x8
 642 0096 05       		.byte	0x5
 643 0097 B7050000 		.4byte	.LASF12
 644 009b 04       		.uleb128 0x4
 645 009c 08       		.byte	0x8
 646 009d 07       		.byte	0x7
 647 009e 9A080000 		.4byte	.LASF13
 648 00a2 03       		.uleb128 0x3
 649 00a3 8F020000 		.4byte	.LASF14
 650 00a7 04       		.byte	0x4
 651 00a8 2A       		.byte	0x2a
 652 00a9 45000000 		.4byte	0x45
 653 00ad 03       		.uleb128 0x3
 654 00ae B9080000 		.4byte	.LASF15
 655 00b2 04       		.byte	0x4
 656 00b3 36       		.byte	0x36
 657 00b4 5E000000 		.4byte	0x5e
 658 00b8 03       		.uleb128 0x3
 659 00b9 51000000 		.4byte	.LASF16
 660 00bd 04       		.byte	0x4
 661 00be 41       		.byte	0x41
 662 00bf 70000000 		.4byte	0x70
 663 00c3 03       		.uleb128 0x3
 664 00c4 B80A0000 		.4byte	.LASF17
 665 00c8 04       		.byte	0x4
 666 00c9 42       		.byte	0x42
 667 00ca 82000000 		.4byte	0x82
 668 00ce 04       		.uleb128 0x4
 669 00cf 01       		.byte	0x1
 670 00d0 02       		.byte	0x2
 671 00d1 31030000 		.4byte	.LASF18
 672 00d5 03       		.uleb128 0x3
 673 00d6 3F090000 		.4byte	.LASF19
ARM GAS  /tmp/ccAHuN30.s 			page 13


 674 00da 05       		.byte	0x5
 675 00db 2C       		.byte	0x2c
 676 00dc A2000000 		.4byte	0xa2
 677 00e0 03       		.uleb128 0x3
 678 00e1 D3010000 		.4byte	.LASF20
 679 00e5 05       		.byte	0x5
 680 00e6 2D       		.byte	0x2d
 681 00e7 A2000000 		.4byte	0xa2
 682 00eb 03       		.uleb128 0x3
 683 00ec 6F0A0000 		.4byte	.LASF21
 684 00f0 05       		.byte	0x5
 685 00f1 2E       		.byte	0x2e
 686 00f2 A2000000 		.4byte	0xa2
 687 00f6 03       		.uleb128 0x3
 688 00f7 DE080000 		.4byte	.LASF22
 689 00fb 05       		.byte	0x5
 690 00fc 2F       		.byte	0x2f
 691 00fd A2000000 		.4byte	0xa2
 692 0101 03       		.uleb128 0x3
 693 0102 3E000000 		.4byte	.LASF23
 694 0106 05       		.byte	0x5
 695 0107 30       		.byte	0x30
 696 0108 C3000000 		.4byte	0xc3
 697 010c 03       		.uleb128 0x3
 698 010d C2080000 		.4byte	.LASF24
 699 0111 05       		.byte	0x5
 700 0112 31       		.byte	0x31
 701 0113 B8000000 		.4byte	0xb8
 702 0117 03       		.uleb128 0x3
 703 0118 97020000 		.4byte	.LASF25
 704 011c 05       		.byte	0x5
 705 011d 33       		.byte	0x33
 706 011e C3000000 		.4byte	0xc3
 707 0122 03       		.uleb128 0x3
 708 0123 A1070000 		.4byte	.LASF26
 709 0127 05       		.byte	0x5
 710 0128 34       		.byte	0x34
 711 0129 C3000000 		.4byte	0xc3
 712 012d 03       		.uleb128 0x3
 713 012e 23000000 		.4byte	.LASF27
 714 0132 05       		.byte	0x5
 715 0133 35       		.byte	0x35
 716 0134 C3000000 		.4byte	0xc3
 717 0138 03       		.uleb128 0x3
 718 0139 480A0000 		.4byte	.LASF28
 719 013d 06       		.byte	0x6
 720 013e 2A       		.byte	0x2a
 721 013f 43010000 		.4byte	0x143
 722 0143 05       		.uleb128 0x5
 723 0144 480A0000 		.4byte	.LASF28
 724 0148 48       		.byte	0x48
 725 0149 07       		.byte	0x7
 726 014a 5E       		.byte	0x5e
 727 014b 40020000 		.4byte	0x240
 728 014f 06       		.uleb128 0x6
 729 0150 9C010000 		.4byte	.LASF29
 730 0154 07       		.byte	0x7
ARM GAS  /tmp/ccAHuN30.s 			page 14


 731 0155 5F       		.byte	0x5f
 732 0156 61020000 		.4byte	0x261
 733 015a 00       		.byte	0
 734 015b 06       		.uleb128 0x6
 735 015c AB010000 		.4byte	.LASF30
 736 0160 07       		.byte	0x7
 737 0161 61       		.byte	0x61
 738 0162 61020000 		.4byte	0x261
 739 0166 04       		.byte	0x4
 740 0167 06       		.uleb128 0x6
 741 0168 7D030000 		.4byte	.LASF31
 742 016c 07       		.byte	0x7
 743 016d 63       		.byte	0x63
 744 016e 01010000 		.4byte	0x101
 745 0172 08       		.byte	0x8
 746 0173 06       		.uleb128 0x6
 747 0174 38000000 		.4byte	.LASF32
 748 0178 07       		.byte	0x7
 749 0179 64       		.byte	0x64
 750 017a 1B030000 		.4byte	0x31b
 751 017e 0C       		.byte	0xc
 752 017f 06       		.uleb128 0x6
 753 0180 8B010000 		.4byte	.LASF33
 754 0184 07       		.byte	0x7
 755 0185 66       		.byte	0x66
 756 0186 61020000 		.4byte	0x261
 757 018a 10       		.byte	0x10
 758 018b 06       		.uleb128 0x6
 759 018c B1080000 		.4byte	.LASF34
 760 0190 07       		.byte	0x7
 761 0191 67       		.byte	0x67
 762 0192 61020000 		.4byte	0x261
 763 0196 14       		.byte	0x14
 764 0197 06       		.uleb128 0x6
 765 0198 9D0B0000 		.4byte	.LASF35
 766 019c 07       		.byte	0x7
 767 019d 6E       		.byte	0x6e
 768 019e 36040000 		.4byte	0x436
 769 01a2 18       		.byte	0x18
 770 01a3 06       		.uleb128 0x6
 771 01a4 D70B0000 		.4byte	.LASF36
 772 01a8 07       		.byte	0x7
 773 01a9 79       		.byte	0x79
 774 01aa E0000000 		.4byte	0xe0
 775 01ae 1C       		.byte	0x1c
 776 01af 06       		.uleb128 0x6
 777 01b0 71060000 		.4byte	.LASF37
 778 01b4 07       		.byte	0x7
 779 01b5 7D       		.byte	0x7d
 780 01b6 D5000000 		.4byte	0xd5
 781 01ba 1D       		.byte	0x1d
 782 01bb 06       		.uleb128 0x6
 783 01bc AE060000 		.4byte	.LASF38
 784 01c0 07       		.byte	0x7
 785 01c1 82       		.byte	0x82
 786 01c2 EB000000 		.4byte	0xeb
 787 01c6 1E       		.byte	0x1e
ARM GAS  /tmp/ccAHuN30.s 			page 15


 788 01c7 06       		.uleb128 0x6
 789 01c8 85020000 		.4byte	.LASF39
 790 01cc 07       		.byte	0x7
 791 01cd 88       		.byte	0x88
 792 01ce F6000000 		.4byte	0xf6
 793 01d2 1F       		.byte	0x1f
 794 01d3 06       		.uleb128 0x6
 795 01d4 CC070000 		.4byte	.LASF40
 796 01d8 07       		.byte	0x7
 797 01d9 8F       		.byte	0x8f
 798 01da 48030000 		.4byte	0x348
 799 01de 20       		.byte	0x20
 800 01df 07       		.uleb128 0x7
 801 01e0 705F7500 		.ascii	"p_u\000"
 802 01e4 07       		.byte	0x7
 803 01e5 B4       		.byte	0xb4
 804 01e6 01040000 		.4byte	0x401
 805 01ea 24       		.byte	0x24
 806 01eb 06       		.uleb128 0x6
 807 01ec 3E060000 		.4byte	.LASF41
 808 01f0 07       		.byte	0x7
 809 01f1 B9       		.byte	0xb9
 810 01f2 87020000 		.4byte	0x287
 811 01f6 28       		.byte	0x28
 812 01f7 06       		.uleb128 0x6
 813 01f8 46000000 		.4byte	.LASF42
 814 01fc 07       		.byte	0x7
 815 01fd BF       		.byte	0xbf
 816 01fe 67020000 		.4byte	0x267
 817 0202 2C       		.byte	0x2c
 818 0203 06       		.uleb128 0x6
 819 0204 C50B0000 		.4byte	.LASF43
 820 0208 07       		.byte	0x7
 821 0209 C3       		.byte	0xc3
 822 020a 0C010000 		.4byte	0x10c
 823 020e 34       		.byte	0x34
 824 020f 06       		.uleb128 0x6
 825 0210 0D040000 		.4byte	.LASF44
 826 0214 07       		.byte	0x7
 827 0215 C9       		.byte	0xc9
 828 0216 17010000 		.4byte	0x117
 829 021a 38       		.byte	0x38
 830 021b 06       		.uleb128 0x6
 831 021c DC010000 		.4byte	.LASF45
 832 0220 07       		.byte	0x7
 833 0221 D0       		.byte	0xd0
 834 0222 48040000 		.4byte	0x448
 835 0226 3C       		.byte	0x3c
 836 0227 06       		.uleb128 0x6
 837 0228 1A080000 		.4byte	.LASF46
 838 022c 07       		.byte	0x7
 839 022d D4       		.byte	0xd4
 840 022e 01010000 		.4byte	0x101
 841 0232 40       		.byte	0x40
 842 0233 06       		.uleb128 0x6
 843 0234 99060000 		.4byte	.LASF47
 844 0238 07       		.byte	0x7
ARM GAS  /tmp/ccAHuN30.s 			page 16


 845 0239 DA       		.byte	0xda
 846 023a 9D020000 		.4byte	0x29d
 847 023e 44       		.byte	0x44
 848 023f 00       		.byte	0
 849 0240 08       		.uleb128 0x8
 850 0241 08       		.byte	0x8
 851 0242 06       		.byte	0x6
 852 0243 61       		.byte	0x61
 853 0244 61020000 		.4byte	0x261
 854 0248 06       		.uleb128 0x6
 855 0249 9C010000 		.4byte	.LASF29
 856 024d 06       		.byte	0x6
 857 024e 62       		.byte	0x62
 858 024f 61020000 		.4byte	0x261
 859 0253 00       		.byte	0
 860 0254 06       		.uleb128 0x6
 861 0255 AB010000 		.4byte	.LASF30
 862 0259 06       		.byte	0x6
 863 025a 64       		.byte	0x64
 864 025b 61020000 		.4byte	0x261
 865 025f 04       		.byte	0x4
 866 0260 00       		.byte	0
 867 0261 09       		.uleb128 0x9
 868 0262 04       		.byte	0x4
 869 0263 38010000 		.4byte	0x138
 870 0267 03       		.uleb128 0x3
 871 0268 CF0A0000 		.4byte	.LASF48
 872 026c 06       		.byte	0x6
 873 026d 66       		.byte	0x66
 874 026e 40020000 		.4byte	0x240
 875 0272 08       		.uleb128 0x8
 876 0273 04       		.byte	0x4
 877 0274 06       		.byte	0x6
 878 0275 6B       		.byte	0x6b
 879 0276 87020000 		.4byte	0x287
 880 027a 06       		.uleb128 0x6
 881 027b 9C010000 		.4byte	.LASF29
 882 027f 06       		.byte	0x6
 883 0280 6D       		.byte	0x6d
 884 0281 61020000 		.4byte	0x261
 885 0285 00       		.byte	0
 886 0286 00       		.byte	0
 887 0287 03       		.uleb128 0x3
 888 0288 79070000 		.4byte	.LASF49
 889 028c 06       		.byte	0x6
 890 028d 70       		.byte	0x70
 891 028e 72020000 		.4byte	0x272
 892 0292 03       		.uleb128 0x3
 893 0293 05020000 		.4byte	.LASF50
 894 0297 08       		.byte	0x8
 895 0298 E5       		.byte	0xe5
 896 0299 9D020000 		.4byte	0x29d
 897 029d 0A       		.uleb128 0xa
 898 029e 04       		.byte	0x4
 899 029f 0B       		.uleb128 0xb
 900 02a0 00040000 		.4byte	.LASF51
 901 02a4 24       		.byte	0x24
ARM GAS  /tmp/ccAHuN30.s 			page 17


 902 02a5 08       		.byte	0x8
 903 02a6 0C01     		.2byte	0x10c
 904 02a8 1B030000 		.4byte	0x31b
 905 02ac 0C       		.uleb128 0xc
 906 02ad 723400   		.ascii	"r4\000"
 907 02b0 08       		.byte	0x8
 908 02b1 1F01     		.2byte	0x11f
 909 02b3 92020000 		.4byte	0x292
 910 02b7 00       		.byte	0
 911 02b8 0C       		.uleb128 0xc
 912 02b9 723500   		.ascii	"r5\000"
 913 02bc 08       		.byte	0x8
 914 02bd 2001     		.2byte	0x120
 915 02bf 92020000 		.4byte	0x292
 916 02c3 04       		.byte	0x4
 917 02c4 0C       		.uleb128 0xc
 918 02c5 723600   		.ascii	"r6\000"
 919 02c8 08       		.byte	0x8
 920 02c9 2101     		.2byte	0x121
 921 02cb 92020000 		.4byte	0x292
 922 02cf 08       		.byte	0x8
 923 02d0 0C       		.uleb128 0xc
 924 02d1 723700   		.ascii	"r7\000"
 925 02d4 08       		.byte	0x8
 926 02d5 2201     		.2byte	0x122
 927 02d7 92020000 		.4byte	0x292
 928 02db 0C       		.byte	0xc
 929 02dc 0C       		.uleb128 0xc
 930 02dd 723800   		.ascii	"r8\000"
 931 02e0 08       		.byte	0x8
 932 02e1 2301     		.2byte	0x123
 933 02e3 92020000 		.4byte	0x292
 934 02e7 10       		.byte	0x10
 935 02e8 0C       		.uleb128 0xc
 936 02e9 723900   		.ascii	"r9\000"
 937 02ec 08       		.byte	0x8
 938 02ed 2401     		.2byte	0x124
 939 02ef 92020000 		.4byte	0x292
 940 02f3 14       		.byte	0x14
 941 02f4 0C       		.uleb128 0xc
 942 02f5 72313000 		.ascii	"r10\000"
 943 02f9 08       		.byte	0x8
 944 02fa 2501     		.2byte	0x125
 945 02fc 92020000 		.4byte	0x292
 946 0300 18       		.byte	0x18
 947 0301 0C       		.uleb128 0xc
 948 0302 72313100 		.ascii	"r11\000"
 949 0306 08       		.byte	0x8
 950 0307 2601     		.2byte	0x126
 951 0309 92020000 		.4byte	0x292
 952 030d 1C       		.byte	0x1c
 953 030e 0C       		.uleb128 0xc
 954 030f 6C7200   		.ascii	"lr\000"
 955 0312 08       		.byte	0x8
 956 0313 2701     		.2byte	0x127
 957 0315 92020000 		.4byte	0x292
 958 0319 20       		.byte	0x20
ARM GAS  /tmp/ccAHuN30.s 			page 18


 959 031a 00       		.byte	0
 960 031b 0B       		.uleb128 0xb
 961 031c A3020000 		.4byte	.LASF52
 962 0320 04       		.byte	0x4
 963 0321 08       		.byte	0x8
 964 0322 3101     		.2byte	0x131
 965 0324 36030000 		.4byte	0x336
 966 0328 0C       		.uleb128 0xc
 967 0329 72313300 		.ascii	"r13\000"
 968 032d 08       		.byte	0x8
 969 032e 3201     		.2byte	0x132
 970 0330 36030000 		.4byte	0x336
 971 0334 00       		.byte	0
 972 0335 00       		.byte	0
 973 0336 09       		.uleb128 0x9
 974 0337 04       		.byte	0x4
 975 0338 9F020000 		.4byte	0x29f
 976 033c 0D       		.uleb128 0xd
 977 033d C3000000 		.4byte	0xc3
 978 0341 04       		.uleb128 0x4
 979 0342 04       		.byte	0x4
 980 0343 07       		.byte	0x7
 981 0344 1A000000 		.4byte	.LASF53
 982 0348 0D       		.uleb128 0xd
 983 0349 2D010000 		.4byte	0x12d
 984 034d 05       		.uleb128 0x5
 985 034e 97050000 		.4byte	.LASF54
 986 0352 10       		.byte	0x10
 987 0353 09       		.byte	0x9
 988 0354 2C       		.byte	0x2c
 989 0355 7E030000 		.4byte	0x37e
 990 0359 06       		.uleb128 0x6
 991 035a E9050000 		.4byte	.LASF55
 992 035e 09       		.byte	0x9
 993 035f 2D       		.byte	0x2d
 994 0360 67020000 		.4byte	0x267
 995 0364 00       		.byte	0
 996 0365 06       		.uleb128 0x6
 997 0366 02010000 		.4byte	.LASF56
 998 036a 09       		.byte	0x9
 999 036b 2F       		.byte	0x2f
 1000 036c 61020000 		.4byte	0x261
 1001 0370 08       		.byte	0x8
 1002 0371 06       		.uleb128 0x6
 1003 0372 A40B0000 		.4byte	.LASF57
 1004 0376 09       		.byte	0x9
 1005 0377 31       		.byte	0x31
 1006 0378 7E030000 		.4byte	0x37e
 1007 037c 0C       		.byte	0xc
 1008 037d 00       		.byte	0
 1009 037e 09       		.uleb128 0x9
 1010 037f 04       		.byte	0x4
 1011 0380 4D030000 		.4byte	0x34d
 1012 0384 03       		.uleb128 0x3
 1013 0385 97050000 		.4byte	.LASF54
 1014 0389 09       		.byte	0x9
 1015 038a 33       		.byte	0x33
ARM GAS  /tmp/ccAHuN30.s 			page 19


 1016 038b 4D030000 		.4byte	0x34d
 1017 038f 03       		.uleb128 0x3
 1018 0390 990A0000 		.4byte	.LASF58
 1019 0394 0A       		.byte	0xa
 1020 0395 2C       		.byte	0x2c
 1021 0396 9A030000 		.4byte	0x39a
 1022 039a 05       		.uleb128 0x5
 1023 039b 990A0000 		.4byte	.LASF58
 1024 039f 10       		.byte	0x10
 1025 03a0 0A       		.byte	0xa
 1026 03a1 31       		.byte	0x31
 1027 03a2 D7030000 		.4byte	0x3d7
 1028 03a6 06       		.uleb128 0x6
 1029 03a7 12050000 		.4byte	.LASF59
 1030 03ab 0A       		.byte	0xa
 1031 03ac 32       		.byte	0x32
 1032 03ad D7030000 		.4byte	0x3d7
 1033 03b1 00       		.byte	0
 1034 03b2 06       		.uleb128 0x6
 1035 03b3 CB0B0000 		.4byte	.LASF60
 1036 03b7 0A       		.byte	0xa
 1037 03b8 35       		.byte	0x35
 1038 03b9 61020000 		.4byte	0x261
 1039 03bd 04       		.byte	0x4
 1040 03be 06       		.uleb128 0x6
 1041 03bf 950B0000 		.4byte	.LASF61
 1042 03c3 0A       		.byte	0xa
 1043 03c4 37       		.byte	0x37
 1044 03c5 17010000 		.4byte	0x117
 1045 03c9 08       		.byte	0x8
 1046 03ca 06       		.uleb128 0x6
 1047 03cb A9000000 		.4byte	.LASF62
 1048 03cf 0A       		.byte	0xa
 1049 03d0 3A       		.byte	0x3a
 1050 03d1 22010000 		.4byte	0x122
 1051 03d5 0C       		.byte	0xc
 1052 03d6 00       		.byte	0
 1053 03d7 09       		.uleb128 0x9
 1054 03d8 04       		.byte	0x4
 1055 03d9 8F030000 		.4byte	0x38f
 1056 03dd 05       		.uleb128 0x5
 1057 03de B6040000 		.4byte	.LASF63
 1058 03e2 04       		.byte	0x4
 1059 03e3 0A       		.byte	0xa
 1060 03e4 41       		.byte	0x41
 1061 03e5 F6030000 		.4byte	0x3f6
 1062 03e9 06       		.uleb128 0x6
 1063 03ea 7A040000 		.4byte	.LASF64
 1064 03ee 0A       		.byte	0xa
 1065 03ef 42       		.byte	0x42
 1066 03f0 D7030000 		.4byte	0x3d7
 1067 03f4 00       		.byte	0
 1068 03f5 00       		.byte	0
 1069 03f6 03       		.uleb128 0x3
 1070 03f7 B6040000 		.4byte	.LASF63
 1071 03fb 0A       		.byte	0xa
 1072 03fc 45       		.byte	0x45
ARM GAS  /tmp/ccAHuN30.s 			page 20


 1073 03fd DD030000 		.4byte	0x3dd
 1074 0401 0E       		.uleb128 0xe
 1075 0402 04       		.byte	0x4
 1076 0403 07       		.byte	0x7
 1077 0404 96       		.byte	0x96
 1078 0405 36040000 		.4byte	0x436
 1079 0409 0F       		.uleb128 0xf
 1080 040a F40A0000 		.4byte	.LASF65
 1081 040e 07       		.byte	0x7
 1082 040f 9D       		.byte	0x9d
 1083 0410 0C010000 		.4byte	0x10c
 1084 0414 0F       		.uleb128 0xf
 1085 0415 0A010000 		.4byte	.LASF66
 1086 0419 07       		.byte	0x7
 1087 041a A4       		.byte	0xa4
 1088 041b 0C010000 		.4byte	0x10c
 1089 041f 0F       		.uleb128 0xf
 1090 0420 A4030000 		.4byte	.LASF67
 1091 0424 07       		.byte	0x7
 1092 0425 AB       		.byte	0xab
 1093 0426 9D020000 		.4byte	0x29d
 1094 042a 0F       		.uleb128 0xf
 1095 042b 34010000 		.4byte	.LASF68
 1096 042f 07       		.byte	0x7
 1097 0430 B2       		.byte	0xb2
 1098 0431 17010000 		.4byte	0x117
 1099 0435 00       		.byte	0
 1100 0436 09       		.uleb128 0x9
 1101 0437 04       		.byte	0x4
 1102 0438 3C040000 		.4byte	0x43c
 1103 043c 10       		.uleb128 0x10
 1104 043d 41040000 		.4byte	0x441
 1105 0441 04       		.uleb128 0x4
 1106 0442 01       		.byte	0x1
 1107 0443 08       		.byte	0x8
 1108 0444 6F030000 		.4byte	.LASF69
 1109 0448 09       		.uleb128 0x9
 1110 0449 04       		.byte	0x4
 1111 044a 84030000 		.4byte	0x384
 1112 044e 09       		.uleb128 0x9
 1113 044f 04       		.byte	0x4
 1114 0450 54040000 		.4byte	0x454
 1115 0454 11       		.uleb128 0x11
 1116 0455 0C010000 		.4byte	0x10c
 1117 0459 63040000 		.4byte	0x463
 1118 045d 12       		.uleb128 0x12
 1119 045e 9D020000 		.4byte	0x29d
 1120 0462 00       		.byte	0
 1121 0463 03       		.uleb128 0x3
 1122 0464 97030000 		.4byte	.LASF70
 1123 0468 0B       		.byte	0xb
 1124 0469 37       		.byte	0x37
 1125 046a 6E040000 		.4byte	0x46e
 1126 046e 05       		.uleb128 0x5
 1127 046f 97030000 		.4byte	.LASF70
 1128 0473 24       		.byte	0x24
 1129 0474 0B       		.byte	0xb
ARM GAS  /tmp/ccAHuN30.s 			page 21


 1130 0475 45       		.byte	0x45
 1131 0476 DB040000 		.4byte	0x4db
 1132 047a 06       		.uleb128 0x6
 1133 047b 2A090000 		.4byte	.LASF71
 1134 047f 0B       		.byte	0xb
 1135 0480 46       		.byte	0x46
 1136 0481 67020000 		.4byte	0x267
 1137 0485 00       		.byte	0
 1138 0486 06       		.uleb128 0x6
 1139 0487 82040000 		.4byte	.LASF72
 1140 048b 0B       		.byte	0xb
 1141 048c 47       		.byte	0x47
 1142 048d 2C000000 		.4byte	0x2c
 1143 0491 08       		.byte	0x8
 1144 0492 06       		.uleb128 0x6
 1145 0493 6C010000 		.4byte	.LASF73
 1146 0497 0B       		.byte	0xb
 1147 0498 48       		.byte	0x48
 1148 0499 FD040000 		.4byte	0x4fd
 1149 049d 0C       		.byte	0xc
 1150 049e 06       		.uleb128 0x6
 1151 049f 2E010000 		.4byte	.LASF74
 1152 04a3 0B       		.byte	0xb
 1153 04a4 49       		.byte	0x49
 1154 04a5 FD040000 		.4byte	0x4fd
 1155 04a9 10       		.byte	0x10
 1156 04aa 06       		.uleb128 0x6
 1157 04ab 1A050000 		.4byte	.LASF75
 1158 04af 0B       		.byte	0xb
 1159 04b0 4B       		.byte	0x4b
 1160 04b1 FD040000 		.4byte	0x4fd
 1161 04b5 14       		.byte	0x14
 1162 04b6 06       		.uleb128 0x6
 1163 04b7 A3010000 		.4byte	.LASF76
 1164 04bb 0B       		.byte	0xb
 1165 04bc 4C       		.byte	0x4c
 1166 04bd FD040000 		.4byte	0x4fd
 1167 04c1 18       		.byte	0x18
 1168 04c2 06       		.uleb128 0x6
 1169 04c3 75010000 		.4byte	.LASF77
 1170 04c7 0B       		.byte	0xb
 1171 04c8 4D       		.byte	0x4d
 1172 04c9 DB040000 		.4byte	0x4db
 1173 04cd 1C       		.byte	0x1c
 1174 04ce 06       		.uleb128 0x6
 1175 04cf FB020000 		.4byte	.LASF78
 1176 04d3 0B       		.byte	0xb
 1177 04d4 4E       		.byte	0x4e
 1178 04d5 9D020000 		.4byte	0x29d
 1179 04d9 20       		.byte	0x20
 1180 04da 00       		.byte	0
 1181 04db 03       		.uleb128 0x3
 1182 04dc 34060000 		.4byte	.LASF79
 1183 04e0 0B       		.byte	0xb
 1184 04e1 3A       		.byte	0x3a
 1185 04e2 E6040000 		.4byte	0x4e6
 1186 04e6 09       		.uleb128 0x9
ARM GAS  /tmp/ccAHuN30.s 			page 22


 1187 04e7 04       		.byte	0x4
 1188 04e8 EC040000 		.4byte	0x4ec
 1189 04ec 13       		.uleb128 0x13
 1190 04ed F7040000 		.4byte	0x4f7
 1191 04f1 12       		.uleb128 0x12
 1192 04f2 F7040000 		.4byte	0x4f7
 1193 04f6 00       		.byte	0
 1194 04f7 09       		.uleb128 0x9
 1195 04f8 04       		.byte	0x4
 1196 04f9 63040000 		.4byte	0x463
 1197 04fd 09       		.uleb128 0x9
 1198 04fe 04       		.byte	0x4
 1199 04ff A2000000 		.4byte	0xa2
 1200 0503 03       		.uleb128 0x3
 1201 0504 3C0B0000 		.4byte	.LASF80
 1202 0508 0B       		.byte	0xb
 1203 0509 82       		.byte	0x82
 1204 050a 63040000 		.4byte	0x463
 1205 050e 03       		.uleb128 0x3
 1206 050f CC030000 		.4byte	.LASF81
 1207 0513 0B       		.byte	0xb
 1208 0514 F5       		.byte	0xf5
 1209 0515 63040000 		.4byte	0x463
 1210 0519 11       		.uleb128 0x11
 1211 051a 2C000000 		.4byte	0x2c
 1212 051e 32050000 		.4byte	0x532
 1213 0522 12       		.uleb128 0x12
 1214 0523 9D020000 		.4byte	0x29d
 1215 0527 12       		.uleb128 0x12
 1216 0528 32050000 		.4byte	0x532
 1217 052c 12       		.uleb128 0x12
 1218 052d 2C000000 		.4byte	0x2c
 1219 0531 00       		.byte	0
 1220 0532 09       		.uleb128 0x9
 1221 0533 04       		.byte	0x4
 1222 0534 38050000 		.4byte	0x538
 1223 0538 10       		.uleb128 0x10
 1224 0539 A2000000 		.4byte	0xa2
 1225 053d 09       		.uleb128 0x9
 1226 053e 04       		.byte	0x4
 1227 053f 19050000 		.4byte	0x519
 1228 0543 11       		.uleb128 0x11
 1229 0544 2C000000 		.4byte	0x2c
 1230 0548 5C050000 		.4byte	0x55c
 1231 054c 12       		.uleb128 0x12
 1232 054d 9D020000 		.4byte	0x29d
 1233 0551 12       		.uleb128 0x12
 1234 0552 FD040000 		.4byte	0x4fd
 1235 0556 12       		.uleb128 0x12
 1236 0557 2C000000 		.4byte	0x2c
 1237 055b 00       		.byte	0
 1238 055c 09       		.uleb128 0x9
 1239 055d 04       		.byte	0x4
 1240 055e 43050000 		.4byte	0x543
 1241 0562 11       		.uleb128 0x11
 1242 0563 0C010000 		.4byte	0x10c
 1243 0567 76050000 		.4byte	0x576
ARM GAS  /tmp/ccAHuN30.s 			page 23


 1244 056b 12       		.uleb128 0x12
 1245 056c 9D020000 		.4byte	0x29d
 1246 0570 12       		.uleb128 0x12
 1247 0571 A2000000 		.4byte	0xa2
 1248 0575 00       		.byte	0
 1249 0576 09       		.uleb128 0x9
 1250 0577 04       		.byte	0x4
 1251 0578 62050000 		.4byte	0x562
 1252 057c 14       		.uleb128 0x14
 1253 057d D3070000 		.4byte	.LASF240
 1254 0581 01       		.byte	0x1
 1255 0582 0C       		.byte	0xc
 1256 0583 AA       		.byte	0xaa
 1257 0584 B7070000 		.4byte	0x7b7
 1258 0588 15       		.uleb128 0x15
 1259 0589 98040000 		.4byte	.LASF82
 1260 058d 72       		.sleb128 -14
 1261 058e 15       		.uleb128 0x15
 1262 058f DE040000 		.4byte	.LASF83
 1263 0593 74       		.sleb128 -12
 1264 0594 15       		.uleb128 0x15
 1265 0595 4C050000 		.4byte	.LASF84
 1266 0599 75       		.sleb128 -11
 1267 059a 15       		.uleb128 0x15
 1268 059b 5F030000 		.4byte	.LASF85
 1269 059f 76       		.sleb128 -10
 1270 05a0 15       		.uleb128 0x15
 1271 05a1 01060000 		.4byte	.LASF86
 1272 05a5 7B       		.sleb128 -5
 1273 05a6 15       		.uleb128 0x15
 1274 05a7 7D090000 		.4byte	.LASF87
 1275 05ab 7C       		.sleb128 -4
 1276 05ac 15       		.uleb128 0x15
 1277 05ad 520B0000 		.4byte	.LASF88
 1278 05b1 7E       		.sleb128 -2
 1279 05b2 15       		.uleb128 0x15
 1280 05b3 20020000 		.4byte	.LASF89
 1281 05b7 7F       		.sleb128 -1
 1282 05b8 15       		.uleb128 0x15
 1283 05b9 C2040000 		.4byte	.LASF90
 1284 05bd 00       		.sleb128 0
 1285 05be 15       		.uleb128 0x15
 1286 05bf 14090000 		.4byte	.LASF91
 1287 05c3 01       		.sleb128 1
 1288 05c4 15       		.uleb128 0x15
 1289 05c5 F4040000 		.4byte	.LASF92
 1290 05c9 02       		.sleb128 2
 1291 05ca 15       		.uleb128 0x15
 1292 05cb 8B0A0000 		.4byte	.LASF93
 1293 05cf 03       		.sleb128 3
 1294 05d0 15       		.uleb128 0x15
 1295 05d1 94000000 		.4byte	.LASF94
 1296 05d5 04       		.sleb128 4
 1297 05d6 15       		.uleb128 0x15
 1298 05d7 260A0000 		.4byte	.LASF95
 1299 05db 05       		.sleb128 5
 1300 05dc 15       		.uleb128 0x15
ARM GAS  /tmp/ccAHuN30.s 			page 24


 1301 05dd 34090000 		.4byte	.LASF96
 1302 05e1 06       		.sleb128 6
 1303 05e2 15       		.uleb128 0x15
 1304 05e3 38040000 		.4byte	.LASF97
 1305 05e7 07       		.sleb128 7
 1306 05e8 15       		.uleb128 0x15
 1307 05e9 E8080000 		.4byte	.LASF98
 1308 05ed 08       		.sleb128 8
 1309 05ee 15       		.uleb128 0x15
 1310 05ef 470B0000 		.4byte	.LASF99
 1311 05f3 09       		.sleb128 9
 1312 05f4 15       		.uleb128 0x15
 1313 05f5 FB0A0000 		.4byte	.LASF100
 1314 05f9 0A       		.sleb128 10
 1315 05fa 15       		.uleb128 0x15
 1316 05fb 37080000 		.4byte	.LASF101
 1317 05ff 0B       		.sleb128 11
 1318 0600 15       		.uleb128 0x15
 1319 0601 8F070000 		.4byte	.LASF102
 1320 0605 0C       		.sleb128 12
 1321 0606 15       		.uleb128 0x15
 1322 0607 AB020000 		.4byte	.LASF103
 1323 060b 0D       		.sleb128 13
 1324 060c 15       		.uleb128 0x15
 1325 060d 360A0000 		.4byte	.LASF104
 1326 0611 0E       		.sleb128 14
 1327 0612 15       		.uleb128 0x15
 1328 0613 47090000 		.4byte	.LASF105
 1329 0617 0F       		.sleb128 15
 1330 0618 15       		.uleb128 0x15
 1331 0619 50040000 		.4byte	.LASF106
 1332 061d 10       		.sleb128 16
 1333 061e 15       		.uleb128 0x15
 1334 061f D8070000 		.4byte	.LASF107
 1335 0623 11       		.sleb128 17
 1336 0624 15       		.uleb128 0x15
 1337 0625 01090000 		.4byte	.LASF108
 1338 0629 12       		.sleb128 18
 1339 062a 15       		.uleb128 0x15
 1340 062b 43040000 		.4byte	.LASF109
 1341 062f 13       		.sleb128 19
 1342 0630 15       		.uleb128 0x15
 1343 0631 AB030000 		.4byte	.LASF110
 1344 0635 14       		.sleb128 20
 1345 0636 15       		.uleb128 0x15
 1346 0637 C10A0000 		.4byte	.LASF111
 1347 063b 15       		.sleb128 21
 1348 063c 15       		.uleb128 0x15
 1349 063d 04050000 		.4byte	.LASF112
 1350 0641 16       		.sleb128 22
 1351 0642 15       		.uleb128 0x15
 1352 0643 DC0A0000 		.4byte	.LASF113
 1353 0647 17       		.sleb128 23
 1354 0648 15       		.uleb128 0x15
 1355 0649 79050000 		.4byte	.LASF114
 1356 064d 18       		.sleb128 24
 1357 064e 15       		.uleb128 0x15
ARM GAS  /tmp/ccAHuN30.s 			page 25


 1358 064f 4F0A0000 		.4byte	.LASF115
 1359 0653 19       		.sleb128 25
 1360 0654 15       		.uleb128 0x15
 1361 0655 E6010000 		.4byte	.LASF116
 1362 0659 1A       		.sleb128 26
 1363 065a 15       		.uleb128 0x15
 1364 065b 1D040000 		.4byte	.LASF117
 1365 065f 1B       		.sleb128 27
 1366 0660 15       		.uleb128 0x15
 1367 0661 C4000000 		.4byte	.LASF118
 1368 0665 1C       		.sleb128 28
 1369 0666 15       		.uleb128 0x15
 1370 0667 C8080000 		.4byte	.LASF119
 1371 066b 1D       		.sleb128 29
 1372 066c 15       		.uleb128 0x15
 1373 066d D8030000 		.4byte	.LASF120
 1374 0671 1E       		.sleb128 30
 1375 0672 15       		.uleb128 0x15
 1376 0673 F3030000 		.4byte	.LASF121
 1377 0677 1F       		.sleb128 31
 1378 0678 15       		.uleb128 0x15
 1379 0679 0C030000 		.4byte	.LASF122
 1380 067d 20       		.sleb128 32
 1381 067e 15       		.uleb128 0x15
 1382 067f A1060000 		.4byte	.LASF123
 1383 0683 21       		.sleb128 33
 1384 0684 15       		.uleb128 0x15
 1385 0685 3F050000 		.4byte	.LASF124
 1386 0689 22       		.sleb128 34
 1387 068a 15       		.uleb128 0x15
 1388 068b F7050000 		.4byte	.LASF125
 1389 068f 23       		.sleb128 35
 1390 0690 15       		.uleb128 0x15
 1391 0691 D3050000 		.4byte	.LASF126
 1392 0695 24       		.sleb128 36
 1393 0696 15       		.uleb128 0x15
 1394 0697 D2080000 		.4byte	.LASF127
 1395 069b 25       		.sleb128 37
 1396 069c 15       		.uleb128 0x15
 1397 069d E2030000 		.4byte	.LASF128
 1398 06a1 26       		.sleb128 38
 1399 06a2 15       		.uleb128 0x15
 1400 06a3 2D020000 		.4byte	.LASF129
 1401 06a7 27       		.sleb128 39
 1402 06a8 15       		.uleb128 0x15
 1403 06a9 8B080000 		.4byte	.LASF130
 1404 06ad 28       		.sleb128 40
 1405 06ae 15       		.uleb128 0x15
 1406 06af 5D080000 		.4byte	.LASF131
 1407 06b3 29       		.sleb128 41
 1408 06b4 15       		.uleb128 0x15
 1409 06b5 60060000 		.4byte	.LASF132
 1410 06b9 2A       		.sleb128 42
 1411 06ba 15       		.uleb128 0x15
 1412 06bb 3B010000 		.4byte	.LASF133
 1413 06bf 2B       		.sleb128 43
 1414 06c0 15       		.uleb128 0x15
ARM GAS  /tmp/ccAHuN30.s 			page 26


 1415 06c1 07000000 		.4byte	.LASF134
 1416 06c5 2C       		.sleb128 44
 1417 06c6 15       		.uleb128 0x15
 1418 06c7 62040000 		.4byte	.LASF135
 1419 06cb 2D       		.sleb128 45
 1420 06cc 15       		.uleb128 0x15
 1421 06cd 250B0000 		.4byte	.LASF136
 1422 06d1 2E       		.sleb128 46
 1423 06d2 15       		.uleb128 0x15
 1424 06d3 710B0000 		.4byte	.LASF137
 1425 06d7 2F       		.sleb128 47
 1426 06d8 15       		.uleb128 0x15
 1427 06d9 AC040000 		.4byte	.LASF138
 1428 06dd 30       		.sleb128 48
 1429 06de 15       		.uleb128 0x15
 1430 06df 320B0000 		.4byte	.LASF139
 1431 06e3 31       		.sleb128 49
 1432 06e4 15       		.uleb128 0x15
 1433 06e5 4B030000 		.4byte	.LASF140
 1434 06e9 32       		.sleb128 50
 1435 06ea 15       		.uleb128 0x15
 1436 06eb 8A000000 		.4byte	.LASF141
 1437 06ef 33       		.sleb128 51
 1438 06f0 15       		.uleb128 0x15
 1439 06f1 1F060000 		.4byte	.LASF142
 1440 06f5 34       		.sleb128 52
 1441 06f6 15       		.uleb128 0x15
 1442 06f7 6E050000 		.4byte	.LASF143
 1443 06fb 35       		.sleb128 53
 1444 06fc 15       		.uleb128 0x15
 1445 06fd 8B060000 		.4byte	.LASF144
 1446 0701 36       		.sleb128 54
 1447 0702 15       		.uleb128 0x15
 1448 0703 AD050000 		.4byte	.LASF145
 1449 0707 37       		.sleb128 55
 1450 0708 15       		.uleb128 0x15
 1451 0709 48060000 		.4byte	.LASF146
 1452 070d 38       		.sleb128 56
 1453 070e 15       		.uleb128 0x15
 1454 070f 78000000 		.4byte	.LASF147
 1455 0713 39       		.sleb128 57
 1456 0714 15       		.uleb128 0x15
 1457 0715 B30B0000 		.4byte	.LASF148
 1458 0719 3A       		.sleb128 58
 1459 071a 15       		.uleb128 0x15
 1460 071b AD070000 		.4byte	.LASF149
 1461 071f 3B       		.sleb128 59
 1462 0720 15       		.uleb128 0x15
 1463 0721 DF020000 		.4byte	.LASF150
 1464 0725 3C       		.sleb128 60
 1465 0726 15       		.uleb128 0x15
 1466 0727 F5090000 		.4byte	.LASF151
 1467 072b 3D       		.sleb128 61
 1468 072c 15       		.uleb128 0x15
 1469 072d C5050000 		.4byte	.LASF152
 1470 0731 3E       		.sleb128 62
 1471 0732 15       		.uleb128 0x15
ARM GAS  /tmp/ccAHuN30.s 			page 27


 1472 0733 BF070000 		.4byte	.LASF153
 1473 0737 3F       		.sleb128 63
 1474 0738 15       		.uleb128 0x15
 1475 0739 E8000000 		.4byte	.LASF154
 1476 073d C000     		.sleb128 64
 1477 073f 15       		.uleb128 0x15
 1478 0740 F3080000 		.4byte	.LASF155
 1479 0744 C100     		.sleb128 65
 1480 0746 15       		.uleb128 0x15
 1481 0747 19030000 		.4byte	.LASF156
 1482 074b C200     		.sleb128 66
 1483 074d 15       		.uleb128 0x15
 1484 074e 8C040000 		.4byte	.LASF157
 1485 0752 C300     		.sleb128 67
 1486 0754 15       		.uleb128 0x15
 1487 0755 C1010000 		.4byte	.LASF158
 1488 0759 C400     		.sleb128 68
 1489 075b 15       		.uleb128 0x15
 1490 075c 63090000 		.4byte	.LASF159
 1491 0760 C500     		.sleb128 69
 1492 0762 15       		.uleb128 0x15
 1493 0763 25080000 		.4byte	.LASF160
 1494 0767 C600     		.sleb128 70
 1495 0769 15       		.uleb128 0x15
 1496 076a F6000000 		.4byte	.LASF161
 1497 076e C700     		.sleb128 71
 1498 0770 15       		.uleb128 0x15
 1499 0771 98090000 		.4byte	.LASF162
 1500 0775 C800     		.sleb128 72
 1501 0777 15       		.uleb128 0x15
 1502 0778 74080000 		.4byte	.LASF163
 1503 077c C900     		.sleb128 73
 1504 077e 15       		.uleb128 0x15
 1505 077f 770A0000 		.4byte	.LASF164
 1506 0783 CA00     		.sleb128 74
 1507 0785 15       		.uleb128 0x15
 1508 0786 5E0B0000 		.4byte	.LASF165
 1509 078a CB00     		.sleb128 75
 1510 078c 15       		.uleb128 0x15
 1511 078d 1D010000 		.4byte	.LASF166
 1512 0791 CC00     		.sleb128 76
 1513 0793 15       		.uleb128 0x15
 1514 0794 DD050000 		.4byte	.LASF167
 1515 0798 CD00     		.sleb128 77
 1516 079a 15       		.uleb128 0x15
 1517 079b 9F000000 		.4byte	.LASF168
 1518 079f CE00     		.sleb128 78
 1519 07a1 15       		.uleb128 0x15
 1520 07a2 81080000 		.4byte	.LASF169
 1521 07a6 CF00     		.sleb128 79
 1522 07a8 15       		.uleb128 0x15
 1523 07a9 2A040000 		.4byte	.LASF170
 1524 07ad D000     		.sleb128 80
 1525 07af 15       		.uleb128 0x15
 1526 07b0 16060000 		.4byte	.LASF171
 1527 07b4 D100     		.sleb128 81
 1528 07b6 00       		.byte	0
ARM GAS  /tmp/ccAHuN30.s 			page 28


 1529 07b7 16       		.uleb128 0x16
 1530 07b8 C3000000 		.4byte	0xc3
 1531 07bc C7070000 		.4byte	0x7c7
 1532 07c0 17       		.uleb128 0x17
 1533 07c1 41030000 		.4byte	0x341
 1534 07c5 01       		.byte	0x1
 1535 07c6 00       		.byte	0
 1536 07c7 0D       		.uleb128 0xd
 1537 07c8 AD000000 		.4byte	0xad
 1538 07cc 0D       		.uleb128 0xd
 1539 07cd B8000000 		.4byte	0xb8
 1540 07d1 18       		.uleb128 0x18
 1541 07d2 90       		.byte	0x90
 1542 07d3 0C       		.byte	0xc
 1543 07d4 5804     		.2byte	0x458
 1544 07d6 7A090000 		.4byte	0x97a
 1545 07da 0C       		.uleb128 0xc
 1546 07db 435200   		.ascii	"CR\000"
 1547 07de 0C       		.byte	0xc
 1548 07df 5A04     		.2byte	0x45a
 1549 07e1 3C030000 		.4byte	0x33c
 1550 07e5 00       		.byte	0
 1551 07e6 19       		.uleb128 0x19
 1552 07e7 66050000 		.4byte	.LASF172
 1553 07eb 0C       		.byte	0xc
 1554 07ec 5B04     		.2byte	0x45b
 1555 07ee 3C030000 		.4byte	0x33c
 1556 07f2 04       		.byte	0x4
 1557 07f3 19       		.uleb128 0x19
 1558 07f4 18040000 		.4byte	.LASF173
 1559 07f8 0C       		.byte	0xc
 1560 07f9 5C04     		.2byte	0x45c
 1561 07fb 3C030000 		.4byte	0x33c
 1562 07ff 08       		.byte	0x8
 1563 0800 0C       		.uleb128 0xc
 1564 0801 43495200 		.ascii	"CIR\000"
 1565 0805 0C       		.byte	0xc
 1566 0806 5D04     		.2byte	0x45d
 1567 0808 3C030000 		.4byte	0x33c
 1568 080c 0C       		.byte	0xc
 1569 080d 19       		.uleb128 0x19
 1570 080e 74030000 		.4byte	.LASF174
 1571 0812 0C       		.byte	0xc
 1572 0813 5E04     		.2byte	0x45e
 1573 0815 3C030000 		.4byte	0x33c
 1574 0819 10       		.byte	0x10
 1575 081a 19       		.uleb128 0x19
 1576 081b EC090000 		.4byte	.LASF175
 1577 081f 0C       		.byte	0xc
 1578 0820 5F04     		.2byte	0x45f
 1579 0822 3C030000 		.4byte	0x33c
 1580 0826 14       		.byte	0x14
 1581 0827 19       		.uleb128 0x19
 1582 0828 FF070000 		.4byte	.LASF176
 1583 082c 0C       		.byte	0xc
 1584 082d 6004     		.2byte	0x460
 1585 082f 3C030000 		.4byte	0x33c
ARM GAS  /tmp/ccAHuN30.s 			page 29


 1586 0833 18       		.byte	0x18
 1587 0834 19       		.uleb128 0x19
 1588 0835 BD020000 		.4byte	.LASF177
 1589 0839 0C       		.byte	0xc
 1590 083a 6104     		.2byte	0x461
 1591 083c C3000000 		.4byte	0xc3
 1592 0840 1C       		.byte	0x1c
 1593 0841 19       		.uleb128 0x19
 1594 0842 49080000 		.4byte	.LASF178
 1595 0846 0C       		.byte	0xc
 1596 0847 6204     		.2byte	0x462
 1597 0849 3C030000 		.4byte	0x33c
 1598 084d 20       		.byte	0x20
 1599 084e 19       		.uleb128 0x19
 1600 084f 0D060000 		.4byte	.LASF179
 1601 0853 0C       		.byte	0xc
 1602 0854 6304     		.2byte	0x463
 1603 0856 3C030000 		.4byte	0x33c
 1604 085a 24       		.byte	0x24
 1605 085b 19       		.uleb128 0x19
 1606 085c C7020000 		.4byte	.LASF180
 1607 0860 0C       		.byte	0xc
 1608 0861 6404     		.2byte	0x464
 1609 0863 B7070000 		.4byte	0x7b7
 1610 0867 28       		.byte	0x28
 1611 0868 19       		.uleb128 0x19
 1612 0869 75090000 		.4byte	.LASF181
 1613 086d 0C       		.byte	0xc
 1614 086e 6504     		.2byte	0x465
 1615 0870 3C030000 		.4byte	0x33c
 1616 0874 30       		.byte	0x30
 1617 0875 19       		.uleb128 0x19
 1618 0876 8F030000 		.4byte	.LASF182
 1619 087a 0C       		.byte	0xc
 1620 087b 6604     		.2byte	0x466
 1621 087d 3C030000 		.4byte	0x33c
 1622 0881 34       		.byte	0x34
 1623 0882 19       		.uleb128 0x19
 1624 0883 AB0B0000 		.4byte	.LASF183
 1625 0887 0C       		.byte	0xc
 1626 0888 6704     		.2byte	0x467
 1627 088a 3C030000 		.4byte	0x33c
 1628 088e 38       		.byte	0x38
 1629 088f 19       		.uleb128 0x19
 1630 0890 37030000 		.4byte	.LASF184
 1631 0894 0C       		.byte	0xc
 1632 0895 6804     		.2byte	0x468
 1633 0897 C3000000 		.4byte	0xc3
 1634 089b 3C       		.byte	0x3c
 1635 089c 19       		.uleb128 0x19
 1636 089d 6C080000 		.4byte	.LASF185
 1637 08a1 0C       		.byte	0xc
 1638 08a2 6904     		.2byte	0x469
 1639 08a4 3C030000 		.4byte	0x33c
 1640 08a8 40       		.byte	0x40
 1641 08a9 19       		.uleb128 0x19
 1642 08aa 0E020000 		.4byte	.LASF186
ARM GAS  /tmp/ccAHuN30.s 			page 30


 1643 08ae 0C       		.byte	0xc
 1644 08af 6A04     		.2byte	0x46a
 1645 08b1 3C030000 		.4byte	0x33c
 1646 08b5 44       		.byte	0x44
 1647 08b6 19       		.uleb128 0x19
 1648 08b7 41030000 		.4byte	.LASF187
 1649 08bb 0C       		.byte	0xc
 1650 08bc 6B04     		.2byte	0x46b
 1651 08be B7070000 		.4byte	0x7b7
 1652 08c2 48       		.byte	0x48
 1653 08c3 19       		.uleb128 0x19
 1654 08c4 16020000 		.4byte	.LASF188
 1655 08c8 0C       		.byte	0xc
 1656 08c9 6C04     		.2byte	0x46c
 1657 08cb 3C030000 		.4byte	0x33c
 1658 08cf 50       		.byte	0x50
 1659 08d0 19       		.uleb128 0x19
 1660 08d1 4F010000 		.4byte	.LASF189
 1661 08d5 0C       		.byte	0xc
 1662 08d6 6D04     		.2byte	0x46d
 1663 08d8 3C030000 		.4byte	0x33c
 1664 08dc 54       		.byte	0x54
 1665 08dd 19       		.uleb128 0x19
 1666 08de 0A090000 		.4byte	.LASF190
 1667 08e2 0C       		.byte	0xc
 1668 08e3 6E04     		.2byte	0x46e
 1669 08e5 3C030000 		.4byte	0x33c
 1670 08e9 58       		.byte	0x58
 1671 08ea 19       		.uleb128 0x19
 1672 08eb F1020000 		.4byte	.LASF191
 1673 08ef 0C       		.byte	0xc
 1674 08f0 6F04     		.2byte	0x46f
 1675 08f2 C3000000 		.4byte	0xc3
 1676 08f6 5C       		.byte	0x5c
 1677 08f7 19       		.uleb128 0x19
 1678 08f8 85070000 		.4byte	.LASF192
 1679 08fc 0C       		.byte	0xc
 1680 08fd 7004     		.2byte	0x470
 1681 08ff 3C030000 		.4byte	0x33c
 1682 0903 60       		.byte	0x60
 1683 0904 19       		.uleb128 0x19
 1684 0905 2A060000 		.4byte	.LASF193
 1685 0909 0C       		.byte	0xc
 1686 090a 7104     		.2byte	0x471
 1687 090c 3C030000 		.4byte	0x33c
 1688 0910 64       		.byte	0x64
 1689 0911 19       		.uleb128 0x19
 1690 0912 55030000 		.4byte	.LASF194
 1691 0916 0C       		.byte	0xc
 1692 0917 7204     		.2byte	0x472
 1693 0919 B7070000 		.4byte	0x7b7
 1694 091d 68       		.byte	0x68
 1695 091e 19       		.uleb128 0x19
 1696 091f EE030000 		.4byte	.LASF195
 1697 0923 0C       		.byte	0xc
 1698 0924 7304     		.2byte	0x473
 1699 0926 3C030000 		.4byte	0x33c
ARM GAS  /tmp/ccAHuN30.s 			page 31


 1700 092a 70       		.byte	0x70
 1701 092b 0C       		.uleb128 0xc
 1702 092c 43535200 		.ascii	"CSR\000"
 1703 0930 0C       		.byte	0xc
 1704 0931 7404     		.2byte	0x474
 1705 0933 3C030000 		.4byte	0x33c
 1706 0937 74       		.byte	0x74
 1707 0938 19       		.uleb128 0x19
 1708 0939 02030000 		.4byte	.LASF196
 1709 093d 0C       		.byte	0xc
 1710 093e 7504     		.2byte	0x475
 1711 0940 B7070000 		.4byte	0x7b7
 1712 0944 78       		.byte	0x78
 1713 0945 19       		.uleb128 0x19
 1714 0946 F1050000 		.4byte	.LASF197
 1715 094a 0C       		.byte	0xc
 1716 094b 7604     		.2byte	0x476
 1717 094d 3C030000 		.4byte	0x33c
 1718 0951 80       		.byte	0x80
 1719 0952 19       		.uleb128 0x19
 1720 0953 2D000000 		.4byte	.LASF198
 1721 0957 0C       		.byte	0xc
 1722 0958 7704     		.2byte	0x477
 1723 095a 3C030000 		.4byte	0x33c
 1724 095e 84       		.byte	0x84
 1725 095f 19       		.uleb128 0x19
 1726 0960 E90A0000 		.4byte	.LASF199
 1727 0964 0C       		.byte	0xc
 1728 0965 7804     		.2byte	0x478
 1729 0967 3C030000 		.4byte	0x33c
 1730 096b 88       		.byte	0x88
 1731 096c 19       		.uleb128 0x19
 1732 096d 39020000 		.4byte	.LASF200
 1733 0971 0C       		.byte	0xc
 1734 0972 7904     		.2byte	0x479
 1735 0974 3C030000 		.4byte	0x33c
 1736 0978 8C       		.byte	0x8c
 1737 0979 00       		.byte	0
 1738 097a 1A       		.uleb128 0x1a
 1739 097b 060A0000 		.4byte	.LASF201
 1740 097f 0C       		.byte	0xc
 1741 0980 7B04     		.2byte	0x47b
 1742 0982 D1070000 		.4byte	0x7d1
 1743 0986 18       		.uleb128 0x18
 1744 0987 1C       		.byte	0x1c
 1745 0988 0C       		.byte	0xc
 1746 0989 2905     		.2byte	0x529
 1747 098b 440A0000 		.4byte	0xa44
 1748 098f 0C       		.uleb128 0xc
 1749 0990 535200   		.ascii	"SR\000"
 1750 0993 0C       		.byte	0xc
 1751 0994 2B05     		.2byte	0x52b
 1752 0996 C7070000 		.4byte	0x7c7
 1753 099a 00       		.byte	0
 1754 099b 19       		.uleb128 0x19
 1755 099c BD020000 		.4byte	.LASF177
 1756 09a0 0C       		.byte	0xc
ARM GAS  /tmp/ccAHuN30.s 			page 32


 1757 09a1 2C05     		.2byte	0x52c
 1758 09a3 AD000000 		.4byte	0xad
 1759 09a7 02       		.byte	0x2
 1760 09a8 0C       		.uleb128 0xc
 1761 09a9 445200   		.ascii	"DR\000"
 1762 09ac 0C       		.byte	0xc
 1763 09ad 2D05     		.2byte	0x52d
 1764 09af C7070000 		.4byte	0x7c7
 1765 09b3 04       		.byte	0x4
 1766 09b4 19       		.uleb128 0x19
 1767 09b5 C7020000 		.4byte	.LASF180
 1768 09b9 0C       		.byte	0xc
 1769 09ba 2E05     		.2byte	0x52e
 1770 09bc AD000000 		.4byte	0xad
 1771 09c0 06       		.byte	0x6
 1772 09c1 0C       		.uleb128 0xc
 1773 09c2 42525200 		.ascii	"BRR\000"
 1774 09c6 0C       		.byte	0xc
 1775 09c7 2F05     		.2byte	0x52f
 1776 09c9 C7070000 		.4byte	0x7c7
 1777 09cd 08       		.byte	0x8
 1778 09ce 19       		.uleb128 0x19
 1779 09cf 37030000 		.4byte	.LASF184
 1780 09d3 0C       		.byte	0xc
 1781 09d4 3005     		.2byte	0x530
 1782 09d6 AD000000 		.4byte	0xad
 1783 09da 0A       		.byte	0xa
 1784 09db 0C       		.uleb128 0xc
 1785 09dc 43523100 		.ascii	"CR1\000"
 1786 09e0 0C       		.byte	0xc
 1787 09e1 3105     		.2byte	0x531
 1788 09e3 C7070000 		.4byte	0x7c7
 1789 09e7 0C       		.byte	0xc
 1790 09e8 19       		.uleb128 0x19
 1791 09e9 41030000 		.4byte	.LASF187
 1792 09ed 0C       		.byte	0xc
 1793 09ee 3205     		.2byte	0x532
 1794 09f0 AD000000 		.4byte	0xad
 1795 09f4 0E       		.byte	0xe
 1796 09f5 0C       		.uleb128 0xc
 1797 09f6 43523200 		.ascii	"CR2\000"
 1798 09fa 0C       		.byte	0xc
 1799 09fb 3305     		.2byte	0x533
 1800 09fd C7070000 		.4byte	0x7c7
 1801 0a01 10       		.byte	0x10
 1802 0a02 19       		.uleb128 0x19
 1803 0a03 F1020000 		.4byte	.LASF191
 1804 0a07 0C       		.byte	0xc
 1805 0a08 3405     		.2byte	0x534
 1806 0a0a AD000000 		.4byte	0xad
 1807 0a0e 12       		.byte	0x12
 1808 0a0f 0C       		.uleb128 0xc
 1809 0a10 43523300 		.ascii	"CR3\000"
 1810 0a14 0C       		.byte	0xc
 1811 0a15 3505     		.2byte	0x535
 1812 0a17 C7070000 		.4byte	0x7c7
 1813 0a1b 14       		.byte	0x14
ARM GAS  /tmp/ccAHuN30.s 			page 33


 1814 0a1c 19       		.uleb128 0x19
 1815 0a1d 55030000 		.4byte	.LASF194
 1816 0a21 0C       		.byte	0xc
 1817 0a22 3605     		.2byte	0x536
 1818 0a24 AD000000 		.4byte	0xad
 1819 0a28 16       		.byte	0x16
 1820 0a29 19       		.uleb128 0x19
 1821 0a2a 6D000000 		.4byte	.LASF202
 1822 0a2e 0C       		.byte	0xc
 1823 0a2f 3705     		.2byte	0x537
 1824 0a31 C7070000 		.4byte	0x7c7
 1825 0a35 18       		.byte	0x18
 1826 0a36 19       		.uleb128 0x19
 1827 0a37 02030000 		.4byte	.LASF196
 1828 0a3b 0C       		.byte	0xc
 1829 0a3c 3805     		.2byte	0x538
 1830 0a3e AD000000 		.4byte	0xad
 1831 0a42 1A       		.byte	0x1a
 1832 0a43 00       		.byte	0
 1833 0a44 1A       		.uleb128 0x1a
 1834 0a45 BE030000 		.4byte	.LASF203
 1835 0a49 0C       		.byte	0xc
 1836 0a4a 3905     		.2byte	0x539
 1837 0a4c 86090000 		.4byte	0x986
 1838 0a50 11       		.uleb128 0x11
 1839 0a51 0C010000 		.4byte	0x10c
 1840 0a55 690A0000 		.4byte	0xa69
 1841 0a59 12       		.uleb128 0x12
 1842 0a5a 9D020000 		.4byte	0x29d
 1843 0a5e 12       		.uleb128 0x12
 1844 0a5f A2000000 		.4byte	0xa2
 1845 0a63 12       		.uleb128 0x12
 1846 0a64 2D010000 		.4byte	0x12d
 1847 0a68 00       		.byte	0
 1848 0a69 09       		.uleb128 0x9
 1849 0a6a 04       		.byte	0x4
 1850 0a6b 500A0000 		.4byte	0xa50
 1851 0a6f 11       		.uleb128 0x11
 1852 0a70 0C010000 		.4byte	0x10c
 1853 0a74 830A0000 		.4byte	0xa83
 1854 0a78 12       		.uleb128 0x12
 1855 0a79 9D020000 		.4byte	0x29d
 1856 0a7d 12       		.uleb128 0x12
 1857 0a7e 2D010000 		.4byte	0x12d
 1858 0a82 00       		.byte	0
 1859 0a83 09       		.uleb128 0x9
 1860 0a84 04       		.byte	0x4
 1861 0a85 6F0A0000 		.4byte	0xa6f
 1862 0a89 11       		.uleb128 0x11
 1863 0a8a 2C000000 		.4byte	0x2c
 1864 0a8e A70A0000 		.4byte	0xaa7
 1865 0a92 12       		.uleb128 0x12
 1866 0a93 9D020000 		.4byte	0x29d
 1867 0a97 12       		.uleb128 0x12
 1868 0a98 32050000 		.4byte	0x532
 1869 0a9c 12       		.uleb128 0x12
 1870 0a9d 2C000000 		.4byte	0x2c
ARM GAS  /tmp/ccAHuN30.s 			page 34


 1871 0aa1 12       		.uleb128 0x12
 1872 0aa2 2D010000 		.4byte	0x12d
 1873 0aa6 00       		.byte	0
 1874 0aa7 09       		.uleb128 0x9
 1875 0aa8 04       		.byte	0x4
 1876 0aa9 890A0000 		.4byte	0xa89
 1877 0aad 11       		.uleb128 0x11
 1878 0aae 2C000000 		.4byte	0x2c
 1879 0ab2 CB0A0000 		.4byte	0xacb
 1880 0ab6 12       		.uleb128 0x12
 1881 0ab7 9D020000 		.4byte	0x29d
 1882 0abb 12       		.uleb128 0x12
 1883 0abc FD040000 		.4byte	0x4fd
 1884 0ac0 12       		.uleb128 0x12
 1885 0ac1 2C000000 		.4byte	0x2c
 1886 0ac5 12       		.uleb128 0x12
 1887 0ac6 2D010000 		.4byte	0x12d
 1888 0aca 00       		.byte	0
 1889 0acb 09       		.uleb128 0x9
 1890 0acc 04       		.byte	0x4
 1891 0acd AD0A0000 		.4byte	0xaad
 1892 0ad1 1B       		.uleb128 0x1b
 1893 0ad2 01       		.byte	0x1
 1894 0ad3 0D       		.byte	0xd
 1895 0ad4 64       		.byte	0x64
 1896 0ad5 EC0A0000 		.4byte	0xaec
 1897 0ad9 15       		.uleb128 0x15
 1898 0ada 27030000 		.4byte	.LASF204
 1899 0ade 00       		.sleb128 0
 1900 0adf 15       		.uleb128 0x15
 1901 0ae0 8D0B0000 		.4byte	.LASF205
 1902 0ae4 01       		.sleb128 1
 1903 0ae5 15       		.uleb128 0x15
 1904 0ae6 8F090000 		.4byte	.LASF206
 1905 0aea 02       		.sleb128 2
 1906 0aeb 00       		.byte	0
 1907 0aec 03       		.uleb128 0x3
 1908 0aed 59090000 		.4byte	.LASF207
 1909 0af1 0D       		.byte	0xd
 1910 0af2 68       		.byte	0x68
 1911 0af3 D10A0000 		.4byte	0xad1
 1912 0af7 03       		.uleb128 0x3
 1913 0af8 1D090000 		.4byte	.LASF208
 1914 0afc 0D       		.byte	0xd
 1915 0afd 6D       		.byte	0x6d
 1916 0afe 020B0000 		.4byte	0xb02
 1917 0b02 05       		.uleb128 0x5
 1918 0b03 1D090000 		.4byte	.LASF208
 1919 0b07 78       		.byte	0x78
 1920 0b08 0D       		.byte	0xd
 1921 0b09 87       		.byte	0x87
 1922 0b0a 6D0B0000 		.4byte	0xb6d
 1923 0b0e 07       		.uleb128 0x7
 1924 0b0f 766D7400 		.ascii	"vmt\000"
 1925 0b13 0D       		.byte	0xd
 1926 0b14 89       		.byte	0x89
 1927 0b15 1E0C0000 		.4byte	0xc1e
ARM GAS  /tmp/ccAHuN30.s 			page 35


 1928 0b19 00       		.byte	0
 1929 0b1a 06       		.uleb128 0x6
 1930 0b1b 5A060000 		.4byte	.LASF209
 1931 0b1f 0D       		.byte	0xd
 1932 0b20 8A       		.byte	0x8a
 1933 0b21 F6030000 		.4byte	0x3f6
 1934 0b25 04       		.byte	0x4
 1935 0b26 06       		.uleb128 0x6
 1936 0b27 B9000000 		.4byte	.LASF210
 1937 0b2b 0D       		.byte	0xd
 1938 0b2c 8A       		.byte	0x8a
 1939 0b2d EC0A0000 		.4byte	0xaec
 1940 0b31 08       		.byte	0x8
 1941 0b32 06       		.uleb128 0x6
 1942 0b33 2F0A0000 		.4byte	.LASF211
 1943 0b37 0D       		.byte	0xd
 1944 0b38 8A       		.byte	0x8a
 1945 0b39 03050000 		.4byte	0x503
 1946 0b3d 0C       		.byte	0xc
 1947 0b3e 06       		.uleb128 0x6
 1948 0b3f FE010000 		.4byte	.LASF212
 1949 0b43 0D       		.byte	0xd
 1950 0b44 8A       		.byte	0x8a
 1951 0b45 0E050000 		.4byte	0x50e
 1952 0b49 30       		.byte	0x30
 1953 0b4a 07       		.uleb128 0x7
 1954 0b4b 696200   		.ascii	"ib\000"
 1955 0b4e 0D       		.byte	0xd
 1956 0b4f 8A       		.byte	0x8a
 1957 0b50 290C0000 		.4byte	0xc29
 1958 0b54 54       		.byte	0x54
 1959 0b55 07       		.uleb128 0x7
 1960 0b56 6F6200   		.ascii	"ob\000"
 1961 0b59 0D       		.byte	0xd
 1962 0b5a 8A       		.byte	0x8a
 1963 0b5b 290C0000 		.4byte	0xc29
 1964 0b5f 64       		.byte	0x64
 1965 0b60 06       		.uleb128 0x6
 1966 0b61 41020000 		.4byte	.LASF213
 1967 0b65 0D       		.byte	0xd
 1968 0b66 8A       		.byte	0x8a
 1969 0b67 390C0000 		.4byte	0xc39
 1970 0b6b 74       		.byte	0x74
 1971 0b6c 00       		.byte	0
 1972 0b6d 08       		.uleb128 0x8
 1973 0b6e 0C       		.byte	0xc
 1974 0b6f 0E       		.byte	0xe
 1975 0b70 D7       		.byte	0xd7
 1976 0b71 A60B0000 		.4byte	0xba6
 1977 0b75 06       		.uleb128 0x6
 1978 0b76 07040000 		.4byte	.LASF214
 1979 0b7a 0E       		.byte	0xe
 1980 0b7b DB       		.byte	0xdb
 1981 0b7c C3000000 		.4byte	0xc3
 1982 0b80 00       		.byte	0
 1983 0b81 07       		.uleb128 0x7
 1984 0b82 63723100 		.ascii	"cr1\000"
ARM GAS  /tmp/ccAHuN30.s 			page 36


 1985 0b86 0E       		.byte	0xe
 1986 0b87 E0       		.byte	0xe0
 1987 0b88 AD000000 		.4byte	0xad
 1988 0b8c 04       		.byte	0x4
 1989 0b8d 07       		.uleb128 0x7
 1990 0b8e 63723200 		.ascii	"cr2\000"
 1991 0b92 0E       		.byte	0xe
 1992 0b93 E4       		.byte	0xe4
 1993 0b94 AD000000 		.4byte	0xad
 1994 0b98 06       		.byte	0x6
 1995 0b99 07       		.uleb128 0x7
 1996 0b9a 63723300 		.ascii	"cr3\000"
 1997 0b9e 0E       		.byte	0xe
 1998 0b9f E8       		.byte	0xe8
 1999 0ba0 AD000000 		.4byte	0xad
 2000 0ba4 08       		.byte	0x8
 2001 0ba5 00       		.byte	0
 2002 0ba6 03       		.uleb128 0x3
 2003 0ba7 59000000 		.4byte	.LASF215
 2004 0bab 0E       		.byte	0xe
 2005 0bac E9       		.byte	0xe9
 2006 0bad 6D0B0000 		.4byte	0xb6d
 2007 0bb1 05       		.uleb128 0x5
 2008 0bb2 22050000 		.4byte	.LASF216
 2009 0bb6 20       		.byte	0x20
 2010 0bb7 0D       		.byte	0xd
 2011 0bb8 7C       		.byte	0x7c
 2012 0bb9 1E0C0000 		.4byte	0xc1e
 2013 0bbd 06       		.uleb128 0x6
 2014 0bbe 72000000 		.4byte	.LASF217
 2015 0bc2 0D       		.byte	0xd
 2016 0bc3 7D       		.byte	0x7d
 2017 0bc4 3D050000 		.4byte	0x53d
 2018 0bc8 00       		.byte	0
 2019 0bc9 06       		.uleb128 0x6
 2020 0bca 79060000 		.4byte	.LASF218
 2021 0bce 0D       		.byte	0xd
 2022 0bcf 7D       		.byte	0x7d
 2023 0bd0 5C050000 		.4byte	0x55c
 2024 0bd4 04       		.byte	0x4
 2025 0bd5 07       		.uleb128 0x7
 2026 0bd6 70757400 		.ascii	"put\000"
 2027 0bda 0D       		.byte	0xd
 2028 0bdb 7D       		.byte	0x7d
 2029 0bdc 76050000 		.4byte	0x576
 2030 0be0 08       		.byte	0x8
 2031 0be1 07       		.uleb128 0x7
 2032 0be2 67657400 		.ascii	"get\000"
 2033 0be6 0D       		.byte	0xd
 2034 0be7 7D       		.byte	0x7d
 2035 0be8 4E040000 		.4byte	0x44e
 2036 0bec 0C       		.byte	0xc
 2037 0bed 06       		.uleb128 0x6
 2038 0bee BF000000 		.4byte	.LASF219
 2039 0bf2 0D       		.byte	0xd
 2040 0bf3 7D       		.byte	0x7d
 2041 0bf4 690A0000 		.4byte	0xa69
ARM GAS  /tmp/ccAHuN30.s 			page 37


 2042 0bf8 10       		.byte	0x10
 2043 0bf9 06       		.uleb128 0x6
 2044 0bfa B9030000 		.4byte	.LASF220
 2045 0bfe 0D       		.byte	0xd
 2046 0bff 7D       		.byte	0x7d
 2047 0c00 830A0000 		.4byte	0xa83
 2048 0c04 14       		.byte	0x14
 2049 0c05 06       		.uleb128 0x6
 2050 0c06 66000000 		.4byte	.LASF221
 2051 0c0a 0D       		.byte	0xd
 2052 0c0b 7D       		.byte	0x7d
 2053 0c0c A70A0000 		.4byte	0xaa7
 2054 0c10 18       		.byte	0x18
 2055 0c11 06       		.uleb128 0x6
 2056 0c12 59010000 		.4byte	.LASF222
 2057 0c16 0D       		.byte	0xd
 2058 0c17 7D       		.byte	0x7d
 2059 0c18 CB0A0000 		.4byte	0xacb
 2060 0c1c 1C       		.byte	0x1c
 2061 0c1d 00       		.byte	0
 2062 0c1e 09       		.uleb128 0x9
 2063 0c1f 04       		.byte	0x4
 2064 0c20 240C0000 		.4byte	0xc24
 2065 0c24 10       		.uleb128 0x10
 2066 0c25 B10B0000 		.4byte	0xbb1
 2067 0c29 16       		.uleb128 0x16
 2068 0c2a A2000000 		.4byte	0xa2
 2069 0c2e 390C0000 		.4byte	0xc39
 2070 0c32 17       		.uleb128 0x17
 2071 0c33 41030000 		.4byte	0x341
 2072 0c37 0F       		.byte	0xf
 2073 0c38 00       		.byte	0
 2074 0c39 09       		.uleb128 0x9
 2075 0c3a 04       		.byte	0x4
 2076 0c3b 440A0000 		.4byte	0xa44
 2077 0c3f 1C       		.uleb128 0x1c
 2078 0c40 52080000 		.4byte	.LASF224
 2079 0c44 01       		.byte	0x1
 2080 0c45 5C       		.byte	0x5c
 2081 0c46 01       		.byte	0x1
 2082 0c47 6B0C0000 		.4byte	0xc6b
 2083 0c4b 1D       		.uleb128 0x1d
 2084 0c4c 73647000 		.ascii	"sdp\000"
 2085 0c50 01       		.byte	0x1
 2086 0c51 5C       		.byte	0x5c
 2087 0c52 6B0C0000 		.4byte	0xc6b
 2088 0c56 1E       		.uleb128 0x1e
 2089 0c57 B2000000 		.4byte	.LASF223
 2090 0c5b 01       		.byte	0x1
 2091 0c5c 5C       		.byte	0x5c
 2092 0c5d 710C0000 		.4byte	0xc71
 2093 0c61 1F       		.uleb128 0x1f
 2094 0c62 7500     		.ascii	"u\000"
 2095 0c64 01       		.byte	0x1
 2096 0c65 5D       		.byte	0x5d
 2097 0c66 390C0000 		.4byte	0xc39
 2098 0c6a 00       		.byte	0
ARM GAS  /tmp/ccAHuN30.s 			page 38


 2099 0c6b 09       		.uleb128 0x9
 2100 0c6c 04       		.byte	0x4
 2101 0c6d F70A0000 		.4byte	0xaf7
 2102 0c71 09       		.uleb128 0x9
 2103 0c72 04       		.byte	0x4
 2104 0c73 770C0000 		.4byte	0xc77
 2105 0c77 10       		.uleb128 0x10
 2106 0c78 A60B0000 		.4byte	0xba6
 2107 0c7c 1C       		.uleb128 0x1c
 2108 0c7d 32050000 		.4byte	.LASF225
 2109 0c81 01       		.byte	0x1
 2110 0c82 7A       		.byte	0x7a
 2111 0c83 01       		.byte	0x1
 2112 0c84 920C0000 		.4byte	0xc92
 2113 0c88 1D       		.uleb128 0x1d
 2114 0c89 7500     		.ascii	"u\000"
 2115 0c8b 01       		.byte	0x1
 2116 0c8c 7A       		.byte	0x7a
 2117 0c8d 390C0000 		.4byte	0xc39
 2118 0c91 00       		.byte	0
 2119 0c92 1C       		.uleb128 0x1c
 2120 0c93 CE000000 		.4byte	.LASF226
 2121 0c97 01       		.byte	0x1
 2122 0c98 9A       		.byte	0x9a
 2123 0c99 01       		.byte	0x1
 2124 0c9a 570D0000 		.4byte	0xd57
 2125 0c9e 1D       		.uleb128 0x1d
 2126 0c9f 73647000 		.ascii	"sdp\000"
 2127 0ca3 01       		.byte	0x1
 2128 0ca4 9A       		.byte	0x9a
 2129 0ca5 6B0C0000 		.4byte	0xc6b
 2130 0ca9 1F       		.uleb128 0x1f
 2131 0caa 7500     		.ascii	"u\000"
 2132 0cac 01       		.byte	0x1
 2133 0cad 9B       		.byte	0x9b
 2134 0cae 390C0000 		.4byte	0xc39
 2135 0cb2 1F       		.uleb128 0x1f
 2136 0cb3 63723100 		.ascii	"cr1\000"
 2137 0cb7 01       		.byte	0x1
 2138 0cb8 9C       		.byte	0x9c
 2139 0cb9 AD000000 		.4byte	0xad
 2140 0cbd 1F       		.uleb128 0x1f
 2141 0cbe 737200   		.ascii	"sr\000"
 2142 0cc1 01       		.byte	0x1
 2143 0cc2 9D       		.byte	0x9d
 2144 0cc3 AD000000 		.4byte	0xad
 2145 0cc7 20       		.uleb128 0x20
 2146 0cc8 D80C0000 		.4byte	0xcd8
 2147 0ccc 1F       		.uleb128 0x1f
 2148 0ccd 746D7000 		.ascii	"tmp\000"
 2149 0cd1 01       		.byte	0x1
 2150 0cd2 A1       		.byte	0xa1
 2151 0cd3 C3000000 		.4byte	0xc3
 2152 0cd7 00       		.byte	0
 2153 0cd8 20       		.uleb128 0x20
 2154 0cd9 E90C0000 		.4byte	0xce9
 2155 0cdd 1F       		.uleb128 0x1f
ARM GAS  /tmp/ccAHuN30.s 			page 39


 2156 0cde 746D7000 		.ascii	"tmp\000"
 2157 0ce2 01       		.byte	0x1
 2158 0ce3 A3       		.byte	0xa3
 2159 0ce4 C3000000 		.4byte	0xc3
 2160 0ce8 00       		.byte	0
 2161 0ce9 20       		.uleb128 0x20
 2162 0cea FA0C0000 		.4byte	0xcfa
 2163 0cee 1F       		.uleb128 0x1f
 2164 0cef 746D7000 		.ascii	"tmp\000"
 2165 0cf3 01       		.byte	0x1
 2166 0cf4 A8       		.byte	0xa8
 2167 0cf5 C3000000 		.4byte	0xc3
 2168 0cf9 00       		.byte	0
 2169 0cfa 20       		.uleb128 0x20
 2170 0cfb 0B0D0000 		.4byte	0xd0b
 2171 0cff 1F       		.uleb128 0x1f
 2172 0d00 746D7000 		.ascii	"tmp\000"
 2173 0d04 01       		.byte	0x1
 2174 0d05 B0       		.byte	0xb0
 2175 0d06 C3000000 		.4byte	0xc3
 2176 0d0a 00       		.byte	0
 2177 0d0b 20       		.uleb128 0x20
 2178 0d0c 380D0000 		.4byte	0xd38
 2179 0d10 1F       		.uleb128 0x1f
 2180 0d11 6200     		.ascii	"b\000"
 2181 0d13 01       		.byte	0x1
 2182 0d14 B4       		.byte	0xb4
 2183 0d15 0C010000 		.4byte	0x10c
 2184 0d19 20       		.uleb128 0x20
 2185 0d1a 2A0D0000 		.4byte	0xd2a
 2186 0d1e 1F       		.uleb128 0x1f
 2187 0d1f 746D7000 		.ascii	"tmp\000"
 2188 0d23 01       		.byte	0x1
 2189 0d24 B5       		.byte	0xb5
 2190 0d25 C3000000 		.4byte	0xc3
 2191 0d29 00       		.byte	0
 2192 0d2a 21       		.uleb128 0x21
 2193 0d2b 1F       		.uleb128 0x1f
 2194 0d2c 746D7000 		.ascii	"tmp\000"
 2195 0d30 01       		.byte	0x1
 2196 0d31 BD       		.byte	0xbd
 2197 0d32 C3000000 		.4byte	0xc3
 2198 0d36 00       		.byte	0
 2199 0d37 00       		.byte	0
 2200 0d38 20       		.uleb128 0x20
 2201 0d39 490D0000 		.4byte	0xd49
 2202 0d3d 1F       		.uleb128 0x1f
 2203 0d3e 746D7000 		.ascii	"tmp\000"
 2204 0d42 01       		.byte	0x1
 2205 0d43 C2       		.byte	0xc2
 2206 0d44 C3000000 		.4byte	0xc3
 2207 0d48 00       		.byte	0
 2208 0d49 21       		.uleb128 0x21
 2209 0d4a 1F       		.uleb128 0x1f
 2210 0d4b 746D7000 		.ascii	"tmp\000"
 2211 0d4f 01       		.byte	0x1
 2212 0d50 C4       		.byte	0xc4
ARM GAS  /tmp/ccAHuN30.s 			page 40


 2213 0d51 C3000000 		.4byte	0xc3
 2214 0d55 00       		.byte	0
 2215 0d56 00       		.byte	0
 2216 0d57 22       		.uleb128 0x22
 2217 0d58 FE090000 		.4byte	.LASF241
 2218 0d5c 01       		.byte	0x1
 2219 0d5d F3       		.byte	0xf3
 2220 0d5e 00000000 		.4byte	.LFB122
 2221 0d62 14000000 		.4byte	.LFE122-.LFB122
 2222 0d66 01       		.uleb128 0x1
 2223 0d67 9C       		.byte	0x9c
 2224 0d68 790D0000 		.4byte	0xd79
 2225 0d6c 23       		.uleb128 0x23
 2226 0d6d 717000   		.ascii	"qp\000"
 2227 0d70 01       		.byte	0x1
 2228 0d71 F3       		.byte	0xf3
 2229 0d72 F7040000 		.4byte	0x4f7
 2230 0d76 01       		.uleb128 0x1
 2231 0d77 50       		.byte	0x50
 2232 0d78 00       		.byte	0
 2233 0d79 1C       		.uleb128 0x1c
 2234 0d7a DE000000 		.4byte	.LASF227
 2235 0d7e 01       		.byte	0x1
 2236 0d7f 87       		.byte	0x87
 2237 0d80 01       		.byte	0x1
 2238 0d81 A60D0000 		.4byte	0xda6
 2239 0d85 1D       		.uleb128 0x1d
 2240 0d86 73647000 		.ascii	"sdp\000"
 2241 0d8a 01       		.byte	0x1
 2242 0d8b 87       		.byte	0x87
 2243 0d8c 6B0C0000 		.4byte	0xc6b
 2244 0d90 1D       		.uleb128 0x1d
 2245 0d91 737200   		.ascii	"sr\000"
 2246 0d94 01       		.byte	0x1
 2247 0d95 87       		.byte	0x87
 2248 0d96 AD000000 		.4byte	0xad
 2249 0d9a 1F       		.uleb128 0x1f
 2250 0d9b 73747300 		.ascii	"sts\000"
 2251 0d9f 01       		.byte	0x1
 2252 0da0 88       		.byte	0x88
 2253 0da1 22010000 		.4byte	0x122
 2254 0da5 00       		.byte	0
 2255 0da6 24       		.uleb128 0x24
 2256 0da7 120A0000 		.4byte	.LASF228
 2257 0dab 01       		.byte	0x1
 2258 0dac 6601     		.2byte	0x166
 2259 0dae 00000000 		.4byte	.LFB123
 2260 0db2 00010000 		.4byte	.LFE123-.LFB123
 2261 0db6 01       		.uleb128 0x1
 2262 0db7 9C       		.byte	0x9c
 2263 0db8 8F0F0000 		.4byte	0xf8f
 2264 0dbc 25       		.uleb128 0x25
 2265 0dbd 920C0000 		.4byte	0xc92
 2266 0dc1 00000000 		.4byte	.LBB26
 2267 0dc5 00000000 		.4byte	.Ldebug_ranges0+0
 2268 0dc9 01       		.byte	0x1
 2269 0dca 6A01     		.2byte	0x16a
ARM GAS  /tmp/ccAHuN30.s 			page 41


 2270 0dcc 850F0000 		.4byte	0xf85
 2271 0dd0 26       		.uleb128 0x26
 2272 0dd1 9E0C0000 		.4byte	0xc9e
 2273 0dd5 06       		.uleb128 0x6
 2274 0dd6 03       		.byte	0x3
 2275 0dd7 00000000 		.4byte	SD6
 2276 0ddb 9F       		.byte	0x9f
 2277 0ddc 27       		.uleb128 0x27
 2278 0ddd 00000000 		.4byte	.Ldebug_ranges0+0
 2279 0de1 28       		.uleb128 0x28
 2280 0de2 A90C0000 		.4byte	0xca9
 2281 0de6 00000000 		.4byte	.LLST0
 2282 0dea 28       		.uleb128 0x28
 2283 0deb B20C0000 		.4byte	0xcb2
 2284 0def 1E000000 		.4byte	.LLST1
 2285 0df3 28       		.uleb128 0x28
 2286 0df4 BD0C0000 		.4byte	0xcbd
 2287 0df8 3C000000 		.4byte	.LLST2
 2288 0dfc 29       		.uleb128 0x29
 2289 0dfd 18000000 		.4byte	.LBB28
 2290 0e01 06000000 		.4byte	.LBE28-.LBB28
 2291 0e05 110E0000 		.4byte	0xe11
 2292 0e09 2A       		.uleb128 0x2a
 2293 0e0a EE0C0000 		.4byte	0xcee
 2294 0e0e 01       		.uleb128 0x1
 2295 0e0f 53       		.byte	0x53
 2296 0e10 00       		.byte	0
 2297 0e11 2B       		.uleb128 0x2b
 2298 0e12 790D0000 		.4byte	0xd79
 2299 0e16 40000000 		.4byte	.LBB29
 2300 0e1a 2C000000 		.4byte	.LBE29-.LBB29
 2301 0e1e 01       		.byte	0x1
 2302 0e1f AC       		.byte	0xac
 2303 0e20 5D0E0000 		.4byte	0xe5d
 2304 0e24 2C       		.uleb128 0x2c
 2305 0e25 900D0000 		.4byte	0xd90
 2306 0e29 65000000 		.4byte	.LLST3
 2307 0e2d 2C       		.uleb128 0x2c
 2308 0e2e 850D0000 		.4byte	0xd85
 2309 0e32 78000000 		.4byte	.LLST4
 2310 0e36 2D       		.uleb128 0x2d
 2311 0e37 40000000 		.4byte	.LBB30
 2312 0e3b 2C000000 		.4byte	.LBE30-.LBB30
 2313 0e3f 28       		.uleb128 0x28
 2314 0e40 9A0D0000 		.4byte	0xd9a
 2315 0e44 90000000 		.4byte	.LLST5
 2316 0e48 2E       		.uleb128 0x2e
 2317 0e49 6A000000 		.4byte	.LVL14
 2318 0e4d CE100000 		.4byte	0x10ce
 2319 0e51 2F       		.uleb128 0x2f
 2320 0e52 01       		.uleb128 0x1
 2321 0e53 50       		.byte	0x50
 2322 0e54 05       		.uleb128 0x5
 2323 0e55 03       		.byte	0x3
 2324 0e56 04000000 		.4byte	.LANCHOR0+4
 2325 0e5a 00       		.byte	0
 2326 0e5b 00       		.byte	0
ARM GAS  /tmp/ccAHuN30.s 			page 42


 2327 0e5c 00       		.byte	0
 2328 0e5d 29       		.uleb128 0x29
 2329 0e5e 6C000000 		.4byte	.LBB31
 2330 0e62 06000000 		.4byte	.LBE31-.LBB31
 2331 0e66 720E0000 		.4byte	0xe72
 2332 0e6a 2A       		.uleb128 0x2a
 2333 0e6b FF0C0000 		.4byte	0xcff
 2334 0e6f 01       		.uleb128 0x1
 2335 0e70 53       		.byte	0x53
 2336 0e71 00       		.byte	0
 2337 0e72 29       		.uleb128 0x29
 2338 0e73 7E000000 		.4byte	.LBB32
 2339 0e77 06000000 		.4byte	.LBE32-.LBB32
 2340 0e7b 870E0000 		.4byte	0xe87
 2341 0e7f 2A       		.uleb128 0x2a
 2342 0e80 3D0D0000 		.4byte	0xd3d
 2343 0e84 01       		.uleb128 0x1
 2344 0e85 53       		.byte	0x53
 2345 0e86 00       		.byte	0
 2346 0e87 29       		.uleb128 0x29
 2347 0e88 8C000000 		.4byte	.LBB33
 2348 0e8c 06000000 		.4byte	.LBE33-.LBB33
 2349 0e90 9C0E0000 		.4byte	0xe9c
 2350 0e94 2A       		.uleb128 0x2a
 2351 0e95 4A0D0000 		.4byte	0xd4a
 2352 0e99 01       		.uleb128 0x1
 2353 0e9a 53       		.byte	0x53
 2354 0e9b 00       		.byte	0
 2355 0e9c 29       		.uleb128 0x29
 2356 0e9d A8000000 		.4byte	.LBB34
 2357 0ea1 06000000 		.4byte	.LBE34-.LBB34
 2358 0ea5 B10E0000 		.4byte	0xeb1
 2359 0ea9 2A       		.uleb128 0x2a
 2360 0eaa CC0C0000 		.4byte	0xccc
 2361 0eae 01       		.uleb128 0x1
 2362 0eaf 53       		.byte	0x53
 2363 0eb0 00       		.byte	0
 2364 0eb1 29       		.uleb128 0x29
 2365 0eb2 B8000000 		.4byte	.LBB35
 2366 0eb6 06000000 		.4byte	.LBE35-.LBB35
 2367 0eba C60E0000 		.4byte	0xec6
 2368 0ebe 2A       		.uleb128 0x2a
 2369 0ebf DD0C0000 		.4byte	0xcdd
 2370 0ec3 01       		.uleb128 0x1
 2371 0ec4 53       		.byte	0x53
 2372 0ec5 00       		.byte	0
 2373 0ec6 29       		.uleb128 0x29
 2374 0ec7 C6000000 		.4byte	.LBB36
 2375 0ecb 3A000000 		.4byte	.LBE36-.LBB36
 2376 0ecf 360F0000 		.4byte	0xf36
 2377 0ed3 28       		.uleb128 0x28
 2378 0ed4 100D0000 		.4byte	0xd10
 2379 0ed8 AF000000 		.4byte	.LLST6
 2380 0edc 29       		.uleb128 0x29
 2381 0edd C6000000 		.4byte	.LBB37
 2382 0ee1 06000000 		.4byte	.LBE37-.LBB37
 2383 0ee5 F10E0000 		.4byte	0xef1
ARM GAS  /tmp/ccAHuN30.s 			page 43


 2384 0ee9 2A       		.uleb128 0x2a
 2385 0eea 1E0D0000 		.4byte	0xd1e
 2386 0eee 01       		.uleb128 0x1
 2387 0eef 53       		.byte	0x53
 2388 0ef0 00       		.byte	0
 2389 0ef1 29       		.uleb128 0x29
 2390 0ef2 DC000000 		.4byte	.LBB38
 2391 0ef6 08000000 		.4byte	.LBE38-.LBB38
 2392 0efa 060F0000 		.4byte	0xf06
 2393 0efe 2A       		.uleb128 0x2a
 2394 0eff 2B0D0000 		.4byte	0xd2b
 2395 0f03 01       		.uleb128 0x1
 2396 0f04 53       		.byte	0x53
 2397 0f05 00       		.byte	0
 2398 0f06 30       		.uleb128 0x30
 2399 0f07 D2000000 		.4byte	.LVL21
 2400 0f0b EA100000 		.4byte	0x10ea
 2401 0f0f 1D0F0000 		.4byte	0xf1d
 2402 0f13 2F       		.uleb128 0x2f
 2403 0f14 01       		.uleb128 0x1
 2404 0f15 50       		.byte	0x50
 2405 0f16 05       		.uleb128 0x5
 2406 0f17 03       		.byte	0x3
 2407 0f18 30000000 		.4byte	.LANCHOR0+48
 2408 0f1c 00       		.byte	0
 2409 0f1d 2E       		.uleb128 0x2e
 2410 0f1e EC000000 		.4byte	.LVL23
 2411 0f22 CE100000 		.4byte	0x10ce
 2412 0f26 2F       		.uleb128 0x2f
 2413 0f27 01       		.uleb128 0x1
 2414 0f28 51       		.byte	0x51
 2415 0f29 01       		.uleb128 0x1
 2416 0f2a 38       		.byte	0x38
 2417 0f2b 2F       		.uleb128 0x2f
 2418 0f2c 01       		.uleb128 0x1
 2419 0f2d 50       		.byte	0x50
 2420 0f2e 05       		.uleb128 0x5
 2421 0f2f 03       		.byte	0x3
 2422 0f30 04000000 		.4byte	.LANCHOR0+4
 2423 0f34 00       		.byte	0
 2424 0f35 00       		.byte	0
 2425 0f36 30       		.uleb128 0x30
 2426 0f37 34000000 		.4byte	.LVL5
 2427 0f3b 06110000 		.4byte	0x1106
 2428 0f3f 4D0F0000 		.4byte	0xf4d
 2429 0f43 2F       		.uleb128 0x2f
 2430 0f44 01       		.uleb128 0x1
 2431 0f45 50       		.byte	0x50
 2432 0f46 05       		.uleb128 0x5
 2433 0f47 03       		.byte	0x3
 2434 0f48 00000000 		.4byte	.LANCHOR0
 2435 0f4c 00       		.byte	0
 2436 0f4d 30       		.uleb128 0x30
 2437 0f4e 8C000000 		.4byte	.LVL16
 2438 0f52 CE100000 		.4byte	0x10ce
 2439 0f56 690F0000 		.4byte	0xf69
 2440 0f5a 2F       		.uleb128 0x2f
ARM GAS  /tmp/ccAHuN30.s 			page 44


 2441 0f5b 01       		.uleb128 0x1
 2442 0f5c 51       		.byte	0x51
 2443 0f5d 01       		.uleb128 0x1
 2444 0f5e 40       		.byte	0x40
 2445 0f5f 2F       		.uleb128 0x2f
 2446 0f60 01       		.uleb128 0x1
 2447 0f61 50       		.byte	0x50
 2448 0f62 05       		.uleb128 0x5
 2449 0f63 03       		.byte	0x3
 2450 0f64 04000000 		.4byte	.LANCHOR0+4
 2451 0f68 00       		.byte	0
 2452 0f69 2E       		.uleb128 0x2e
 2453 0f6a B8000000 		.4byte	.LVL19
 2454 0f6e CE100000 		.4byte	0x10ce
 2455 0f72 2F       		.uleb128 0x2f
 2456 0f73 01       		.uleb128 0x1
 2457 0f74 51       		.byte	0x51
 2458 0f75 03       		.uleb128 0x3
 2459 0f76 0A       		.byte	0xa
 2460 0f77 0002     		.2byte	0x200
 2461 0f79 2F       		.uleb128 0x2f
 2462 0f7a 01       		.uleb128 0x1
 2463 0f7b 50       		.byte	0x50
 2464 0f7c 05       		.uleb128 0x5
 2465 0f7d 03       		.byte	0x3
 2466 0f7e 04000000 		.4byte	.LANCHOR0+4
 2467 0f82 00       		.byte	0
 2468 0f83 00       		.byte	0
 2469 0f84 00       		.byte	0
 2470 0f85 31       		.uleb128 0x31
 2471 0f86 A8000000 		.4byte	.LVL18
 2472 0f8a 1D110000 		.4byte	0x111d
 2473 0f8e 00       		.byte	0
 2474 0f8f 24       		.uleb128 0x24
 2475 0f90 5A050000 		.4byte	.LASF229
 2476 0f94 01       		.byte	0x1
 2477 0f95 7901     		.2byte	0x179
 2478 0f97 00000000 		.4byte	.LFB124
 2479 0f9b 26000000 		.4byte	.LFE124-.LFB124
 2480 0f9f 01       		.uleb128 0x1
 2481 0fa0 9C       		.byte	0x9c
 2482 0fa1 C40F0000 		.4byte	0xfc4
 2483 0fa5 2E       		.uleb128 0x2e
 2484 0fa6 1A000000 		.4byte	.LVL24
 2485 0faa 25110000 		.4byte	0x1125
 2486 0fae 2F       		.uleb128 0x2f
 2487 0faf 01       		.uleb128 0x1
 2488 0fb0 52       		.byte	0x52
 2489 0fb1 05       		.uleb128 0x5
 2490 0fb2 03       		.byte	0x3
 2491 0fb3 00000000 		.4byte	notify6
 2492 0fb7 2F       		.uleb128 0x2f
 2493 0fb8 01       		.uleb128 0x1
 2494 0fb9 51       		.byte	0x51
 2495 0fba 01       		.uleb128 0x1
 2496 0fbb 30       		.byte	0x30
 2497 0fbc 2F       		.uleb128 0x2f
ARM GAS  /tmp/ccAHuN30.s 			page 45


 2498 0fbd 01       		.uleb128 0x1
 2499 0fbe 50       		.byte	0x50
 2500 0fbf 02       		.uleb128 0x2
 2501 0fc0 74       		.byte	0x74
 2502 0fc1 00       		.sleb128 0
 2503 0fc2 00       		.byte	0
 2504 0fc3 00       		.byte	0
 2505 0fc4 24       		.uleb128 0x24
 2506 0fc5 5F010000 		.4byte	.LASF230
 2507 0fc9 01       		.byte	0x1
 2508 0fca A401     		.2byte	0x1a4
 2509 0fcc 00000000 		.4byte	.LFB125
 2510 0fd0 A2000000 		.4byte	.LFE125-.LFB125
 2511 0fd4 01       		.uleb128 0x1
 2512 0fd5 9C       		.byte	0x9c
 2513 0fd6 4B100000 		.4byte	0x104b
 2514 0fda 32       		.uleb128 0x32
 2515 0fdb 73647000 		.ascii	"sdp\000"
 2516 0fdf 01       		.byte	0x1
 2517 0fe0 A401     		.2byte	0x1a4
 2518 0fe2 6B0C0000 		.4byte	0xc6b
 2519 0fe6 C2000000 		.4byte	.LLST7
 2520 0fea 33       		.uleb128 0x33
 2521 0feb B2000000 		.4byte	.LASF223
 2522 0fef 01       		.byte	0x1
 2523 0ff0 A401     		.2byte	0x1a4
 2524 0ff2 710C0000 		.4byte	0xc71
 2525 0ff6 F6000000 		.4byte	.LLST8
 2526 0ffa 34       		.uleb128 0x34
 2527 0ffb 3F0C0000 		.4byte	0xc3f
 2528 0fff 1A000000 		.4byte	.LBB45
 2529 1003 62000000 		.4byte	.LBE45-.LBB45
 2530 1007 01       		.byte	0x1
 2531 1008 D501     		.2byte	0x1d5
 2532 100a 34100000 		.4byte	0x1034
 2533 100e 2C       		.uleb128 0x2c
 2534 100f 4B0C0000 		.4byte	0xc4b
 2535 1013 3C010000 		.4byte	.LLST9
 2536 1017 2C       		.uleb128 0x2c
 2537 1018 560C0000 		.4byte	0xc56
 2538 101c 4F010000 		.4byte	.LLST10
 2539 1020 2D       		.uleb128 0x2d
 2540 1021 1A000000 		.4byte	.LBB46
 2541 1025 62000000 		.4byte	.LBE46-.LBB46
 2542 1029 28       		.uleb128 0x28
 2543 102a 610C0000 		.4byte	0xc61
 2544 102e 7F010000 		.4byte	.LLST11
 2545 1032 00       		.byte	0
 2546 1033 00       		.byte	0
 2547 1034 2E       		.uleb128 0x2e
 2548 1035 A0000000 		.4byte	.LVL33
 2549 1039 41110000 		.4byte	0x1141
 2550 103d 2F       		.uleb128 0x2f
 2551 103e 01       		.uleb128 0x1
 2552 103f 51       		.byte	0x51
 2553 1040 02       		.uleb128 0x2
 2554 1041 08       		.byte	0x8
ARM GAS  /tmp/ccAHuN30.s 			page 46


 2555 1042 C0       		.byte	0xc0
 2556 1043 2F       		.uleb128 0x2f
 2557 1044 01       		.uleb128 0x1
 2558 1045 50       		.byte	0x50
 2559 1046 02       		.uleb128 0x2
 2560 1047 08       		.byte	0x8
 2561 1048 47       		.byte	0x47
 2562 1049 00       		.byte	0
 2563 104a 00       		.byte	0
 2564 104b 24       		.uleb128 0x24
 2565 104c 190B0000 		.4byte	.LASF231
 2566 1050 01       		.byte	0x1
 2567 1051 E101     		.2byte	0x1e1
 2568 1053 00000000 		.4byte	.LFB126
 2569 1057 34000000 		.4byte	.LFE126-.LFB126
 2570 105b 01       		.uleb128 0x1
 2571 105c 9C       		.byte	0x9c
 2572 105d A0100000 		.4byte	0x10a0
 2573 1061 32       		.uleb128 0x32
 2574 1062 73647000 		.ascii	"sdp\000"
 2575 1066 01       		.byte	0x1
 2576 1067 E101     		.2byte	0x1e1
 2577 1069 6B0C0000 		.4byte	0xc6b
 2578 106d 92010000 		.4byte	.LLST12
 2579 1071 25       		.uleb128 0x25
 2580 1072 7C0C0000 		.4byte	0xc7c
 2581 1076 12000000 		.4byte	.LBB47
 2582 107a 20000000 		.4byte	.Ldebug_ranges0+0x20
 2583 107e 01       		.byte	0x1
 2584 107f E401     		.2byte	0x1e4
 2585 1081 8F100000 		.4byte	0x108f
 2586 1085 2C       		.uleb128 0x2c
 2587 1086 880C0000 		.4byte	0xc88
 2588 108a B3010000 		.4byte	.LLST13
 2589 108e 00       		.byte	0
 2590 108f 35       		.uleb128 0x35
 2591 1090 34000000 		.4byte	.LVL38
 2592 1094 58110000 		.4byte	0x1158
 2593 1098 2F       		.uleb128 0x2f
 2594 1099 01       		.uleb128 0x1
 2595 109a 50       		.byte	0x50
 2596 109b 02       		.uleb128 0x2
 2597 109c 08       		.byte	0x8
 2598 109d 47       		.byte	0x47
 2599 109e 00       		.byte	0
 2600 109f 00       		.byte	0
 2601 10a0 36       		.uleb128 0x36
 2602 10a1 B2010000 		.4byte	.LASF242
 2603 10a5 01       		.byte	0x1
 2604 10a6 49       		.byte	0x49
 2605 10a7 770C0000 		.4byte	0xc77
 2606 10ab 05       		.uleb128 0x5
 2607 10ac 03       		.byte	0x3
 2608 10ad 00000000 		.4byte	default_config
 2609 10b1 37       		.uleb128 0x37
 2610 10b2 620A0000 		.4byte	.LASF232
 2611 10b6 10       		.byte	0x10
ARM GAS  /tmp/ccAHuN30.s 			page 47


 2612 10b7 9806     		.2byte	0x698
 2613 10b9 CC070000 		.4byte	0x7cc
 2614 10bd 38       		.uleb128 0x38
 2615 10be 53443600 		.ascii	"SD6\000"
 2616 10c2 01       		.byte	0x1
 2617 10c3 41       		.byte	0x41
 2618 10c4 F70A0000 		.4byte	0xaf7
 2619 10c8 05       		.uleb128 0x5
 2620 10c9 03       		.byte	0x3
 2621 10ca 00000000 		.4byte	SD6
 2622 10ce 39       		.uleb128 0x39
 2623 10cf EA070000 		.4byte	.LASF233
 2624 10d3 0A       		.byte	0xa
 2625 10d4 BA       		.byte	0xba
 2626 10d5 E4100000 		.4byte	0x10e4
 2627 10d9 12       		.uleb128 0x12
 2628 10da E4100000 		.4byte	0x10e4
 2629 10de 12       		.uleb128 0x12
 2630 10df 22010000 		.4byte	0x122
 2631 10e3 00       		.byte	0
 2632 10e4 09       		.uleb128 0x9
 2633 10e5 04       		.byte	0x4
 2634 10e6 F6030000 		.4byte	0x3f6
 2635 10ea 3A       		.uleb128 0x3a
 2636 10eb B5060000 		.4byte	.LASF243
 2637 10ef 0B       		.byte	0xb
 2638 10f0 6E01     		.2byte	0x16e
 2639 10f2 0C010000 		.4byte	0x10c
 2640 10f6 00110000 		.4byte	0x1100
 2641 10fa 12       		.uleb128 0x12
 2642 10fb 00110000 		.4byte	0x1100
 2643 10ff 00       		.byte	0
 2644 1100 09       		.uleb128 0x9
 2645 1101 04       		.byte	0x4
 2646 1102 0E050000 		.4byte	0x50e
 2647 1106 3B       		.uleb128 0x3b
 2648 1107 9D050000 		.4byte	.LASF234
 2649 110b 0D       		.byte	0xd
 2650 110c 3901     		.2byte	0x139
 2651 110e 1D110000 		.4byte	0x111d
 2652 1112 12       		.uleb128 0x12
 2653 1113 6B0C0000 		.4byte	0xc6b
 2654 1117 12       		.uleb128 0x12
 2655 1118 A2000000 		.4byte	0xa2
 2656 111c 00       		.byte	0
 2657 111d 3C       		.uleb128 0x3c
 2658 111e 66070000 		.4byte	.LASF244
 2659 1122 08       		.byte	0x8
 2660 1123 0302     		.2byte	0x203
 2661 1125 3B       		.uleb128 0x3b
 2662 1126 7E010000 		.4byte	.LASF235
 2663 112a 0D       		.byte	0xd
 2664 112b 3601     		.2byte	0x136
 2665 112d 41110000 		.4byte	0x1141
 2666 1131 12       		.uleb128 0x12
 2667 1132 6B0C0000 		.4byte	0xc6b
 2668 1136 12       		.uleb128 0x12
ARM GAS  /tmp/ccAHuN30.s 			page 48


 2669 1137 DB040000 		.4byte	0x4db
 2670 113b 12       		.uleb128 0x12
 2671 113c DB040000 		.4byte	0x4db
 2672 1140 00       		.byte	0
 2673 1141 3B       		.uleb128 0x3b
 2674 1142 A70A0000 		.4byte	.LASF236
 2675 1146 0F       		.byte	0xf
 2676 1147 2301     		.2byte	0x123
 2677 1149 58110000 		.4byte	0x1158
 2678 114d 12       		.uleb128 0x12
 2679 114e C3000000 		.4byte	0xc3
 2680 1152 12       		.uleb128 0x12
 2681 1153 C3000000 		.4byte	0xc3
 2682 1157 00       		.byte	0
 2683 1158 3D       		.uleb128 0x3d
 2684 1159 08080000 		.4byte	.LASF245
 2685 115d 0F       		.byte	0xf
 2686 115e 2401     		.2byte	0x124
 2687 1160 12       		.uleb128 0x12
 2688 1161 C3000000 		.4byte	0xc3
 2689 1165 00       		.byte	0
 2690 1166 00       		.byte	0
 2691              		.section	.debug_abbrev,"",%progbits
 2692              	.Ldebug_abbrev0:
 2693 0000 01       		.uleb128 0x1
 2694 0001 11       		.uleb128 0x11
 2695 0002 01       		.byte	0x1
 2696 0003 25       		.uleb128 0x25
 2697 0004 0E       		.uleb128 0xe
 2698 0005 13       		.uleb128 0x13
 2699 0006 0B       		.uleb128 0xb
 2700 0007 03       		.uleb128 0x3
 2701 0008 0E       		.uleb128 0xe
 2702 0009 1B       		.uleb128 0x1b
 2703 000a 0E       		.uleb128 0xe
 2704 000b 55       		.uleb128 0x55
 2705 000c 17       		.uleb128 0x17
 2706 000d 11       		.uleb128 0x11
 2707 000e 01       		.uleb128 0x1
 2708 000f 10       		.uleb128 0x10
 2709 0010 17       		.uleb128 0x17
 2710 0011 00       		.byte	0
 2711 0012 00       		.byte	0
 2712 0013 02       		.uleb128 0x2
 2713 0014 24       		.uleb128 0x24
 2714 0015 00       		.byte	0
 2715 0016 0B       		.uleb128 0xb
 2716 0017 0B       		.uleb128 0xb
 2717 0018 3E       		.uleb128 0x3e
 2718 0019 0B       		.uleb128 0xb
 2719 001a 03       		.uleb128 0x3
 2720 001b 08       		.uleb128 0x8
 2721 001c 00       		.byte	0
 2722 001d 00       		.byte	0
 2723 001e 03       		.uleb128 0x3
 2724 001f 16       		.uleb128 0x16
 2725 0020 00       		.byte	0
ARM GAS  /tmp/ccAHuN30.s 			page 49


 2726 0021 03       		.uleb128 0x3
 2727 0022 0E       		.uleb128 0xe
 2728 0023 3A       		.uleb128 0x3a
 2729 0024 0B       		.uleb128 0xb
 2730 0025 3B       		.uleb128 0x3b
 2731 0026 0B       		.uleb128 0xb
 2732 0027 49       		.uleb128 0x49
 2733 0028 13       		.uleb128 0x13
 2734 0029 00       		.byte	0
 2735 002a 00       		.byte	0
 2736 002b 04       		.uleb128 0x4
 2737 002c 24       		.uleb128 0x24
 2738 002d 00       		.byte	0
 2739 002e 0B       		.uleb128 0xb
 2740 002f 0B       		.uleb128 0xb
 2741 0030 3E       		.uleb128 0x3e
 2742 0031 0B       		.uleb128 0xb
 2743 0032 03       		.uleb128 0x3
 2744 0033 0E       		.uleb128 0xe
 2745 0034 00       		.byte	0
 2746 0035 00       		.byte	0
 2747 0036 05       		.uleb128 0x5
 2748 0037 13       		.uleb128 0x13
 2749 0038 01       		.byte	0x1
 2750 0039 03       		.uleb128 0x3
 2751 003a 0E       		.uleb128 0xe
 2752 003b 0B       		.uleb128 0xb
 2753 003c 0B       		.uleb128 0xb
 2754 003d 3A       		.uleb128 0x3a
 2755 003e 0B       		.uleb128 0xb
 2756 003f 3B       		.uleb128 0x3b
 2757 0040 0B       		.uleb128 0xb
 2758 0041 01       		.uleb128 0x1
 2759 0042 13       		.uleb128 0x13
 2760 0043 00       		.byte	0
 2761 0044 00       		.byte	0
 2762 0045 06       		.uleb128 0x6
 2763 0046 0D       		.uleb128 0xd
 2764 0047 00       		.byte	0
 2765 0048 03       		.uleb128 0x3
 2766 0049 0E       		.uleb128 0xe
 2767 004a 3A       		.uleb128 0x3a
 2768 004b 0B       		.uleb128 0xb
 2769 004c 3B       		.uleb128 0x3b
 2770 004d 0B       		.uleb128 0xb
 2771 004e 49       		.uleb128 0x49
 2772 004f 13       		.uleb128 0x13
 2773 0050 38       		.uleb128 0x38
 2774 0051 0B       		.uleb128 0xb
 2775 0052 00       		.byte	0
 2776 0053 00       		.byte	0
 2777 0054 07       		.uleb128 0x7
 2778 0055 0D       		.uleb128 0xd
 2779 0056 00       		.byte	0
 2780 0057 03       		.uleb128 0x3
 2781 0058 08       		.uleb128 0x8
 2782 0059 3A       		.uleb128 0x3a
ARM GAS  /tmp/ccAHuN30.s 			page 50


 2783 005a 0B       		.uleb128 0xb
 2784 005b 3B       		.uleb128 0x3b
 2785 005c 0B       		.uleb128 0xb
 2786 005d 49       		.uleb128 0x49
 2787 005e 13       		.uleb128 0x13
 2788 005f 38       		.uleb128 0x38
 2789 0060 0B       		.uleb128 0xb
 2790 0061 00       		.byte	0
 2791 0062 00       		.byte	0
 2792 0063 08       		.uleb128 0x8
 2793 0064 13       		.uleb128 0x13
 2794 0065 01       		.byte	0x1
 2795 0066 0B       		.uleb128 0xb
 2796 0067 0B       		.uleb128 0xb
 2797 0068 3A       		.uleb128 0x3a
 2798 0069 0B       		.uleb128 0xb
 2799 006a 3B       		.uleb128 0x3b
 2800 006b 0B       		.uleb128 0xb
 2801 006c 01       		.uleb128 0x1
 2802 006d 13       		.uleb128 0x13
 2803 006e 00       		.byte	0
 2804 006f 00       		.byte	0
 2805 0070 09       		.uleb128 0x9
 2806 0071 0F       		.uleb128 0xf
 2807 0072 00       		.byte	0
 2808 0073 0B       		.uleb128 0xb
 2809 0074 0B       		.uleb128 0xb
 2810 0075 49       		.uleb128 0x49
 2811 0076 13       		.uleb128 0x13
 2812 0077 00       		.byte	0
 2813 0078 00       		.byte	0
 2814 0079 0A       		.uleb128 0xa
 2815 007a 0F       		.uleb128 0xf
 2816 007b 00       		.byte	0
 2817 007c 0B       		.uleb128 0xb
 2818 007d 0B       		.uleb128 0xb
 2819 007e 00       		.byte	0
 2820 007f 00       		.byte	0
 2821 0080 0B       		.uleb128 0xb
 2822 0081 13       		.uleb128 0x13
 2823 0082 01       		.byte	0x1
 2824 0083 03       		.uleb128 0x3
 2825 0084 0E       		.uleb128 0xe
 2826 0085 0B       		.uleb128 0xb
 2827 0086 0B       		.uleb128 0xb
 2828 0087 3A       		.uleb128 0x3a
 2829 0088 0B       		.uleb128 0xb
 2830 0089 3B       		.uleb128 0x3b
 2831 008a 05       		.uleb128 0x5
 2832 008b 01       		.uleb128 0x1
 2833 008c 13       		.uleb128 0x13
 2834 008d 00       		.byte	0
 2835 008e 00       		.byte	0
 2836 008f 0C       		.uleb128 0xc
 2837 0090 0D       		.uleb128 0xd
 2838 0091 00       		.byte	0
 2839 0092 03       		.uleb128 0x3
ARM GAS  /tmp/ccAHuN30.s 			page 51


 2840 0093 08       		.uleb128 0x8
 2841 0094 3A       		.uleb128 0x3a
 2842 0095 0B       		.uleb128 0xb
 2843 0096 3B       		.uleb128 0x3b
 2844 0097 05       		.uleb128 0x5
 2845 0098 49       		.uleb128 0x49
 2846 0099 13       		.uleb128 0x13
 2847 009a 38       		.uleb128 0x38
 2848 009b 0B       		.uleb128 0xb
 2849 009c 00       		.byte	0
 2850 009d 00       		.byte	0
 2851 009e 0D       		.uleb128 0xd
 2852 009f 35       		.uleb128 0x35
 2853 00a0 00       		.byte	0
 2854 00a1 49       		.uleb128 0x49
 2855 00a2 13       		.uleb128 0x13
 2856 00a3 00       		.byte	0
 2857 00a4 00       		.byte	0
 2858 00a5 0E       		.uleb128 0xe
 2859 00a6 17       		.uleb128 0x17
 2860 00a7 01       		.byte	0x1
 2861 00a8 0B       		.uleb128 0xb
 2862 00a9 0B       		.uleb128 0xb
 2863 00aa 3A       		.uleb128 0x3a
 2864 00ab 0B       		.uleb128 0xb
 2865 00ac 3B       		.uleb128 0x3b
 2866 00ad 0B       		.uleb128 0xb
 2867 00ae 01       		.uleb128 0x1
 2868 00af 13       		.uleb128 0x13
 2869 00b0 00       		.byte	0
 2870 00b1 00       		.byte	0
 2871 00b2 0F       		.uleb128 0xf
 2872 00b3 0D       		.uleb128 0xd
 2873 00b4 00       		.byte	0
 2874 00b5 03       		.uleb128 0x3
 2875 00b6 0E       		.uleb128 0xe
 2876 00b7 3A       		.uleb128 0x3a
 2877 00b8 0B       		.uleb128 0xb
 2878 00b9 3B       		.uleb128 0x3b
 2879 00ba 0B       		.uleb128 0xb
 2880 00bb 49       		.uleb128 0x49
 2881 00bc 13       		.uleb128 0x13
 2882 00bd 00       		.byte	0
 2883 00be 00       		.byte	0
 2884 00bf 10       		.uleb128 0x10
 2885 00c0 26       		.uleb128 0x26
 2886 00c1 00       		.byte	0
 2887 00c2 49       		.uleb128 0x49
 2888 00c3 13       		.uleb128 0x13
 2889 00c4 00       		.byte	0
 2890 00c5 00       		.byte	0
 2891 00c6 11       		.uleb128 0x11
 2892 00c7 15       		.uleb128 0x15
 2893 00c8 01       		.byte	0x1
 2894 00c9 27       		.uleb128 0x27
 2895 00ca 19       		.uleb128 0x19
 2896 00cb 49       		.uleb128 0x49
ARM GAS  /tmp/ccAHuN30.s 			page 52


 2897 00cc 13       		.uleb128 0x13
 2898 00cd 01       		.uleb128 0x1
 2899 00ce 13       		.uleb128 0x13
 2900 00cf 00       		.byte	0
 2901 00d0 00       		.byte	0
 2902 00d1 12       		.uleb128 0x12
 2903 00d2 05       		.uleb128 0x5
 2904 00d3 00       		.byte	0
 2905 00d4 49       		.uleb128 0x49
 2906 00d5 13       		.uleb128 0x13
 2907 00d6 00       		.byte	0
 2908 00d7 00       		.byte	0
 2909 00d8 13       		.uleb128 0x13
 2910 00d9 15       		.uleb128 0x15
 2911 00da 01       		.byte	0x1
 2912 00db 27       		.uleb128 0x27
 2913 00dc 19       		.uleb128 0x19
 2914 00dd 01       		.uleb128 0x1
 2915 00de 13       		.uleb128 0x13
 2916 00df 00       		.byte	0
 2917 00e0 00       		.byte	0
 2918 00e1 14       		.uleb128 0x14
 2919 00e2 04       		.uleb128 0x4
 2920 00e3 01       		.byte	0x1
 2921 00e4 03       		.uleb128 0x3
 2922 00e5 0E       		.uleb128 0xe
 2923 00e6 0B       		.uleb128 0xb
 2924 00e7 0B       		.uleb128 0xb
 2925 00e8 3A       		.uleb128 0x3a
 2926 00e9 0B       		.uleb128 0xb
 2927 00ea 3B       		.uleb128 0x3b
 2928 00eb 0B       		.uleb128 0xb
 2929 00ec 01       		.uleb128 0x1
 2930 00ed 13       		.uleb128 0x13
 2931 00ee 00       		.byte	0
 2932 00ef 00       		.byte	0
 2933 00f0 15       		.uleb128 0x15
 2934 00f1 28       		.uleb128 0x28
 2935 00f2 00       		.byte	0
 2936 00f3 03       		.uleb128 0x3
 2937 00f4 0E       		.uleb128 0xe
 2938 00f5 1C       		.uleb128 0x1c
 2939 00f6 0D       		.uleb128 0xd
 2940 00f7 00       		.byte	0
 2941 00f8 00       		.byte	0
 2942 00f9 16       		.uleb128 0x16
 2943 00fa 01       		.uleb128 0x1
 2944 00fb 01       		.byte	0x1
 2945 00fc 49       		.uleb128 0x49
 2946 00fd 13       		.uleb128 0x13
 2947 00fe 01       		.uleb128 0x1
 2948 00ff 13       		.uleb128 0x13
 2949 0100 00       		.byte	0
 2950 0101 00       		.byte	0
 2951 0102 17       		.uleb128 0x17
 2952 0103 21       		.uleb128 0x21
 2953 0104 00       		.byte	0
ARM GAS  /tmp/ccAHuN30.s 			page 53


 2954 0105 49       		.uleb128 0x49
 2955 0106 13       		.uleb128 0x13
 2956 0107 2F       		.uleb128 0x2f
 2957 0108 0B       		.uleb128 0xb
 2958 0109 00       		.byte	0
 2959 010a 00       		.byte	0
 2960 010b 18       		.uleb128 0x18
 2961 010c 13       		.uleb128 0x13
 2962 010d 01       		.byte	0x1
 2963 010e 0B       		.uleb128 0xb
 2964 010f 0B       		.uleb128 0xb
 2965 0110 3A       		.uleb128 0x3a
 2966 0111 0B       		.uleb128 0xb
 2967 0112 3B       		.uleb128 0x3b
 2968 0113 05       		.uleb128 0x5
 2969 0114 01       		.uleb128 0x1
 2970 0115 13       		.uleb128 0x13
 2971 0116 00       		.byte	0
 2972 0117 00       		.byte	0
 2973 0118 19       		.uleb128 0x19
 2974 0119 0D       		.uleb128 0xd
 2975 011a 00       		.byte	0
 2976 011b 03       		.uleb128 0x3
 2977 011c 0E       		.uleb128 0xe
 2978 011d 3A       		.uleb128 0x3a
 2979 011e 0B       		.uleb128 0xb
 2980 011f 3B       		.uleb128 0x3b
 2981 0120 05       		.uleb128 0x5
 2982 0121 49       		.uleb128 0x49
 2983 0122 13       		.uleb128 0x13
 2984 0123 38       		.uleb128 0x38
 2985 0124 0B       		.uleb128 0xb
 2986 0125 00       		.byte	0
 2987 0126 00       		.byte	0
 2988 0127 1A       		.uleb128 0x1a
 2989 0128 16       		.uleb128 0x16
 2990 0129 00       		.byte	0
 2991 012a 03       		.uleb128 0x3
 2992 012b 0E       		.uleb128 0xe
 2993 012c 3A       		.uleb128 0x3a
 2994 012d 0B       		.uleb128 0xb
 2995 012e 3B       		.uleb128 0x3b
 2996 012f 05       		.uleb128 0x5
 2997 0130 49       		.uleb128 0x49
 2998 0131 13       		.uleb128 0x13
 2999 0132 00       		.byte	0
 3000 0133 00       		.byte	0
 3001 0134 1B       		.uleb128 0x1b
 3002 0135 04       		.uleb128 0x4
 3003 0136 01       		.byte	0x1
 3004 0137 0B       		.uleb128 0xb
 3005 0138 0B       		.uleb128 0xb
 3006 0139 3A       		.uleb128 0x3a
 3007 013a 0B       		.uleb128 0xb
 3008 013b 3B       		.uleb128 0x3b
 3009 013c 0B       		.uleb128 0xb
 3010 013d 01       		.uleb128 0x1
ARM GAS  /tmp/ccAHuN30.s 			page 54


 3011 013e 13       		.uleb128 0x13
 3012 013f 00       		.byte	0
 3013 0140 00       		.byte	0
 3014 0141 1C       		.uleb128 0x1c
 3015 0142 2E       		.uleb128 0x2e
 3016 0143 01       		.byte	0x1
 3017 0144 03       		.uleb128 0x3
 3018 0145 0E       		.uleb128 0xe
 3019 0146 3A       		.uleb128 0x3a
 3020 0147 0B       		.uleb128 0xb
 3021 0148 3B       		.uleb128 0x3b
 3022 0149 0B       		.uleb128 0xb
 3023 014a 27       		.uleb128 0x27
 3024 014b 19       		.uleb128 0x19
 3025 014c 20       		.uleb128 0x20
 3026 014d 0B       		.uleb128 0xb
 3027 014e 01       		.uleb128 0x1
 3028 014f 13       		.uleb128 0x13
 3029 0150 00       		.byte	0
 3030 0151 00       		.byte	0
 3031 0152 1D       		.uleb128 0x1d
 3032 0153 05       		.uleb128 0x5
 3033 0154 00       		.byte	0
 3034 0155 03       		.uleb128 0x3
 3035 0156 08       		.uleb128 0x8
 3036 0157 3A       		.uleb128 0x3a
 3037 0158 0B       		.uleb128 0xb
 3038 0159 3B       		.uleb128 0x3b
 3039 015a 0B       		.uleb128 0xb
 3040 015b 49       		.uleb128 0x49
 3041 015c 13       		.uleb128 0x13
 3042 015d 00       		.byte	0
 3043 015e 00       		.byte	0
 3044 015f 1E       		.uleb128 0x1e
 3045 0160 05       		.uleb128 0x5
 3046 0161 00       		.byte	0
 3047 0162 03       		.uleb128 0x3
 3048 0163 0E       		.uleb128 0xe
 3049 0164 3A       		.uleb128 0x3a
 3050 0165 0B       		.uleb128 0xb
 3051 0166 3B       		.uleb128 0x3b
 3052 0167 0B       		.uleb128 0xb
 3053 0168 49       		.uleb128 0x49
 3054 0169 13       		.uleb128 0x13
 3055 016a 00       		.byte	0
 3056 016b 00       		.byte	0
 3057 016c 1F       		.uleb128 0x1f
 3058 016d 34       		.uleb128 0x34
 3059 016e 00       		.byte	0
 3060 016f 03       		.uleb128 0x3
 3061 0170 08       		.uleb128 0x8
 3062 0171 3A       		.uleb128 0x3a
 3063 0172 0B       		.uleb128 0xb
 3064 0173 3B       		.uleb128 0x3b
 3065 0174 0B       		.uleb128 0xb
 3066 0175 49       		.uleb128 0x49
 3067 0176 13       		.uleb128 0x13
ARM GAS  /tmp/ccAHuN30.s 			page 55


 3068 0177 00       		.byte	0
 3069 0178 00       		.byte	0
 3070 0179 20       		.uleb128 0x20
 3071 017a 0B       		.uleb128 0xb
 3072 017b 01       		.byte	0x1
 3073 017c 01       		.uleb128 0x1
 3074 017d 13       		.uleb128 0x13
 3075 017e 00       		.byte	0
 3076 017f 00       		.byte	0
 3077 0180 21       		.uleb128 0x21
 3078 0181 0B       		.uleb128 0xb
 3079 0182 01       		.byte	0x1
 3080 0183 00       		.byte	0
 3081 0184 00       		.byte	0
 3082 0185 22       		.uleb128 0x22
 3083 0186 2E       		.uleb128 0x2e
 3084 0187 01       		.byte	0x1
 3085 0188 03       		.uleb128 0x3
 3086 0189 0E       		.uleb128 0xe
 3087 018a 3A       		.uleb128 0x3a
 3088 018b 0B       		.uleb128 0xb
 3089 018c 3B       		.uleb128 0x3b
 3090 018d 0B       		.uleb128 0xb
 3091 018e 27       		.uleb128 0x27
 3092 018f 19       		.uleb128 0x19
 3093 0190 11       		.uleb128 0x11
 3094 0191 01       		.uleb128 0x1
 3095 0192 12       		.uleb128 0x12
 3096 0193 06       		.uleb128 0x6
 3097 0194 40       		.uleb128 0x40
 3098 0195 18       		.uleb128 0x18
 3099 0196 9742     		.uleb128 0x2117
 3100 0198 19       		.uleb128 0x19
 3101 0199 01       		.uleb128 0x1
 3102 019a 13       		.uleb128 0x13
 3103 019b 00       		.byte	0
 3104 019c 00       		.byte	0
 3105 019d 23       		.uleb128 0x23
 3106 019e 05       		.uleb128 0x5
 3107 019f 00       		.byte	0
 3108 01a0 03       		.uleb128 0x3
 3109 01a1 08       		.uleb128 0x8
 3110 01a2 3A       		.uleb128 0x3a
 3111 01a3 0B       		.uleb128 0xb
 3112 01a4 3B       		.uleb128 0x3b
 3113 01a5 0B       		.uleb128 0xb
 3114 01a6 49       		.uleb128 0x49
 3115 01a7 13       		.uleb128 0x13
 3116 01a8 02       		.uleb128 0x2
 3117 01a9 18       		.uleb128 0x18
 3118 01aa 00       		.byte	0
 3119 01ab 00       		.byte	0
 3120 01ac 24       		.uleb128 0x24
 3121 01ad 2E       		.uleb128 0x2e
 3122 01ae 01       		.byte	0x1
 3123 01af 3F       		.uleb128 0x3f
 3124 01b0 19       		.uleb128 0x19
ARM GAS  /tmp/ccAHuN30.s 			page 56


 3125 01b1 03       		.uleb128 0x3
 3126 01b2 0E       		.uleb128 0xe
 3127 01b3 3A       		.uleb128 0x3a
 3128 01b4 0B       		.uleb128 0xb
 3129 01b5 3B       		.uleb128 0x3b
 3130 01b6 05       		.uleb128 0x5
 3131 01b7 27       		.uleb128 0x27
 3132 01b8 19       		.uleb128 0x19
 3133 01b9 11       		.uleb128 0x11
 3134 01ba 01       		.uleb128 0x1
 3135 01bb 12       		.uleb128 0x12
 3136 01bc 06       		.uleb128 0x6
 3137 01bd 40       		.uleb128 0x40
 3138 01be 18       		.uleb128 0x18
 3139 01bf 9742     		.uleb128 0x2117
 3140 01c1 19       		.uleb128 0x19
 3141 01c2 01       		.uleb128 0x1
 3142 01c3 13       		.uleb128 0x13
 3143 01c4 00       		.byte	0
 3144 01c5 00       		.byte	0
 3145 01c6 25       		.uleb128 0x25
 3146 01c7 1D       		.uleb128 0x1d
 3147 01c8 01       		.byte	0x1
 3148 01c9 31       		.uleb128 0x31
 3149 01ca 13       		.uleb128 0x13
 3150 01cb 52       		.uleb128 0x52
 3151 01cc 01       		.uleb128 0x1
 3152 01cd 55       		.uleb128 0x55
 3153 01ce 17       		.uleb128 0x17
 3154 01cf 58       		.uleb128 0x58
 3155 01d0 0B       		.uleb128 0xb
 3156 01d1 59       		.uleb128 0x59
 3157 01d2 05       		.uleb128 0x5
 3158 01d3 01       		.uleb128 0x1
 3159 01d4 13       		.uleb128 0x13
 3160 01d5 00       		.byte	0
 3161 01d6 00       		.byte	0
 3162 01d7 26       		.uleb128 0x26
 3163 01d8 05       		.uleb128 0x5
 3164 01d9 00       		.byte	0
 3165 01da 31       		.uleb128 0x31
 3166 01db 13       		.uleb128 0x13
 3167 01dc 02       		.uleb128 0x2
 3168 01dd 18       		.uleb128 0x18
 3169 01de 00       		.byte	0
 3170 01df 00       		.byte	0
 3171 01e0 27       		.uleb128 0x27
 3172 01e1 0B       		.uleb128 0xb
 3173 01e2 01       		.byte	0x1
 3174 01e3 55       		.uleb128 0x55
 3175 01e4 17       		.uleb128 0x17
 3176 01e5 00       		.byte	0
 3177 01e6 00       		.byte	0
 3178 01e7 28       		.uleb128 0x28
 3179 01e8 34       		.uleb128 0x34
 3180 01e9 00       		.byte	0
 3181 01ea 31       		.uleb128 0x31
ARM GAS  /tmp/ccAHuN30.s 			page 57


 3182 01eb 13       		.uleb128 0x13
 3183 01ec 02       		.uleb128 0x2
 3184 01ed 17       		.uleb128 0x17
 3185 01ee 00       		.byte	0
 3186 01ef 00       		.byte	0
 3187 01f0 29       		.uleb128 0x29
 3188 01f1 0B       		.uleb128 0xb
 3189 01f2 01       		.byte	0x1
 3190 01f3 11       		.uleb128 0x11
 3191 01f4 01       		.uleb128 0x1
 3192 01f5 12       		.uleb128 0x12
 3193 01f6 06       		.uleb128 0x6
 3194 01f7 01       		.uleb128 0x1
 3195 01f8 13       		.uleb128 0x13
 3196 01f9 00       		.byte	0
 3197 01fa 00       		.byte	0
 3198 01fb 2A       		.uleb128 0x2a
 3199 01fc 34       		.uleb128 0x34
 3200 01fd 00       		.byte	0
 3201 01fe 31       		.uleb128 0x31
 3202 01ff 13       		.uleb128 0x13
 3203 0200 02       		.uleb128 0x2
 3204 0201 18       		.uleb128 0x18
 3205 0202 00       		.byte	0
 3206 0203 00       		.byte	0
 3207 0204 2B       		.uleb128 0x2b
 3208 0205 1D       		.uleb128 0x1d
 3209 0206 01       		.byte	0x1
 3210 0207 31       		.uleb128 0x31
 3211 0208 13       		.uleb128 0x13
 3212 0209 11       		.uleb128 0x11
 3213 020a 01       		.uleb128 0x1
 3214 020b 12       		.uleb128 0x12
 3215 020c 06       		.uleb128 0x6
 3216 020d 58       		.uleb128 0x58
 3217 020e 0B       		.uleb128 0xb
 3218 020f 59       		.uleb128 0x59
 3219 0210 0B       		.uleb128 0xb
 3220 0211 01       		.uleb128 0x1
 3221 0212 13       		.uleb128 0x13
 3222 0213 00       		.byte	0
 3223 0214 00       		.byte	0
 3224 0215 2C       		.uleb128 0x2c
 3225 0216 05       		.uleb128 0x5
 3226 0217 00       		.byte	0
 3227 0218 31       		.uleb128 0x31
 3228 0219 13       		.uleb128 0x13
 3229 021a 02       		.uleb128 0x2
 3230 021b 17       		.uleb128 0x17
 3231 021c 00       		.byte	0
 3232 021d 00       		.byte	0
 3233 021e 2D       		.uleb128 0x2d
 3234 021f 0B       		.uleb128 0xb
 3235 0220 01       		.byte	0x1
 3236 0221 11       		.uleb128 0x11
 3237 0222 01       		.uleb128 0x1
 3238 0223 12       		.uleb128 0x12
ARM GAS  /tmp/ccAHuN30.s 			page 58


 3239 0224 06       		.uleb128 0x6
 3240 0225 00       		.byte	0
 3241 0226 00       		.byte	0
 3242 0227 2E       		.uleb128 0x2e
 3243 0228 898201   		.uleb128 0x4109
 3244 022b 01       		.byte	0x1
 3245 022c 11       		.uleb128 0x11
 3246 022d 01       		.uleb128 0x1
 3247 022e 31       		.uleb128 0x31
 3248 022f 13       		.uleb128 0x13
 3249 0230 00       		.byte	0
 3250 0231 00       		.byte	0
 3251 0232 2F       		.uleb128 0x2f
 3252 0233 8A8201   		.uleb128 0x410a
 3253 0236 00       		.byte	0
 3254 0237 02       		.uleb128 0x2
 3255 0238 18       		.uleb128 0x18
 3256 0239 9142     		.uleb128 0x2111
 3257 023b 18       		.uleb128 0x18
 3258 023c 00       		.byte	0
 3259 023d 00       		.byte	0
 3260 023e 30       		.uleb128 0x30
 3261 023f 898201   		.uleb128 0x4109
 3262 0242 01       		.byte	0x1
 3263 0243 11       		.uleb128 0x11
 3264 0244 01       		.uleb128 0x1
 3265 0245 31       		.uleb128 0x31
 3266 0246 13       		.uleb128 0x13
 3267 0247 01       		.uleb128 0x1
 3268 0248 13       		.uleb128 0x13
 3269 0249 00       		.byte	0
 3270 024a 00       		.byte	0
 3271 024b 31       		.uleb128 0x31
 3272 024c 898201   		.uleb128 0x4109
 3273 024f 00       		.byte	0
 3274 0250 11       		.uleb128 0x11
 3275 0251 01       		.uleb128 0x1
 3276 0252 9542     		.uleb128 0x2115
 3277 0254 19       		.uleb128 0x19
 3278 0255 31       		.uleb128 0x31
 3279 0256 13       		.uleb128 0x13
 3280 0257 00       		.byte	0
 3281 0258 00       		.byte	0
 3282 0259 32       		.uleb128 0x32
 3283 025a 05       		.uleb128 0x5
 3284 025b 00       		.byte	0
 3285 025c 03       		.uleb128 0x3
 3286 025d 08       		.uleb128 0x8
 3287 025e 3A       		.uleb128 0x3a
 3288 025f 0B       		.uleb128 0xb
 3289 0260 3B       		.uleb128 0x3b
 3290 0261 05       		.uleb128 0x5
 3291 0262 49       		.uleb128 0x49
 3292 0263 13       		.uleb128 0x13
 3293 0264 02       		.uleb128 0x2
 3294 0265 17       		.uleb128 0x17
 3295 0266 00       		.byte	0
ARM GAS  /tmp/ccAHuN30.s 			page 59


 3296 0267 00       		.byte	0
 3297 0268 33       		.uleb128 0x33
 3298 0269 05       		.uleb128 0x5
 3299 026a 00       		.byte	0
 3300 026b 03       		.uleb128 0x3
 3301 026c 0E       		.uleb128 0xe
 3302 026d 3A       		.uleb128 0x3a
 3303 026e 0B       		.uleb128 0xb
 3304 026f 3B       		.uleb128 0x3b
 3305 0270 05       		.uleb128 0x5
 3306 0271 49       		.uleb128 0x49
 3307 0272 13       		.uleb128 0x13
 3308 0273 02       		.uleb128 0x2
 3309 0274 17       		.uleb128 0x17
 3310 0275 00       		.byte	0
 3311 0276 00       		.byte	0
 3312 0277 34       		.uleb128 0x34
 3313 0278 1D       		.uleb128 0x1d
 3314 0279 01       		.byte	0x1
 3315 027a 31       		.uleb128 0x31
 3316 027b 13       		.uleb128 0x13
 3317 027c 11       		.uleb128 0x11
 3318 027d 01       		.uleb128 0x1
 3319 027e 12       		.uleb128 0x12
 3320 027f 06       		.uleb128 0x6
 3321 0280 58       		.uleb128 0x58
 3322 0281 0B       		.uleb128 0xb
 3323 0282 59       		.uleb128 0x59
 3324 0283 05       		.uleb128 0x5
 3325 0284 01       		.uleb128 0x1
 3326 0285 13       		.uleb128 0x13
 3327 0286 00       		.byte	0
 3328 0287 00       		.byte	0
 3329 0288 35       		.uleb128 0x35
 3330 0289 898201   		.uleb128 0x4109
 3331 028c 01       		.byte	0x1
 3332 028d 11       		.uleb128 0x11
 3333 028e 01       		.uleb128 0x1
 3334 028f 9542     		.uleb128 0x2115
 3335 0291 19       		.uleb128 0x19
 3336 0292 31       		.uleb128 0x31
 3337 0293 13       		.uleb128 0x13
 3338 0294 00       		.byte	0
 3339 0295 00       		.byte	0
 3340 0296 36       		.uleb128 0x36
 3341 0297 34       		.uleb128 0x34
 3342 0298 00       		.byte	0
 3343 0299 03       		.uleb128 0x3
 3344 029a 0E       		.uleb128 0xe
 3345 029b 3A       		.uleb128 0x3a
 3346 029c 0B       		.uleb128 0xb
 3347 029d 3B       		.uleb128 0x3b
 3348 029e 0B       		.uleb128 0xb
 3349 029f 49       		.uleb128 0x49
 3350 02a0 13       		.uleb128 0x13
 3351 02a1 02       		.uleb128 0x2
 3352 02a2 18       		.uleb128 0x18
ARM GAS  /tmp/ccAHuN30.s 			page 60


 3353 02a3 00       		.byte	0
 3354 02a4 00       		.byte	0
 3355 02a5 37       		.uleb128 0x37
 3356 02a6 34       		.uleb128 0x34
 3357 02a7 00       		.byte	0
 3358 02a8 03       		.uleb128 0x3
 3359 02a9 0E       		.uleb128 0xe
 3360 02aa 3A       		.uleb128 0x3a
 3361 02ab 0B       		.uleb128 0xb
 3362 02ac 3B       		.uleb128 0x3b
 3363 02ad 05       		.uleb128 0x5
 3364 02ae 49       		.uleb128 0x49
 3365 02af 13       		.uleb128 0x13
 3366 02b0 3F       		.uleb128 0x3f
 3367 02b1 19       		.uleb128 0x19
 3368 02b2 3C       		.uleb128 0x3c
 3369 02b3 19       		.uleb128 0x19
 3370 02b4 00       		.byte	0
 3371 02b5 00       		.byte	0
 3372 02b6 38       		.uleb128 0x38
 3373 02b7 34       		.uleb128 0x34
 3374 02b8 00       		.byte	0
 3375 02b9 03       		.uleb128 0x3
 3376 02ba 08       		.uleb128 0x8
 3377 02bb 3A       		.uleb128 0x3a
 3378 02bc 0B       		.uleb128 0xb
 3379 02bd 3B       		.uleb128 0x3b
 3380 02be 0B       		.uleb128 0xb
 3381 02bf 49       		.uleb128 0x49
 3382 02c0 13       		.uleb128 0x13
 3383 02c1 3F       		.uleb128 0x3f
 3384 02c2 19       		.uleb128 0x19
 3385 02c3 02       		.uleb128 0x2
 3386 02c4 18       		.uleb128 0x18
 3387 02c5 00       		.byte	0
 3388 02c6 00       		.byte	0
 3389 02c7 39       		.uleb128 0x39
 3390 02c8 2E       		.uleb128 0x2e
 3391 02c9 01       		.byte	0x1
 3392 02ca 3F       		.uleb128 0x3f
 3393 02cb 19       		.uleb128 0x19
 3394 02cc 03       		.uleb128 0x3
 3395 02cd 0E       		.uleb128 0xe
 3396 02ce 3A       		.uleb128 0x3a
 3397 02cf 0B       		.uleb128 0xb
 3398 02d0 3B       		.uleb128 0x3b
 3399 02d1 0B       		.uleb128 0xb
 3400 02d2 27       		.uleb128 0x27
 3401 02d3 19       		.uleb128 0x19
 3402 02d4 3C       		.uleb128 0x3c
 3403 02d5 19       		.uleb128 0x19
 3404 02d6 01       		.uleb128 0x1
 3405 02d7 13       		.uleb128 0x13
 3406 02d8 00       		.byte	0
 3407 02d9 00       		.byte	0
 3408 02da 3A       		.uleb128 0x3a
 3409 02db 2E       		.uleb128 0x2e
ARM GAS  /tmp/ccAHuN30.s 			page 61


 3410 02dc 01       		.byte	0x1
 3411 02dd 3F       		.uleb128 0x3f
 3412 02de 19       		.uleb128 0x19
 3413 02df 03       		.uleb128 0x3
 3414 02e0 0E       		.uleb128 0xe
 3415 02e1 3A       		.uleb128 0x3a
 3416 02e2 0B       		.uleb128 0xb
 3417 02e3 3B       		.uleb128 0x3b
 3418 02e4 05       		.uleb128 0x5
 3419 02e5 27       		.uleb128 0x27
 3420 02e6 19       		.uleb128 0x19
 3421 02e7 49       		.uleb128 0x49
 3422 02e8 13       		.uleb128 0x13
 3423 02e9 3C       		.uleb128 0x3c
 3424 02ea 19       		.uleb128 0x19
 3425 02eb 01       		.uleb128 0x1
 3426 02ec 13       		.uleb128 0x13
 3427 02ed 00       		.byte	0
 3428 02ee 00       		.byte	0
 3429 02ef 3B       		.uleb128 0x3b
 3430 02f0 2E       		.uleb128 0x2e
 3431 02f1 01       		.byte	0x1
 3432 02f2 3F       		.uleb128 0x3f
 3433 02f3 19       		.uleb128 0x19
 3434 02f4 03       		.uleb128 0x3
 3435 02f5 0E       		.uleb128 0xe
 3436 02f6 3A       		.uleb128 0x3a
 3437 02f7 0B       		.uleb128 0xb
 3438 02f8 3B       		.uleb128 0x3b
 3439 02f9 05       		.uleb128 0x5
 3440 02fa 27       		.uleb128 0x27
 3441 02fb 19       		.uleb128 0x19
 3442 02fc 3C       		.uleb128 0x3c
 3443 02fd 19       		.uleb128 0x19
 3444 02fe 01       		.uleb128 0x1
 3445 02ff 13       		.uleb128 0x13
 3446 0300 00       		.byte	0
 3447 0301 00       		.byte	0
 3448 0302 3C       		.uleb128 0x3c
 3449 0303 2E       		.uleb128 0x2e
 3450 0304 00       		.byte	0
 3451 0305 3F       		.uleb128 0x3f
 3452 0306 19       		.uleb128 0x19
 3453 0307 03       		.uleb128 0x3
 3454 0308 0E       		.uleb128 0xe
 3455 0309 3A       		.uleb128 0x3a
 3456 030a 0B       		.uleb128 0xb
 3457 030b 3B       		.uleb128 0x3b
 3458 030c 05       		.uleb128 0x5
 3459 030d 27       		.uleb128 0x27
 3460 030e 19       		.uleb128 0x19
 3461 030f 3C       		.uleb128 0x3c
 3462 0310 19       		.uleb128 0x19
 3463 0311 00       		.byte	0
 3464 0312 00       		.byte	0
 3465 0313 3D       		.uleb128 0x3d
 3466 0314 2E       		.uleb128 0x2e
ARM GAS  /tmp/ccAHuN30.s 			page 62


 3467 0315 01       		.byte	0x1
 3468 0316 3F       		.uleb128 0x3f
 3469 0317 19       		.uleb128 0x19
 3470 0318 03       		.uleb128 0x3
 3471 0319 0E       		.uleb128 0xe
 3472 031a 3A       		.uleb128 0x3a
 3473 031b 0B       		.uleb128 0xb
 3474 031c 3B       		.uleb128 0x3b
 3475 031d 05       		.uleb128 0x5
 3476 031e 27       		.uleb128 0x27
 3477 031f 19       		.uleb128 0x19
 3478 0320 3C       		.uleb128 0x3c
 3479 0321 19       		.uleb128 0x19
 3480 0322 00       		.byte	0
 3481 0323 00       		.byte	0
 3482 0324 00       		.byte	0
 3483              		.section	.debug_loc,"",%progbits
 3484              	.Ldebug_loc0:
 3485              	.LLST0:
 3486 0000 0C000000 		.4byte	.LVL2
 3487 0004 A4000000 		.4byte	.LVL17
 3488 0008 0100     		.2byte	0x1
 3489 000a 55       		.byte	0x55
 3490 000b A8000000 		.4byte	.LVL18
 3491 000f 00010000 		.4byte	.LFE123
 3492 0013 0100     		.2byte	0x1
 3493 0015 55       		.byte	0x55
 3494 0016 00000000 		.4byte	0
 3495 001a 00000000 		.4byte	0
 3496              	.LLST1:
 3497 001e 16000000 		.4byte	.LVL3
 3498 0022 A4000000 		.4byte	.LVL17
 3499 0026 0100     		.2byte	0x1
 3500 0028 56       		.byte	0x56
 3501 0029 A8000000 		.4byte	.LVL18
 3502 002d 00010000 		.4byte	.LFE123
 3503 0031 0100     		.2byte	0x1
 3504 0033 56       		.byte	0x56
 3505 0034 00000000 		.4byte	0
 3506 0038 00000000 		.4byte	0
 3507              	.LLST2:
 3508 003c 16000000 		.4byte	.LVL3
 3509 0040 24000000 		.4byte	.LVL4
 3510 0044 0100     		.2byte	0x1
 3511 0046 54       		.byte	0x54
 3512 0047 38000000 		.4byte	.LVL6
 3513 004b 5E000000 		.4byte	.LVL12
 3514 004f 0100     		.2byte	0x1
 3515 0051 54       		.byte	0x54
 3516 0052 A8000000 		.4byte	.LVL18
 3517 0056 C6000000 		.4byte	.LVL20
 3518 005a 0100     		.2byte	0x1
 3519 005c 54       		.byte	0x54
 3520 005d 00000000 		.4byte	0
 3521 0061 00000000 		.4byte	0
 3522              	.LLST3:
 3523 0065 40000000 		.4byte	.LVL8
ARM GAS  /tmp/ccAHuN30.s 			page 63


 3524 0069 5E000000 		.4byte	.LVL12
 3525 006d 0100     		.2byte	0x1
 3526 006f 54       		.byte	0x54
 3527 0070 00000000 		.4byte	0
 3528 0074 00000000 		.4byte	0
 3529              	.LLST4:
 3530 0078 40000000 		.4byte	.LVL8
 3531 007c 6C000000 		.4byte	.LVL15
 3532 0080 0600     		.2byte	0x6
 3533 0082 03       		.byte	0x3
 3534 0083 00000000 		.4byte	SD6
 3535 0087 9F       		.byte	0x9f
 3536 0088 00000000 		.4byte	0
 3537 008c 00000000 		.4byte	0
 3538              	.LLST5:
 3539 0090 40000000 		.4byte	.LVL8
 3540 0094 4A000000 		.4byte	.LVL9
 3541 0098 0200     		.2byte	0x2
 3542 009a 30       		.byte	0x30
 3543 009b 9F       		.byte	0x9f
 3544 009c 4A000000 		.4byte	.LVL9
 3545 00a0 69000000 		.4byte	.LVL14-1
 3546 00a4 0100     		.2byte	0x1
 3547 00a6 51       		.byte	0x51
 3548 00a7 00000000 		.4byte	0
 3549 00ab 00000000 		.4byte	0
 3550              	.LLST6:
 3551 00af D2000000 		.4byte	.LVL21
 3552 00b3 D8000000 		.4byte	.LVL22
 3553 00b7 0100     		.2byte	0x1
 3554 00b9 50       		.byte	0x50
 3555 00ba 00000000 		.4byte	0
 3556 00be 00000000 		.4byte	0
 3557              	.LLST7:
 3558 00c2 00000000 		.4byte	.LVL25
 3559 00c6 18000000 		.4byte	.LVL27
 3560 00ca 0100     		.2byte	0x1
 3561 00cc 50       		.byte	0x50
 3562 00cd 18000000 		.4byte	.LVL27
 3563 00d1 7C000000 		.4byte	.LVL31
 3564 00d5 0100     		.2byte	0x1
 3565 00d7 55       		.byte	0x55
 3566 00d8 7C000000 		.4byte	.LVL31
 3567 00dc 92000000 		.4byte	.LVL32
 3568 00e0 0100     		.2byte	0x1
 3569 00e2 50       		.byte	0x50
 3570 00e3 92000000 		.4byte	.LVL32
 3571 00e7 A2000000 		.4byte	.LFE125
 3572 00eb 0100     		.2byte	0x1
 3573 00ed 55       		.byte	0x55
 3574 00ee 00000000 		.4byte	0
 3575 00f2 00000000 		.4byte	0
 3576              	.LLST8:
 3577 00f6 00000000 		.4byte	.LVL25
 3578 00fa 12000000 		.4byte	.LVL26
 3579 00fe 0100     		.2byte	0x1
 3580 0100 51       		.byte	0x51
ARM GAS  /tmp/ccAHuN30.s 			page 64


 3581 0101 12000000 		.4byte	.LVL26
 3582 0105 5E000000 		.4byte	.LVL29
 3583 0109 0100     		.2byte	0x1
 3584 010b 54       		.byte	0x54
 3585 010c 5E000000 		.4byte	.LVL29
 3586 0110 7C000000 		.4byte	.LVL31
 3587 0114 1300     		.2byte	0x13
 3588 0116 F3       		.byte	0xf3
 3589 0117 01       		.uleb128 0x1
 3590 0118 51       		.byte	0x51
 3591 0119 03       		.byte	0x3
 3592 011a 00000000 		.4byte	.LANCHOR1
 3593 011e F3       		.byte	0xf3
 3594 011f 01       		.uleb128 0x1
 3595 0120 51       		.byte	0x51
 3596 0121 30       		.byte	0x30
 3597 0122 2E       		.byte	0x2e
 3598 0123 28       		.byte	0x28
 3599 0124 0100     		.2byte	0x1
 3600 0126 16       		.byte	0x16
 3601 0127 13       		.byte	0x13
 3602 0128 9F       		.byte	0x9f
 3603 0129 7C000000 		.4byte	.LVL31
 3604 012d A2000000 		.4byte	.LFE125
 3605 0131 0100     		.2byte	0x1
 3606 0133 54       		.byte	0x54
 3607 0134 00000000 		.4byte	0
 3608 0138 00000000 		.4byte	0
 3609              	.LLST9:
 3610 013c 1A000000 		.4byte	.LVL28
 3611 0140 7C000000 		.4byte	.LVL31
 3612 0144 0100     		.2byte	0x1
 3613 0146 55       		.byte	0x55
 3614 0147 00000000 		.4byte	0
 3615 014b 00000000 		.4byte	0
 3616              	.LLST10:
 3617 014f 1A000000 		.4byte	.LVL28
 3618 0153 5E000000 		.4byte	.LVL29
 3619 0157 0100     		.2byte	0x1
 3620 0159 54       		.byte	0x54
 3621 015a 5E000000 		.4byte	.LVL29
 3622 015e 7C000000 		.4byte	.LVL31
 3623 0162 1300     		.2byte	0x13
 3624 0164 F3       		.byte	0xf3
 3625 0165 01       		.uleb128 0x1
 3626 0166 51       		.byte	0x51
 3627 0167 03       		.byte	0x3
 3628 0168 00000000 		.4byte	.LANCHOR1
 3629 016c F3       		.byte	0xf3
 3630 016d 01       		.uleb128 0x1
 3631 016e 51       		.byte	0x51
 3632 016f 30       		.byte	0x30
 3633 0170 2E       		.byte	0x2e
 3634 0171 28       		.byte	0x28
 3635 0172 0100     		.2byte	0x1
 3636 0174 16       		.byte	0x16
 3637 0175 13       		.byte	0x13
ARM GAS  /tmp/ccAHuN30.s 			page 65


 3638 0176 9F       		.byte	0x9f
 3639 0177 00000000 		.4byte	0
 3640 017b 00000000 		.4byte	0
 3641              	.LLST11:
 3642 017f 1A000000 		.4byte	.LVL28
 3643 0183 7A000000 		.4byte	.LVL30
 3644 0187 0100     		.2byte	0x1
 3645 0189 53       		.byte	0x53
 3646 018a 00000000 		.4byte	0
 3647 018e 00000000 		.4byte	0
 3648              	.LLST12:
 3649 0192 00000000 		.4byte	.LVL34
 3650 0196 28000000 		.4byte	.LVL36
 3651 019a 0100     		.2byte	0x1
 3652 019c 50       		.byte	0x50
 3653 019d 28000000 		.4byte	.LVL36
 3654 01a1 34000000 		.4byte	.LFE126
 3655 01a5 0400     		.2byte	0x4
 3656 01a7 F3       		.byte	0xf3
 3657 01a8 01       		.uleb128 0x1
 3658 01a9 50       		.byte	0x50
 3659 01aa 9F       		.byte	0x9f
 3660 01ab 00000000 		.4byte	0
 3661 01af 00000000 		.4byte	0
 3662              	.LLST13:
 3663 01b3 0E000000 		.4byte	.LVL35
 3664 01b7 2A000000 		.4byte	.LVL37
 3665 01bb 0100     		.2byte	0x1
 3666 01bd 52       		.byte	0x52
 3667 01be 2A000000 		.4byte	.LVL37
 3668 01c2 33000000 		.4byte	.LVL38-1
 3669 01c6 0500     		.2byte	0x5
 3670 01c8 F3       		.byte	0xf3
 3671 01c9 01       		.uleb128 0x1
 3672 01ca 50       		.byte	0x50
 3673 01cb 23       		.byte	0x23
 3674 01cc 74       		.uleb128 0x74
 3675 01cd 00000000 		.4byte	0
 3676 01d1 00000000 		.4byte	0
 3677              		.section	.debug_aranges,"",%progbits
 3678 0000 3C000000 		.4byte	0x3c
 3679 0004 0200     		.2byte	0x2
 3680 0006 00000000 		.4byte	.Ldebug_info0
 3681 000a 04       		.byte	0x4
 3682 000b 00       		.byte	0
 3683 000c 0000     		.2byte	0
 3684 000e 0000     		.2byte	0
 3685 0010 00000000 		.4byte	.LFB122
 3686 0014 14000000 		.4byte	.LFE122-.LFB122
 3687 0018 00000000 		.4byte	.LFB123
 3688 001c 00010000 		.4byte	.LFE123-.LFB123
 3689 0020 00000000 		.4byte	.LFB124
 3690 0024 26000000 		.4byte	.LFE124-.LFB124
 3691 0028 00000000 		.4byte	.LFB125
 3692 002c A2000000 		.4byte	.LFE125-.LFB125
 3693 0030 00000000 		.4byte	.LFB126
 3694 0034 34000000 		.4byte	.LFE126-.LFB126
ARM GAS  /tmp/ccAHuN30.s 			page 66


 3695 0038 00000000 		.4byte	0
 3696 003c 00000000 		.4byte	0
 3697              		.section	.debug_ranges,"",%progbits
 3698              	.Ldebug_ranges0:
 3699 0000 00000000 		.4byte	.LBB26
 3700 0004 08000000 		.4byte	.LBE26
 3701 0008 0A000000 		.4byte	.LBB41
 3702 000c A0000000 		.4byte	.LBE41
 3703 0010 A8000000 		.4byte	.LBB42
 3704 0014 00010000 		.4byte	.LBE42
 3705 0018 00000000 		.4byte	0
 3706 001c 00000000 		.4byte	0
 3707 0020 12000000 		.4byte	.LBB47
 3708 0024 14000000 		.4byte	.LBE47
 3709 0028 16000000 		.4byte	.LBB50
 3710 002c 1C000000 		.4byte	.LBE50
 3711 0030 00000000 		.4byte	0
 3712 0034 00000000 		.4byte	0
 3713 0038 00000000 		.4byte	.LFB122
 3714 003c 14000000 		.4byte	.LFE122
 3715 0040 00000000 		.4byte	.LFB123
 3716 0044 00010000 		.4byte	.LFE123
 3717 0048 00000000 		.4byte	.LFB124
 3718 004c 26000000 		.4byte	.LFE124
 3719 0050 00000000 		.4byte	.LFB125
 3720 0054 A2000000 		.4byte	.LFE125
 3721 0058 00000000 		.4byte	.LFB126
 3722 005c 34000000 		.4byte	.LFE126
 3723 0060 00000000 		.4byte	0
 3724 0064 00000000 		.4byte	0
 3725              		.section	.debug_line,"",%progbits
 3726              	.Ldebug_line0:
 3727 0000 0B030000 		.section	.debug_str,"MS",%progbits,1
 3727      02002002 
 3727      00000201 
 3727      FB0E0D00 
 3727      01010101 
 3728              	.LASF2:
 3729 0000 73697A65 		.ascii	"size_t\000"
 3729      5F7400
 3730              	.LASF134:
 3731 0007 54494D38 		.ascii	"TIM8_UP_TIM13_IRQn\000"
 3731      5F55505F 
 3731      54494D31 
 3731      335F4952 
 3731      516E00
 3732              	.LASF53:
 3733 001a 73697A65 		.ascii	"sizetype\000"
 3733      74797065 
 3733      00
 3734              	.LASF27:
 3735 0023 73797374 		.ascii	"systime_t\000"
 3735      696D655F 
 3735      7400
 3736              	.LASF198:
 3737 002d 504C4C49 		.ascii	"PLLI2SCFGR\000"
 3737      32534346 
ARM GAS  /tmp/ccAHuN30.s 			page 67


 3737      475200
 3738              	.LASF32:
 3739 0038 705F6374 		.ascii	"p_ctx\000"
 3739      7800
 3740              	.LASF23:
 3741 003e 74707269 		.ascii	"tprio_t\000"
 3741      6F5F7400 
 3742              	.LASF42:
 3743 0046 705F6D73 		.ascii	"p_msgqueue\000"
 3743      67717565 
 3743      756500
 3744              	.LASF16:
 3745 0051 696E7433 		.ascii	"int32_t\000"
 3745      325F7400 
 3746              	.LASF215:
 3747 0059 53657269 		.ascii	"SerialConfig\000"
 3747      616C436F 
 3747      6E666967 
 3747      00
 3748              	.LASF221:
 3749 0066 77726974 		.ascii	"writet\000"
 3749      657400
 3750              	.LASF202:
 3751 006d 47545052 		.ascii	"GTPR\000"
 3751      00
 3752              	.LASF217:
 3753 0072 77726974 		.ascii	"write\000"
 3753      6500
 3754              	.LASF147:
 3755 0078 444D4132 		.ascii	"DMA2_Stream1_IRQn\000"
 3755      5F537472 
 3755      65616D31 
 3755      5F495251 
 3755      6E00
 3756              	.LASF141:
 3757 008a 53504933 		.ascii	"SPI3_IRQn\000"
 3757      5F495251 
 3757      6E00
 3758              	.LASF94:
 3759 0094 464C4153 		.ascii	"FLASH_IRQn\000"
 3759      485F4952 
 3759      516E00
 3760              	.LASF168:
 3761 009f 44434D49 		.ascii	"DCMI_IRQn\000"
 3761      5F495251 
 3761      6E00
 3762              	.LASF62:
 3763 00a9 656C5F66 		.ascii	"el_flags\000"
 3763      6C616773 
 3763      00
 3764              	.LASF223:
 3765 00b2 636F6E66 		.ascii	"config\000"
 3765      696700
 3766              	.LASF210:
 3767 00b9 73746174 		.ascii	"state\000"
 3767      6500
 3768              	.LASF219:
ARM GAS  /tmp/ccAHuN30.s 			page 68


 3769 00bf 70757474 		.ascii	"putt\000"
 3769      00
 3770              	.LASF118:
 3771 00c4 54494D32 		.ascii	"TIM2_IRQn\000"
 3771      5F495251 
 3771      6E00
 3772              	.LASF226:
 3773 00ce 73657276 		.ascii	"serve_interrupt\000"
 3773      655F696E 
 3773      74657272 
 3773      75707400 
 3774              	.LASF227:
 3775 00de 7365745F 		.ascii	"set_error\000"
 3775      6572726F 
 3775      7200
 3776              	.LASF154:
 3777 00e8 43414E32 		.ascii	"CAN2_RX0_IRQn\000"
 3777      5F525830 
 3777      5F495251 
 3777      6E00
 3778              	.LASF161:
 3779 00f6 55534152 		.ascii	"USART6_IRQn\000"
 3779      54365F49 
 3779      52516E00 
 3780              	.LASF56:
 3781 0102 6D5F6F77 		.ascii	"m_owner\000"
 3781      6E657200 
 3782              	.LASF66:
 3783 010a 65786974 		.ascii	"exitcode\000"
 3783      636F6465 
 3783      00
 3784              	.LASF3:
 3785 0113 5F5F7569 		.ascii	"__uint8_t\000"
 3785      6E74385F 
 3785      7400
 3786              	.LASF166:
 3787 011d 4F54475F 		.ascii	"OTG_HS_WKUP_IRQn\000"
 3787      48535F57 
 3787      4B55505F 
 3787      4952516E 
 3787      00
 3788              	.LASF74:
 3789 012e 715F746F 		.ascii	"q_top\000"
 3789      7000
 3790              	.LASF68:
 3791 0134 65776D61 		.ascii	"ewmask\000"
 3791      736B00
 3792              	.LASF133:
 3793 013b 54494D38 		.ascii	"TIM8_BRK_TIM12_IRQn\000"
 3793      5F42524B 
 3793      5F54494D 
 3793      31325F49 
 3793      52516E00 
 3794              	.LASF189:
 3795 014f 41484232 		.ascii	"AHB2LPENR\000"
 3795      4C50454E 
 3795      5200
ARM GAS  /tmp/ccAHuN30.s 			page 69


 3796              	.LASF222:
 3797 0159 72656164 		.ascii	"readt\000"
 3797      7400
 3798              	.LASF230:
 3799 015f 73645F6C 		.ascii	"sd_lld_start\000"
 3799      6C645F73 
 3799      74617274 
 3799      00
 3800              	.LASF73:
 3801 016c 715F6275 		.ascii	"q_buffer\000"
 3801      66666572 
 3801      00
 3802              	.LASF77:
 3803 0175 715F6E6F 		.ascii	"q_notify\000"
 3803      74696679 
 3803      00
 3804              	.LASF235:
 3805 017e 73644F62 		.ascii	"sdObjectInit\000"
 3805      6A656374 
 3805      496E6974 
 3805      00
 3806              	.LASF33:
 3807 018b 705F6E65 		.ascii	"p_newer\000"
 3807      77657200 
 3808              	.LASF9:
 3809 0193 6C6F6E67 		.ascii	"long int\000"
 3809      20696E74 
 3809      00
 3810              	.LASF29:
 3811 019c 705F6E65 		.ascii	"p_next\000"
 3811      787400
 3812              	.LASF76:
 3813 01a3 715F7264 		.ascii	"q_rdptr\000"
 3813      70747200 
 3814              	.LASF30:
 3815 01ab 705F7072 		.ascii	"p_prev\000"
 3815      657600
 3816              	.LASF242:
 3817 01b2 64656661 		.ascii	"default_config\000"
 3817      756C745F 
 3817      636F6E66 
 3817      696700
 3818              	.LASF158:
 3819 01c1 444D4132 		.ascii	"DMA2_Stream5_IRQn\000"
 3819      5F537472 
 3819      65616D35 
 3819      5F495251 
 3819      6E00
 3820              	.LASF20:
 3821 01d3 74737461 		.ascii	"tstate_t\000"
 3821      74655F74 
 3821      00
 3822              	.LASF45:
 3823 01dc 705F6D74 		.ascii	"p_mtxlist\000"
 3823      786C6973 
 3823      7400
 3824              	.LASF116:
ARM GAS  /tmp/ccAHuN30.s 			page 70


 3825 01e6 54494D31 		.ascii	"TIM1_TRG_COM_TIM11_IRQn\000"
 3825      5F545247 
 3825      5F434F4D 
 3825      5F54494D 
 3825      31315F49 
 3826              	.LASF212:
 3827 01fe 6F717565 		.ascii	"oqueue\000"
 3827      756500
 3828              	.LASF50:
 3829 0205 72656761 		.ascii	"regarm_t\000"
 3829      726D5F74 
 3829      00
 3830              	.LASF186:
 3831 020e 41504232 		.ascii	"APB2ENR\000"
 3831      454E5200 
 3832              	.LASF188:
 3833 0216 41484231 		.ascii	"AHB1LPENR\000"
 3833      4C50454E 
 3833      5200
 3834              	.LASF89:
 3835 0220 53797354 		.ascii	"SysTick_IRQn\000"
 3835      69636B5F 
 3835      4952516E 
 3835      00
 3836              	.LASF129:
 3837 022d 55534152 		.ascii	"USART3_IRQn\000"
 3837      54335F49 
 3837      52516E00 
 3838              	.LASF200:
 3839 0239 44434B43 		.ascii	"DCKCFGR\000"
 3839      46475200 
 3840              	.LASF213:
 3841 0241 75736172 		.ascii	"usart\000"
 3841      7400
 3842              	.LASF238:
 3843 0247 2E2E2F2E 		.ascii	"../../os/hal/platforms/STM32/USARTv1/serial_lld.c\000"
 3843      2E2F6F73 
 3843      2F68616C 
 3843      2F706C61 
 3843      74666F72 
 3844              	.LASF1:
 3845 0279 7369676E 		.ascii	"signed char\000"
 3845      65642063 
 3845      68617200 
 3846              	.LASF39:
 3847 0285 705F7072 		.ascii	"p_preempt\000"
 3847      65656D70 
 3847      7400
 3848              	.LASF14:
 3849 028f 75696E74 		.ascii	"uint8_t\000"
 3849      385F7400 
 3850              	.LASF25:
 3851 0297 6576656E 		.ascii	"eventmask_t\000"
 3851      746D6173 
 3851      6B5F7400 
 3852              	.LASF52:
 3853 02a3 636F6E74 		.ascii	"context\000"
ARM GAS  /tmp/ccAHuN30.s 			page 71


 3853      65787400 
 3854              	.LASF103:
 3855 02ab 444D4131 		.ascii	"DMA1_Stream2_IRQn\000"
 3855      5F537472 
 3855      65616D32 
 3855      5F495251 
 3855      6E00
 3856              	.LASF177:
 3857 02bd 52455345 		.ascii	"RESERVED0\000"
 3857      52564544 
 3857      3000
 3858              	.LASF180:
 3859 02c7 52455345 		.ascii	"RESERVED1\000"
 3859      52564544 
 3859      3100
 3860              	.LASF4:
 3861 02d1 756E7369 		.ascii	"unsigned char\000"
 3861      676E6564 
 3861      20636861 
 3861      7200
 3862              	.LASF150:
 3863 02df 444D4132 		.ascii	"DMA2_Stream4_IRQn\000"
 3863      5F537472 
 3863      65616D34 
 3863      5F495251 
 3863      6E00
 3864              	.LASF191:
 3865 02f1 52455345 		.ascii	"RESERVED4\000"
 3865      52564544 
 3865      3400
 3866              	.LASF78:
 3867 02fb 715F6C69 		.ascii	"q_link\000"
 3867      6E6B00
 3868              	.LASF196:
 3869 0302 52455345 		.ascii	"RESERVED6\000"
 3869      52564544 
 3869      3600
 3870              	.LASF122:
 3871 030c 49324331 		.ascii	"I2C1_ER_IRQn\000"
 3871      5F45525F 
 3871      4952516E 
 3871      00
 3872              	.LASF156:
 3873 0319 43414E32 		.ascii	"CAN2_SCE_IRQn\000"
 3873      5F534345 
 3873      5F495251 
 3873      6E00
 3874              	.LASF204:
 3875 0327 53445F55 		.ascii	"SD_UNINIT\000"
 3875      4E494E49 
 3875      5400
 3876              	.LASF18:
 3877 0331 5F426F6F 		.ascii	"_Bool\000"
 3877      6C00
 3878              	.LASF184:
 3879 0337 52455345 		.ascii	"RESERVED2\000"
 3879      52564544 
ARM GAS  /tmp/ccAHuN30.s 			page 72


 3879      3200
 3880              	.LASF187:
 3881 0341 52455345 		.ascii	"RESERVED3\000"
 3881      52564544 
 3881      3300
 3882              	.LASF140:
 3883 034b 54494D35 		.ascii	"TIM5_IRQn\000"
 3883      5F495251 
 3883      6E00
 3884              	.LASF194:
 3885 0355 52455345 		.ascii	"RESERVED5\000"
 3885      52564544 
 3885      3500
 3886              	.LASF85:
 3887 035f 55736167 		.ascii	"UsageFault_IRQn\000"
 3887      65466175 
 3887      6C745F49 
 3887      52516E00 
 3888              	.LASF69:
 3889 036f 63686172 		.ascii	"char\000"
 3889      00
 3890              	.LASF174:
 3891 0374 41484231 		.ascii	"AHB1RSTR\000"
 3891      52535452 
 3891      00
 3892              	.LASF31:
 3893 037d 705F7072 		.ascii	"p_prio\000"
 3893      696F00
 3894              	.LASF6:
 3895 0384 5F5F7569 		.ascii	"__uint16_t\000"
 3895      6E743136 
 3895      5F7400
 3896              	.LASF182:
 3897 038f 41484232 		.ascii	"AHB2ENR\000"
 3897      454E5200 
 3898              	.LASF70:
 3899 0397 47656E65 		.ascii	"GenericQueue\000"
 3899      72696351 
 3899      75657565 
 3899      00
 3900              	.LASF67:
 3901 03a4 77746F62 		.ascii	"wtobjp\000"
 3901      6A7000
 3902              	.LASF110:
 3903 03ab 43414E31 		.ascii	"CAN1_RX0_IRQn\000"
 3903      5F525830 
 3903      5F495251 
 3903      6E00
 3904              	.LASF220:
 3905 03b9 67657474 		.ascii	"gett\000"
 3905      00
 3906              	.LASF203:
 3907 03be 55534152 		.ascii	"USART_TypeDef\000"
 3907      545F5479 
 3907      70654465 
 3907      6600
 3908              	.LASF81:
ARM GAS  /tmp/ccAHuN30.s 			page 73


 3909 03cc 4F757470 		.ascii	"OutputQueue\000"
 3909      75745175 
 3909      65756500 
 3910              	.LASF120:
 3911 03d8 54494D34 		.ascii	"TIM4_IRQn\000"
 3911      5F495251 
 3911      6E00
 3912              	.LASF128:
 3913 03e2 55534152 		.ascii	"USART2_IRQn\000"
 3913      54325F49 
 3913      52516E00 
 3914              	.LASF195:
 3915 03ee 42444352 		.ascii	"BDCR\000"
 3915      00
 3916              	.LASF121:
 3917 03f3 49324331 		.ascii	"I2C1_EV_IRQn\000"
 3917      5F45565F 
 3917      4952516E 
 3917      00
 3918              	.LASF51:
 3919 0400 696E7463 		.ascii	"intctx\000"
 3919      747800
 3920              	.LASF214:
 3921 0407 73706565 		.ascii	"speed\000"
 3921      6400
 3922              	.LASF44:
 3923 040d 705F6570 		.ascii	"p_epending\000"
 3923      656E6469 
 3923      6E6700
 3924              	.LASF173:
 3925 0418 43464752 		.ascii	"CFGR\000"
 3925      00
 3926              	.LASF117:
 3927 041d 54494D31 		.ascii	"TIM1_CC_IRQn\000"
 3927      5F43435F 
 3927      4952516E 
 3927      00
 3928              	.LASF170:
 3929 042a 48415348 		.ascii	"HASH_RNG_IRQn\000"
 3929      5F524E47 
 3929      5F495251 
 3929      6E00
 3930              	.LASF97:
 3931 0438 45585449 		.ascii	"EXTI1_IRQn\000"
 3931      315F4952 
 3931      516E00
 3932              	.LASF109:
 3933 0443 43414E31 		.ascii	"CAN1_TX_IRQn\000"
 3933      5F54585F 
 3933      4952516E 
 3933      00
 3934              	.LASF106:
 3935 0450 444D4131 		.ascii	"DMA1_Stream5_IRQn\000"
 3935      5F537472 
 3935      65616D35 
 3935      5F495251 
 3935      6E00
ARM GAS  /tmp/ccAHuN30.s 			page 74


 3936              	.LASF135:
 3937 0462 54494D38 		.ascii	"TIM8_TRG_COM_TIM14_IRQn\000"
 3937      5F545247 
 3937      5F434F4D 
 3937      5F54494D 
 3937      31345F49 
 3938              	.LASF64:
 3939 047a 65735F6E 		.ascii	"es_next\000"
 3939      65787400 
 3940              	.LASF72:
 3941 0482 715F636F 		.ascii	"q_counter\000"
 3941      756E7465 
 3941      7200
 3942              	.LASF157:
 3943 048c 4F54475F 		.ascii	"OTG_FS_IRQn\000"
 3943      46535F49 
 3943      52516E00 
 3944              	.LASF82:
 3945 0498 4E6F6E4D 		.ascii	"NonMaskableInt_IRQn\000"
 3945      61736B61 
 3945      626C6549 
 3945      6E745F49 
 3945      52516E00 
 3946              	.LASF138:
 3947 04ac 46534D43 		.ascii	"FSMC_IRQn\000"
 3947      5F495251 
 3947      6E00
 3948              	.LASF63:
 3949 04b6 4576656E 		.ascii	"EventSource\000"
 3949      74536F75 
 3949      72636500 
 3950              	.LASF90:
 3951 04c2 57574447 		.ascii	"WWDG_IRQn\000"
 3951      5F495251 
 3951      6E00
 3952              	.LASF11:
 3953 04cc 6C6F6E67 		.ascii	"long unsigned int\000"
 3953      20756E73 
 3953      69676E65 
 3953      6420696E 
 3953      7400
 3954              	.LASF83:
 3955 04de 4D656D6F 		.ascii	"MemoryManagement_IRQn\000"
 3955      72794D61 
 3955      6E616765 
 3955      6D656E74 
 3955      5F495251 
 3956              	.LASF92:
 3957 04f4 54414D50 		.ascii	"TAMP_STAMP_IRQn\000"
 3957      5F535441 
 3957      4D505F49 
 3957      52516E00 
 3958              	.LASF112:
 3959 0504 43414E31 		.ascii	"CAN1_SCE_IRQn\000"
 3959      5F534345 
 3959      5F495251 
 3959      6E00
ARM GAS  /tmp/ccAHuN30.s 			page 75


 3960              	.LASF59:
 3961 0512 656C5F6E 		.ascii	"el_next\000"
 3961      65787400 
 3962              	.LASF75:
 3963 051a 715F7772 		.ascii	"q_wrptr\000"
 3963      70747200 
 3964              	.LASF216:
 3965 0522 53657269 		.ascii	"SerialDriverVMT\000"
 3965      616C4472 
 3965      69766572 
 3965      564D5400 
 3966              	.LASF225:
 3967 0532 75736172 		.ascii	"usart_deinit\000"
 3967      745F6465 
 3967      696E6974 
 3967      00
 3968              	.LASF124:
 3969 053f 49324332 		.ascii	"I2C2_ER_IRQn\000"
 3969      5F45525F 
 3969      4952516E 
 3969      00
 3970              	.LASF84:
 3971 054c 42757346 		.ascii	"BusFault_IRQn\000"
 3971      61756C74 
 3971      5F495251 
 3971      6E00
 3972              	.LASF229:
 3973 055a 73645F6C 		.ascii	"sd_lld_init\000"
 3973      6C645F69 
 3973      6E697400 
 3974              	.LASF172:
 3975 0566 504C4C43 		.ascii	"PLLCFGR\000"
 3975      46475200 
 3976              	.LASF143:
 3977 056e 55415254 		.ascii	"UART5_IRQn\000"
 3977      355F4952 
 3977      516E00
 3978              	.LASF114:
 3979 0579 54494D31 		.ascii	"TIM1_BRK_TIM9_IRQn\000"
 3979      5F42524B 
 3979      5F54494D 
 3979      395F4952 
 3979      516E00
 3980              	.LASF10:
 3981 058c 5F5F7569 		.ascii	"__uint32_t\000"
 3981      6E743332 
 3981      5F7400
 3982              	.LASF54:
 3983 0597 4D757465 		.ascii	"Mutex\000"
 3983      7800
 3984              	.LASF234:
 3985 059d 7364496E 		.ascii	"sdIncomingDataI\000"
 3985      636F6D69 
 3985      6E674461 
 3985      74614900 
 3986              	.LASF145:
 3987 05ad 54494D37 		.ascii	"TIM7_IRQn\000"
ARM GAS  /tmp/ccAHuN30.s 			page 76


 3987      5F495251 
 3987      6E00
 3988              	.LASF12:
 3989 05b7 6C6F6E67 		.ascii	"long long int\000"
 3989      206C6F6E 
 3989      6720696E 
 3989      7400
 3990              	.LASF152:
 3991 05c5 4554485F 		.ascii	"ETH_WKUP_IRQn\000"
 3991      574B5550 
 3991      5F495251 
 3991      6E00
 3992              	.LASF126:
 3993 05d3 53504932 		.ascii	"SPI2_IRQn\000"
 3993      5F495251 
 3993      6E00
 3994              	.LASF167:
 3995 05dd 4F54475F 		.ascii	"OTG_HS_IRQn\000"
 3995      48535F49 
 3995      52516E00 
 3996              	.LASF55:
 3997 05e9 6D5F7175 		.ascii	"m_queue\000"
 3997      65756500 
 3998              	.LASF197:
 3999 05f1 53534347 		.ascii	"SSCGR\000"
 3999      5200
 4000              	.LASF125:
 4001 05f7 53504931 		.ascii	"SPI1_IRQn\000"
 4001      5F495251 
 4001      6E00
 4002              	.LASF86:
 4003 0601 53564361 		.ascii	"SVCall_IRQn\000"
 4003      6C6C5F49 
 4003      52516E00 
 4004              	.LASF179:
 4005 060d 41504232 		.ascii	"APB2RSTR\000"
 4005      52535452 
 4005      00
 4006              	.LASF171:
 4007 0616 4650555F 		.ascii	"FPU_IRQn\000"
 4007      4952516E 
 4007      00
 4008              	.LASF142:
 4009 061f 55415254 		.ascii	"UART4_IRQn\000"
 4009      345F4952 
 4009      516E00
 4010              	.LASF193:
 4011 062a 41504232 		.ascii	"APB2LPENR\000"
 4011      4C50454E 
 4011      5200
 4012              	.LASF79:
 4013 0634 716E6F74 		.ascii	"qnotify_t\000"
 4013      6966795F 
 4013      7400
 4014              	.LASF41:
 4015 063e 705F7761 		.ascii	"p_waiting\000"
 4015      6974696E 
ARM GAS  /tmp/ccAHuN30.s 			page 77


 4015      6700
 4016              	.LASF146:
 4017 0648 444D4132 		.ascii	"DMA2_Stream0_IRQn\000"
 4017      5F537472 
 4017      65616D30 
 4017      5F495251 
 4017      6E00
 4018              	.LASF209:
 4019 065a 6576656E 		.ascii	"event\000"
 4019      7400
 4020              	.LASF132:
 4021 0660 4F54475F 		.ascii	"OTG_FS_WKUP_IRQn\000"
 4021      46535F57 
 4021      4B55505F 
 4021      4952516E 
 4021      00
 4022              	.LASF37:
 4023 0671 705F666C 		.ascii	"p_flags\000"
 4023      61677300 
 4024              	.LASF218:
 4025 0679 72656164 		.ascii	"read\000"
 4025      00
 4026              	.LASF0:
 4027 067e 756E7369 		.ascii	"unsigned int\000"
 4027      676E6564 
 4027      20696E74 
 4027      00
 4028              	.LASF144:
 4029 068b 54494D36 		.ascii	"TIM6_DAC_IRQn\000"
 4029      5F444143 
 4029      5F495251 
 4029      6E00
 4030              	.LASF47:
 4031 0699 705F6D70 		.ascii	"p_mpool\000"
 4031      6F6F6C00 
 4032              	.LASF123:
 4033 06a1 49324332 		.ascii	"I2C2_EV_IRQn\000"
 4033      5F45565F 
 4033      4952516E 
 4033      00
 4034              	.LASF38:
 4035 06ae 705F7265 		.ascii	"p_refs\000"
 4035      667300
 4036              	.LASF243:
 4037 06b5 63684F51 		.ascii	"chOQGetI\000"
 4037      47657449 
 4037      00
 4038              	.LASF237:
 4039 06be 474E5520 		.ascii	"GNU C 4.8.2 -mcpu=cortex-m4 -mno-thumb-interwork -m"
 4039      4320342E 
 4039      382E3220 
 4039      2D6D6370 
 4039      753D636F 
 4040 06f1 7468756D 		.ascii	"thumb -ggdb -O2 -std=gnu99 -fomit-frame-pointer -fa"
 4040      62202D67 
 4040      67646220 
 4040      2D4F3220 
ARM GAS  /tmp/ccAHuN30.s 			page 78


 4040      2D737464 
 4041 0724 6C69676E 		.ascii	"lign-functions=16 -ffunction-sections -fdata-sectio"
 4041      2D66756E 
 4041      6374696F 
 4041      6E733D31 
 4041      36202D66 
 4042 0757 6E73202D 		.ascii	"ns -fno-common\000"
 4042      666E6F2D 
 4042      636F6D6D 
 4042      6F6E00
 4043              	.LASF244:
 4044 0766 5F706F72 		.ascii	"_port_irq_epilogue\000"
 4044      745F6972 
 4044      715F6570 
 4044      696C6F67 
 4044      756500
 4045              	.LASF49:
 4046 0779 54687265 		.ascii	"ThreadsList\000"
 4046      6164734C 
 4046      69737400 
 4047              	.LASF192:
 4048 0785 41504231 		.ascii	"APB1LPENR\000"
 4048      4C50454E 
 4048      5200
 4049              	.LASF102:
 4050 078f 444D4131 		.ascii	"DMA1_Stream1_IRQn\000"
 4050      5F537472 
 4050      65616D31 
 4050      5F495251 
 4050      6E00
 4051              	.LASF26:
 4052 07a1 666C6167 		.ascii	"flagsmask_t\000"
 4052      736D6173 
 4052      6B5F7400 
 4053              	.LASF149:
 4054 07ad 444D4132 		.ascii	"DMA2_Stream3_IRQn\000"
 4054      5F537472 
 4054      65616D33 
 4054      5F495251 
 4054      6E00
 4055              	.LASF153:
 4056 07bf 43414E32 		.ascii	"CAN2_TX_IRQn\000"
 4056      5F54585F 
 4056      4952516E 
 4056      00
 4057              	.LASF40:
 4058 07cc 705F7469 		.ascii	"p_time\000"
 4058      6D6500
 4059              	.LASF240:
 4060 07d3 4952516E 		.ascii	"IRQn\000"
 4060      00
 4061              	.LASF107:
 4062 07d8 444D4131 		.ascii	"DMA1_Stream6_IRQn\000"
 4062      5F537472 
 4062      65616D36 
 4062      5F495251 
 4062      6E00
ARM GAS  /tmp/ccAHuN30.s 			page 79


 4063              	.LASF233:
 4064 07ea 63684576 		.ascii	"chEvtBroadcastFlagsI\000"
 4064      7442726F 
 4064      61646361 
 4064      7374466C 
 4064      61677349 
 4065              	.LASF176:
 4066 07ff 41484233 		.ascii	"AHB3RSTR\000"
 4066      52535452 
 4066      00
 4067              	.LASF245:
 4068 0808 6E766963 		.ascii	"nvicDisableVector\000"
 4068      44697361 
 4068      626C6556 
 4068      6563746F 
 4068      7200
 4069              	.LASF46:
 4070 081a 705F7265 		.ascii	"p_realprio\000"
 4070      616C7072 
 4070      696F00
 4071              	.LASF160:
 4072 0825 444D4132 		.ascii	"DMA2_Stream7_IRQn\000"
 4072      5F537472 
 4072      65616D37 
 4072      5F495251 
 4072      6E00
 4073              	.LASF101:
 4074 0837 444D4131 		.ascii	"DMA1_Stream0_IRQn\000"
 4074      5F537472 
 4074      65616D30 
 4074      5F495251 
 4074      6E00
 4075              	.LASF178:
 4076 0849 41504231 		.ascii	"APB1RSTR\000"
 4076      52535452 
 4076      00
 4077              	.LASF224:
 4078 0852 75736172 		.ascii	"usart_init\000"
 4078      745F696E 
 4078      697400
 4079              	.LASF131:
 4080 085d 5254435F 		.ascii	"RTC_Alarm_IRQn\000"
 4080      416C6172 
 4080      6D5F4952 
 4080      516E00
 4081              	.LASF185:
 4082 086c 41504231 		.ascii	"APB1ENR\000"
 4082      454E5200 
 4083              	.LASF163:
 4084 0874 49324333 		.ascii	"I2C3_ER_IRQn\000"
 4084      5F45525F 
 4084      4952516E 
 4084      00
 4085              	.LASF169:
 4086 0881 43525950 		.ascii	"CRYP_IRQn\000"
 4086      5F495251 
 4086      6E00
ARM GAS  /tmp/ccAHuN30.s 			page 80


 4087              	.LASF130:
 4088 088b 45585449 		.ascii	"EXTI15_10_IRQn\000"
 4088      31355F31 
 4088      305F4952 
 4088      516E00
 4089              	.LASF13:
 4090 089a 6C6F6E67 		.ascii	"long long unsigned int\000"
 4090      206C6F6E 
 4090      6720756E 
 4090      7369676E 
 4090      65642069 
 4091              	.LASF34:
 4092 08b1 705F6F6C 		.ascii	"p_older\000"
 4092      64657200 
 4093              	.LASF15:
 4094 08b9 75696E74 		.ascii	"uint16_t\000"
 4094      31365F74 
 4094      00
 4095              	.LASF24:
 4096 08c2 6D73675F 		.ascii	"msg_t\000"
 4096      7400
 4097              	.LASF119:
 4098 08c8 54494D33 		.ascii	"TIM3_IRQn\000"
 4098      5F495251 
 4098      6E00
 4099              	.LASF127:
 4100 08d2 55534152 		.ascii	"USART1_IRQn\000"
 4100      54315F49 
 4100      52516E00 
 4101              	.LASF22:
 4102 08de 74736C69 		.ascii	"tslices_t\000"
 4102      6365735F 
 4102      7400
 4103              	.LASF98:
 4104 08e8 45585449 		.ascii	"EXTI2_IRQn\000"
 4104      325F4952 
 4104      516E00
 4105              	.LASF155:
 4106 08f3 43414E32 		.ascii	"CAN2_RX1_IRQn\000"
 4106      5F525831 
 4106      5F495251 
 4106      6E00
 4107              	.LASF108:
 4108 0901 4144435F 		.ascii	"ADC_IRQn\000"
 4108      4952516E 
 4108      00
 4109              	.LASF190:
 4110 090a 41484233 		.ascii	"AHB3LPENR\000"
 4110      4C50454E 
 4110      5200
 4111              	.LASF91:
 4112 0914 5056445F 		.ascii	"PVD_IRQn\000"
 4112      4952516E 
 4112      00
 4113              	.LASF208:
 4114 091d 53657269 		.ascii	"SerialDriver\000"
 4114      616C4472 
ARM GAS  /tmp/ccAHuN30.s 			page 81


 4114      69766572 
 4114      00
 4115              	.LASF71:
 4116 092a 715F7761 		.ascii	"q_waiting\000"
 4116      6974696E 
 4116      6700
 4117              	.LASF96:
 4118 0934 45585449 		.ascii	"EXTI0_IRQn\000"
 4118      305F4952 
 4118      516E00
 4119              	.LASF19:
 4120 093f 746D6F64 		.ascii	"tmode_t\000"
 4120      655F7400 
 4121              	.LASF105:
 4122 0947 444D4131 		.ascii	"DMA1_Stream4_IRQn\000"
 4122      5F537472 
 4122      65616D34 
 4122      5F495251 
 4122      6E00
 4123              	.LASF207:
 4124 0959 73647374 		.ascii	"sdstate_t\000"
 4124      6174655F 
 4124      7400
 4125              	.LASF159:
 4126 0963 444D4132 		.ascii	"DMA2_Stream6_IRQn\000"
 4126      5F537472 
 4126      65616D36 
 4126      5F495251 
 4126      6E00
 4127              	.LASF181:
 4128 0975 41484231 		.ascii	"AHB1ENR\000"
 4128      454E5200 
 4129              	.LASF87:
 4130 097d 44656275 		.ascii	"DebugMonitor_IRQn\000"
 4130      674D6F6E 
 4130      69746F72 
 4130      5F495251 
 4130      6E00
 4131              	.LASF206:
 4132 098f 53445F52 		.ascii	"SD_READY\000"
 4132      45414459 
 4132      00
 4133              	.LASF162:
 4134 0998 49324333 		.ascii	"I2C3_EV_IRQn\000"
 4134      5F45565F 
 4134      4952516E 
 4134      00
 4135              	.LASF239:
 4136 09a5 2F686F6D 		.ascii	"/home/caroline/Documents/PAF/ChibiOS_2.6.4/demos/AR"
 4136      652F6361 
 4136      726F6C69 
 4136      6E652F44 
 4136      6F63756D 
 4137 09d8 4D434D34 		.ascii	"MCM4-STM32F407-LWIP\000"
 4137      2D53544D 
 4137      33324634 
 4137      30372D4C 
ARM GAS  /tmp/ccAHuN30.s 			page 82


 4137      57495000 
 4138              	.LASF175:
 4139 09ec 41484232 		.ascii	"AHB2RSTR\000"
 4139      52535452 
 4139      00
 4140              	.LASF151:
 4141 09f5 4554485F 		.ascii	"ETH_IRQn\000"
 4141      4952516E 
 4141      00
 4142              	.LASF241:
 4143 09fe 6E6F7469 		.ascii	"notify6\000"
 4143      66793600 
 4144              	.LASF201:
 4145 0a06 5243435F 		.ascii	"RCC_TypeDef\000"
 4145      54797065 
 4145      44656600 
 4146              	.LASF228:
 4147 0a12 56656374 		.ascii	"Vector15C\000"
 4147      6F723135 
 4147      4300
 4148              	.LASF5:
 4149 0a1c 73686F72 		.ascii	"short int\000"
 4149      7420696E 
 4149      7400
 4150              	.LASF95:
 4151 0a26 5243435F 		.ascii	"RCC_IRQn\000"
 4151      4952516E 
 4151      00
 4152              	.LASF211:
 4153 0a2f 69717565 		.ascii	"iqueue\000"
 4153      756500
 4154              	.LASF104:
 4155 0a36 444D4131 		.ascii	"DMA1_Stream3_IRQn\000"
 4155      5F537472 
 4155      65616D33 
 4155      5F495251 
 4155      6E00
 4156              	.LASF28:
 4157 0a48 54687265 		.ascii	"Thread\000"
 4157      616400
 4158              	.LASF115:
 4159 0a4f 54494D31 		.ascii	"TIM1_UP_TIM10_IRQn\000"
 4159      5F55505F 
 4159      54494D31 
 4159      305F4952 
 4159      516E00
 4160              	.LASF232:
 4161 0a62 49544D5F 		.ascii	"ITM_RxBuffer\000"
 4161      52784275 
 4161      66666572 
 4161      00
 4162              	.LASF21:
 4163 0a6f 74726566 		.ascii	"trefs_t\000"
 4163      735F7400 
 4164              	.LASF164:
 4165 0a77 4F54475F 		.ascii	"OTG_HS_EP1_OUT_IRQn\000"
 4165      48535F45 
ARM GAS  /tmp/ccAHuN30.s 			page 83


 4165      50315F4F 
 4165      55545F49 
 4165      52516E00 
 4166              	.LASF93:
 4167 0a8b 5254435F 		.ascii	"RTC_WKUP_IRQn\000"
 4167      574B5550 
 4167      5F495251 
 4167      6E00
 4168              	.LASF58:
 4169 0a99 4576656E 		.ascii	"EventListener\000"
 4169      744C6973 
 4169      74656E65 
 4169      7200
 4170              	.LASF236:
 4171 0aa7 6E766963 		.ascii	"nvicEnableVector\000"
 4171      456E6162 
 4171      6C655665 
 4171      63746F72 
 4171      00
 4172              	.LASF17:
 4173 0ab8 75696E74 		.ascii	"uint32_t\000"
 4173      33325F74 
 4173      00
 4174              	.LASF111:
 4175 0ac1 43414E31 		.ascii	"CAN1_RX1_IRQn\000"
 4175      5F525831 
 4175      5F495251 
 4175      6E00
 4176              	.LASF48:
 4177 0acf 54687265 		.ascii	"ThreadsQueue\000"
 4177      61647351 
 4177      75657565 
 4177      00
 4178              	.LASF113:
 4179 0adc 45585449 		.ascii	"EXTI9_5_IRQn\000"
 4179      395F355F 
 4179      4952516E 
 4179      00
 4180              	.LASF199:
 4181 0ae9 504C4C53 		.ascii	"PLLSAICFGR\000"
 4181      41494346 
 4181      475200
 4182              	.LASF65:
 4183 0af4 7264796D 		.ascii	"rdymsg\000"
 4183      736700
 4184              	.LASF100:
 4185 0afb 45585449 		.ascii	"EXTI4_IRQn\000"
 4185      345F4952 
 4185      516E00
 4186              	.LASF7:
 4187 0b06 73686F72 		.ascii	"short unsigned int\000"
 4187      7420756E 
 4187      7369676E 
 4187      65642069 
 4187      6E7400
 4188              	.LASF231:
 4189 0b19 73645F6C 		.ascii	"sd_lld_stop\000"
ARM GAS  /tmp/ccAHuN30.s 			page 84


 4189      6C645F73 
 4189      746F7000 
 4190              	.LASF136:
 4191 0b25 54494D38 		.ascii	"TIM8_CC_IRQn\000"
 4191      5F43435F 
 4191      4952516E 
 4191      00
 4192              	.LASF139:
 4193 0b32 5344494F 		.ascii	"SDIO_IRQn\000"
 4193      5F495251 
 4193      6E00
 4194              	.LASF80:
 4195 0b3c 496E7075 		.ascii	"InputQueue\000"
 4195      74517565 
 4195      756500
 4196              	.LASF99:
 4197 0b47 45585449 		.ascii	"EXTI3_IRQn\000"
 4197      335F4952 
 4197      516E00
 4198              	.LASF88:
 4199 0b52 50656E64 		.ascii	"PendSV_IRQn\000"
 4199      53565F49 
 4199      52516E00 
 4200              	.LASF165:
 4201 0b5e 4F54475F 		.ascii	"OTG_HS_EP1_IN_IRQn\000"
 4201      48535F45 
 4201      50315F49 
 4201      4E5F4952 
 4201      516E00
 4202              	.LASF137:
 4203 0b71 444D4131 		.ascii	"DMA1_Stream7_IRQn\000"
 4203      5F537472 
 4203      65616D37 
 4203      5F495251 
 4203      6E00
 4204              	.LASF8:
 4205 0b83 5F5F696E 		.ascii	"__int32_t\000"
 4205      7433325F 
 4205      7400
 4206              	.LASF205:
 4207 0b8d 53445F53 		.ascii	"SD_STOP\000"
 4207      544F5000 
 4208              	.LASF61:
 4209 0b95 656C5F6D 		.ascii	"el_mask\000"
 4209      61736B00 
 4210              	.LASF35:
 4211 0b9d 705F6E61 		.ascii	"p_name\000"
 4211      6D6500
 4212              	.LASF57:
 4213 0ba4 6D5F6E65 		.ascii	"m_next\000"
 4213      787400
 4214              	.LASF183:
 4215 0bab 41484233 		.ascii	"AHB3ENR\000"
 4215      454E5200 
 4216              	.LASF148:
 4217 0bb3 444D4132 		.ascii	"DMA2_Stream2_IRQn\000"
 4217      5F537472 
ARM GAS  /tmp/ccAHuN30.s 			page 85


 4217      65616D32 
 4217      5F495251 
 4217      6E00
 4218              	.LASF43:
 4219 0bc5 705F6D73 		.ascii	"p_msg\000"
 4219      6700
 4220              	.LASF60:
 4221 0bcb 656C5F6C 		.ascii	"el_listener\000"
 4221      69737465 
 4221      6E657200 
 4222              	.LASF36:
 4223 0bd7 705F7374 		.ascii	"p_state\000"
 4223      61746500 
 4224              		.ident	"GCC: (4.8.2-14ubuntu1+6) 4.8.2"
ARM GAS  /tmp/ccAHuN30.s 			page 86


DEFINED SYMBOLS
                            *ABS*:0000000000000000 serial_lld.c
     /tmp/ccAHuN30.s:19     .text.notify6:0000000000000000 $t
     /tmp/ccAHuN30.s:24     .text.notify6:0000000000000000 notify6
     /tmp/ccAHuN30.s:45     .text.Vector15C:0000000000000000 $t
     /tmp/ccAHuN30.s:51     .text.Vector15C:0000000000000000 Vector15C
     /tmp/ccAHuN30.s:547    .bss.SD6:0000000000000000 .LANCHOR0
     /tmp/ccAHuN30.s:293    .text.Vector15C:00000000000000f8 $d
     /tmp/ccAHuN30.s:302    .text.sd_lld_init:0000000000000000 $t
     /tmp/ccAHuN30.s:308    .text.sd_lld_init:0000000000000000 sd_lld_init
     /tmp/ccAHuN30.s:336    .text.sd_lld_start:0000000000000000 $t
     /tmp/ccAHuN30.s:342    .text.sd_lld_start:0000000000000000 sd_lld_start
     /tmp/ccAHuN30.s:536    .rodata.default_config:0000000000000000 .LANCHOR1
     /tmp/ccAHuN30.s:468    .text.sd_lld_stop:0000000000000000 $t
     /tmp/ccAHuN30.s:474    .text.sd_lld_stop:0000000000000000 sd_lld_stop
     /tmp/ccAHuN30.s:550    .bss.SD6:0000000000000000 SD6
     /tmp/ccAHuN30.s:535    .rodata.default_config:0000000000000000 $d
     /tmp/ccAHuN30.s:539    .rodata.default_config:0000000000000000 default_config
     /tmp/ccAHuN30.s:546    .bss.SD6:0000000000000000 $d
                     .debug_frame:0000000000000010 $d

UNDEFINED SYMBOLS
sdIncomingDataI
chEvtBroadcastFlagsI
_port_irq_epilogue
chOQGetI
sdObjectInit
nvicEnableVector
nvicDisableVector
