ARM GAS  /tmp/ccZlncvZ.s 			page 1


   1              		.syntax unified
   2              		.cpu cortex-m4
   3              		.fpu softvfp
   4              		.eabi_attribute 20, 1
   5              		.eabi_attribute 21, 1
   6              		.eabi_attribute 23, 3
   7              		.eabi_attribute 24, 1
   8              		.eabi_attribute 25, 1
   9              		.eabi_attribute 26, 1
  10              		.eabi_attribute 30, 2
  11              		.eabi_attribute 34, 1
  12              		.eabi_attribute 18, 4
  13              		.thumb
  14              		.file	"sockets.c"
  15              		.text
  16              	.Ltext0:
  17              		.cfi_sections	.debug_frame
  18              		.section	.text.alloc_socket,"ax",%progbits
  19              		.align	2
  20              		.p2align 4,,15
  21              		.thumb
  22              		.thumb_func
  23              		.type	alloc_socket, %function
  24              	alloc_socket:
  25              	.LFB10:
  26              		.file 1 "../../ext/lwip/src/api/sockets.c"
  27              		.loc 1 244 0
  28              		.cfi_startproc
  29              		@ args = 0, pretend = 0, frame = 0
  30              		@ frame_needed = 0, uses_anonymous_args = 0
  31              		@ link register save eliminated.
  32              	.LVL0:
  33 0000 2DE9F001 		push	{r4, r5, r6, r7, r8}
  34              		.cfi_def_cfa_offset 20
  35              		.cfi_offset 4, -20
  36              		.cfi_offset 5, -16
  37              		.cfi_offset 6, -12
  38              		.cfi_offset 7, -8
  39              		.cfi_offset 8, -4
  40              		.loc 1 244 0
  41 0004 0023     		movs	r3, #0
  42 0006 40F20006 		movw	r6, #:lower16:.LANCHOR0
  43              		.loc 1 249 0
  44 000a 1A46     		mov	r2, r3
  45 000c C0F20006 		movt	r6, #:upper16:.LANCHOR0
  46              	.LVL1:
  47              	.L5:
  48              		.loc 1 252 0
  49 0010 F558     		ldr	r5, [r6, r3]
  50 0012 40F20004 		movw	r4, #:lower16:.LANCHOR0
  51 0016 1833     		adds	r3, r3, #24
  52 0018 C0F20004 		movt	r4, #:upper16:.LANCHOR0
  53 001c 3DB1     		cbz	r5, .L10
  54              		.loc 1 249 0
  55 001e 0132     		adds	r2, r2, #1
  56              	.LVL2:
  57 0020 042A     		cmp	r2, #4
ARM GAS  /tmp/ccZlncvZ.s 			page 2


  58 0022 F5D1     		bne	.L5
  59              		.loc 1 270 0
  60 0024 4FF0FF30 		mov	r0, #-1
  61              	.LVL3:
  62              		.loc 1 271 0
  63 0028 BDE8F001 		pop	{r4, r5, r6, r7, r8}
  64 002c 7047     		bx	lr
  65              	.LVL4:
  66              	.L10:
  67              		.loc 1 253 0
  68 002e 5700     		lsls	r7, r2, #1
  69 0030 07EB020C 		add	ip, r7, r2
  70              		.loc 1 262 0
  71 0034 90F80080 		ldrb	r8, [r0]	@ zero_extendqisi2
  72              		.loc 1 253 0
  73 0038 4FEACC0C 		lsl	ip, ip, #3
  74 003c 04EB0C03 		add	r3, r4, ip
  75              		.loc 1 262 0
  76 0040 B8F1100F 		cmp	r8, #16
  77              		.loc 1 253 0
  78 0044 44F80C00 		str	r0, [r4, ip]
  79 0048 18BF     		it	ne
  80 004a 0121     		movne	r1, #1
  81              	.LVL5:
  82              		.loc 1 257 0
  83 004c 5D60     		str	r5, [r3, #4]
  84              		.loc 1 258 0
  85 004e 1D81     		strh	r5, [r3, #8]	@ movhi
  86              		.loc 1 259 0
  87 0050 5D81     		strh	r5, [r3, #10]	@ movhi
  88              		.loc 1 262 0
  89 0052 02D1     		bne	.L3
  90 0054 0031     		adds	r1, r1, #0
  91 0056 18BF     		it	ne
  92 0058 0121     		movne	r1, #1
  93              	.L3:
  94              		.loc 1 262 0 is_stmt 0 discriminator 4
  95 005a 1744     		add	r7, r7, r2
  96 005c 06EBC706 		add	r6, r6, r7, lsl #3
  97              		.loc 1 263 0 is_stmt 1 discriminator 4
  98 0060 0023     		movs	r3, #0
  99              		.loc 1 266 0 discriminator 4
 100 0062 1046     		mov	r0, r2
 101              	.LVL6:
 102              		.loc 1 262 0 discriminator 4
 103 0064 B181     		strh	r1, [r6, #12]	@ movhi
 104              		.loc 1 263 0 discriminator 4
 105 0066 F381     		strh	r3, [r6, #14]	@ movhi
 106              		.loc 1 264 0 discriminator 4
 107 0068 3361     		str	r3, [r6, #16]
 108              		.loc 1 265 0 discriminator 4
 109 006a 7361     		str	r3, [r6, #20]
 110              		.loc 1 271 0 discriminator 4
 111 006c BDE8F001 		pop	{r4, r5, r6, r7, r8}
 112              	.LVL7:
 113 0070 7047     		bx	lr
 114              		.cfi_endproc
ARM GAS  /tmp/ccZlncvZ.s 			page 3


 115              	.LFE10:
 116              		.size	alloc_socket, .-alloc_socket
 117 0072 00BFAFF3 		.section	.text.lwip_selscan,"ax",%progbits
 117      0080AFF3 
 117      0080AFF3 
 117      0080
 118              		.align	2
 119              		.p2align 4,,15
 120              		.thumb
 121              		.thumb_func
 122              		.type	lwip_selscan, %function
 123              	lwip_selscan:
 124              	.LFB24:
 125              		.loc 1 1028 0
 126              		.cfi_startproc
 127              		@ args = 12, pretend = 0, frame = 24
 128              		@ frame_needed = 0, uses_anonymous_args = 0
 129              		@ link register save eliminated.
 130              	.LVL8:
 131 0000 2DE9F00F 		push	{r4, r5, r6, r7, r8, r9, r10, fp}
 132              		.cfi_def_cfa_offset 32
 133              		.cfi_offset 4, -32
 134              		.cfi_offset 5, -28
 135              		.cfi_offset 6, -24
 136              		.cfi_offset 7, -20
 137              		.cfi_offset 8, -16
 138              		.cfi_offset 9, -12
 139              		.cfi_offset 10, -8
 140              		.cfi_offset 11, -4
 141 0004 86B0     		sub	sp, sp, #24
 142              		.cfi_def_cfa_offset 56
 143              		.loc 1 1034 0
 144 0006 0024     		movs	r4, #0
 145              		.loc 1 1040 0
 146 0008 0028     		cmp	r0, #0
 147 000a 0190     		str	r0, [sp, #4]
 148              		.loc 1 1034 0
 149 000c 8DF80C40 		strb	r4, [sp, #12]
 150              		.loc 1 1035 0
 151 0010 8DF81040 		strb	r4, [sp, #16]
 152              		.loc 1 1036 0
 153 0014 8DF81440 		strb	r4, [sp, #20]
 154              	.LVL9:
 155              		.loc 1 1029 0
 156 0018 2046     		mov	r0, r4
 157              	.LVL10:
 158              		.loc 1 1040 0
 159 001a 66DD     		ble	.L12
 160 001c 40F20006 		movw	r6, #:lower16:.LANCHOR0
 161 0020 C0F20006 		movt	r6, #:upper16:.LANCHOR0
 162              	.LBB45:
 163              		.loc 1 1058 0
 164 0024 A346     		mov	fp, r4
 165              	.LVL11:
 166              	.L17:
 167              	.LBB46:
 168              	.LBB47:
ARM GAS  /tmp/ccZlncvZ.s 			page 4


 169              		.loc 1 225 0
 170 0026 032C     		cmp	r4, #3
 171              	.LBE47:
 172              	.LBE46:
 173              		.loc 1 1044 0
 174 0028 81BF     		itttt	hi
 175 002a 0025     		movhi	r5, #0
 176              		.loc 1 1043 0
 177 002c 2846     		movhi	r0, r5
 178              		.loc 1 1042 0
 179 002e AA46     		movhi	r10, r5
 180              		.loc 1 1041 0
 181 0030 A946     		movhi	r9, r5
 182              	.LBB50:
 183              	.LBB48:
 184              		.loc 1 225 0
 185 0032 6AD9     		bls	.L49
 186              	.LVL12:
 187              	.L13:
 188              	.LBE48:
 189              	.LBE50:
 190              		.loc 1 1057 0
 191 0034 09B3     		cbz	r1, .L14
 192              		.loc 1 1057 0 is_stmt 0 discriminator 1
 193 0036 4FEAE40C 		asr	ip, r4, #3
 194 003a 04F00707 		and	r7, r4, #7
 195 003e 11F80C80 		ldrb	r8, [r1, ip]	@ zero_extendqisi2
 196 0042 48FA07F8 		asr	r8, r8, r7
 197 0046 18F0010F 		tst	r8, #1
 198 004a 16D0     		beq	.L14
 199 004c 0FFA8AFA 		sxth	r10, r10
 200              	.LVL13:
 201 0050 BAF1000F 		cmp	r10, #0
 202 0054 D8BF     		it	le
 203 0056 B9F1000F 		cmple	r9, #0
 204 005a 0ED0     		beq	.L14
 205              		.loc 1 1058 0 is_stmt 1
 206 005c 0DF11808 		add	r8, sp, #24
 207 0060 C444     		add	ip, ip, r8
 208 0062 4FF00108 		mov	r8, #1
 209 0066 08FA07F7 		lsl	r7, r8, r7
 210 006a 1CF80C8C 		ldrb	r8, [ip, #-12]	@ zero_extendqisi2
 211 006e 47EA0807 		orr	r7, r7, r8
 212              		.loc 1 1060 0
 213 0072 0BF1010B 		add	fp, fp, #1
 214              	.LVL14:
 215              		.loc 1 1058 0
 216 0076 0CF80C7C 		strb	r7, [ip, #-12]
 217              	.L14:
 218              		.loc 1 1063 0
 219 007a BAB1     		cbz	r2, .L15
 220              		.loc 1 1063 0 is_stmt 0 discriminator 1
 221 007c 4FEAE40C 		asr	ip, r4, #3
 222 0080 04F00707 		and	r7, r4, #7
 223 0084 12F80C80 		ldrb	r8, [r2, ip]	@ zero_extendqisi2
 224 0088 48FA07F8 		asr	r8, r8, r7
 225 008c 18F0010F 		tst	r8, #1
ARM GAS  /tmp/ccZlncvZ.s 			page 5


 226 0090 0CD0     		beq	.L15
 227 0092 58B1     		cbz	r0, .L15
 228              		.loc 1 1064 0 is_stmt 1
 229 0094 06A8     		add	r0, sp, #24
 230              	.LVL15:
 231 0096 8444     		add	ip, ip, r0
 232 0098 4FF00108 		mov	r8, #1
 233 009c 1CF8080C 		ldrb	r0, [ip, #-8]	@ zero_extendqisi2
 234 00a0 08FA07F7 		lsl	r7, r8, r7
 235 00a4 0743     		orrs	r7, r7, r0
 236              		.loc 1 1066 0
 237 00a6 C344     		add	fp, fp, r8
 238              	.LVL16:
 239              		.loc 1 1064 0
 240 00a8 0CF8087C 		strb	r7, [ip, #-8]
 241              	.L15:
 242              		.loc 1 1069 0
 243 00ac B3B1     		cbz	r3, .L16
 244              		.loc 1 1069 0 is_stmt 0 discriminator 1
 245 00ae E710     		asrs	r7, r4, #3
 246 00b0 04F00700 		and	r0, r4, #7
 247 00b4 13F807C0 		ldrb	ip, [r3, r7]	@ zero_extendqisi2
 248 00b8 4CFA00FC 		asr	ip, ip, r0
 249 00bc 1CF0010F 		tst	ip, #1
 250 00c0 0CD0     		beq	.L16
 251 00c2 5DB1     		cbz	r5, .L16
 252              		.loc 1 1070 0 is_stmt 1
 253 00c4 06AD     		add	r5, sp, #24
 254              	.LVL17:
 255 00c6 2F44     		add	r7, r7, r5
 256 00c8 4FF00108 		mov	r8, #1
 257 00cc 17F8045C 		ldrb	r5, [r7, #-4]	@ zero_extendqisi2
 258 00d0 08FA00F0 		lsl	r0, r8, r0
 259 00d4 2843     		orrs	r0, r0, r5
 260              		.loc 1 1072 0
 261 00d6 C344     		add	fp, fp, r8
 262              	.LVL18:
 263              		.loc 1 1070 0
 264 00d8 07F8040C 		strb	r0, [r7, #-4]
 265              	.L16:
 266              	.LBE45:
 267              		.loc 1 1040 0
 268 00dc 0198     		ldr	r0, [sp, #4]
 269 00de 0134     		adds	r4, r4, #1
 270              	.LVL19:
 271 00e0 8442     		cmp	r4, r0
 272 00e2 06F11806 		add	r6, r6, #24
 273 00e6 9ED1     		bne	.L17
 274 00e8 5846     		mov	r0, fp
 275              	.LVL20:
 276              	.L12:
 277              		.loc 1 1076 0
 278 00ea 9DF80C10 		ldrb	r1, [sp, #12]	@ zero_extendqisi2
 279              	.LVL21:
 280 00ee 0E9C     		ldr	r4, [sp, #56]
 281              		.loc 1 1077 0
 282 00f0 9DF81020 		ldrb	r2, [sp, #16]	@ zero_extendqisi2
ARM GAS  /tmp/ccZlncvZ.s 			page 6


 283              	.LVL22:
 284              		.loc 1 1076 0
 285 00f4 2170     		strb	r1, [r4]
 286              		.loc 1 1078 0
 287 00f6 9DF81430 		ldrb	r3, [sp, #20]	@ zero_extendqisi2
 288              	.LVL23:
 289              		.loc 1 1077 0
 290 00fa 0F9D     		ldr	r5, [sp, #60]
 291              		.loc 1 1078 0
 292 00fc 1099     		ldr	r1, [sp, #64]
 293              		.loc 1 1077 0
 294 00fe 2A70     		strb	r2, [r5]
 295              		.loc 1 1078 0
 296 0100 0B70     		strb	r3, [r1]
 297              		.loc 1 1082 0
 298 0102 06B0     		add	sp, sp, #24
 299              		@ sp needed
 300 0104 BDE8F00F 		pop	{r4, r5, r6, r7, r8, r9, r10, fp}
 301              	.LVL24:
 302 0108 7047     		bx	lr
 303              	.LVL25:
 304              	.L49:
 305              	.LBB52:
 306              	.LBB51:
 307              	.LBB49:
 308              		.loc 1 228 0
 309 010a 3568     		ldr	r5, [r6]
 310 010c 35B1     		cbz	r5, .L20
 311              	.LBE49:
 312              	.LBE51:
 313              		.loc 1 1049 0
 314 010e D6F80490 		ldr	r9, [r6, #4]
 315              	.LVL26:
 316              		.loc 1 1050 0
 317 0112 B6F80AA0 		ldrh	r10, [r6, #10]
 318              	.LVL27:
 319              		.loc 1 1051 0
 320 0116 B089     		ldrh	r0, [r6, #12]
 321              	.LVL28:
 322              		.loc 1 1052 0
 323 0118 F589     		ldrh	r5, [r6, #14]
 324              	.LVL29:
 325 011a 8BE7     		b	.L13
 326              	.LVL30:
 327              	.L20:
 328              		.loc 1 1043 0
 329 011c 2846     		mov	r0, r5
 330              		.loc 1 1042 0
 331 011e AA46     		mov	r10, r5
 332              		.loc 1 1041 0
 333 0120 A946     		mov	r9, r5
 334 0122 87E7     		b	.L13
 335              	.LBE52:
 336              		.cfi_endproc
 337              	.LFE24:
 338              		.size	lwip_selscan, .-lwip_selscan
 339 0124 AFF30080 		.section	.text.lwip_getaddrname,"ax",%progbits
ARM GAS  /tmp/ccZlncvZ.s 			page 7


 339      AFF30080 
 339      AFF30080 
 340              		.align	2
 341              		.p2align 4,,15
 342              		.thumb
 343              		.thumb_func
 344              		.type	lwip_getaddrname, %function
 345              	lwip_getaddrname:
 346              	.LFB28:
 347              		.loc 1 1412 0
 348              		.cfi_startproc
 349              		@ args = 0, pretend = 0, frame = 24
 350              		@ frame_needed = 0, uses_anonymous_args = 0
 351              	.LVL31:
 352 0000 2DE9F041 		push	{r4, r5, r6, r7, r8, lr}
 353              		.cfi_def_cfa_offset 24
 354              		.cfi_offset 4, -24
 355              		.cfi_offset 5, -20
 356              		.cfi_offset 6, -16
 357              		.cfi_offset 7, -12
 358              		.cfi_offset 8, -8
 359              		.cfi_offset 14, -4
 360              	.LBB53:
 361              	.LBB54:
 362              		.loc 1 199 0
 363 0004 0328     		cmp	r0, #3
 364              	.LBE54:
 365              	.LBE53:
 366              		.loc 1 1412 0
 367 0006 86B0     		sub	sp, sp, #24
 368              		.cfi_def_cfa_offset 48
 369              		.loc 1 1412 0
 370 0008 0D46     		mov	r5, r1
 371 000a 1646     		mov	r6, r2
 372              	.LBB56:
 373              	.LBB55:
 374              		.loc 1 199 0
 375 000c 32D8     		bhi	.L56
 376              		.loc 1 205 0
 377 000e 00EB4000 		add	r0, r0, r0, lsl #1
 378              	.LVL32:
 379 0012 40F20004 		movw	r4, #:lower16:.LANCHOR0
 380 0016 C000     		lsls	r0, r0, #3
 381 0018 C0F20004 		movt	r4, #:upper16:.LANCHOR0
 382 001c 04EB0008 		add	r8, r4, r0
 383              	.LVL33:
 384              		.loc 1 207 0
 385 0020 2058     		ldr	r0, [r4, r0]
 386 0022 38B3     		cbz	r0, .L56
 387              	.LBE55:
 388              	.LBE56:
 389              		.loc 1 1422 0
 390 0024 0024     		movs	r4, #0
 391              		.loc 1 1423 0
 392 0026 1027     		movs	r7, #16
 393              		.loc 1 1424 0
 394 0028 4FF0020E 		mov	lr, #2
ARM GAS  /tmp/ccZlncvZ.s 			page 8


 395              		.loc 1 1427 0
 396 002c 01A9     		add	r1, sp, #4
 397              	.LVL34:
 398 002e 0DF10A02 		add	r2, sp, #10
 399              	.LVL35:
 400              		.loc 1 1422 0
 401 0032 0294     		str	r4, [sp, #8]
 402 0034 0394     		str	r4, [sp, #12]
 403              		.loc 1 1424 0
 404 0036 8DF809E0 		strb	lr, [sp, #9]
 405              		.loc 1 1422 0
 406 003a 0494     		str	r4, [sp, #16]
 407 003c 0594     		str	r4, [sp, #20]
 408              		.loc 1 1423 0
 409 003e 8DF80870 		strb	r7, [sp, #8]
 410              		.loc 1 1427 0
 411 0042 FFF7FEFF 		bl	netconn_getaddr
 412              	.LVL36:
 413              		.loc 1 1433 0
 414 0046 BDF80A00 		ldrh	r0, [sp, #10]
 415 004a FFF7FEFF 		bl	lwip_htons
 416              	.LVL37:
 417              		.loc 1 1436 0
 418 004e 3268     		ldr	r2, [r6]
 419              		.loc 1 1434 0
 420 0050 019B     		ldr	r3, [sp, #4]
 421              		.loc 1 1433 0
 422 0052 ADF80A00 		strh	r0, [sp, #10]	@ movhi
 423              		.loc 1 1436 0
 424 0056 BA42     		cmp	r2, r7
 425              		.loc 1 1437 0
 426 0058 84BF     		itt	hi
 427 005a 3760     		strhi	r7, [r6]
 428 005c 3A46     		movhi	r2, r7
 429              		.loc 1 1440 0
 430 005e 2846     		mov	r0, r5
 431 0060 02A9     		add	r1, sp, #8
 432              		.loc 1 1434 0
 433 0062 0393     		str	r3, [sp, #12]
 434              		.loc 1 1440 0
 435 0064 FFF7FEFF 		bl	memcpy
 436              	.LVL38:
 437              		.loc 1 1441 0
 438 0068 0020     		movs	r0, #0
 439 006a C8F81000 		str	r0, [r8, #16]
 440              		.loc 1 1443 0
 441 006e 06B0     		add	sp, sp, #24
 442              		@ sp needed
 443 0070 BDE8F081 		pop	{r4, r5, r6, r7, r8, pc}
 444              	.LVL39:
 445              	.L56:
 446              		.loc 1 1419 0
 447 0074 4FF0FF30 		mov	r0, #-1
 448              		.loc 1 1443 0
 449 0078 06B0     		add	sp, sp, #24
 450              		@ sp needed
 451 007a BDE8F081 		pop	{r4, r5, r6, r7, r8, pc}
ARM GAS  /tmp/ccZlncvZ.s 			page 9


 452              		.cfi_endproc
 453              	.LFE28:
 454              		.size	lwip_getaddrname, .-lwip_getaddrname
 455 007e 00BF     		.section	.text.event_callback,"ax",%progbits
 456              		.align	2
 457              		.p2align 4,,15
 458              		.thumb
 459              		.thumb_func
 460              		.type	event_callback, %function
 461              	event_callback:
 462              	.LFB26:
 463              		.loc 1 1248 0
 464              		.cfi_startproc
 465              		@ args = 0, pretend = 0, frame = 0
 466              		@ frame_needed = 0, uses_anonymous_args = 0
 467              	.LVL40:
 468 0000 2DE9F843 		push	{r3, r4, r5, r6, r7, r8, r9, lr}
 469              		.cfi_def_cfa_offset 32
 470              		.cfi_offset 3, -32
 471              		.cfi_offset 4, -28
 472              		.cfi_offset 5, -24
 473              		.cfi_offset 6, -20
 474              		.cfi_offset 7, -16
 475              		.cfi_offset 8, -12
 476              		.cfi_offset 9, -8
 477              		.cfi_offset 14, -4
 478              		.loc 1 1258 0
 479 0004 C8B1     		cbz	r0, .L59
 480              		.loc 1 1259 0
 481 0006 8469     		ldr	r4, [r0, #24]
 482              	.LVL41:
 483              		.loc 1 1260 0
 484 0008 002C     		cmp	r4, #0
 485 000a 14DB     		blt	.L109
 486              	.LVL42:
 487              	.LBB57:
 488              	.LBB58:
 489              		.loc 1 199 0
 490 000c 032C     		cmp	r4, #3
 491 000e 14D8     		bhi	.L59
 492              		.loc 1 205 0
 493 0010 40F20003 		movw	r3, #:lower16:.LANCHOR0
 494 0014 04EB4402 		add	r2, r4, r4, lsl #1
 495              	.LVL43:
 496 0018 C0F20003 		movt	r3, #:upper16:.LANCHOR0
 497 001c D200     		lsls	r2, r2, #3
 498 001e 03EB0208 		add	r8, r3, r2
 499              	.LVL44:
 500              		.loc 1 207 0
 501 0022 9B58     		ldr	r3, [r3, r2]
 502 0024 002B     		cmp	r3, #0
 503 0026 63D0     		beq	.L110
 504              	.LBE58:
 505              	.LBE57:
 506              		.loc 1 1288 0
 507 0028 0429     		cmp	r1, #4
 508 002a 5ED8     		bhi	.L71
ARM GAS  /tmp/ccZlncvZ.s 			page 10


 509 002c DFE801F0 		tbb	[pc, r1]
 510              	.L79:
 511 0030 43       		.byte	(.L65-.L79)/2
 512 0031 4D       		.byte	(.L67-.L79)/2
 513 0032 49       		.byte	(.L68-.L79)/2
 514 0033 53       		.byte	(.L69-.L79)/2
 515 0034 07       		.byte	(.L70-.L79)/2
 516 0035 00       		.align	1
 517              	.LVL45:
 518              	.L109:
 519              		.loc 1 1268 0
 520 0036 0029     		cmp	r1, #0
 521 0038 5CD0     		beq	.L111
 522              	.LVL46:
 523              	.L59:
 524 003a BDE8F883 		pop	{r3, r4, r5, r6, r7, r8, r9, pc}
 525              	.LVL47:
 526              	.L70:
 527              		.loc 1 1302 0
 528 003e 0123     		movs	r3, #1
 529 0040 A8F80E30 		strh	r3, [r8, #14]	@ movhi
 530              	.LVL48:
 531              	.L66:
 532              		.loc 1 1309 0
 533 0044 D8F81430 		ldr	r3, [r8, #20]
 534 0048 002B     		cmp	r3, #0
 535 004a F6D0     		beq	.L59
 536 004c 0127     		movs	r7, #1
 537 004e 40F20006 		movw	r6, #:lower16:.LANCHOR1
 538 0052 40F20005 		movw	r5, #:lower16:.LANCHOR2
 539 0056 07FA04F9 		lsl	r9, r7, r4
 540 005a C0F20006 		movt	r6, #:upper16:.LANCHOR1
 541 005e C0F20005 		movt	r5, #:upper16:.LANCHOR2
 542              	.LVL49:
 543              	.L77:
 544              		.loc 1 1322 0
 545 0062 3468     		ldr	r4, [r6]
 546              	.LVL50:
 547 0064 002C     		cmp	r4, #0
 548 0066 E8D0     		beq	.L59
 549              	.L78:
 550              		.loc 1 1323 0
 551 0068 6369     		ldr	r3, [r4, #20]
 552 006a DBB9     		cbnz	r3, .L72
 553              	.LVL51:
 554              	.LBB59:
 555              		.loc 1 1327 0
 556 006c B8F90A30 		ldrsh	r3, [r8, #10]
 557 0070 002B     		cmp	r3, #0
 558 0072 05DD     		ble	.L73
 559              		.loc 1 1328 0
 560 0074 A368     		ldr	r3, [r4, #8]
 561 0076 1BB1     		cbz	r3, .L73
 562              		.loc 1 1328 0 is_stmt 0 discriminator 1
 563 0078 1B78     		ldrb	r3, [r3]	@ zero_extendqisi2
 564 007a 13EA090F 		tst	r3, r9
 565 007e 2ED1     		bne	.L74
ARM GAS  /tmp/ccZlncvZ.s 			page 11


 566              	.L73:
 567              		.loc 1 1332 0 is_stmt 1
 568 0080 B8F80C30 		ldrh	r3, [r8, #12]
 569 0084 2BB1     		cbz	r3, .L108
 570              		.loc 1 1333 0 discriminator 1
 571 0086 E368     		ldr	r3, [r4, #12]
 572 0088 1BB1     		cbz	r3, .L108
 573 008a 1B78     		ldrb	r3, [r3]	@ zero_extendqisi2
 574 008c 19EA030F 		tst	r9, r3
 575 0090 25D1     		bne	.L74
 576              	.L108:
 577              		.loc 1 1337 0
 578 0092 B8F80E30 		ldrh	r3, [r8, #14]
 579 0096 2BB1     		cbz	r3, .L72
 580              		.loc 1 1338 0 discriminator 1
 581 0098 2369     		ldr	r3, [r4, #16]
 582 009a 1BB1     		cbz	r3, .L72
 583 009c 1B78     		ldrb	r3, [r3]	@ zero_extendqisi2
 584 009e 19EA030F 		tst	r9, r3
 585 00a2 1CD1     		bne	.L74
 586              	.LVL52:
 587              	.L72:
 588              	.LBE59:
 589              		.loc 1 1353 0
 590 00a4 2A68     		ldr	r2, [r5]
 591              	.LVL53:
 592              		.loc 1 1357 0
 593 00a6 2B68     		ldr	r3, [r5]
 594 00a8 9A42     		cmp	r2, r3
 595 00aa DAD1     		bne	.L77
 596              		.loc 1 1322 0
 597 00ac 2468     		ldr	r4, [r4]
 598              	.LVL54:
 599 00ae 002C     		cmp	r4, #0
 600 00b0 DAD1     		bne	.L78
 601 00b2 BDE8F883 		pop	{r3, r4, r5, r6, r7, r8, r9, pc}
 602              	.LVL55:
 603              	.L65:
 604              		.loc 1 1290 0
 605 00b6 B8F80A30 		ldrh	r3, [r8, #10]
 606 00ba 0133     		adds	r3, r3, #1
 607 00bc A8F80A30 		strh	r3, [r8, #10]	@ movhi
 608              		.loc 1 1291 0
 609 00c0 C0E7     		b	.L66
 610              	.L68:
 611              		.loc 1 1296 0
 612 00c2 0123     		movs	r3, #1
 613 00c4 A8F80C30 		strh	r3, [r8, #12]	@ movhi
 614              		.loc 1 1297 0
 615 00c8 BCE7     		b	.L66
 616              	.L67:
 617              		.loc 1 1293 0
 618 00ca B8F80A30 		ldrh	r3, [r8, #10]
 619 00ce 013B     		subs	r3, r3, #1
 620 00d0 A8F80A30 		strh	r3, [r8, #10]	@ movhi
 621              		.loc 1 1294 0
 622 00d4 B6E7     		b	.L66
ARM GAS  /tmp/ccZlncvZ.s 			page 12


 623              	.L69:
 624              		.loc 1 1299 0
 625 00d6 0023     		movs	r3, #0
 626 00d8 A8F80C30 		strh	r3, [r8, #12]	@ movhi
 627              		.loc 1 1300 0
 628 00dc B2E7     		b	.L66
 629              	.LVL56:
 630              	.L74:
 631              	.LBB60:
 632              		.loc 1 1343 0
 633 00de 6761     		str	r7, [r4, #20]
 634              		.loc 1 1349 0
 635 00e0 04F11800 		add	r0, r4, #24
 636 00e4 FFF7FEFF 		bl	sys_sem_signal_S
 637              	.LVL57:
 638 00e8 DCE7     		b	.L72
 639              	.LVL58:
 640              	.L71:
 641              	.LBE60:
 642              		.loc 1 1305 0 discriminator 1
 643 00ea FFF7FEFF 		bl	port_halt
 644              	.LVL59:
 645              		.loc 1 1306 0 discriminator 1
 646 00ee A9E7     		b	.L66
 647              	.LVL60:
 648              	.L110:
 649 00f0 BDE8F883 		pop	{r3, r4, r5, r6, r7, r8, r9, pc}
 650              	.LVL61:
 651              	.L111:
 652              		.loc 1 1269 0
 653 00f4 013C     		subs	r4, r4, #1
 654              	.LVL62:
 655 00f6 8461     		str	r4, [r0, #24]
 656              	.LVL63:
 657 00f8 BDE8F883 		pop	{r3, r4, r5, r6, r7, r8, r9, pc}
 658              		.cfi_endproc
 659              	.LFE26:
 660              		.size	event_callback, .-event_callback
 661 00fc AFF30080 		.section	.text.lwip_getsockopt_internal,"ax",%progbits
 662              		.align	2
 663              		.p2align 4,,15
 664              		.thumb
 665              		.thumb_func
 666              		.type	lwip_getsockopt_internal, %function
 667              	lwip_getsockopt_internal:
 668              	.LFB32:
 669              		.loc 1 1659 0
 670              		.cfi_startproc
 671              		@ args = 0, pretend = 0, frame = 8
 672              		@ frame_needed = 0, uses_anonymous_args = 0
 673              	.LVL64:
 674 0000 10B5     		push	{r4, lr}
 675              		.cfi_def_cfa_offset 8
 676              		.cfi_offset 4, -8
 677              		.cfi_offset 14, -4
 678 0002 82B0     		sub	sp, sp, #8
 679              		.cfi_def_cfa_offset 16
ARM GAS  /tmp/ccZlncvZ.s 			page 13


 680              		.loc 1 1668 0
 681 0004 0028     		cmp	r0, #0
 682 0006 61D0     		beq	.L152
 683              	.LVL65:
 684              	.L113:
 685              		.loc 1 1679 0
 686 0008 4368     		ldr	r3, [r0, #4]
 687              		.loc 1 1671 0
 688 000a 0468     		ldr	r4, [r0]
 689              	.LVL66:
 690              		.loc 1 1676 0
 691 000c 8268     		ldr	r2, [r0, #8]
 692              	.LVL67:
 693              		.loc 1 1677 0
 694 000e C168     		ldr	r1, [r0, #12]
 695              	.LVL68:
 696              		.loc 1 1679 0
 697 0010 062B     		cmp	r3, #6
 698 0012 3BD0     		beq	.L115
 699 0014 40F6FF70 		movw	r0, #4095
 700              	.LVL69:
 701 0018 8342     		cmp	r3, r0
 702 001a 12D0     		beq	.L116
 703 001c 43B1     		cbz	r3, .L153
 704              	.LVL70:
 705              	.L148:
 706              		.loc 1 1859 0 discriminator 1
 707 001e FFF7FEFF 		bl	port_halt
 708              	.LVL71:
 709 0022 2068     		ldr	r0, [r4]
 710              	.L124:
 711              		.loc 1 1862 0
 712 0024 0C30     		adds	r0, r0, #12
 713              		.loc 1 1863 0
 714 0026 02B0     		add	sp, sp, #8
 715              		@ sp needed
 716 0028 BDE81040 		pop	{r4, lr}
 717              	.LVL72:
 718              		.loc 1 1862 0
 719 002c FFF7FEBF 		b	sys_sem_signal
 720              	.LVL73:
 721              	.L153:
 722              		.loc 1 1762 0
 723 0030 012A     		cmp	r2, #1
 724 0032 3CD0     		beq	.L133
 725 0034 022A     		cmp	r2, #2
 726 0036 F2D1     		bne	.L148
 727              		.loc 1 1764 0
 728 0038 2068     		ldr	r0, [r4]
 729 003a 4368     		ldr	r3, [r0, #4]
 730              	.LVL74:
 731 003c 9B7A     		ldrb	r3, [r3, #10]	@ zero_extendqisi2
 732 003e 0B60     		str	r3, [r1]
 733              		.loc 1 1767 0
 734 0040 F0E7     		b	.L124
 735              	.LVL75:
 736              	.L116:
ARM GAS  /tmp/ccZlncvZ.s 			page 14


 737              		.loc 1 1683 0
 738 0042 202A     		cmp	r2, #32
 739 0044 3CD0     		beq	.L119
 740 0046 37DD     		ble	.L154
 741 0048 41F20803 		movw	r3, #4104
 742              	.LVL76:
 743 004c 9A42     		cmp	r2, r3
 744 004e 49D0     		beq	.L121
 745 0050 0233     		adds	r3, r3, #2
 746 0052 9A42     		cmp	r2, r3
 747 0054 3FD0     		beq	.L122
 748 0056 41F20703 		movw	r3, #4103
 749 005a 9A42     		cmp	r2, r3
 750 005c DFD1     		bne	.L148
 751              		.loc 1 1725 0
 752 005e 2369     		ldr	r3, [r4, #16]
 753              		.loc 1 1726 0
 754 0060 2068     		ldr	r0, [r4]
 755              		.loc 1 1725 0
 756 0062 002B     		cmp	r3, #0
 757 0064 18BF     		it	ne
 758 0066 732B     		cmpne	r3, #115
 759 0068 0CD1     		bne	.L130
 760              		.loc 1 1726 0
 761 006a 90F90830 		ldrsb	r3, [r0, #8]
 762 006e 5B42     		negs	r3, r3
 763 0070 0F2B     		cmp	r3, #15
 764 0072 9BBF     		ittet	ls
 765 0074 40F20002 		movwls	r2, #:lower16:.LANCHOR3
 766              	.LVL77:
 767 0078 C0F20002 		movtls	r2, #:upper16:.LANCHOR3
 768 007c 0523     		movhi	r3, #5
 769 007e 52F82330 		ldrls	r3, [r2, r3, lsl #2]
 770 0082 2361     		str	r3, [r4, #16]
 771              	.L130:
 772              		.loc 1 1729 0
 773 0084 0022     		movs	r2, #0
 774              		.loc 1 1728 0
 775 0086 0B60     		str	r3, [r1]
 776              		.loc 1 1729 0
 777 0088 2261     		str	r2, [r4, #16]
 778              		.loc 1 1732 0
 779 008a CBE7     		b	.L124
 780              	.LVL78:
 781              	.L115:
 782              		.loc 1 1803 0
 783 008c 012A     		cmp	r2, #1
 784 008e 07D0     		beq	.L136
 785 0090 022A     		cmp	r2, #2
 786 0092 C4D1     		bne	.L148
 787              		.loc 1 1810 0
 788 0094 2068     		ldr	r0, [r4]
 789              	.LVL79:
 790 0096 4368     		ldr	r3, [r0, #4]
 791              	.LVL80:
 792 0098 D3F89030 		ldr	r3, [r3, #144]
 793 009c 0B60     		str	r3, [r1]
ARM GAS  /tmp/ccZlncvZ.s 			page 15


 794              		.loc 1 1813 0
 795 009e C1E7     		b	.L124
 796              	.LVL81:
 797              	.L136:
 798              		.loc 1 1805 0
 799 00a0 2068     		ldr	r0, [r4]
 800              	.LVL82:
 801 00a2 4368     		ldr	r3, [r0, #4]
 802              	.LVL83:
 803 00a4 9B7F     		ldrb	r3, [r3, #30]	@ zero_extendqisi2
 804 00a6 C3F38013 		ubfx	r3, r3, #6, #1
 805 00aa 0B60     		str	r3, [r1]
 806              		.loc 1 1808 0
 807 00ac BAE7     		b	.L124
 808              	.LVL84:
 809              	.L133:
 810              		.loc 1 1769 0
 811 00ae 2068     		ldr	r0, [r4]
 812 00b0 4368     		ldr	r3, [r0, #4]
 813              	.LVL85:
 814 00b2 5B7A     		ldrb	r3, [r3, #9]	@ zero_extendqisi2
 815 00b4 0B60     		str	r3, [r1]
 816              		.loc 1 1772 0
 817 00b6 B5E7     		b	.L124
 818              	.LVL86:
 819              	.L154:
 820              		.loc 1 1683 0
 821 00b8 022A     		cmp	r2, #2
 822 00ba 01D0     		beq	.L119
 823 00bc 082A     		cmp	r2, #8
 824 00be AED1     		bne	.L148
 825              	.L119:
 826              		.loc 1 1697 0
 827 00c0 2068     		ldr	r0, [r4]
 828 00c2 4368     		ldr	r3, [r0, #4]
 829              	.LVL87:
 830 00c4 1B7A     		ldrb	r3, [r3, #8]	@ zero_extendqisi2
 831 00c6 1A40     		ands	r2, r2, r3
 832              	.LVL88:
 833 00c8 0A60     		str	r2, [r1]
 834              		.loc 1 1700 0
 835 00ca ABE7     		b	.L124
 836              	.LVL89:
 837              	.L152:
 838              		.loc 1 1668 0 discriminator 1
 839 00cc 0190     		str	r0, [sp, #4]
 840 00ce FFF7FEFF 		bl	port_halt
 841              	.LVL90:
 842 00d2 0198     		ldr	r0, [sp, #4]
 843 00d4 98E7     		b	.L113
 844              	.LVL91:
 845              	.L122:
 846              		.loc 1 1751 0
 847 00d6 2068     		ldr	r0, [r4]
 848 00d8 4368     		ldr	r3, [r0, #4]
 849 00da 1B7C     		ldrb	r3, [r3, #16]	@ zero_extendqisi2
 850 00dc 03F00103 		and	r3, r3, #1
ARM GAS  /tmp/ccZlncvZ.s 			page 16


 851 00e0 0B60     		str	r3, [r1]
 852              		.loc 1 1752 0
 853 00e2 9FE7     		b	.L124
 854              	.L121:
 855              		.loc 1 1703 0
 856 00e4 2068     		ldr	r0, [r4]
 857 00e6 0278     		ldrb	r2, [r0]	@ zero_extendqisi2
 858              	.LVL92:
 859 00e8 02F0F003 		and	r3, r2, #240
 860 00ec 202B     		cmp	r3, #32
 861 00ee 08D0     		beq	.L126
 862 00f0 402B     		cmp	r3, #64
 863 00f2 09D0     		beq	.L127
 864 00f4 102B     		cmp	r3, #16
 865              		.loc 1 1714 0
 866 00f6 18BF     		it	ne
 867 00f8 0A60     		strne	r2, [r1]
 868              		.loc 1 1703 0
 869 00fa 93D1     		bne	.L124
 870              		.loc 1 1708 0
 871 00fc 0123     		movs	r3, #1
 872 00fe 0B60     		str	r3, [r1]
 873              		.loc 1 1709 0
 874 0100 90E7     		b	.L124
 875              	.L126:
 876              		.loc 1 1711 0
 877 0102 0223     		movs	r3, #2
 878 0104 0B60     		str	r3, [r1]
 879              		.loc 1 1712 0
 880 0106 8DE7     		b	.L124
 881              	.L127:
 882              		.loc 1 1705 0
 883 0108 0323     		movs	r3, #3
 884 010a 0B60     		str	r3, [r1]
 885              		.loc 1 1706 0
 886 010c 8AE7     		b	.L124
 887              		.cfi_endproc
 888              	.LFE32:
 889              		.size	lwip_getsockopt_internal, .-lwip_getsockopt_internal
 890 010e 00BF     		.section	.text.lwip_setsockopt_internal,"ax",%progbits
 891              		.align	2
 892              		.p2align 4,,15
 893              		.thumb
 894              		.thumb_func
 895              		.type	lwip_setsockopt_internal, %function
 896              	lwip_setsockopt_internal:
 897              	.LFB34:
 898              		.loc 1 2076 0
 899              		.cfi_startproc
 900              		@ args = 0, pretend = 0, frame = 8
 901              		@ frame_needed = 0, uses_anonymous_args = 0
 902              	.LVL93:
 903 0000 30B5     		push	{r4, r5, lr}
 904              		.cfi_def_cfa_offset 12
 905              		.cfi_offset 4, -12
 906              		.cfi_offset 5, -8
 907              		.cfi_offset 14, -4
ARM GAS  /tmp/ccZlncvZ.s 			page 17


 908 0002 83B0     		sub	sp, sp, #12
 909              		.cfi_def_cfa_offset 24
 910              		.loc 1 2085 0
 911 0004 0028     		cmp	r0, #0
 912 0006 54D0     		beq	.L184
 913              	.LVL94:
 914              	.L156:
 915              		.loc 1 2096 0
 916 0008 4368     		ldr	r3, [r0, #4]
 917              		.loc 1 2088 0
 918 000a 0468     		ldr	r4, [r0]
 919              	.LVL95:
 920              		.loc 1 2093 0
 921 000c 8268     		ldr	r2, [r0, #8]
 922              	.LVL96:
 923              		.loc 1 2094 0
 924 000e C568     		ldr	r5, [r0, #12]
 925              	.LVL97:
 926              		.loc 1 2096 0
 927 0010 062B     		cmp	r3, #6
 928 0012 29D0     		beq	.L158
 929 0014 40F6FF71 		movw	r1, #4095
 930 0018 8B42     		cmp	r3, r1
 931 001a 13D0     		beq	.L159
 932 001c 43B1     		cbz	r3, .L185
 933              	.LVL98:
 934              	.L180:
 935              		.loc 1 2277 0 discriminator 1
 936 001e FFF7FEFF 		bl	port_halt
 937              	.LVL99:
 938 0022 2068     		ldr	r0, [r4]
 939              	.L165:
 940              		.loc 1 2280 0
 941 0024 0C30     		adds	r0, r0, #12
 942              		.loc 1 2281 0
 943 0026 03B0     		add	sp, sp, #12
 944              		@ sp needed
 945 0028 BDE83040 		pop	{r4, r5, lr}
 946              	.LVL100:
 947              		.loc 1 2280 0
 948 002c FFF7FEBF 		b	sys_sem_signal
 949              	.LVL101:
 950              	.L185:
 951              		.loc 1 2153 0
 952 0030 012A     		cmp	r2, #1
 953 0032 38D0     		beq	.L168
 954 0034 022A     		cmp	r2, #2
 955 0036 F2D1     		bne	.L180
 956              		.loc 1 2155 0
 957 0038 2368     		ldr	r3, [r4]
 958              	.LVL102:
 959 003a 2A68     		ldr	r2, [r5]
 960              	.LVL103:
 961 003c 5B68     		ldr	r3, [r3, #4]
 962 003e 9A72     		strb	r2, [r3, #10]
 963              	.LVL104:
 964 0040 2068     		ldr	r0, [r4]
ARM GAS  /tmp/ccZlncvZ.s 			page 18


 965              	.LVL105:
 966              		.loc 1 2158 0
 967 0042 EFE7     		b	.L165
 968              	.LVL106:
 969              	.L159:
 970              		.loc 1 2100 0
 971 0044 202A     		cmp	r2, #32
 972 0046 05D0     		beq	.L162
 973 0048 41F20A03 		movw	r3, #4106
 974              	.LVL107:
 975 004c 9A42     		cmp	r2, r3
 976 004e 15D0     		beq	.L163
 977 0050 082A     		cmp	r2, #8
 978 0052 E4D1     		bne	.L180
 979              	.L162:
 980              		.loc 1 2113 0
 981 0054 2B68     		ldr	r3, [r5]
 982 0056 002B     		cmp	r3, #0
 983 0058 30D0     		beq	.L164
 984              		.loc 1 2114 0
 985 005a 2368     		ldr	r3, [r4]
 986 005c 5B68     		ldr	r3, [r3, #4]
 987 005e 197A     		ldrb	r1, [r3, #8]	@ zero_extendqisi2
 988 0060 0A43     		orrs	r2, r2, r1
 989              	.LVL108:
 990 0062 1A72     		strb	r2, [r3, #8]
 991              	.LVL109:
 992 0064 2068     		ldr	r0, [r4]
 993              	.LVL110:
 994 0066 DDE7     		b	.L165
 995              	.LVL111:
 996              	.L158:
 997              		.loc 1 2207 0
 998 0068 012A     		cmp	r2, #1
 999 006a 12D0     		beq	.L171
 1000 006c 022A     		cmp	r2, #2
 1001 006e D6D1     		bne	.L180
 1002              		.loc 1 2218 0
 1003 0070 2068     		ldr	r0, [r4]
 1004              	.LVL112:
 1005 0072 2A68     		ldr	r2, [r5]
 1006              	.LVL113:
 1007 0074 4368     		ldr	r3, [r0, #4]
 1008              	.LVL114:
 1009 0076 C3F89020 		str	r2, [r3, #144]
 1010              		.loc 1 2221 0
 1011 007a D3E7     		b	.L165
 1012              	.LVL115:
 1013              	.L163:
 1014              		.loc 1 2138 0
 1015 007c 2B68     		ldr	r3, [r5]
 1016 007e 002B     		cmp	r3, #0
 1017 0080 2CD0     		beq	.L166
 1018              		.loc 1 2139 0
 1019 0082 2368     		ldr	r3, [r4]
 1020 0084 5B68     		ldr	r3, [r3, #4]
 1021 0086 1A7C     		ldrb	r2, [r3, #16]	@ zero_extendqisi2
ARM GAS  /tmp/ccZlncvZ.s 			page 19


 1022              	.LVL116:
 1023 0088 42F00102 		orr	r2, r2, #1
 1024 008c 1A74     		strb	r2, [r3, #16]
 1025              	.LVL117:
 1026 008e 2068     		ldr	r0, [r4]
 1027              	.LVL118:
 1028 0090 C8E7     		b	.L165
 1029              	.LVL119:
 1030              	.L171:
 1031              		.loc 1 2209 0
 1032 0092 2B68     		ldr	r3, [r5]
 1033              	.LVL120:
 1034 0094 D3B1     		cbz	r3, .L173
 1035              		.loc 1 2210 0
 1036 0096 2368     		ldr	r3, [r4]
 1037 0098 5B68     		ldr	r3, [r3, #4]
 1038 009a 9A7F     		ldrb	r2, [r3, #30]	@ zero_extendqisi2
 1039              	.LVL121:
 1040 009c 42F04002 		orr	r2, r2, #64
 1041 00a0 9A77     		strb	r2, [r3, #30]
 1042              	.LVL122:
 1043 00a2 2068     		ldr	r0, [r4]
 1044              	.LVL123:
 1045 00a4 BEE7     		b	.L165
 1046              	.LVL124:
 1047              	.L168:
 1048              		.loc 1 2160 0
 1049 00a6 2368     		ldr	r3, [r4]
 1050              	.LVL125:
 1051 00a8 2A68     		ldr	r2, [r5]
 1052              	.LVL126:
 1053 00aa 5B68     		ldr	r3, [r3, #4]
 1054 00ac 5A72     		strb	r2, [r3, #9]
 1055              	.LVL127:
 1056 00ae 2068     		ldr	r0, [r4]
 1057              	.LVL128:
 1058              		.loc 1 2163 0
 1059 00b0 B8E7     		b	.L165
 1060              	.LVL129:
 1061              	.L184:
 1062              		.loc 1 2085 0 discriminator 1
 1063 00b2 0190     		str	r0, [sp, #4]
 1064 00b4 FFF7FEFF 		bl	port_halt
 1065              	.LVL130:
 1066 00b8 0198     		ldr	r0, [sp, #4]
 1067 00ba A5E7     		b	.L156
 1068              	.LVL131:
 1069              	.L164:
 1070              		.loc 1 2116 0
 1071 00bc 2368     		ldr	r3, [r4]
 1072 00be 5B68     		ldr	r3, [r3, #4]
 1073 00c0 197A     		ldrb	r1, [r3, #8]	@ zero_extendqisi2
 1074 00c2 21EA0202 		bic	r2, r1, r2
 1075              	.LVL132:
 1076 00c6 1A72     		strb	r2, [r3, #8]
 1077              	.LVL133:
 1078 00c8 2068     		ldr	r0, [r4]
ARM GAS  /tmp/ccZlncvZ.s 			page 20


 1079              	.LVL134:
 1080 00ca ABE7     		b	.L165
 1081              	.LVL135:
 1082              	.L173:
 1083              		.loc 1 2212 0
 1084 00cc 2368     		ldr	r3, [r4]
 1085 00ce 5B68     		ldr	r3, [r3, #4]
 1086 00d0 9A7F     		ldrb	r2, [r3, #30]	@ zero_extendqisi2
 1087              	.LVL136:
 1088 00d2 22F04002 		bic	r2, r2, #64
 1089 00d6 9A77     		strb	r2, [r3, #30]
 1090              	.LVL137:
 1091 00d8 2068     		ldr	r0, [r4]
 1092              	.LVL138:
 1093 00da A3E7     		b	.L165
 1094              	.LVL139:
 1095              	.L166:
 1096              		.loc 1 2141 0
 1097 00dc 2368     		ldr	r3, [r4]
 1098 00de 5B68     		ldr	r3, [r3, #4]
 1099 00e0 1A7C     		ldrb	r2, [r3, #16]	@ zero_extendqisi2
 1100              	.LVL140:
 1101 00e2 22F00102 		bic	r2, r2, #1
 1102 00e6 1A74     		strb	r2, [r3, #16]
 1103              	.LVL141:
 1104 00e8 2068     		ldr	r0, [r4]
 1105              	.LVL142:
 1106 00ea 9BE7     		b	.L165
 1107              		.cfi_endproc
 1108              	.LFE34:
 1109              		.size	lwip_setsockopt_internal, .-lwip_setsockopt_internal
 1110 00ec AFF30080 		.section	.text.lwip_socket_init,"ax",%progbits
 1111              		.align	2
 1112              		.p2align 4,,15
 1113              		.global	lwip_socket_init
 1114              		.thumb
 1115              		.thumb_func
 1116              		.type	lwip_socket_init, %function
 1117              	lwip_socket_init:
 1118              	.LFB7:
 1119              		.loc 1 185 0
 1120              		.cfi_startproc
 1121              		@ args = 0, pretend = 0, frame = 0
 1122              		@ frame_needed = 0, uses_anonymous_args = 0
 1123              		@ link register save eliminated.
 1124 0000 7047     		bx	lr
 1125              		.cfi_endproc
 1126              	.LFE7:
 1127              		.size	lwip_socket_init, .-lwip_socket_init
 1128 0002 00BFAFF3 		.section	.text.lwip_accept,"ax",%progbits
 1128      0080AFF3 
 1128      0080AFF3 
 1128      0080
 1129              		.align	2
 1130              		.p2align 4,,15
 1131              		.global	lwip_accept
 1132              		.thumb
ARM GAS  /tmp/ccZlncvZ.s 			page 21


 1133              		.thumb_func
 1134              		.type	lwip_accept, %function
 1135              	lwip_accept:
 1136              	.LFB12:
 1137              		.loc 1 313 0
 1138              		.cfi_startproc
 1139              		@ args = 0, pretend = 0, frame = 32
 1140              		@ frame_needed = 0, uses_anonymous_args = 0
 1141              	.LVL143:
 1142              		.loc 1 313 0
 1143 0000 2DE9F043 		push	{r4, r5, r6, r7, r8, r9, lr}
 1144              		.cfi_def_cfa_offset 28
 1145              		.cfi_offset 4, -28
 1146              		.cfi_offset 5, -24
 1147              		.cfi_offset 6, -20
 1148              		.cfi_offset 7, -16
 1149              		.cfi_offset 8, -12
 1150              		.cfi_offset 9, -8
 1151              		.cfi_offset 14, -4
 1152              	.LBB61:
 1153              	.LBB62:
 1154              		.loc 1 199 0
 1155 0004 0328     		cmp	r0, #3
 1156              	.LBE62:
 1157              	.LBE61:
 1158              		.loc 1 313 0
 1159 0006 89B0     		sub	sp, sp, #36
 1160              		.cfi_def_cfa_offset 64
 1161              		.loc 1 313 0
 1162 0008 8846     		mov	r8, r1
 1163 000a 1546     		mov	r5, r2
 1164              	.LBB64:
 1165              	.LBB63:
 1166              		.loc 1 199 0
 1167 000c 24D8     		bhi	.L205
 1168              		.loc 1 205 0
 1169 000e 00EB4000 		add	r0, r0, r0, lsl #1
 1170              	.LVL144:
 1171 0012 40F20004 		movw	r4, #:lower16:.LANCHOR0
 1172 0016 C0F20004 		movt	r4, #:upper16:.LANCHOR0
 1173 001a C700     		lsls	r7, r0, #3
 1174 001c A146     		mov	r9, r4
 1175              		.loc 1 207 0
 1176 001e E059     		ldr	r0, [r4, r7]
 1177              		.loc 1 205 0
 1178 0020 E619     		adds	r6, r4, r7
 1179              	.LVL145:
 1180              		.loc 1 207 0
 1181 0022 C8B1     		cbz	r0, .L205
 1182              	.LBE63:
 1183              	.LBE64:
 1184              		.loc 1 329 0
 1185 0024 037F     		ldrb	r3, [r0, #28]	@ zero_extendqisi2
 1186 0026 9B07     		lsls	r3, r3, #30
 1187 0028 08D5     		bpl	.L190
 1188              		.loc 1 329 0 is_stmt 0 discriminator 1
 1189 002a B6F90A30 		ldrsh	r3, [r6, #10]
ARM GAS  /tmp/ccZlncvZ.s 			page 22


 1190 002e 002B     		cmp	r3, #0
 1191              		.loc 1 331 0 is_stmt 1 discriminator 1
 1192 0030 DEBF     		ittt	le
 1193 0032 0B23     		movle	r3, #11
 1194 0034 3361     		strle	r3, [r6, #16]
 1195              		.loc 1 332 0 discriminator 1
 1196 0036 4FF0FF30 		movle	r0, #-1
 1197              		.loc 1 329 0 discriminator 1
 1198 003a 0FDD     		ble	.L215
 1199              	.L190:
 1200              		.loc 1 336 0
 1201 003c 02A9     		add	r1, sp, #8
 1202              	.LVL146:
 1203 003e FFF7FEFF 		bl	netconn_accept
 1204              	.LVL147:
 1205              		.loc 1 337 0
 1206 0042 70B1     		cbz	r0, .L191
 1207              		.loc 1 339 0
 1208 0044 59F80730 		ldr	r3, [r9, r7]
 1209 0048 1B78     		ldrb	r3, [r3]	@ zero_extendqisi2
 1210 004a 102B     		cmp	r3, #16
 1211 004c 7CD0     		beq	.L192
 1212              		.loc 1 340 0
 1213 004e 5F20     		movs	r0, #95
 1214              	.LVL148:
 1215 0050 3061     		str	r0, [r6, #16]
 1216              		.loc 1 402 0
 1217 0052 09B0     		add	sp, sp, #36
 1218              		@ sp needed
 1219 0054 BDE8F083 		pop	{r4, r5, r6, r7, r8, r9, pc}
 1220              	.LVL149:
 1221              	.L205:
 1222              		.loc 1 326 0
 1223 0058 4FF0FF30 		mov	r0, #-1
 1224              	.LVL150:
 1225              	.L215:
 1226              		.loc 1 402 0
 1227 005c 09B0     		add	sp, sp, #36
 1228              		@ sp needed
 1229 005e BDE8F083 		pop	{r4, r5, r6, r7, r8, r9, pc}
 1230              	.LVL151:
 1231              	.L191:
 1232              		.loc 1 346 0
 1233 0062 0298     		ldr	r0, [sp, #8]
 1234              	.LVL152:
 1235 0064 0028     		cmp	r0, #0
 1236 0066 56D0     		beq	.L216
 1237              	.L194:
 1238              		.loc 1 348 0 discriminator 1
 1239 0068 037F     		ldrb	r3, [r0, #28]	@ zero_extendqisi2
 1240 006a 43F00803 		orr	r3, r3, #8
 1241 006e 0377     		strb	r3, [r0, #28]
 1242              		.loc 1 351 0 discriminator 1
 1243 0070 03A9     		add	r1, sp, #12
 1244 0072 0DF10602 		add	r2, sp, #6
 1245 0076 0023     		movs	r3, #0
 1246 0078 FFF7FEFF 		bl	netconn_getaddr
ARM GAS  /tmp/ccZlncvZ.s 			page 23


 1247              	.LVL153:
 1248              		.loc 1 352 0 discriminator 1
 1249 007c 0746     		mov	r7, r0
 1250 007e 0028     		cmp	r0, #0
 1251 0080 50D1     		bne	.L217
 1252              		.loc 1 362 0
 1253 0082 B8F1000F 		cmp	r8, #0
 1254 0086 1DD0     		beq	.L197
 1255              		.loc 1 363 0
 1256 0088 002D     		cmp	r5, #0
 1257 008a 48D0     		beq	.L218
 1258              	.LVL154:
 1259              	.L198:
 1260              		.loc 1 364 0
 1261 008c 0023     		movs	r3, #0
 1262              		.loc 1 365 0
 1263 008e 1027     		movs	r7, #16
 1264              		.loc 1 366 0
 1265 0090 0222     		movs	r2, #2
 1266              		.loc 1 367 0
 1267 0092 BDF80600 		ldrh	r0, [sp, #6]
 1268              		.loc 1 364 0
 1269 0096 0493     		str	r3, [sp, #16]
 1270 0098 0593     		str	r3, [sp, #20]
 1271 009a 0693     		str	r3, [sp, #24]
 1272 009c 0793     		str	r3, [sp, #28]
 1273              		.loc 1 366 0
 1274 009e 8DF81120 		strb	r2, [sp, #17]
 1275              		.loc 1 365 0
 1276 00a2 8DF81070 		strb	r7, [sp, #16]
 1277              		.loc 1 367 0
 1278 00a6 FFF7FEFF 		bl	lwip_htons
 1279              	.LVL155:
 1280              		.loc 1 370 0
 1281 00aa 2A68     		ldr	r2, [r5]
 1282              		.loc 1 368 0
 1283 00ac 039B     		ldr	r3, [sp, #12]
 1284              		.loc 1 367 0
 1285 00ae ADF81200 		strh	r0, [sp, #18]	@ movhi
 1286              		.loc 1 370 0
 1287 00b2 BA42     		cmp	r2, r7
 1288              		.loc 1 371 0
 1289 00b4 84BF     		itt	hi
 1290 00b6 2F60     		strhi	r7, [r5]
 1291 00b8 3A46     		movhi	r2, r7
 1292              		.loc 1 373 0
 1293 00ba 4046     		mov	r0, r8
 1294 00bc 04A9     		add	r1, sp, #16
 1295              		.loc 1 368 0
 1296 00be 0593     		str	r3, [sp, #20]
 1297              		.loc 1 373 0
 1298 00c0 FFF7FEFF 		bl	memcpy
 1299              	.LVL156:
 1300              	.L197:
 1301              		.loc 1 376 0
 1302 00c4 0298     		ldr	r0, [sp, #8]
 1303 00c6 0121     		movs	r1, #1
ARM GAS  /tmp/ccZlncvZ.s 			page 24


 1304 00c8 FFF7FEFF 		bl	alloc_socket
 1305              	.LVL157:
 1306              		.loc 1 377 0
 1307 00cc 421C     		adds	r2, r0, #1
 1308              		.loc 1 376 0
 1309 00ce 0546     		mov	r5, r0
 1310              	.LVL158:
 1311              		.loc 1 377 0
 1312 00d0 44D0     		beq	.L219
 1313              		.loc 1 382 0
 1314 00d2 0328     		cmp	r0, #3
 1315 00d4 1CD8     		bhi	.L220
 1316              	.LVL159:
 1317              	.L201:
 1318              		.loc 1 383 0
 1319 00d6 029A     		ldr	r2, [sp, #8]
 1320 00d8 40F20003 		movw	r3, #:lower16:event_callback
 1321 00dc 916A     		ldr	r1, [r2, #40]
 1322 00de C0F20003 		movt	r3, #:upper16:event_callback
 1323 00e2 9942     		cmp	r1, r3
 1324 00e4 08BF     		it	eq
 1325 00e6 1346     		moveq	r3, r2
 1326 00e8 02D0     		beq	.L202
 1327              		.loc 1 383 0 is_stmt 0 discriminator 1
 1328 00ea FFF7FEFF 		bl	port_halt
 1329              	.LVL160:
 1330 00ee 029B     		ldr	r3, [sp, #8]
 1331              	.L202:
 1332              		.loc 1 384 0 is_stmt 1
 1333 00f0 05EB4502 		add	r2, r5, r5, lsl #1
 1334 00f4 04EBC204 		add	r4, r4, r2, lsl #3
 1335              	.LVL161:
 1336              		.loc 1 392 0
 1337 00f8 9A69     		ldr	r2, [r3, #24]
 1338 00fa 6189     		ldrh	r1, [r4, #10]
 1339 00fc 0139     		subs	r1, r1, #1
 1340 00fe 8A1A     		subs	r2, r1, r2
 1341              		.loc 1 401 0
 1342 0100 2846     		mov	r0, r5
 1343              		.loc 1 400 0
 1344 0102 0021     		movs	r1, #0
 1345              		.loc 1 392 0
 1346 0104 6281     		strh	r2, [r4, #10]	@ movhi
 1347              		.loc 1 393 0
 1348 0106 9D61     		str	r5, [r3, #24]
 1349              		.loc 1 400 0
 1350 0108 3161     		str	r1, [r6, #16]
 1351              		.loc 1 402 0
 1352 010a 09B0     		add	sp, sp, #36
 1353              		@ sp needed
 1354 010c BDE8F083 		pop	{r4, r5, r6, r7, r8, r9, pc}
 1355              	.LVL162:
 1356              	.L220:
 1357              		.loc 1 382 0 discriminator 1
 1358 0110 FFF7FEFF 		bl	port_halt
 1359              	.LVL163:
 1360 0114 DFE7     		b	.L201
ARM GAS  /tmp/ccZlncvZ.s 			page 25


 1361              	.LVL164:
 1362              	.L216:
 1363              		.loc 1 346 0 discriminator 1
 1364 0116 FFF7FEFF 		bl	port_halt
 1365              	.LVL165:
 1366 011a 0298     		ldr	r0, [sp, #8]
 1367 011c A4E7     		b	.L194
 1368              	.LVL166:
 1369              	.L218:
 1370              		.loc 1 363 0 discriminator 1
 1371 011e FFF7FEFF 		bl	port_halt
 1372              	.LVL167:
 1373 0122 B3E7     		b	.L198
 1374              	.LVL168:
 1375              	.L217:
 1376              		.loc 1 354 0
 1377 0124 0298     		ldr	r0, [sp, #8]
 1378              	.LVL169:
 1379              		.loc 1 355 0
 1380 0126 7F42     		negs	r7, r7
 1381              		.loc 1 354 0
 1382 0128 FFF7FEFF 		bl	netconn_delete
 1383              	.LVL170:
 1384              		.loc 1 355 0
 1385 012c 0F2F     		cmp	r7, #15
 1386 012e 09D8     		bhi	.L208
 1387              		.loc 1 355 0 is_stmt 0 discriminator 1
 1388 0130 40F20003 		movw	r3, #:lower16:.LANCHOR3
 1389 0134 C0F20003 		movt	r3, #:upper16:.LANCHOR3
 1390 0138 53F82730 		ldr	r3, [r3, r7, lsl #2]
 1391              	.L196:
 1392              		.loc 1 355 0 discriminator 3
 1393 013c 3361     		str	r3, [r6, #16]
 1394              		.loc 1 356 0 is_stmt 1 discriminator 3
 1395 013e 4FF0FF30 		mov	r0, #-1
 1396 0142 8BE7     		b	.L215
 1397              	.L208:
 1398              		.loc 1 355 0
 1399 0144 0523     		movs	r3, #5
 1400 0146 F9E7     		b	.L196
 1401              	.LVL171:
 1402              	.L192:
 1403              		.loc 1 343 0
 1404 0148 4042     		negs	r0, r0
 1405              	.LVL172:
 1406 014a 0F28     		cmp	r0, #15
 1407 014c FAD8     		bhi	.L208
 1408              		.loc 1 343 0 is_stmt 0 discriminator 1
 1409 014e 40F20003 		movw	r3, #:lower16:.LANCHOR3
 1410 0152 C0F20003 		movt	r3, #:upper16:.LANCHOR3
 1411 0156 53F82030 		ldr	r3, [r3, r0, lsl #2]
 1412 015a EFE7     		b	.L196
 1413              	.LVL173:
 1414              	.L219:
 1415              		.loc 1 378 0 is_stmt 1
 1416 015c 0298     		ldr	r0, [sp, #8]
 1417              	.LVL174:
ARM GAS  /tmp/ccZlncvZ.s 			page 26


 1418 015e FFF7FEFF 		bl	netconn_delete
 1419              	.LVL175:
 1420              		.loc 1 379 0
 1421 0162 1723     		movs	r3, #23
 1422              		.loc 1 380 0
 1423 0164 2846     		mov	r0, r5
 1424              		.loc 1 379 0
 1425 0166 3361     		str	r3, [r6, #16]
 1426              		.loc 1 380 0
 1427 0168 78E7     		b	.L215
 1428              		.cfi_endproc
 1429              	.LFE12:
 1430              		.size	lwip_accept, .-lwip_accept
 1431 016a 00BFAFF3 		.section	.text.lwip_bind,"ax",%progbits
 1431      0080
 1432              		.align	2
 1433              		.p2align 4,,15
 1434              		.global	lwip_bind
 1435              		.thumb
 1436              		.thumb_func
 1437              		.type	lwip_bind, %function
 1438              	lwip_bind:
 1439              	.LFB13:
 1440              		.loc 1 406 0
 1441              		.cfi_startproc
 1442              		@ args = 0, pretend = 0, frame = 8
 1443              		@ frame_needed = 0, uses_anonymous_args = 0
 1444              	.LVL176:
 1445 0000 70B5     		push	{r4, r5, r6, lr}
 1446              		.cfi_def_cfa_offset 16
 1447              		.cfi_offset 4, -16
 1448              		.cfi_offset 5, -12
 1449              		.cfi_offset 6, -8
 1450              		.cfi_offset 14, -4
 1451              	.LBB65:
 1452              	.LBB66:
 1453              		.loc 1 199 0
 1454 0002 0328     		cmp	r0, #3
 1455              	.LBE66:
 1456              	.LBE65:
 1457              		.loc 1 406 0
 1458 0004 82B0     		sub	sp, sp, #8
 1459              		.cfi_def_cfa_offset 24
 1460              	.LBB68:
 1461              	.LBB67:
 1462              		.loc 1 199 0
 1463 0006 20D8     		bhi	.L230
 1464              		.loc 1 205 0
 1465 0008 00EB4000 		add	r0, r0, r0, lsl #1
 1466              	.LVL177:
 1467 000c 40F20003 		movw	r3, #:lower16:.LANCHOR0
 1468 0010 C000     		lsls	r0, r0, #3
 1469 0012 C0F20003 		movt	r3, #:upper16:.LANCHOR0
 1470 0016 1E18     		adds	r6, r3, r0
 1471              	.LVL178:
 1472              		.loc 1 207 0
 1473 0018 1D58     		ldr	r5, [r3, r0]
ARM GAS  /tmp/ccZlncvZ.s 			page 27


 1474 001a B5B1     		cbz	r5, .L230
 1475              	.LBE67:
 1476              	.LBE68:
 1477              		.loc 1 419 0
 1478 001c 102A     		cmp	r2, #16
 1479 001e 18D1     		bne	.L224
 1480              		.loc 1 419 0 is_stmt 0 discriminator 2
 1481 0020 4B78     		ldrb	r3, [r1, #1]	@ zero_extendqisi2
 1482 0022 022B     		cmp	r3, #2
 1483 0024 15D1     		bne	.L224
 1484              		.loc 1 419 0 discriminator 1
 1485 0026 8807     		lsls	r0, r1, #30
 1486 0028 13D1     		bne	.L224
 1487              	.LVL179:
 1488              		.loc 1 424 0 is_stmt 1
 1489 002a 4B68     		ldr	r3, [r1, #4]
 1490              		.loc 1 431 0
 1491 002c 4888     		ldrh	r0, [r1, #2]
 1492              		.loc 1 424 0
 1493 002e 02AC     		add	r4, sp, #8
 1494 0030 44F8043D 		str	r3, [r4, #-4]!
 1495              	.LVL180:
 1496              		.loc 1 431 0
 1497 0034 FFF7FEFF 		bl	lwip_ntohs
 1498              	.LVL181:
 1499 0038 2146     		mov	r1, r4
 1500 003a 0246     		mov	r2, r0
 1501 003c 2846     		mov	r0, r5
 1502 003e FFF7FEFF 		bl	netconn_bind
 1503              	.LVL182:
 1504              		.loc 1 433 0
 1505 0042 70B9     		cbnz	r0, .L235
 1506              		.loc 1 440 0
 1507 0044 3061     		str	r0, [r6, #16]
 1508              		.loc 1 442 0
 1509 0046 02B0     		add	sp, sp, #8
 1510              		@ sp needed
 1511 0048 70BD     		pop	{r4, r5, r6, pc}
 1512              	.LVL183:
 1513              	.L230:
 1514              		.loc 1 415 0
 1515 004a 4FF0FF30 		mov	r0, #-1
 1516              	.LVL184:
 1517              	.L233:
 1518              		.loc 1 442 0
 1519 004e 02B0     		add	sp, sp, #8
 1520              		@ sp needed
 1521 0050 70BD     		pop	{r4, r5, r6, pc}
 1522              	.LVL185:
 1523              	.L224:
 1524              		.loc 1 419 0 discriminator 1
 1525 0052 FFF7FEFF 		bl	port_halt
 1526              	.LVL186:
 1527 0056 0523     		movs	r3, #5
 1528 0058 4FF0FF30 		mov	r0, #-1
 1529 005c 3361     		str	r3, [r6, #16]
 1530              		.loc 1 442 0 discriminator 1
ARM GAS  /tmp/ccZlncvZ.s 			page 28


 1531 005e 02B0     		add	sp, sp, #8
 1532              		@ sp needed
 1533 0060 70BD     		pop	{r4, r5, r6, pc}
 1534              	.LVL187:
 1535              	.L235:
 1536              		.loc 1 435 0
 1537 0062 4042     		negs	r0, r0
 1538              	.LVL188:
 1539 0064 0F28     		cmp	r0, #15
 1540 0066 9BBF     		ittet	ls
 1541 0068 40F20003 		movwls	r3, #:lower16:.LANCHOR3
 1542 006c C0F20003 		movtls	r3, #:upper16:.LANCHOR3
 1543 0070 0523     		movhi	r3, #5
 1544 0072 53F82030 		ldrls	r3, [r3, r0, lsl #2]
 1545              		.loc 1 436 0
 1546 0076 4FF0FF30 		mov	r0, #-1
 1547              		.loc 1 435 0
 1548 007a 3361     		str	r3, [r6, #16]
 1549              		.loc 1 436 0
 1550 007c E7E7     		b	.L233
 1551              		.cfi_endproc
 1552              	.LFE13:
 1553              		.size	lwip_bind, .-lwip_bind
 1554 007e 00BF     		.section	.text.lwip_close,"ax",%progbits
 1555              		.align	2
 1556              		.p2align 4,,15
 1557              		.global	lwip_close
 1558              		.thumb
 1559              		.thumb_func
 1560              		.type	lwip_close, %function
 1561              	lwip_close:
 1562              	.LFB14:
 1563              		.loc 1 446 0
 1564              		.cfi_startproc
 1565              		@ args = 0, pretend = 0, frame = 0
 1566              		@ frame_needed = 0, uses_anonymous_args = 0
 1567              	.LVL189:
 1568              	.LBB73:
 1569              	.LBB74:
 1570              		.loc 1 199 0
 1571 0000 0328     		cmp	r0, #3
 1572              	.LBE74:
 1573              	.LBE73:
 1574              		.loc 1 446 0
 1575 0002 2DE9F041 		push	{r4, r5, r6, r7, r8, lr}
 1576              		.cfi_def_cfa_offset 24
 1577              		.cfi_offset 4, -24
 1578              		.cfi_offset 5, -20
 1579              		.cfi_offset 6, -16
 1580              		.cfi_offset 7, -12
 1581              		.cfi_offset 8, -8
 1582              		.cfi_offset 14, -4
 1583              	.LBB76:
 1584              	.LBB75:
 1585              		.loc 1 199 0
 1586 0006 1DD8     		bhi	.L242
 1587              		.loc 1 205 0
ARM GAS  /tmp/ccZlncvZ.s 			page 29


 1588 0008 00EB4000 		add	r0, r0, r0, lsl #1
 1589              	.LVL190:
 1590 000c 40F20005 		movw	r5, #:lower16:.LANCHOR0
 1591 0010 C700     		lsls	r7, r0, #3
 1592 0012 C0F20005 		movt	r5, #:upper16:.LANCHOR0
 1593 0016 EE19     		adds	r6, r5, r7
 1594              	.LVL191:
 1595              		.loc 1 207 0
 1596 0018 EB59     		ldr	r3, [r5, r7]
 1597 001a 9BB1     		cbz	r3, .L242
 1598              	.LBE75:
 1599              	.LBE76:
 1600              		.loc 1 463 0
 1601 001c 1846     		mov	r0, r3
 1602              		.loc 1 458 0
 1603 001e 93F80080 		ldrb	r8, [r3]	@ zero_extendqisi2
 1604              	.LVL192:
 1605              		.loc 1 463 0
 1606 0022 FFF7FEFF 		bl	netconn_delete
 1607              	.LVL193:
 1608              	.LBB77:
 1609              	.LBB78:
 1610              		.loc 1 285 0
 1611 0026 7068     		ldr	r0, [r6, #4]
 1612              	.LVL194:
 1613              		.loc 1 286 0
 1614 0028 0024     		movs	r4, #0
 1615 002a 7460     		str	r4, [r6, #4]
 1616              		.loc 1 287 0
 1617 002c 3481     		strh	r4, [r6, #8]	@ movhi
 1618              		.loc 1 288 0
 1619 002e 3461     		str	r4, [r6, #16]
 1620              		.loc 1 292 0
 1621 0030 EC51     		str	r4, [r5, r7]
 1622              		.loc 1 296 0
 1623 0032 58B1     		cbz	r0, .L245
 1624              		.loc 1 297 0
 1625 0034 B8F1100F 		cmp	r8, #16
 1626 0038 0AD0     		beq	.L246
 1627              		.loc 1 300 0
 1628 003a FFF7FEFF 		bl	netbuf_delete
 1629              	.LVL195:
 1630              	.LBE78:
 1631              	.LBE77:
 1632              		.loc 1 467 0
 1633 003e 2046     		mov	r0, r4
 1634 0040 BDE8F081 		pop	{r4, r5, r6, r7, r8, pc}
 1635              	.LVL196:
 1636              	.L242:
 1637              		.loc 1 454 0
 1638 0044 4FF0FF30 		mov	r0, #-1
 1639 0048 BDE8F081 		pop	{r4, r5, r6, r7, r8, pc}
 1640              	.LVL197:
 1641              	.L245:
 1642              		.loc 1 468 0
 1643 004c BDE8F081 		pop	{r4, r5, r6, r7, r8, pc}
 1644              	.LVL198:
ARM GAS  /tmp/ccZlncvZ.s 			page 30


 1645              	.L246:
 1646              	.LBB80:
 1647              	.LBB79:
 1648              		.loc 1 298 0
 1649 0050 FFF7FEFF 		bl	pbuf_free
 1650              	.LVL199:
 1651              	.LBE79:
 1652              	.LBE80:
 1653              		.loc 1 467 0
 1654 0054 2046     		mov	r0, r4
 1655 0056 BDE8F081 		pop	{r4, r5, r6, r7, r8, pc}
 1656              		.cfi_endproc
 1657              	.LFE14:
 1658              		.size	lwip_close, .-lwip_close
 1659 005a 00BFAFF3 		.section	.text.lwip_connect,"ax",%progbits
 1659      0080
 1660              		.align	2
 1661              		.p2align 4,,15
 1662              		.global	lwip_connect
 1663              		.thumb
 1664              		.thumb_func
 1665              		.type	lwip_connect, %function
 1666              	lwip_connect:
 1667              	.LFB15:
 1668              		.loc 1 472 0
 1669              		.cfi_startproc
 1670              		@ args = 0, pretend = 0, frame = 8
 1671              		@ frame_needed = 0, uses_anonymous_args = 0
 1672              	.LVL200:
 1673 0000 70B5     		push	{r4, r5, r6, lr}
 1674              		.cfi_def_cfa_offset 16
 1675              		.cfi_offset 4, -16
 1676              		.cfi_offset 5, -12
 1677              		.cfi_offset 6, -8
 1678              		.cfi_offset 14, -4
 1679              	.LBB81:
 1680              	.LBB82:
 1681              		.loc 1 199 0
 1682 0002 0328     		cmp	r0, #3
 1683              	.LBE82:
 1684              	.LBE81:
 1685              		.loc 1 472 0
 1686 0004 82B0     		sub	sp, sp, #8
 1687              		.cfi_def_cfa_offset 24
 1688              	.LBB84:
 1689              	.LBB83:
 1690              		.loc 1 199 0
 1691 0006 20D8     		bhi	.L256
 1692              		.loc 1 205 0
 1693 0008 00EB4000 		add	r0, r0, r0, lsl #1
 1694              	.LVL201:
 1695 000c 40F20003 		movw	r3, #:lower16:.LANCHOR0
 1696 0010 C000     		lsls	r0, r0, #3
 1697 0012 C0F20003 		movt	r3, #:upper16:.LANCHOR0
 1698 0016 1D18     		adds	r5, r3, r0
 1699              	.LVL202:
 1700              		.loc 1 207 0
ARM GAS  /tmp/ccZlncvZ.s 			page 31


 1701 0018 1E58     		ldr	r6, [r3, r0]
 1702 001a B6B1     		cbz	r6, .L256
 1703              	.LBE83:
 1704              	.LBE84:
 1705              		.loc 1 483 0
 1706 001c 102A     		cmp	r2, #16
 1707 001e 18D1     		bne	.L250
 1708              		.loc 1 483 0 is_stmt 0 discriminator 2
 1709 0020 4B78     		ldrb	r3, [r1, #1]	@ zero_extendqisi2
 1710 0022 022B     		cmp	r3, #2
 1711 0024 15D1     		bne	.L250
 1712              		.loc 1 483 0 discriminator 1
 1713 0026 8C07     		lsls	r4, r1, #30
 1714 0028 13D1     		bne	.L250
 1715              	.LVL203:
 1716              	.LBB85:
 1717              		.loc 1 495 0 is_stmt 1
 1718 002a 4B68     		ldr	r3, [r1, #4]
 1719              		.loc 1 502 0
 1720 002c 4888     		ldrh	r0, [r1, #2]
 1721              		.loc 1 495 0
 1722 002e 02AC     		add	r4, sp, #8
 1723 0030 44F8043D 		str	r3, [r4, #-4]!
 1724              	.LVL204:
 1725              		.loc 1 502 0
 1726 0034 FFF7FEFF 		bl	lwip_ntohs
 1727              	.LVL205:
 1728 0038 2146     		mov	r1, r4
 1729 003a 0246     		mov	r2, r0
 1730 003c 3046     		mov	r0, r6
 1731 003e FFF7FEFF 		bl	netconn_connect
 1732              	.LVL206:
 1733              	.LBE85:
 1734              		.loc 1 505 0
 1735 0042 70B9     		cbnz	r0, .L261
 1736              		.loc 1 512 0
 1737 0044 2861     		str	r0, [r5, #16]
 1738              		.loc 1 514 0
 1739 0046 02B0     		add	sp, sp, #8
 1740              		@ sp needed
 1741 0048 70BD     		pop	{r4, r5, r6, pc}
 1742              	.LVL207:
 1743              	.L256:
 1744              		.loc 1 479 0
 1745 004a 4FF0FF30 		mov	r0, #-1
 1746              	.LVL208:
 1747              	.L259:
 1748              		.loc 1 514 0
 1749 004e 02B0     		add	sp, sp, #8
 1750              		@ sp needed
 1751 0050 70BD     		pop	{r4, r5, r6, pc}
 1752              	.LVL209:
 1753              	.L250:
 1754              		.loc 1 483 0 discriminator 1
 1755 0052 FFF7FEFF 		bl	port_halt
 1756              	.LVL210:
 1757 0056 0523     		movs	r3, #5
ARM GAS  /tmp/ccZlncvZ.s 			page 32


 1758 0058 4FF0FF30 		mov	r0, #-1
 1759 005c 2B61     		str	r3, [r5, #16]
 1760              		.loc 1 514 0 discriminator 1
 1761 005e 02B0     		add	sp, sp, #8
 1762              		@ sp needed
 1763 0060 70BD     		pop	{r4, r5, r6, pc}
 1764              	.LVL211:
 1765              	.L261:
 1766              		.loc 1 507 0
 1767 0062 4042     		negs	r0, r0
 1768              	.LVL212:
 1769 0064 0F28     		cmp	r0, #15
 1770 0066 9BBF     		ittet	ls
 1771 0068 40F20003 		movwls	r3, #:lower16:.LANCHOR3
 1772 006c C0F20003 		movtls	r3, #:upper16:.LANCHOR3
 1773 0070 0523     		movhi	r3, #5
 1774 0072 53F82030 		ldrls	r3, [r3, r0, lsl #2]
 1775              		.loc 1 508 0
 1776 0076 4FF0FF30 		mov	r0, #-1
 1777              		.loc 1 507 0
 1778 007a 2B61     		str	r3, [r5, #16]
 1779              		.loc 1 508 0
 1780 007c E7E7     		b	.L259
 1781              		.cfi_endproc
 1782              	.LFE15:
 1783              		.size	lwip_connect, .-lwip_connect
 1784 007e 00BF     		.section	.text.lwip_listen,"ax",%progbits
 1785              		.align	2
 1786              		.p2align 4,,15
 1787              		.global	lwip_listen
 1788              		.thumb
 1789              		.thumb_func
 1790              		.type	lwip_listen, %function
 1791              	lwip_listen:
 1792              	.LFB16:
 1793              		.loc 1 526 0
 1794              		.cfi_startproc
 1795              		@ args = 0, pretend = 0, frame = 0
 1796              		@ frame_needed = 0, uses_anonymous_args = 0
 1797              	.LVL213:
 1798              	.LBB86:
 1799              	.LBB87:
 1800              		.loc 1 199 0
 1801 0000 0328     		cmp	r0, #3
 1802              	.LBE87:
 1803              	.LBE86:
 1804              		.loc 1 526 0
 1805 0002 70B5     		push	{r4, r5, r6, lr}
 1806              		.cfi_def_cfa_offset 16
 1807              		.cfi_offset 4, -16
 1808              		.cfi_offset 5, -12
 1809              		.cfi_offset 6, -8
 1810              		.cfi_offset 14, -4
 1811              	.LBB89:
 1812              	.LBB88:
 1813              		.loc 1 199 0
 1814 0004 1AD8     		bhi	.L271
ARM GAS  /tmp/ccZlncvZ.s 			page 33


 1815              		.loc 1 205 0
 1816 0006 00EB4000 		add	r0, r0, r0, lsl #1
 1817              	.LVL214:
 1818 000a 40F20004 		movw	r4, #:lower16:.LANCHOR0
 1819 000e C500     		lsls	r5, r0, #3
 1820 0010 C0F20004 		movt	r4, #:upper16:.LANCHOR0
 1821 0014 6619     		adds	r6, r4, r5
 1822              	.LVL215:
 1823              		.loc 1 207 0
 1824 0016 6059     		ldr	r0, [r4, r5]
 1825 0018 80B1     		cbz	r0, .L271
 1826              	.LBE88:
 1827              	.LBE89:
 1828              		.loc 1 538 0
 1829 001a FE29     		cmp	r1, #254
 1830 001c C8BF     		it	gt
 1831 001e FF21     		movgt	r1, #255
 1832              	.LVL216:
 1833 0020 02DC     		bgt	.L269
 1834              		.loc 1 538 0 is_stmt 0 discriminator 1
 1835 0022 21EAE171 		bic	r1, r1, r1, asr #31
 1836 0026 C9B2     		uxtb	r1, r1
 1837              	.L269:
 1838              	.LVL217:
 1839              		.loc 1 540 0 is_stmt 1 discriminator 3
 1840 0028 FFF7FEFF 		bl	netconn_listen_with_backlog
 1841              	.LVL218:
 1842              		.loc 1 542 0 discriminator 3
 1843 002c 48B1     		cbz	r0, .L265
 1844              		.loc 1 544 0
 1845 002e 6359     		ldr	r3, [r4, r5]
 1846 0030 1B78     		ldrb	r3, [r3]	@ zero_extendqisi2
 1847 0032 102B     		cmp	r3, #16
 1848 0034 07D0     		beq	.L266
 1849              		.loc 1 545 0
 1850 0036 5F20     		movs	r0, #95
 1851              	.LVL219:
 1852 0038 3061     		str	r0, [r6, #16]
 1853              		.loc 1 546 0
 1854 003a 70BD     		pop	{r4, r5, r6, pc}
 1855              	.LVL220:
 1856              	.L271:
 1857              		.loc 1 534 0
 1858 003c 4FF0FF30 		mov	r0, #-1
 1859 0040 70BD     		pop	{r4, r5, r6, pc}
 1860              	.LVL221:
 1861              	.L265:
 1862              		.loc 1 552 0
 1863 0042 3061     		str	r0, [r6, #16]
 1864              		.loc 1 553 0
 1865 0044 70BD     		pop	{r4, r5, r6, pc}
 1866              	.LVL222:
 1867              	.L266:
 1868              		.loc 1 548 0
 1869 0046 4042     		negs	r0, r0
 1870              	.LVL223:
 1871 0048 0F28     		cmp	r0, #15
ARM GAS  /tmp/ccZlncvZ.s 			page 34


 1872 004a 9BBF     		ittet	ls
 1873 004c 40F20003 		movwls	r3, #:lower16:.LANCHOR3
 1874 0050 C0F20003 		movtls	r3, #:upper16:.LANCHOR3
 1875 0054 0523     		movhi	r3, #5
 1876 0056 53F82030 		ldrls	r3, [r3, r0, lsl #2]
 1877              		.loc 1 549 0
 1878 005a 4FF0FF30 		mov	r0, #-1
 1879              		.loc 1 548 0
 1880 005e 3361     		str	r3, [r6, #16]
 1881              		.loc 1 549 0
 1882 0060 70BD     		pop	{r4, r5, r6, pc}
 1883              		.cfi_endproc
 1884              	.LFE16:
 1885              		.size	lwip_listen, .-lwip_listen
 1886 0062 00BFAFF3 		.section	.text.lwip_recvfrom,"ax",%progbits
 1886      0080AFF3 
 1886      0080AFF3 
 1886      0080
 1887              		.align	2
 1888              		.p2align 4,,15
 1889              		.global	lwip_recvfrom
 1890              		.thumb
 1891              		.thumb_func
 1892              		.type	lwip_recvfrom, %function
 1893              	lwip_recvfrom:
 1894              	.LFB17:
 1895              		.loc 1 559 0
 1896              		.cfi_startproc
 1897              		@ args = 8, pretend = 0, frame = 56
 1898              		@ frame_needed = 0, uses_anonymous_args = 0
 1899              	.LVL224:
 1900 0000 2DE9F04F 		push	{r4, r5, r6, r7, r8, r9, r10, fp, lr}
 1901              		.cfi_def_cfa_offset 36
 1902              		.cfi_offset 4, -36
 1903              		.cfi_offset 5, -32
 1904              		.cfi_offset 6, -28
 1905              		.cfi_offset 7, -24
 1906              		.cfi_offset 8, -20
 1907              		.cfi_offset 9, -16
 1908              		.cfi_offset 10, -12
 1909              		.cfi_offset 11, -8
 1910              		.cfi_offset 14, -4
 1911 0004 8FB0     		sub	sp, sp, #60
 1912              		.cfi_def_cfa_offset 96
 1913              		.loc 1 561 0
 1914 0006 0027     		movs	r7, #0
 1915              	.LBB90:
 1916              	.LBB91:
 1917              		.loc 1 199 0
 1918 0008 0328     		cmp	r0, #3
 1919              	.LBE91:
 1920              	.LBE90:
 1921              		.loc 1 559 0
 1922 000a 0291     		str	r1, [sp, #8]
 1923 000c 1646     		mov	r6, r2
 1924 000e 0193     		str	r3, [sp, #4]
 1925              		.loc 1 561 0
ARM GAS  /tmp/ccZlncvZ.s 			page 35


 1926 0010 0897     		str	r7, [sp, #32]
 1927              	.LVL225:
 1928              		.loc 1 559 0
 1929 0012 DDF864B0 		ldr	fp, [sp, #100]
 1930              	.LBB93:
 1931              	.LBB92:
 1932              		.loc 1 199 0
 1933 0016 00F29680 		bhi	.L310
 1934              		.loc 1 205 0
 1935 001a 00EB4000 		add	r0, r0, r0, lsl #1
 1936              	.LVL226:
 1937 001e 40F20001 		movw	r1, #:lower16:.LANCHOR0
 1938              	.LVL227:
 1939 0022 C000     		lsls	r0, r0, #3
 1940 0024 C0F20001 		movt	r1, #:upper16:.LANCHOR0
 1941 0028 0C46     		mov	r4, r1
 1942              		.loc 1 207 0
 1943 002a 0B58     		ldr	r3, [r1, r0]
 1944              	.LVL228:
 1945              		.loc 1 205 0
 1946 002c 0590     		str	r0, [sp, #20]
 1947 002e 0491     		str	r1, [sp, #16]
 1948 0030 0444     		add	r4, r4, r0
 1949              	.LVL229:
 1950              		.loc 1 207 0
 1951 0032 002B     		cmp	r3, #0
 1952 0034 00F08780 		beq	.L310
 1953              	.LVL230:
 1954              	.LBE92:
 1955              	.LBE93:
 1956              		.loc 1 583 0
 1957 0038 019A     		ldr	r2, [sp, #4]
 1958              	.LVL231:
 1959              		.loc 1 579 0
 1960 003a 6368     		ldr	r3, [r4, #4]
 1961              		.loc 1 583 0
 1962 003c 02F00802 		and	r2, r2, #8
 1963              	.LBB94:
 1964              	.LBB95:
 1965              		.loc 1 679 0
 1966 0040 B946     		mov	r9, r7
 1967              	.LBE95:
 1968              	.LBE94:
 1969              		.loc 1 583 0
 1970 0042 0392     		str	r2, [sp, #12]
 1971              		.loc 1 579 0
 1972 0044 002B     		cmp	r3, #0
 1973 0046 00F09780 		beq	.L277
 1974              	.L336:
 1975              		.loc 1 580 0
 1976 004a 0893     		str	r3, [sp, #32]
 1977 004c 9A46     		mov	r10, r3
 1978              	.L278:
 1979              		.loc 1 629 0
 1980 004e 2368     		ldr	r3, [r4]
 1981              		.loc 1 648 0
 1982 0050 0299     		ldr	r1, [sp, #8]
ARM GAS  /tmp/ccZlncvZ.s 			page 36


 1983              		.loc 1 629 0
 1984 0052 1B78     		ldrb	r3, [r3]	@ zero_extendqisi2
 1985 0054 102B     		cmp	r3, #16
 1986              		.loc 1 632 0
 1987 0056 18BF     		it	ne
 1988 0058 DAF800A0 		ldrne	r10, [r10]
 1989              	.LVL232:
 1990              		.loc 1 638 0
 1991 005c 2389     		ldrh	r3, [r4, #8]
 1992 005e BAF80880 		ldrh	r8, [r10, #8]
 1993 0062 C3EB0808 		rsb	r8, r3, r8
 1994 0066 1FFA88F8 		uxth	r8, r8
 1995              	.LVL233:
 1996              		.loc 1 640 0
 1997 006a 4645     		cmp	r6, r8
 1998              		.loc 1 643 0
 1999 006c 94BF     		ite	ls
 2000 006e B5B2     		uxthls	r5, r6
 2001              	.LVL234:
 2002              		.loc 1 641 0
 2003 0070 4546     		movhi	r5, r8
 2004              	.LVL235:
 2005              		.loc 1 648 0
 2006 0072 3944     		add	r1, r1, r7
 2007 0074 5046     		mov	r0, r10
 2008 0076 2A46     		mov	r2, r5
 2009 0078 FFF7FEFF 		bl	pbuf_copy_partial
 2010              	.LVL236:
 2011              		.loc 1 652 0
 2012 007c 2368     		ldr	r3, [r4]
 2013 007e 1B78     		ldrb	r3, [r3]	@ zero_extendqisi2
 2014 0080 102B     		cmp	r3, #16
 2015              		.loc 1 650 0
 2016 0082 2F44     		add	r7, r7, r5
 2017              	.LVL237:
 2018              		.loc 1 652 0
 2019 0084 40F09580 		bne	.L291
 2020              		.loc 1 653 0
 2021 0088 AE42     		cmp	r6, r5
 2022 008a C0F08D80 		bcc	.L331
 2023              	.LVL238:
 2024              		.loc 1 655 0
 2025 008e 761B     		subs	r6, r6, r5
 2026              	.LVL239:
 2027 0090 00F08F80 		beq	.L291
 2028              	.L293:
 2029              		.loc 1 656 0 discriminator 1
 2030 0094 9AF80D30 		ldrb	r3, [r10, #13]	@ zero_extendqisi2
 2031              		.loc 1 655 0 discriminator 1
 2032 0098 DB07     		lsls	r3, r3, #31
 2033 009a 44BF     		itt	mi
 2034 009c 019B     		ldrmi	r3, [sp, #4]
 2035 009e 03F0010A 		andmi	r10, r3, #1
 2036              	.LVL240:
 2037 00a2 0AD4     		bmi	.L294
 2038              		.loc 1 656 0
 2039 00a4 B4F90A30 		ldrsh	r3, [r4, #10]
ARM GAS  /tmp/ccZlncvZ.s 			page 37


 2040 00a8 002B     		cmp	r3, #0
 2041 00aa 40F38680 		ble	.L332
 2042              		.loc 1 657 0
 2043 00ae 019A     		ldr	r2, [sp, #4]
 2044 00b0 12F0010A 		ands	r10, r2, #1
 2045 00b4 4ED0     		beq	.L297
 2046 00b6 4FF0010A 		mov	r10, #1
 2047              	.L294:
 2048              	.LVL241:
 2049              	.LBB98:
 2050              		.loc 1 668 0
 2051 00ba 189B     		ldr	r3, [sp, #96]
 2052 00bc 002B     		cmp	r3, #0
 2053 00be 18BF     		it	ne
 2054 00c0 BBF1000F 		cmpne	fp, #0
 2055 00c4 2FD0     		beq	.L307
 2056              	.LBB96:
 2057              		.loc 1 671 0
 2058 00c6 2068     		ldr	r0, [r4]
 2059 00c8 0378     		ldrb	r3, [r0]	@ zero_extendqisi2
 2060 00ca 102B     		cmp	r3, #16
 2061 00cc 00F0A980 		beq	.L333
 2062              		.loc 1 675 0
 2063 00d0 089B     		ldr	r3, [sp, #32]
 2064              		.loc 1 676 0
 2065 00d2 9889     		ldrh	r0, [r3, #12]
 2066              		.loc 1 675 0
 2067 00d4 03F1080C 		add	ip, r3, #8
 2068              	.LVL242:
 2069              		.loc 1 676 0
 2070 00d8 ADF81E00 		strh	r0, [sp, #30]	@ movhi
 2071              	.LVL243:
 2072              	.L299:
 2073              		.loc 1 681 0
 2074 00dc 0223     		movs	r3, #2
 2075              		.loc 1 680 0
 2076 00de 4FF01001 		mov	r1, #16
 2077              		.loc 1 679 0
 2078 00e2 CDF82890 		str	r9, [sp, #40]
 2079              		.loc 1 682 0
 2080 00e6 CDF800C0 		str	ip, [sp]
 2081              		.loc 1 680 0
 2082 00ea 8DF82810 		strb	r1, [sp, #40]
 2083              		.loc 1 681 0
 2084 00ee 8DF82930 		strb	r3, [sp, #41]
 2085              		.loc 1 679 0
 2086 00f2 CDF82C90 		str	r9, [sp, #44]
 2087 00f6 CDF83090 		str	r9, [sp, #48]
 2088 00fa CDF83490 		str	r9, [sp, #52]
 2089              		.loc 1 682 0
 2090 00fe FFF7FEFF 		bl	lwip_htons
 2091              	.LVL244:
 2092              		.loc 1 685 0
 2093 0102 DBF80020 		ldr	r2, [fp]
 2094              		.loc 1 683 0
 2095 0106 DDF800C0 		ldr	ip, [sp]
 2096              		.loc 1 682 0
ARM GAS  /tmp/ccZlncvZ.s 			page 38


 2097 010a ADF82A00 		strh	r0, [sp, #42]	@ movhi
 2098              		.loc 1 685 0
 2099 010e 102A     		cmp	r2, #16
 2100              		.loc 1 683 0
 2101 0110 DCF80030 		ldr	r3, [ip]
 2102              		.loc 1 689 0
 2103 0114 1898     		ldr	r0, [sp, #96]
 2104              		.loc 1 683 0
 2105 0116 0B93     		str	r3, [sp, #44]
 2106              		.loc 1 686 0
 2107 0118 84BF     		itt	hi
 2108 011a 1022     		movhi	r2, #16
 2109 011c CBF80020 		strhi	r2, [fp]
 2110              		.loc 1 689 0
 2111 0120 0AA9     		add	r1, sp, #40
 2112 0122 FFF7FEFF 		bl	memcpy
 2113              	.LVL245:
 2114              	.L307:
 2115              	.LBE96:
 2116              	.LBE98:
 2117              		.loc 1 712 0 discriminator 1
 2118 0126 BAF1000F 		cmp	r10, #0
 2119 012a 11D0     		beq	.L334
 2120              	.LVL246:
 2121              	.L301:
 2122              		.loc 1 733 0
 2123 012c 2FB1     		cbz	r7, .L305
 2124              	.L329:
 2125              		.loc 1 735 0
 2126 012e 0499     		ldr	r1, [sp, #16]
 2127 0130 059B     		ldr	r3, [sp, #20]
 2128 0132 C858     		ldr	r0, [r1, r3]
 2129              	.L328:
 2130 0134 3946     		mov	r1, r7
 2131 0136 FFF7FEFF 		bl	netconn_recved
 2132              	.LVL247:
 2133              	.L305:
 2134              		.loc 1 737 0
 2135 013a 0023     		movs	r3, #0
 2136              		.loc 1 650 0
 2137 013c 3846     		mov	r0, r7
 2138              		.loc 1 737 0
 2139 013e 2361     		str	r3, [r4, #16]
 2140              		.loc 1 739 0
 2141 0140 0FB0     		add	sp, sp, #60
 2142              		@ sp needed
 2143 0142 BDE8F08F 		pop	{r4, r5, r6, r7, r8, r9, r10, fp, pc}
 2144              	.LVL248:
 2145              	.L310:
 2146              		.loc 1 573 0
 2147 0146 4FF0FF30 		mov	r0, #-1
 2148              	.LVL249:
 2149              	.L327:
 2150              		.loc 1 739 0
 2151 014a 0FB0     		add	sp, sp, #60
 2152              		@ sp needed
 2153 014c BDE8F08F 		pop	{r4, r5, r6, r7, r8, r9, r10, fp, pc}
ARM GAS  /tmp/ccZlncvZ.s 			page 39


 2154              	.LVL250:
 2155              	.L334:
 2156 0150 4FF0010A 		mov	r10, #1
 2157              	.LVL251:
 2158              	.L297:
 2159              		.loc 1 716 0
 2160 0154 2368     		ldr	r3, [r4]
 2161 0156 1B78     		ldrb	r3, [r3]	@ zero_extendqisi2
 2162 0158 102B     		cmp	r3, #16
 2163 015a 32D0     		beq	.L335
 2164              		.loc 1 727 0
 2165 015c 0898     		ldr	r0, [sp, #32]
 2166              		.loc 1 721 0
 2167 015e C4F80490 		str	r9, [r4, #4]
 2168              		.loc 1 722 0
 2169 0162 A4F80890 		strh	r9, [r4, #8]	@ movhi
 2170              		.loc 1 727 0
 2171 0166 FFF7FEFF 		bl	netbuf_delete
 2172              	.LVL252:
 2173              		.loc 1 731 0
 2174 016a BAF1000F 		cmp	r10, #0
 2175 016e DDD1     		bne	.L301
 2176              	.LVL253:
 2177              	.L330:
 2178              		.loc 1 579 0
 2179 0170 6368     		ldr	r3, [r4, #4]
 2180 0172 002B     		cmp	r3, #0
 2181 0174 7FF469AF 		bne	.L336
 2182              	.L277:
 2183              		.loc 1 583 0
 2184 0178 039B     		ldr	r3, [sp, #12]
 2185 017a 1BB9     		cbnz	r3, .L279
 2186              		.loc 1 583 0 is_stmt 0 discriminator 2
 2187 017c 2068     		ldr	r0, [r4]
 2188 017e 037F     		ldrb	r3, [r0, #28]	@ zero_extendqisi2
 2189 0180 9A07     		lsls	r2, r3, #30
 2190 0182 04D5     		bpl	.L280
 2191              	.L279:
 2192              		.loc 1 583 0 discriminator 1
 2193 0184 B4F90A30 		ldrsh	r3, [r4, #10]
 2194 0188 002B     		cmp	r3, #0
 2195 018a 5ADD     		ble	.L281
 2196 018c 2068     		ldr	r0, [r4]
 2197              	.L280:
 2198              		.loc 1 599 0 is_stmt 1
 2199 018e 0378     		ldrb	r3, [r0]	@ zero_extendqisi2
 2200 0190 102B     		cmp	r3, #16
 2201              		.loc 1 600 0
 2202 0192 08A9     		add	r1, sp, #32
 2203              		.loc 1 599 0
 2204 0194 23D0     		beq	.L337
 2205              		.loc 1 602 0
 2206 0196 FFF7FEFF 		bl	netconn_recv
 2207              	.LVL254:
 2208              		.loc 1 607 0
 2209 019a 20BB     		cbnz	r0, .L338
 2210              	.LVL255:
ARM GAS  /tmp/ccZlncvZ.s 			page 40


 2211              	.L285:
 2212              		.loc 1 625 0
 2213 019c 089B     		ldr	r3, [sp, #32]
 2214 019e 002B     		cmp	r3, #0
 2215 01a0 4BD0     		beq	.L339
 2216              	.L288:
 2217              		.loc 1 626 0
 2218 01a2 6360     		str	r3, [r4, #4]
 2219 01a4 9A46     		mov	r10, r3
 2220 01a6 52E7     		b	.L278
 2221              	.LVL256:
 2222              	.L331:
 2223              		.loc 1 653 0 discriminator 1
 2224 01a8 FFF7FEFF 		bl	port_halt
 2225              	.LVL257:
 2226              		.loc 1 655 0 discriminator 1
 2227 01ac 761B     		subs	r6, r6, r5
 2228              	.LVL258:
 2229 01ae 7FF471AF 		bne	.L293
 2230              	.L291:
 2231 01b2 019A     		ldr	r2, [sp, #4]
 2232 01b4 02F0010A 		and	r10, r2, #1
 2233              	.LVL259:
 2234 01b8 7FE7     		b	.L294
 2235              	.L332:
 2236 01ba 0199     		ldr	r1, [sp, #4]
 2237 01bc 01F0010A 		and	r10, r1, #1
 2238 01c0 7BE7     		b	.L294
 2239              	.LVL260:
 2240              	.L335:
 2241              		.loc 1 716 0 discriminator 1
 2242 01c2 C5EB0808 		rsb	r8, r5, r8
 2243              	.LVL261:
 2244 01c6 B8F1000F 		cmp	r8, #0
 2245 01ca 1FDD     		ble	.L303
 2246              		.loc 1 718 0
 2247 01cc 2289     		ldrh	r2, [r4, #8]
 2248              		.loc 1 717 0
 2249 01ce 089B     		ldr	r3, [sp, #32]
 2250              		.loc 1 718 0
 2251 01d0 1544     		add	r5, r5, r2
 2252              	.LVL262:
 2253 01d2 2581     		strh	r5, [r4, #8]	@ movhi
 2254              		.loc 1 717 0
 2255 01d4 6360     		str	r3, [r4, #4]
 2256              		.loc 1 731 0
 2257 01d6 BAF1000F 		cmp	r10, #0
 2258 01da C9D0     		beq	.L330
 2259 01dc A6E7     		b	.L301
 2260              	.LVL263:
 2261              	.L337:
 2262              		.loc 1 600 0
 2263 01de FFF7FEFF 		bl	netconn_recv_tcp_pbuf
 2264              	.LVL264:
 2265              		.loc 1 607 0
 2266 01e2 0028     		cmp	r0, #0
 2267 01e4 DAD0     		beq	.L285
ARM GAS  /tmp/ccZlncvZ.s 			page 41


 2268              	.LVL265:
 2269              	.L338:
 2270              		.loc 1 608 0
 2271 01e6 002F     		cmp	r7, #0
 2272 01e8 A1D1     		bne	.L329
 2273              		.loc 1 618 0
 2274 01ea 40B2     		sxtb	r0, r0
 2275 01ec 4342     		negs	r3, r0
 2276 01ee 0F2B     		cmp	r3, #15
 2277 01f0 9BBF     		ittet	ls
 2278 01f2 40F20002 		movwls	r2, #:lower16:.LANCHOR3
 2279 01f6 C0F20002 		movtls	r2, #:upper16:.LANCHOR3
 2280 01fa 0523     		movhi	r3, #5
 2281 01fc 52F82330 		ldrls	r3, [r2, r3, lsl #2]
 2282              		.loc 1 619 0
 2283 0200 0C30     		adds	r0, r0, #12
 2284 0202 18BF     		it	ne
 2285 0204 0120     		movne	r0, #1
 2286 0206 4042     		negs	r0, r0
 2287              		.loc 1 618 0
 2288 0208 2361     		str	r3, [r4, #16]
 2289 020a 9EE7     		b	.L327
 2290              	.LVL266:
 2291              	.L303:
 2292              		.loc 1 725 0
 2293 020c 0898     		ldr	r0, [sp, #32]
 2294              		.loc 1 721 0
 2295 020e C4F80490 		str	r9, [r4, #4]
 2296              		.loc 1 722 0
 2297 0212 A4F80890 		strh	r9, [r4, #8]	@ movhi
 2298              		.loc 1 725 0
 2299 0216 FFF7FEFF 		bl	pbuf_free
 2300              	.LVL267:
 2301              		.loc 1 731 0
 2302 021a BAF1000F 		cmp	r10, #0
 2303 021e A7D0     		beq	.L330
 2304 0220 84E7     		b	.L301
 2305              	.LVL268:
 2306              	.L333:
 2307              	.LBB99:
 2308              	.LBB97:
 2309              		.loc 1 673 0
 2310 0222 09A9     		add	r1, sp, #36
 2311              	.LVL269:
 2312 0224 0DF11E02 		add	r2, sp, #30
 2313 0228 0023     		movs	r3, #0
 2314 022a 0091     		str	r1, [sp]
 2315 022c FFF7FEFF 		bl	netconn_getaddr
 2316              	.LVL270:
 2317 0230 BDF81E00 		ldrh	r0, [sp, #30]
 2318 0234 DDF800C0 		ldr	ip, [sp]
 2319 0238 50E7     		b	.L299
 2320              	.LVL271:
 2321              	.L339:
 2322              	.LBE97:
 2323              	.LBE99:
 2324              		.loc 1 625 0 discriminator 1
ARM GAS  /tmp/ccZlncvZ.s 			page 42


 2325 023a FFF7FEFF 		bl	port_halt
 2326              	.LVL272:
 2327 023e 089B     		ldr	r3, [sp, #32]
 2328 0240 AFE7     		b	.L288
 2329              	.L281:
 2330              		.loc 1 585 0
 2331 0242 1FB1     		cbz	r7, .L282
 2332              		.loc 1 587 0
 2333 0244 049A     		ldr	r2, [sp, #16]
 2334 0246 0599     		ldr	r1, [sp, #20]
 2335 0248 5058     		ldr	r0, [r2, r1]
 2336 024a 73E7     		b	.L328
 2337              	.L282:
 2338              		.loc 1 593 0
 2339 024c 0B23     		movs	r3, #11
 2340 024e 2361     		str	r3, [r4, #16]
 2341              		.loc 1 594 0
 2342 0250 4FF0FF30 		mov	r0, #-1
 2343 0254 79E7     		b	.L327
 2344              		.cfi_endproc
 2345              	.LFE17:
 2346              		.size	lwip_recvfrom, .-lwip_recvfrom
 2347 0256 00BFAFF3 		.section	.text.lwip_read,"ax",%progbits
 2347      0080AFF3 
 2347      0080
 2348              		.align	2
 2349              		.p2align 4,,15
 2350              		.global	lwip_read
 2351              		.thumb
 2352              		.thumb_func
 2353              		.type	lwip_read, %function
 2354              	lwip_read:
 2355              	.LFB18:
 2356              		.loc 1 743 0
 2357              		.cfi_startproc
 2358              		@ args = 0, pretend = 0, frame = 0
 2359              		@ frame_needed = 0, uses_anonymous_args = 0
 2360              	.LVL273:
 2361 0000 00B5     		push	{lr}
 2362              		.cfi_def_cfa_offset 4
 2363              		.cfi_offset 14, -4
 2364 0002 83B0     		sub	sp, sp, #12
 2365              		.cfi_def_cfa_offset 16
 2366              		.loc 1 744 0
 2367 0004 0023     		movs	r3, #0
 2368 0006 0093     		str	r3, [sp]
 2369 0008 0193     		str	r3, [sp, #4]
 2370 000a FFF7FEFF 		bl	lwip_recvfrom
 2371              	.LVL274:
 2372              		.loc 1 745 0
 2373 000e 03B0     		add	sp, sp, #12
 2374              		@ sp needed
 2375 0010 5DF804FB 		ldr	pc, [sp], #4
 2376              		.cfi_endproc
 2377              	.LFE18:
 2378              		.size	lwip_read, .-lwip_read
 2379 0014 AFF30080 		.section	.text.lwip_recv,"ax",%progbits
ARM GAS  /tmp/ccZlncvZ.s 			page 43


 2379      AFF30080 
 2379      AFF30080 
 2380              		.align	2
 2381              		.p2align 4,,15
 2382              		.global	lwip_recv
 2383              		.thumb
 2384              		.thumb_func
 2385              		.type	lwip_recv, %function
 2386              	lwip_recv:
 2387              	.LFB19:
 2388              		.loc 1 749 0
 2389              		.cfi_startproc
 2390              		@ args = 0, pretend = 0, frame = 0
 2391              		@ frame_needed = 0, uses_anonymous_args = 0
 2392              	.LVL275:
 2393 0000 10B5     		push	{r4, lr}
 2394              		.cfi_def_cfa_offset 8
 2395              		.cfi_offset 4, -8
 2396              		.cfi_offset 14, -4
 2397 0002 82B0     		sub	sp, sp, #8
 2398              		.cfi_def_cfa_offset 16
 2399              		.loc 1 750 0
 2400 0004 0024     		movs	r4, #0
 2401 0006 0094     		str	r4, [sp]
 2402 0008 0194     		str	r4, [sp, #4]
 2403 000a FFF7FEFF 		bl	lwip_recvfrom
 2404              	.LVL276:
 2405              		.loc 1 751 0
 2406 000e 02B0     		add	sp, sp, #8
 2407              		@ sp needed
 2408 0010 10BD     		pop	{r4, pc}
 2409              		.cfi_endproc
 2410              	.LFE19:
 2411              		.size	lwip_recv, .-lwip_recv
 2412 0012 00BFAFF3 		.section	.text.lwip_sendto,"ax",%progbits
 2412      0080AFF3 
 2412      0080AFF3 
 2412      0080
 2413              		.align	2
 2414              		.p2align 4,,15
 2415              		.global	lwip_sendto
 2416              		.thumb
 2417              		.thumb_func
 2418              		.type	lwip_sendto, %function
 2419              	lwip_sendto:
 2420              	.LFB21:
 2421              		.loc 1 792 0
 2422              		.cfi_startproc
 2423              		@ args = 8, pretend = 0, frame = 16
 2424              		@ frame_needed = 0, uses_anonymous_args = 0
 2425              	.LVL277:
 2426 0000 2DE9F047 		push	{r4, r5, r6, r7, r8, r9, r10, lr}
 2427              		.cfi_def_cfa_offset 32
 2428              		.cfi_offset 4, -32
 2429              		.cfi_offset 5, -28
 2430              		.cfi_offset 6, -24
 2431              		.cfi_offset 7, -20
ARM GAS  /tmp/ccZlncvZ.s 			page 44


 2432              		.cfi_offset 8, -16
 2433              		.cfi_offset 9, -12
 2434              		.cfi_offset 10, -8
 2435              		.cfi_offset 14, -4
 2436 0004 84B0     		sub	sp, sp, #16
 2437              		.cfi_def_cfa_offset 48
 2438              	.LBB100:
 2439              	.LBB101:
 2440              		.loc 1 199 0
 2441 0006 0328     		cmp	r0, #3
 2442              	.LBE101:
 2443              	.LBE100:
 2444              		.loc 1 792 0
 2445 0008 8A46     		mov	r10, r1
 2446 000a 1746     		mov	r7, r2
 2447              	.LVL278:
 2448 000c 0C9C     		ldr	r4, [sp, #48]
 2449 000e 0D9D     		ldr	r5, [sp, #52]
 2450              	.LBB103:
 2451              	.LBB102:
 2452              		.loc 1 199 0
 2453 0010 47D8     		bhi	.L363
 2454              		.loc 1 205 0
 2455 0012 00EB4006 		add	r6, r0, r0, lsl #1
 2456 0016 40F20008 		movw	r8, #:lower16:.LANCHOR0
 2457 001a F600     		lsls	r6, r6, #3
 2458 001c C0F20008 		movt	r8, #:upper16:.LANCHOR0
 2459 0020 08EB0609 		add	r9, r8, r6
 2460              	.LVL279:
 2461              		.loc 1 207 0
 2462 0024 58F806C0 		ldr	ip, [r8, r6]
 2463 0028 BCF1000F 		cmp	ip, #0
 2464 002c 39D0     		beq	.L363
 2465              	.LBE102:
 2466              	.LBE103:
 2467              		.loc 1 807 0
 2468 002e 9CF800E0 		ldrb	lr, [ip]	@ zero_extendqisi2
 2469 0032 BEF1100F 		cmp	lr, #16
 2470 0036 49D0     		beq	.L364
 2471              		.loc 1 818 0
 2472 0038 B7F5803F 		cmp	r7, #65536
 2473 003c 3CD2     		bcs	.L365
 2474              	.LVL280:
 2475              	.L347:
 2476              		.loc 1 820 0
 2477 003e 002D     		cmp	r5, #0
 2478 0040 08BF     		it	eq
 2479 0042 002C     		cmpeq	r4, #0
 2480              		.loc 1 819 0
 2481 0044 BFB2     		uxth	r7, r7
 2482              	.LVL281:
 2483              		.loc 1 820 0
 2484 0046 0CBF     		ite	eq
 2485 0048 0023     		moveq	r3, #0
 2486 004a 0123     		movne	r3, #1
 2487 004c 2ED0     		beq	.L348
 2488              		.loc 1 820 0 is_stmt 0 discriminator 1
ARM GAS  /tmp/ccZlncvZ.s 			page 45


 2489 004e 102D     		cmp	r5, #16
 2490 0050 3FD1     		bne	.L349
 2491              		.loc 1 820 0 discriminator 2
 2492 0052 6378     		ldrb	r3, [r4, #1]	@ zero_extendqisi2
 2493 0054 022B     		cmp	r3, #2
 2494 0056 3CD1     		bne	.L349
 2495              		.loc 1 820 0 discriminator 1
 2496 0058 14F00303 		ands	r3, r4, #3
 2497 005c 39D1     		bne	.L349
 2498              	.LVL282:
 2499              		.loc 1 901 0 is_stmt 1
 2500 005e 6268     		ldr	r2, [r4, #4]
 2501              		.loc 1 902 0
 2502 0060 6088     		ldrh	r0, [r4, #2]
 2503              		.loc 1 896 0
 2504 0062 0193     		str	r3, [sp, #4]
 2505 0064 0093     		str	r3, [sp]
 2506              		.loc 1 901 0
 2507 0066 0292     		str	r2, [sp, #8]
 2508              		.loc 1 902 0
 2509 0068 FFF7FEFF 		bl	lwip_ntohs
 2510              	.LVL283:
 2511              		.loc 1 903 0
 2512 006c ADF80C00 		strh	r0, [sp, #12]	@ movhi
 2513              	.LVL284:
 2514              	.L355:
 2515              		.loc 1 933 0
 2516 0070 5146     		mov	r1, r10
 2517 0072 6846     		mov	r0, sp
 2518 0074 3A46     		mov	r2, r7
 2519 0076 FFF7FEFF 		bl	netbuf_ref
 2520              	.LVL285:
 2521              		.loc 1 935 0
 2522 007a 0446     		mov	r4, r0
 2523              	.LVL286:
 2524 007c F8B1     		cbz	r0, .L366
 2525              	.LVL287:
 2526              	.L351:
 2527              		.loc 1 941 0
 2528 007e 6846     		mov	r0, sp
 2529 0080 FFF7FEFF 		bl	netbuf_free
 2530              	.LVL288:
 2531              		.loc 1 943 0
 2532 0084 63B2     		sxtb	r3, r4
 2533 0086 5B42     		negs	r3, r3
 2534 0088 0F2B     		cmp	r3, #15
 2535 008a 9BBF     		ittet	ls
 2536 008c 40F20002 		movwls	r2, #:lower16:.LANCHOR3
 2537 0090 C0F20002 		movtls	r2, #:upper16:.LANCHOR3
 2538 0094 0523     		movhi	r3, #5
 2539 0096 52F82330 		ldrls	r3, [r2, r3, lsl #2]
 2540 009a 3846     		mov	r0, r7
 2541 009c C9F81030 		str	r3, [r9, #16]
 2542              		.loc 1 944 0
 2543 00a0 0CB1     		cbz	r4, .L360
 2544              	.LVL289:
 2545              	.L363:
ARM GAS  /tmp/ccZlncvZ.s 			page 46


 2546              		.loc 1 820 0 discriminator 1
 2547 00a2 4FF0FF30 		mov	r0, #-1
 2548              	.L360:
 2549              		.loc 1 945 0
 2550 00a6 04B0     		add	sp, sp, #16
 2551              		@ sp needed
 2552 00a8 BDE8F087 		pop	{r4, r5, r6, r7, r8, r9, r10, pc}
 2553              	.LVL290:
 2554              	.L348:
 2555              		.loc 1 896 0
 2556 00ac 0193     		str	r3, [sp, #4]
 2557 00ae 0093     		str	r3, [sp]
 2558              	.LVL291:
 2559              		.loc 1 906 0
 2560 00b0 0293     		str	r3, [sp, #8]
 2561              		.loc 1 907 0
 2562 00b2 ADF80C30 		strh	r3, [sp, #12]	@ movhi
 2563 00b6 DBE7     		b	.L355
 2564              	.LVL292:
 2565              	.L365:
 2566              		.loc 1 818 0 discriminator 1
 2567 00b8 FFF7FEFF 		bl	port_halt
 2568              	.LVL293:
 2569 00bc BFE7     		b	.L347
 2570              	.LVL294:
 2571              	.L366:
 2572              		.loc 1 937 0
 2573 00be 58F80600 		ldr	r0, [r8, r6]
 2574              	.LVL295:
 2575 00c2 6946     		mov	r1, sp
 2576 00c4 FFF7FEFF 		bl	netconn_send
 2577              	.LVL296:
 2578 00c8 0446     		mov	r4, r0
 2579              	.LVL297:
 2580 00ca D8E7     		b	.L351
 2581              	.LVL298:
 2582              	.L364:
 2583              		.loc 1 809 0
 2584 00cc FFF7FEFF 		bl	lwip_send
 2585              	.LVL299:
 2586 00d0 E9E7     		b	.L360
 2587              	.LVL300:
 2588              	.L349:
 2589              		.loc 1 820 0 discriminator 1
 2590 00d2 FFF7FEFF 		bl	port_halt
 2591              	.LVL301:
 2592 00d6 0523     		movs	r3, #5
 2593 00d8 C9F81030 		str	r3, [r9, #16]
 2594 00dc E1E7     		b	.L363
 2595              		.cfi_endproc
 2596              	.LFE21:
 2597              		.size	lwip_sendto, .-lwip_sendto
 2598 00de 00BF     		.section	.text.lwip_send,"ax",%progbits
 2599              		.align	2
 2600              		.p2align 4,,15
 2601              		.global	lwip_send
 2602              		.thumb
ARM GAS  /tmp/ccZlncvZ.s 			page 47


 2603              		.thumb_func
 2604              		.type	lwip_send, %function
 2605              	lwip_send:
 2606              	.LFB20:
 2607              		.loc 1 755 0
 2608              		.cfi_startproc
 2609              		@ args = 0, pretend = 0, frame = 8
 2610              		@ frame_needed = 0, uses_anonymous_args = 0
 2611              	.LVL302:
 2612 0000 F0B5     		push	{r4, r5, r6, r7, lr}
 2613              		.cfi_def_cfa_offset 20
 2614              		.cfi_offset 4, -20
 2615              		.cfi_offset 5, -16
 2616              		.cfi_offset 6, -12
 2617              		.cfi_offset 7, -8
 2618              		.cfi_offset 14, -4
 2619              	.LBB104:
 2620              	.LBB105:
 2621              		.loc 1 199 0
 2622 0002 0328     		cmp	r0, #3
 2623              	.LBE105:
 2624              	.LBE104:
 2625              		.loc 1 755 0
 2626 0004 85B0     		sub	sp, sp, #20
 2627              		.cfi_def_cfa_offset 40
 2628              		.loc 1 755 0
 2629 0006 1E46     		mov	r6, r3
 2630              	.LBB107:
 2631              	.LBB106:
 2632              		.loc 1 199 0
 2633 0008 2FD8     		bhi	.L370
 2634              		.loc 1 205 0
 2635 000a 00EB4004 		add	r4, r0, r0, lsl #1
 2636 000e 40F20005 		movw	r5, #:lower16:.LANCHOR0
 2637 0012 E400     		lsls	r4, r4, #3
 2638 0014 C0F20005 		movt	r5, #:upper16:.LANCHOR0
 2639 0018 2F19     		adds	r7, r5, r4
 2640              	.LVL303:
 2641              		.loc 1 207 0
 2642 001a 2D59     		ldr	r5, [r5, r4]
 2643 001c 2DB3     		cbz	r5, .L370
 2644              	.LBE106:
 2645              	.LBE107:
 2646              		.loc 1 769 0
 2647 001e 2C78     		ldrb	r4, [r5]	@ zero_extendqisi2
 2648 0020 102C     		cmp	r4, #16
 2649 0022 26D1     		bne	.L386
 2650              		.loc 1 781 0
 2651 0024 04AC     		add	r4, sp, #16
 2652              		.loc 1 778 0
 2653 0026 16F0100F 		tst	r6, #16
 2654              		.loc 1 781 0
 2655 002a 4FF00000 		mov	r0, #0
 2656              	.LVL304:
 2657 002e 44F8040D 		str	r0, [r4, #-4]!
 2658              		.loc 1 778 0
 2659 0032 0CBF     		ite	eq
ARM GAS  /tmp/ccZlncvZ.s 			page 48


 2660 0034 0123     		moveq	r3, #1
 2661 0036 0323     		movne	r3, #3
 2662              	.LVL305:
 2663 0038 16F0080F 		tst	r6, #8
 2664 003c 0CBF     		ite	eq
 2665 003e 0646     		moveq	r6, r0
 2666 0040 0426     		movne	r6, #4
 2667              	.LVL306:
 2668              		.loc 1 782 0
 2669 0042 3343     		orrs	r3, r3, r6
 2670              	.LVL307:
 2671 0044 2846     		mov	r0, r5
 2672 0046 0094     		str	r4, [sp]
 2673 0048 FFF7FEFF 		bl	netconn_write_partly
 2674              	.LVL308:
 2675              		.loc 1 785 0
 2676 004c 4342     		negs	r3, r0
 2677 004e 0F2B     		cmp	r3, #15
 2678 0050 9BBF     		ittet	ls
 2679 0052 40F20002 		movwls	r2, #:lower16:.LANCHOR3
 2680 0056 C0F20002 		movtls	r2, #:upper16:.LANCHOR3
 2681 005a 0523     		movhi	r3, #5
 2682 005c 52F82330 		ldrls	r3, [r2, r3, lsl #2]
 2683 0060 3B61     		str	r3, [r7, #16]
 2684              		.loc 1 786 0
 2685 0062 10B9     		cbnz	r0, .L370
 2686              		.loc 1 786 0 is_stmt 0 discriminator 1
 2687 0064 0398     		ldr	r0, [sp, #12]
 2688              	.LVL309:
 2689              		.loc 1 787 0 is_stmt 1 discriminator 1
 2690 0066 05B0     		add	sp, sp, #20
 2691              		@ sp needed
 2692 0068 F0BD     		pop	{r4, r5, r6, r7, pc}
 2693              	.LVL310:
 2694              	.L370:
 2695              		.loc 1 766 0
 2696 006a 4FF0FF30 		mov	r0, #-1
 2697              		.loc 1 787 0
 2698 006e 05B0     		add	sp, sp, #20
 2699              		@ sp needed
 2700 0070 F0BD     		pop	{r4, r5, r6, r7, pc}
 2701              	.LVL311:
 2702              	.L386:
 2703              		.loc 1 771 0
 2704 0072 0024     		movs	r4, #0
 2705 0074 0094     		str	r4, [sp]
 2706 0076 0194     		str	r4, [sp, #4]
 2707 0078 FFF7FEFF 		bl	lwip_sendto
 2708              	.LVL312:
 2709              		.loc 1 787 0
 2710 007c 05B0     		add	sp, sp, #20
 2711              		@ sp needed
 2712 007e F0BD     		pop	{r4, r5, r6, r7, pc}
 2713              		.cfi_endproc
 2714              	.LFE20:
 2715              		.size	lwip_send, .-lwip_send
 2716              		.section	.text.lwip_socket,"ax",%progbits
ARM GAS  /tmp/ccZlncvZ.s 			page 49


 2717              		.align	2
 2718              		.p2align 4,,15
 2719              		.global	lwip_socket
 2720              		.thumb
 2721              		.thumb_func
 2722              		.type	lwip_socket, %function
 2723              	lwip_socket:
 2724              	.LFB22:
 2725              		.loc 1 949 0
 2726              		.cfi_startproc
 2727              		@ args = 0, pretend = 0, frame = 0
 2728              		@ frame_needed = 0, uses_anonymous_args = 0
 2729              	.LVL313:
 2730              		.loc 1 956 0
 2731 0000 0229     		cmp	r1, #2
 2732              		.loc 1 949 0
 2733 0002 38B5     		push	{r3, r4, r5, lr}
 2734              		.cfi_def_cfa_offset 16
 2735              		.cfi_offset 3, -16
 2736              		.cfi_offset 4, -12
 2737              		.cfi_offset 5, -8
 2738              		.cfi_offset 14, -4
 2739              		.loc 1 949 0
 2740 0004 1046     		mov	r0, r2
 2741              	.LVL314:
 2742              		.loc 1 956 0
 2743 0006 2AD0     		beq	.L389
 2744 0008 0329     		cmp	r1, #3
 2745 000a 1CD0     		beq	.L390
 2746 000c 0129     		cmp	r1, #1
 2747 000e 02D0     		beq	.L404
 2748              	.LVL315:
 2749              	.L403:
 2750              		.loc 1 981 0
 2751 0010 4FF0FF30 		mov	r0, #-1
 2752              		.loc 1 1001 0
 2753 0014 38BD     		pop	{r3, r4, r5, pc}
 2754              	.LVL316:
 2755              	.L404:
 2756              		.loc 1 969 0
 2757 0016 40F20002 		movw	r2, #:lower16:event_callback
 2758 001a C0F20002 		movt	r2, #:upper16:event_callback
 2759 001e 1020     		movs	r0, #16
 2760              	.LVL317:
 2761 0020 0021     		movs	r1, #0
 2762              	.LVL318:
 2763 0022 FFF7FEFF 		bl	netconn_new_with_proto_and_callback
 2764              	.LVL319:
 2765              		.loc 1 972 0
 2766 0026 0446     		mov	r4, r0
 2767 0028 0028     		cmp	r0, #0
 2768 002a F1D0     		beq	.L403
 2769              		.loc 1 974 0 discriminator 1
 2770 002c 037F     		ldrb	r3, [r0, #28]	@ zero_extendqisi2
 2771 002e 43F00803 		orr	r3, r3, #8
 2772 0032 0377     		strb	r3, [r0, #28]
 2773              	.L395:
ARM GAS  /tmp/ccZlncvZ.s 			page 50


 2774              		.loc 1 990 0
 2775 0034 0021     		movs	r1, #0
 2776 0036 2046     		mov	r0, r4
 2777 0038 FFF7FEFF 		bl	alloc_socket
 2778              	.LVL320:
 2779              		.loc 1 992 0
 2780 003c 411C     		adds	r1, r0, #1
 2781              		.loc 1 990 0
 2782 003e 0546     		mov	r5, r0
 2783              	.LVL321:
 2784              		.loc 1 992 0
 2785 0040 1CD0     		beq	.L405
 2786              		.loc 1 997 0
 2787 0042 A061     		str	r0, [r4, #24]
 2788              		.loc 1 1000 0
 2789 0044 38BD     		pop	{r3, r4, r5, pc}
 2790              	.LVL322:
 2791              	.L390:
 2792              		.loc 1 958 0
 2793 0046 40F20002 		movw	r2, #:lower16:event_callback
 2794 004a C1B2     		uxtb	r1, r0
 2795              	.LVL323:
 2796 004c C0F20002 		movt	r2, #:upper16:event_callback
 2797 0050 4020     		movs	r0, #64
 2798              	.LVL324:
 2799 0052 FFF7FEFF 		bl	netconn_new_with_proto_and_callback
 2800              	.LVL325:
 2801 0056 0446     		mov	r4, r0
 2802              	.LVL326:
 2803              		.loc 1 984 0
 2804 0058 002C     		cmp	r4, #0
 2805 005a EBD1     		bne	.L395
 2806 005c D8E7     		b	.L403
 2807              	.LVL327:
 2808              	.L389:
 2809              		.loc 1 963 0
 2810 005e 40F20002 		movw	r2, #:lower16:event_callback
 2811 0062 8828     		cmp	r0, #136
 2812 0064 14BF     		ite	ne
 2813 0066 2020     		movne	r0, #32
 2814 0068 2120     		moveq	r0, #33
 2815              	.LVL328:
 2816 006a C0F20002 		movt	r2, #:upper16:event_callback
 2817 006e 0021     		movs	r1, #0
 2818              	.LVL329:
 2819 0070 FFF7FEFF 		bl	netconn_new_with_proto_and_callback
 2820              	.LVL330:
 2821 0074 0446     		mov	r4, r0
 2822              	.LVL331:
 2823              		.loc 1 984 0
 2824 0076 002C     		cmp	r4, #0
 2825 0078 DCD1     		bne	.L395
 2826 007a C9E7     		b	.L403
 2827              	.LVL332:
 2828              	.L405:
 2829              		.loc 1 993 0
 2830 007c 2046     		mov	r0, r4
ARM GAS  /tmp/ccZlncvZ.s 			page 51


 2831              	.LVL333:
 2832 007e FFF7FEFF 		bl	netconn_delete
 2833              	.LVL334:
 2834              		.loc 1 995 0
 2835 0082 2846     		mov	r0, r5
 2836 0084 38BD     		pop	{r3, r4, r5, pc}
 2837              		.cfi_endproc
 2838              	.LFE22:
 2839              		.size	lwip_socket, .-lwip_socket
 2840 0086 00BFAFF3 		.section	.text.lwip_write,"ax",%progbits
 2840      0080AFF3 
 2840      0080
 2841              		.align	2
 2842              		.p2align 4,,15
 2843              		.global	lwip_write
 2844              		.thumb
 2845              		.thumb_func
 2846              		.type	lwip_write, %function
 2847              	lwip_write:
 2848              	.LFB23:
 2849              		.loc 1 1005 0
 2850              		.cfi_startproc
 2851              		@ args = 0, pretend = 0, frame = 0
 2852              		@ frame_needed = 0, uses_anonymous_args = 0
 2853              		@ link register save eliminated.
 2854              	.LVL335:
 2855              		.loc 1 1006 0
 2856 0000 0023     		movs	r3, #0
 2857 0002 FFF7FEBF 		b	lwip_send
 2858              	.LVL336:
 2859              		.cfi_endproc
 2860              	.LFE23:
 2861              		.size	lwip_write, .-lwip_write
 2862 0006 00BFAFF3 		.section	.text.lwip_select,"ax",%progbits
 2862      0080AFF3 
 2862      0080
 2863              		.align	2
 2864              		.p2align 4,,15
 2865              		.global	lwip_select
 2866              		.thumb
 2867              		.thumb_func
 2868              		.type	lwip_select, %function
 2869              	lwip_select:
 2870              	.LFB25:
 2871              		.loc 1 1090 0
 2872              		.cfi_startproc
 2873              		@ args = 4, pretend = 0, frame = 56
 2874              		@ frame_needed = 0, uses_anonymous_args = 0
 2875              	.LVL337:
 2876 0000 2DE9F04F 		push	{r4, r5, r6, r7, r8, r9, r10, fp, lr}
 2877              		.cfi_def_cfa_offset 36
 2878              		.cfi_offset 4, -36
 2879              		.cfi_offset 5, -32
 2880              		.cfi_offset 6, -28
 2881              		.cfi_offset 7, -24
 2882              		.cfi_offset 8, -20
 2883              		.cfi_offset 9, -16
ARM GAS  /tmp/ccZlncvZ.s 			page 52


 2884              		.cfi_offset 10, -12
 2885              		.cfi_offset 11, -8
 2886              		.cfi_offset 14, -4
 2887 0004 93B0     		sub	sp, sp, #76
 2888              		.cfi_def_cfa_offset 112
 2889              		.loc 1 1107 0
 2890 0006 08AC     		add	r4, sp, #32
 2891 0008 0094     		str	r4, [sp]
 2892 000a 09AC     		add	r4, sp, #36
 2893 000c 0194     		str	r4, [sp, #4]
 2894 000e 0AAC     		add	r4, sp, #40
 2895 0010 0294     		str	r4, [sp, #8]
 2896              		.loc 1 1090 0
 2897 0012 0646     		mov	r6, r0
 2898 0014 0C46     		mov	r4, r1
 2899 0016 1546     		mov	r5, r2
 2900 0018 1F46     		mov	r7, r3
 2901 001a DDF87090 		ldr	r9, [sp, #112]
 2902              		.loc 1 1107 0
 2903 001e FFF7FEFF 		bl	lwip_selscan
 2904              	.LVL338:
 2905              		.loc 1 1110 0
 2906 0022 8046     		mov	r8, r0
 2907 0024 0028     		cmp	r0, #0
 2908 0026 40F0DB80 		bne	.L408
 2909              		.loc 1 1111 0
 2910 002a B9F1000F 		cmp	r9, #0
 2911 002e 07D0     		beq	.L409
 2912              		.loc 1 1111 0 is_stmt 0 discriminator 1
 2913 0030 D9F80030 		ldr	r3, [r9]
 2914 0034 23B9     		cbnz	r3, .L409
 2915 0036 D9F80430 		ldr	r3, [r9, #4]
 2916 003a 002B     		cmp	r3, #0
 2917 003c 00F0D080 		beq	.L408
 2918              	.L409:
 2919              		.loc 1 1123 0 is_stmt 1
 2920 0040 0023     		movs	r3, #0
 2921              		.loc 1 1129 0
 2922 0042 0BAA     		add	r2, sp, #44
 2923 0044 1946     		mov	r1, r3
 2924 0046 11A8     		add	r0, sp, #68
 2925              	.LVL339:
 2926              		.loc 1 1125 0
 2927 0048 0D94     		str	r4, [sp, #52]
 2928              		.loc 1 1126 0
 2929 004a 0E95     		str	r5, [sp, #56]
 2930              		.loc 1 1127 0
 2931 004c 0F97     		str	r7, [sp, #60]
 2932              		.loc 1 1123 0
 2933 004e 0B93     		str	r3, [sp, #44]
 2934              		.loc 1 1124 0
 2935 0050 0C93     		str	r3, [sp, #48]
 2936              		.loc 1 1128 0
 2937 0052 1093     		str	r3, [sp, #64]
 2938              		.loc 1 1129 0
 2939 0054 0592     		str	r2, [sp, #20]
 2940 0056 FFF7FEFF 		bl	sys_sem_new
ARM GAS  /tmp/ccZlncvZ.s 			page 53


 2941              	.LVL340:
 2942              		.loc 1 1130 0
 2943 005a 0028     		cmp	r0, #0
 2944 005c 40F00881 		bne	.L445
 2945              		.loc 1 1140 0
 2946 0060 40F2000B 		movw	fp, #:lower16:.LANCHOR1
 2947 0064 C0F2000B 		movt	fp, #:upper16:.LANCHOR1
 2948 0068 DBF80030 		ldr	r3, [fp]
 2949 006c 0B93     		str	r3, [sp, #44]
 2950              		.loc 1 1141 0
 2951 006e 0BB1     		cbz	r3, .L411
 2952              		.loc 1 1142 0
 2953 0070 0BA9     		add	r1, sp, #44
 2954 0072 5960     		str	r1, [r3, #4]
 2955              	.L411:
 2956              		.loc 1 1146 0
 2957 0074 40F20002 		movw	r2, #:lower16:.LANCHOR2
 2958 0078 C0F20002 		movt	r2, #:upper16:.LANCHOR2
 2959              		.loc 1 1144 0
 2960 007c 0BAB     		add	r3, sp, #44
 2961 007e CBF80030 		str	r3, [fp]
 2962              		.loc 1 1146 0
 2963 0082 1368     		ldr	r3, [r2]
 2964 0084 0692     		str	r2, [sp, #24]
 2965              		.loc 1 1152 0
 2966 0086 002E     		cmp	r6, #0
 2967              		.loc 1 1146 0
 2968 0088 03F10103 		add	r3, r3, #1
 2969 008c C8BF     		it	gt
 2970 008e 40F2000A 		movwgt	r10, #:lower16:.LANCHOR0
 2971 0092 1360     		str	r3, [r2]
 2972              	.LVL341:
 2973 0094 C4BF     		itt	gt
 2974 0096 C0F2000A 		movtgt	r10, #:upper16:.LANCHOR0
 2975              		.loc 1 1152 0
 2976 009a 4FF00008 		movgt	r8, #0
 2977              	.LVL342:
 2978 009e 1FDD     		ble	.L422
 2979              	.LVL343:
 2980              	.L423:
 2981              		.loc 1 1153 0
 2982 00a0 002C     		cmp	r4, #0
 2983 00a2 00F0AE80 		beq	.L415
 2984              		.loc 1 1153 0 is_stmt 0 discriminator 1
 2985 00a6 4FEAE802 		asr	r2, r8, #3
 2986 00aa 08F00703 		and	r3, r8, #7
 2987 00ae A25C     		ldrb	r2, [r4, r2]	@ zero_extendqisi2
 2988 00b0 42FA03F3 		asr	r3, r2, r3
 2989 00b4 DB07     		lsls	r3, r3, #31
 2990 00b6 40F1A480 		bpl	.L415
 2991              	.L416:
 2992              	.LVL344:
 2993              	.LBB108:
 2994              	.LBB109:
 2995              	.LBB110:
 2996              		.loc 1 225 0 is_stmt 1
 2997 00ba B8F1030F 		cmp	r8, #3
ARM GAS  /tmp/ccZlncvZ.s 			page 54


 2998 00be 40F2E180 		bls	.L494
 2999              	.L421:
 3000              	.LBE110:
 3001              	.LBE109:
 3002              		.loc 1 1157 0
 3003 00c2 FFF7FEFF 		bl	port_halt
 3004              	.LVL345:
 3005 00c6 0023     		movs	r3, #0
 3006              	.L443:
 3007              		.loc 1 1159 0
 3008 00c8 5A69     		ldr	r2, [r3, #20]
 3009 00ca 0132     		adds	r2, r2, #1
 3010              		.loc 1 1160 0
 3011 00cc 002A     		cmp	r2, #0
 3012              		.loc 1 1159 0
 3013 00ce 5A61     		str	r2, [r3, #20]
 3014              		.loc 1 1160 0
 3015 00d0 40F3B080 		ble	.L495
 3016              	.LVL346:
 3017              	.L419:
 3018              	.LBE108:
 3019              		.loc 1 1152 0
 3020 00d4 08F10108 		add	r8, r8, #1
 3021              	.LVL347:
 3022 00d8 B045     		cmp	r8, r6
 3023 00da 0AF1180A 		add	r10, r10, #24
 3024 00de DFD1     		bne	.L423
 3025              	.LVL348:
 3026              	.L422:
 3027              		.loc 1 1167 0
 3028 00e0 08A9     		add	r1, sp, #32
 3029 00e2 09AA     		add	r2, sp, #36
 3030 00e4 0AAB     		add	r3, sp, #40
 3031 00e6 0091     		str	r1, [sp]
 3032 00e8 0192     		str	r2, [sp, #4]
 3033 00ea 0293     		str	r3, [sp, #8]
 3034 00ec 3046     		mov	r0, r6
 3035 00ee 2146     		mov	r1, r4
 3036 00f0 2A46     		mov	r2, r5
 3037 00f2 3B46     		mov	r3, r7
 3038 00f4 FFF7FEFF 		bl	lwip_selscan
 3039              	.LVL349:
 3040              		.loc 1 1168 0
 3041 00f8 8046     		mov	r8, r0
 3042 00fa E0B9     		cbnz	r0, .L496
 3043              		.loc 1 1172 0
 3044 00fc 0146     		mov	r1, r0
 3045              		.loc 1 1170 0
 3046 00fe B9F1000F 		cmp	r9, #0
 3047 0102 13D0     		beq	.L424
 3048              		.loc 1 1174 0
 3049 0104 99E80900 		ldmia	r9, {r0, r3}
 3050              	.LVL350:
 3051 0108 44F6D352 		movw	r2, #19923
 3052 010c 03F5FA73 		add	r3, r3, #500
 3053 0110 C1F26202 		movt	r2, 4194
 3054 0114 82FB0312 		smull	r1, r2, r2, r3
ARM GAS  /tmp/ccZlncvZ.s 			page 55


 3055              	.LVL351:
 3056 0118 DB17     		asrs	r3, r3, #31
 3057 011a C3EBA213 		rsb	r3, r3, r2, asr #6
 3058 011e 4FF47A71 		mov	r1, #1000
 3059 0122 01FB0031 		mla	r1, r1, r0, r3
 3060              	.LVL352:
 3061              		.loc 1 1177 0
 3062 0126 0029     		cmp	r1, #0
 3063 0128 08BF     		it	eq
 3064 012a 0121     		moveq	r1, #1
 3065              	.LVL353:
 3066              	.L424:
 3067              		.loc 1 1181 0
 3068 012c 11A8     		add	r0, sp, #68
 3069 012e FFF7FEFF 		bl	sys_arch_sem_wait
 3070              	.LVL354:
 3071 0132 0790     		str	r0, [sp, #28]
 3072              	.LVL355:
 3073 0134 01E0     		b	.L414
 3074              	.LVL356:
 3075              	.L496:
 3076              		.loc 1 1091 0
 3077 0136 0021     		movs	r1, #0
 3078 0138 0791     		str	r1, [sp, #28]
 3079              	.LVL357:
 3080              	.L414:
 3081              		.loc 1 1184 0
 3082 013a 002E     		cmp	r6, #0
 3083 013c C2BF     		ittt	gt
 3084 013e 40F2000A 		movwgt	r10, #:lower16:.LANCHOR0
 3085 0142 C0F2000A 		movtgt	r10, #:upper16:.LANCHOR0
 3086 0146 4FF00009 		movgt	r9, #0
 3087 014a 25DD     		ble	.L435
 3088              	.LVL358:
 3089              	.L436:
 3090              		.loc 1 1185 0
 3091 014c 44B1     		cbz	r4, .L428
 3092              		.loc 1 1185 0 is_stmt 0 discriminator 1
 3093 014e 4FEAE902 		asr	r2, r9, #3
 3094 0152 09F00703 		and	r3, r9, #7
 3095 0156 A25C     		ldrb	r2, [r4, r2]	@ zero_extendqisi2
 3096 0158 42FA03F3 		asr	r3, r2, r3
 3097 015c DA07     		lsls	r2, r3, #31
 3098 015e 0AD4     		bmi	.L429
 3099              	.L428:
 3100              		.loc 1 1185 0 discriminator 2
 3101 0160 002D     		cmp	r5, #0
 3102 0162 6AD0     		beq	.L430
 3103              		.loc 1 1186 0 is_stmt 1
 3104 0164 4FEAE902 		asr	r2, r9, #3
 3105 0168 09F00703 		and	r3, r9, #7
 3106 016c AA5C     		ldrb	r2, [r5, r2]	@ zero_extendqisi2
 3107 016e 42FA03F3 		asr	r3, r2, r3
 3108 0172 DB07     		lsls	r3, r3, #31
 3109 0174 61D5     		bpl	.L430
 3110              	.L429:
 3111              	.LVL359:
ARM GAS  /tmp/ccZlncvZ.s 			page 56


 3112              	.LBB113:
 3113              	.LBB114:
 3114              	.LBB115:
 3115              		.loc 1 225 0
 3116 0176 B9F1030F 		cmp	r9, #3
 3117 017a 7CD9     		bls	.L497
 3118              	.L434:
 3119              	.LBE115:
 3120              	.LBE114:
 3121              		.loc 1 1189 0
 3122 017c FFF7FEFF 		bl	port_halt
 3123              	.LVL360:
 3124 0180 0023     		movs	r3, #0
 3125              	.L444:
 3126              		.loc 1 1191 0
 3127 0182 5A69     		ldr	r2, [r3, #20]
 3128 0184 013A     		subs	r2, r2, #1
 3129              		.loc 1 1192 0
 3130 0186 002A     		cmp	r2, #0
 3131              		.loc 1 1191 0
 3132 0188 5A61     		str	r2, [r3, #20]
 3133              		.loc 1 1192 0
 3134 018a 62DB     		blt	.L498
 3135              	.LVL361:
 3136              	.L432:
 3137              	.LBE113:
 3138              		.loc 1 1184 0
 3139 018c 09F10109 		add	r9, r9, #1
 3140              	.LVL362:
 3141 0190 B145     		cmp	r9, r6
 3142 0192 0AF1180A 		add	r10, r10, #24
 3143 0196 D9D1     		bne	.L436
 3144              	.LVL363:
 3145              	.L435:
 3146              		.loc 1 1198 0
 3147 0198 0B9B     		ldr	r3, [sp, #44]
 3148 019a 0BB1     		cbz	r3, .L427
 3149              		.loc 1 1199 0
 3150 019c 0C9A     		ldr	r2, [sp, #48]
 3151 019e 5A60     		str	r2, [r3, #4]
 3152              	.L427:
 3153              		.loc 1 1201 0
 3154 01a0 DBF80020 		ldr	r2, [fp]
 3155 01a4 0599     		ldr	r1, [sp, #20]
 3156 01a6 8A42     		cmp	r2, r1
 3157              		.loc 1 1202 0
 3158 01a8 0C9A     		ldr	r2, [sp, #48]
 3159              		.loc 1 1201 0
 3160 01aa 55D0     		beq	.L499
 3161              		.loc 1 1205 0
 3162 01ac 002A     		cmp	r2, #0
 3163 01ae 5AD0     		beq	.L500
 3164              	.L440:
 3165              		.loc 1 1206 0
 3166 01b0 1360     		str	r3, [r2]
 3167              	.L439:
 3168              		.loc 1 1209 0
ARM GAS  /tmp/ccZlncvZ.s 			page 57


 3169 01b2 069A     		ldr	r2, [sp, #24]
 3170 01b4 1368     		ldr	r3, [r2]
 3171              		.loc 1 1212 0
 3172 01b6 11A8     		add	r0, sp, #68
 3173              		.loc 1 1209 0
 3174 01b8 0133     		adds	r3, r3, #1
 3175 01ba 1360     		str	r3, [r2]
 3176              		.loc 1 1212 0
 3177 01bc FFF7FEFF 		bl	sys_sem_free
 3178              	.LVL364:
 3179              		.loc 1 1213 0
 3180 01c0 079B     		ldr	r3, [sp, #28]
 3181 01c2 0133     		adds	r3, r3, #1
 3182 01c4 0CD0     		beq	.L408
 3183              		.loc 1 1222 0
 3184 01c6 08A9     		add	r1, sp, #32
 3185 01c8 09AA     		add	r2, sp, #36
 3186 01ca 0AAB     		add	r3, sp, #40
 3187 01cc 0091     		str	r1, [sp]
 3188 01ce 0192     		str	r2, [sp, #4]
 3189 01d0 0293     		str	r3, [sp, #8]
 3190 01d2 3046     		mov	r0, r6
 3191 01d4 2146     		mov	r1, r4
 3192 01d6 2A46     		mov	r2, r5
 3193 01d8 3B46     		mov	r3, r7
 3194 01da FFF7FEFF 		bl	lwip_selscan
 3195              	.LVL365:
 3196 01de 8046     		mov	r8, r0
 3197              	.LVL366:
 3198              	.L408:
 3199              		.loc 1 1228 0
 3200 01e0 14B1     		cbz	r4, .L441
 3201              		.loc 1 1229 0
 3202 01e2 9DF82030 		ldrb	r3, [sp, #32]	@ zero_extendqisi2
 3203 01e6 2370     		strb	r3, [r4]
 3204              	.L441:
 3205              		.loc 1 1231 0
 3206 01e8 15B1     		cbz	r5, .L442
 3207              		.loc 1 1232 0
 3208 01ea 9DF82430 		ldrb	r3, [sp, #36]	@ zero_extendqisi2
 3209 01ee 2B70     		strb	r3, [r5]
 3210              	.L442:
 3211              		.loc 1 1239 0
 3212 01f0 4046     		mov	r0, r8
 3213              		.loc 1 1234 0
 3214 01f2 1FB1     		cbz	r7, .L493
 3215              	.LVL367:
 3216              		.loc 1 1235 0
 3217 01f4 9DF82830 		ldrb	r3, [sp, #40]	@ zero_extendqisi2
 3218              		.loc 1 1239 0
 3219 01f8 4046     		mov	r0, r8
 3220              	.LVL368:
 3221              		.loc 1 1235 0
 3222 01fa 3B70     		strb	r3, [r7]
 3223              	.L493:
 3224              		.loc 1 1240 0
 3225 01fc 13B0     		add	sp, sp, #76
ARM GAS  /tmp/ccZlncvZ.s 			page 58


 3226              		@ sp needed
 3227 01fe BDE8F08F 		pop	{r4, r5, r6, r7, r8, r9, r10, fp, pc}
 3228              	.LVL369:
 3229              	.L415:
 3230              		.loc 1 1153 0 discriminator 2
 3231 0202 4DB1     		cbz	r5, .L417
 3232              		.loc 1 1154 0
 3233 0204 4FEAE802 		asr	r2, r8, #3
 3234 0208 08F00703 		and	r3, r8, #7
 3235 020c AA5C     		ldrb	r2, [r5, r2]	@ zero_extendqisi2
 3236 020e 42FA03F3 		asr	r3, r2, r3
 3237 0212 D807     		lsls	r0, r3, #31
 3238 0214 3FF551AF 		bmi	.L416
 3239              	.L417:
 3240              		.loc 1 1154 0 is_stmt 0 discriminator 1
 3241 0218 002F     		cmp	r7, #0
 3242 021a 3FF45BAF 		beq	.L419
 3243              		.loc 1 1155 0 is_stmt 1
 3244 021e 4FEAE802 		asr	r2, r8, #3
 3245 0222 08F00703 		and	r3, r8, #7
 3246 0226 BA5C     		ldrb	r2, [r7, r2]	@ zero_extendqisi2
 3247 0228 42FA03F3 		asr	r3, r2, r3
 3248 022c D907     		lsls	r1, r3, #31
 3249 022e 7FF551AF 		bpl	.L419
 3250 0232 42E7     		b	.L416
 3251              	.LVL370:
 3252              	.L495:
 3253              	.LBB118:
 3254              		.loc 1 1160 0 discriminator 1
 3255 0234 FFF7FEFF 		bl	port_halt
 3256              	.LVL371:
 3257 0238 4CE7     		b	.L419
 3258              	.LVL372:
 3259              	.L430:
 3260              	.LBE118:
 3261              		.loc 1 1186 0 discriminator 1
 3262 023a 002F     		cmp	r7, #0
 3263 023c A6D0     		beq	.L432
 3264              		.loc 1 1187 0
 3265 023e 4FEAE902 		asr	r2, r9, #3
 3266 0242 09F00703 		and	r3, r9, #7
 3267 0246 BA5C     		ldrb	r2, [r7, r2]	@ zero_extendqisi2
 3268 0248 42FA03F3 		asr	r3, r2, r3
 3269 024c D807     		lsls	r0, r3, #31
 3270 024e 9DD5     		bpl	.L432
 3271 0250 91E7     		b	.L429
 3272              	.LVL373:
 3273              	.L498:
 3274              	.LBB119:
 3275              		.loc 1 1192 0 discriminator 1
 3276 0252 FFF7FEFF 		bl	port_halt
 3277              	.LVL374:
 3278 0256 99E7     		b	.L432
 3279              	.LVL375:
 3280              	.L499:
 3281              	.LBE119:
 3282              		.loc 1 1202 0
ARM GAS  /tmp/ccZlncvZ.s 			page 59


 3283 0258 12B1     		cbz	r2, .L438
 3284              		.loc 1 1202 0 is_stmt 0 discriminator 1
 3285 025a FFF7FEFF 		bl	port_halt
 3286              	.LVL376:
 3287 025e 0B9B     		ldr	r3, [sp, #44]
 3288              	.L438:
 3289              		.loc 1 1203 0 is_stmt 1
 3290 0260 CBF80030 		str	r3, [fp]
 3291 0264 A5E7     		b	.L439
 3292              	.L500:
 3293              		.loc 1 1205 0 discriminator 1
 3294 0266 FFF7FEFF 		bl	port_halt
 3295              	.LVL377:
 3296 026a 0C9A     		ldr	r2, [sp, #48]
 3297 026c 0B9B     		ldr	r3, [sp, #44]
 3298 026e 9FE7     		b	.L440
 3299              	.LVL378:
 3300              	.L445:
 3301              		.loc 1 1133 0
 3302 0270 4FF0FF30 		mov	r0, #-1
 3303              	.LVL379:
 3304 0274 C2E7     		b	.L493
 3305              	.LVL380:
 3306              	.L497:
 3307              	.LBB120:
 3308              	.LBB117:
 3309              	.LBB116:
 3310              		.loc 1 228 0
 3311 0276 DAF80030 		ldr	r3, [r10]
 3312 027a 002B     		cmp	r3, #0
 3313 027c 3FF47EAF 		beq	.L434
 3314              		.loc 1 231 0
 3315 0280 5346     		mov	r3, r10
 3316 0282 7EE7     		b	.L444
 3317              	.LVL381:
 3318              	.L494:
 3319              	.LBE116:
 3320              	.LBE117:
 3321              	.LBE120:
 3322              	.LBB121:
 3323              	.LBB112:
 3324              	.LBB111:
 3325              		.loc 1 228 0
 3326 0284 DAF80030 		ldr	r3, [r10]
 3327 0288 002B     		cmp	r3, #0
 3328 028a 3FF41AAF 		beq	.L421
 3329              		.loc 1 231 0
 3330 028e 5346     		mov	r3, r10
 3331 0290 1AE7     		b	.L443
 3332              	.LBE111:
 3333              	.LBE112:
 3334              	.LBE121:
 3335              		.cfi_endproc
 3336              	.LFE25:
 3337              		.size	lwip_select, .-lwip_select
 3338 0292 00BFAFF3 		.section	.text.lwip_shutdown,"ax",%progbits
 3338      0080AFF3 
ARM GAS  /tmp/ccZlncvZ.s 			page 60


 3338      0080AFF3 
 3338      0080
 3339              		.align	2
 3340              		.p2align 4,,15
 3341              		.global	lwip_shutdown
 3342              		.thumb
 3343              		.thumb_func
 3344              		.type	lwip_shutdown, %function
 3345              	lwip_shutdown:
 3346              	.LFB27:
 3347              		.loc 1 1371 0
 3348              		.cfi_startproc
 3349              		@ args = 0, pretend = 0, frame = 0
 3350              		@ frame_needed = 0, uses_anonymous_args = 0
 3351              	.LVL382:
 3352              	.LBB122:
 3353              	.LBB123:
 3354              		.loc 1 199 0
 3355 0000 0328     		cmp	r0, #3
 3356              	.LBE123:
 3357              	.LBE122:
 3358              		.loc 1 1371 0
 3359 0002 10B5     		push	{r4, lr}
 3360              		.cfi_def_cfa_offset 8
 3361              		.cfi_offset 4, -8
 3362              		.cfi_offset 14, -4
 3363              	.LBB125:
 3364              	.LBB124:
 3365              		.loc 1 199 0
 3366 0004 0FD8     		bhi	.L509
 3367              		.loc 1 205 0
 3368 0006 00EB4000 		add	r0, r0, r0, lsl #1
 3369              	.LVL383:
 3370 000a 40F20003 		movw	r3, #:lower16:.LANCHOR0
 3371 000e C000     		lsls	r0, r0, #3
 3372 0010 C0F20003 		movt	r3, #:upper16:.LANCHOR0
 3373 0014 1C18     		adds	r4, r3, r0
 3374              	.LVL384:
 3375              		.loc 1 207 0
 3376 0016 1858     		ldr	r0, [r3, r0]
 3377 0018 28B1     		cbz	r0, .L509
 3378              	.LBE124:
 3379              	.LBE125:
 3380              		.loc 1 1384 0
 3381 001a 0378     		ldrb	r3, [r0]	@ zero_extendqisi2
 3382 001c 102B     		cmp	r3, #16
 3383 001e 05D0     		beq	.L517
 3384              		.loc 1 1385 0
 3385 0020 5F20     		movs	r0, #95
 3386 0022 2061     		str	r0, [r4, #16]
 3387              		.loc 1 1386 0
 3388 0024 10BD     		pop	{r4, pc}
 3389              	.LVL385:
 3390              	.L509:
 3391              		.loc 1 1380 0
 3392 0026 4FF0FF30 		mov	r0, #-1
 3393 002a 10BD     		pop	{r4, pc}
ARM GAS  /tmp/ccZlncvZ.s 			page 61


 3394              	.LVL386:
 3395              	.L517:
 3396              		.loc 1 1393 0
 3397 002c 31B1     		cbz	r1, .L510
 3398              		.loc 1 1395 0
 3399 002e 0129     		cmp	r1, #1
 3400 0030 18D0     		beq	.L511
 3401              		.loc 1 1397 0
 3402 0032 0229     		cmp	r1, #2
 3403 0034 19D0     		beq	.L512
 3404              		.loc 1 1401 0
 3405 0036 1620     		movs	r0, #22
 3406 0038 2061     		str	r0, [r4, #16]
 3407              		.loc 1 1402 0
 3408 003a 10BD     		pop	{r4, pc}
 3409              	.LVL387:
 3410              	.L510:
 3411              		.loc 1 1374 0
 3412 003c 0A46     		mov	r2, r1
 3413              		.loc 1 1394 0
 3414 003e 0121     		movs	r1, #1
 3415              	.LVL388:
 3416              	.L504:
 3417              		.loc 1 1404 0
 3418 0040 FFF7FEFF 		bl	netconn_shutdown
 3419              	.LVL389:
 3420              		.loc 1 1406 0
 3421 0044 4342     		negs	r3, r0
 3422 0046 0F2B     		cmp	r3, #15
 3423 0048 9BBF     		ittet	ls
 3424 004a 40F20002 		movwls	r2, #:lower16:.LANCHOR3
 3425 004e C0F20002 		movtls	r2, #:upper16:.LANCHOR3
 3426 0052 0523     		movhi	r3, #5
 3427 0054 52F82330 		ldrls	r3, [r2, r3, lsl #2]
 3428              		.loc 1 1407 0
 3429 0058 0038     		subs	r0, r0, #0
 3430 005a 18BF     		it	ne
 3431 005c 6FF00000 		mvnne	r0, #0
 3432              	.LVL390:
 3433              		.loc 1 1406 0
 3434 0060 2361     		str	r3, [r4, #16]
 3435 0062 10BD     		pop	{r4, pc}
 3436              	.LVL391:
 3437              	.L511:
 3438              		.loc 1 1396 0
 3439 0064 0A46     		mov	r2, r1
 3440              		.loc 1 1374 0
 3441 0066 0021     		movs	r1, #0
 3442              	.LVL392:
 3443 0068 EAE7     		b	.L504
 3444              	.LVL393:
 3445              	.L512:
 3446              		.loc 1 1399 0
 3447 006a 0122     		movs	r2, #1
 3448              		.loc 1 1398 0
 3449 006c 1146     		mov	r1, r2
 3450              	.LVL394:
ARM GAS  /tmp/ccZlncvZ.s 			page 62


 3451 006e E7E7     		b	.L504
 3452              		.cfi_endproc
 3453              	.LFE27:
 3454              		.size	lwip_shutdown, .-lwip_shutdown
 3455              		.section	.text.lwip_getpeername,"ax",%progbits
 3456              		.align	2
 3457              		.p2align 4,,15
 3458              		.global	lwip_getpeername
 3459              		.thumb
 3460              		.thumb_func
 3461              		.type	lwip_getpeername, %function
 3462              	lwip_getpeername:
 3463              	.LFB29:
 3464              		.loc 1 1447 0
 3465              		.cfi_startproc
 3466              		@ args = 0, pretend = 0, frame = 0
 3467              		@ frame_needed = 0, uses_anonymous_args = 0
 3468              		@ link register save eliminated.
 3469              	.LVL395:
 3470              		.loc 1 1448 0
 3471 0000 0023     		movs	r3, #0
 3472 0002 FFF7FEBF 		b	lwip_getaddrname
 3473              	.LVL396:
 3474              		.cfi_endproc
 3475              	.LFE29:
 3476              		.size	lwip_getpeername, .-lwip_getpeername
 3477 0006 00BFAFF3 		.section	.text.lwip_getsockname,"ax",%progbits
 3477      0080AFF3 
 3477      0080
 3478              		.align	2
 3479              		.p2align 4,,15
 3480              		.global	lwip_getsockname
 3481              		.thumb
 3482              		.thumb_func
 3483              		.type	lwip_getsockname, %function
 3484              	lwip_getsockname:
 3485              	.LFB30:
 3486              		.loc 1 1453 0
 3487              		.cfi_startproc
 3488              		@ args = 0, pretend = 0, frame = 0
 3489              		@ frame_needed = 0, uses_anonymous_args = 0
 3490              		@ link register save eliminated.
 3491              	.LVL397:
 3492              		.loc 1 1454 0
 3493 0000 0123     		movs	r3, #1
 3494 0002 FFF7FEBF 		b	lwip_getaddrname
 3495              	.LVL398:
 3496              		.cfi_endproc
 3497              	.LFE30:
 3498              		.size	lwip_getsockname, .-lwip_getsockname
 3499 0006 00BFAFF3 		.section	.text.lwip_getsockopt,"ax",%progbits
 3499      0080AFF3 
 3499      0080
 3500              		.align	2
 3501              		.p2align 4,,15
 3502              		.global	lwip_getsockopt
 3503              		.thumb
ARM GAS  /tmp/ccZlncvZ.s 			page 63


 3504              		.thumb_func
 3505              		.type	lwip_getsockopt, %function
 3506              	lwip_getsockopt:
 3507              	.LFB31:
 3508              		.loc 1 1459 0
 3509              		.cfi_startproc
 3510              		@ args = 4, pretend = 0, frame = 24
 3511              		@ frame_needed = 0, uses_anonymous_args = 0
 3512              	.LVL399:
 3513 0000 2DE9F047 		push	{r4, r5, r6, r7, r8, r9, r10, lr}
 3514              		.cfi_def_cfa_offset 32
 3515              		.cfi_offset 4, -32
 3516              		.cfi_offset 5, -28
 3517              		.cfi_offset 6, -24
 3518              		.cfi_offset 7, -20
 3519              		.cfi_offset 8, -16
 3520              		.cfi_offset 9, -12
 3521              		.cfi_offset 10, -8
 3522              		.cfi_offset 14, -4
 3523 0004 86B0     		sub	sp, sp, #24
 3524              		.cfi_def_cfa_offset 56
 3525              	.LBB126:
 3526              	.LBB127:
 3527              		.loc 1 199 0
 3528 0006 0328     		cmp	r0, #3
 3529              	.LBE127:
 3530              	.LBE126:
 3531              		.loc 1 1459 0
 3532 0008 0C46     		mov	r4, r1
 3533 000a 1746     		mov	r7, r2
 3534 000c 0E9E     		ldr	r6, [sp, #56]
 3535              	.LBB129:
 3536              	.LBB128:
 3537              		.loc 1 199 0
 3538 000e 20D8     		bhi	.L538
 3539              		.loc 1 205 0
 3540 0010 00EB4000 		add	r0, r0, r0, lsl #1
 3541              	.LVL400:
 3542 0014 40F20005 		movw	r5, #:lower16:.LANCHOR0
 3543 0018 4FEAC009 		lsl	r9, r0, #3
 3544 001c C0F20005 		movt	r5, #:upper16:.LANCHOR0
 3545 0020 05EB090A 		add	r10, r5, r9
 3546              	.LVL401:
 3547              		.loc 1 207 0
 3548 0024 55F80910 		ldr	r1, [r5, r9]
 3549              	.LVL402:
 3550 0028 99B1     		cbz	r1, .L538
 3551              	.LBE128:
 3552              	.LBE129:
 3553              		.loc 1 1468 0
 3554 002a 002E     		cmp	r6, #0
 3555 002c 18BF     		it	ne
 3556 002e 002B     		cmpne	r3, #0
 3557 0030 14BF     		ite	ne
 3558 0032 0020     		movne	r0, #0
 3559 0034 0120     		moveq	r0, #1
 3560 0036 63D0     		beq	.L568
ARM GAS  /tmp/ccZlncvZ.s 			page 64


 3561              		.loc 1 1474 0
 3562 0038 062C     		cmp	r4, #6
 3563 003a 0FD0     		beq	.L524
 3564 003c 40F6FF72 		movw	r2, #4095
 3565              	.LVL403:
 3566 0040 9442     		cmp	r4, r2
 3567 0042 3AD0     		beq	.L525
 3568 0044 7CB1     		cbz	r4, .L569
 3569              	.L549:
 3570              		.loc 1 1583 0
 3571 0046 5C23     		movs	r3, #92
 3572              	.LVL404:
 3573              	.L536:
 3574              		.loc 1 1634 0
 3575 0048 CAF81030 		str	r3, [r10, #16]
 3576              		.loc 1 1635 0
 3577 004c 4FF0FF30 		mov	r0, #-1
 3578 0050 01E0     		b	.L563
 3579              	.LVL405:
 3580              	.L538:
 3581              		.loc 1 1465 0
 3582 0052 4FF0FF30 		mov	r0, #-1
 3583              	.LVL406:
 3584              	.L563:
 3585              		.loc 1 1655 0
 3586 0056 06B0     		add	sp, sp, #24
 3587              		@ sp needed
 3588 0058 BDE8F087 		pop	{r4, r5, r6, r7, r8, r9, r10, pc}
 3589              	.LVL407:
 3590              	.L524:
 3591              		.loc 1 1574 0
 3592 005c 3268     		ldr	r2, [r6]
 3593              	.LVL408:
 3594 005e 032A     		cmp	r2, #3
 3595 0060 42D8     		bhi	.L570
 3596              	.L547:
 3597 0062 1623     		movs	r3, #22
 3598              	.LVL409:
 3599 0064 F0E7     		b	.L536
 3600              	.LVL410:
 3601              	.L569:
 3602              		.loc 1 1533 0
 3603 0066 7A1E     		subs	r2, r7, #1
 3604 0068 012A     		cmp	r2, #1
 3605 006a ECD8     		bhi	.L549
 3606              	.L567:
 3607              		.loc 1 1539 0
 3608 006c 3268     		ldr	r2, [r6]
 3609 006e 032A     		cmp	r2, #3
 3610 0070 F7D9     		bls	.L547
 3611              	.LVL411:
 3612              	.L530:
 3613              		.loc 1 1648 0
 3614 0072 40F20000 		movw	r0, #:lower16:lwip_getsockopt_internal
 3615              		.loc 1 1647 0
 3616 0076 4FF00008 		mov	r8, #0
 3617              		.loc 1 1648 0
ARM GAS  /tmp/ccZlncvZ.s 			page 65


 3618 007a 6946     		mov	r1, sp
 3619 007c 0122     		movs	r2, #1
 3620 007e C0F20000 		movt	r0, #:upper16:lwip_getsockopt_internal
 3621              		.loc 1 1645 0
 3622 0082 0393     		str	r3, [sp, #12]
 3623              		.loc 1 1639 0
 3624 0084 CDF800A0 		str	r10, [sp]
 3625              		.loc 1 1643 0
 3626 0088 0194     		str	r4, [sp, #4]
 3627              		.loc 1 1644 0
 3628 008a 0297     		str	r7, [sp, #8]
 3629              		.loc 1 1646 0
 3630 008c 0496     		str	r6, [sp, #16]
 3631              		.loc 1 1647 0
 3632 008e 8DF81480 		strb	r8, [sp, #20]
 3633              		.loc 1 1648 0
 3634 0092 FFF7FEFF 		bl	tcpip_callback_with_block
 3635              	.LVL412:
 3636              		.loc 1 1649 0
 3637 0096 55F80900 		ldr	r0, [r5, r9]
 3638 009a 4146     		mov	r1, r8
 3639 009c 0C30     		adds	r0, r0, #12
 3640 009e FFF7FEFF 		bl	sys_arch_sem_wait
 3641              	.LVL413:
 3642              		.loc 1 1653 0
 3643 00a2 9DF91400 		ldrsb	r0, [sp, #20]
 3644 00a6 CAF81000 		str	r0, [r10, #16]
 3645              		.loc 1 1654 0
 3646 00aa B0EB0800 		subs	r0, r0, r8
 3647 00ae 18BF     		it	ne
 3648 00b0 6FF00000 		mvnne	r0, #0
 3649              		.loc 1 1655 0
 3650 00b4 06B0     		add	sp, sp, #24
 3651              		@ sp needed
 3652 00b6 BDE8F087 		pop	{r4, r5, r6, r7, r8, r9, r10, pc}
 3653              	.LVL414:
 3654              	.L525:
 3655              		.loc 1 1478 0
 3656 00ba 202F     		cmp	r7, #32
 3657 00bc D6D0     		beq	.L567
 3658 00be 1ADD     		ble	.L571
 3659 00c0 41F20702 		movw	r2, #4103
 3660 00c4 9742     		cmp	r7, r2
 3661 00c6 BEDB     		blt	.L549
 3662 00c8 0132     		adds	r2, r2, #1
 3663 00ca 9742     		cmp	r7, r2
 3664 00cc CEDD     		ble	.L567
 3665 00ce 0232     		adds	r2, r2, #2
 3666 00d0 9742     		cmp	r7, r2
 3667 00d2 B8D1     		bne	.L549
 3668              		.loc 1 1512 0
 3669 00d4 3268     		ldr	r2, [r6]
 3670              		.loc 1 1516 0
 3671 00d6 0878     		ldrb	r0, [r1]	@ zero_extendqisi2
 3672              		.loc 1 1460 0
 3673 00d8 032A     		cmp	r2, #3
 3674 00da 94BF     		ite	ls
ARM GAS  /tmp/ccZlncvZ.s 			page 66


 3675 00dc 1622     		movls	r2, #22
 3676 00de 0022     		movhi	r2, #0
 3677              	.LVL415:
 3678              		.loc 1 1516 0
 3679 00e0 2028     		cmp	r0, #32
 3680 00e2 13D0     		beq	.L572
 3681              	.L544:
 3682 00e4 6123     		movs	r3, #97
 3683              	.LVL416:
 3684 00e6 AFE7     		b	.L536
 3685              	.LVL417:
 3686              	.L570:
 3687              		.loc 1 1580 0
 3688 00e8 0A78     		ldrb	r2, [r1]	@ zero_extendqisi2
 3689 00ea 102A     		cmp	r2, #16
 3690 00ec B3D1     		bne	.L563
 3691              		.loc 1 1583 0
 3692 00ee 7A1E     		subs	r2, r7, #1
 3693 00f0 012A     		cmp	r2, #1
 3694 00f2 A8D8     		bhi	.L549
 3695 00f4 BDE7     		b	.L530
 3696              	.L571:
 3697              		.loc 1 1478 0
 3698 00f6 022F     		cmp	r7, #2
 3699 00f8 B8D0     		beq	.L567
 3700 00fa 082F     		cmp	r7, #8
 3701 00fc A3D1     		bne	.L549
 3702 00fe B5E7     		b	.L567
 3703              	.LVL418:
 3704              	.L568:
 3705              		.loc 1 1469 0
 3706 0100 0E23     		movs	r3, #14
 3707              	.LVL419:
 3708 0102 CAF81030 		str	r3, [r10, #16]
 3709              		.loc 1 1470 0
 3710 0106 4FF0FF30 		mov	r0, #-1
 3711 010a A4E7     		b	.L563
 3712              	.LVL420:
 3713              	.L572:
 3714              		.loc 1 1517 0 discriminator 1
 3715 010c 4968     		ldr	r1, [r1, #4]
 3716 010e 097C     		ldrb	r1, [r1, #16]	@ zero_extendqisi2
 3717              		.loc 1 1516 0 discriminator 1
 3718 0110 8907     		lsls	r1, r1, #30
 3719 0112 E7D4     		bmi	.L544
 3720              		.loc 1 1633 0
 3721 0114 002A     		cmp	r2, #0
 3722 0116 ACD0     		beq	.L530
 3723 0118 53B2     		sxtb	r3, r2
 3724              	.LVL421:
 3725 011a 95E7     		b	.L536
 3726              		.cfi_endproc
 3727              	.LFE31:
 3728              		.size	lwip_getsockopt, .-lwip_getsockopt
 3729              		.section	.text.lwip_setsockopt,"ax",%progbits
 3730              		.align	2
 3731              		.p2align 4,,15
ARM GAS  /tmp/ccZlncvZ.s 			page 67


 3732              		.global	lwip_setsockopt
 3733              		.thumb
 3734              		.thumb_func
 3735              		.type	lwip_setsockopt, %function
 3736              	lwip_setsockopt:
 3737              	.LFB33:
 3738              		.loc 1 1867 0
 3739              		.cfi_startproc
 3740              		@ args = 4, pretend = 0, frame = 24
 3741              		@ frame_needed = 0, uses_anonymous_args = 0
 3742              	.LVL422:
 3743 0000 2DE9F043 		push	{r4, r5, r6, r7, r8, r9, lr}
 3744              		.cfi_def_cfa_offset 28
 3745              		.cfi_offset 4, -28
 3746              		.cfi_offset 5, -24
 3747              		.cfi_offset 6, -20
 3748              		.cfi_offset 7, -16
 3749              		.cfi_offset 8, -12
 3750              		.cfi_offset 9, -8
 3751              		.cfi_offset 14, -4
 3752              	.LBB130:
 3753              	.LBB131:
 3754              		.loc 1 199 0
 3755 0004 0328     		cmp	r0, #3
 3756              	.LBE131:
 3757              	.LBE130:
 3758              		.loc 1 1867 0
 3759 0006 87B0     		sub	sp, sp, #28
 3760              		.cfi_def_cfa_offset 56
 3761              		.loc 1 1867 0
 3762 0008 0C46     		mov	r4, r1
 3763 000a 1646     		mov	r6, r2
 3764              	.LBB133:
 3765              	.LBB132:
 3766              		.loc 1 199 0
 3767 000c 1BD8     		bhi	.L590
 3768              		.loc 1 205 0
 3769 000e 00EB4000 		add	r0, r0, r0, lsl #1
 3770              	.LVL423:
 3771 0012 40F20005 		movw	r5, #:lower16:.LANCHOR0
 3772 0016 4FEAC008 		lsl	r8, r0, #3
 3773 001a C0F20005 		movt	r5, #:upper16:.LANCHOR0
 3774 001e 05EB0809 		add	r9, r5, r8
 3775              	.LVL424:
 3776              		.loc 1 207 0
 3777 0022 55F80810 		ldr	r1, [r5, r8]
 3778              	.LVL425:
 3779 0026 71B1     		cbz	r1, .L590
 3780              	.LVL426:
 3781              	.LBE132:
 3782              	.LBE133:
 3783              		.loc 1 1876 0
 3784 0028 002B     		cmp	r3, #0
 3785 002a 63D0     		beq	.L618
 3786              		.loc 1 1882 0
 3787 002c 062C     		cmp	r4, #6
 3788 002e 0FD0     		beq	.L577
ARM GAS  /tmp/ccZlncvZ.s 			page 68


 3789 0030 40F6FF72 		movw	r2, #4095
 3790              	.LVL427:
 3791 0034 9442     		cmp	r4, r2
 3792 0036 39D0     		beq	.L578
 3793 0038 7CB1     		cbz	r4, .L619
 3794              	.L601:
 3795              		.loc 1 2000 0
 3796 003a 5C23     		movs	r3, #92
 3797              	.LVL428:
 3798              	.L588:
 3799              		.loc 1 2050 0
 3800 003c C9F81030 		str	r3, [r9, #16]
 3801              		.loc 1 2051 0
 3802 0040 4FF0FF30 		mov	r0, #-1
 3803 0044 01E0     		b	.L612
 3804              	.LVL429:
 3805              	.L590:
 3806              		.loc 1 1873 0
 3807 0046 4FF0FF30 		mov	r0, #-1
 3808              	.LVL430:
 3809              	.L612:
 3810              		.loc 1 2072 0
 3811 004a 07B0     		add	sp, sp, #28
 3812              		@ sp needed
 3813 004c BDE8F083 		pop	{r4, r5, r6, r7, r8, r9, pc}
 3814              	.LVL431:
 3815              	.L577:
 3816              		.loc 1 1991 0
 3817 0050 0E9A     		ldr	r2, [sp, #56]
 3818              	.LVL432:
 3819 0052 032A     		cmp	r2, #3
 3820 0054 33D8     		bhi	.L620
 3821              	.L599:
 3822 0056 1623     		movs	r3, #22
 3823              	.LVL433:
 3824 0058 F0E7     		b	.L588
 3825              	.LVL434:
 3826              	.L619:
 3827              		.loc 1 1936 0
 3828 005a 721E     		subs	r2, r6, #1
 3829 005c 012A     		cmp	r2, #1
 3830 005e ECD8     		bhi	.L601
 3831              	.L617:
 3832              		.loc 1 1942 0
 3833 0060 0E9A     		ldr	r2, [sp, #56]
 3834 0062 032A     		cmp	r2, #3
 3835 0064 F7D9     		bls	.L599
 3836              	.LVL435:
 3837              	.L582:
 3838              		.loc 1 2065 0
 3839 0066 40F20000 		movw	r0, #:lower16:lwip_setsockopt_internal
 3840              		.loc 1 2064 0
 3841 006a 0027     		movs	r7, #0
 3842              		.loc 1 2065 0
 3843 006c 6946     		mov	r1, sp
 3844 006e 0122     		movs	r2, #1
 3845              		.loc 1 2062 0
ARM GAS  /tmp/ccZlncvZ.s 			page 69


 3846 0070 0393     		str	r3, [sp, #12]
 3847              		.loc 1 2065 0
 3848 0072 C0F20000 		movt	r0, #:upper16:lwip_setsockopt_internal
 3849              		.loc 1 2063 0
 3850 0076 0EAB     		add	r3, sp, #56
 3851              	.LVL436:
 3852 0078 0493     		str	r3, [sp, #16]
 3853              		.loc 1 2056 0
 3854 007a CDF80090 		str	r9, [sp]
 3855              		.loc 1 2060 0
 3856 007e 0194     		str	r4, [sp, #4]
 3857              		.loc 1 2061 0
 3858 0080 0296     		str	r6, [sp, #8]
 3859              		.loc 1 2064 0
 3860 0082 8DF81470 		strb	r7, [sp, #20]
 3861              		.loc 1 2065 0
 3862 0086 FFF7FEFF 		bl	tcpip_callback_with_block
 3863              	.LVL437:
 3864              		.loc 1 2066 0
 3865 008a 55F80800 		ldr	r0, [r5, r8]
 3866 008e 3946     		mov	r1, r7
 3867 0090 0C30     		adds	r0, r0, #12
 3868 0092 FFF7FEFF 		bl	sys_arch_sem_wait
 3869              	.LVL438:
 3870              		.loc 1 2070 0
 3871 0096 9DF91400 		ldrsb	r0, [sp, #20]
 3872 009a C9F81000 		str	r0, [r9, #16]
 3873              		.loc 1 2071 0
 3874 009e C01B     		subs	r0, r0, r7
 3875 00a0 18BF     		it	ne
 3876 00a2 6FF00000 		mvnne	r0, #0
 3877              		.loc 1 2072 0
 3878 00a6 07B0     		add	sp, sp, #28
 3879              		@ sp needed
 3880 00a8 BDE8F083 		pop	{r4, r5, r6, r7, r8, r9, pc}
 3881              	.LVL439:
 3882              	.L578:
 3883              		.loc 1 1886 0
 3884 00ac 202E     		cmp	r6, #32
 3885 00ae D7D0     		beq	.L617
 3886 00b0 41F20A02 		movw	r2, #4106
 3887 00b4 9642     		cmp	r6, r2
 3888 00b6 0BD0     		beq	.L581
 3889 00b8 082E     		cmp	r6, #8
 3890 00ba BED1     		bne	.L601
 3891 00bc D0E7     		b	.L617
 3892              	.L620:
 3893              		.loc 1 1997 0
 3894 00be 0A78     		ldrb	r2, [r1]	@ zero_extendqisi2
 3895 00c0 102A     		cmp	r2, #16
 3896              		.loc 1 1998 0
 3897 00c2 18BF     		it	ne
 3898 00c4 0020     		movne	r0, #0
 3899              		.loc 1 1997 0
 3900 00c6 C0D1     		bne	.L612
 3901              		.loc 1 2000 0
 3902 00c8 721E     		subs	r2, r6, #1
ARM GAS  /tmp/ccZlncvZ.s 			page 70


 3903 00ca 012A     		cmp	r2, #1
 3904 00cc B5D8     		bhi	.L601
 3905 00ce CAE7     		b	.L582
 3906              	.L581:
 3907              		.loc 1 1916 0
 3908 00d0 0E9A     		ldr	r2, [sp, #56]
 3909              		.loc 1 1920 0
 3910 00d2 0878     		ldrb	r0, [r1]	@ zero_extendqisi2
 3911              		.loc 1 1869 0
 3912 00d4 032A     		cmp	r2, #3
 3913 00d6 94BF     		ite	ls
 3914 00d8 1622     		movls	r2, #22
 3915 00da 0022     		movhi	r2, #0
 3916              	.LVL440:
 3917              		.loc 1 1920 0
 3918 00dc 2028     		cmp	r0, #32
 3919 00de 01D0     		beq	.L621
 3920              	.L596:
 3921 00e0 6123     		movs	r3, #97
 3922              	.LVL441:
 3923 00e2 ABE7     		b	.L588
 3924              	.LVL442:
 3925              	.L621:
 3926              		.loc 1 1921 0 discriminator 1
 3927 00e4 4968     		ldr	r1, [r1, #4]
 3928 00e6 097C     		ldrb	r1, [r1, #16]	@ zero_extendqisi2
 3929              		.loc 1 1920 0 discriminator 1
 3930 00e8 8807     		lsls	r0, r1, #30
 3931 00ea F9D4     		bmi	.L596
 3932              		.loc 1 2049 0
 3933 00ec 002A     		cmp	r2, #0
 3934 00ee BAD0     		beq	.L582
 3935 00f0 53B2     		sxtb	r3, r2
 3936              	.LVL443:
 3937 00f2 A3E7     		b	.L588
 3938              	.LVL444:
 3939              	.L618:
 3940              		.loc 1 1877 0
 3941 00f4 0E23     		movs	r3, #14
 3942              	.LVL445:
 3943 00f6 C9F81030 		str	r3, [r9, #16]
 3944              		.loc 1 1878 0
 3945 00fa 4FF0FF30 		mov	r0, #-1
 3946 00fe A4E7     		b	.L612
 3947              		.cfi_endproc
 3948              	.LFE33:
 3949              		.size	lwip_setsockopt, .-lwip_setsockopt
 3950              		.section	.text.lwip_ioctl,"ax",%progbits
 3951              		.align	2
 3952              		.p2align 4,,15
 3953              		.global	lwip_ioctl
 3954              		.thumb
 3955              		.thumb_func
 3956              		.type	lwip_ioctl, %function
 3957              	lwip_ioctl:
 3958              	.LFB35:
 3959              		.loc 1 2285 0
ARM GAS  /tmp/ccZlncvZ.s 			page 71


 3960              		.cfi_startproc
 3961              		@ args = 0, pretend = 0, frame = 0
 3962              		@ frame_needed = 0, uses_anonymous_args = 0
 3963              		@ link register save eliminated.
 3964              	.LVL446:
 3965              	.LBB134:
 3966              	.LBB135:
 3967              		.loc 1 199 0
 3968 0000 0328     		cmp	r0, #3
 3969              	.LBE135:
 3970              	.LBE134:
 3971              		.loc 1 2285 0
 3972 0002 10B4     		push	{r4}
 3973              		.cfi_def_cfa_offset 4
 3974              		.cfi_offset 4, -4
 3975              	.LBB137:
 3976              	.LBB136:
 3977              		.loc 1 199 0
 3978 0004 1BD8     		bhi	.L631
 3979              		.loc 1 205 0
 3980 0006 00EB4000 		add	r0, r0, r0, lsl #1
 3981              	.LVL447:
 3982 000a 40F20003 		movw	r3, #:lower16:.LANCHOR0
 3983 000e C000     		lsls	r0, r0, #3
 3984 0010 C0F20003 		movt	r3, #:upper16:.LANCHOR0
 3985 0014 1C18     		adds	r4, r3, r0
 3986              	.LVL448:
 3987              		.loc 1 207 0
 3988 0016 1B58     		ldr	r3, [r3, r0]
 3989 0018 8BB1     		cbz	r3, .L631
 3990              	.LBE136:
 3991              	.LBE137:
 3992              		.loc 1 2297 0
 3993 001a 46F27E60 		movw	r0, #26238
 3994 001e C8F20400 		movt	r0, 32772
 3995 0022 8142     		cmp	r1, r0
 3996 0024 15D1     		bne	.L638
 3997              	.LVL449:
 3998              		.loc 1 2330 0
 3999 0026 7AB1     		cbz	r2, .L626
 4000              		.loc 1 2330 0 is_stmt 0 discriminator 1
 4001 0028 1268     		ldr	r2, [r2]
 4002              	.LVL450:
 4003 002a 6AB1     		cbz	r2, .L626
 4004              	.LVL451:
 4005              		.loc 1 2333 0 is_stmt 1
 4006 002c 1A7F     		ldrb	r2, [r3, #28]	@ zero_extendqisi2
 4007 002e 42F00202 		orr	r2, r2, #2
 4008 0032 1A77     		strb	r2, [r3, #28]
 4009              	.LVL452:
 4010              	.L629:
 4011              		.loc 1 2335 0
 4012 0034 0020     		movs	r0, #0
 4013 0036 2061     		str	r0, [r4, #16]
 4014              		.loc 1 2343 0
 4015 0038 5DF8044B 		ldr	r4, [sp], #4
 4016              	.LVL453:
ARM GAS  /tmp/ccZlncvZ.s 			page 72


 4017 003c 7047     		bx	lr
 4018              	.LVL454:
 4019              	.L631:
 4020              		.loc 1 2294 0
 4021 003e 4FF0FF30 		mov	r0, #-1
 4022              	.L636:
 4023              		.loc 1 2343 0
 4024 0042 5DF8044B 		ldr	r4, [sp], #4
 4025 0046 7047     		bx	lr
 4026              	.LVL455:
 4027              	.L626:
 4028              		.loc 1 2333 0
 4029 0048 1A7F     		ldrb	r2, [r3, #28]	@ zero_extendqisi2
 4030 004a 22F00202 		bic	r2, r2, #2
 4031 004e 1A77     		strb	r2, [r3, #28]
 4032 0050 F0E7     		b	.L629
 4033              	.LVL456:
 4034              	.L638:
 4035              		.loc 1 2340 0
 4036 0052 2623     		movs	r3, #38
 4037 0054 2361     		str	r3, [r4, #16]
 4038              		.loc 1 2341 0
 4039 0056 4FF0FF30 		mov	r0, #-1
 4040 005a F2E7     		b	.L636
 4041              		.cfi_endproc
 4042              	.LFE35:
 4043              		.size	lwip_ioctl, .-lwip_ioctl
 4044 005c AFF30080 		.section	.text.lwip_fcntl,"ax",%progbits
 4045              		.align	2
 4046              		.p2align 4,,15
 4047              		.global	lwip_fcntl
 4048              		.thumb
 4049              		.thumb_func
 4050              		.type	lwip_fcntl, %function
 4051              	lwip_fcntl:
 4052              	.LFB36:
 4053              		.loc 1 2351 0
 4054              		.cfi_startproc
 4055              		@ args = 0, pretend = 0, frame = 0
 4056              		@ frame_needed = 0, uses_anonymous_args = 0
 4057              		@ link register save eliminated.
 4058              	.LVL457:
 4059              	.LBB138:
 4060              	.LBB139:
 4061              		.loc 1 199 0
 4062 0000 0328     		cmp	r0, #3
 4063 0002 15D8     		bhi	.L651
 4064              	.LVL458:
 4065              		.loc 1 205 0
 4066 0004 40F20003 		movw	r3, #:lower16:.LANCHOR0
 4067 0008 00EB4000 		add	r0, r0, r0, lsl #1
 4068              	.LVL459:
 4069 000c C0F20003 		movt	r3, #:upper16:.LANCHOR0
 4070              		.loc 1 207 0
 4071 0010 53F83030 		ldr	r3, [r3, r0, lsl #3]
 4072 0014 63B1     		cbz	r3, .L651
 4073              	.LVL460:
ARM GAS  /tmp/ccZlncvZ.s 			page 73


 4074              	.LBE139:
 4075              	.LBE138:
 4076              		.loc 1 2359 0
 4077 0016 0329     		cmp	r1, #3
 4078 0018 0DD0     		beq	.L642
 4079 001a 0429     		cmp	r1, #4
 4080 001c 08D1     		bne	.L651
 4081              		.loc 1 2364 0
 4082 001e 32F00100 		bics	r0, r2, #1
 4083 0022 05D1     		bne	.L651
 4084              		.loc 1 2366 0
 4085 0024 5AB1     		cbz	r2, .L644
 4086              		.loc 1 2366 0 is_stmt 0 discriminator 1
 4087 0026 1A7F     		ldrb	r2, [r3, #28]	@ zero_extendqisi2
 4088              	.LVL461:
 4089 0028 42F00202 		orr	r2, r2, #2
 4090 002c 1A77     		strb	r2, [r3, #28]
 4091 002e 7047     		bx	lr
 4092              	.LVL462:
 4093              	.L651:
 4094              		.loc 1 2353 0 is_stmt 1
 4095 0030 4FF0FF30 		mov	r0, #-1
 4096 0034 7047     		bx	lr
 4097              	.LVL463:
 4098              	.L642:
 4099              		.loc 1 2361 0
 4100 0036 187F     		ldrb	r0, [r3, #28]	@ zero_extendqisi2
 4101 0038 C0F34000 		ubfx	r0, r0, #1, #1
 4102              	.LVL464:
 4103              		.loc 1 2362 0
 4104 003c 7047     		bx	lr
 4105              	.LVL465:
 4106              	.L644:
 4107              		.loc 1 2366 0 discriminator 2
 4108 003e 1A7F     		ldrb	r2, [r3, #28]	@ zero_extendqisi2
 4109              	.LVL466:
 4110 0040 22F00202 		bic	r2, r2, #2
 4111 0044 1A77     		strb	r2, [r3, #28]
 4112 0046 7047     		bx	lr
 4113              		.cfi_endproc
 4114              	.LFE36:
 4115              		.size	lwip_fcntl, .-lwip_fcntl
 4116 0048 AFF30080 		.section	.rodata.err_to_errno_table,"a",%progbits
 4116      AFF30080 
 4117              		.align	2
 4118              		.set	.LANCHOR3,. + 0
 4119              		.type	err_to_errno_table, %object
 4120              		.size	err_to_errno_table, 64
 4121              	err_to_errno_table:
 4122 0000 00000000 		.word	0
 4123 0004 0C000000 		.word	12
 4124 0008 69000000 		.word	105
 4125 000c 0B000000 		.word	11
 4126 0010 71000000 		.word	113
 4127 0014 73000000 		.word	115
 4128 0018 16000000 		.word	22
 4129 001c 0B000000 		.word	11
ARM GAS  /tmp/ccZlncvZ.s 			page 74


 4130 0020 62000000 		.word	98
 4131 0024 72000000 		.word	114
 4132 0028 67000000 		.word	103
 4133 002c 68000000 		.word	104
 4134 0030 6B000000 		.word	107
 4135 0034 6B000000 		.word	107
 4136 0038 05000000 		.word	5
 4137 003c FFFFFFFF 		.word	-1
 4138              		.section	.bss.select_cb_list,"aw",%nobits
 4139              		.align	2
 4140              		.set	.LANCHOR1,. + 0
 4141              		.type	select_cb_list, %object
 4142              		.size	select_cb_list, 4
 4143              	select_cb_list:
 4144 0000 00000000 		.space	4
 4145              		.section	.bss.sockets,"aw",%nobits
 4146              		.align	2
 4147              		.set	.LANCHOR0,. + 0
 4148              		.type	sockets, %object
 4149              		.size	sockets, 96
 4150              	sockets:
 4151 0000 00000000 		.space	96
 4151      00000000 
 4151      00000000 
 4151      00000000 
 4151      00000000 
 4152              		.section	.bss.select_cb_ctr,"aw",%nobits
 4153              		.align	2
 4154              		.set	.LANCHOR2,. + 0
 4155              		.type	select_cb_ctr, %object
 4156              		.size	select_cb_ctr, 4
 4157              	select_cb_ctr:
 4158 0000 00000000 		.space	4
 4159              		.text
 4160              	.Letext0:
 4161              		.file 2 "/usr/lib/gcc/arm-none-eabi/4.8.2/include/stddef.h"
 4162              		.file 3 "/usr/include/newlib/machine/_default_types.h"
 4163              		.file 4 "/usr/include/newlib/stdint.h"
 4164              		.file 5 "../../os/ports/GCC/ARMCMx/chtypes.h"
 4165              		.file 6 "../../os/kernel/include/chlists.h"
 4166              		.file 7 "../../os/kernel/include/chthreads.h"
 4167              		.file 8 "../../os/ports/GCC/ARMCMx/chcore_v7m.h"
 4168              		.file 9 "../../os/kernel/include/chsem.h"
 4169              		.file 10 "../../os/kernel/include/chmtx.h"
 4170              		.file 11 "../../os/kernel/include/chmboxes.h"
 4171              		.file 12 "../../os/various/lwip_bindings/arch/cc.h"
 4172              		.file 13 "../../ext/lwip/src/include/ipv4/lwip/ip_addr.h"
 4173              		.file 14 "../../ext/lwip/src/include/ipv4/lwip/inet.h"
 4174              		.file 15 "../../ext/lwip/src/include/lwip/sockets.h"
 4175              		.file 16 "../../ext/lwip/src/include/lwip/err.h"
 4176              		.file 17 "../../ext/lwip/src/include/lwip/pbuf.h"
 4177              		.file 18 "../../ext/lwip/src/include/lwip/netbuf.h"
 4178              		.file 19 "../../os/various/lwip_bindings/arch/sys_arch.h"
 4179              		.file 20 "../../ext/lwip/src/include/lwip/api.h"
 4180              		.file 21 "../../ext/lwip/src/include/ipv4/lwip/ip.h"
 4181              		.file 22 "../../ext/lwip/src/include/lwip/tcp.h"
 4182              		.file 23 "../../ext/lwip/src/include/lwip/udp.h"
ARM GAS  /tmp/ccZlncvZ.s 			page 75


 4183              		.file 24 "../../ext/lwip/src/include/lwip/raw.h"
 4184              		.file 25 "../../ext/lwip/src/include/lwip/api_msg.h"
 4185              		.file 26 "../../ext/lwip/src/include/lwip/tcpip.h"
 4186              		.file 27 "../../ext/lwip/src/include/lwip/def.h"
 4187              		.file 28 "../../ext/lwip/src/include/lwip/sys.h"
 4188              		.section	.debug_info,"",%progbits
 4189              	.Ldebug_info0:
 4190 0000 3B2C0000 		.4byte	0x2c3b
 4191 0004 0400     		.2byte	0x4
 4192 0006 00000000 		.4byte	.Ldebug_abbrev0
 4193 000a 04       		.byte	0x4
 4194 000b 01       		.uleb128 0x1
 4195 000c 08080000 		.4byte	.LASF351
 4196 0010 01       		.byte	0x1
 4197 0011 ED0C0000 		.4byte	.LASF352
 4198 0015 1D0C0000 		.4byte	.LASF353
 4199 0019 50020000 		.4byte	.Ldebug_ranges0+0x250
 4200 001d 00000000 		.4byte	0
 4201 0021 00000000 		.4byte	.Ldebug_line0
 4202 0025 02       		.uleb128 0x2
 4203 0026 04       		.byte	0x4
 4204 0027 05       		.byte	0x5
 4205 0028 696E7400 		.ascii	"int\000"
 4206 002c 03       		.uleb128 0x3
 4207 002d 12000000 		.4byte	.LASF1
 4208 0031 02       		.byte	0x2
 4209 0032 D4       		.byte	0xd4
 4210 0033 37000000 		.4byte	0x37
 4211 0037 04       		.uleb128 0x4
 4212 0038 04       		.byte	0x4
 4213 0039 07       		.byte	0x7
 4214 003a BC070000 		.4byte	.LASF0
 4215 003e 03       		.uleb128 0x3
 4216 003f FA090000 		.4byte	.LASF2
 4217 0043 03       		.byte	0x3
 4218 0044 1B       		.byte	0x1b
 4219 0045 49000000 		.4byte	0x49
 4220 0049 04       		.uleb128 0x4
 4221 004a 01       		.byte	0x1
 4222 004b 06       		.byte	0x6
 4223 004c D7020000 		.4byte	.LASF3
 4224 0050 03       		.uleb128 0x3
 4225 0051 76010000 		.4byte	.LASF4
 4226 0055 03       		.byte	0x3
 4227 0056 1C       		.byte	0x1c
 4228 0057 5B000000 		.4byte	0x5b
 4229 005b 04       		.uleb128 0x4
 4230 005c 01       		.byte	0x1
 4231 005d 08       		.byte	0x8
 4232 005e 51030000 		.4byte	.LASF5
 4233 0062 03       		.uleb128 0x3
 4234 0063 4B0B0000 		.4byte	.LASF6
 4235 0067 03       		.byte	0x3
 4236 0068 25       		.byte	0x25
 4237 0069 6D000000 		.4byte	0x6d
 4238 006d 04       		.uleb128 0x4
 4239 006e 02       		.byte	0x2
ARM GAS  /tmp/ccZlncvZ.s 			page 76


 4240 006f 05       		.byte	0x5
 4241 0070 B60C0000 		.4byte	.LASF7
 4242 0074 03       		.uleb128 0x3
 4243 0075 E3030000 		.4byte	.LASF8
 4244 0079 03       		.byte	0x3
 4245 007a 26       		.byte	0x26
 4246 007b 7F000000 		.4byte	0x7f
 4247 007f 04       		.uleb128 0x4
 4248 0080 02       		.byte	0x2
 4249 0081 07       		.byte	0x7
 4250 0082 E50E0000 		.4byte	.LASF9
 4251 0086 03       		.uleb128 0x3
 4252 0087 0A0F0000 		.4byte	.LASF10
 4253 008b 03       		.byte	0x3
 4254 008c 37       		.byte	0x37
 4255 008d 91000000 		.4byte	0x91
 4256 0091 04       		.uleb128 0x4
 4257 0092 04       		.byte	0x4
 4258 0093 05       		.byte	0x5
 4259 0094 CC010000 		.4byte	.LASF11
 4260 0098 03       		.uleb128 0x3
 4261 0099 E3060000 		.4byte	.LASF12
 4262 009d 03       		.byte	0x3
 4263 009e 38       		.byte	0x38
 4264 009f A3000000 		.4byte	0xa3
 4265 00a3 04       		.uleb128 0x4
 4266 00a4 04       		.byte	0x4
 4267 00a5 07       		.byte	0x7
 4268 00a6 F2050000 		.4byte	.LASF13
 4269 00aa 04       		.uleb128 0x4
 4270 00ab 08       		.byte	0x8
 4271 00ac 05       		.byte	0x5
 4272 00ad 0E070000 		.4byte	.LASF14
 4273 00b1 04       		.uleb128 0x4
 4274 00b2 08       		.byte	0x8
 4275 00b3 07       		.byte	0x7
 4276 00b4 080A0000 		.4byte	.LASF15
 4277 00b8 03       		.uleb128 0x3
 4278 00b9 0B000000 		.4byte	.LASF16
 4279 00bd 04       		.byte	0x4
 4280 00be 29       		.byte	0x29
 4281 00bf 3E000000 		.4byte	0x3e
 4282 00c3 03       		.uleb128 0x3
 4283 00c4 ED020000 		.4byte	.LASF17
 4284 00c8 04       		.byte	0x4
 4285 00c9 2A       		.byte	0x2a
 4286 00ca 50000000 		.4byte	0x50
 4287 00ce 03       		.uleb128 0x3
 4288 00cf 160D0000 		.4byte	.LASF18
 4289 00d3 04       		.byte	0x4
 4290 00d4 35       		.byte	0x35
 4291 00d5 62000000 		.4byte	0x62
 4292 00d9 03       		.uleb128 0x3
 4293 00da 330A0000 		.4byte	.LASF19
 4294 00de 04       		.byte	0x4
 4295 00df 36       		.byte	0x36
 4296 00e0 74000000 		.4byte	0x74
ARM GAS  /tmp/ccZlncvZ.s 			page 77


 4297 00e4 03       		.uleb128 0x3
 4298 00e5 73000000 		.4byte	.LASF20
 4299 00e9 04       		.byte	0x4
 4300 00ea 41       		.byte	0x41
 4301 00eb 86000000 		.4byte	0x86
 4302 00ef 03       		.uleb128 0x3
 4303 00f0 440E0000 		.4byte	.LASF21
 4304 00f4 04       		.byte	0x4
 4305 00f5 42       		.byte	0x42
 4306 00f6 98000000 		.4byte	0x98
 4307 00fa 04       		.uleb128 0x4
 4308 00fb 01       		.byte	0x1
 4309 00fc 02       		.byte	0x2
 4310 00fd 82030000 		.4byte	.LASF22
 4311 0101 03       		.uleb128 0x3
 4312 0102 C90B0000 		.4byte	.LASF23
 4313 0106 05       		.byte	0x5
 4314 0107 2C       		.byte	0x2c
 4315 0108 C3000000 		.4byte	0xc3
 4316 010c 03       		.uleb128 0x3
 4317 010d 2D020000 		.4byte	.LASF24
 4318 0111 05       		.byte	0x5
 4319 0112 2D       		.byte	0x2d
 4320 0113 C3000000 		.4byte	0xc3
 4321 0117 03       		.uleb128 0x3
 4322 0118 000E0000 		.4byte	.LASF25
 4323 011c 05       		.byte	0x5
 4324 011d 2E       		.byte	0x2e
 4325 011e C3000000 		.4byte	0xc3
 4326 0122 03       		.uleb128 0x3
 4327 0123 900A0000 		.4byte	.LASF26
 4328 0127 05       		.byte	0x5
 4329 0128 2F       		.byte	0x2f
 4330 0129 C3000000 		.4byte	0xc3
 4331 012d 03       		.uleb128 0x3
 4332 012e 44000000 		.4byte	.LASF27
 4333 0132 05       		.byte	0x5
 4334 0133 30       		.byte	0x30
 4335 0134 EF000000 		.4byte	0xef
 4336 0138 03       		.uleb128 0x3
 4337 0139 750A0000 		.4byte	.LASF28
 4338 013d 05       		.byte	0x5
 4339 013e 31       		.byte	0x31
 4340 013f E4000000 		.4byte	0xe4
 4341 0143 03       		.uleb128 0x3
 4342 0144 1E030000 		.4byte	.LASF29
 4343 0148 05       		.byte	0x5
 4344 0149 33       		.byte	0x33
 4345 014a EF000000 		.4byte	0xef
 4346 014e 03       		.uleb128 0x3
 4347 014f 28000000 		.4byte	.LASF30
 4348 0153 05       		.byte	0x5
 4349 0154 35       		.byte	0x35
 4350 0155 EF000000 		.4byte	0xef
 4351 0159 03       		.uleb128 0x3
 4352 015a 0D050000 		.4byte	.LASF31
 4353 015e 05       		.byte	0x5
ARM GAS  /tmp/ccZlncvZ.s 			page 78


 4354 015f 36       		.byte	0x36
 4355 0160 E4000000 		.4byte	0xe4
 4356 0164 03       		.uleb128 0x3
 4357 0165 840D0000 		.4byte	.LASF32
 4358 0169 06       		.byte	0x6
 4359 016a 2A       		.byte	0x2a
 4360 016b 6F010000 		.4byte	0x16f
 4361 016f 05       		.uleb128 0x5
 4362 0170 840D0000 		.4byte	.LASF32
 4363 0174 48       		.byte	0x48
 4364 0175 07       		.byte	0x7
 4365 0176 5E       		.byte	0x5e
 4366 0177 6C020000 		.4byte	0x26c
 4367 017b 06       		.uleb128 0x6
 4368 017c D5010000 		.4byte	.LASF33
 4369 0180 07       		.byte	0x7
 4370 0181 5F       		.byte	0x5f
 4371 0182 8D020000 		.4byte	0x28d
 4372 0186 00       		.byte	0
 4373 0187 06       		.uleb128 0x6
 4374 0188 EF010000 		.4byte	.LASF34
 4375 018c 07       		.byte	0x7
 4376 018d 61       		.byte	0x61
 4377 018e 8D020000 		.4byte	0x28d
 4378 0192 04       		.byte	0x4
 4379 0193 06       		.uleb128 0x6
 4380 0194 D3030000 		.4byte	.LASF35
 4381 0198 07       		.byte	0x7
 4382 0199 63       		.byte	0x63
 4383 019a 2D010000 		.4byte	0x12d
 4384 019e 08       		.byte	0x8
 4385 019f 06       		.uleb128 0x6
 4386 01a0 3E000000 		.4byte	.LASF36
 4387 01a4 07       		.byte	0x7
 4388 01a5 64       		.byte	0x64
 4389 01a6 47030000 		.4byte	0x347
 4390 01aa 0C       		.byte	0xc
 4391 01ab 06       		.uleb128 0x6
 4392 01ac B2010000 		.4byte	.LASF37
 4393 01b0 07       		.byte	0x7
 4394 01b1 66       		.byte	0x66
 4395 01b2 8D020000 		.4byte	0x28d
 4396 01b6 10       		.byte	0x10
 4397 01b7 06       		.uleb128 0x6
 4398 01b8 2B0A0000 		.4byte	.LASF38
 4399 01bc 07       		.byte	0x7
 4400 01bd 67       		.byte	0x67
 4401 01be 8D020000 		.4byte	0x28d
 4402 01c2 14       		.byte	0x14
 4403 01c3 06       		.uleb128 0x6
 4404 01c4 490F0000 		.4byte	.LASF39
 4405 01c8 07       		.byte	0x7
 4406 01c9 6E       		.byte	0x6e
 4407 01ca 8E040000 		.4byte	0x48e
 4408 01ce 18       		.byte	0x18
 4409 01cf 06       		.uleb128 0x6
 4410 01d0 9A0F0000 		.4byte	.LASF40
ARM GAS  /tmp/ccZlncvZ.s 			page 79


 4411 01d4 07       		.byte	0x7
 4412 01d5 79       		.byte	0x79
 4413 01d6 0C010000 		.4byte	0x10c
 4414 01da 1C       		.byte	0x1c
 4415 01db 06       		.uleb128 0x6
 4416 01dc B4070000 		.4byte	.LASF41
 4417 01e0 07       		.byte	0x7
 4418 01e1 7D       		.byte	0x7d
 4419 01e2 01010000 		.4byte	0x101
 4420 01e6 1D       		.byte	0x1d
 4421 01e7 06       		.uleb128 0x6
 4422 01e8 F7070000 		.4byte	.LASF42
 4423 01ec 07       		.byte	0x7
 4424 01ed 82       		.byte	0x82
 4425 01ee 17010000 		.4byte	0x117
 4426 01f2 1E       		.byte	0x1e
 4427 01f3 06       		.uleb128 0x6
 4428 01f4 E3020000 		.4byte	.LASF43
 4429 01f8 07       		.byte	0x7
 4430 01f9 88       		.byte	0x88
 4431 01fa 22010000 		.4byte	0x122
 4432 01fe 1F       		.byte	0x1f
 4433 01ff 06       		.uleb128 0x6
 4434 0200 32090000 		.4byte	.LASF44
 4435 0204 07       		.byte	0x7
 4436 0205 8F       		.byte	0x8f
 4437 0206 80030000 		.4byte	0x380
 4438 020a 20       		.byte	0x20
 4439 020b 07       		.uleb128 0x7
 4440 020c 705F7500 		.ascii	"p_u\000"
 4441 0210 07       		.byte	0x7
 4442 0211 B4       		.byte	0xb4
 4443 0212 59040000 		.4byte	0x459
 4444 0216 24       		.byte	0x24
 4445 0217 06       		.uleb128 0x6
 4446 0218 A5070000 		.4byte	.LASF45
 4447 021c 07       		.byte	0x7
 4448 021d B9       		.byte	0xb9
 4449 021e B3020000 		.4byte	0x2b3
 4450 0222 28       		.byte	0x28
 4451 0223 06       		.uleb128 0x6
 4452 0224 62000000 		.4byte	.LASF46
 4453 0228 07       		.byte	0x7
 4454 0229 BF       		.byte	0xbf
 4455 022a 93020000 		.4byte	0x293
 4456 022e 2C       		.byte	0x2c
 4457 022f 06       		.uleb128 0x6
 4458 0230 940F0000 		.4byte	.LASF47
 4459 0234 07       		.byte	0x7
 4460 0235 C3       		.byte	0xc3
 4461 0236 38010000 		.4byte	0x138
 4462 023a 34       		.byte	0x34
 4463 023b 06       		.uleb128 0x6
 4464 023c 6D050000 		.4byte	.LASF48
 4465 0240 07       		.byte	0x7
 4466 0241 C9       		.byte	0xc9
 4467 0242 43010000 		.4byte	0x143
ARM GAS  /tmp/ccZlncvZ.s 			page 80


 4468 0246 38       		.byte	0x38
 4469 0247 06       		.uleb128 0x6
 4470 0248 36020000 		.4byte	.LASF49
 4471 024c 07       		.byte	0x7
 4472 024d D0       		.byte	0xd0
 4473 024e A0040000 		.4byte	0x4a0
 4474 0252 3C       		.byte	0x3c
 4475 0253 06       		.uleb128 0x6
 4476 0254 9F090000 		.4byte	.LASF50
 4477 0258 07       		.byte	0x7
 4478 0259 D4       		.byte	0xd4
 4479 025a 2D010000 		.4byte	0x12d
 4480 025e 40       		.byte	0x40
 4481 025f 06       		.uleb128 0x6
 4482 0260 D6070000 		.4byte	.LASF51
 4483 0264 07       		.byte	0x7
 4484 0265 DA       		.byte	0xda
 4485 0266 C9020000 		.4byte	0x2c9
 4486 026a 44       		.byte	0x44
 4487 026b 00       		.byte	0
 4488 026c 08       		.uleb128 0x8
 4489 026d 08       		.byte	0x8
 4490 026e 06       		.byte	0x6
 4491 026f 61       		.byte	0x61
 4492 0270 8D020000 		.4byte	0x28d
 4493 0274 06       		.uleb128 0x6
 4494 0275 D5010000 		.4byte	.LASF33
 4495 0279 06       		.byte	0x6
 4496 027a 62       		.byte	0x62
 4497 027b 8D020000 		.4byte	0x28d
 4498 027f 00       		.byte	0
 4499 0280 06       		.uleb128 0x6
 4500 0281 EF010000 		.4byte	.LASF34
 4501 0285 06       		.byte	0x6
 4502 0286 64       		.byte	0x64
 4503 0287 8D020000 		.4byte	0x28d
 4504 028b 04       		.byte	0x4
 4505 028c 00       		.byte	0
 4506 028d 09       		.uleb128 0x9
 4507 028e 04       		.byte	0x4
 4508 028f 64010000 		.4byte	0x164
 4509 0293 03       		.uleb128 0x3
 4510 0294 6C0E0000 		.4byte	.LASF52
 4511 0298 06       		.byte	0x6
 4512 0299 66       		.byte	0x66
 4513 029a 6C020000 		.4byte	0x26c
 4514 029e 08       		.uleb128 0x8
 4515 029f 04       		.byte	0x4
 4516 02a0 06       		.byte	0x6
 4517 02a1 6B       		.byte	0x6b
 4518 02a2 B3020000 		.4byte	0x2b3
 4519 02a6 06       		.uleb128 0x6
 4520 02a7 D5010000 		.4byte	.LASF33
 4521 02ab 06       		.byte	0x6
 4522 02ac 6D       		.byte	0x6d
 4523 02ad 8D020000 		.4byte	0x28d
 4524 02b1 00       		.byte	0
ARM GAS  /tmp/ccZlncvZ.s 			page 81


 4525 02b2 00       		.byte	0
 4526 02b3 03       		.uleb128 0x3
 4527 02b4 B7080000 		.4byte	.LASF53
 4528 02b8 06       		.byte	0x6
 4529 02b9 70       		.byte	0x70
 4530 02ba 9E020000 		.4byte	0x29e
 4531 02be 03       		.uleb128 0x3
 4532 02bf 48020000 		.4byte	.LASF54
 4533 02c3 08       		.byte	0x8
 4534 02c4 E5       		.byte	0xe5
 4535 02c5 C9020000 		.4byte	0x2c9
 4536 02c9 0A       		.uleb128 0xa
 4537 02ca 04       		.byte	0x4
 4538 02cb 0B       		.uleb128 0xb
 4539 02cc 56050000 		.4byte	.LASF55
 4540 02d0 24       		.byte	0x24
 4541 02d1 08       		.byte	0x8
 4542 02d2 0C01     		.2byte	0x10c
 4543 02d4 47030000 		.4byte	0x347
 4544 02d8 0C       		.uleb128 0xc
 4545 02d9 723400   		.ascii	"r4\000"
 4546 02dc 08       		.byte	0x8
 4547 02dd 1F01     		.2byte	0x11f
 4548 02df BE020000 		.4byte	0x2be
 4549 02e3 00       		.byte	0
 4550 02e4 0C       		.uleb128 0xc
 4551 02e5 723500   		.ascii	"r5\000"
 4552 02e8 08       		.byte	0x8
 4553 02e9 2001     		.2byte	0x120
 4554 02eb BE020000 		.4byte	0x2be
 4555 02ef 04       		.byte	0x4
 4556 02f0 0C       		.uleb128 0xc
 4557 02f1 723600   		.ascii	"r6\000"
 4558 02f4 08       		.byte	0x8
 4559 02f5 2101     		.2byte	0x121
 4560 02f7 BE020000 		.4byte	0x2be
 4561 02fb 08       		.byte	0x8
 4562 02fc 0C       		.uleb128 0xc
 4563 02fd 723700   		.ascii	"r7\000"
 4564 0300 08       		.byte	0x8
 4565 0301 2201     		.2byte	0x122
 4566 0303 BE020000 		.4byte	0x2be
 4567 0307 0C       		.byte	0xc
 4568 0308 0C       		.uleb128 0xc
 4569 0309 723800   		.ascii	"r8\000"
 4570 030c 08       		.byte	0x8
 4571 030d 2301     		.2byte	0x123
 4572 030f BE020000 		.4byte	0x2be
 4573 0313 10       		.byte	0x10
 4574 0314 0C       		.uleb128 0xc
 4575 0315 723900   		.ascii	"r9\000"
 4576 0318 08       		.byte	0x8
 4577 0319 2401     		.2byte	0x124
 4578 031b BE020000 		.4byte	0x2be
 4579 031f 14       		.byte	0x14
 4580 0320 0C       		.uleb128 0xc
 4581 0321 72313000 		.ascii	"r10\000"
ARM GAS  /tmp/ccZlncvZ.s 			page 82


 4582 0325 08       		.byte	0x8
 4583 0326 2501     		.2byte	0x125
 4584 0328 BE020000 		.4byte	0x2be
 4585 032c 18       		.byte	0x18
 4586 032d 0C       		.uleb128 0xc
 4587 032e 72313100 		.ascii	"r11\000"
 4588 0332 08       		.byte	0x8
 4589 0333 2601     		.2byte	0x126
 4590 0335 BE020000 		.4byte	0x2be
 4591 0339 1C       		.byte	0x1c
 4592 033a 0C       		.uleb128 0xc
 4593 033b 6C7200   		.ascii	"lr\000"
 4594 033e 08       		.byte	0x8
 4595 033f 2701     		.2byte	0x127
 4596 0341 BE020000 		.4byte	0x2be
 4597 0345 20       		.byte	0x20
 4598 0346 00       		.byte	0
 4599 0347 0B       		.uleb128 0xb
 4600 0348 32030000 		.4byte	.LASF56
 4601 034c 04       		.byte	0x4
 4602 034d 08       		.byte	0x8
 4603 034e 3101     		.2byte	0x131
 4604 0350 62030000 		.4byte	0x362
 4605 0354 0C       		.uleb128 0xc
 4606 0355 72313300 		.ascii	"r13\000"
 4607 0359 08       		.byte	0x8
 4608 035a 3201     		.2byte	0x132
 4609 035c 62030000 		.4byte	0x362
 4610 0360 00       		.byte	0
 4611 0361 00       		.byte	0
 4612 0362 09       		.uleb128 0x9
 4613 0363 04       		.byte	0x4
 4614 0364 CB020000 		.4byte	0x2cb
 4615 0368 04       		.uleb128 0x4
 4616 0369 04       		.byte	0x4
 4617 036a 07       		.byte	0x7
 4618 036b 19000000 		.4byte	.LASF57
 4619 036f 09       		.uleb128 0x9
 4620 0370 04       		.byte	0x4
 4621 0371 75030000 		.4byte	0x375
 4622 0375 0D       		.uleb128 0xd
 4623 0376 80030000 		.4byte	0x380
 4624 037a 0E       		.uleb128 0xe
 4625 037b C9020000 		.4byte	0x2c9
 4626 037f 00       		.byte	0
 4627 0380 0F       		.uleb128 0xf
 4628 0381 4E010000 		.4byte	0x14e
 4629 0385 05       		.uleb128 0x5
 4630 0386 7E090000 		.4byte	.LASF58
 4631 038a 0C       		.byte	0xc
 4632 038b 09       		.byte	0x9
 4633 038c 2C       		.byte	0x2c
 4634 038d AA030000 		.4byte	0x3aa
 4635 0391 06       		.uleb128 0x6
 4636 0392 750C0000 		.4byte	.LASF59
 4637 0396 09       		.byte	0x9
 4638 0397 2D       		.byte	0x2d
ARM GAS  /tmp/ccZlncvZ.s 			page 83


 4639 0398 93020000 		.4byte	0x293
 4640 039c 00       		.byte	0
 4641 039d 06       		.uleb128 0x6
 4642 039e E3090000 		.4byte	.LASF60
 4643 03a2 09       		.byte	0x9
 4644 03a3 2F       		.byte	0x2f
 4645 03a4 59010000 		.4byte	0x159
 4646 03a8 08       		.byte	0x8
 4647 03a9 00       		.byte	0
 4648 03aa 03       		.uleb128 0x3
 4649 03ab 7E090000 		.4byte	.LASF58
 4650 03af 09       		.byte	0x9
 4651 03b0 30       		.byte	0x30
 4652 03b1 85030000 		.4byte	0x385
 4653 03b5 05       		.uleb128 0x5
 4654 03b6 EE060000 		.4byte	.LASF61
 4655 03ba 10       		.byte	0x10
 4656 03bb 0A       		.byte	0xa
 4657 03bc 2C       		.byte	0x2c
 4658 03bd E6030000 		.4byte	0x3e6
 4659 03c1 06       		.uleb128 0x6
 4660 03c2 23070000 		.4byte	.LASF62
 4661 03c6 0A       		.byte	0xa
 4662 03c7 2D       		.byte	0x2d
 4663 03c8 93020000 		.4byte	0x293
 4664 03cc 00       		.byte	0
 4665 03cd 06       		.uleb128 0x6
 4666 03ce 5D010000 		.4byte	.LASF63
 4667 03d2 0A       		.byte	0xa
 4668 03d3 2F       		.byte	0x2f
 4669 03d4 8D020000 		.4byte	0x28d
 4670 03d8 08       		.byte	0x8
 4671 03d9 06       		.uleb128 0x6
 4672 03da 5A0F0000 		.4byte	.LASF64
 4673 03de 0A       		.byte	0xa
 4674 03df 31       		.byte	0x31
 4675 03e0 E6030000 		.4byte	0x3e6
 4676 03e4 0C       		.byte	0xc
 4677 03e5 00       		.byte	0
 4678 03e6 09       		.uleb128 0x9
 4679 03e7 04       		.byte	0x4
 4680 03e8 B5030000 		.4byte	0x3b5
 4681 03ec 03       		.uleb128 0x3
 4682 03ed EE060000 		.4byte	.LASF61
 4683 03f1 0A       		.byte	0xa
 4684 03f2 33       		.byte	0x33
 4685 03f3 B5030000 		.4byte	0x3b5
 4686 03f7 08       		.uleb128 0x8
 4687 03f8 28       		.byte	0x28
 4688 03f9 0B       		.byte	0xb
 4689 03fa 33       		.byte	0x33
 4690 03fb 48040000 		.4byte	0x448
 4691 03ff 06       		.uleb128 0x6
 4692 0400 CB000000 		.4byte	.LASF65
 4693 0404 0B       		.byte	0xb
 4694 0405 34       		.byte	0x34
 4695 0406 48040000 		.4byte	0x448
ARM GAS  /tmp/ccZlncvZ.s 			page 84


 4696 040a 00       		.byte	0
 4697 040b 06       		.uleb128 0x6
 4698 040c BC090000 		.4byte	.LASF66
 4699 0410 0B       		.byte	0xb
 4700 0411 36       		.byte	0x36
 4701 0412 48040000 		.4byte	0x448
 4702 0416 04       		.byte	0x4
 4703 0417 06       		.uleb128 0x6
 4704 0418 2B070000 		.4byte	.LASF67
 4705 041c 0B       		.byte	0xb
 4706 041d 38       		.byte	0x38
 4707 041e 48040000 		.4byte	0x448
 4708 0422 08       		.byte	0x8
 4709 0423 06       		.uleb128 0x6
 4710 0424 0D030000 		.4byte	.LASF68
 4711 0428 0B       		.byte	0xb
 4712 0429 39       		.byte	0x39
 4713 042a 48040000 		.4byte	0x448
 4714 042e 0C       		.byte	0xc
 4715 042f 06       		.uleb128 0x6
 4716 0430 8B060000 		.4byte	.LASF69
 4717 0434 0B       		.byte	0xb
 4718 0435 3A       		.byte	0x3a
 4719 0436 AA030000 		.4byte	0x3aa
 4720 043a 10       		.byte	0x10
 4721 043b 06       		.uleb128 0x6
 4722 043c F4030000 		.4byte	.LASF70
 4723 0440 0B       		.byte	0xb
 4724 0441 3C       		.byte	0x3c
 4725 0442 AA030000 		.4byte	0x3aa
 4726 0446 1C       		.byte	0x1c
 4727 0447 00       		.byte	0
 4728 0448 09       		.uleb128 0x9
 4729 0449 04       		.byte	0x4
 4730 044a 38010000 		.4byte	0x138
 4731 044e 03       		.uleb128 0x3
 4732 044f D0050000 		.4byte	.LASF71
 4733 0453 0B       		.byte	0xb
 4734 0454 3E       		.byte	0x3e
 4735 0455 F7030000 		.4byte	0x3f7
 4736 0459 10       		.uleb128 0x10
 4737 045a 04       		.byte	0x4
 4738 045b 07       		.byte	0x7
 4739 045c 96       		.byte	0x96
 4740 045d 8E040000 		.4byte	0x48e
 4741 0461 11       		.uleb128 0x11
 4742 0462 DE0E0000 		.4byte	.LASF72
 4743 0466 07       		.byte	0x7
 4744 0467 9D       		.byte	0x9d
 4745 0468 38010000 		.4byte	0x138
 4746 046c 11       		.uleb128 0x11
 4747 046d 6D010000 		.4byte	.LASF73
 4748 0471 07       		.byte	0x7
 4749 0472 A4       		.byte	0xa4
 4750 0473 38010000 		.4byte	0x138
 4751 0477 11       		.uleb128 0x11
 4752 0478 08040000 		.4byte	.LASF74
ARM GAS  /tmp/ccZlncvZ.s 			page 85


 4753 047c 07       		.byte	0x7
 4754 047d AB       		.byte	0xab
 4755 047e C9020000 		.4byte	0x2c9
 4756 0482 11       		.uleb128 0x11
 4757 0483 80010000 		.4byte	.LASF75
 4758 0487 07       		.byte	0x7
 4759 0488 B2       		.byte	0xb2
 4760 0489 43010000 		.4byte	0x143
 4761 048d 00       		.byte	0
 4762 048e 09       		.uleb128 0x9
 4763 048f 04       		.byte	0x4
 4764 0490 94040000 		.4byte	0x494
 4765 0494 12       		.uleb128 0x12
 4766 0495 99040000 		.4byte	0x499
 4767 0499 04       		.uleb128 0x4
 4768 049a 01       		.byte	0x1
 4769 049b 08       		.byte	0x8
 4770 049c BD030000 		.4byte	.LASF76
 4771 04a0 09       		.uleb128 0x9
 4772 04a1 04       		.byte	0x4
 4773 04a2 EC030000 		.4byte	0x3ec
 4774 04a6 03       		.uleb128 0x3
 4775 04a7 FD0E0000 		.4byte	.LASF77
 4776 04ab 0C       		.byte	0xc
 4777 04ac 38       		.byte	0x38
 4778 04ad C3000000 		.4byte	0xc3
 4779 04b1 03       		.uleb128 0x3
 4780 04b2 F80E0000 		.4byte	.LASF78
 4781 04b6 0C       		.byte	0xc
 4782 04b7 39       		.byte	0x39
 4783 04b8 B8000000 		.4byte	0xb8
 4784 04bc 03       		.uleb128 0x3
 4785 04bd D0070000 		.4byte	.LASF79
 4786 04c1 0C       		.byte	0xc
 4787 04c2 3A       		.byte	0x3a
 4788 04c3 D9000000 		.4byte	0xd9
 4789 04c7 03       		.uleb128 0x3
 4790 04c8 EB0D0000 		.4byte	.LASF80
 4791 04cc 0C       		.byte	0xc
 4792 04cd 3B       		.byte	0x3b
 4793 04ce CE000000 		.4byte	0xce
 4794 04d2 03       		.uleb128 0x3
 4795 04d3 C30B0000 		.4byte	.LASF81
 4796 04d7 0C       		.byte	0xc
 4797 04d8 3C       		.byte	0x3c
 4798 04d9 EF000000 		.4byte	0xef
 4799 04dd 03       		.uleb128 0x3
 4800 04de 190E0000 		.4byte	.LASF82
 4801 04e2 0C       		.byte	0xc
 4802 04e3 3E       		.byte	0x3e
 4803 04e4 EF000000 		.4byte	0xef
 4804 04e8 05       		.uleb128 0x5
 4805 04e9 B4040000 		.4byte	.LASF83
 4806 04ed 04       		.byte	0x4
 4807 04ee 0D       		.byte	0xd
 4808 04ef 2C       		.byte	0x2c
 4809 04f0 01050000 		.4byte	0x501
ARM GAS  /tmp/ccZlncvZ.s 			page 86


 4810 04f4 06       		.uleb128 0x6
 4811 04f5 AF070000 		.4byte	.LASF84
 4812 04f9 0D       		.byte	0xd
 4813 04fa 2D       		.byte	0x2d
 4814 04fb D2040000 		.4byte	0x4d2
 4815 04ff 00       		.byte	0
 4816 0500 00       		.byte	0
 4817 0501 03       		.uleb128 0x3
 4818 0502 74090000 		.4byte	.LASF85
 4819 0506 0D       		.byte	0xd
 4820 0507 40       		.byte	0x40
 4821 0508 E8040000 		.4byte	0x4e8
 4822 050c 05       		.uleb128 0x5
 4823 050d B00B0000 		.4byte	.LASF86
 4824 0511 04       		.byte	0x4
 4825 0512 0E       		.byte	0xe
 4826 0513 2C       		.byte	0x2c
 4827 0514 25050000 		.4byte	0x525
 4828 0518 06       		.uleb128 0x6
 4829 0519 3D0E0000 		.4byte	.LASF87
 4830 051d 0E       		.byte	0xe
 4831 051e 2D       		.byte	0x2d
 4832 051f D2040000 		.4byte	0x4d2
 4833 0523 00       		.byte	0
 4834 0524 00       		.byte	0
 4835 0525 05       		.uleb128 0x5
 4836 0526 F50A0000 		.4byte	.LASF88
 4837 052a 10       		.byte	0x10
 4838 052b 0F       		.byte	0xf
 4839 052c 33       		.byte	0x33
 4840 052d 6E050000 		.4byte	0x56e
 4841 0531 06       		.uleb128 0x6
 4842 0532 40020000 		.4byte	.LASF89
 4843 0536 0F       		.byte	0xf
 4844 0537 34       		.byte	0x34
 4845 0538 A6040000 		.4byte	0x4a6
 4846 053c 00       		.byte	0
 4847 053d 06       		.uleb128 0x6
 4848 053e 7B000000 		.4byte	.LASF90
 4849 0542 0F       		.byte	0xf
 4850 0543 35       		.byte	0x35
 4851 0544 A6040000 		.4byte	0x4a6
 4852 0548 01       		.byte	0x1
 4853 0549 06       		.uleb128 0x6
 4854 054a 47040000 		.4byte	.LASF91
 4855 054e 0F       		.byte	0xf
 4856 054f 36       		.byte	0x36
 4857 0550 BC040000 		.4byte	0x4bc
 4858 0554 02       		.byte	0x2
 4859 0555 06       		.uleb128 0x6
 4860 0556 91000000 		.4byte	.LASF92
 4861 055a 0F       		.byte	0xf
 4862 055b 37       		.byte	0x37
 4863 055c 0C050000 		.4byte	0x50c
 4864 0560 04       		.byte	0x4
 4865 0561 06       		.uleb128 0x6
 4866 0562 CB040000 		.4byte	.LASF93
ARM GAS  /tmp/ccZlncvZ.s 			page 87


 4867 0566 0F       		.byte	0xf
 4868 0567 38       		.byte	0x38
 4869 0568 6E050000 		.4byte	0x56e
 4870 056c 08       		.byte	0x8
 4871 056d 00       		.byte	0
 4872 056e 13       		.uleb128 0x13
 4873 056f 99040000 		.4byte	0x499
 4874 0573 7E050000 		.4byte	0x57e
 4875 0577 14       		.uleb128 0x14
 4876 0578 68030000 		.4byte	0x368
 4877 057c 07       		.byte	0x7
 4878 057d 00       		.byte	0
 4879 057e 05       		.uleb128 0x5
 4880 057f 160B0000 		.4byte	.LASF94
 4881 0583 10       		.byte	0x10
 4882 0584 0F       		.byte	0xf
 4883 0585 3B       		.byte	0x3b
 4884 0586 AF050000 		.4byte	0x5af
 4885 058a 06       		.uleb128 0x6
 4886 058b 940C0000 		.4byte	.LASF95
 4887 058f 0F       		.byte	0xf
 4888 0590 3C       		.byte	0x3c
 4889 0591 A6040000 		.4byte	0x4a6
 4890 0595 00       		.byte	0
 4891 0596 06       		.uleb128 0x6
 4892 0597 C1040000 		.4byte	.LASF96
 4893 059b 0F       		.byte	0xf
 4894 059c 3D       		.byte	0x3d
 4895 059d A6040000 		.4byte	0x4a6
 4896 05a1 01       		.byte	0x1
 4897 05a2 06       		.uleb128 0x6
 4898 05a3 CE0A0000 		.4byte	.LASF97
 4899 05a7 0F       		.byte	0xf
 4900 05a8 3E       		.byte	0x3e
 4901 05a9 AF050000 		.4byte	0x5af
 4902 05ad 02       		.byte	0x2
 4903 05ae 00       		.byte	0
 4904 05af 13       		.uleb128 0x13
 4905 05b0 99040000 		.4byte	0x499
 4906 05b4 BF050000 		.4byte	0x5bf
 4907 05b8 14       		.uleb128 0x14
 4908 05b9 68030000 		.4byte	0x368
 4909 05bd 0D       		.byte	0xd
 4910 05be 00       		.byte	0
 4911 05bf 03       		.uleb128 0x3
 4912 05c0 13050000 		.4byte	.LASF98
 4913 05c4 0F       		.byte	0xf
 4914 05c5 44       		.byte	0x44
 4915 05c6 D2040000 		.4byte	0x4d2
 4916 05ca 0B       		.uleb128 0xb
 4917 05cb C40D0000 		.4byte	.LASF99
 4918 05cf 01       		.byte	0x1
 4919 05d0 0F       		.byte	0xf
 4920 05d1 2C01     		.2byte	0x12c
 4921 05d3 E5050000 		.4byte	0x5e5
 4922 05d7 15       		.uleb128 0x15
 4923 05d8 53070000 		.4byte	.LASF100
ARM GAS  /tmp/ccZlncvZ.s 			page 88


 4924 05dc 0F       		.byte	0xf
 4925 05dd 2D01     		.2byte	0x12d
 4926 05df E5050000 		.4byte	0x5e5
 4927 05e3 00       		.byte	0
 4928 05e4 00       		.byte	0
 4929 05e5 13       		.uleb128 0x13
 4930 05e6 5B000000 		.4byte	0x5b
 4931 05ea F5050000 		.4byte	0x5f5
 4932 05ee 14       		.uleb128 0x14
 4933 05ef 68030000 		.4byte	0x368
 4934 05f3 00       		.byte	0
 4935 05f4 00       		.byte	0
 4936 05f5 16       		.uleb128 0x16
 4937 05f6 C40D0000 		.4byte	.LASF99
 4938 05fa 0F       		.byte	0xf
 4939 05fb 2E01     		.2byte	0x12e
 4940 05fd CA050000 		.4byte	0x5ca
 4941 0601 0B       		.uleb128 0xb
 4942 0602 1E040000 		.4byte	.LASF101
 4943 0606 08       		.byte	0x8
 4944 0607 0F       		.byte	0xf
 4945 0608 3901     		.2byte	0x139
 4946 060a 29060000 		.4byte	0x629
 4947 060e 15       		.uleb128 0x15
 4948 060f 7E0F0000 		.4byte	.LASF102
 4949 0613 0F       		.byte	0xf
 4950 0614 3A01     		.2byte	0x13a
 4951 0616 91000000 		.4byte	0x91
 4952 061a 00       		.byte	0
 4953 061b 15       		.uleb128 0x15
 4954 061c 65050000 		.4byte	.LASF103
 4955 0620 0F       		.byte	0xf
 4956 0621 3B01     		.2byte	0x13b
 4957 0623 91000000 		.4byte	0x91
 4958 0627 04       		.byte	0x4
 4959 0628 00       		.byte	0
 4960 0629 03       		.uleb128 0x3
 4961 062a AA090000 		.4byte	.LASF104
 4962 062e 10       		.byte	0x10
 4963 062f 2F       		.byte	0x2f
 4964 0630 B1040000 		.4byte	0x4b1
 4965 0634 05       		.uleb128 0x5
 4966 0635 C2030000 		.4byte	.LASF105
 4967 0639 10       		.byte	0x10
 4968 063a 11       		.byte	0x11
 4969 063b 4F       		.byte	0x4f
 4970 063c 95060000 		.4byte	0x695
 4971 0640 06       		.uleb128 0x6
 4972 0641 500F0000 		.4byte	.LASF106
 4973 0645 11       		.byte	0x11
 4974 0646 51       		.byte	0x51
 4975 0647 95060000 		.4byte	0x695
 4976 064b 00       		.byte	0
 4977 064c 06       		.uleb128 0x6
 4978 064d 63060000 		.4byte	.LASF107
 4979 0651 11       		.byte	0x11
 4980 0652 54       		.byte	0x54
ARM GAS  /tmp/ccZlncvZ.s 			page 89


 4981 0653 C9020000 		.4byte	0x2c9
 4982 0657 04       		.byte	0x4
 4983 0658 06       		.uleb128 0x6
 4984 0659 64090000 		.4byte	.LASF108
 4985 065d 11       		.byte	0x11
 4986 065e 5D       		.byte	0x5d
 4987 065f BC040000 		.4byte	0x4bc
 4988 0663 08       		.byte	0x8
 4989 0664 07       		.uleb128 0x7
 4990 0665 6C656E00 		.ascii	"len\000"
 4991 0669 11       		.byte	0x11
 4992 066a 60       		.byte	0x60
 4993 066b BC040000 		.4byte	0x4bc
 4994 066f 0A       		.byte	0xa
 4995 0670 06       		.uleb128 0x6
 4996 0671 1A010000 		.4byte	.LASF109
 4997 0675 11       		.byte	0x11
 4998 0676 63       		.byte	0x63
 4999 0677 A6040000 		.4byte	0x4a6
 5000 067b 0C       		.byte	0xc
 5001 067c 06       		.uleb128 0x6
 5002 067d 74040000 		.4byte	.LASF110
 5003 0681 11       		.byte	0x11
 5004 0682 66       		.byte	0x66
 5005 0683 A6040000 		.4byte	0x4a6
 5006 0687 0D       		.byte	0xd
 5007 0688 07       		.uleb128 0x7
 5008 0689 72656600 		.ascii	"ref\000"
 5009 068d 11       		.byte	0x11
 5010 068e 6D       		.byte	0x6d
 5011 068f BC040000 		.4byte	0x4bc
 5012 0693 0E       		.byte	0xe
 5013 0694 00       		.byte	0
 5014 0695 09       		.uleb128 0x9
 5015 0696 04       		.byte	0x4
 5016 0697 34060000 		.4byte	0x634
 5017 069b 05       		.uleb128 0x5
 5018 069c 8F040000 		.4byte	.LASF111
 5019 06a0 10       		.byte	0x10
 5020 06a1 12       		.byte	0x12
 5021 06a2 30       		.byte	0x30
 5022 06a3 D6060000 		.4byte	0x6d6
 5023 06a7 07       		.uleb128 0x7
 5024 06a8 7000     		.ascii	"p\000"
 5025 06aa 12       		.byte	0x12
 5026 06ab 31       		.byte	0x31
 5027 06ac 95060000 		.4byte	0x695
 5028 06b0 00       		.byte	0
 5029 06b1 07       		.uleb128 0x7
 5030 06b2 70747200 		.ascii	"ptr\000"
 5031 06b6 12       		.byte	0x12
 5032 06b7 31       		.byte	0x31
 5033 06b8 95060000 		.4byte	0x695
 5034 06bc 04       		.byte	0x4
 5035 06bd 06       		.uleb128 0x6
 5036 06be AF070000 		.4byte	.LASF84
 5037 06c2 12       		.byte	0x12
ARM GAS  /tmp/ccZlncvZ.s 			page 90


 5038 06c3 32       		.byte	0x32
 5039 06c4 01050000 		.4byte	0x501
 5040 06c8 08       		.byte	0x8
 5041 06c9 06       		.uleb128 0x6
 5042 06ca 7D0C0000 		.4byte	.LASF112
 5043 06ce 12       		.byte	0x12
 5044 06cf 33       		.byte	0x33
 5045 06d0 BC040000 		.4byte	0x4bc
 5046 06d4 0C       		.byte	0xc
 5047 06d5 00       		.byte	0
 5048 06d6 03       		.uleb128 0x3
 5049 06d7 17020000 		.4byte	.LASF113
 5050 06db 13       		.byte	0x13
 5051 06dc 38       		.byte	0x38
 5052 06dd E1060000 		.4byte	0x6e1
 5053 06e1 09       		.uleb128 0x9
 5054 06e2 04       		.byte	0x4
 5055 06e3 AA030000 		.4byte	0x3aa
 5056 06e7 03       		.uleb128 0x3
 5057 06e8 D8060000 		.4byte	.LASF114
 5058 06ec 13       		.byte	0x13
 5059 06ed 39       		.byte	0x39
 5060 06ee F2060000 		.4byte	0x6f2
 5061 06f2 09       		.uleb128 0x9
 5062 06f3 04       		.byte	0x4
 5063 06f4 4E040000 		.4byte	0x44e
 5064 06f8 17       		.uleb128 0x17
 5065 06f9 50040000 		.4byte	.LASF121
 5066 06fd 01       		.byte	0x1
 5067 06fe 14       		.byte	0x14
 5068 06ff 53       		.byte	0x53
 5069 0700 2A070000 		.4byte	0x72a
 5070 0704 18       		.uleb128 0x18
 5071 0705 48010000 		.4byte	.LASF115
 5072 0709 00       		.sleb128 0
 5073 070a 18       		.uleb128 0x18
 5074 070b 9E030000 		.4byte	.LASF116
 5075 070f 10       		.sleb128 16
 5076 0710 18       		.uleb128 0x18
 5077 0711 F4060000 		.4byte	.LASF117
 5078 0715 20       		.sleb128 32
 5079 0716 18       		.uleb128 0x18
 5080 0717 DD0C0000 		.4byte	.LASF118
 5081 071b 21       		.sleb128 33
 5082 071c 18       		.uleb128 0x18
 5083 071d D4040000 		.4byte	.LASF119
 5084 0721 22       		.sleb128 34
 5085 0722 18       		.uleb128 0x18
 5086 0723 070C0000 		.4byte	.LASF120
 5087 0727 C000     		.sleb128 64
 5088 0729 00       		.byte	0
 5089 072a 17       		.uleb128 0x17
 5090 072b 97070000 		.4byte	.LASF122
 5091 072f 01       		.byte	0x1
 5092 0730 14       		.byte	0x14
 5093 0731 61       		.byte	0x61
 5094 0732 55070000 		.4byte	0x755
ARM GAS  /tmp/ccZlncvZ.s 			page 91


 5095 0736 18       		.uleb128 0x18
 5096 0737 A70D0000 		.4byte	.LASF123
 5097 073b 00       		.sleb128 0
 5098 073c 18       		.uleb128 0x18
 5099 073d F6010000 		.4byte	.LASF124
 5100 0741 01       		.sleb128 1
 5101 0742 18       		.uleb128 0x18
 5102 0743 C00C0000 		.4byte	.LASF125
 5103 0747 02       		.sleb128 2
 5104 0748 18       		.uleb128 0x18
 5105 0749 4E090000 		.4byte	.LASF126
 5106 074d 03       		.sleb128 3
 5107 074e 18       		.uleb128 0x18
 5108 074f D8050000 		.4byte	.LASF127
 5109 0753 04       		.sleb128 4
 5110 0754 00       		.byte	0
 5111 0755 17       		.uleb128 0x17
 5112 0756 64020000 		.4byte	.LASF128
 5113 075a 01       		.byte	0x1
 5114 075b 14       		.byte	0x14
 5115 075c 6A       		.byte	0x6a
 5116 075d 80070000 		.4byte	0x780
 5117 0761 18       		.uleb128 0x18
 5118 0762 9D0E0000 		.4byte	.LASF129
 5119 0766 00       		.sleb128 0
 5120 0767 18       		.uleb128 0x18
 5121 0768 1F0B0000 		.4byte	.LASF130
 5122 076c 01       		.sleb128 1
 5123 076d 18       		.uleb128 0x18
 5124 076e 16060000 		.4byte	.LASF131
 5125 0772 02       		.sleb128 2
 5126 0773 18       		.uleb128 0x18
 5127 0774 AE0A0000 		.4byte	.LASF132
 5128 0778 03       		.sleb128 3
 5129 0779 18       		.uleb128 0x18
 5130 077a BA010000 		.4byte	.LASF133
 5131 077e 04       		.sleb128 4
 5132 077f 00       		.byte	0
 5133 0780 03       		.uleb128 0x3
 5134 0781 4D0E0000 		.4byte	.LASF134
 5135 0785 14       		.byte	0x14
 5136 0786 83       		.byte	0x83
 5137 0787 8B070000 		.4byte	0x78b
 5138 078b 09       		.uleb128 0x9
 5139 078c 04       		.byte	0x4
 5140 078d 91070000 		.4byte	0x791
 5141 0791 0D       		.uleb128 0xd
 5142 0792 A6070000 		.4byte	0x7a6
 5143 0796 0E       		.uleb128 0xe
 5144 0797 A6070000 		.4byte	0x7a6
 5145 079b 0E       		.uleb128 0xe
 5146 079c 55070000 		.4byte	0x755
 5147 07a0 0E       		.uleb128 0xe
 5148 07a1 BC040000 		.4byte	0x4bc
 5149 07a5 00       		.byte	0
 5150 07a6 09       		.uleb128 0x9
 5151 07a7 04       		.byte	0x4
ARM GAS  /tmp/ccZlncvZ.s 			page 92


 5152 07a8 AC070000 		.4byte	0x7ac
 5153 07ac 05       		.uleb128 0x5
 5154 07ad 87010000 		.4byte	.LASF135
 5155 07b1 2C       		.byte	0x2c
 5156 07b2 14       		.byte	0x14
 5157 07b3 86       		.byte	0x86
 5158 07b4 49080000 		.4byte	0x849
 5159 07b8 06       		.uleb128 0x6
 5160 07b9 1A010000 		.4byte	.LASF109
 5161 07bd 14       		.byte	0x14
 5162 07be 88       		.byte	0x88
 5163 07bf F8060000 		.4byte	0x6f8
 5164 07c3 00       		.byte	0
 5165 07c4 06       		.uleb128 0x6
 5166 07c5 F7000000 		.4byte	.LASF136
 5167 07c9 14       		.byte	0x14
 5168 07ca 8A       		.byte	0x8a
 5169 07cb 2A070000 		.4byte	0x72a
 5170 07cf 01       		.byte	0x1
 5171 07d0 07       		.uleb128 0x7
 5172 07d1 70636200 		.ascii	"pcb\000"
 5173 07d5 14       		.byte	0x14
 5174 07d6 91       		.byte	0x91
 5175 07d7 49080000 		.4byte	0x849
 5176 07db 04       		.byte	0x4
 5177 07dc 06       		.uleb128 0x6
 5178 07dd 850F0000 		.4byte	.LASF137
 5179 07e1 14       		.byte	0x14
 5180 07e2 93       		.byte	0x93
 5181 07e3 29060000 		.4byte	0x629
 5182 07e7 08       		.byte	0x8
 5183 07e8 06       		.uleb128 0x6
 5184 07e9 A5010000 		.4byte	.LASF138
 5185 07ed 14       		.byte	0x14
 5186 07ee 95       		.byte	0x95
 5187 07ef D6060000 		.4byte	0x6d6
 5188 07f3 0C       		.byte	0xc
 5189 07f4 06       		.uleb128 0x6
 5190 07f5 940E0000 		.4byte	.LASF139
 5191 07f9 14       		.byte	0x14
 5192 07fa 98       		.byte	0x98
 5193 07fb E7060000 		.4byte	0x6e7
 5194 07ff 10       		.byte	0x10
 5195 0800 06       		.uleb128 0x6
 5196 0801 4F060000 		.4byte	.LASF140
 5197 0805 14       		.byte	0x14
 5198 0806 9C       		.byte	0x9c
 5199 0807 E7060000 		.4byte	0x6e7
 5200 080b 14       		.byte	0x14
 5201 080c 06       		.uleb128 0x6
 5202 080d D20D0000 		.4byte	.LASF141
 5203 0811 14       		.byte	0x14
 5204 0812 A0       		.byte	0xa0
 5205 0813 25000000 		.4byte	0x25
 5206 0817 18       		.byte	0x18
 5207 0818 06       		.uleb128 0x6
 5208 0819 74040000 		.4byte	.LASF110
ARM GAS  /tmp/ccZlncvZ.s 			page 93


 5209 081d 14       		.byte	0x14
 5210 081e B6       		.byte	0xb6
 5211 081f A6040000 		.4byte	0x4a6
 5212 0823 1C       		.byte	0x1c
 5213 0824 06       		.uleb128 0x6
 5214 0825 D10B0000 		.4byte	.LASF142
 5215 0829 14       		.byte	0x14
 5216 082a BA       		.byte	0xba
 5217 082b 2C000000 		.4byte	0x2c
 5218 082f 20       		.byte	0x20
 5219 0830 06       		.uleb128 0x6
 5220 0831 E6050000 		.4byte	.LASF143
 5221 0835 14       		.byte	0x14
 5222 0836 BE       		.byte	0xbe
 5223 0837 CB0C0000 		.4byte	0xccb
 5224 083b 24       		.byte	0x24
 5225 083c 06       		.uleb128 0x6
 5226 083d 5A060000 		.4byte	.LASF144
 5227 0841 14       		.byte	0x14
 5228 0842 C1       		.byte	0xc1
 5229 0843 80070000 		.4byte	0x780
 5230 0847 28       		.byte	0x28
 5231 0848 00       		.byte	0
 5232 0849 10       		.uleb128 0x10
 5233 084a 04       		.byte	0x4
 5234 084b 14       		.byte	0x14
 5235 084c 8C       		.byte	0x8c
 5236 084d 7D080000 		.4byte	0x87d
 5237 0851 19       		.uleb128 0x19
 5238 0852 697000   		.ascii	"ip\000"
 5239 0855 14       		.byte	0x14
 5240 0856 8D       		.byte	0x8d
 5241 0857 C6080000 		.4byte	0x8c6
 5242 085b 19       		.uleb128 0x19
 5243 085c 74637000 		.ascii	"tcp\000"
 5244 0860 14       		.byte	0x14
 5245 0861 8E       		.byte	0x8e
 5246 0862 7E0B0000 		.4byte	0xb7e
 5247 0866 19       		.uleb128 0x19
 5248 0867 75647000 		.ascii	"udp\000"
 5249 086b 14       		.byte	0x14
 5250 086c 8F       		.byte	0x8f
 5251 086d 150C0000 		.4byte	0xc15
 5252 0871 19       		.uleb128 0x19
 5253 0872 72617700 		.ascii	"raw\000"
 5254 0876 14       		.byte	0x14
 5255 0877 90       		.byte	0x90
 5256 0878 940C0000 		.4byte	0xc94
 5257 087c 00       		.byte	0
 5258 087d 05       		.uleb128 0x5
 5259 087e 1C070000 		.4byte	.LASF145
 5260 0882 0C       		.byte	0xc
 5261 0883 15       		.byte	0x15
 5262 0884 59       		.byte	0x59
 5263 0885 C6080000 		.4byte	0x8c6
 5264 0889 06       		.uleb128 0x6
 5265 088a 3A030000 		.4byte	.LASF146
ARM GAS  /tmp/ccZlncvZ.s 			page 94


 5266 088e 15       		.byte	0x15
 5267 088f 5B       		.byte	0x5b
 5268 0890 01050000 		.4byte	0x501
 5269 0894 00       		.byte	0
 5270 0895 06       		.uleb128 0x6
 5271 0896 A60B0000 		.4byte	.LASF147
 5272 089a 15       		.byte	0x15
 5273 089b 5B       		.byte	0x5b
 5274 089c 01050000 		.4byte	0x501
 5275 08a0 04       		.byte	0x4
 5276 08a1 06       		.uleb128 0x6
 5277 08a2 AD000000 		.4byte	.LASF148
 5278 08a6 15       		.byte	0x15
 5279 08a7 5B       		.byte	0x5b
 5280 08a8 A6040000 		.4byte	0x4a6
 5281 08ac 08       		.byte	0x8
 5282 08ad 07       		.uleb128 0x7
 5283 08ae 746F7300 		.ascii	"tos\000"
 5284 08b2 15       		.byte	0x15
 5285 08b3 5B       		.byte	0x5b
 5286 08b4 A6040000 		.4byte	0x4a6
 5287 08b8 09       		.byte	0x9
 5288 08b9 07       		.uleb128 0x7
 5289 08ba 74746C00 		.ascii	"ttl\000"
 5290 08be 15       		.byte	0x15
 5291 08bf 5B       		.byte	0x5b
 5292 08c0 A6040000 		.4byte	0x4a6
 5293 08c4 0A       		.byte	0xa
 5294 08c5 00       		.byte	0
 5295 08c6 09       		.uleb128 0x9
 5296 08c7 04       		.byte	0x4
 5297 08c8 7D080000 		.4byte	0x87d
 5298 08cc 05       		.uleb128 0x5
 5299 08cd 87040000 		.4byte	.LASF149
 5300 08d1 98       		.byte	0x98
 5301 08d2 16       		.byte	0x16
 5302 08d3 A8       		.byte	0xa8
 5303 08d4 7E0B0000 		.4byte	0xb7e
 5304 08d8 06       		.uleb128 0x6
 5305 08d9 3A030000 		.4byte	.LASF146
 5306 08dd 16       		.byte	0x16
 5307 08de AA       		.byte	0xaa
 5308 08df 01050000 		.4byte	0x501
 5309 08e3 00       		.byte	0
 5310 08e4 06       		.uleb128 0x6
 5311 08e5 A60B0000 		.4byte	.LASF147
 5312 08e9 16       		.byte	0x16
 5313 08ea AA       		.byte	0xaa
 5314 08eb 01050000 		.4byte	0x501
 5315 08ef 04       		.byte	0x4
 5316 08f0 06       		.uleb128 0x6
 5317 08f1 AD000000 		.4byte	.LASF148
 5318 08f5 16       		.byte	0x16
 5319 08f6 AA       		.byte	0xaa
 5320 08f7 A6040000 		.4byte	0x4a6
 5321 08fb 08       		.byte	0x8
 5322 08fc 07       		.uleb128 0x7
ARM GAS  /tmp/ccZlncvZ.s 			page 95


 5323 08fd 746F7300 		.ascii	"tos\000"
 5324 0901 16       		.byte	0x16
 5325 0902 AA       		.byte	0xaa
 5326 0903 A6040000 		.4byte	0x4a6
 5327 0907 09       		.byte	0x9
 5328 0908 07       		.uleb128 0x7
 5329 0909 74746C00 		.ascii	"ttl\000"
 5330 090d 16       		.byte	0x16
 5331 090e AA       		.byte	0xaa
 5332 090f A6040000 		.4byte	0x4a6
 5333 0913 0A       		.byte	0xa
 5334 0914 06       		.uleb128 0x6
 5335 0915 500F0000 		.4byte	.LASF106
 5336 0919 16       		.byte	0x16
 5337 091a AC       		.byte	0xac
 5338 091b 7E0B0000 		.4byte	0xb7e
 5339 091f 0C       		.byte	0xc
 5340 0920 06       		.uleb128 0x6
 5341 0921 1E0D0000 		.4byte	.LASF150
 5342 0925 16       		.byte	0x16
 5343 0926 AC       		.byte	0xac
 5344 0927 C9020000 		.4byte	0x2c9
 5345 092b 10       		.byte	0x10
 5346 092c 06       		.uleb128 0x6
 5347 092d 650D0000 		.4byte	.LASF151
 5348 0931 16       		.byte	0x16
 5349 0932 AC       		.byte	0xac
 5350 0933 D70C0000 		.4byte	0xcd7
 5351 0937 14       		.byte	0x14
 5352 0938 06       		.uleb128 0x6
 5353 0939 F7000000 		.4byte	.LASF136
 5354 093d 16       		.byte	0x16
 5355 093e AC       		.byte	0xac
 5356 093f AB0D0000 		.4byte	0xdab
 5357 0943 18       		.byte	0x18
 5358 0944 06       		.uleb128 0x6
 5359 0945 58010000 		.4byte	.LASF152
 5360 0949 16       		.byte	0x16
 5361 094a AC       		.byte	0xac
 5362 094b A6040000 		.4byte	0x4a6
 5363 094f 19       		.byte	0x19
 5364 0950 06       		.uleb128 0x6
 5365 0951 3C040000 		.4byte	.LASF153
 5366 0955 16       		.byte	0x16
 5367 0956 AC       		.byte	0xac
 5368 0957 BC040000 		.4byte	0x4bc
 5369 095b 1A       		.byte	0x1a
 5370 095c 06       		.uleb128 0x6
 5371 095d 1F0A0000 		.4byte	.LASF154
 5372 0961 16       		.byte	0x16
 5373 0962 AF       		.byte	0xaf
 5374 0963 BC040000 		.4byte	0x4bc
 5375 0967 1C       		.byte	0x1c
 5376 0968 06       		.uleb128 0x6
 5377 0969 74040000 		.4byte	.LASF110
 5378 096d 16       		.byte	0x16
 5379 096e B1       		.byte	0xb1
ARM GAS  /tmp/ccZlncvZ.s 			page 96


 5380 096f A6040000 		.4byte	0x4a6
 5381 0973 1E       		.byte	0x1e
 5382 0974 06       		.uleb128 0x6
 5383 0975 65010000 		.4byte	.LASF155
 5384 0979 16       		.byte	0x16
 5385 097a BF       		.byte	0xbf
 5386 097b A6040000 		.4byte	0x4a6
 5387 097f 1F       		.byte	0x1f
 5388 0980 06       		.uleb128 0x6
 5389 0981 82070000 		.4byte	.LASF156
 5390 0985 16       		.byte	0x16
 5391 0986 BF       		.byte	0xbf
 5392 0987 A6040000 		.4byte	0x4a6
 5393 098b 20       		.byte	0x20
 5394 098c 06       		.uleb128 0x6
 5395 098d 86050000 		.4byte	.LASF157
 5396 0991 16       		.byte	0x16
 5397 0992 C0       		.byte	0xc0
 5398 0993 A6040000 		.4byte	0x4a6
 5399 0997 21       		.byte	0x21
 5400 0998 07       		.uleb128 0x7
 5401 0999 746D7200 		.ascii	"tmr\000"
 5402 099d 16       		.byte	0x16
 5403 099e C1       		.byte	0xc1
 5404 099f D2040000 		.4byte	0x4d2
 5405 09a3 24       		.byte	0x24
 5406 09a4 06       		.uleb128 0x6
 5407 09a5 EA070000 		.4byte	.LASF158
 5408 09a9 16       		.byte	0x16
 5409 09aa C4       		.byte	0xc4
 5410 09ab D2040000 		.4byte	0x4d2
 5411 09af 28       		.byte	0x28
 5412 09b0 06       		.uleb128 0x6
 5413 09b1 A5000000 		.4byte	.LASF159
 5414 09b5 16       		.byte	0x16
 5415 09b6 C5       		.byte	0xc5
 5416 09b7 BC040000 		.4byte	0x4bc
 5417 09bb 2C       		.byte	0x2c
 5418 09bc 06       		.uleb128 0x6
 5419 09bd 32000000 		.4byte	.LASF160
 5420 09c1 16       		.byte	0x16
 5421 09c2 C6       		.byte	0xc6
 5422 09c3 BC040000 		.4byte	0x4bc
 5423 09c7 2E       		.byte	0x2e
 5424 09c8 06       		.uleb128 0x6
 5425 09c9 43050000 		.4byte	.LASF161
 5426 09cd 16       		.byte	0x16
 5427 09ce C7       		.byte	0xc7
 5428 09cf D2040000 		.4byte	0x4d2
 5429 09d3 30       		.byte	0x30
 5430 09d4 06       		.uleb128 0x6
 5431 09d5 05090000 		.4byte	.LASF162
 5432 09d9 16       		.byte	0x16
 5433 09da CA       		.byte	0xca
 5434 09db C7040000 		.4byte	0x4c7
 5435 09df 34       		.byte	0x34
 5436 09e0 07       		.uleb128 0x7
ARM GAS  /tmp/ccZlncvZ.s 			page 97


 5437 09e1 6D737300 		.ascii	"mss\000"
 5438 09e5 16       		.byte	0x16
 5439 09e6 CC       		.byte	0xcc
 5440 09e7 BC040000 		.4byte	0x4bc
 5441 09eb 36       		.byte	0x36
 5442 09ec 06       		.uleb128 0x6
 5443 09ed AD040000 		.4byte	.LASF163
 5444 09f1 16       		.byte	0x16
 5445 09f2 CF       		.byte	0xcf
 5446 09f3 D2040000 		.4byte	0x4d2
 5447 09f7 38       		.byte	0x38
 5448 09f8 06       		.uleb128 0x6
 5449 09f9 78050000 		.4byte	.LASF164
 5450 09fd 16       		.byte	0x16
 5451 09fe D0       		.byte	0xd0
 5452 09ff D2040000 		.4byte	0x4d2
 5453 0a03 3C       		.byte	0x3c
 5454 0a04 07       		.uleb128 0x7
 5455 0a05 736100   		.ascii	"sa\000"
 5456 0a08 16       		.byte	0x16
 5457 0a09 D1       		.byte	0xd1
 5458 0a0a C7040000 		.4byte	0x4c7
 5459 0a0e 40       		.byte	0x40
 5460 0a0f 07       		.uleb128 0x7
 5461 0a10 737600   		.ascii	"sv\000"
 5462 0a13 16       		.byte	0x16
 5463 0a14 D1       		.byte	0xd1
 5464 0a15 C7040000 		.4byte	0x4c7
 5465 0a19 42       		.byte	0x42
 5466 0a1a 07       		.uleb128 0x7
 5467 0a1b 72746F00 		.ascii	"rto\000"
 5468 0a1f 16       		.byte	0x16
 5469 0a20 D3       		.byte	0xd3
 5470 0a21 C7040000 		.4byte	0x4c7
 5471 0a25 44       		.byte	0x44
 5472 0a26 06       		.uleb128 0x6
 5473 0a27 78060000 		.4byte	.LASF165
 5474 0a2b 16       		.byte	0x16
 5475 0a2c D4       		.byte	0xd4
 5476 0a2d A6040000 		.4byte	0x4a6
 5477 0a31 46       		.byte	0x46
 5478 0a32 06       		.uleb128 0x6
 5479 0a33 D90D0000 		.4byte	.LASF166
 5480 0a37 16       		.byte	0x16
 5481 0a38 D7       		.byte	0xd7
 5482 0a39 A6040000 		.4byte	0x4a6
 5483 0a3d 47       		.byte	0x47
 5484 0a3e 06       		.uleb128 0x6
 5485 0a3f A7060000 		.4byte	.LASF167
 5486 0a43 16       		.byte	0x16
 5487 0a44 D8       		.byte	0xd8
 5488 0a45 D2040000 		.4byte	0x4d2
 5489 0a49 48       		.byte	0x48
 5490 0a4a 06       		.uleb128 0x6
 5491 0a4b 8B0A0000 		.4byte	.LASF168
 5492 0a4f 16       		.byte	0x16
 5493 0a50 DB       		.byte	0xdb
ARM GAS  /tmp/ccZlncvZ.s 			page 98


 5494 0a51 BC040000 		.4byte	0x4bc
 5495 0a55 4C       		.byte	0x4c
 5496 0a56 06       		.uleb128 0x6
 5497 0a57 11010000 		.4byte	.LASF169
 5498 0a5b 16       		.byte	0x16
 5499 0a5c DC       		.byte	0xdc
 5500 0a5d BC040000 		.4byte	0x4bc
 5501 0a61 4E       		.byte	0x4e
 5502 0a62 06       		.uleb128 0x6
 5503 0a63 C4060000 		.4byte	.LASF170
 5504 0a67 16       		.byte	0x16
 5505 0a68 DF       		.byte	0xdf
 5506 0a69 D2040000 		.4byte	0x4d2
 5507 0a6d 50       		.byte	0x50
 5508 0a6e 06       		.uleb128 0x6
 5509 0a6f B40D0000 		.4byte	.LASF171
 5510 0a73 16       		.byte	0x16
 5511 0a74 E0       		.byte	0xe0
 5512 0a75 D2040000 		.4byte	0x4d2
 5513 0a79 54       		.byte	0x54
 5514 0a7a 06       		.uleb128 0x6
 5515 0a7b BC0D0000 		.4byte	.LASF172
 5516 0a7f 16       		.byte	0x16
 5517 0a80 E0       		.byte	0xe0
 5518 0a81 D2040000 		.4byte	0x4d2
 5519 0a85 58       		.byte	0x58
 5520 0a86 06       		.uleb128 0x6
 5521 0a87 F5040000 		.4byte	.LASF173
 5522 0a8b 16       		.byte	0x16
 5523 0a8c E2       		.byte	0xe2
 5524 0a8d D2040000 		.4byte	0x4d2
 5525 0a91 5C       		.byte	0x5c
 5526 0a92 06       		.uleb128 0x6
 5527 0a93 240F0000 		.4byte	.LASF174
 5528 0a97 16       		.byte	0x16
 5529 0a98 E3       		.byte	0xe3
 5530 0a99 BC040000 		.4byte	0x4bc
 5531 0a9d 60       		.byte	0x60
 5532 0a9e 06       		.uleb128 0x6
 5533 0a9f DE070000 		.4byte	.LASF175
 5534 0aa3 16       		.byte	0x16
 5535 0aa4 E4       		.byte	0xe4
 5536 0aa5 BC040000 		.4byte	0x4bc
 5537 0aa9 62       		.byte	0x62
 5538 0aaa 06       		.uleb128 0x6
 5539 0aab 820C0000 		.4byte	.LASF176
 5540 0aaf 16       		.byte	0x16
 5541 0ab0 E6       		.byte	0xe6
 5542 0ab1 BC040000 		.4byte	0x4bc
 5543 0ab5 64       		.byte	0x64
 5544 0ab6 06       		.uleb128 0x6
 5545 0ab7 140F0000 		.4byte	.LASF177
 5546 0abb 16       		.byte	0x16
 5547 0abc E8       		.byte	0xe8
 5548 0abd BC040000 		.4byte	0x4bc
 5549 0ac1 66       		.byte	0x66
 5550 0ac2 06       		.uleb128 0x6
ARM GAS  /tmp/ccZlncvZ.s 			page 99


 5551 0ac3 D60A0000 		.4byte	.LASF178
 5552 0ac7 16       		.byte	0x16
 5553 0ac8 EA       		.byte	0xea
 5554 0ac9 BC040000 		.4byte	0x4bc
 5555 0acd 68       		.byte	0x68
 5556 0ace 06       		.uleb128 0x6
 5557 0acf 6E0B0000 		.4byte	.LASF179
 5558 0ad3 16       		.byte	0x16
 5559 0ad4 EE       		.byte	0xee
 5560 0ad5 BC040000 		.4byte	0x4bc
 5561 0ad9 6A       		.byte	0x6a
 5562 0ada 06       		.uleb128 0x6
 5563 0adb 340B0000 		.4byte	.LASF180
 5564 0adf 16       		.byte	0x16
 5565 0ae0 F2       		.byte	0xf2
 5566 0ae1 FF0D0000 		.4byte	0xdff
 5567 0ae5 6C       		.byte	0x6c
 5568 0ae6 06       		.uleb128 0x6
 5569 0ae7 0E0D0000 		.4byte	.LASF181
 5570 0aeb 16       		.byte	0x16
 5571 0aec F3       		.byte	0xf3
 5572 0aed FF0D0000 		.4byte	0xdff
 5573 0af1 70       		.byte	0x70
 5574 0af2 06       		.uleb128 0x6
 5575 0af3 8E0F0000 		.4byte	.LASF182
 5576 0af7 16       		.byte	0x16
 5577 0af8 F5       		.byte	0xf5
 5578 0af9 FF0D0000 		.4byte	0xdff
 5579 0afd 74       		.byte	0x74
 5580 0afe 06       		.uleb128 0x6
 5581 0aff A10A0000 		.4byte	.LASF183
 5582 0b03 16       		.byte	0x16
 5583 0b04 F8       		.byte	0xf8
 5584 0b05 95060000 		.4byte	0x695
 5585 0b09 78       		.byte	0x78
 5586 0b0a 06       		.uleb128 0x6
 5587 0b0b 09070000 		.4byte	.LASF184
 5588 0b0f 16       		.byte	0x16
 5589 0b10 FC       		.byte	0xfc
 5590 0b11 300D0000 		.4byte	0xd30
 5591 0b15 7C       		.byte	0x7c
 5592 0b16 06       		.uleb128 0x6
 5593 0b17 41090000 		.4byte	.LASF185
 5594 0b1b 16       		.byte	0x16
 5595 0b1c FE       		.byte	0xfe
 5596 0b1d 010D0000 		.4byte	0xd01
 5597 0b21 80       		.byte	0x80
 5598 0b22 15       		.uleb128 0x15
 5599 0b23 690F0000 		.4byte	.LASF186
 5600 0b27 16       		.byte	0x16
 5601 0b28 0001     		.2byte	0x100
 5602 0b2a A00D0000 		.4byte	0xda0
 5603 0b2e 84       		.byte	0x84
 5604 0b2f 15       		.uleb128 0x15
 5605 0b30 E8080000 		.4byte	.LASF187
 5606 0b34 16       		.byte	0x16
 5607 0b35 0201     		.2byte	0x102
ARM GAS  /tmp/ccZlncvZ.s 			page 100


 5608 0b37 5A0D0000 		.4byte	0xd5a
 5609 0b3b 88       		.byte	0x88
 5610 0b3c 15       		.uleb128 0x15
 5611 0b3d 460D0000 		.4byte	.LASF188
 5612 0b41 16       		.byte	0x16
 5613 0b42 0401     		.2byte	0x104
 5614 0b44 7F0D0000 		.4byte	0xd7f
 5615 0b48 8C       		.byte	0x8c
 5616 0b49 15       		.uleb128 0x15
 5617 0b4a 9B0C0000 		.4byte	.LASF189
 5618 0b4e 16       		.byte	0x16
 5619 0b4f 0D01     		.2byte	0x10d
 5620 0b51 D2040000 		.4byte	0x4d2
 5621 0b55 90       		.byte	0x90
 5622 0b56 15       		.uleb128 0x15
 5623 0b57 1D050000 		.4byte	.LASF190
 5624 0b5b 16       		.byte	0x16
 5625 0b5c 1401     		.2byte	0x114
 5626 0b5e A6040000 		.4byte	0x4a6
 5627 0b62 94       		.byte	0x94
 5628 0b63 15       		.uleb128 0x15
 5629 0b64 3C0A0000 		.4byte	.LASF191
 5630 0b68 16       		.byte	0x16
 5631 0b69 1601     		.2byte	0x116
 5632 0b6b A6040000 		.4byte	0x4a6
 5633 0b6f 95       		.byte	0x95
 5634 0b70 15       		.uleb128 0x15
 5635 0b71 F5020000 		.4byte	.LASF192
 5636 0b75 16       		.byte	0x16
 5637 0b76 1901     		.2byte	0x119
 5638 0b78 A6040000 		.4byte	0x4a6
 5639 0b7c 96       		.byte	0x96
 5640 0b7d 00       		.byte	0
 5641 0b7e 09       		.uleb128 0x9
 5642 0b7f 04       		.byte	0x4
 5643 0b80 CC080000 		.4byte	0x8cc
 5644 0b84 05       		.uleb128 0x5
 5645 0b85 26040000 		.4byte	.LASF193
 5646 0b89 20       		.byte	0x20
 5647 0b8a 17       		.byte	0x17
 5648 0b8b 5B       		.byte	0x5b
 5649 0b8c 150C0000 		.4byte	0xc15
 5650 0b90 06       		.uleb128 0x6
 5651 0b91 3A030000 		.4byte	.LASF146
 5652 0b95 17       		.byte	0x17
 5653 0b96 5D       		.byte	0x5d
 5654 0b97 01050000 		.4byte	0x501
 5655 0b9b 00       		.byte	0
 5656 0b9c 06       		.uleb128 0x6
 5657 0b9d A60B0000 		.4byte	.LASF147
 5658 0ba1 17       		.byte	0x17
 5659 0ba2 5D       		.byte	0x5d
 5660 0ba3 01050000 		.4byte	0x501
 5661 0ba7 04       		.byte	0x4
 5662 0ba8 06       		.uleb128 0x6
 5663 0ba9 AD000000 		.4byte	.LASF148
 5664 0bad 17       		.byte	0x17
ARM GAS  /tmp/ccZlncvZ.s 			page 101


 5665 0bae 5D       		.byte	0x5d
 5666 0baf A6040000 		.4byte	0x4a6
 5667 0bb3 08       		.byte	0x8
 5668 0bb4 07       		.uleb128 0x7
 5669 0bb5 746F7300 		.ascii	"tos\000"
 5670 0bb9 17       		.byte	0x17
 5671 0bba 5D       		.byte	0x5d
 5672 0bbb A6040000 		.4byte	0x4a6
 5673 0bbf 09       		.byte	0x9
 5674 0bc0 07       		.uleb128 0x7
 5675 0bc1 74746C00 		.ascii	"ttl\000"
 5676 0bc5 17       		.byte	0x17
 5677 0bc6 5D       		.byte	0x5d
 5678 0bc7 A6040000 		.4byte	0x4a6
 5679 0bcb 0A       		.byte	0xa
 5680 0bcc 06       		.uleb128 0x6
 5681 0bcd 500F0000 		.4byte	.LASF106
 5682 0bd1 17       		.byte	0x17
 5683 0bd2 61       		.byte	0x61
 5684 0bd3 150C0000 		.4byte	0xc15
 5685 0bd7 0C       		.byte	0xc
 5686 0bd8 06       		.uleb128 0x6
 5687 0bd9 74040000 		.4byte	.LASF110
 5688 0bdd 17       		.byte	0x17
 5689 0bde 63       		.byte	0x63
 5690 0bdf A6040000 		.4byte	0x4a6
 5691 0be3 10       		.byte	0x10
 5692 0be4 06       		.uleb128 0x6
 5693 0be5 3C040000 		.4byte	.LASF153
 5694 0be9 17       		.byte	0x17
 5695 0bea 65       		.byte	0x65
 5696 0beb BC040000 		.4byte	0x4bc
 5697 0bef 12       		.byte	0x12
 5698 0bf0 06       		.uleb128 0x6
 5699 0bf1 1F0A0000 		.4byte	.LASF154
 5700 0bf5 17       		.byte	0x17
 5701 0bf6 65       		.byte	0x65
 5702 0bf7 BC040000 		.4byte	0x4bc
 5703 0bfb 14       		.byte	0x14
 5704 0bfc 06       		.uleb128 0x6
 5705 0bfd 41090000 		.4byte	.LASF185
 5706 0c01 17       		.byte	0x17
 5707 0c02 72       		.byte	0x72
 5708 0c03 340E0000 		.4byte	0xe34
 5709 0c07 18       		.byte	0x18
 5710 0c08 06       		.uleb128 0x6
 5711 0c09 0D0B0000 		.4byte	.LASF194
 5712 0c0d 17       		.byte	0x17
 5713 0c0e 74       		.byte	0x74
 5714 0c0f C9020000 		.4byte	0x2c9
 5715 0c13 1C       		.byte	0x1c
 5716 0c14 00       		.byte	0
 5717 0c15 09       		.uleb128 0x9
 5718 0c16 04       		.byte	0x4
 5719 0c17 840B0000 		.4byte	0xb84
 5720 0c1b 05       		.uleb128 0x5
 5721 0c1c 110E0000 		.4byte	.LASF195
ARM GAS  /tmp/ccZlncvZ.s 			page 102


 5722 0c20 1C       		.byte	0x1c
 5723 0c21 18       		.byte	0x18
 5724 0c22 3F       		.byte	0x3f
 5725 0c23 940C0000 		.4byte	0xc94
 5726 0c27 06       		.uleb128 0x6
 5727 0c28 3A030000 		.4byte	.LASF146
 5728 0c2c 18       		.byte	0x18
 5729 0c2d 41       		.byte	0x41
 5730 0c2e 01050000 		.4byte	0x501
 5731 0c32 00       		.byte	0
 5732 0c33 06       		.uleb128 0x6
 5733 0c34 A60B0000 		.4byte	.LASF147
 5734 0c38 18       		.byte	0x18
 5735 0c39 41       		.byte	0x41
 5736 0c3a 01050000 		.4byte	0x501
 5737 0c3e 04       		.byte	0x4
 5738 0c3f 06       		.uleb128 0x6
 5739 0c40 AD000000 		.4byte	.LASF148
 5740 0c44 18       		.byte	0x18
 5741 0c45 41       		.byte	0x41
 5742 0c46 A6040000 		.4byte	0x4a6
 5743 0c4a 08       		.byte	0x8
 5744 0c4b 07       		.uleb128 0x7
 5745 0c4c 746F7300 		.ascii	"tos\000"
 5746 0c50 18       		.byte	0x18
 5747 0c51 41       		.byte	0x41
 5748 0c52 A6040000 		.4byte	0x4a6
 5749 0c56 09       		.byte	0x9
 5750 0c57 07       		.uleb128 0x7
 5751 0c58 74746C00 		.ascii	"ttl\000"
 5752 0c5c 18       		.byte	0x18
 5753 0c5d 41       		.byte	0x41
 5754 0c5e A6040000 		.4byte	0x4a6
 5755 0c62 0A       		.byte	0xa
 5756 0c63 06       		.uleb128 0x6
 5757 0c64 500F0000 		.4byte	.LASF106
 5758 0c68 18       		.byte	0x18
 5759 0c69 43       		.byte	0x43
 5760 0c6a 940C0000 		.4byte	0xc94
 5761 0c6e 0C       		.byte	0xc
 5762 0c6f 06       		.uleb128 0x6
 5763 0c70 00070000 		.4byte	.LASF196
 5764 0c74 18       		.byte	0x18
 5765 0c75 45       		.byte	0x45
 5766 0c76 A6040000 		.4byte	0x4a6
 5767 0c7a 10       		.byte	0x10
 5768 0c7b 06       		.uleb128 0x6
 5769 0c7c 41090000 		.4byte	.LASF185
 5770 0c80 18       		.byte	0x18
 5771 0c81 48       		.byte	0x48
 5772 0c82 050E0000 		.4byte	0xe05
 5773 0c86 14       		.byte	0x14
 5774 0c87 06       		.uleb128 0x6
 5775 0c88 0D0B0000 		.4byte	.LASF194
 5776 0c8c 18       		.byte	0x18
 5777 0c8d 4A       		.byte	0x4a
 5778 0c8e C9020000 		.4byte	0x2c9
ARM GAS  /tmp/ccZlncvZ.s 			page 103


 5779 0c92 18       		.byte	0x18
 5780 0c93 00       		.byte	0
 5781 0c94 09       		.uleb128 0x9
 5782 0c95 04       		.byte	0x4
 5783 0c96 1B0C0000 		.4byte	0xc1b
 5784 0c9a 05       		.uleb128 0x5
 5785 0c9b 9A0B0000 		.4byte	.LASF197
 5786 0c9f 14       		.byte	0x14
 5787 0ca0 19       		.byte	0x19
 5788 0ca1 3E       		.byte	0x3e
 5789 0ca2 CB0C0000 		.4byte	0xccb
 5790 0ca6 06       		.uleb128 0x6
 5791 0ca7 39010000 		.4byte	.LASF198
 5792 0cab 19       		.byte	0x19
 5793 0cac 41       		.byte	0x41
 5794 0cad A6070000 		.4byte	0x7a6
 5795 0cb1 00       		.byte	0
 5796 0cb2 07       		.uleb128 0x7
 5797 0cb3 65727200 		.ascii	"err\000"
 5798 0cb7 19       		.byte	0x19
 5799 0cb8 43       		.byte	0x43
 5800 0cb9 29060000 		.4byte	0x629
 5801 0cbd 04       		.byte	0x4
 5802 0cbe 07       		.uleb128 0x7
 5803 0cbf 6D736700 		.ascii	"msg\000"
 5804 0cc3 19       		.byte	0x19
 5805 0cc4 75       		.byte	0x75
 5806 0cc5 2B0F0000 		.4byte	0xf2b
 5807 0cc9 08       		.byte	0x8
 5808 0cca 00       		.byte	0
 5809 0ccb 09       		.uleb128 0x9
 5810 0ccc 04       		.byte	0x4
 5811 0ccd 9A0C0000 		.4byte	0xc9a
 5812 0cd1 09       		.uleb128 0x9
 5813 0cd2 04       		.byte	0x4
 5814 0cd3 01050000 		.4byte	0x501
 5815 0cd7 03       		.uleb128 0x3
 5816 0cd8 3B0F0000 		.4byte	.LASF199
 5817 0cdc 16       		.byte	0x16
 5818 0cdd 3C       		.byte	0x3c
 5819 0cde E20C0000 		.4byte	0xce2
 5820 0ce2 09       		.uleb128 0x9
 5821 0ce3 04       		.byte	0x4
 5822 0ce4 E80C0000 		.4byte	0xce8
 5823 0ce8 1A       		.uleb128 0x1a
 5824 0ce9 29060000 		.4byte	0x629
 5825 0ced 010D0000 		.4byte	0xd01
 5826 0cf1 0E       		.uleb128 0xe
 5827 0cf2 C9020000 		.4byte	0x2c9
 5828 0cf6 0E       		.uleb128 0xe
 5829 0cf7 7E0B0000 		.4byte	0xb7e
 5830 0cfb 0E       		.uleb128 0xe
 5831 0cfc 29060000 		.4byte	0x629
 5832 0d00 00       		.byte	0
 5833 0d01 03       		.uleb128 0x3
 5834 0d02 9B0D0000 		.4byte	.LASF200
 5835 0d06 16       		.byte	0x16
ARM GAS  /tmp/ccZlncvZ.s 			page 104


 5836 0d07 48       		.byte	0x48
 5837 0d08 0C0D0000 		.4byte	0xd0c
 5838 0d0c 09       		.uleb128 0x9
 5839 0d0d 04       		.byte	0x4
 5840 0d0e 120D0000 		.4byte	0xd12
 5841 0d12 1A       		.uleb128 0x1a
 5842 0d13 29060000 		.4byte	0x629
 5843 0d17 300D0000 		.4byte	0xd30
 5844 0d1b 0E       		.uleb128 0xe
 5845 0d1c C9020000 		.4byte	0x2c9
 5846 0d20 0E       		.uleb128 0xe
 5847 0d21 7E0B0000 		.4byte	0xb7e
 5848 0d25 0E       		.uleb128 0xe
 5849 0d26 95060000 		.4byte	0x695
 5850 0d2a 0E       		.uleb128 0xe
 5851 0d2b 29060000 		.4byte	0x629
 5852 0d2f 00       		.byte	0
 5853 0d30 03       		.uleb128 0x3
 5854 0d31 89020000 		.4byte	.LASF201
 5855 0d35 16       		.byte	0x16
 5856 0d36 56       		.byte	0x56
 5857 0d37 3B0D0000 		.4byte	0xd3b
 5858 0d3b 09       		.uleb128 0x9
 5859 0d3c 04       		.byte	0x4
 5860 0d3d 410D0000 		.4byte	0xd41
 5861 0d41 1A       		.uleb128 0x1a
 5862 0d42 29060000 		.4byte	0x629
 5863 0d46 5A0D0000 		.4byte	0xd5a
 5864 0d4a 0E       		.uleb128 0xe
 5865 0d4b C9020000 		.4byte	0x2c9
 5866 0d4f 0E       		.uleb128 0xe
 5867 0d50 7E0B0000 		.4byte	0xb7e
 5868 0d54 0E       		.uleb128 0xe
 5869 0d55 BC040000 		.4byte	0x4bc
 5870 0d59 00       		.byte	0
 5871 0d5a 03       		.uleb128 0x3
 5872 0d5b 43060000 		.4byte	.LASF202
 5873 0d5f 16       		.byte	0x16
 5874 0d60 62       		.byte	0x62
 5875 0d61 650D0000 		.4byte	0xd65
 5876 0d65 09       		.uleb128 0x9
 5877 0d66 04       		.byte	0x4
 5878 0d67 6B0D0000 		.4byte	0xd6b
 5879 0d6b 1A       		.uleb128 0x1a
 5880 0d6c 29060000 		.4byte	0x629
 5881 0d70 7F0D0000 		.4byte	0xd7f
 5882 0d74 0E       		.uleb128 0xe
 5883 0d75 C9020000 		.4byte	0x2c9
 5884 0d79 0E       		.uleb128 0xe
 5885 0d7a 7E0B0000 		.4byte	0xb7e
 5886 0d7e 00       		.byte	0
 5887 0d7f 03       		.uleb128 0x3
 5888 0d80 CC020000 		.4byte	.LASF203
 5889 0d84 16       		.byte	0x16
 5890 0d85 6E       		.byte	0x6e
 5891 0d86 8A0D0000 		.4byte	0xd8a
 5892 0d8a 09       		.uleb128 0x9
ARM GAS  /tmp/ccZlncvZ.s 			page 105


 5893 0d8b 04       		.byte	0x4
 5894 0d8c 900D0000 		.4byte	0xd90
 5895 0d90 0D       		.uleb128 0xd
 5896 0d91 A00D0000 		.4byte	0xda0
 5897 0d95 0E       		.uleb128 0xe
 5898 0d96 C9020000 		.4byte	0x2c9
 5899 0d9a 0E       		.uleb128 0xe
 5900 0d9b 29060000 		.4byte	0x629
 5901 0d9f 00       		.byte	0
 5902 0da0 03       		.uleb128 0x3
 5903 0da1 E9090000 		.4byte	.LASF204
 5904 0da5 16       		.byte	0x16
 5905 0da6 7C       		.byte	0x7c
 5906 0da7 E20C0000 		.4byte	0xce2
 5907 0dab 17       		.uleb128 0x17
 5908 0dac 3E010000 		.4byte	.LASF205
 5909 0db0 01       		.byte	0x1
 5910 0db1 16       		.byte	0x16
 5911 0db2 7E       		.byte	0x7e
 5912 0db3 FA0D0000 		.4byte	0xdfa
 5913 0db7 18       		.uleb128 0x18
 5914 0db8 CB0D0000 		.4byte	.LASF206
 5915 0dbc 00       		.sleb128 0
 5916 0dbd 18       		.uleb128 0x18
 5917 0dbe F0000000 		.4byte	.LASF207
 5918 0dc2 01       		.sleb128 1
 5919 0dc3 18       		.uleb128 0x18
 5920 0dc4 B4030000 		.4byte	.LASF208
 5921 0dc8 02       		.sleb128 2
 5922 0dc9 18       		.uleb128 0x18
 5923 0dca 1D090000 		.4byte	.LASF209
 5924 0dce 03       		.sleb128 3
 5925 0dcf 18       		.uleb128 0x18
 5926 0dd0 51020000 		.4byte	.LASF210
 5927 0dd4 04       		.sleb128 4
 5928 0dd5 18       		.uleb128 0x18
 5929 0dd6 88030000 		.4byte	.LASF211
 5930 0dda 05       		.sleb128 5
 5931 0ddb 18       		.uleb128 0x18
 5932 0ddc 93030000 		.4byte	.LASF212
 5933 0de0 06       		.sleb128 6
 5934 0de1 18       		.uleb128 0x18
 5935 0de2 29050000 		.4byte	.LASF213
 5936 0de6 07       		.sleb128 7
 5937 0de7 18       		.uleb128 0x18
 5938 0de8 020F0000 		.4byte	.LASF214
 5939 0dec 08       		.sleb128 8
 5940 0ded 18       		.uleb128 0x18
 5941 0dee DA030000 		.4byte	.LASF215
 5942 0df2 09       		.sleb128 9
 5943 0df3 18       		.uleb128 0x18
 5944 0df4 2F010000 		.4byte	.LASF216
 5945 0df8 0A       		.sleb128 10
 5946 0df9 00       		.byte	0
 5947 0dfa 1B       		.uleb128 0x1b
 5948 0dfb 610F0000 		.4byte	.LASF354
 5949 0dff 09       		.uleb128 0x9
ARM GAS  /tmp/ccZlncvZ.s 			page 106


 5950 0e00 04       		.byte	0x4
 5951 0e01 FA0D0000 		.4byte	0xdfa
 5952 0e05 03       		.uleb128 0x3
 5953 0e06 70020000 		.4byte	.LASF217
 5954 0e0a 18       		.byte	0x18
 5955 0e0b 3C       		.byte	0x3c
 5956 0e0c 100E0000 		.4byte	0xe10
 5957 0e10 09       		.uleb128 0x9
 5958 0e11 04       		.byte	0x4
 5959 0e12 160E0000 		.4byte	0xe16
 5960 0e16 1A       		.uleb128 0x1a
 5961 0e17 A6040000 		.4byte	0x4a6
 5962 0e1b 340E0000 		.4byte	0xe34
 5963 0e1f 0E       		.uleb128 0xe
 5964 0e20 C9020000 		.4byte	0x2c9
 5965 0e24 0E       		.uleb128 0xe
 5966 0e25 940C0000 		.4byte	0xc94
 5967 0e29 0E       		.uleb128 0xe
 5968 0e2a 95060000 		.4byte	0x695
 5969 0e2e 0E       		.uleb128 0xe
 5970 0e2f D10C0000 		.4byte	0xcd1
 5971 0e33 00       		.byte	0
 5972 0e34 03       		.uleb128 0x3
 5973 0e35 B0090000 		.4byte	.LASF218
 5974 0e39 17       		.byte	0x17
 5975 0e3a 57       		.byte	0x57
 5976 0e3b 3F0E0000 		.4byte	0xe3f
 5977 0e3f 09       		.uleb128 0x9
 5978 0e40 04       		.byte	0x4
 5979 0e41 450E0000 		.4byte	0xe45
 5980 0e45 0D       		.uleb128 0xd
 5981 0e46 640E0000 		.4byte	0xe64
 5982 0e4a 0E       		.uleb128 0xe
 5983 0e4b C9020000 		.4byte	0x2c9
 5984 0e4f 0E       		.uleb128 0xe
 5985 0e50 150C0000 		.4byte	0xc15
 5986 0e54 0E       		.uleb128 0xe
 5987 0e55 95060000 		.4byte	0x695
 5988 0e59 0E       		.uleb128 0xe
 5989 0e5a D10C0000 		.4byte	0xcd1
 5990 0e5e 0E       		.uleb128 0xe
 5991 0e5f BC040000 		.4byte	0x4bc
 5992 0e63 00       		.byte	0
 5993 0e64 08       		.uleb128 0x8
 5994 0e65 01       		.byte	0x1
 5995 0e66 19       		.byte	0x19
 5996 0e67 49       		.byte	0x49
 5997 0e68 790E0000 		.4byte	0xe79
 5998 0e6c 06       		.uleb128 0x6
 5999 0e6d 6D000000 		.4byte	.LASF219
 6000 0e71 19       		.byte	0x19
 6001 0e72 4A       		.byte	0x4a
 6002 0e73 A6040000 		.4byte	0x4a6
 6003 0e77 00       		.byte	0
 6004 0e78 00       		.byte	0
 6005 0e79 08       		.uleb128 0x8
 6006 0e7a 08       		.byte	0x8
ARM GAS  /tmp/ccZlncvZ.s 			page 107


 6007 0e7b 19       		.byte	0x19
 6008 0e7c 4D       		.byte	0x4d
 6009 0e7d 9A0E0000 		.4byte	0xe9a
 6010 0e81 06       		.uleb128 0x6
 6011 0e82 8F010000 		.4byte	.LASF220
 6012 0e86 19       		.byte	0x19
 6013 0e87 4E       		.byte	0x4e
 6014 0e88 D10C0000 		.4byte	0xcd1
 6015 0e8c 00       		.byte	0
 6016 0e8d 06       		.uleb128 0x6
 6017 0e8e 7D0C0000 		.4byte	.LASF112
 6018 0e92 19       		.byte	0x19
 6019 0e93 4F       		.byte	0x4f
 6020 0e94 BC040000 		.4byte	0x4bc
 6021 0e98 04       		.byte	0x4
 6022 0e99 00       		.byte	0
 6023 0e9a 08       		.uleb128 0x8
 6024 0e9b 0C       		.byte	0xc
 6025 0e9c 19       		.byte	0x19
 6026 0e9d 52       		.byte	0x52
 6027 0e9e C70E0000 		.4byte	0xec7
 6028 0ea2 06       		.uleb128 0x6
 6029 0ea3 8F010000 		.4byte	.LASF220
 6030 0ea7 19       		.byte	0x19
 6031 0ea8 53       		.byte	0x53
 6032 0ea9 D10C0000 		.4byte	0xcd1
 6033 0ead 00       		.byte	0
 6034 0eae 06       		.uleb128 0x6
 6035 0eaf 7D0C0000 		.4byte	.LASF112
 6036 0eb3 19       		.byte	0x19
 6037 0eb4 54       		.byte	0x54
 6038 0eb5 C70E0000 		.4byte	0xec7
 6039 0eb9 04       		.byte	0x4
 6040 0eba 06       		.uleb128 0x6
 6041 0ebb 1F010000 		.4byte	.LASF221
 6042 0ebf 19       		.byte	0x19
 6043 0ec0 55       		.byte	0x55
 6044 0ec1 A6040000 		.4byte	0x4a6
 6045 0ec5 08       		.byte	0x8
 6046 0ec6 00       		.byte	0
 6047 0ec7 09       		.uleb128 0x9
 6048 0ec8 04       		.byte	0x4
 6049 0ec9 BC040000 		.4byte	0x4bc
 6050 0ecd 08       		.uleb128 0x8
 6051 0ece 0C       		.byte	0xc
 6052 0ecf 19       		.byte	0x19
 6053 0ed0 58       		.byte	0x58
 6054 0ed1 FA0E0000 		.4byte	0xefa
 6055 0ed5 06       		.uleb128 0x6
 6056 0ed6 5E0E0000 		.4byte	.LASF222
 6057 0eda 19       		.byte	0x19
 6058 0edb 59       		.byte	0x59
 6059 0edc FA0E0000 		.4byte	0xefa
 6060 0ee0 00       		.byte	0
 6061 0ee1 07       		.uleb128 0x7
 6062 0ee2 6C656E00 		.ascii	"len\000"
 6063 0ee6 19       		.byte	0x19
ARM GAS  /tmp/ccZlncvZ.s 			page 108


 6064 0ee7 5A       		.byte	0x5a
 6065 0ee8 2C000000 		.4byte	0x2c
 6066 0eec 04       		.byte	0x4
 6067 0eed 06       		.uleb128 0x6
 6068 0eee 5C0D0000 		.4byte	.LASF223
 6069 0ef2 19       		.byte	0x19
 6070 0ef3 5B       		.byte	0x5b
 6071 0ef4 A6040000 		.4byte	0x4a6
 6072 0ef8 08       		.byte	0x8
 6073 0ef9 00       		.byte	0
 6074 0efa 09       		.uleb128 0x9
 6075 0efb 04       		.byte	0x4
 6076 0efc 000F0000 		.4byte	0xf00
 6077 0f00 1C       		.uleb128 0x1c
 6078 0f01 08       		.uleb128 0x8
 6079 0f02 04       		.byte	0x4
 6080 0f03 19       		.byte	0x19
 6081 0f04 61       		.byte	0x61
 6082 0f05 160F0000 		.4byte	0xf16
 6083 0f09 07       		.uleb128 0x7
 6084 0f0a 6C656E00 		.ascii	"len\000"
 6085 0f0e 19       		.byte	0x19
 6086 0f0f 62       		.byte	0x62
 6087 0f10 D2040000 		.4byte	0x4d2
 6088 0f14 00       		.byte	0
 6089 0f15 00       		.byte	0
 6090 0f16 08       		.uleb128 0x8
 6091 0f17 01       		.byte	0x1
 6092 0f18 19       		.byte	0x19
 6093 0f19 65       		.byte	0x65
 6094 0f1a 2B0F0000 		.4byte	0xf2b
 6095 0f1e 06       		.uleb128 0x6
 6096 0f1f BC040000 		.4byte	.LASF224
 6097 0f23 19       		.byte	0x19
 6098 0f24 66       		.byte	0x66
 6099 0f25 A6040000 		.4byte	0x4a6
 6100 0f29 00       		.byte	0
 6101 0f2a 00       		.byte	0
 6102 0f2b 10       		.uleb128 0x10
 6103 0f2c 0C       		.byte	0xc
 6104 0f2d 19       		.byte	0x19
 6105 0f2e 45       		.byte	0x45
 6106 0f2f 760F0000 		.4byte	0xf76
 6107 0f33 19       		.uleb128 0x19
 6108 0f34 6200     		.ascii	"b\000"
 6109 0f36 19       		.byte	0x19
 6110 0f37 47       		.byte	0x47
 6111 0f38 760F0000 		.4byte	0xf76
 6112 0f3c 19       		.uleb128 0x19
 6113 0f3d 6E00     		.ascii	"n\000"
 6114 0f3f 19       		.byte	0x19
 6115 0f40 4B       		.byte	0x4b
 6116 0f41 640E0000 		.4byte	0xe64
 6117 0f45 19       		.uleb128 0x19
 6118 0f46 626300   		.ascii	"bc\000"
 6119 0f49 19       		.byte	0x19
 6120 0f4a 50       		.byte	0x50
ARM GAS  /tmp/ccZlncvZ.s 			page 109


 6121 0f4b 790E0000 		.4byte	0xe79
 6122 0f4f 19       		.uleb128 0x19
 6123 0f50 616400   		.ascii	"ad\000"
 6124 0f53 19       		.byte	0x19
 6125 0f54 56       		.byte	0x56
 6126 0f55 9A0E0000 		.4byte	0xe9a
 6127 0f59 19       		.uleb128 0x19
 6128 0f5a 7700     		.ascii	"w\000"
 6129 0f5c 19       		.byte	0x19
 6130 0f5d 5F       		.byte	0x5f
 6131 0f5e CD0E0000 		.4byte	0xecd
 6132 0f62 19       		.uleb128 0x19
 6133 0f63 7200     		.ascii	"r\000"
 6134 0f65 19       		.byte	0x19
 6135 0f66 63       		.byte	0x63
 6136 0f67 010F0000 		.4byte	0xf01
 6137 0f6b 19       		.uleb128 0x19
 6138 0f6c 736400   		.ascii	"sd\000"
 6139 0f6f 19       		.byte	0x19
 6140 0f70 67       		.byte	0x67
 6141 0f71 160F0000 		.4byte	0xf16
 6142 0f75 00       		.byte	0
 6143 0f76 09       		.uleb128 0x9
 6144 0f77 04       		.byte	0x4
 6145 0f78 9B060000 		.4byte	0x69b
 6146 0f7c 03       		.uleb128 0x3
 6147 0f7d 0B090000 		.4byte	.LASF225
 6148 0f81 1A       		.byte	0x1a
 6149 0f82 4E       		.byte	0x4e
 6150 0f83 6F030000 		.4byte	0x36f
 6151 0f87 09       		.uleb128 0x9
 6152 0f88 04       		.byte	0x4
 6153 0f89 D6060000 		.4byte	0x6d6
 6154 0f8d 05       		.uleb128 0x5
 6155 0f8e A3040000 		.4byte	.LASF226
 6156 0f92 18       		.byte	0x18
 6157 0f93 01       		.byte	0x1
 6158 0f94 40       		.byte	0x40
 6159 0f95 FA0F0000 		.4byte	0xffa
 6160 0f99 06       		.uleb128 0x6
 6161 0f9a 39010000 		.4byte	.LASF198
 6162 0f9e 01       		.byte	0x1
 6163 0f9f 42       		.byte	0x42
 6164 0fa0 A6070000 		.4byte	0x7a6
 6165 0fa4 00       		.byte	0
 6166 0fa5 06       		.uleb128 0x6
 6167 0fa6 08010000 		.4byte	.LASF227
 6168 0faa 01       		.byte	0x1
 6169 0fab 44       		.byte	0x44
 6170 0fac C9020000 		.4byte	0x2c9
 6171 0fb0 04       		.byte	0x4
 6172 0fb1 06       		.uleb128 0x6
 6173 0fb2 C1020000 		.4byte	.LASF228
 6174 0fb6 01       		.byte	0x1
 6175 0fb7 46       		.byte	0x46
 6176 0fb8 BC040000 		.4byte	0x4bc
 6177 0fbc 08       		.byte	0x8
ARM GAS  /tmp/ccZlncvZ.s 			page 110


 6178 0fbd 06       		.uleb128 0x6
 6179 0fbe 080E0000 		.4byte	.LASF229
 6180 0fc2 01       		.byte	0x1
 6181 0fc3 49       		.byte	0x49
 6182 0fc4 C7040000 		.4byte	0x4c7
 6183 0fc8 0A       		.byte	0xa
 6184 0fc9 06       		.uleb128 0x6
 6185 0fca FE070000 		.4byte	.LASF230
 6186 0fce 01       		.byte	0x1
 6187 0fcf 4C       		.byte	0x4c
 6188 0fd0 BC040000 		.4byte	0x4bc
 6189 0fd4 0C       		.byte	0xc
 6190 0fd5 06       		.uleb128 0x6
 6191 0fd6 79030000 		.4byte	.LASF231
 6192 0fda 01       		.byte	0x1
 6193 0fdb 4E       		.byte	0x4e
 6194 0fdc BC040000 		.4byte	0x4bc
 6195 0fe0 0E       		.byte	0xe
 6196 0fe1 07       		.uleb128 0x7
 6197 0fe2 65727200 		.ascii	"err\000"
 6198 0fe6 01       		.byte	0x1
 6199 0fe7 50       		.byte	0x50
 6200 0fe8 25000000 		.4byte	0x25
 6201 0fec 10       		.byte	0x10
 6202 0fed 06       		.uleb128 0x6
 6203 0fee 65040000 		.4byte	.LASF232
 6204 0ff2 01       		.byte	0x1
 6205 0ff3 52       		.byte	0x52
 6206 0ff4 25000000 		.4byte	0x25
 6207 0ff8 14       		.byte	0x14
 6208 0ff9 00       		.byte	0
 6209 0ffa 05       		.uleb128 0x5
 6210 0ffb 34050000 		.4byte	.LASF233
 6211 0fff 1C       		.byte	0x1c
 6212 1000 01       		.byte	0x1
 6213 1001 56       		.byte	0x56
 6214 1002 5B100000 		.4byte	0x105b
 6215 1006 06       		.uleb128 0x6
 6216 1007 500F0000 		.4byte	.LASF106
 6217 100b 01       		.byte	0x1
 6218 100c 58       		.byte	0x58
 6219 100d 5B100000 		.4byte	0x105b
 6220 1011 00       		.byte	0
 6221 1012 06       		.uleb128 0x6
 6222 1013 790F0000 		.4byte	.LASF234
 6223 1017 01       		.byte	0x1
 6224 1018 5A       		.byte	0x5a
 6225 1019 5B100000 		.4byte	0x105b
 6226 101d 04       		.byte	0x4
 6227 101e 06       		.uleb128 0x6
 6228 101f 00040000 		.4byte	.LASF235
 6229 1023 01       		.byte	0x1
 6230 1024 5C       		.byte	0x5c
 6231 1025 61100000 		.4byte	0x1061
 6232 1029 08       		.byte	0x8
 6233 102a 06       		.uleb128 0x6
 6234 102b DE0B0000 		.4byte	.LASF236
ARM GAS  /tmp/ccZlncvZ.s 			page 111


 6235 102f 01       		.byte	0x1
 6236 1030 5E       		.byte	0x5e
 6237 1031 61100000 		.4byte	0x1061
 6238 1035 0C       		.byte	0xc
 6239 1036 06       		.uleb128 0x6
 6240 1037 25010000 		.4byte	.LASF237
 6241 103b 01       		.byte	0x1
 6242 103c 60       		.byte	0x60
 6243 103d 61100000 		.4byte	0x1061
 6244 1041 10       		.byte	0x10
 6245 1042 06       		.uleb128 0x6
 6246 1043 74070000 		.4byte	.LASF238
 6247 1047 01       		.byte	0x1
 6248 1048 62       		.byte	0x62
 6249 1049 25000000 		.4byte	0x25
 6250 104d 14       		.byte	0x14
 6251 104e 07       		.uleb128 0x7
 6252 104f 73656D00 		.ascii	"sem\000"
 6253 1053 01       		.byte	0x1
 6254 1054 64       		.byte	0x64
 6255 1055 D6060000 		.4byte	0x6d6
 6256 1059 18       		.byte	0x18
 6257 105a 00       		.byte	0
 6258 105b 09       		.uleb128 0x9
 6259 105c 04       		.byte	0x4
 6260 105d FA0F0000 		.4byte	0xffa
 6261 1061 09       		.uleb128 0x9
 6262 1062 04       		.byte	0x4
 6263 1063 F5050000 		.4byte	0x5f5
 6264 1067 05       		.uleb128 0x5
 6265 1068 6C0D0000 		.4byte	.LASF239
 6266 106c 18       		.byte	0x18
 6267 106d 01       		.byte	0x1
 6268 106e 69       		.byte	0x69
 6269 106f BC100000 		.4byte	0x10bc
 6270 1073 06       		.uleb128 0x6
 6271 1074 F2070000 		.4byte	.LASF240
 6272 1078 01       		.byte	0x1
 6273 1079 6B       		.byte	0x6b
 6274 107a BC100000 		.4byte	0x10bc
 6275 107e 00       		.byte	0
 6276 107f 06       		.uleb128 0x6
 6277 1080 660E0000 		.4byte	.LASF241
 6278 1084 01       		.byte	0x1
 6279 1085 71       		.byte	0x71
 6280 1086 25000000 		.4byte	0x25
 6281 108a 04       		.byte	0x4
 6282 108b 06       		.uleb128 0x6
 6283 108c 39090000 		.4byte	.LASF242
 6284 1090 01       		.byte	0x1
 6285 1091 73       		.byte	0x73
 6286 1092 25000000 		.4byte	0x25
 6287 1096 08       		.byte	0x8
 6288 1097 06       		.uleb128 0x6
 6289 1098 B0080000 		.4byte	.LASF243
 6290 109c 01       		.byte	0x1
 6291 109d 76       		.byte	0x76
ARM GAS  /tmp/ccZlncvZ.s 			page 112


 6292 109e C9020000 		.4byte	0x2c9
 6293 10a2 0C       		.byte	0xc
 6294 10a3 06       		.uleb128 0x6
 6295 10a4 9A0A0000 		.4byte	.LASF244
 6296 10a8 01       		.byte	0x1
 6297 10a9 78       		.byte	0x78
 6298 10aa C2100000 		.4byte	0x10c2
 6299 10ae 10       		.byte	0x10
 6300 10af 07       		.uleb128 0x7
 6301 10b0 65727200 		.ascii	"err\000"
 6302 10b4 01       		.byte	0x1
 6303 10b5 7A       		.byte	0x7a
 6304 10b6 29060000 		.4byte	0x629
 6305 10ba 14       		.byte	0x14
 6306 10bb 00       		.byte	0
 6307 10bc 09       		.uleb128 0x9
 6308 10bd 04       		.byte	0x4
 6309 10be 8D0F0000 		.4byte	0xf8d
 6310 10c2 09       		.uleb128 0x9
 6311 10c3 04       		.byte	0x4
 6312 10c4 BF050000 		.4byte	0x5bf
 6313 10c8 1D       		.uleb128 0x1d
 6314 10c9 380D0000 		.4byte	.LASF245
 6315 10cd 01       		.byte	0x1
 6316 10ce DF       		.byte	0xdf
 6317 10cf BC100000 		.4byte	0x10bc
 6318 10d3 01       		.byte	0x1
 6319 10d4 E2100000 		.4byte	0x10e2
 6320 10d8 1E       		.uleb128 0x1e
 6321 10d9 7300     		.ascii	"s\000"
 6322 10db 01       		.byte	0x1
 6323 10dc DF       		.byte	0xdf
 6324 10dd 25000000 		.4byte	0x25
 6325 10e1 00       		.byte	0
 6326 10e2 1D       		.uleb128 0x1d
 6327 10e3 57000000 		.4byte	.LASF246
 6328 10e7 01       		.byte	0x1
 6329 10e8 C3       		.byte	0xc3
 6330 10e9 BC100000 		.4byte	0x10bc
 6331 10ed 01       		.byte	0x1
 6332 10ee 07110000 		.4byte	0x1107
 6333 10f2 1E       		.uleb128 0x1e
 6334 10f3 7300     		.ascii	"s\000"
 6335 10f5 01       		.byte	0x1
 6336 10f6 C3       		.byte	0xc3
 6337 10f7 25000000 		.4byte	0x25
 6338 10fb 1F       		.uleb128 0x1f
 6339 10fc F2070000 		.4byte	.LASF240
 6340 1100 01       		.byte	0x1
 6341 1101 C5       		.byte	0xc5
 6342 1102 BC100000 		.4byte	0x10bc
 6343 1106 00       		.byte	0
 6344 1107 20       		.uleb128 0x20
 6345 1108 C3050000 		.4byte	.LASF249
 6346 110c 01       		.byte	0x1
 6347 110d F3       		.byte	0xf3
 6348 110e 25000000 		.4byte	0x25
ARM GAS  /tmp/ccZlncvZ.s 			page 113


 6349 1112 00000000 		.4byte	.LFB10
 6350 1116 72000000 		.4byte	.LFE10-.LFB10
 6351 111a 01       		.uleb128 0x1
 6352 111b 9C       		.byte	0x9c
 6353 111c 4C110000 		.4byte	0x114c
 6354 1120 21       		.uleb128 0x21
 6355 1121 E7010000 		.4byte	.LASF247
 6356 1125 01       		.byte	0x1
 6357 1126 F3       		.byte	0xf3
 6358 1127 A6070000 		.4byte	0x7a6
 6359 112b 00000000 		.4byte	.LLST0
 6360 112f 21       		.uleb128 0x21
 6361 1130 82060000 		.4byte	.LASF248
 6362 1134 01       		.byte	0x1
 6363 1135 F3       		.byte	0xf3
 6364 1136 25000000 		.4byte	0x25
 6365 113a 4D000000 		.4byte	.LLST1
 6366 113e 22       		.uleb128 0x22
 6367 113f 6900     		.ascii	"i\000"
 6368 1141 01       		.byte	0x1
 6369 1142 F5       		.byte	0xf5
 6370 1143 25000000 		.4byte	0x25
 6371 1147 6E000000 		.4byte	.LLST2
 6372 114b 00       		.byte	0
 6373 114c 23       		.uleb128 0x23
 6374 114d CC090000 		.4byte	.LASF250
 6375 1151 01       		.byte	0x1
 6376 1152 0204     		.2byte	0x402
 6377 1154 25000000 		.4byte	0x25
 6378 1158 00000000 		.4byte	.LFB24
 6379 115c 24010000 		.4byte	.LFE24-.LFB24
 6380 1160 01       		.uleb128 0x1
 6381 1161 9C       		.byte	0x9c
 6382 1162 8E120000 		.4byte	0x128e
 6383 1166 24       		.uleb128 0x24
 6384 1167 1C0F0000 		.4byte	.LASF251
 6385 116b 01       		.byte	0x1
 6386 116c 0204     		.2byte	0x402
 6387 116e 25000000 		.4byte	0x25
 6388 1172 8D000000 		.4byte	.LLST3
 6389 1176 24       		.uleb128 0x24
 6390 1177 FD000000 		.4byte	.LASF252
 6391 117b 01       		.byte	0x1
 6392 117c 0204     		.2byte	0x402
 6393 117e 61100000 		.4byte	0x1061
 6394 1182 C4000000 		.4byte	.LLST4
 6395 1186 24       		.uleb128 0x24
 6396 1187 C7030000 		.4byte	.LASF253
 6397 118b 01       		.byte	0x1
 6398 118c 0204     		.2byte	0x402
 6399 118e 61100000 		.4byte	0x1061
 6400 1192 F0000000 		.4byte	.LLST5
 6401 1196 24       		.uleb128 0x24
 6402 1197 E8040000 		.4byte	.LASF254
 6403 119b 01       		.byte	0x1
 6404 119c 0204     		.2byte	0x402
 6405 119e 61100000 		.4byte	0x1061
ARM GAS  /tmp/ccZlncvZ.s 			page 114


 6406 11a2 1C010000 		.4byte	.LLST6
 6407 11a6 24       		.uleb128 0x24
 6408 11a7 B10E0000 		.4byte	.LASF255
 6409 11ab 01       		.byte	0x1
 6410 11ac 0304     		.2byte	0x403
 6411 11ae 61100000 		.4byte	0x1061
 6412 11b2 48010000 		.4byte	.LLST7
 6413 11b6 24       		.uleb128 0x24
 6414 11b7 96040000 		.4byte	.LASF256
 6415 11bb 01       		.byte	0x1
 6416 11bc 0304     		.2byte	0x403
 6417 11be 61100000 		.4byte	0x1061
 6418 11c2 74010000 		.4byte	.LLST8
 6419 11c6 24       		.uleb128 0x24
 6420 11c7 CF0C0000 		.4byte	.LASF257
 6421 11cb 01       		.byte	0x1
 6422 11cc 0304     		.2byte	0x403
 6423 11ce 61100000 		.4byte	0x1061
 6424 11d2 A0010000 		.4byte	.LLST9
 6425 11d6 25       		.uleb128 0x25
 6426 11d7 6900     		.ascii	"i\000"
 6427 11d9 01       		.byte	0x1
 6428 11da 0504     		.2byte	0x405
 6429 11dc 25000000 		.4byte	0x25
 6430 11e0 CC010000 		.4byte	.LLST10
 6431 11e4 26       		.uleb128 0x26
 6432 11e5 340F0000 		.4byte	.LASF258
 6433 11e9 01       		.byte	0x1
 6434 11ea 0504     		.2byte	0x405
 6435 11ec 25000000 		.4byte	0x25
 6436 11f0 F6010000 		.4byte	.LLST11
 6437 11f4 27       		.uleb128 0x27
 6438 11f5 F30B0000 		.4byte	.LASF259
 6439 11f9 01       		.byte	0x1
 6440 11fa 0604     		.2byte	0x406
 6441 11fc F5050000 		.4byte	0x5f5
 6442 1200 02       		.uleb128 0x2
 6443 1201 91       		.byte	0x91
 6444 1202 54       		.sleb128 -44
 6445 1203 27       		.uleb128 0x27
 6446 1204 D9090000 		.4byte	.LASF260
 6447 1208 01       		.byte	0x1
 6448 1209 0604     		.2byte	0x406
 6449 120b F5050000 		.4byte	0x5f5
 6450 120f 02       		.uleb128 0x2
 6451 1210 91       		.byte	0x91
 6452 1211 58       		.sleb128 -40
 6453 1212 27       		.uleb128 0x27
 6454 1213 00000000 		.4byte	.LASF261
 6455 1217 01       		.byte	0x1
 6456 1218 0604     		.2byte	0x406
 6457 121a F5050000 		.4byte	0x5f5
 6458 121e 02       		.uleb128 0x2
 6459 121f 91       		.byte	0x91
 6460 1220 5C       		.sleb128 -36
 6461 1221 28       		.uleb128 0x28
 6462 1222 F2070000 		.4byte	.LASF240
ARM GAS  /tmp/ccZlncvZ.s 			page 115


 6463 1226 01       		.byte	0x1
 6464 1227 0704     		.2byte	0x407
 6465 1229 BC100000 		.4byte	0x10bc
 6466 122d 29       		.uleb128 0x29
 6467 122e 00000000 		.4byte	.Ldebug_ranges0+0
 6468 1232 26       		.uleb128 0x26
 6469 1233 08010000 		.4byte	.LASF227
 6470 1237 01       		.byte	0x1
 6471 1238 1104     		.2byte	0x411
 6472 123a C9020000 		.4byte	0x2c9
 6473 123e 20020000 		.4byte	.LLST12
 6474 1242 26       		.uleb128 0x26
 6475 1243 080E0000 		.4byte	.LASF229
 6476 1247 01       		.byte	0x1
 6477 1248 1204     		.2byte	0x412
 6478 124a C7040000 		.4byte	0x4c7
 6479 124e 62020000 		.4byte	.LLST13
 6480 1252 26       		.uleb128 0x26
 6481 1253 FE070000 		.4byte	.LASF230
 6482 1257 01       		.byte	0x1
 6483 1258 1304     		.2byte	0x413
 6484 125a BC040000 		.4byte	0x4bc
 6485 125e A5020000 		.4byte	.LLST14
 6486 1262 26       		.uleb128 0x26
 6487 1263 79030000 		.4byte	.LASF231
 6488 1267 01       		.byte	0x1
 6489 1268 1404     		.2byte	0x414
 6490 126a BC040000 		.4byte	0x4bc
 6491 126e E8020000 		.4byte	.LLST15
 6492 1272 2A       		.uleb128 0x2a
 6493 1273 C8100000 		.4byte	0x10c8
 6494 1277 26000000 		.4byte	.LBB46
 6495 127b 18000000 		.4byte	.Ldebug_ranges0+0x18
 6496 127f 01       		.byte	0x1
 6497 1280 1704     		.2byte	0x417
 6498 1282 2B       		.uleb128 0x2b
 6499 1283 D8100000 		.4byte	0x10d8
 6500 1287 2B030000 		.4byte	.LLST16
 6501 128b 00       		.byte	0
 6502 128c 00       		.byte	0
 6503 128d 00       		.byte	0
 6504 128e 23       		.uleb128 0x23
 6505 128f 42070000 		.4byte	.LASF262
 6506 1293 01       		.byte	0x1
 6507 1294 8305     		.2byte	0x583
 6508 1296 25000000 		.4byte	0x25
 6509 129a 00000000 		.4byte	.LFB28
 6510 129e 7E000000 		.4byte	.LFE28-.LFB28
 6511 12a2 01       		.uleb128 0x1
 6512 12a3 9C       		.byte	0x9c
 6513 12a4 77130000 		.4byte	0x1377
 6514 12a8 2C       		.uleb128 0x2c
 6515 12a9 7300     		.ascii	"s\000"
 6516 12ab 01       		.byte	0x1
 6517 12ac 8305     		.2byte	0x583
 6518 12ae 25000000 		.4byte	0x25
 6519 12b2 56030000 		.4byte	.LLST17
ARM GAS  /tmp/ccZlncvZ.s 			page 116


 6520 12b6 24       		.uleb128 0x24
 6521 12b7 700C0000 		.4byte	.LASF263
 6522 12bb 01       		.byte	0x1
 6523 12bc 8305     		.2byte	0x583
 6524 12be 77130000 		.4byte	0x1377
 6525 12c2 77030000 		.4byte	.LLST18
 6526 12c6 24       		.uleb128 0x24
 6527 12c7 16030000 		.4byte	.LASF264
 6528 12cb 01       		.byte	0x1
 6529 12cc 8305     		.2byte	0x583
 6530 12ce C2100000 		.4byte	0x10c2
 6531 12d2 A0030000 		.4byte	.LLST19
 6532 12d6 24       		.uleb128 0x24
 6533 12d7 1F010000 		.4byte	.LASF221
 6534 12db 01       		.byte	0x1
 6535 12dc 8305     		.2byte	0x583
 6536 12de A6040000 		.4byte	0x4a6
 6537 12e2 C9030000 		.4byte	.LLST20
 6538 12e6 28       		.uleb128 0x28
 6539 12e7 F2070000 		.4byte	.LASF240
 6540 12eb 01       		.byte	0x1
 6541 12ec 8505     		.2byte	0x585
 6542 12ee BC100000 		.4byte	0x10bc
 6543 12f2 2D       		.uleb128 0x2d
 6544 12f3 73696E00 		.ascii	"sin\000"
 6545 12f7 01       		.byte	0x1
 6546 12f8 8605     		.2byte	0x586
 6547 12fa 25050000 		.4byte	0x525
 6548 12fe 02       		.uleb128 0x2
 6549 12ff 91       		.byte	0x91
 6550 1300 58       		.sleb128 -40
 6551 1301 27       		.uleb128 0x27
 6552 1302 22000000 		.4byte	.LASF265
 6553 1306 01       		.byte	0x1
 6554 1307 8705     		.2byte	0x587
 6555 1309 01050000 		.4byte	0x501
 6556 130d 02       		.uleb128 0x2
 6557 130e 91       		.byte	0x91
 6558 130f 54       		.sleb128 -44
 6559 1310 2E       		.uleb128 0x2e
 6560 1311 E2100000 		.4byte	0x10e2
 6561 1315 04000000 		.4byte	.LBB53
 6562 1319 38000000 		.4byte	.Ldebug_ranges0+0x38
 6563 131d 01       		.byte	0x1
 6564 131e 8905     		.2byte	0x589
 6565 1320 3D130000 		.4byte	0x133d
 6566 1324 2B       		.uleb128 0x2b
 6567 1325 F2100000 		.4byte	0x10f2
 6568 1329 56030000 		.4byte	.LLST17
 6569 132d 29       		.uleb128 0x29
 6570 132e 38000000 		.4byte	.Ldebug_ranges0+0x38
 6571 1332 2F       		.uleb128 0x2f
 6572 1333 FB100000 		.4byte	0x10fb
 6573 1337 F5030000 		.4byte	.LLST22
 6574 133b 00       		.byte	0
 6575 133c 00       		.byte	0
 6576 133d 30       		.uleb128 0x30
ARM GAS  /tmp/ccZlncvZ.s 			page 117


 6577 133e 46000000 		.4byte	.LVL36
 6578 1342 65290000 		.4byte	0x2965
 6579 1346 57130000 		.4byte	0x1357
 6580 134a 31       		.uleb128 0x31
 6581 134b 01       		.uleb128 0x1
 6582 134c 52       		.byte	0x52
 6583 134d 02       		.uleb128 0x2
 6584 134e 91       		.byte	0x91
 6585 134f 5A       		.sleb128 -38
 6586 1350 31       		.uleb128 0x31
 6587 1351 01       		.uleb128 0x1
 6588 1352 51       		.byte	0x51
 6589 1353 02       		.uleb128 0x2
 6590 1354 91       		.byte	0x91
 6591 1355 54       		.sleb128 -44
 6592 1356 00       		.byte	0
 6593 1357 32       		.uleb128 0x32
 6594 1358 4E000000 		.4byte	.LVL37
 6595 135c 89290000 		.4byte	0x2989
 6596 1360 33       		.uleb128 0x33
 6597 1361 68000000 		.4byte	.LVL38
 6598 1365 9E290000 		.4byte	0x299e
 6599 1369 31       		.uleb128 0x31
 6600 136a 01       		.uleb128 0x1
 6601 136b 51       		.byte	0x51
 6602 136c 02       		.uleb128 0x2
 6603 136d 91       		.byte	0x91
 6604 136e 58       		.sleb128 -40
 6605 136f 31       		.uleb128 0x31
 6606 1370 01       		.uleb128 0x1
 6607 1371 50       		.byte	0x50
 6608 1372 02       		.uleb128 0x2
 6609 1373 75       		.byte	0x75
 6610 1374 00       		.sleb128 0
 6611 1375 00       		.byte	0
 6612 1376 00       		.byte	0
 6613 1377 09       		.uleb128 0x9
 6614 1378 04       		.byte	0x4
 6615 1379 7E050000 		.4byte	0x57e
 6616 137d 34       		.uleb128 0x34
 6617 137e 5F030000 		.4byte	.LASF268
 6618 1382 01       		.byte	0x1
 6619 1383 DF04     		.2byte	0x4df
 6620 1385 00000000 		.4byte	.LFB26
 6621 1389 FC000000 		.4byte	.LFE26-.LFB26
 6622 138d 01       		.uleb128 0x1
 6623 138e 9C       		.byte	0x9c
 6624 138f 6A140000 		.4byte	0x146a
 6625 1393 24       		.uleb128 0x24
 6626 1394 39010000 		.4byte	.LASF198
 6627 1398 01       		.byte	0x1
 6628 1399 DF04     		.2byte	0x4df
 6629 139b A6070000 		.4byte	0x7a6
 6630 139f 08040000 		.4byte	.LLST23
 6631 13a3 2C       		.uleb128 0x2c
 6632 13a4 65767400 		.ascii	"evt\000"
 6633 13a8 01       		.byte	0x1
ARM GAS  /tmp/ccZlncvZ.s 			page 118


 6634 13a9 DF04     		.2byte	0x4df
 6635 13ab 55070000 		.4byte	0x755
 6636 13af 7F040000 		.4byte	.LLST24
 6637 13b3 2C       		.uleb128 0x2c
 6638 13b4 6C656E00 		.ascii	"len\000"
 6639 13b8 01       		.byte	0x1
 6640 13b9 DF04     		.2byte	0x4df
 6641 13bb BC040000 		.4byte	0x4bc
 6642 13bf F6040000 		.4byte	.LLST25
 6643 13c3 25       		.uleb128 0x25
 6644 13c4 7300     		.ascii	"s\000"
 6645 13c6 01       		.byte	0x1
 6646 13c7 E104     		.2byte	0x4e1
 6647 13c9 25000000 		.4byte	0x25
 6648 13cd 3B050000 		.4byte	.LLST26
 6649 13d1 28       		.uleb128 0x28
 6650 13d2 F2070000 		.4byte	.LASF240
 6651 13d6 01       		.byte	0x1
 6652 13d7 E204     		.2byte	0x4e2
 6653 13d9 BC100000 		.4byte	0x10bc
 6654 13dd 25       		.uleb128 0x25
 6655 13de 73636200 		.ascii	"scb\000"
 6656 13e2 01       		.byte	0x1
 6657 13e3 E304     		.2byte	0x4e3
 6658 13e5 5B100000 		.4byte	0x105b
 6659 13e9 88050000 		.4byte	.LLST27
 6660 13ed 26       		.uleb128 0x26
 6661 13ee F2080000 		.4byte	.LASF266
 6662 13f2 01       		.byte	0x1
 6663 13f3 E404     		.2byte	0x4e4
 6664 13f5 25000000 		.4byte	0x25
 6665 13f9 A6050000 		.4byte	.LLST28
 6666 13fd 35       		.uleb128 0x35
 6667 13fe 99090000 		.4byte	.LASF355
 6668 1402 01       		.byte	0x1
 6669 1403 2905     		.2byte	0x529
 6670 1405 36       		.uleb128 0x36
 6671 1406 E2100000 		.4byte	0x10e2
 6672 140a 0C000000 		.4byte	.LBB57
 6673 140e 1C000000 		.4byte	.LBE57-.LBB57
 6674 1412 01       		.byte	0x1
 6675 1413 FE04     		.2byte	0x4fe
 6676 1415 36140000 		.4byte	0x1436
 6677 1419 2B       		.uleb128 0x2b
 6678 141a F2100000 		.4byte	0x10f2
 6679 141e B9050000 		.4byte	.LLST29
 6680 1422 37       		.uleb128 0x37
 6681 1423 0C000000 		.4byte	.LBB58
 6682 1427 1C000000 		.4byte	.LBE58-.LBB58
 6683 142b 2F       		.uleb128 0x2f
 6684 142c FB100000 		.4byte	0x10fb
 6685 1430 ED050000 		.4byte	.LLST30
 6686 1434 00       		.byte	0
 6687 1435 00       		.byte	0
 6688 1436 38       		.uleb128 0x38
 6689 1437 50000000 		.4byte	.Ldebug_ranges0+0x50
 6690 143b 60140000 		.4byte	0x1460
ARM GAS  /tmp/ccZlncvZ.s 			page 119


 6691 143f 26       		.uleb128 0x26
 6692 1440 C3080000 		.4byte	.LASF267
 6693 1444 01       		.byte	0x1
 6694 1445 2D05     		.2byte	0x52d
 6695 1447 25000000 		.4byte	0x25
 6696 144b 0B060000 		.4byte	.LLST31
 6697 144f 33       		.uleb128 0x33
 6698 1450 E8000000 		.4byte	.LVL57
 6699 1454 BB290000 		.4byte	0x29bb
 6700 1458 31       		.uleb128 0x31
 6701 1459 01       		.uleb128 0x1
 6702 145a 50       		.byte	0x50
 6703 145b 02       		.uleb128 0x2
 6704 145c 74       		.byte	0x74
 6705 145d 18       		.sleb128 24
 6706 145e 00       		.byte	0
 6707 145f 00       		.byte	0
 6708 1460 32       		.uleb128 0x32
 6709 1461 EE000000 		.4byte	.LVL59
 6710 1465 CC290000 		.4byte	0x29cc
 6711 1469 00       		.byte	0
 6712 146a 34       		.uleb128 0x34
 6713 146b 91050000 		.4byte	.LASF269
 6714 146f 01       		.byte	0x1
 6715 1470 7A06     		.2byte	0x67a
 6716 1472 00000000 		.4byte	.LFB32
 6717 1476 0E010000 		.4byte	.LFE32-.LFB32
 6718 147a 01       		.uleb128 0x1
 6719 147b 9C       		.byte	0x9c
 6720 147c FC140000 		.4byte	0x14fc
 6721 1480 2C       		.uleb128 0x2c
 6722 1481 61726700 		.ascii	"arg\000"
 6723 1485 01       		.byte	0x1
 6724 1486 7A06     		.2byte	0x67a
 6725 1488 C9020000 		.4byte	0x2c9
 6726 148c 1F060000 		.4byte	.LLST32
 6727 1490 26       		.uleb128 0x26
 6728 1491 F2070000 		.4byte	.LASF240
 6729 1495 01       		.byte	0x1
 6730 1496 7C06     		.2byte	0x67c
 6731 1498 BC100000 		.4byte	0x10bc
 6732 149c 59060000 		.4byte	.LLST33
 6733 14a0 26       		.uleb128 0x26
 6734 14a1 660E0000 		.4byte	.LASF241
 6735 14a5 01       		.byte	0x1
 6736 14a6 8006     		.2byte	0x680
 6737 14a8 25000000 		.4byte	0x25
 6738 14ac 82060000 		.4byte	.LLST34
 6739 14b0 26       		.uleb128 0x26
 6740 14b1 39090000 		.4byte	.LASF242
 6741 14b5 01       		.byte	0x1
 6742 14b6 8006     		.2byte	0x680
 6743 14b8 25000000 		.4byte	0x25
 6744 14bc D7060000 		.4byte	.LLST35
 6745 14c0 26       		.uleb128 0x26
 6746 14c1 B0080000 		.4byte	.LASF243
 6747 14c5 01       		.byte	0x1
ARM GAS  /tmp/ccZlncvZ.s 			page 120


 6748 14c6 8106     		.2byte	0x681
 6749 14c8 C9020000 		.4byte	0x2c9
 6750 14cc 0B070000 		.4byte	.LLST36
 6751 14d0 26       		.uleb128 0x26
 6752 14d1 550F0000 		.4byte	.LASF270
 6753 14d5 01       		.byte	0x1
 6754 14d6 8206     		.2byte	0x682
 6755 14d8 FC140000 		.4byte	0x14fc
 6756 14dc 34070000 		.4byte	.LLST37
 6757 14e0 32       		.uleb128 0x32
 6758 14e1 22000000 		.4byte	.LVL71
 6759 14e5 CC290000 		.4byte	0x29cc
 6760 14e9 39       		.uleb128 0x39
 6761 14ea 30000000 		.4byte	.LVL73
 6762 14ee D4290000 		.4byte	0x29d4
 6763 14f2 32       		.uleb128 0x32
 6764 14f3 D2000000 		.4byte	.LVL90
 6765 14f7 CC290000 		.4byte	0x29cc
 6766 14fb 00       		.byte	0
 6767 14fc 09       		.uleb128 0x9
 6768 14fd 04       		.byte	0x4
 6769 14fe 67100000 		.4byte	0x1067
 6770 1502 34       		.uleb128 0x34
 6771 1503 5B070000 		.4byte	.LASF271
 6772 1507 01       		.byte	0x1
 6773 1508 1B08     		.2byte	0x81b
 6774 150a 00000000 		.4byte	.LFB34
 6775 150e EC000000 		.4byte	.LFE34-.LFB34
 6776 1512 01       		.uleb128 0x1
 6777 1513 9C       		.byte	0x9c
 6778 1514 94150000 		.4byte	0x1594
 6779 1518 2C       		.uleb128 0x2c
 6780 1519 61726700 		.ascii	"arg\000"
 6781 151d 01       		.byte	0x1
 6782 151e 1B08     		.2byte	0x81b
 6783 1520 C9020000 		.4byte	0x2c9
 6784 1524 5D070000 		.4byte	.LLST38
 6785 1528 26       		.uleb128 0x26
 6786 1529 F2070000 		.4byte	.LASF240
 6787 152d 01       		.byte	0x1
 6788 152e 1D08     		.2byte	0x81d
 6789 1530 BC100000 		.4byte	0x10bc
 6790 1534 97070000 		.4byte	.LLST39
 6791 1538 26       		.uleb128 0x26
 6792 1539 660E0000 		.4byte	.LASF241
 6793 153d 01       		.byte	0x1
 6794 153e 2108     		.2byte	0x821
 6795 1540 25000000 		.4byte	0x25
 6796 1544 C0070000 		.4byte	.LLST40
 6797 1548 26       		.uleb128 0x26
 6798 1549 39090000 		.4byte	.LASF242
 6799 154d 01       		.byte	0x1
 6800 154e 2108     		.2byte	0x821
 6801 1550 25000000 		.4byte	0x25
 6802 1554 76080000 		.4byte	.LLST41
 6803 1558 26       		.uleb128 0x26
 6804 1559 B0080000 		.4byte	.LASF243
ARM GAS  /tmp/ccZlncvZ.s 			page 121


 6805 155d 01       		.byte	0x1
 6806 155e 2208     		.2byte	0x822
 6807 1560 FA0E0000 		.4byte	0xefa
 6808 1564 4C090000 		.4byte	.LLST42
 6809 1568 26       		.uleb128 0x26
 6810 1569 550F0000 		.4byte	.LASF270
 6811 156d 01       		.byte	0x1
 6812 156e 2308     		.2byte	0x823
 6813 1570 FC140000 		.4byte	0x14fc
 6814 1574 75090000 		.4byte	.LLST43
 6815 1578 32       		.uleb128 0x32
 6816 1579 22000000 		.4byte	.LVL99
 6817 157d CC290000 		.4byte	0x29cc
 6818 1581 39       		.uleb128 0x39
 6819 1582 30000000 		.4byte	.LVL101
 6820 1586 D4290000 		.4byte	0x29d4
 6821 158a 32       		.uleb128 0x32
 6822 158b B8000000 		.4byte	.LVL130
 6823 158f CC290000 		.4byte	0x29cc
 6824 1593 00       		.byte	0
 6825 1594 3A       		.uleb128 0x3a
 6826 1595 A50C0000 		.4byte	.LASF356
 6827 1599 01       		.byte	0x1
 6828 159a B8       		.byte	0xb8
 6829 159b 00000000 		.4byte	.LFB7
 6830 159f 02000000 		.4byte	.LFE7-.LFB7
 6831 15a3 01       		.uleb128 0x1
 6832 15a4 9C       		.byte	0x9c
 6833 15a5 3B       		.uleb128 0x3b
 6834 15a6 DC080000 		.4byte	.LASF275
 6835 15aa 01       		.byte	0x1
 6836 15ab 3801     		.2byte	0x138
 6837 15ad 25000000 		.4byte	0x25
 6838 15b1 00000000 		.4byte	.LFB12
 6839 15b5 6A010000 		.4byte	.LFE12-.LFB12
 6840 15b9 01       		.uleb128 0x1
 6841 15ba 9C       		.byte	0x9c
 6842 15bb 32170000 		.4byte	0x1732
 6843 15bf 2C       		.uleb128 0x2c
 6844 15c0 7300     		.ascii	"s\000"
 6845 15c2 01       		.byte	0x1
 6846 15c3 3801     		.2byte	0x138
 6847 15c5 25000000 		.4byte	0x25
 6848 15c9 EB090000 		.4byte	.LLST44
 6849 15cd 24       		.uleb128 0x24
 6850 15ce AF070000 		.4byte	.LASF84
 6851 15d2 01       		.byte	0x1
 6852 15d3 3801     		.2byte	0x138
 6853 15d5 77130000 		.4byte	0x1377
 6854 15d9 0C0A0000 		.4byte	.LLST45
 6855 15dd 24       		.uleb128 0x24
 6856 15de 7E050000 		.4byte	.LASF272
 6857 15e2 01       		.byte	0x1
 6858 15e3 3801     		.2byte	0x138
 6859 15e5 C2100000 		.4byte	0x10c2
 6860 15e9 400A0000 		.4byte	.LLST46
 6861 15ed 28       		.uleb128 0x28
ARM GAS  /tmp/ccZlncvZ.s 			page 122


 6862 15ee F2070000 		.4byte	.LASF240
 6863 15f2 01       		.byte	0x1
 6864 15f3 3A01     		.2byte	0x13a
 6865 15f5 BC100000 		.4byte	0x10bc
 6866 15f9 26       		.uleb128 0x26
 6867 15fa EE030000 		.4byte	.LASF273
 6868 15fe 01       		.byte	0x1
 6869 15ff 3A01     		.2byte	0x13a
 6870 1601 BC100000 		.4byte	0x10bc
 6871 1605 A90A0000 		.4byte	.LLST47
 6872 1609 27       		.uleb128 0x27
 6873 160a E7010000 		.4byte	.LASF247
 6874 160e 01       		.byte	0x1
 6875 160f 3B01     		.2byte	0x13b
 6876 1611 A6070000 		.4byte	0x7a6
 6877 1615 02       		.uleb128 0x2
 6878 1616 91       		.byte	0x91
 6879 1617 48       		.sleb128 -56
 6880 1618 27       		.uleb128 0x27
 6881 1619 22000000 		.4byte	.LASF265
 6882 161d 01       		.byte	0x1
 6883 161e 3C01     		.2byte	0x13c
 6884 1620 01050000 		.4byte	0x501
 6885 1624 02       		.uleb128 0x2
 6886 1625 91       		.byte	0x91
 6887 1626 4C       		.sleb128 -52
 6888 1627 27       		.uleb128 0x27
 6889 1628 7D0C0000 		.4byte	.LASF112
 6890 162c 01       		.byte	0x1
 6891 162d 3D01     		.2byte	0x13d
 6892 162f BC040000 		.4byte	0x4bc
 6893 1633 02       		.uleb128 0x2
 6894 1634 91       		.byte	0x91
 6895 1635 46       		.sleb128 -58
 6896 1636 26       		.uleb128 0x26
 6897 1637 AA050000 		.4byte	.LASF274
 6898 163b 01       		.byte	0x1
 6899 163c 3E01     		.2byte	0x13e
 6900 163e 25000000 		.4byte	0x25
 6901 1642 BC0A0000 		.4byte	.LLST48
 6902 1646 2D       		.uleb128 0x2d
 6903 1647 73696E00 		.ascii	"sin\000"
 6904 164b 01       		.byte	0x1
 6905 164c 3F01     		.2byte	0x13f
 6906 164e 25050000 		.4byte	0x525
 6907 1652 02       		.uleb128 0x2
 6908 1653 91       		.byte	0x91
 6909 1654 50       		.sleb128 -48
 6910 1655 25       		.uleb128 0x25
 6911 1656 65727200 		.ascii	"err\000"
 6912 165a 01       		.byte	0x1
 6913 165b 4001     		.2byte	0x140
 6914 165d 29060000 		.4byte	0x629
 6915 1661 060B0000 		.4byte	.LLST49
 6916 1665 2E       		.uleb128 0x2e
 6917 1666 E2100000 		.4byte	0x10e2
 6918 166a 04000000 		.4byte	.LBB61
ARM GAS  /tmp/ccZlncvZ.s 			page 123


 6919 166e 68000000 		.4byte	.Ldebug_ranges0+0x68
 6920 1672 01       		.byte	0x1
 6921 1673 4401     		.2byte	0x144
 6922 1675 92160000 		.4byte	0x1692
 6923 1679 2B       		.uleb128 0x2b
 6924 167a F2100000 		.4byte	0x10f2
 6925 167e EB090000 		.4byte	.LLST44
 6926 1682 29       		.uleb128 0x29
 6927 1683 68000000 		.4byte	.Ldebug_ranges0+0x68
 6928 1687 2F       		.uleb128 0x2f
 6929 1688 FB100000 		.4byte	0x10fb
 6930 168c 500B0000 		.4byte	.LLST51
 6931 1690 00       		.byte	0
 6932 1691 00       		.byte	0
 6933 1692 30       		.uleb128 0x30
 6934 1693 42000000 		.4byte	.LVL147
 6935 1697 E5290000 		.4byte	0x29e5
 6936 169b A6160000 		.4byte	0x16a6
 6937 169f 31       		.uleb128 0x31
 6938 16a0 01       		.uleb128 0x1
 6939 16a1 51       		.byte	0x51
 6940 16a2 02       		.uleb128 0x2
 6941 16a3 91       		.byte	0x91
 6942 16a4 48       		.sleb128 -56
 6943 16a5 00       		.byte	0
 6944 16a6 30       		.uleb128 0x30
 6945 16a7 7C000000 		.4byte	.LVL153
 6946 16ab 65290000 		.4byte	0x2965
 6947 16af C5160000 		.4byte	0x16c5
 6948 16b3 31       		.uleb128 0x31
 6949 16b4 01       		.uleb128 0x1
 6950 16b5 53       		.byte	0x53
 6951 16b6 01       		.uleb128 0x1
 6952 16b7 30       		.byte	0x30
 6953 16b8 31       		.uleb128 0x31
 6954 16b9 01       		.uleb128 0x1
 6955 16ba 52       		.byte	0x52
 6956 16bb 02       		.uleb128 0x2
 6957 16bc 91       		.byte	0x91
 6958 16bd 46       		.sleb128 -58
 6959 16be 31       		.uleb128 0x31
 6960 16bf 01       		.uleb128 0x1
 6961 16c0 51       		.byte	0x51
 6962 16c1 02       		.uleb128 0x2
 6963 16c2 91       		.byte	0x91
 6964 16c3 4C       		.sleb128 -52
 6965 16c4 00       		.byte	0
 6966 16c5 32       		.uleb128 0x32
 6967 16c6 AA000000 		.4byte	.LVL155
 6968 16ca 89290000 		.4byte	0x2989
 6969 16ce 30       		.uleb128 0x30
 6970 16cf C4000000 		.4byte	.LVL156
 6971 16d3 9E290000 		.4byte	0x299e
 6972 16d7 E8160000 		.4byte	0x16e8
 6973 16db 31       		.uleb128 0x31
 6974 16dc 01       		.uleb128 0x1
 6975 16dd 51       		.byte	0x51
ARM GAS  /tmp/ccZlncvZ.s 			page 124


 6976 16de 02       		.uleb128 0x2
 6977 16df 91       		.byte	0x91
 6978 16e0 50       		.sleb128 -48
 6979 16e1 31       		.uleb128 0x31
 6980 16e2 01       		.uleb128 0x1
 6981 16e3 50       		.byte	0x50
 6982 16e4 02       		.uleb128 0x2
 6983 16e5 78       		.byte	0x78
 6984 16e6 00       		.sleb128 0
 6985 16e7 00       		.byte	0
 6986 16e8 30       		.uleb128 0x30
 6987 16e9 CC000000 		.4byte	.LVL157
 6988 16ed 07110000 		.4byte	0x1107
 6989 16f1 FB160000 		.4byte	0x16fb
 6990 16f5 31       		.uleb128 0x31
 6991 16f6 01       		.uleb128 0x1
 6992 16f7 51       		.byte	0x51
 6993 16f8 01       		.uleb128 0x1
 6994 16f9 31       		.byte	0x31
 6995 16fa 00       		.byte	0
 6996 16fb 32       		.uleb128 0x32
 6997 16fc EE000000 		.4byte	.LVL160
 6998 1700 CC290000 		.4byte	0x29cc
 6999 1704 32       		.uleb128 0x32
 7000 1705 14010000 		.4byte	.LVL163
 7001 1709 CC290000 		.4byte	0x29cc
 7002 170d 32       		.uleb128 0x32
 7003 170e 1A010000 		.4byte	.LVL165
 7004 1712 CC290000 		.4byte	0x29cc
 7005 1716 32       		.uleb128 0x32
 7006 1717 22010000 		.4byte	.LVL167
 7007 171b CC290000 		.4byte	0x29cc
 7008 171f 32       		.uleb128 0x32
 7009 1720 2C010000 		.4byte	.LVL170
 7010 1724 052A0000 		.4byte	0x2a05
 7011 1728 32       		.uleb128 0x32
 7012 1729 62010000 		.4byte	.LVL175
 7013 172d 052A0000 		.4byte	0x2a05
 7014 1731 00       		.byte	0
 7015 1732 3B       		.uleb128 0x3b
 7016 1733 E10D0000 		.4byte	.LASF276
 7017 1737 01       		.byte	0x1
 7018 1738 9501     		.2byte	0x195
 7019 173a 25000000 		.4byte	0x25
 7020 173e 00000000 		.4byte	.LFB13
 7021 1742 7E000000 		.4byte	.LFE13-.LFB13
 7022 1746 01       		.uleb128 0x1
 7023 1747 9C       		.byte	0x9c
 7024 1748 1F180000 		.4byte	0x181f
 7025 174c 2C       		.uleb128 0x2c
 7026 174d 7300     		.ascii	"s\000"
 7027 174f 01       		.byte	0x1
 7028 1750 9501     		.2byte	0x195
 7029 1752 25000000 		.4byte	0x25
 7030 1756 6E0B0000 		.4byte	.LLST52
 7031 175a 24       		.uleb128 0x24
 7032 175b 700C0000 		.4byte	.LASF263
ARM GAS  /tmp/ccZlncvZ.s 			page 125


 7033 175f 01       		.byte	0x1
 7034 1760 9501     		.2byte	0x195
 7035 1762 1F180000 		.4byte	0x181f
 7036 1766 8F0B0000 		.4byte	.LLST53
 7037 176a 24       		.uleb128 0x24
 7038 176b 16030000 		.4byte	.LASF264
 7039 176f 01       		.byte	0x1
 7040 1770 9501     		.2byte	0x195
 7041 1772 BF050000 		.4byte	0x5bf
 7042 1776 E20B0000 		.4byte	.LLST54
 7043 177a 28       		.uleb128 0x28
 7044 177b F2070000 		.4byte	.LASF240
 7045 177f 01       		.byte	0x1
 7046 1780 9701     		.2byte	0x197
 7047 1782 BC100000 		.4byte	0x10bc
 7048 1786 27       		.uleb128 0x27
 7049 1787 86000000 		.4byte	.LASF277
 7050 178b 01       		.byte	0x1
 7051 178c 9801     		.2byte	0x198
 7052 178e 01050000 		.4byte	0x501
 7053 1792 02       		.uleb128 0x2
 7054 1793 91       		.byte	0x91
 7055 1794 6C       		.sleb128 -20
 7056 1795 26       		.uleb128 0x26
 7057 1796 3C040000 		.4byte	.LASF153
 7058 179a 01       		.byte	0x1
 7059 179b 9901     		.2byte	0x199
 7060 179d BC040000 		.4byte	0x4bc
 7061 17a1 350C0000 		.4byte	.LLST55
 7062 17a5 25       		.uleb128 0x25
 7063 17a6 65727200 		.ascii	"err\000"
 7064 17aa 01       		.byte	0x1
 7065 17ab 9A01     		.2byte	0x19a
 7066 17ad 29060000 		.4byte	0x629
 7067 17b1 490C0000 		.4byte	.LLST56
 7068 17b5 26       		.uleb128 0x26
 7069 17b6 ED0A0000 		.4byte	.LASF278
 7070 17ba 01       		.byte	0x1
 7071 17bb 9B01     		.2byte	0x19b
 7072 17bd 2A180000 		.4byte	0x182a
 7073 17c1 670C0000 		.4byte	.LLST57
 7074 17c5 2E       		.uleb128 0x2e
 7075 17c6 E2100000 		.4byte	0x10e2
 7076 17ca 02000000 		.4byte	.LBB65
 7077 17ce 80000000 		.4byte	.Ldebug_ranges0+0x80
 7078 17d2 01       		.byte	0x1
 7079 17d3 9D01     		.2byte	0x19d
 7080 17d5 F2170000 		.4byte	0x17f2
 7081 17d9 2B       		.uleb128 0x2b
 7082 17da F2100000 		.4byte	0x10f2
 7083 17de 6E0B0000 		.4byte	.LLST52
 7084 17e2 29       		.uleb128 0x29
 7085 17e3 80000000 		.4byte	.Ldebug_ranges0+0x80
 7086 17e7 2F       		.uleb128 0x2f
 7087 17e8 FB100000 		.4byte	0x10fb
 7088 17ec 960C0000 		.4byte	.LLST59
 7089 17f0 00       		.byte	0
ARM GAS  /tmp/ccZlncvZ.s 			page 126


 7090 17f1 00       		.byte	0
 7091 17f2 32       		.uleb128 0x32
 7092 17f3 38000000 		.4byte	.LVL181
 7093 17f7 1A2A0000 		.4byte	0x2a1a
 7094 17fb 30       		.uleb128 0x30
 7095 17fc 42000000 		.4byte	.LVL182
 7096 1800 2F2A0000 		.4byte	0x2a2f
 7097 1804 15180000 		.4byte	0x1815
 7098 1808 31       		.uleb128 0x31
 7099 1809 01       		.uleb128 0x1
 7100 180a 51       		.byte	0x51
 7101 180b 02       		.uleb128 0x2
 7102 180c 74       		.byte	0x74
 7103 180d 00       		.sleb128 0
 7104 180e 31       		.uleb128 0x31
 7105 180f 01       		.uleb128 0x1
 7106 1810 50       		.byte	0x50
 7107 1811 02       		.uleb128 0x2
 7108 1812 75       		.byte	0x75
 7109 1813 00       		.sleb128 0
 7110 1814 00       		.byte	0
 7111 1815 32       		.uleb128 0x32
 7112 1816 56000000 		.4byte	.LVL186
 7113 181a CC290000 		.4byte	0x29cc
 7114 181e 00       		.byte	0
 7115 181f 09       		.uleb128 0x9
 7116 1820 04       		.byte	0x4
 7117 1821 25180000 		.4byte	0x1825
 7118 1825 12       		.uleb128 0x12
 7119 1826 7E050000 		.4byte	0x57e
 7120 182a 09       		.uleb128 0x9
 7121 182b 04       		.byte	0x4
 7122 182c 30180000 		.4byte	0x1830
 7123 1830 12       		.uleb128 0x12
 7124 1831 25050000 		.4byte	0x525
 7125 1835 3C       		.uleb128 0x3c
 7126 1836 E70B0000 		.4byte	.LASF357
 7127 183a 01       		.byte	0x1
 7128 183b 1801     		.2byte	0x118
 7129 183d 01       		.byte	0x1
 7130 183e 67180000 		.4byte	0x1867
 7131 1842 3D       		.uleb128 0x3d
 7132 1843 F2070000 		.4byte	.LASF240
 7133 1847 01       		.byte	0x1
 7134 1848 1801     		.2byte	0x118
 7135 184a BC100000 		.4byte	0x10bc
 7136 184e 3D       		.uleb128 0x3d
 7137 184f E4000000 		.4byte	.LASF279
 7138 1853 01       		.byte	0x1
 7139 1854 1801     		.2byte	0x118
 7140 1856 25000000 		.4byte	0x25
 7141 185a 28       		.uleb128 0x28
 7142 185b 08010000 		.4byte	.LASF227
 7143 185f 01       		.byte	0x1
 7144 1860 1A01     		.2byte	0x11a
 7145 1862 C9020000 		.4byte	0x2c9
 7146 1866 00       		.byte	0
ARM GAS  /tmp/ccZlncvZ.s 			page 127


 7147 1867 3B       		.uleb128 0x3b
 7148 1868 9A000000 		.4byte	.LASF280
 7149 186c 01       		.byte	0x1
 7150 186d BD01     		.2byte	0x1bd
 7151 186f 25000000 		.4byte	0x25
 7152 1873 00000000 		.4byte	.LFB14
 7153 1877 5A000000 		.4byte	.LFE14-.LFB14
 7154 187b 01       		.uleb128 0x1
 7155 187c 9C       		.byte	0x9c
 7156 187d 2A190000 		.4byte	0x192a
 7157 1881 2C       		.uleb128 0x2c
 7158 1882 7300     		.ascii	"s\000"
 7159 1884 01       		.byte	0x1
 7160 1885 BD01     		.2byte	0x1bd
 7161 1887 25000000 		.4byte	0x25
 7162 188b B40C0000 		.4byte	.LLST60
 7163 188f 28       		.uleb128 0x28
 7164 1890 F2070000 		.4byte	.LASF240
 7165 1894 01       		.byte	0x1
 7166 1895 BF01     		.2byte	0x1bf
 7167 1897 BC100000 		.4byte	0x10bc
 7168 189b 26       		.uleb128 0x26
 7169 189c E4000000 		.4byte	.LASF279
 7170 18a0 01       		.byte	0x1
 7171 18a1 C001     		.2byte	0x1c0
 7172 18a3 25000000 		.4byte	0x25
 7173 18a7 D50C0000 		.4byte	.LLST61
 7174 18ab 2E       		.uleb128 0x2e
 7175 18ac E2100000 		.4byte	0x10e2
 7176 18b0 00000000 		.4byte	.LBB73
 7177 18b4 98000000 		.4byte	.Ldebug_ranges0+0x98
 7178 18b8 01       		.byte	0x1
 7179 18b9 C401     		.2byte	0x1c4
 7180 18bb D8180000 		.4byte	0x18d8
 7181 18bf 2B       		.uleb128 0x2b
 7182 18c0 F2100000 		.4byte	0x10f2
 7183 18c4 B40C0000 		.4byte	.LLST60
 7184 18c8 29       		.uleb128 0x29
 7185 18c9 98000000 		.4byte	.Ldebug_ranges0+0x98
 7186 18cd 2F       		.uleb128 0x2f
 7187 18ce FB100000 		.4byte	0x10fb
 7188 18d2 1F0D0000 		.4byte	.LLST63
 7189 18d6 00       		.byte	0
 7190 18d7 00       		.byte	0
 7191 18d8 2E       		.uleb128 0x2e
 7192 18d9 35180000 		.4byte	0x1835
 7193 18dd 26000000 		.4byte	.LBB77
 7194 18e1 B0000000 		.4byte	.Ldebug_ranges0+0xb0
 7195 18e5 01       		.byte	0x1
 7196 18e6 D101     		.2byte	0x1d1
 7197 18e8 20190000 		.4byte	0x1920
 7198 18ec 2B       		.uleb128 0x2b
 7199 18ed 4E180000 		.4byte	0x184e
 7200 18f1 3D0D0000 		.4byte	.LLST64
 7201 18f5 2B       		.uleb128 0x2b
 7202 18f6 42180000 		.4byte	0x1842
 7203 18fa 6F0D0000 		.4byte	.LLST65
ARM GAS  /tmp/ccZlncvZ.s 			page 128


 7204 18fe 29       		.uleb128 0x29
 7205 18ff B0000000 		.4byte	.Ldebug_ranges0+0xb0
 7206 1903 2F       		.uleb128 0x2f
 7207 1904 5A180000 		.4byte	0x185a
 7208 1908 8D0D0000 		.4byte	.LLST66
 7209 190c 32       		.uleb128 0x32
 7210 190d 3E000000 		.4byte	.LVL195
 7211 1911 4E2A0000 		.4byte	0x2a4e
 7212 1915 32       		.uleb128 0x32
 7213 1916 54000000 		.4byte	.LVL199
 7214 191a 5F2A0000 		.4byte	0x2a5f
 7215 191e 00       		.byte	0
 7216 191f 00       		.byte	0
 7217 1920 32       		.uleb128 0x32
 7218 1921 26000000 		.4byte	.LVL193
 7219 1925 052A0000 		.4byte	0x2a05
 7220 1929 00       		.byte	0
 7221 192a 3B       		.uleb128 0x3b
 7222 192b 7A040000 		.4byte	.LASF281
 7223 192f 01       		.byte	0x1
 7224 1930 D701     		.2byte	0x1d7
 7225 1932 25000000 		.4byte	0x25
 7226 1936 00000000 		.4byte	.LFB15
 7227 193a 7E000000 		.4byte	.LFE15-.LFB15
 7228 193e 01       		.uleb128 0x1
 7229 193f 9C       		.byte	0x9c
 7230 1940 211A0000 		.4byte	0x1a21
 7231 1944 2C       		.uleb128 0x2c
 7232 1945 7300     		.ascii	"s\000"
 7233 1947 01       		.byte	0x1
 7234 1948 D701     		.2byte	0x1d7
 7235 194a 25000000 		.4byte	0x25
 7236 194e AB0D0000 		.4byte	.LLST67
 7237 1952 24       		.uleb128 0x24
 7238 1953 700C0000 		.4byte	.LASF263
 7239 1957 01       		.byte	0x1
 7240 1958 D701     		.2byte	0x1d7
 7241 195a 1F180000 		.4byte	0x181f
 7242 195e CC0D0000 		.4byte	.LLST68
 7243 1962 24       		.uleb128 0x24
 7244 1963 16030000 		.4byte	.LASF264
 7245 1967 01       		.byte	0x1
 7246 1968 D701     		.2byte	0x1d7
 7247 196a BF050000 		.4byte	0x5bf
 7248 196e 1F0E0000 		.4byte	.LLST69
 7249 1972 28       		.uleb128 0x28
 7250 1973 F2070000 		.4byte	.LASF240
 7251 1977 01       		.byte	0x1
 7252 1978 D901     		.2byte	0x1d9
 7253 197a BC100000 		.4byte	0x10bc
 7254 197e 25       		.uleb128 0x25
 7255 197f 65727200 		.ascii	"err\000"
 7256 1983 01       		.byte	0x1
 7257 1984 DA01     		.2byte	0x1da
 7258 1986 29060000 		.4byte	0x629
 7259 198a 720E0000 		.4byte	.LLST70
 7260 198e 26       		.uleb128 0x26
ARM GAS  /tmp/ccZlncvZ.s 			page 129


 7261 198f ED0A0000 		.4byte	.LASF278
 7262 1993 01       		.byte	0x1
 7263 1994 DB01     		.2byte	0x1db
 7264 1996 2A180000 		.4byte	0x182a
 7265 199a 900E0000 		.4byte	.LLST71
 7266 199e 2E       		.uleb128 0x2e
 7267 199f E2100000 		.4byte	0x10e2
 7268 19a3 02000000 		.4byte	.LBB81
 7269 19a7 C8000000 		.4byte	.Ldebug_ranges0+0xc8
 7270 19ab 01       		.byte	0x1
 7271 19ac DD01     		.2byte	0x1dd
 7272 19ae CB190000 		.4byte	0x19cb
 7273 19b2 2B       		.uleb128 0x2b
 7274 19b3 F2100000 		.4byte	0x10f2
 7275 19b7 AB0D0000 		.4byte	.LLST67
 7276 19bb 29       		.uleb128 0x29
 7277 19bc C8000000 		.4byte	.Ldebug_ranges0+0xc8
 7278 19c0 2F       		.uleb128 0x2f
 7279 19c1 FB100000 		.4byte	0x10fb
 7280 19c5 BF0E0000 		.4byte	.LLST73
 7281 19c9 00       		.byte	0
 7282 19ca 00       		.byte	0
 7283 19cb 3E       		.uleb128 0x3e
 7284 19cc 2A000000 		.4byte	.LBB85
 7285 19d0 18000000 		.4byte	.LBE85-.LBB85
 7286 19d4 171A0000 		.4byte	0x1a17
 7287 19d8 27       		.uleb128 0x27
 7288 19d9 37060000 		.4byte	.LASF282
 7289 19dd 01       		.byte	0x1
 7290 19de EC01     		.2byte	0x1ec
 7291 19e0 01050000 		.4byte	0x501
 7292 19e4 02       		.uleb128 0x2
 7293 19e5 91       		.byte	0x91
 7294 19e6 6C       		.sleb128 -20
 7295 19e7 26       		.uleb128 0x26
 7296 19e8 1F0A0000 		.4byte	.LASF154
 7297 19ec 01       		.byte	0x1
 7298 19ed ED01     		.2byte	0x1ed
 7299 19ef BC040000 		.4byte	0x4bc
 7300 19f3 DD0E0000 		.4byte	.LLST74
 7301 19f7 32       		.uleb128 0x32
 7302 19f8 38000000 		.4byte	.LVL205
 7303 19fc 1A2A0000 		.4byte	0x2a1a
 7304 1a00 33       		.uleb128 0x33
 7305 1a01 42000000 		.4byte	.LVL206
 7306 1a05 742A0000 		.4byte	0x2a74
 7307 1a09 31       		.uleb128 0x31
 7308 1a0a 01       		.uleb128 0x1
 7309 1a0b 51       		.byte	0x51
 7310 1a0c 02       		.uleb128 0x2
 7311 1a0d 74       		.byte	0x74
 7312 1a0e 00       		.sleb128 0
 7313 1a0f 31       		.uleb128 0x31
 7314 1a10 01       		.uleb128 0x1
 7315 1a11 50       		.byte	0x50
 7316 1a12 02       		.uleb128 0x2
 7317 1a13 76       		.byte	0x76
ARM GAS  /tmp/ccZlncvZ.s 			page 130


 7318 1a14 00       		.sleb128 0
 7319 1a15 00       		.byte	0
 7320 1a16 00       		.byte	0
 7321 1a17 32       		.uleb128 0x32
 7322 1a18 56000000 		.4byte	.LVL210
 7323 1a1c CC290000 		.4byte	0x29cc
 7324 1a20 00       		.byte	0
 7325 1a21 3B       		.uleb128 0x3b
 7326 1a22 CC060000 		.4byte	.LASF283
 7327 1a26 01       		.byte	0x1
 7328 1a27 0D02     		.2byte	0x20d
 7329 1a29 25000000 		.4byte	0x25
 7330 1a2d 00000000 		.4byte	.LFB16
 7331 1a31 62000000 		.4byte	.LFE16-.LFB16
 7332 1a35 01       		.uleb128 0x1
 7333 1a36 9C       		.byte	0x9c
 7334 1a37 AC1A0000 		.4byte	0x1aac
 7335 1a3b 2C       		.uleb128 0x2c
 7336 1a3c 7300     		.ascii	"s\000"
 7337 1a3e 01       		.byte	0x1
 7338 1a3f 0D02     		.2byte	0x20d
 7339 1a41 25000000 		.4byte	0x25
 7340 1a45 F10E0000 		.4byte	.LLST75
 7341 1a49 24       		.uleb128 0x24
 7342 1a4a B9020000 		.4byte	.LASF284
 7343 1a4e 01       		.byte	0x1
 7344 1a4f 0D02     		.2byte	0x20d
 7345 1a51 25000000 		.4byte	0x25
 7346 1a55 120F0000 		.4byte	.LLST76
 7347 1a59 28       		.uleb128 0x28
 7348 1a5a F2070000 		.4byte	.LASF240
 7349 1a5e 01       		.byte	0x1
 7350 1a5f 0F02     		.2byte	0x20f
 7351 1a61 BC100000 		.4byte	0x10bc
 7352 1a65 25       		.uleb128 0x25
 7353 1a66 65727200 		.ascii	"err\000"
 7354 1a6a 01       		.byte	0x1
 7355 1a6b 1002     		.2byte	0x210
 7356 1a6d 29060000 		.4byte	0x629
 7357 1a71 3E0F0000 		.4byte	.LLST77
 7358 1a75 2E       		.uleb128 0x2e
 7359 1a76 E2100000 		.4byte	0x10e2
 7360 1a7a 00000000 		.4byte	.LBB86
 7361 1a7e E0000000 		.4byte	.Ldebug_ranges0+0xe0
 7362 1a82 01       		.byte	0x1
 7363 1a83 1402     		.2byte	0x214
 7364 1a85 A21A0000 		.4byte	0x1aa2
 7365 1a89 2B       		.uleb128 0x2b
 7366 1a8a F2100000 		.4byte	0x10f2
 7367 1a8e F10E0000 		.4byte	.LLST75
 7368 1a92 29       		.uleb128 0x29
 7369 1a93 E0000000 		.4byte	.Ldebug_ranges0+0xe0
 7370 1a97 2F       		.uleb128 0x2f
 7371 1a98 FB100000 		.4byte	0x10fb
 7372 1a9c 5C0F0000 		.4byte	.LLST79
 7373 1aa0 00       		.byte	0
 7374 1aa1 00       		.byte	0
ARM GAS  /tmp/ccZlncvZ.s 			page 131


 7375 1aa2 32       		.uleb128 0x32
 7376 1aa3 2C000000 		.4byte	.LVL218
 7377 1aa7 932A0000 		.4byte	0x2a93
 7378 1aab 00       		.byte	0
 7379 1aac 3B       		.uleb128 0x3b
 7380 1aad 34070000 		.4byte	.LASF285
 7381 1ab1 01       		.byte	0x1
 7382 1ab2 2D02     		.2byte	0x22d
 7383 1ab4 25000000 		.4byte	0x25
 7384 1ab8 00000000 		.4byte	.LFB17
 7385 1abc 56020000 		.4byte	.LFE17-.LFB17
 7386 1ac0 01       		.uleb128 0x1
 7387 1ac1 9C       		.byte	0x9c
 7388 1ac2 D41C0000 		.4byte	0x1cd4
 7389 1ac6 2C       		.uleb128 0x2c
 7390 1ac7 7300     		.ascii	"s\000"
 7391 1ac9 01       		.byte	0x1
 7392 1aca 2D02     		.2byte	0x22d
 7393 1acc 25000000 		.4byte	0x25
 7394 1ad0 7A0F0000 		.4byte	.LLST80
 7395 1ad4 2C       		.uleb128 0x2c
 7396 1ad5 6D656D00 		.ascii	"mem\000"
 7397 1ad9 01       		.byte	0x1
 7398 1ada 2D02     		.2byte	0x22d
 7399 1adc C9020000 		.4byte	0x2c9
 7400 1ae0 9B0F0000 		.4byte	.LLST81
 7401 1ae4 2C       		.uleb128 0x2c
 7402 1ae5 6C656E00 		.ascii	"len\000"
 7403 1ae9 01       		.byte	0x1
 7404 1aea 2D02     		.2byte	0x22d
 7405 1aec 2C000000 		.4byte	0x2c
 7406 1af0 BB0F0000 		.4byte	.LLST82
 7407 1af4 24       		.uleb128 0x24
 7408 1af5 74040000 		.4byte	.LASF110
 7409 1af9 01       		.byte	0x1
 7410 1afa 2D02     		.2byte	0x22d
 7411 1afc 25000000 		.4byte	0x25
 7412 1b00 25100000 		.4byte	.LLST83
 7413 1b04 24       		.uleb128 0x24
 7414 1b05 EB000000 		.4byte	.LASF286
 7415 1b09 01       		.byte	0x1
 7416 1b0a 2E02     		.2byte	0x22e
 7417 1b0c 77130000 		.4byte	0x1377
 7418 1b10 45100000 		.4byte	.LLST84
 7419 1b14 24       		.uleb128 0x24
 7420 1b15 46090000 		.4byte	.LASF287
 7421 1b19 01       		.byte	0x1
 7422 1b1a 2E02     		.2byte	0x22e
 7423 1b1c C2100000 		.4byte	0x10c2
 7424 1b20 65100000 		.4byte	.LLST85
 7425 1b24 28       		.uleb128 0x28
 7426 1b25 F2070000 		.4byte	.LASF240
 7427 1b29 01       		.byte	0x1
 7428 1b2a 3002     		.2byte	0x230
 7429 1b2c BC100000 		.4byte	0x10bc
 7430 1b30 2D       		.uleb128 0x2d
 7431 1b31 62756600 		.ascii	"buf\000"
ARM GAS  /tmp/ccZlncvZ.s 			page 132


 7432 1b35 01       		.byte	0x1
 7433 1b36 3102     		.2byte	0x231
 7434 1b38 C9020000 		.4byte	0x2c9
 7435 1b3c 02       		.uleb128 0x2
 7436 1b3d 91       		.byte	0x91
 7437 1b3e 40       		.sleb128 -64
 7438 1b3f 25       		.uleb128 0x25
 7439 1b40 7000     		.ascii	"p\000"
 7440 1b42 01       		.byte	0x1
 7441 1b43 3202     		.2byte	0x232
 7442 1b45 95060000 		.4byte	0x695
 7443 1b49 85100000 		.4byte	.LLST86
 7444 1b4d 26       		.uleb128 0x26
 7445 1b4e C9070000 		.4byte	.LASF288
 7446 1b52 01       		.byte	0x1
 7447 1b53 3302     		.2byte	0x233
 7448 1b55 BC040000 		.4byte	0x4bc
 7449 1b59 A3100000 		.4byte	.LLST87
 7450 1b5d 26       		.uleb128 0x26
 7451 1b5e 2A030000 		.4byte	.LASF289
 7452 1b62 01       		.byte	0x1
 7453 1b63 3302     		.2byte	0x233
 7454 1b65 BC040000 		.4byte	0x4bc
 7455 1b69 E3100000 		.4byte	.LLST88
 7456 1b6d 25       		.uleb128 0x25
 7457 1b6e 6F666600 		.ascii	"off\000"
 7458 1b72 01       		.byte	0x1
 7459 1b73 3402     		.2byte	0x234
 7460 1b75 25000000 		.4byte	0x25
 7461 1b79 17110000 		.4byte	.LLST89
 7462 1b7d 26       		.uleb128 0x26
 7463 1b7e AF070000 		.4byte	.LASF84
 7464 1b82 01       		.byte	0x1
 7465 1b83 3502     		.2byte	0x235
 7466 1b85 D10C0000 		.4byte	0xcd1
 7467 1b89 4D110000 		.4byte	.LLST90
 7468 1b8d 27       		.uleb128 0x27
 7469 1b8e 7D0C0000 		.4byte	.LASF112
 7470 1b92 01       		.byte	0x1
 7471 1b93 3602     		.2byte	0x236
 7472 1b95 BC040000 		.4byte	0x4bc
 7473 1b99 03       		.uleb128 0x3
 7474 1b9a 91       		.byte	0x91
 7475 1b9b BE7F     		.sleb128 -66
 7476 1b9d 26       		.uleb128 0x26
 7477 1b9e ED080000 		.4byte	.LASF290
 7478 1ba2 01       		.byte	0x1
 7479 1ba3 3702     		.2byte	0x237
 7480 1ba5 A6040000 		.4byte	0x4a6
 7481 1ba9 85110000 		.4byte	.LLST91
 7482 1bad 25       		.uleb128 0x25
 7483 1bae 65727200 		.ascii	"err\000"
 7484 1bb2 01       		.byte	0x1
 7485 1bb3 3802     		.2byte	0x238
 7486 1bb5 29060000 		.4byte	0x629
 7487 1bb9 ED110000 		.4byte	.LLST92
 7488 1bbd 2E       		.uleb128 0x2e
ARM GAS  /tmp/ccZlncvZ.s 			page 133


 7489 1bbe E2100000 		.4byte	0x10e2
 7490 1bc2 08000000 		.4byte	.LBB90
 7491 1bc6 F8000000 		.4byte	.Ldebug_ranges0+0xf8
 7492 1bca 01       		.byte	0x1
 7493 1bcb 3B02     		.2byte	0x23b
 7494 1bcd EA1B0000 		.4byte	0x1bea
 7495 1bd1 2B       		.uleb128 0x2b
 7496 1bd2 F2100000 		.4byte	0x10f2
 7497 1bd6 0B120000 		.4byte	.LLST93
 7498 1bda 29       		.uleb128 0x29
 7499 1bdb F8000000 		.4byte	.Ldebug_ranges0+0xf8
 7500 1bdf 2F       		.uleb128 0x2f
 7501 1be0 FB100000 		.4byte	0x10fb
 7502 1be4 2C120000 		.4byte	.LLST94
 7503 1be8 00       		.byte	0
 7504 1be9 00       		.byte	0
 7505 1bea 38       		.uleb128 0x38
 7506 1beb 10010000 		.4byte	.Ldebug_ranges0+0x110
 7507 1bef 591C0000 		.4byte	0x1c59
 7508 1bf3 27       		.uleb128 0x27
 7509 1bf4 C3090000 		.4byte	.LASF291
 7510 1bf8 01       		.byte	0x1
 7511 1bf9 9B02     		.2byte	0x29b
 7512 1bfb 01050000 		.4byte	0x501
 7513 1bff 02       		.uleb128 0x2
 7514 1c00 91       		.byte	0x91
 7515 1c01 44       		.sleb128 -60
 7516 1c02 29       		.uleb128 0x29
 7517 1c03 30010000 		.4byte	.Ldebug_ranges0+0x130
 7518 1c07 2D       		.uleb128 0x2d
 7519 1c08 73696E00 		.ascii	"sin\000"
 7520 1c0c 01       		.byte	0x1
 7521 1c0d 9D02     		.2byte	0x29d
 7522 1c0f 25050000 		.4byte	0x525
 7523 1c13 02       		.uleb128 0x2
 7524 1c14 91       		.byte	0x91
 7525 1c15 48       		.sleb128 -56
 7526 1c16 32       		.uleb128 0x32
 7527 1c17 02010000 		.4byte	.LVL244
 7528 1c1b 89290000 		.4byte	0x2989
 7529 1c1f 30       		.uleb128 0x30
 7530 1c20 26010000 		.4byte	.LVL245
 7531 1c24 9E290000 		.4byte	0x299e
 7532 1c28 3A1C0000 		.4byte	0x1c3a
 7533 1c2c 31       		.uleb128 0x31
 7534 1c2d 01       		.uleb128 0x1
 7535 1c2e 51       		.byte	0x51
 7536 1c2f 02       		.uleb128 0x2
 7537 1c30 91       		.byte	0x91
 7538 1c31 48       		.sleb128 -56
 7539 1c32 31       		.uleb128 0x31
 7540 1c33 01       		.uleb128 0x1
 7541 1c34 50       		.byte	0x50
 7542 1c35 03       		.uleb128 0x3
 7543 1c36 91       		.byte	0x91
 7544 1c37 00       		.sleb128 0
 7545 1c38 06       		.byte	0x6
ARM GAS  /tmp/ccZlncvZ.s 			page 134


 7546 1c39 00       		.byte	0
 7547 1c3a 33       		.uleb128 0x33
 7548 1c3b 30020000 		.4byte	.LVL270
 7549 1c3f 65290000 		.4byte	0x2965
 7550 1c43 31       		.uleb128 0x31
 7551 1c44 01       		.uleb128 0x1
 7552 1c45 53       		.byte	0x53
 7553 1c46 02       		.uleb128 0x2
 7554 1c47 79       		.byte	0x79
 7555 1c48 00       		.sleb128 0
 7556 1c49 31       		.uleb128 0x31
 7557 1c4a 01       		.uleb128 0x1
 7558 1c4b 52       		.byte	0x52
 7559 1c4c 03       		.uleb128 0x3
 7560 1c4d 91       		.byte	0x91
 7561 1c4e BE7F     		.sleb128 -66
 7562 1c50 31       		.uleb128 0x31
 7563 1c51 01       		.uleb128 0x1
 7564 1c52 51       		.byte	0x51
 7565 1c53 02       		.uleb128 0x2
 7566 1c54 91       		.byte	0x91
 7567 1c55 44       		.sleb128 -60
 7568 1c56 00       		.byte	0
 7569 1c57 00       		.byte	0
 7570 1c58 00       		.byte	0
 7571 1c59 30       		.uleb128 0x30
 7572 1c5a 7C000000 		.4byte	.LVL236
 7573 1c5e AD2A0000 		.4byte	0x2aad
 7574 1c62 7E1C0000 		.4byte	0x1c7e
 7575 1c66 31       		.uleb128 0x31
 7576 1c67 01       		.uleb128 0x1
 7577 1c68 52       		.byte	0x52
 7578 1c69 02       		.uleb128 0x2
 7579 1c6a 75       		.byte	0x75
 7580 1c6b 00       		.sleb128 0
 7581 1c6c 31       		.uleb128 0x31
 7582 1c6d 01       		.uleb128 0x1
 7583 1c6e 51       		.byte	0x51
 7584 1c6f 07       		.uleb128 0x7
 7585 1c70 91       		.byte	0x91
 7586 1c71 A87F     		.sleb128 -88
 7587 1c73 06       		.byte	0x6
 7588 1c74 77       		.byte	0x77
 7589 1c75 00       		.sleb128 0
 7590 1c76 22       		.byte	0x22
 7591 1c77 31       		.uleb128 0x31
 7592 1c78 01       		.uleb128 0x1
 7593 1c79 50       		.byte	0x50
 7594 1c7a 02       		.uleb128 0x2
 7595 1c7b 7A       		.byte	0x7a
 7596 1c7c 00       		.sleb128 0
 7597 1c7d 00       		.byte	0
 7598 1c7e 30       		.uleb128 0x30
 7599 1c7f 3A010000 		.4byte	.LVL247
 7600 1c83 D12A0000 		.4byte	0x2ad1
 7601 1c87 921C0000 		.4byte	0x1c92
 7602 1c8b 31       		.uleb128 0x31
ARM GAS  /tmp/ccZlncvZ.s 			page 135


 7603 1c8c 01       		.uleb128 0x1
 7604 1c8d 51       		.byte	0x51
 7605 1c8e 02       		.uleb128 0x2
 7606 1c8f 77       		.byte	0x77
 7607 1c90 00       		.sleb128 0
 7608 1c91 00       		.byte	0
 7609 1c92 32       		.uleb128 0x32
 7610 1c93 6A010000 		.4byte	.LVL252
 7611 1c97 4E2A0000 		.4byte	0x2a4e
 7612 1c9b 30       		.uleb128 0x30
 7613 1c9c 9A010000 		.4byte	.LVL254
 7614 1ca0 E72A0000 		.4byte	0x2ae7
 7615 1ca4 AF1C0000 		.4byte	0x1caf
 7616 1ca8 31       		.uleb128 0x31
 7617 1ca9 01       		.uleb128 0x1
 7618 1caa 51       		.byte	0x51
 7619 1cab 02       		.uleb128 0x2
 7620 1cac 91       		.byte	0x91
 7621 1cad 40       		.sleb128 -64
 7622 1cae 00       		.byte	0
 7623 1caf 32       		.uleb128 0x32
 7624 1cb0 AC010000 		.4byte	.LVL257
 7625 1cb4 CC290000 		.4byte	0x29cc
 7626 1cb8 32       		.uleb128 0x32
 7627 1cb9 E2010000 		.4byte	.LVL264
 7628 1cbd 072B0000 		.4byte	0x2b07
 7629 1cc1 32       		.uleb128 0x32
 7630 1cc2 1A020000 		.4byte	.LVL267
 7631 1cc6 5F2A0000 		.4byte	0x2a5f
 7632 1cca 32       		.uleb128 0x32
 7633 1ccb 3E020000 		.4byte	.LVL272
 7634 1ccf CC290000 		.4byte	0x29cc
 7635 1cd3 00       		.byte	0
 7636 1cd4 3B       		.uleb128 0x3b
 7637 1cd5 E30A0000 		.4byte	.LASF292
 7638 1cd9 01       		.byte	0x1
 7639 1cda E602     		.2byte	0x2e6
 7640 1cdc 25000000 		.4byte	0x25
 7641 1ce0 00000000 		.4byte	.LFB18
 7642 1ce4 14000000 		.4byte	.LFE18-.LFB18
 7643 1ce8 01       		.uleb128 0x1
 7644 1ce9 9C       		.byte	0x9c
 7645 1cea 4D1D0000 		.4byte	0x1d4d
 7646 1cee 2C       		.uleb128 0x2c
 7647 1cef 7300     		.ascii	"s\000"
 7648 1cf1 01       		.byte	0x1
 7649 1cf2 E602     		.2byte	0x2e6
 7650 1cf4 25000000 		.4byte	0x25
 7651 1cf8 4A120000 		.4byte	.LLST95
 7652 1cfc 2C       		.uleb128 0x2c
 7653 1cfd 6D656D00 		.ascii	"mem\000"
 7654 1d01 01       		.byte	0x1
 7655 1d02 E602     		.2byte	0x2e6
 7656 1d04 C9020000 		.4byte	0x2c9
 7657 1d08 6B120000 		.4byte	.LLST96
 7658 1d0c 2C       		.uleb128 0x2c
 7659 1d0d 6C656E00 		.ascii	"len\000"
ARM GAS  /tmp/ccZlncvZ.s 			page 136


 7660 1d11 01       		.byte	0x1
 7661 1d12 E602     		.2byte	0x2e6
 7662 1d14 2C000000 		.4byte	0x2c
 7663 1d18 8C120000 		.4byte	.LLST97
 7664 1d1c 33       		.uleb128 0x33
 7665 1d1d 0E000000 		.4byte	.LVL274
 7666 1d21 AC1A0000 		.4byte	0x1aac
 7667 1d25 31       		.uleb128 0x31
 7668 1d26 01       		.uleb128 0x1
 7669 1d27 53       		.byte	0x53
 7670 1d28 01       		.uleb128 0x1
 7671 1d29 30       		.byte	0x30
 7672 1d2a 31       		.uleb128 0x31
 7673 1d2b 01       		.uleb128 0x1
 7674 1d2c 52       		.byte	0x52
 7675 1d2d 03       		.uleb128 0x3
 7676 1d2e F3       		.byte	0xf3
 7677 1d2f 01       		.uleb128 0x1
 7678 1d30 52       		.byte	0x52
 7679 1d31 31       		.uleb128 0x31
 7680 1d32 01       		.uleb128 0x1
 7681 1d33 51       		.byte	0x51
 7682 1d34 03       		.uleb128 0x3
 7683 1d35 F3       		.byte	0xf3
 7684 1d36 01       		.uleb128 0x1
 7685 1d37 51       		.byte	0x51
 7686 1d38 31       		.uleb128 0x31
 7687 1d39 01       		.uleb128 0x1
 7688 1d3a 50       		.byte	0x50
 7689 1d3b 03       		.uleb128 0x3
 7690 1d3c F3       		.byte	0xf3
 7691 1d3d 01       		.uleb128 0x1
 7692 1d3e 50       		.byte	0x50
 7693 1d3f 31       		.uleb128 0x31
 7694 1d40 02       		.uleb128 0x2
 7695 1d41 7D       		.byte	0x7d
 7696 1d42 04       		.sleb128 4
 7697 1d43 01       		.uleb128 0x1
 7698 1d44 30       		.byte	0x30
 7699 1d45 31       		.uleb128 0x31
 7700 1d46 02       		.uleb128 0x2
 7701 1d47 7D       		.byte	0x7d
 7702 1d48 00       		.sleb128 0
 7703 1d49 01       		.uleb128 0x1
 7704 1d4a 30       		.byte	0x30
 7705 1d4b 00       		.byte	0
 7706 1d4c 00       		.byte	0
 7707 1d4d 3B       		.uleb128 0x3b
 7708 1d4e 130C0000 		.4byte	.LASF293
 7709 1d52 01       		.byte	0x1
 7710 1d53 EC02     		.2byte	0x2ec
 7711 1d55 25000000 		.4byte	0x25
 7712 1d59 00000000 		.4byte	.LFB19
 7713 1d5d 12000000 		.4byte	.LFE19-.LFB19
 7714 1d61 01       		.uleb128 0x1
 7715 1d62 9C       		.byte	0x9c
 7716 1d63 DA1D0000 		.4byte	0x1dda
ARM GAS  /tmp/ccZlncvZ.s 			page 137


 7717 1d67 2C       		.uleb128 0x2c
 7718 1d68 7300     		.ascii	"s\000"
 7719 1d6a 01       		.byte	0x1
 7720 1d6b EC02     		.2byte	0x2ec
 7721 1d6d 25000000 		.4byte	0x25
 7722 1d71 AD120000 		.4byte	.LLST98
 7723 1d75 2C       		.uleb128 0x2c
 7724 1d76 6D656D00 		.ascii	"mem\000"
 7725 1d7a 01       		.byte	0x1
 7726 1d7b EC02     		.2byte	0x2ec
 7727 1d7d C9020000 		.4byte	0x2c9
 7728 1d81 CE120000 		.4byte	.LLST99
 7729 1d85 2C       		.uleb128 0x2c
 7730 1d86 6C656E00 		.ascii	"len\000"
 7731 1d8a 01       		.byte	0x1
 7732 1d8b EC02     		.2byte	0x2ec
 7733 1d8d 2C000000 		.4byte	0x2c
 7734 1d91 EF120000 		.4byte	.LLST100
 7735 1d95 24       		.uleb128 0x24
 7736 1d96 74040000 		.4byte	.LASF110
 7737 1d9a 01       		.byte	0x1
 7738 1d9b EC02     		.2byte	0x2ec
 7739 1d9d 25000000 		.4byte	0x25
 7740 1da1 10130000 		.4byte	.LLST101
 7741 1da5 33       		.uleb128 0x33
 7742 1da6 0E000000 		.4byte	.LVL276
 7743 1daa AC1A0000 		.4byte	0x1aac
 7744 1dae 31       		.uleb128 0x31
 7745 1daf 01       		.uleb128 0x1
 7746 1db0 53       		.byte	0x53
 7747 1db1 03       		.uleb128 0x3
 7748 1db2 F3       		.byte	0xf3
 7749 1db3 01       		.uleb128 0x1
 7750 1db4 53       		.byte	0x53
 7751 1db5 31       		.uleb128 0x31
 7752 1db6 01       		.uleb128 0x1
 7753 1db7 52       		.byte	0x52
 7754 1db8 03       		.uleb128 0x3
 7755 1db9 F3       		.byte	0xf3
 7756 1dba 01       		.uleb128 0x1
 7757 1dbb 52       		.byte	0x52
 7758 1dbc 31       		.uleb128 0x31
 7759 1dbd 01       		.uleb128 0x1
 7760 1dbe 51       		.byte	0x51
 7761 1dbf 03       		.uleb128 0x3
 7762 1dc0 F3       		.byte	0xf3
 7763 1dc1 01       		.uleb128 0x1
 7764 1dc2 51       		.byte	0x51
 7765 1dc3 31       		.uleb128 0x31
 7766 1dc4 01       		.uleb128 0x1
 7767 1dc5 50       		.byte	0x50
 7768 1dc6 03       		.uleb128 0x3
 7769 1dc7 F3       		.byte	0xf3
 7770 1dc8 01       		.uleb128 0x1
 7771 1dc9 50       		.byte	0x50
 7772 1dca 31       		.uleb128 0x31
 7773 1dcb 02       		.uleb128 0x2
ARM GAS  /tmp/ccZlncvZ.s 			page 138


 7774 1dcc 7D       		.byte	0x7d
 7775 1dcd 04       		.sleb128 4
 7776 1dce 02       		.uleb128 0x2
 7777 1dcf 74       		.byte	0x74
 7778 1dd0 00       		.sleb128 0
 7779 1dd1 31       		.uleb128 0x31
 7780 1dd2 02       		.uleb128 0x2
 7781 1dd3 7D       		.byte	0x7d
 7782 1dd4 00       		.sleb128 0
 7783 1dd5 02       		.uleb128 0x2
 7784 1dd6 74       		.byte	0x74
 7785 1dd7 00       		.sleb128 0
 7786 1dd8 00       		.byte	0
 7787 1dd9 00       		.byte	0
 7788 1dda 3B       		.uleb128 0x3b
 7789 1ddb 640C0000 		.4byte	.LASF294
 7790 1ddf 01       		.byte	0x1
 7791 1de0 1603     		.2byte	0x316
 7792 1de2 25000000 		.4byte	0x25
 7793 1de6 00000000 		.4byte	.LFB21
 7794 1dea DE000000 		.4byte	.LFE21-.LFB21
 7795 1dee 01       		.uleb128 0x1
 7796 1def 9C       		.byte	0x9c
 7797 1df0 461F0000 		.4byte	0x1f46
 7798 1df4 2C       		.uleb128 0x2c
 7799 1df5 7300     		.ascii	"s\000"
 7800 1df7 01       		.byte	0x1
 7801 1df8 1603     		.2byte	0x316
 7802 1dfa 25000000 		.4byte	0x25
 7803 1dfe 31130000 		.4byte	.LLST102
 7804 1e02 24       		.uleb128 0x24
 7805 1e03 550F0000 		.4byte	.LASF270
 7806 1e07 01       		.byte	0x1
 7807 1e08 1603     		.2byte	0x316
 7808 1e0a FA0E0000 		.4byte	0xefa
 7809 1e0e 84130000 		.4byte	.LLST103
 7810 1e12 24       		.uleb128 0x24
 7811 1e13 030A0000 		.4byte	.LASF295
 7812 1e17 01       		.byte	0x1
 7813 1e18 1603     		.2byte	0x316
 7814 1e1a 2C000000 		.4byte	0x2c
 7815 1e1e CE130000 		.4byte	.LLST104
 7816 1e22 24       		.uleb128 0x24
 7817 1e23 74040000 		.4byte	.LASF110
 7818 1e27 01       		.byte	0x1
 7819 1e28 1603     		.2byte	0x316
 7820 1e2a 25000000 		.4byte	0x25
 7821 1e2e 42140000 		.4byte	.LLST105
 7822 1e32 2C       		.uleb128 0x2c
 7823 1e33 746F00   		.ascii	"to\000"
 7824 1e36 01       		.byte	0x1
 7825 1e37 1703     		.2byte	0x317
 7826 1e39 1F180000 		.4byte	0x181f
 7827 1e3d 95140000 		.4byte	.LLST106
 7828 1e41 24       		.uleb128 0x24
 7829 1e42 730F0000 		.4byte	.LASF296
 7830 1e46 01       		.byte	0x1
ARM GAS  /tmp/ccZlncvZ.s 			page 139


 7831 1e47 1703     		.2byte	0x317
 7832 1e49 BF050000 		.4byte	0x5bf
 7833 1e4d B5140000 		.4byte	.LLST107
 7834 1e51 28       		.uleb128 0x28
 7835 1e52 F2070000 		.4byte	.LASF240
 7836 1e56 01       		.byte	0x1
 7837 1e57 1903     		.2byte	0x319
 7838 1e59 BC100000 		.4byte	0x10bc
 7839 1e5d 25       		.uleb128 0x25
 7840 1e5e 65727200 		.ascii	"err\000"
 7841 1e62 01       		.byte	0x1
 7842 1e63 1A03     		.2byte	0x31a
 7843 1e65 29060000 		.4byte	0x629
 7844 1e69 D5140000 		.4byte	.LLST108
 7845 1e6d 26       		.uleb128 0x26
 7846 1e6e 630B0000 		.4byte	.LASF297
 7847 1e72 01       		.byte	0x1
 7848 1e73 1B03     		.2byte	0x31b
 7849 1e75 BC040000 		.4byte	0x4bc
 7850 1e79 09150000 		.4byte	.LLST109
 7851 1e7d 26       		.uleb128 0x26
 7852 1e7e 5E090000 		.4byte	.LASF298
 7853 1e82 01       		.byte	0x1
 7854 1e83 1C03     		.2byte	0x31c
 7855 1e85 2A180000 		.4byte	0x182a
 7856 1e89 3D150000 		.4byte	.LLST110
 7857 1e8d 26       		.uleb128 0x26
 7858 1e8e 1F0A0000 		.4byte	.LASF154
 7859 1e92 01       		.byte	0x1
 7860 1e93 1D03     		.2byte	0x31d
 7861 1e95 BC040000 		.4byte	0x4bc
 7862 1e99 73150000 		.4byte	.LLST111
 7863 1e9d 2D       		.uleb128 0x2d
 7864 1e9e 62756600 		.ascii	"buf\000"
 7865 1ea2 01       		.byte	0x1
 7866 1ea3 1F03     		.2byte	0x31f
 7867 1ea5 9B060000 		.4byte	0x69b
 7868 1ea9 02       		.uleb128 0x2
 7869 1eaa 91       		.byte	0x91
 7870 1eab 50       		.sleb128 -48
 7871 1eac 2E       		.uleb128 0x2e
 7872 1ead E2100000 		.4byte	0x10e2
 7873 1eb1 06000000 		.4byte	.LBB100
 7874 1eb5 50010000 		.4byte	.Ldebug_ranges0+0x150
 7875 1eb9 01       		.byte	0x1
 7876 1eba 2203     		.2byte	0x322
 7877 1ebc D91E0000 		.4byte	0x1ed9
 7878 1ec0 2B       		.uleb128 0x2b
 7879 1ec1 F2100000 		.4byte	0x10f2
 7880 1ec5 92150000 		.4byte	.LLST112
 7881 1ec9 29       		.uleb128 0x29
 7882 1eca 50010000 		.4byte	.Ldebug_ranges0+0x150
 7883 1ece 2F       		.uleb128 0x2f
 7884 1ecf FB100000 		.4byte	0x10fb
 7885 1ed3 E5150000 		.4byte	.LLST113
 7886 1ed7 00       		.byte	0
 7887 1ed8 00       		.byte	0
ARM GAS  /tmp/ccZlncvZ.s 			page 140


 7888 1ed9 32       		.uleb128 0x32
 7889 1eda 6C000000 		.4byte	.LVL283
 7890 1ede 1A2A0000 		.4byte	0x2a1a
 7891 1ee2 30       		.uleb128 0x30
 7892 1ee3 7A000000 		.4byte	.LVL285
 7893 1ee7 272B0000 		.4byte	0x2b27
 7894 1eeb 021F0000 		.4byte	0x1f02
 7895 1eef 31       		.uleb128 0x31
 7896 1ef0 01       		.uleb128 0x1
 7897 1ef1 52       		.byte	0x52
 7898 1ef2 02       		.uleb128 0x2
 7899 1ef3 77       		.byte	0x77
 7900 1ef4 00       		.sleb128 0
 7901 1ef5 31       		.uleb128 0x31
 7902 1ef6 01       		.uleb128 0x1
 7903 1ef7 51       		.byte	0x51
 7904 1ef8 02       		.uleb128 0x2
 7905 1ef9 7A       		.byte	0x7a
 7906 1efa 00       		.sleb128 0
 7907 1efb 31       		.uleb128 0x31
 7908 1efc 01       		.uleb128 0x1
 7909 1efd 50       		.byte	0x50
 7910 1efe 02       		.uleb128 0x2
 7911 1eff 7D       		.byte	0x7d
 7912 1f00 00       		.sleb128 0
 7913 1f01 00       		.byte	0
 7914 1f02 30       		.uleb128 0x30
 7915 1f03 84000000 		.4byte	.LVL288
 7916 1f07 462B0000 		.4byte	0x2b46
 7917 1f0b 161F0000 		.4byte	0x1f16
 7918 1f0f 31       		.uleb128 0x31
 7919 1f10 01       		.uleb128 0x1
 7920 1f11 50       		.byte	0x50
 7921 1f12 02       		.uleb128 0x2
 7922 1f13 7D       		.byte	0x7d
 7923 1f14 00       		.sleb128 0
 7924 1f15 00       		.byte	0
 7925 1f16 32       		.uleb128 0x32
 7926 1f17 BC000000 		.4byte	.LVL293
 7927 1f1b CC290000 		.4byte	0x29cc
 7928 1f1f 30       		.uleb128 0x30
 7929 1f20 C8000000 		.4byte	.LVL296
 7930 1f24 572B0000 		.4byte	0x2b57
 7931 1f28 331F0000 		.4byte	0x1f33
 7932 1f2c 31       		.uleb128 0x31
 7933 1f2d 01       		.uleb128 0x1
 7934 1f2e 51       		.byte	0x51
 7935 1f2f 02       		.uleb128 0x2
 7936 1f30 7D       		.byte	0x7d
 7937 1f31 00       		.sleb128 0
 7938 1f32 00       		.byte	0
 7939 1f33 32       		.uleb128 0x32
 7940 1f34 D0000000 		.4byte	.LVL299
 7941 1f38 461F0000 		.4byte	0x1f46
 7942 1f3c 32       		.uleb128 0x32
 7943 1f3d D6000000 		.4byte	.LVL301
 7944 1f41 CC290000 		.4byte	0x29cc
ARM GAS  /tmp/ccZlncvZ.s 			page 141


 7945 1f45 00       		.byte	0
 7946 1f46 3B       		.uleb128 0x3b
 7947 1f47 03030000 		.4byte	.LASF299
 7948 1f4b 01       		.byte	0x1
 7949 1f4c F202     		.2byte	0x2f2
 7950 1f4e 25000000 		.4byte	0x25
 7951 1f52 00000000 		.4byte	.LFB20
 7952 1f56 80000000 		.4byte	.LFE20-.LFB20
 7953 1f5a 01       		.uleb128 0x1
 7954 1f5b 9C       		.byte	0x9c
 7955 1f5c 60200000 		.4byte	0x2060
 7956 1f60 2C       		.uleb128 0x2c
 7957 1f61 7300     		.ascii	"s\000"
 7958 1f63 01       		.byte	0x1
 7959 1f64 F202     		.2byte	0x2f2
 7960 1f66 25000000 		.4byte	0x25
 7961 1f6a 03160000 		.4byte	.LLST114
 7962 1f6e 24       		.uleb128 0x24
 7963 1f6f 550F0000 		.4byte	.LASF270
 7964 1f73 01       		.byte	0x1
 7965 1f74 F202     		.2byte	0x2f2
 7966 1f76 FA0E0000 		.4byte	0xefa
 7967 1f7a 3D160000 		.4byte	.LLST115
 7968 1f7e 24       		.uleb128 0x24
 7969 1f7f 030A0000 		.4byte	.LASF295
 7970 1f83 01       		.byte	0x1
 7971 1f84 F202     		.2byte	0x2f2
 7972 1f86 2C000000 		.4byte	0x2c
 7973 1f8a 77160000 		.4byte	.LLST116
 7974 1f8e 24       		.uleb128 0x24
 7975 1f8f 74040000 		.4byte	.LASF110
 7976 1f93 01       		.byte	0x1
 7977 1f94 F202     		.2byte	0x2f2
 7978 1f96 25000000 		.4byte	0x25
 7979 1f9a B1160000 		.4byte	.LLST117
 7980 1f9e 28       		.uleb128 0x28
 7981 1f9f F2070000 		.4byte	.LASF240
 7982 1fa3 01       		.byte	0x1
 7983 1fa4 F402     		.2byte	0x2f4
 7984 1fa6 BC100000 		.4byte	0x10bc
 7985 1faa 25       		.uleb128 0x25
 7986 1fab 65727200 		.ascii	"err\000"
 7987 1faf 01       		.byte	0x1
 7988 1fb0 F502     		.2byte	0x2f5
 7989 1fb2 29060000 		.4byte	0x629
 7990 1fb6 F3160000 		.4byte	.LLST118
 7991 1fba 26       		.uleb128 0x26
 7992 1fbb 21020000 		.4byte	.LASF300
 7993 1fbf 01       		.byte	0x1
 7994 1fc0 F602     		.2byte	0x2f6
 7995 1fc2 A6040000 		.4byte	0x4a6
 7996 1fc6 06170000 		.4byte	.LLST119
 7997 1fca 27       		.uleb128 0x27
 7998 1fcb F80D0000 		.4byte	.LASF301
 7999 1fcf 01       		.byte	0x1
 8000 1fd0 F702     		.2byte	0x2f7
 8001 1fd2 2C000000 		.4byte	0x2c
ARM GAS  /tmp/ccZlncvZ.s 			page 142


 8002 1fd6 02       		.uleb128 0x2
 8003 1fd7 91       		.byte	0x91
 8004 1fd8 64       		.sleb128 -28
 8005 1fd9 2E       		.uleb128 0x2e
 8006 1fda E2100000 		.4byte	0x10e2
 8007 1fde 02000000 		.4byte	.LBB104
 8008 1fe2 68010000 		.4byte	.Ldebug_ranges0+0x168
 8009 1fe6 01       		.byte	0x1
 8010 1fe7 FC02     		.2byte	0x2fc
 8011 1fe9 06200000 		.4byte	0x2006
 8012 1fed 2B       		.uleb128 0x2b
 8013 1fee F2100000 		.4byte	0x10f2
 8014 1ff2 03160000 		.4byte	.LLST114
 8015 1ff6 29       		.uleb128 0x29
 8016 1ff7 68010000 		.4byte	.Ldebug_ranges0+0x168
 8017 1ffb 2F       		.uleb128 0x2f
 8018 1ffc FB100000 		.4byte	0x10fb
 8019 2000 3D170000 		.4byte	.LLST121
 8020 2004 00       		.byte	0
 8021 2005 00       		.byte	0
 8022 2006 30       		.uleb128 0x30
 8023 2007 4C000000 		.4byte	.LVL308
 8024 200b 712B0000 		.4byte	0x2b71
 8025 200f 47200000 		.4byte	0x2047
 8026 2013 31       		.uleb128 0x31
 8027 2014 01       		.uleb128 0x1
 8028 2015 53       		.byte	0x53
 8029 2016 14       		.uleb128 0x14
 8030 2017 31       		.byte	0x31
 8031 2018 33       		.byte	0x33
 8032 2019 F3       		.byte	0xf3
 8033 201a 01       		.uleb128 0x1
 8034 201b 53       		.byte	0x53
 8035 201c 09       		.byte	0x9
 8036 201d FF       		.byte	0xff
 8037 201e 24       		.byte	0x24
 8038 201f 33       		.byte	0x33
 8039 2020 25       		.byte	0x25
 8040 2021 30       		.byte	0x30
 8041 2022 29       		.byte	0x29
 8042 2023 28       		.byte	0x28
 8043 2024 0100     		.2byte	0x1
 8044 2026 16       		.byte	0x16
 8045 2027 13       		.byte	0x13
 8046 2028 76       		.byte	0x76
 8047 2029 00       		.sleb128 0
 8048 202a 21       		.byte	0x21
 8049 202b 31       		.uleb128 0x31
 8050 202c 01       		.uleb128 0x1
 8051 202d 52       		.byte	0x52
 8052 202e 03       		.uleb128 0x3
 8053 202f F3       		.byte	0xf3
 8054 2030 01       		.uleb128 0x1
 8055 2031 52       		.byte	0x52
 8056 2032 31       		.uleb128 0x31
 8057 2033 01       		.uleb128 0x1
 8058 2034 51       		.byte	0x51
ARM GAS  /tmp/ccZlncvZ.s 			page 143


 8059 2035 03       		.uleb128 0x3
 8060 2036 F3       		.byte	0xf3
 8061 2037 01       		.uleb128 0x1
 8062 2038 51       		.byte	0x51
 8063 2039 31       		.uleb128 0x31
 8064 203a 01       		.uleb128 0x1
 8065 203b 50       		.byte	0x50
 8066 203c 02       		.uleb128 0x2
 8067 203d 75       		.byte	0x75
 8068 203e 00       		.sleb128 0
 8069 203f 31       		.uleb128 0x31
 8070 2040 02       		.uleb128 0x2
 8071 2041 7D       		.byte	0x7d
 8072 2042 00       		.sleb128 0
 8073 2043 02       		.uleb128 0x2
 8074 2044 74       		.byte	0x74
 8075 2045 00       		.sleb128 0
 8076 2046 00       		.byte	0
 8077 2047 33       		.uleb128 0x33
 8078 2048 7C000000 		.4byte	.LVL312
 8079 204c DA1D0000 		.4byte	0x1dda
 8080 2050 31       		.uleb128 0x31
 8081 2051 02       		.uleb128 0x2
 8082 2052 7D       		.byte	0x7d
 8083 2053 04       		.sleb128 4
 8084 2054 02       		.uleb128 0x2
 8085 2055 74       		.byte	0x74
 8086 2056 00       		.sleb128 0
 8087 2057 31       		.uleb128 0x31
 8088 2058 02       		.uleb128 0x2
 8089 2059 7D       		.byte	0x7d
 8090 205a 00       		.sleb128 0
 8091 205b 02       		.uleb128 0x2
 8092 205c 74       		.byte	0x74
 8093 205d 00       		.sleb128 0
 8094 205e 00       		.byte	0
 8095 205f 00       		.byte	0
 8096 2060 3B       		.uleb128 0x3b
 8097 2061 26090000 		.4byte	.LASF302
 8098 2065 01       		.byte	0x1
 8099 2066 B403     		.2byte	0x3b4
 8100 2068 25000000 		.4byte	0x25
 8101 206c 00000000 		.4byte	.LFB22
 8102 2070 86000000 		.4byte	.LFE22-.LFB22
 8103 2074 01       		.uleb128 0x1
 8104 2075 9C       		.byte	0x9c
 8105 2076 5F210000 		.4byte	0x215f
 8106 207a 24       		.uleb128 0x24
 8107 207b 5D020000 		.4byte	.LASF303
 8108 207f 01       		.byte	0x1
 8109 2080 B403     		.2byte	0x3b4
 8110 2082 25000000 		.4byte	0x25
 8111 2086 5B170000 		.4byte	.LLST122
 8112 208a 24       		.uleb128 0x24
 8113 208b 1A010000 		.4byte	.LASF109
 8114 208f 01       		.byte	0x1
 8115 2090 B403     		.2byte	0x3b4
ARM GAS  /tmp/ccZlncvZ.s 			page 144


 8116 2092 25000000 		.4byte	0x25
 8117 2096 7C170000 		.4byte	.LLST123
 8118 209a 24       		.uleb128 0x24
 8119 209b 00070000 		.4byte	.LASF196
 8120 209f 01       		.byte	0x1
 8121 20a0 B403     		.2byte	0x3b4
 8122 20a2 25000000 		.4byte	0x25
 8123 20a6 E8170000 		.4byte	.LLST124
 8124 20aa 26       		.uleb128 0x26
 8125 20ab 39010000 		.4byte	.LASF198
 8126 20af 01       		.byte	0x1
 8127 20b0 B603     		.2byte	0x3b6
 8128 20b2 A6070000 		.4byte	0x7a6
 8129 20b6 54180000 		.4byte	.LLST125
 8130 20ba 25       		.uleb128 0x25
 8131 20bb 6900     		.ascii	"i\000"
 8132 20bd 01       		.byte	0x1
 8133 20be B703     		.2byte	0x3b7
 8134 20c0 25000000 		.4byte	0x25
 8135 20c4 93180000 		.4byte	.LLST126
 8136 20c8 30       		.uleb128 0x30
 8137 20c9 26000000 		.4byte	.LVL319
 8138 20cd A02B0000 		.4byte	0x2ba0
 8139 20d1 E9200000 		.4byte	0x20e9
 8140 20d5 31       		.uleb128 0x31
 8141 20d6 01       		.uleb128 0x1
 8142 20d7 52       		.byte	0x52
 8143 20d8 05       		.uleb128 0x5
 8144 20d9 03       		.byte	0x3
 8145 20da 00000000 		.4byte	event_callback
 8146 20de 31       		.uleb128 0x31
 8147 20df 01       		.uleb128 0x1
 8148 20e0 51       		.byte	0x51
 8149 20e1 01       		.uleb128 0x1
 8150 20e2 30       		.byte	0x30
 8151 20e3 31       		.uleb128 0x31
 8152 20e4 01       		.uleb128 0x1
 8153 20e5 50       		.byte	0x50
 8154 20e6 01       		.uleb128 0x1
 8155 20e7 40       		.byte	0x40
 8156 20e8 00       		.byte	0
 8157 20e9 30       		.uleb128 0x30
 8158 20ea 3C000000 		.4byte	.LVL320
 8159 20ee 07110000 		.4byte	0x1107
 8160 20f2 02210000 		.4byte	0x2102
 8161 20f6 31       		.uleb128 0x31
 8162 20f7 01       		.uleb128 0x1
 8163 20f8 51       		.byte	0x51
 8164 20f9 01       		.uleb128 0x1
 8165 20fa 30       		.byte	0x30
 8166 20fb 31       		.uleb128 0x31
 8167 20fc 01       		.uleb128 0x1
 8168 20fd 50       		.byte	0x50
 8169 20fe 02       		.uleb128 0x2
 8170 20ff 74       		.byte	0x74
 8171 2100 00       		.sleb128 0
 8172 2101 00       		.byte	0
ARM GAS  /tmp/ccZlncvZ.s 			page 145


 8173 2102 30       		.uleb128 0x30
 8174 2103 56000000 		.4byte	.LVL325
 8175 2107 A02B0000 		.4byte	0x2ba0
 8176 210b 1F210000 		.4byte	0x211f
 8177 210f 31       		.uleb128 0x31
 8178 2110 01       		.uleb128 0x1
 8179 2111 52       		.byte	0x52
 8180 2112 05       		.uleb128 0x5
 8181 2113 03       		.byte	0x3
 8182 2114 00000000 		.4byte	event_callback
 8183 2118 31       		.uleb128 0x31
 8184 2119 01       		.uleb128 0x1
 8185 211a 50       		.byte	0x50
 8186 211b 02       		.uleb128 0x2
 8187 211c 08       		.byte	0x8
 8188 211d 40       		.byte	0x40
 8189 211e 00       		.byte	0
 8190 211f 30       		.uleb128 0x30
 8191 2120 74000000 		.4byte	.LVL330
 8192 2124 A02B0000 		.4byte	0x2ba0
 8193 2128 4E210000 		.4byte	0x214e
 8194 212c 31       		.uleb128 0x31
 8195 212d 01       		.uleb128 0x1
 8196 212e 52       		.byte	0x52
 8197 212f 05       		.uleb128 0x5
 8198 2130 03       		.byte	0x3
 8199 2131 00000000 		.4byte	event_callback
 8200 2135 31       		.uleb128 0x31
 8201 2136 01       		.uleb128 0x1
 8202 2137 51       		.byte	0x51
 8203 2138 01       		.uleb128 0x1
 8204 2139 30       		.byte	0x30
 8205 213a 31       		.uleb128 0x31
 8206 213b 01       		.uleb128 0x1
 8207 213c 50       		.byte	0x50
 8208 213d 0F       		.uleb128 0xf
 8209 213e 08       		.byte	0x8
 8210 213f 20       		.byte	0x20
 8211 2140 08       		.byte	0x8
 8212 2141 21       		.byte	0x21
 8213 2142 F3       		.byte	0xf3
 8214 2143 01       		.uleb128 0x1
 8215 2144 52       		.byte	0x52
 8216 2145 08       		.byte	0x8
 8217 2146 88       		.byte	0x88
 8218 2147 2E       		.byte	0x2e
 8219 2148 28       		.byte	0x28
 8220 2149 0100     		.2byte	0x1
 8221 214b 16       		.byte	0x16
 8222 214c 13       		.byte	0x13
 8223 214d 00       		.byte	0
 8224 214e 33       		.uleb128 0x33
 8225 214f 82000000 		.4byte	.LVL334
 8226 2153 052A0000 		.4byte	0x2a05
 8227 2157 31       		.uleb128 0x31
 8228 2158 01       		.uleb128 0x1
 8229 2159 50       		.byte	0x50
ARM GAS  /tmp/ccZlncvZ.s 			page 146


 8230 215a 02       		.uleb128 0x2
 8231 215b 74       		.byte	0x74
 8232 215c 00       		.sleb128 0
 8233 215d 00       		.byte	0
 8234 215e 00       		.byte	0
 8235 215f 3B       		.uleb128 0x3b
 8236 2160 B80B0000 		.4byte	.LASF304
 8237 2164 01       		.byte	0x1
 8238 2165 EC03     		.2byte	0x3ec
 8239 2167 25000000 		.4byte	0x25
 8240 216b 00000000 		.4byte	.LFB23
 8241 216f 06000000 		.4byte	.LFE23-.LFB23
 8242 2173 01       		.uleb128 0x1
 8243 2174 9C       		.byte	0x9c
 8244 2175 CC210000 		.4byte	0x21cc
 8245 2179 2C       		.uleb128 0x2c
 8246 217a 7300     		.ascii	"s\000"
 8247 217c 01       		.byte	0x1
 8248 217d EC03     		.2byte	0x3ec
 8249 217f 25000000 		.4byte	0x25
 8250 2183 BC180000 		.4byte	.LLST127
 8251 2187 24       		.uleb128 0x24
 8252 2188 550F0000 		.4byte	.LASF270
 8253 218c 01       		.byte	0x1
 8254 218d EC03     		.2byte	0x3ec
 8255 218f FA0E0000 		.4byte	0xefa
 8256 2193 DD180000 		.4byte	.LLST128
 8257 2197 24       		.uleb128 0x24
 8258 2198 030A0000 		.4byte	.LASF295
 8259 219c 01       		.byte	0x1
 8260 219d EC03     		.2byte	0x3ec
 8261 219f 2C000000 		.4byte	0x2c
 8262 21a3 FE180000 		.4byte	.LLST129
 8263 21a7 3F       		.uleb128 0x3f
 8264 21a8 06000000 		.4byte	.LVL336
 8265 21ac 461F0000 		.4byte	0x1f46
 8266 21b0 31       		.uleb128 0x31
 8267 21b1 01       		.uleb128 0x1
 8268 21b2 53       		.byte	0x53
 8269 21b3 01       		.uleb128 0x1
 8270 21b4 30       		.byte	0x30
 8271 21b5 31       		.uleb128 0x31
 8272 21b6 01       		.uleb128 0x1
 8273 21b7 52       		.byte	0x52
 8274 21b8 03       		.uleb128 0x3
 8275 21b9 F3       		.byte	0xf3
 8276 21ba 01       		.uleb128 0x1
 8277 21bb 52       		.byte	0x52
 8278 21bc 31       		.uleb128 0x31
 8279 21bd 01       		.uleb128 0x1
 8280 21be 51       		.byte	0x51
 8281 21bf 03       		.uleb128 0x3
 8282 21c0 F3       		.byte	0xf3
 8283 21c1 01       		.uleb128 0x1
 8284 21c2 51       		.byte	0x51
 8285 21c3 31       		.uleb128 0x31
 8286 21c4 01       		.uleb128 0x1
ARM GAS  /tmp/ccZlncvZ.s 			page 147


 8287 21c5 50       		.byte	0x50
 8288 21c6 03       		.uleb128 0x3
 8289 21c7 F3       		.byte	0xf3
 8290 21c8 01       		.uleb128 0x1
 8291 21c9 50       		.byte	0x50
 8292 21ca 00       		.byte	0
 8293 21cb 00       		.byte	0
 8294 21cc 3B       		.uleb128 0x3b
 8295 21cd 2B060000 		.4byte	.LASF305
 8296 21d1 01       		.byte	0x1
 8297 21d2 4004     		.2byte	0x440
 8298 21d4 25000000 		.4byte	0x25
 8299 21d8 00000000 		.4byte	.LFB25
 8300 21dc 92020000 		.4byte	.LFE25-.LFB25
 8301 21e0 01       		.uleb128 0x1
 8302 21e1 9C       		.byte	0x9c
 8303 21e2 6A240000 		.4byte	0x246a
 8304 21e6 24       		.uleb128 0x24
 8305 21e7 1C0F0000 		.4byte	.LASF251
 8306 21eb 01       		.byte	0x1
 8307 21ec 4004     		.2byte	0x440
 8308 21ee 25000000 		.4byte	0x25
 8309 21f2 1F190000 		.4byte	.LLST130
 8310 21f6 24       		.uleb128 0x24
 8311 21f7 00040000 		.4byte	.LASF235
 8312 21fb 01       		.byte	0x1
 8313 21fc 4004     		.2byte	0x440
 8314 21fe 61100000 		.4byte	0x1061
 8315 2202 3D190000 		.4byte	.LLST131
 8316 2206 24       		.uleb128 0x24
 8317 2207 DE0B0000 		.4byte	.LASF236
 8318 220b 01       		.byte	0x1
 8319 220c 4004     		.2byte	0x440
 8320 220e 61100000 		.4byte	0x1061
 8321 2212 5B190000 		.4byte	.LLST132
 8322 2216 24       		.uleb128 0x24
 8323 2217 25010000 		.4byte	.LASF237
 8324 221b 01       		.byte	0x1
 8325 221c 4004     		.2byte	0x440
 8326 221e 61100000 		.4byte	0x1061
 8327 2222 79190000 		.4byte	.LLST133
 8328 2226 24       		.uleb128 0x24
 8329 2227 8F070000 		.4byte	.LASF306
 8330 222b 01       		.byte	0x1
 8331 222c 4104     		.2byte	0x441
 8332 222e 6A240000 		.4byte	0x246a
 8333 2232 97190000 		.4byte	.LLST134
 8334 2236 26       		.uleb128 0x26
 8335 2237 5D040000 		.4byte	.LASF307
 8336 223b 01       		.byte	0x1
 8337 223c 4304     		.2byte	0x443
 8338 223e D2040000 		.4byte	0x4d2
 8339 2242 B7190000 		.4byte	.LLST135
 8340 2246 26       		.uleb128 0x26
 8341 2247 340F0000 		.4byte	.LASF258
 8342 224b 01       		.byte	0x1
 8343 224c 4404     		.2byte	0x444
ARM GAS  /tmp/ccZlncvZ.s 			page 148


 8344 224e 25000000 		.4byte	0x25
 8345 2252 2D1A0000 		.4byte	.LLST136
 8346 2256 27       		.uleb128 0x27
 8347 2257 F30B0000 		.4byte	.LASF259
 8348 225b 01       		.byte	0x1
 8349 225c 4504     		.2byte	0x445
 8350 225e F5050000 		.4byte	0x5f5
 8351 2262 03       		.uleb128 0x3
 8352 2263 91       		.byte	0x91
 8353 2264 B07F     		.sleb128 -80
 8354 2266 27       		.uleb128 0x27
 8355 2267 D9090000 		.4byte	.LASF260
 8356 226b 01       		.byte	0x1
 8357 226c 4504     		.2byte	0x445
 8358 226e F5050000 		.4byte	0x5f5
 8359 2272 03       		.uleb128 0x3
 8360 2273 91       		.byte	0x91
 8361 2274 B47F     		.sleb128 -76
 8362 2276 27       		.uleb128 0x27
 8363 2277 00000000 		.4byte	.LASF261
 8364 227b 01       		.byte	0x1
 8365 227c 4504     		.2byte	0x445
 8366 227e F5050000 		.4byte	0x5f5
 8367 2282 03       		.uleb128 0x3
 8368 2283 91       		.byte	0x91
 8369 2284 B87F     		.sleb128 -72
 8370 2286 26       		.uleb128 0x26
 8371 2287 010B0000 		.4byte	.LASF308
 8372 228b 01       		.byte	0x1
 8373 228c 4604     		.2byte	0x446
 8374 228e D2040000 		.4byte	0x4d2
 8375 2292 A31A0000 		.4byte	.LLST137
 8376 2296 27       		.uleb128 0x27
 8377 2297 C40A0000 		.4byte	.LASF309
 8378 229b 01       		.byte	0x1
 8379 229c 4704     		.2byte	0x447
 8380 229e FA0F0000 		.4byte	0xffa
 8381 22a2 03       		.uleb128 0x3
 8382 22a3 91       		.byte	0x91
 8383 22a4 BC7F     		.sleb128 -68
 8384 22a6 25       		.uleb128 0x25
 8385 22a7 65727200 		.ascii	"err\000"
 8386 22ab 01       		.byte	0x1
 8387 22ac 4804     		.2byte	0x448
 8388 22ae 29060000 		.4byte	0x629
 8389 22b2 B61A0000 		.4byte	.LLST138
 8390 22b6 25       		.uleb128 0x25
 8391 22b7 6900     		.ascii	"i\000"
 8392 22b9 01       		.byte	0x1
 8393 22ba 4904     		.2byte	0x449
 8394 22bc 25000000 		.4byte	0x25
 8395 22c0 D41A0000 		.4byte	.LLST139
 8396 22c4 40       		.uleb128 0x40
 8397 22c5 04020000 		.4byte	.LASF358
 8398 22c9 01       		.byte	0x1
 8399 22ca CA04     		.2byte	0x4ca
 8400 22cc E0010000 		.4byte	.L408
ARM GAS  /tmp/ccZlncvZ.s 			page 149


 8401 22d0 38       		.uleb128 0x38
 8402 22d1 80010000 		.4byte	.Ldebug_ranges0+0x180
 8403 22d5 16230000 		.4byte	0x2316
 8404 22d9 28       		.uleb128 0x28
 8405 22da F2070000 		.4byte	.LASF240
 8406 22de 01       		.byte	0x1
 8407 22df 8404     		.2byte	0x484
 8408 22e1 BC100000 		.4byte	0x10bc
 8409 22e5 2E       		.uleb128 0x2e
 8410 22e6 C8100000 		.4byte	0x10c8
 8411 22ea BA000000 		.4byte	.LBB109
 8412 22ee A0010000 		.4byte	.Ldebug_ranges0+0x1a0
 8413 22f2 01       		.byte	0x1
 8414 22f3 8404     		.2byte	0x484
 8415 22f5 03230000 		.4byte	0x2303
 8416 22f9 2B       		.uleb128 0x2b
 8417 22fa D8100000 		.4byte	0x10d8
 8418 22fe 361B0000 		.4byte	.LLST140
 8419 2302 00       		.byte	0
 8420 2303 32       		.uleb128 0x32
 8421 2304 C6000000 		.4byte	.LVL345
 8422 2308 CC290000 		.4byte	0x29cc
 8423 230c 32       		.uleb128 0x32
 8424 230d 38020000 		.4byte	.LVL371
 8425 2311 CC290000 		.4byte	0x29cc
 8426 2315 00       		.byte	0
 8427 2316 38       		.uleb128 0x38
 8428 2317 B8010000 		.4byte	.Ldebug_ranges0+0x1b8
 8429 231b 5C230000 		.4byte	0x235c
 8430 231f 28       		.uleb128 0x28
 8431 2320 F2070000 		.4byte	.LASF240
 8432 2324 01       		.byte	0x1
 8433 2325 A404     		.2byte	0x4a4
 8434 2327 BC100000 		.4byte	0x10bc
 8435 232b 2E       		.uleb128 0x2e
 8436 232c C8100000 		.4byte	0x10c8
 8437 2330 76010000 		.4byte	.LBB114
 8438 2334 D8010000 		.4byte	.Ldebug_ranges0+0x1d8
 8439 2338 01       		.byte	0x1
 8440 2339 A404     		.2byte	0x4a4
 8441 233b 49230000 		.4byte	0x2349
 8442 233f 2B       		.uleb128 0x2b
 8443 2340 D8100000 		.4byte	0x10d8
 8444 2344 5F1B0000 		.4byte	.LLST141
 8445 2348 00       		.byte	0
 8446 2349 32       		.uleb128 0x32
 8447 234a 80010000 		.4byte	.LVL360
 8448 234e CC290000 		.4byte	0x29cc
 8449 2352 32       		.uleb128 0x32
 8450 2353 56020000 		.4byte	.LVL374
 8451 2357 CC290000 		.4byte	0x29cc
 8452 235b 00       		.byte	0
 8453 235c 30       		.uleb128 0x30
 8454 235d 22000000 		.4byte	.LVL338
 8455 2361 4C110000 		.4byte	0x114c
 8456 2365 9A230000 		.4byte	0x239a
 8457 2369 31       		.uleb128 0x31
ARM GAS  /tmp/ccZlncvZ.s 			page 150


 8458 236a 01       		.uleb128 0x1
 8459 236b 53       		.byte	0x53
 8460 236c 02       		.uleb128 0x2
 8461 236d 77       		.byte	0x77
 8462 236e 00       		.sleb128 0
 8463 236f 31       		.uleb128 0x31
 8464 2370 01       		.uleb128 0x1
 8465 2371 52       		.byte	0x52
 8466 2372 02       		.uleb128 0x2
 8467 2373 75       		.byte	0x75
 8468 2374 00       		.sleb128 0
 8469 2375 31       		.uleb128 0x31
 8470 2376 01       		.uleb128 0x1
 8471 2377 51       		.byte	0x51
 8472 2378 02       		.uleb128 0x2
 8473 2379 74       		.byte	0x74
 8474 237a 00       		.sleb128 0
 8475 237b 31       		.uleb128 0x31
 8476 237c 01       		.uleb128 0x1
 8477 237d 50       		.byte	0x50
 8478 237e 02       		.uleb128 0x2
 8479 237f 76       		.byte	0x76
 8480 2380 00       		.sleb128 0
 8481 2381 31       		.uleb128 0x31
 8482 2382 02       		.uleb128 0x2
 8483 2383 7D       		.byte	0x7d
 8484 2384 08       		.sleb128 8
 8485 2385 03       		.uleb128 0x3
 8486 2386 91       		.byte	0x91
 8487 2387 B87F     		.sleb128 -72
 8488 2389 31       		.uleb128 0x31
 8489 238a 02       		.uleb128 0x2
 8490 238b 7D       		.byte	0x7d
 8491 238c 04       		.sleb128 4
 8492 238d 03       		.uleb128 0x3
 8493 238e 91       		.byte	0x91
 8494 238f B47F     		.sleb128 -76
 8495 2391 31       		.uleb128 0x31
 8496 2392 02       		.uleb128 0x2
 8497 2393 7D       		.byte	0x7d
 8498 2394 00       		.sleb128 0
 8499 2395 03       		.uleb128 0x3
 8500 2396 91       		.byte	0x91
 8501 2397 B07F     		.sleb128 -80
 8502 2399 00       		.byte	0
 8503 239a 30       		.uleb128 0x30
 8504 239b 5A000000 		.4byte	.LVL340
 8505 239f BF2B0000 		.4byte	0x2bbf
 8506 23a3 B3230000 		.4byte	0x23b3
 8507 23a7 31       		.uleb128 0x31
 8508 23a8 01       		.uleb128 0x1
 8509 23a9 51       		.byte	0x51
 8510 23aa 01       		.uleb128 0x1
 8511 23ab 30       		.byte	0x30
 8512 23ac 31       		.uleb128 0x31
 8513 23ad 01       		.uleb128 0x1
 8514 23ae 50       		.byte	0x50
ARM GAS  /tmp/ccZlncvZ.s 			page 151


 8515 23af 02       		.uleb128 0x2
 8516 23b0 91       		.byte	0x91
 8517 23b1 54       		.sleb128 -44
 8518 23b2 00       		.byte	0
 8519 23b3 30       		.uleb128 0x30
 8520 23b4 F8000000 		.4byte	.LVL349
 8521 23b8 4C110000 		.4byte	0x114c
 8522 23bc F1230000 		.4byte	0x23f1
 8523 23c0 31       		.uleb128 0x31
 8524 23c1 01       		.uleb128 0x1
 8525 23c2 53       		.byte	0x53
 8526 23c3 02       		.uleb128 0x2
 8527 23c4 77       		.byte	0x77
 8528 23c5 00       		.sleb128 0
 8529 23c6 31       		.uleb128 0x31
 8530 23c7 01       		.uleb128 0x1
 8531 23c8 52       		.byte	0x52
 8532 23c9 02       		.uleb128 0x2
 8533 23ca 75       		.byte	0x75
 8534 23cb 00       		.sleb128 0
 8535 23cc 31       		.uleb128 0x31
 8536 23cd 01       		.uleb128 0x1
 8537 23ce 51       		.byte	0x51
 8538 23cf 02       		.uleb128 0x2
 8539 23d0 74       		.byte	0x74
 8540 23d1 00       		.sleb128 0
 8541 23d2 31       		.uleb128 0x31
 8542 23d3 01       		.uleb128 0x1
 8543 23d4 50       		.byte	0x50
 8544 23d5 02       		.uleb128 0x2
 8545 23d6 76       		.byte	0x76
 8546 23d7 00       		.sleb128 0
 8547 23d8 31       		.uleb128 0x31
 8548 23d9 02       		.uleb128 0x2
 8549 23da 7D       		.byte	0x7d
 8550 23db 08       		.sleb128 8
 8551 23dc 03       		.uleb128 0x3
 8552 23dd 91       		.byte	0x91
 8553 23de B87F     		.sleb128 -72
 8554 23e0 31       		.uleb128 0x31
 8555 23e1 02       		.uleb128 0x2
 8556 23e2 7D       		.byte	0x7d
 8557 23e3 04       		.sleb128 4
 8558 23e4 03       		.uleb128 0x3
 8559 23e5 91       		.byte	0x91
 8560 23e6 B47F     		.sleb128 -76
 8561 23e8 31       		.uleb128 0x31
 8562 23e9 02       		.uleb128 0x2
 8563 23ea 7D       		.byte	0x7d
 8564 23eb 00       		.sleb128 0
 8565 23ec 03       		.uleb128 0x3
 8566 23ed 91       		.byte	0x91
 8567 23ee B07F     		.sleb128 -80
 8568 23f0 00       		.byte	0
 8569 23f1 30       		.uleb128 0x30
 8570 23f2 32010000 		.4byte	.LVL354
 8571 23f6 D92B0000 		.4byte	0x2bd9
ARM GAS  /tmp/ccZlncvZ.s 			page 152


 8572 23fa 05240000 		.4byte	0x2405
 8573 23fe 31       		.uleb128 0x31
 8574 23ff 01       		.uleb128 0x1
 8575 2400 50       		.byte	0x50
 8576 2401 02       		.uleb128 0x2
 8577 2402 91       		.byte	0x91
 8578 2403 54       		.sleb128 -44
 8579 2404 00       		.byte	0
 8580 2405 30       		.uleb128 0x30
 8581 2406 C0010000 		.4byte	.LVL364
 8582 240a F32B0000 		.4byte	0x2bf3
 8583 240e 19240000 		.4byte	0x2419
 8584 2412 31       		.uleb128 0x31
 8585 2413 01       		.uleb128 0x1
 8586 2414 50       		.byte	0x50
 8587 2415 02       		.uleb128 0x2
 8588 2416 91       		.byte	0x91
 8589 2417 54       		.sleb128 -44
 8590 2418 00       		.byte	0
 8591 2419 30       		.uleb128 0x30
 8592 241a DE010000 		.4byte	.LVL365
 8593 241e 4C110000 		.4byte	0x114c
 8594 2422 57240000 		.4byte	0x2457
 8595 2426 31       		.uleb128 0x31
 8596 2427 01       		.uleb128 0x1
 8597 2428 53       		.byte	0x53
 8598 2429 02       		.uleb128 0x2
 8599 242a 77       		.byte	0x77
 8600 242b 00       		.sleb128 0
 8601 242c 31       		.uleb128 0x31
 8602 242d 01       		.uleb128 0x1
 8603 242e 52       		.byte	0x52
 8604 242f 02       		.uleb128 0x2
 8605 2430 75       		.byte	0x75
 8606 2431 00       		.sleb128 0
 8607 2432 31       		.uleb128 0x31
 8608 2433 01       		.uleb128 0x1
 8609 2434 51       		.byte	0x51
 8610 2435 02       		.uleb128 0x2
 8611 2436 74       		.byte	0x74
 8612 2437 00       		.sleb128 0
 8613 2438 31       		.uleb128 0x31
 8614 2439 01       		.uleb128 0x1
 8615 243a 50       		.byte	0x50
 8616 243b 02       		.uleb128 0x2
 8617 243c 76       		.byte	0x76
 8618 243d 00       		.sleb128 0
 8619 243e 31       		.uleb128 0x31
 8620 243f 02       		.uleb128 0x2
 8621 2440 7D       		.byte	0x7d
 8622 2441 08       		.sleb128 8
 8623 2442 03       		.uleb128 0x3
 8624 2443 91       		.byte	0x91
 8625 2444 B87F     		.sleb128 -72
 8626 2446 31       		.uleb128 0x31
 8627 2447 02       		.uleb128 0x2
 8628 2448 7D       		.byte	0x7d
ARM GAS  /tmp/ccZlncvZ.s 			page 153


 8629 2449 04       		.sleb128 4
 8630 244a 03       		.uleb128 0x3
 8631 244b 91       		.byte	0x91
 8632 244c B47F     		.sleb128 -76
 8633 244e 31       		.uleb128 0x31
 8634 244f 02       		.uleb128 0x2
 8635 2450 7D       		.byte	0x7d
 8636 2451 00       		.sleb128 0
 8637 2452 03       		.uleb128 0x3
 8638 2453 91       		.byte	0x91
 8639 2454 B07F     		.sleb128 -80
 8640 2456 00       		.byte	0
 8641 2457 32       		.uleb128 0x32
 8642 2458 5E020000 		.4byte	.LVL376
 8643 245c CC290000 		.4byte	0x29cc
 8644 2460 32       		.uleb128 0x32
 8645 2461 6A020000 		.4byte	.LVL377
 8646 2465 CC290000 		.4byte	0x29cc
 8647 2469 00       		.byte	0
 8648 246a 09       		.uleb128 0x9
 8649 246b 04       		.byte	0x4
 8650 246c 01060000 		.4byte	0x601
 8651 2470 3B       		.uleb128 0x3b
 8652 2471 2E040000 		.4byte	.LASF310
 8653 2475 01       		.byte	0x1
 8654 2476 5A05     		.2byte	0x55a
 8655 2478 25000000 		.4byte	0x25
 8656 247c 00000000 		.4byte	.LFB27
 8657 2480 70000000 		.4byte	.LFE27-.LFB27
 8658 2484 01       		.uleb128 0x1
 8659 2485 9C       		.byte	0x9c
 8660 2486 1B250000 		.4byte	0x251b
 8661 248a 2C       		.uleb128 0x2c
 8662 248b 7300     		.ascii	"s\000"
 8663 248d 01       		.byte	0x1
 8664 248e 5A05     		.2byte	0x55a
 8665 2490 25000000 		.4byte	0x25
 8666 2494 881B0000 		.4byte	.LLST142
 8667 2498 2C       		.uleb128 0x2c
 8668 2499 686F7700 		.ascii	"how\000"
 8669 249d 01       		.byte	0x1
 8670 249e 5A05     		.2byte	0x55a
 8671 24a0 25000000 		.4byte	0x25
 8672 24a4 A91B0000 		.4byte	.LLST143
 8673 24a8 28       		.uleb128 0x28
 8674 24a9 F2070000 		.4byte	.LASF240
 8675 24ad 01       		.byte	0x1
 8676 24ae 5C05     		.2byte	0x55c
 8677 24b0 BC100000 		.4byte	0x10bc
 8678 24b4 25       		.uleb128 0x25
 8679 24b5 65727200 		.ascii	"err\000"
 8680 24b9 01       		.byte	0x1
 8681 24ba 5D05     		.2byte	0x55d
 8682 24bc 29060000 		.4byte	0x629
 8683 24c0 F91B0000 		.4byte	.LLST144
 8684 24c4 26       		.uleb128 0x26
 8685 24c5 6C090000 		.4byte	.LASF311
ARM GAS  /tmp/ccZlncvZ.s 			page 154


 8686 24c9 01       		.byte	0x1
 8687 24ca 5E05     		.2byte	0x55e
 8688 24cc A6040000 		.4byte	0x4a6
 8689 24d0 0C1C0000 		.4byte	.LLST145
 8690 24d4 26       		.uleb128 0x26
 8691 24d5 2C0F0000 		.4byte	.LASF312
 8692 24d9 01       		.byte	0x1
 8693 24da 5E05     		.2byte	0x55e
 8694 24dc A6040000 		.4byte	0x4a6
 8695 24e0 371C0000 		.4byte	.LLST146
 8696 24e4 2E       		.uleb128 0x2e
 8697 24e5 E2100000 		.4byte	0x10e2
 8698 24e9 00000000 		.4byte	.LBB122
 8699 24ed F0010000 		.4byte	.Ldebug_ranges0+0x1f0
 8700 24f1 01       		.byte	0x1
 8701 24f2 6205     		.2byte	0x562
 8702 24f4 11250000 		.4byte	0x2511
 8703 24f8 2B       		.uleb128 0x2b
 8704 24f9 F2100000 		.4byte	0x10f2
 8705 24fd 881B0000 		.4byte	.LLST142
 8706 2501 29       		.uleb128 0x29
 8707 2502 F0010000 		.4byte	.Ldebug_ranges0+0x1f0
 8708 2506 2F       		.uleb128 0x2f
 8709 2507 FB100000 		.4byte	0x10fb
 8710 250b 621C0000 		.4byte	.LLST148
 8711 250f 00       		.byte	0
 8712 2510 00       		.byte	0
 8713 2511 32       		.uleb128 0x32
 8714 2512 44000000 		.4byte	.LVL389
 8715 2516 042C0000 		.4byte	0x2c04
 8716 251a 00       		.byte	0
 8717 251b 3B       		.uleb128 0x3b
 8718 251c B2050000 		.4byte	.LASF313
 8719 2520 01       		.byte	0x1
 8720 2521 A605     		.2byte	0x5a6
 8721 2523 25000000 		.4byte	0x25
 8722 2527 00000000 		.4byte	.LFB29
 8723 252b 06000000 		.4byte	.LFE29-.LFB29
 8724 252f 01       		.uleb128 0x1
 8725 2530 9C       		.byte	0x9c
 8726 2531 88250000 		.4byte	0x2588
 8727 2535 2C       		.uleb128 0x2c
 8728 2536 7300     		.ascii	"s\000"
 8729 2538 01       		.byte	0x1
 8730 2539 A605     		.2byte	0x5a6
 8731 253b 25000000 		.4byte	0x25
 8732 253f 801C0000 		.4byte	.LLST149
 8733 2543 24       		.uleb128 0x24
 8734 2544 700C0000 		.4byte	.LASF263
 8735 2548 01       		.byte	0x1
 8736 2549 A605     		.2byte	0x5a6
 8737 254b 77130000 		.4byte	0x1377
 8738 254f A11C0000 		.4byte	.LLST150
 8739 2553 24       		.uleb128 0x24
 8740 2554 16030000 		.4byte	.LASF264
 8741 2558 01       		.byte	0x1
 8742 2559 A605     		.2byte	0x5a6
ARM GAS  /tmp/ccZlncvZ.s 			page 155


 8743 255b C2100000 		.4byte	0x10c2
 8744 255f C21C0000 		.4byte	.LLST151
 8745 2563 3F       		.uleb128 0x3f
 8746 2564 06000000 		.4byte	.LVL396
 8747 2568 8E120000 		.4byte	0x128e
 8748 256c 31       		.uleb128 0x31
 8749 256d 01       		.uleb128 0x1
 8750 256e 53       		.byte	0x53
 8751 256f 01       		.uleb128 0x1
 8752 2570 30       		.byte	0x30
 8753 2571 31       		.uleb128 0x31
 8754 2572 01       		.uleb128 0x1
 8755 2573 52       		.byte	0x52
 8756 2574 03       		.uleb128 0x3
 8757 2575 F3       		.byte	0xf3
 8758 2576 01       		.uleb128 0x1
 8759 2577 52       		.byte	0x52
 8760 2578 31       		.uleb128 0x31
 8761 2579 01       		.uleb128 0x1
 8762 257a 51       		.byte	0x51
 8763 257b 03       		.uleb128 0x3
 8764 257c F3       		.byte	0xf3
 8765 257d 01       		.uleb128 0x1
 8766 257e 51       		.byte	0x51
 8767 257f 31       		.uleb128 0x31
 8768 2580 01       		.uleb128 0x1
 8769 2581 50       		.byte	0x50
 8770 2582 03       		.uleb128 0x3
 8771 2583 F3       		.byte	0xf3
 8772 2584 01       		.uleb128 0x1
 8773 2585 50       		.byte	0x50
 8774 2586 00       		.byte	0
 8775 2587 00       		.byte	0
 8776 2588 3B       		.uleb128 0x3b
 8777 2589 88090000 		.4byte	.LASF314
 8778 258d 01       		.byte	0x1
 8779 258e AC05     		.2byte	0x5ac
 8780 2590 25000000 		.4byte	0x25
 8781 2594 00000000 		.4byte	.LFB30
 8782 2598 06000000 		.4byte	.LFE30-.LFB30
 8783 259c 01       		.uleb128 0x1
 8784 259d 9C       		.byte	0x9c
 8785 259e F5250000 		.4byte	0x25f5
 8786 25a2 2C       		.uleb128 0x2c
 8787 25a3 7300     		.ascii	"s\000"
 8788 25a5 01       		.byte	0x1
 8789 25a6 AC05     		.2byte	0x5ac
 8790 25a8 25000000 		.4byte	0x25
 8791 25ac E31C0000 		.4byte	.LLST152
 8792 25b0 24       		.uleb128 0x24
 8793 25b1 700C0000 		.4byte	.LASF263
 8794 25b5 01       		.byte	0x1
 8795 25b6 AC05     		.2byte	0x5ac
 8796 25b8 77130000 		.4byte	0x1377
 8797 25bc 041D0000 		.4byte	.LLST153
 8798 25c0 24       		.uleb128 0x24
 8799 25c1 16030000 		.4byte	.LASF264
ARM GAS  /tmp/ccZlncvZ.s 			page 156


 8800 25c5 01       		.byte	0x1
 8801 25c6 AC05     		.2byte	0x5ac
 8802 25c8 C2100000 		.4byte	0x10c2
 8803 25cc 251D0000 		.4byte	.LLST154
 8804 25d0 3F       		.uleb128 0x3f
 8805 25d1 06000000 		.4byte	.LVL398
 8806 25d5 8E120000 		.4byte	0x128e
 8807 25d9 31       		.uleb128 0x31
 8808 25da 01       		.uleb128 0x1
 8809 25db 53       		.byte	0x53
 8810 25dc 01       		.uleb128 0x1
 8811 25dd 31       		.byte	0x31
 8812 25de 31       		.uleb128 0x31
 8813 25df 01       		.uleb128 0x1
 8814 25e0 52       		.byte	0x52
 8815 25e1 03       		.uleb128 0x3
 8816 25e2 F3       		.byte	0xf3
 8817 25e3 01       		.uleb128 0x1
 8818 25e4 52       		.byte	0x52
 8819 25e5 31       		.uleb128 0x31
 8820 25e6 01       		.uleb128 0x1
 8821 25e7 51       		.byte	0x51
 8822 25e8 03       		.uleb128 0x3
 8823 25e9 F3       		.byte	0xf3
 8824 25ea 01       		.uleb128 0x1
 8825 25eb 51       		.byte	0x51
 8826 25ec 31       		.uleb128 0x31
 8827 25ed 01       		.uleb128 0x1
 8828 25ee 50       		.byte	0x50
 8829 25ef 03       		.uleb128 0x3
 8830 25f0 F3       		.byte	0xf3
 8831 25f1 01       		.uleb128 0x1
 8832 25f2 50       		.byte	0x50
 8833 25f3 00       		.byte	0
 8834 25f4 00       		.byte	0
 8835 25f5 3B       		.uleb128 0x3b
 8836 25f6 FD040000 		.4byte	.LASF315
 8837 25fa 01       		.byte	0x1
 8838 25fb B205     		.2byte	0x5b2
 8839 25fd 25000000 		.4byte	0x25
 8840 2601 00000000 		.4byte	.LFB31
 8841 2605 1C010000 		.4byte	.LFE31-.LFB31
 8842 2609 01       		.uleb128 0x1
 8843 260a 9C       		.byte	0x9c
 8844 260b E8260000 		.4byte	0x26e8
 8845 260f 2C       		.uleb128 0x2c
 8846 2610 7300     		.ascii	"s\000"
 8847 2612 01       		.byte	0x1
 8848 2613 B205     		.2byte	0x5b2
 8849 2615 25000000 		.4byte	0x25
 8850 2619 461D0000 		.4byte	.LLST155
 8851 261d 24       		.uleb128 0x24
 8852 261e 660E0000 		.4byte	.LASF241
 8853 2622 01       		.byte	0x1
 8854 2623 B205     		.2byte	0x5b2
 8855 2625 25000000 		.4byte	0x25
 8856 2629 671D0000 		.4byte	.LLST156
ARM GAS  /tmp/ccZlncvZ.s 			page 157


 8857 262d 24       		.uleb128 0x24
 8858 262e 39090000 		.4byte	.LASF242
 8859 2632 01       		.byte	0x1
 8860 2633 B205     		.2byte	0x5b2
 8861 2635 25000000 		.4byte	0x25
 8862 2639 851D0000 		.4byte	.LLST157
 8863 263d 24       		.uleb128 0x24
 8864 263e B0080000 		.4byte	.LASF243
 8865 2642 01       		.byte	0x1
 8866 2643 B205     		.2byte	0x5b2
 8867 2645 C9020000 		.4byte	0x2c9
 8868 2649 E51D0000 		.4byte	.LLST158
 8869 264d 24       		.uleb128 0x24
 8870 264e 9A0A0000 		.4byte	.LASF244
 8871 2652 01       		.byte	0x1
 8872 2653 B205     		.2byte	0x5b2
 8873 2655 C2100000 		.4byte	0x10c2
 8874 2659 9C1E0000 		.4byte	.LLST159
 8875 265d 25       		.uleb128 0x25
 8876 265e 65727200 		.ascii	"err\000"
 8877 2662 01       		.byte	0x1
 8878 2663 B405     		.2byte	0x5b4
 8879 2665 29060000 		.4byte	0x629
 8880 2669 BC1E0000 		.4byte	.LLST160
 8881 266d 28       		.uleb128 0x28
 8882 266e F2070000 		.4byte	.LASF240
 8883 2672 01       		.byte	0x1
 8884 2673 B505     		.2byte	0x5b5
 8885 2675 BC100000 		.4byte	0x10bc
 8886 2679 27       		.uleb128 0x27
 8887 267a 550F0000 		.4byte	.LASF270
 8888 267e 01       		.byte	0x1
 8889 267f B605     		.2byte	0x5b6
 8890 2681 67100000 		.4byte	0x1067
 8891 2685 02       		.uleb128 0x2
 8892 2686 91       		.byte	0x91
 8893 2687 48       		.sleb128 -56
 8894 2688 2E       		.uleb128 0x2e
 8895 2689 E2100000 		.4byte	0x10e2
 8896 268d 06000000 		.4byte	.LBB126
 8897 2691 08020000 		.4byte	.Ldebug_ranges0+0x208
 8898 2695 01       		.byte	0x1
 8899 2696 B505     		.2byte	0x5b5
 8900 2698 B5260000 		.4byte	0x26b5
 8901 269c 2B       		.uleb128 0x2b
 8902 269d F2100000 		.4byte	0x10f2
 8903 26a1 461D0000 		.4byte	.LLST155
 8904 26a5 29       		.uleb128 0x29
 8905 26a6 08020000 		.4byte	.Ldebug_ranges0+0x208
 8906 26aa 2F       		.uleb128 0x2f
 8907 26ab FB100000 		.4byte	0x10fb
 8908 26af 221F0000 		.4byte	.LLST162
 8909 26b3 00       		.byte	0
 8910 26b4 00       		.byte	0
 8911 26b5 30       		.uleb128 0x30
 8912 26b6 96000000 		.4byte	.LVL412
 8913 26ba 232C0000 		.4byte	0x2c23
ARM GAS  /tmp/ccZlncvZ.s 			page 158


 8914 26be D7260000 		.4byte	0x26d7
 8915 26c2 31       		.uleb128 0x31
 8916 26c3 01       		.uleb128 0x1
 8917 26c4 52       		.byte	0x52
 8918 26c5 01       		.uleb128 0x1
 8919 26c6 31       		.byte	0x31
 8920 26c7 31       		.uleb128 0x31
 8921 26c8 01       		.uleb128 0x1
 8922 26c9 51       		.byte	0x51
 8923 26ca 02       		.uleb128 0x2
 8924 26cb 7D       		.byte	0x7d
 8925 26cc 00       		.sleb128 0
 8926 26cd 31       		.uleb128 0x31
 8927 26ce 01       		.uleb128 0x1
 8928 26cf 50       		.byte	0x50
 8929 26d0 05       		.uleb128 0x5
 8930 26d1 03       		.byte	0x3
 8931 26d2 00000000 		.4byte	lwip_getsockopt_internal
 8932 26d6 00       		.byte	0
 8933 26d7 33       		.uleb128 0x33
 8934 26d8 A2000000 		.4byte	.LVL413
 8935 26dc D92B0000 		.4byte	0x2bd9
 8936 26e0 31       		.uleb128 0x31
 8937 26e1 01       		.uleb128 0x1
 8938 26e2 51       		.byte	0x51
 8939 26e3 02       		.uleb128 0x2
 8940 26e4 78       		.byte	0x78
 8941 26e5 00       		.sleb128 0
 8942 26e6 00       		.byte	0
 8943 26e7 00       		.byte	0
 8944 26e8 3B       		.uleb128 0x3b
 8945 26e9 8B0D0000 		.4byte	.LASF316
 8946 26ed 01       		.byte	0x1
 8947 26ee 4A07     		.2byte	0x74a
 8948 26f0 25000000 		.4byte	0x25
 8949 26f4 00000000 		.4byte	.LFB33
 8950 26f8 00010000 		.4byte	.LFE33-.LFB33
 8951 26fc 01       		.uleb128 0x1
 8952 26fd 9C       		.byte	0x9c
 8953 26fe DB270000 		.4byte	0x27db
 8954 2702 2C       		.uleb128 0x2c
 8955 2703 7300     		.ascii	"s\000"
 8956 2705 01       		.byte	0x1
 8957 2706 4A07     		.2byte	0x74a
 8958 2708 25000000 		.4byte	0x25
 8959 270c 401F0000 		.4byte	.LLST163
 8960 2710 24       		.uleb128 0x24
 8961 2711 660E0000 		.4byte	.LASF241
 8962 2715 01       		.byte	0x1
 8963 2716 4A07     		.2byte	0x74a
 8964 2718 25000000 		.4byte	0x25
 8965 271c 611F0000 		.4byte	.LLST164
 8966 2720 24       		.uleb128 0x24
 8967 2721 39090000 		.4byte	.LASF242
 8968 2725 01       		.byte	0x1
 8969 2726 4A07     		.2byte	0x74a
 8970 2728 25000000 		.4byte	0x25
ARM GAS  /tmp/ccZlncvZ.s 			page 159


 8971 272c 7F1F0000 		.4byte	.LLST165
 8972 2730 24       		.uleb128 0x24
 8973 2731 B0080000 		.4byte	.LASF243
 8974 2735 01       		.byte	0x1
 8975 2736 4A07     		.2byte	0x74a
 8976 2738 FA0E0000 		.4byte	0xefa
 8977 273c D41F0000 		.4byte	.LLST166
 8978 2740 24       		.uleb128 0x24
 8979 2741 9A0A0000 		.4byte	.LASF244
 8980 2745 01       		.byte	0x1
 8981 2746 4A07     		.2byte	0x74a
 8982 2748 BF050000 		.4byte	0x5bf
 8983 274c 97200000 		.4byte	.LLST167
 8984 2750 28       		.uleb128 0x28
 8985 2751 F2070000 		.4byte	.LASF240
 8986 2755 01       		.byte	0x1
 8987 2756 4C07     		.2byte	0x74c
 8988 2758 BC100000 		.4byte	0x10bc
 8989 275c 25       		.uleb128 0x25
 8990 275d 65727200 		.ascii	"err\000"
 8991 2761 01       		.byte	0x1
 8992 2762 4D07     		.2byte	0x74d
 8993 2764 29060000 		.4byte	0x629
 8994 2768 CF200000 		.4byte	.LLST168
 8995 276c 27       		.uleb128 0x27
 8996 276d 550F0000 		.4byte	.LASF270
 8997 2771 01       		.byte	0x1
 8998 2772 4E07     		.2byte	0x74e
 8999 2774 67100000 		.4byte	0x1067
 9000 2778 02       		.uleb128 0x2
 9001 2779 91       		.byte	0x91
 9002 277a 48       		.sleb128 -56
 9003 277b 2E       		.uleb128 0x2e
 9004 277c E2100000 		.4byte	0x10e2
 9005 2780 04000000 		.4byte	.LBB130
 9006 2784 20020000 		.4byte	.Ldebug_ranges0+0x220
 9007 2788 01       		.byte	0x1
 9008 2789 4C07     		.2byte	0x74c
 9009 278b A8270000 		.4byte	0x27a8
 9010 278f 2B       		.uleb128 0x2b
 9011 2790 F2100000 		.4byte	0x10f2
 9012 2794 401F0000 		.4byte	.LLST163
 9013 2798 29       		.uleb128 0x29
 9014 2799 20020000 		.4byte	.Ldebug_ranges0+0x220
 9015 279d 2F       		.uleb128 0x2f
 9016 279e FB100000 		.4byte	0x10fb
 9017 27a2 1E210000 		.4byte	.LLST170
 9018 27a6 00       		.byte	0
 9019 27a7 00       		.byte	0
 9020 27a8 30       		.uleb128 0x30
 9021 27a9 8A000000 		.4byte	.LVL437
 9022 27ad 232C0000 		.4byte	0x2c23
 9023 27b1 CA270000 		.4byte	0x27ca
 9024 27b5 31       		.uleb128 0x31
 9025 27b6 01       		.uleb128 0x1
 9026 27b7 52       		.byte	0x52
 9027 27b8 01       		.uleb128 0x1
ARM GAS  /tmp/ccZlncvZ.s 			page 160


 9028 27b9 31       		.byte	0x31
 9029 27ba 31       		.uleb128 0x31
 9030 27bb 01       		.uleb128 0x1
 9031 27bc 51       		.byte	0x51
 9032 27bd 02       		.uleb128 0x2
 9033 27be 7D       		.byte	0x7d
 9034 27bf 00       		.sleb128 0
 9035 27c0 31       		.uleb128 0x31
 9036 27c1 01       		.uleb128 0x1
 9037 27c2 50       		.byte	0x50
 9038 27c3 05       		.uleb128 0x5
 9039 27c4 03       		.byte	0x3
 9040 27c5 00000000 		.4byte	lwip_setsockopt_internal
 9041 27c9 00       		.byte	0
 9042 27ca 33       		.uleb128 0x33
 9043 27cb 96000000 		.4byte	.LVL438
 9044 27cf D92B0000 		.4byte	0x2bd9
 9045 27d3 31       		.uleb128 0x31
 9046 27d4 01       		.uleb128 0x1
 9047 27d5 51       		.byte	0x51
 9048 27d6 02       		.uleb128 0x2
 9049 27d7 77       		.byte	0x77
 9050 27d8 00       		.sleb128 0
 9051 27d9 00       		.byte	0
 9052 27da 00       		.byte	0
 9053 27db 3B       		.uleb128 0x3b
 9054 27dc 6E030000 		.4byte	.LASF317
 9055 27e0 01       		.byte	0x1
 9056 27e1 EC08     		.2byte	0x8ec
 9057 27e3 25000000 		.4byte	0x25
 9058 27e7 00000000 		.4byte	.LFB35
 9059 27eb 5C000000 		.4byte	.LFE35-.LFB35
 9060 27ef 01       		.uleb128 0x1
 9061 27f0 9C       		.byte	0x9c
 9062 27f1 67280000 		.4byte	0x2867
 9063 27f5 2C       		.uleb128 0x2c
 9064 27f6 7300     		.ascii	"s\000"
 9065 27f8 01       		.byte	0x1
 9066 27f9 EC08     		.2byte	0x8ec
 9067 27fb 25000000 		.4byte	0x25
 9068 27ff 3C210000 		.4byte	.LLST171
 9069 2803 41       		.uleb128 0x41
 9070 2804 636D6400 		.ascii	"cmd\000"
 9071 2808 01       		.byte	0x1
 9072 2809 EC08     		.2byte	0x8ec
 9073 280b 91000000 		.4byte	0x91
 9074 280f 01       		.uleb128 0x1
 9075 2810 51       		.byte	0x51
 9076 2811 24       		.uleb128 0x24
 9077 2812 7D060000 		.4byte	.LASF318
 9078 2816 01       		.byte	0x1
 9079 2817 EC08     		.2byte	0x8ec
 9080 2819 C9020000 		.4byte	0x2c9
 9081 281d 5D210000 		.4byte	.LLST172
 9082 2821 28       		.uleb128 0x28
 9083 2822 F2070000 		.4byte	.LASF240
 9084 2826 01       		.byte	0x1
ARM GAS  /tmp/ccZlncvZ.s 			page 161


 9085 2827 EE08     		.2byte	0x8ee
 9086 2829 BC100000 		.4byte	0x10bc
 9087 282d 25       		.uleb128 0x25
 9088 282e 76616C00 		.ascii	"val\000"
 9089 2832 01       		.byte	0x1
 9090 2833 EF08     		.2byte	0x8ef
 9091 2835 A6040000 		.4byte	0x4a6
 9092 2839 A2210000 		.4byte	.LLST173
 9093 283d 2A       		.uleb128 0x2a
 9094 283e E2100000 		.4byte	0x10e2
 9095 2842 00000000 		.4byte	.LBB134
 9096 2846 38020000 		.4byte	.Ldebug_ranges0+0x238
 9097 284a 01       		.byte	0x1
 9098 284b EE08     		.2byte	0x8ee
 9099 284d 2B       		.uleb128 0x2b
 9100 284e F2100000 		.4byte	0x10f2
 9101 2852 3C210000 		.4byte	.LLST171
 9102 2856 29       		.uleb128 0x29
 9103 2857 38020000 		.4byte	.Ldebug_ranges0+0x238
 9104 285b 2F       		.uleb128 0x2f
 9105 285c FB100000 		.4byte	0x10fb
 9106 2860 CE210000 		.4byte	.LLST175
 9107 2864 00       		.byte	0
 9108 2865 00       		.byte	0
 9109 2866 00       		.byte	0
 9110 2867 3B       		.uleb128 0x3b
 9111 2868 FC0B0000 		.4byte	.LASF319
 9112 286c 01       		.byte	0x1
 9113 286d 2E09     		.2byte	0x92e
 9114 286f 25000000 		.4byte	0x25
 9115 2873 00000000 		.4byte	.LFB36
 9116 2877 48000000 		.4byte	.LFE36-.LFB36
 9117 287b 01       		.uleb128 0x1
 9118 287c 9C       		.byte	0x9c
 9119 287d F7280000 		.4byte	0x28f7
 9120 2881 2C       		.uleb128 0x2c
 9121 2882 7300     		.ascii	"s\000"
 9122 2884 01       		.byte	0x1
 9123 2885 2E09     		.2byte	0x92e
 9124 2887 25000000 		.4byte	0x25
 9125 288b 04220000 		.4byte	.LLST176
 9126 288f 41       		.uleb128 0x41
 9127 2890 636D6400 		.ascii	"cmd\000"
 9128 2894 01       		.byte	0x1
 9129 2895 2E09     		.2byte	0x92e
 9130 2897 25000000 		.4byte	0x25
 9131 289b 01       		.uleb128 0x1
 9132 289c 51       		.byte	0x51
 9133 289d 2C       		.uleb128 0x2c
 9134 289e 76616C00 		.ascii	"val\000"
 9135 28a2 01       		.byte	0x1
 9136 28a3 2E09     		.2byte	0x92e
 9137 28a5 25000000 		.4byte	0x25
 9138 28a9 25220000 		.4byte	.LLST177
 9139 28ad 28       		.uleb128 0x28
 9140 28ae F2070000 		.4byte	.LASF240
 9141 28b2 01       		.byte	0x1
ARM GAS  /tmp/ccZlncvZ.s 			page 162


 9142 28b3 3009     		.2byte	0x930
 9143 28b5 BC100000 		.4byte	0x10bc
 9144 28b9 25       		.uleb128 0x25
 9145 28ba 72657400 		.ascii	"ret\000"
 9146 28be 01       		.byte	0x1
 9147 28bf 3109     		.2byte	0x931
 9148 28c1 25000000 		.4byte	0x25
 9149 28c5 5F220000 		.4byte	.LLST178
 9150 28c9 42       		.uleb128 0x42
 9151 28ca E2100000 		.4byte	0x10e2
 9152 28ce 00000000 		.4byte	.LBB138
 9153 28d2 16000000 		.4byte	.LBE138-.LBB138
 9154 28d6 01       		.byte	0x1
 9155 28d7 3009     		.2byte	0x930
 9156 28d9 2B       		.uleb128 0x2b
 9157 28da F2100000 		.4byte	0x10f2
 9158 28de 04220000 		.4byte	.LLST176
 9159 28e2 37       		.uleb128 0x37
 9160 28e3 00000000 		.4byte	.LBB139
 9161 28e7 16000000 		.4byte	.LBE139-.LBB139
 9162 28eb 2F       		.uleb128 0x2f
 9163 28ec FB100000 		.4byte	0x10fb
 9164 28f0 99220000 		.4byte	.LLST180
 9165 28f4 00       		.byte	0
 9166 28f5 00       		.byte	0
 9167 28f6 00       		.byte	0
 9168 28f7 13       		.uleb128 0x13
 9169 28f8 8D0F0000 		.4byte	0xf8d
 9170 28fc 07290000 		.4byte	0x2907
 9171 2900 14       		.uleb128 0x14
 9172 2901 68030000 		.4byte	0x368
 9173 2905 03       		.byte	0x3
 9174 2906 00       		.byte	0
 9175 2907 43       		.uleb128 0x43
 9176 2908 5D050000 		.4byte	.LASF320
 9177 290c 01       		.byte	0x1
 9178 290d 7E       		.byte	0x7e
 9179 290e F7280000 		.4byte	0x28f7
 9180 2912 05       		.uleb128 0x5
 9181 2913 03       		.byte	0x3
 9182 2914 00000000 		.4byte	sockets
 9183 2918 43       		.uleb128 0x43
 9184 2919 CD080000 		.4byte	.LASF321
 9185 291d 01       		.byte	0x1
 9186 291e 80       		.byte	0x80
 9187 291f 5B100000 		.4byte	0x105b
 9188 2923 05       		.uleb128 0x5
 9189 2924 03       		.byte	0x3
 9190 2925 00000000 		.4byte	select_cb_list
 9191 2929 43       		.uleb128 0x43
 9192 292a 550B0000 		.4byte	.LASF322
 9193 292e 01       		.byte	0x1
 9194 292f 83       		.byte	0x83
 9195 2930 3A290000 		.4byte	0x293a
 9196 2934 05       		.uleb128 0x5
 9197 2935 03       		.byte	0x3
 9198 2936 00000000 		.4byte	select_cb_ctr
ARM GAS  /tmp/ccZlncvZ.s 			page 163


 9199 293a 0F       		.uleb128 0xf
 9200 293b 25000000 		.4byte	0x25
 9201 293f 13       		.uleb128 0x13
 9202 2940 25000000 		.4byte	0x25
 9203 2944 4F290000 		.4byte	0x294f
 9204 2948 14       		.uleb128 0x14
 9205 2949 68030000 		.4byte	0x368
 9206 294d 0F       		.byte	0xf
 9207 294e 00       		.byte	0
 9208 294f 43       		.uleb128 0x43
 9209 2950 B8000000 		.4byte	.LASF323
 9210 2954 01       		.byte	0x1
 9211 2955 87       		.byte	0x87
 9212 2956 60290000 		.4byte	0x2960
 9213 295a 05       		.uleb128 0x5
 9214 295b 03       		.byte	0x3
 9215 295c 00000000 		.4byte	err_to_errno_table
 9216 2960 12       		.uleb128 0x12
 9217 2961 3F290000 		.4byte	0x293f
 9218 2965 44       		.uleb128 0x44
 9219 2966 7B0A0000 		.4byte	.LASF324
 9220 296a 14       		.byte	0x14
 9221 296b DD       		.byte	0xdd
 9222 296c 29060000 		.4byte	0x629
 9223 2970 89290000 		.4byte	0x2989
 9224 2974 0E       		.uleb128 0xe
 9225 2975 A6070000 		.4byte	0x7a6
 9226 2979 0E       		.uleb128 0xe
 9227 297a D10C0000 		.4byte	0xcd1
 9228 297e 0E       		.uleb128 0xe
 9229 297f C70E0000 		.4byte	0xec7
 9230 2983 0E       		.uleb128 0xe
 9231 2984 A6040000 		.4byte	0x4a6
 9232 2988 00       		.byte	0
 9233 2989 44       		.uleb128 0x44
 9234 298a DC010000 		.4byte	.LASF325
 9235 298e 1B       		.byte	0x1b
 9236 298f 63       		.byte	0x63
 9237 2990 BC040000 		.4byte	0x4bc
 9238 2994 9E290000 		.4byte	0x299e
 9239 2998 0E       		.uleb128 0xe
 9240 2999 BC040000 		.4byte	0x4bc
 9241 299d 00       		.byte	0
 9242 299e 45       		.uleb128 0x45
 9243 299f F10D0000 		.4byte	.LASF326
 9244 29a3 C9020000 		.4byte	0x2c9
 9245 29a7 BB290000 		.4byte	0x29bb
 9246 29ab 0E       		.uleb128 0xe
 9247 29ac C9020000 		.4byte	0x2c9
 9248 29b0 0E       		.uleb128 0xe
 9249 29b1 FA0E0000 		.4byte	0xefa
 9250 29b5 0E       		.uleb128 0xe
 9251 29b6 68030000 		.4byte	0x368
 9252 29ba 00       		.byte	0
 9253 29bb 46       		.uleb128 0x46
 9254 29bc 96060000 		.4byte	.LASF327
 9255 29c0 1C       		.byte	0x1c
ARM GAS  /tmp/ccZlncvZ.s 			page 164


 9256 29c1 91       		.byte	0x91
 9257 29c2 CC290000 		.4byte	0x29cc
 9258 29c6 0E       		.uleb128 0xe
 9259 29c7 870F0000 		.4byte	0xf87
 9260 29cb 00       		.byte	0
 9261 29cc 47       		.uleb128 0x47
 9262 29cd AA030000 		.4byte	.LASF359
 9263 29d1 08       		.byte	0x8
 9264 29d2 0102     		.2byte	0x201
 9265 29d4 46       		.uleb128 0x46
 9266 29d5 96010000 		.4byte	.LASF328
 9267 29d9 1C       		.byte	0x1c
 9268 29da 8E       		.byte	0x8e
 9269 29db E5290000 		.4byte	0x29e5
 9270 29df 0E       		.uleb128 0xe
 9271 29e0 870F0000 		.4byte	0xf87
 9272 29e4 00       		.byte	0
 9273 29e5 44       		.uleb128 0x44
 9274 29e6 D5000000 		.4byte	.LASF329
 9275 29ea 14       		.byte	0x14
 9276 29eb E7       		.byte	0xe7
 9277 29ec 29060000 		.4byte	0x629
 9278 29f0 FF290000 		.4byte	0x29ff
 9279 29f4 0E       		.uleb128 0xe
 9280 29f5 A6070000 		.4byte	0x7a6
 9281 29f9 0E       		.uleb128 0xe
 9282 29fa FF290000 		.4byte	0x29ff
 9283 29fe 00       		.byte	0
 9284 29ff 09       		.uleb128 0x9
 9285 2a00 04       		.byte	0x4
 9286 2a01 A6070000 		.4byte	0x7a6
 9287 2a05 44       		.uleb128 0x44
 9288 2a06 0F040000 		.4byte	.LASF330
 9289 2a0a 14       		.byte	0x14
 9290 2a0b D9       		.byte	0xd9
 9291 2a0c 29060000 		.4byte	0x629
 9292 2a10 1A2A0000 		.4byte	0x2a1a
 9293 2a14 0E       		.uleb128 0xe
 9294 2a15 A6070000 		.4byte	0x7a6
 9295 2a19 00       		.byte	0
 9296 2a1a 44       		.uleb128 0x44
 9297 2a1b 4C000000 		.4byte	.LASF331
 9298 2a1f 1B       		.byte	0x1b
 9299 2a20 64       		.byte	0x64
 9300 2a21 BC040000 		.4byte	0x4bc
 9301 2a25 2F2A0000 		.4byte	0x2a2f
 9302 2a29 0E       		.uleb128 0xe
 9303 2a2a BC040000 		.4byte	0x4bc
 9304 2a2e 00       		.byte	0
 9305 2a2f 44       		.uleb128 0x44
 9306 2a30 7C020000 		.4byte	.LASF332
 9307 2a34 14       		.byte	0x14
 9308 2a35 E2       		.byte	0xe2
 9309 2a36 29060000 		.4byte	0x629
 9310 2a3a 4E2A0000 		.4byte	0x2a4e
 9311 2a3e 0E       		.uleb128 0xe
 9312 2a3f A6070000 		.4byte	0x7a6
ARM GAS  /tmp/ccZlncvZ.s 			page 165


 9313 2a43 0E       		.uleb128 0xe
 9314 2a44 D10C0000 		.4byte	0xcd1
 9315 2a48 0E       		.uleb128 0xe
 9316 2a49 BC040000 		.4byte	0x4bc
 9317 2a4d 00       		.byte	0
 9318 2a4e 46       		.uleb128 0x46
 9319 2a4f 43030000 		.4byte	.LASF333
 9320 2a53 12       		.byte	0x12
 9321 2a54 41       		.byte	0x41
 9322 2a55 5F2A0000 		.4byte	0x2a5f
 9323 2a59 0E       		.uleb128 0xe
 9324 2a5a 760F0000 		.4byte	0xf76
 9325 2a5e 00       		.byte	0
 9326 2a5f 44       		.uleb128 0x44
 9327 2a60 7E0B0000 		.4byte	.LASF334
 9328 2a64 11       		.byte	0x11
 9329 2a65 9B       		.byte	0x9b
 9330 2a66 A6040000 		.4byte	0x4a6
 9331 2a6a 742A0000 		.4byte	0x2a74
 9332 2a6e 0E       		.uleb128 0xe
 9333 2a6f 95060000 		.4byte	0x695
 9334 2a73 00       		.byte	0
 9335 2a74 44       		.uleb128 0x44
 9336 2a75 3B0B0000 		.4byte	.LASF335
 9337 2a79 14       		.byte	0x14
 9338 2a7a E3       		.byte	0xe3
 9339 2a7b 29060000 		.4byte	0x629
 9340 2a7f 932A0000 		.4byte	0x2a93
 9341 2a83 0E       		.uleb128 0xe
 9342 2a84 A6070000 		.4byte	0x7a6
 9343 2a88 0E       		.uleb128 0xe
 9344 2a89 D10C0000 		.4byte	0xcd1
 9345 2a8d 0E       		.uleb128 0xe
 9346 2a8e BC040000 		.4byte	0x4bc
 9347 2a92 00       		.byte	0
 9348 2a93 44       		.uleb128 0x44
 9349 2a94 590A0000 		.4byte	.LASF336
 9350 2a98 14       		.byte	0x14
 9351 2a99 E5       		.byte	0xe5
 9352 2a9a 29060000 		.4byte	0x629
 9353 2a9e AD2A0000 		.4byte	0x2aad
 9354 2aa2 0E       		.uleb128 0xe
 9355 2aa3 A6070000 		.4byte	0x7a6
 9356 2aa7 0E       		.uleb128 0xe
 9357 2aa8 A6040000 		.4byte	0x4a6
 9358 2aac 00       		.byte	0
 9359 2aad 44       		.uleb128 0x44
 9360 2aae 04060000 		.4byte	.LASF337
 9361 2ab2 11       		.byte	0x11
 9362 2ab3 A1       		.byte	0xa1
 9363 2ab4 BC040000 		.4byte	0x4bc
 9364 2ab8 D12A0000 		.4byte	0x2ad1
 9365 2abc 0E       		.uleb128 0xe
 9366 2abd 95060000 		.4byte	0x695
 9367 2ac1 0E       		.uleb128 0xe
 9368 2ac2 C9020000 		.4byte	0x2c9
 9369 2ac6 0E       		.uleb128 0xe
ARM GAS  /tmp/ccZlncvZ.s 			page 166


 9370 2ac7 BC040000 		.4byte	0x4bc
 9371 2acb 0E       		.uleb128 0xe
 9372 2acc BC040000 		.4byte	0x4bc
 9373 2ad0 00       		.byte	0
 9374 2ad1 46       		.uleb128 0x46
 9375 2ad2 850E0000 		.4byte	.LASF338
 9376 2ad6 14       		.byte	0x14
 9377 2ad7 EA       		.byte	0xea
 9378 2ad8 E72A0000 		.4byte	0x2ae7
 9379 2adc 0E       		.uleb128 0xe
 9380 2add A6070000 		.4byte	0x7a6
 9381 2ae1 0E       		.uleb128 0xe
 9382 2ae2 D2040000 		.4byte	0x4d2
 9383 2ae6 00       		.byte	0
 9384 2ae7 44       		.uleb128 0x44
 9385 2ae8 2B0D0000 		.4byte	.LASF339
 9386 2aec 14       		.byte	0x14
 9387 2aed E8       		.byte	0xe8
 9388 2aee 29060000 		.4byte	0x629
 9389 2af2 012B0000 		.4byte	0x2b01
 9390 2af6 0E       		.uleb128 0xe
 9391 2af7 A6070000 		.4byte	0x7a6
 9392 2afb 0E       		.uleb128 0xe
 9393 2afc 012B0000 		.4byte	0x2b01
 9394 2b00 00       		.byte	0
 9395 2b01 09       		.uleb128 0x9
 9396 2b02 04       		.byte	0x4
 9397 2b03 760F0000 		.4byte	0xf76
 9398 2b07 44       		.uleb128 0x44
 9399 2b08 BD0E0000 		.4byte	.LASF340
 9400 2b0c 14       		.byte	0x14
 9401 2b0d E9       		.byte	0xe9
 9402 2b0e 29060000 		.4byte	0x629
 9403 2b12 212B0000 		.4byte	0x2b21
 9404 2b16 0E       		.uleb128 0xe
 9405 2b17 A6070000 		.4byte	0x7a6
 9406 2b1b 0E       		.uleb128 0xe
 9407 2b1c 212B0000 		.4byte	0x2b21
 9408 2b20 00       		.byte	0
 9409 2b21 09       		.uleb128 0x9
 9410 2b22 04       		.byte	0x4
 9411 2b23 95060000 		.4byte	0x695
 9412 2b27 44       		.uleb128 0x44
 9413 2b28 D30E0000 		.4byte	.LASF341
 9414 2b2c 12       		.byte	0x12
 9415 2b2d 44       		.byte	0x44
 9416 2b2e 29060000 		.4byte	0x629
 9417 2b32 462B0000 		.4byte	0x2b46
 9418 2b36 0E       		.uleb128 0xe
 9419 2b37 760F0000 		.4byte	0xf76
 9420 2b3b 0E       		.uleb128 0xe
 9421 2b3c FA0E0000 		.4byte	0xefa
 9422 2b40 0E       		.uleb128 0xe
 9423 2b41 BC040000 		.4byte	0x4bc
 9424 2b45 00       		.byte	0
 9425 2b46 46       		.uleb128 0x46
 9426 2b47 790E0000 		.4byte	.LASF342
ARM GAS  /tmp/ccZlncvZ.s 			page 167


 9427 2b4b 12       		.byte	0x12
 9428 2b4c 43       		.byte	0x43
 9429 2b4d 572B0000 		.4byte	0x2b57
 9430 2b51 0E       		.uleb128 0xe
 9431 2b52 760F0000 		.4byte	0xf76
 9432 2b56 00       		.byte	0
 9433 2b57 44       		.uleb128 0x44
 9434 2b58 4C0A0000 		.4byte	.LASF343
 9435 2b5c 14       		.byte	0x14
 9436 2b5d ED       		.byte	0xed
 9437 2b5e 29060000 		.4byte	0x629
 9438 2b62 712B0000 		.4byte	0x2b71
 9439 2b66 0E       		.uleb128 0xe
 9440 2b67 A6070000 		.4byte	0x7a6
 9441 2b6b 0E       		.uleb128 0xe
 9442 2b6c 760F0000 		.4byte	0xf76
 9443 2b70 00       		.byte	0
 9444 2b71 44       		.uleb128 0x44
 9445 2b72 AF060000 		.4byte	.LASF344
 9446 2b76 14       		.byte	0x14
 9447 2b77 EE       		.byte	0xee
 9448 2b78 29060000 		.4byte	0x629
 9449 2b7c 9A2B0000 		.4byte	0x2b9a
 9450 2b80 0E       		.uleb128 0xe
 9451 2b81 A6070000 		.4byte	0x7a6
 9452 2b85 0E       		.uleb128 0xe
 9453 2b86 FA0E0000 		.4byte	0xefa
 9454 2b8a 0E       		.uleb128 0xe
 9455 2b8b 2C000000 		.4byte	0x2c
 9456 2b8f 0E       		.uleb128 0xe
 9457 2b90 A6040000 		.4byte	0x4a6
 9458 2b94 0E       		.uleb128 0xe
 9459 2b95 9A2B0000 		.4byte	0x2b9a
 9460 2b99 00       		.byte	0
 9461 2b9a 09       		.uleb128 0x9
 9462 2b9b 04       		.byte	0x4
 9463 2b9c 2C000000 		.4byte	0x2c
 9464 2ba0 44       		.uleb128 0x44
 9465 2ba1 95020000 		.4byte	.LASF345
 9466 2ba5 14       		.byte	0x14
 9467 2ba6 D7       		.byte	0xd7
 9468 2ba7 A6070000 		.4byte	0x7a6
 9469 2bab BF2B0000 		.4byte	0x2bbf
 9470 2baf 0E       		.uleb128 0xe
 9471 2bb0 F8060000 		.4byte	0x6f8
 9472 2bb4 0E       		.uleb128 0xe
 9473 2bb5 A6040000 		.4byte	0x4a6
 9474 2bb9 0E       		.uleb128 0xe
 9475 2bba 80070000 		.4byte	0x780
 9476 2bbe 00       		.byte	0
 9477 2bbf 44       		.uleb128 0x44
 9478 2bc0 880C0000 		.4byte	.LASF346
 9479 2bc4 1C       		.byte	0x1c
 9480 2bc5 8B       		.byte	0x8b
 9481 2bc6 29060000 		.4byte	0x629
 9482 2bca D92B0000 		.4byte	0x2bd9
 9483 2bce 0E       		.uleb128 0xe
ARM GAS  /tmp/ccZlncvZ.s 			page 168


 9484 2bcf 870F0000 		.4byte	0xf87
 9485 2bd3 0E       		.uleb128 0xe
 9486 2bd4 A6040000 		.4byte	0x4a6
 9487 2bd8 00       		.byte	0
 9488 2bd9 44       		.uleb128 0x44
 9489 2bda 880B0000 		.4byte	.LASF347
 9490 2bde 1C       		.byte	0x1c
 9491 2bdf 97       		.byte	0x97
 9492 2be0 D2040000 		.4byte	0x4d2
 9493 2be4 F32B0000 		.4byte	0x2bf3
 9494 2be8 0E       		.uleb128 0xe
 9495 2be9 870F0000 		.4byte	0xf87
 9496 2bed 0E       		.uleb128 0xe
 9497 2bee D2040000 		.4byte	0x4d2
 9498 2bf2 00       		.byte	0
 9499 2bf3 46       		.uleb128 0x46
 9500 2bf4 6B060000 		.4byte	.LASF348
 9501 2bf8 1C       		.byte	0x1c
 9502 2bf9 9A       		.byte	0x9a
 9503 2bfa 042C0000 		.4byte	0x2c04
 9504 2bfe 0E       		.uleb128 0xe
 9505 2bff 870F0000 		.4byte	0xf87
 9506 2c03 00       		.byte	0
 9507 2c04 44       		.uleb128 0x44
 9508 2c05 4B0D0000 		.4byte	.LASF349
 9509 2c09 14       		.byte	0x14
 9510 2c0a F3       		.byte	0xf3
 9511 2c0b 29060000 		.4byte	0x629
 9512 2c0f 232C0000 		.4byte	0x2c23
 9513 2c13 0E       		.uleb128 0xe
 9514 2c14 A6070000 		.4byte	0x7a6
 9515 2c18 0E       		.uleb128 0xe
 9516 2c19 A6040000 		.4byte	0x4a6
 9517 2c1d 0E       		.uleb128 0xe
 9518 2c1e A6040000 		.4byte	0x4a6
 9519 2c22 00       		.byte	0
 9520 2c23 48       		.uleb128 0x48
 9521 2c24 230E0000 		.4byte	.LASF350
 9522 2c28 1A       		.byte	0x1a
 9523 2c29 65       		.byte	0x65
 9524 2c2a 29060000 		.4byte	0x629
 9525 2c2e 0E       		.uleb128 0xe
 9526 2c2f 7C0F0000 		.4byte	0xf7c
 9527 2c33 0E       		.uleb128 0xe
 9528 2c34 C9020000 		.4byte	0x2c9
 9529 2c38 0E       		.uleb128 0xe
 9530 2c39 A6040000 		.4byte	0x4a6
 9531 2c3d 00       		.byte	0
 9532 2c3e 00       		.byte	0
 9533              		.section	.debug_abbrev,"",%progbits
 9534              	.Ldebug_abbrev0:
 9535 0000 01       		.uleb128 0x1
 9536 0001 11       		.uleb128 0x11
 9537 0002 01       		.byte	0x1
 9538 0003 25       		.uleb128 0x25
 9539 0004 0E       		.uleb128 0xe
 9540 0005 13       		.uleb128 0x13
ARM GAS  /tmp/ccZlncvZ.s 			page 169


 9541 0006 0B       		.uleb128 0xb
 9542 0007 03       		.uleb128 0x3
 9543 0008 0E       		.uleb128 0xe
 9544 0009 1B       		.uleb128 0x1b
 9545 000a 0E       		.uleb128 0xe
 9546 000b 55       		.uleb128 0x55
 9547 000c 17       		.uleb128 0x17
 9548 000d 11       		.uleb128 0x11
 9549 000e 01       		.uleb128 0x1
 9550 000f 10       		.uleb128 0x10
 9551 0010 17       		.uleb128 0x17
 9552 0011 00       		.byte	0
 9553 0012 00       		.byte	0
 9554 0013 02       		.uleb128 0x2
 9555 0014 24       		.uleb128 0x24
 9556 0015 00       		.byte	0
 9557 0016 0B       		.uleb128 0xb
 9558 0017 0B       		.uleb128 0xb
 9559 0018 3E       		.uleb128 0x3e
 9560 0019 0B       		.uleb128 0xb
 9561 001a 03       		.uleb128 0x3
 9562 001b 08       		.uleb128 0x8
 9563 001c 00       		.byte	0
 9564 001d 00       		.byte	0
 9565 001e 03       		.uleb128 0x3
 9566 001f 16       		.uleb128 0x16
 9567 0020 00       		.byte	0
 9568 0021 03       		.uleb128 0x3
 9569 0022 0E       		.uleb128 0xe
 9570 0023 3A       		.uleb128 0x3a
 9571 0024 0B       		.uleb128 0xb
 9572 0025 3B       		.uleb128 0x3b
 9573 0026 0B       		.uleb128 0xb
 9574 0027 49       		.uleb128 0x49
 9575 0028 13       		.uleb128 0x13
 9576 0029 00       		.byte	0
 9577 002a 00       		.byte	0
 9578 002b 04       		.uleb128 0x4
 9579 002c 24       		.uleb128 0x24
 9580 002d 00       		.byte	0
 9581 002e 0B       		.uleb128 0xb
 9582 002f 0B       		.uleb128 0xb
 9583 0030 3E       		.uleb128 0x3e
 9584 0031 0B       		.uleb128 0xb
 9585 0032 03       		.uleb128 0x3
 9586 0033 0E       		.uleb128 0xe
 9587 0034 00       		.byte	0
 9588 0035 00       		.byte	0
 9589 0036 05       		.uleb128 0x5
 9590 0037 13       		.uleb128 0x13
 9591 0038 01       		.byte	0x1
 9592 0039 03       		.uleb128 0x3
 9593 003a 0E       		.uleb128 0xe
 9594 003b 0B       		.uleb128 0xb
 9595 003c 0B       		.uleb128 0xb
 9596 003d 3A       		.uleb128 0x3a
 9597 003e 0B       		.uleb128 0xb
ARM GAS  /tmp/ccZlncvZ.s 			page 170


 9598 003f 3B       		.uleb128 0x3b
 9599 0040 0B       		.uleb128 0xb
 9600 0041 01       		.uleb128 0x1
 9601 0042 13       		.uleb128 0x13
 9602 0043 00       		.byte	0
 9603 0044 00       		.byte	0
 9604 0045 06       		.uleb128 0x6
 9605 0046 0D       		.uleb128 0xd
 9606 0047 00       		.byte	0
 9607 0048 03       		.uleb128 0x3
 9608 0049 0E       		.uleb128 0xe
 9609 004a 3A       		.uleb128 0x3a
 9610 004b 0B       		.uleb128 0xb
 9611 004c 3B       		.uleb128 0x3b
 9612 004d 0B       		.uleb128 0xb
 9613 004e 49       		.uleb128 0x49
 9614 004f 13       		.uleb128 0x13
 9615 0050 38       		.uleb128 0x38
 9616 0051 0B       		.uleb128 0xb
 9617 0052 00       		.byte	0
 9618 0053 00       		.byte	0
 9619 0054 07       		.uleb128 0x7
 9620 0055 0D       		.uleb128 0xd
 9621 0056 00       		.byte	0
 9622 0057 03       		.uleb128 0x3
 9623 0058 08       		.uleb128 0x8
 9624 0059 3A       		.uleb128 0x3a
 9625 005a 0B       		.uleb128 0xb
 9626 005b 3B       		.uleb128 0x3b
 9627 005c 0B       		.uleb128 0xb
 9628 005d 49       		.uleb128 0x49
 9629 005e 13       		.uleb128 0x13
 9630 005f 38       		.uleb128 0x38
 9631 0060 0B       		.uleb128 0xb
 9632 0061 00       		.byte	0
 9633 0062 00       		.byte	0
 9634 0063 08       		.uleb128 0x8
 9635 0064 13       		.uleb128 0x13
 9636 0065 01       		.byte	0x1
 9637 0066 0B       		.uleb128 0xb
 9638 0067 0B       		.uleb128 0xb
 9639 0068 3A       		.uleb128 0x3a
 9640 0069 0B       		.uleb128 0xb
 9641 006a 3B       		.uleb128 0x3b
 9642 006b 0B       		.uleb128 0xb
 9643 006c 01       		.uleb128 0x1
 9644 006d 13       		.uleb128 0x13
 9645 006e 00       		.byte	0
 9646 006f 00       		.byte	0
 9647 0070 09       		.uleb128 0x9
 9648 0071 0F       		.uleb128 0xf
 9649 0072 00       		.byte	0
 9650 0073 0B       		.uleb128 0xb
 9651 0074 0B       		.uleb128 0xb
 9652 0075 49       		.uleb128 0x49
 9653 0076 13       		.uleb128 0x13
 9654 0077 00       		.byte	0
ARM GAS  /tmp/ccZlncvZ.s 			page 171


 9655 0078 00       		.byte	0
 9656 0079 0A       		.uleb128 0xa
 9657 007a 0F       		.uleb128 0xf
 9658 007b 00       		.byte	0
 9659 007c 0B       		.uleb128 0xb
 9660 007d 0B       		.uleb128 0xb
 9661 007e 00       		.byte	0
 9662 007f 00       		.byte	0
 9663 0080 0B       		.uleb128 0xb
 9664 0081 13       		.uleb128 0x13
 9665 0082 01       		.byte	0x1
 9666 0083 03       		.uleb128 0x3
 9667 0084 0E       		.uleb128 0xe
 9668 0085 0B       		.uleb128 0xb
 9669 0086 0B       		.uleb128 0xb
 9670 0087 3A       		.uleb128 0x3a
 9671 0088 0B       		.uleb128 0xb
 9672 0089 3B       		.uleb128 0x3b
 9673 008a 05       		.uleb128 0x5
 9674 008b 01       		.uleb128 0x1
 9675 008c 13       		.uleb128 0x13
 9676 008d 00       		.byte	0
 9677 008e 00       		.byte	0
 9678 008f 0C       		.uleb128 0xc
 9679 0090 0D       		.uleb128 0xd
 9680 0091 00       		.byte	0
 9681 0092 03       		.uleb128 0x3
 9682 0093 08       		.uleb128 0x8
 9683 0094 3A       		.uleb128 0x3a
 9684 0095 0B       		.uleb128 0xb
 9685 0096 3B       		.uleb128 0x3b
 9686 0097 05       		.uleb128 0x5
 9687 0098 49       		.uleb128 0x49
 9688 0099 13       		.uleb128 0x13
 9689 009a 38       		.uleb128 0x38
 9690 009b 0B       		.uleb128 0xb
 9691 009c 00       		.byte	0
 9692 009d 00       		.byte	0
 9693 009e 0D       		.uleb128 0xd
 9694 009f 15       		.uleb128 0x15
 9695 00a0 01       		.byte	0x1
 9696 00a1 27       		.uleb128 0x27
 9697 00a2 19       		.uleb128 0x19
 9698 00a3 01       		.uleb128 0x1
 9699 00a4 13       		.uleb128 0x13
 9700 00a5 00       		.byte	0
 9701 00a6 00       		.byte	0
 9702 00a7 0E       		.uleb128 0xe
 9703 00a8 05       		.uleb128 0x5
 9704 00a9 00       		.byte	0
 9705 00aa 49       		.uleb128 0x49
 9706 00ab 13       		.uleb128 0x13
 9707 00ac 00       		.byte	0
 9708 00ad 00       		.byte	0
 9709 00ae 0F       		.uleb128 0xf
 9710 00af 35       		.uleb128 0x35
 9711 00b0 00       		.byte	0
ARM GAS  /tmp/ccZlncvZ.s 			page 172


 9712 00b1 49       		.uleb128 0x49
 9713 00b2 13       		.uleb128 0x13
 9714 00b3 00       		.byte	0
 9715 00b4 00       		.byte	0
 9716 00b5 10       		.uleb128 0x10
 9717 00b6 17       		.uleb128 0x17
 9718 00b7 01       		.byte	0x1
 9719 00b8 0B       		.uleb128 0xb
 9720 00b9 0B       		.uleb128 0xb
 9721 00ba 3A       		.uleb128 0x3a
 9722 00bb 0B       		.uleb128 0xb
 9723 00bc 3B       		.uleb128 0x3b
 9724 00bd 0B       		.uleb128 0xb
 9725 00be 01       		.uleb128 0x1
 9726 00bf 13       		.uleb128 0x13
 9727 00c0 00       		.byte	0
 9728 00c1 00       		.byte	0
 9729 00c2 11       		.uleb128 0x11
 9730 00c3 0D       		.uleb128 0xd
 9731 00c4 00       		.byte	0
 9732 00c5 03       		.uleb128 0x3
 9733 00c6 0E       		.uleb128 0xe
 9734 00c7 3A       		.uleb128 0x3a
 9735 00c8 0B       		.uleb128 0xb
 9736 00c9 3B       		.uleb128 0x3b
 9737 00ca 0B       		.uleb128 0xb
 9738 00cb 49       		.uleb128 0x49
 9739 00cc 13       		.uleb128 0x13
 9740 00cd 00       		.byte	0
 9741 00ce 00       		.byte	0
 9742 00cf 12       		.uleb128 0x12
 9743 00d0 26       		.uleb128 0x26
 9744 00d1 00       		.byte	0
 9745 00d2 49       		.uleb128 0x49
 9746 00d3 13       		.uleb128 0x13
 9747 00d4 00       		.byte	0
 9748 00d5 00       		.byte	0
 9749 00d6 13       		.uleb128 0x13
 9750 00d7 01       		.uleb128 0x1
 9751 00d8 01       		.byte	0x1
 9752 00d9 49       		.uleb128 0x49
 9753 00da 13       		.uleb128 0x13
 9754 00db 01       		.uleb128 0x1
 9755 00dc 13       		.uleb128 0x13
 9756 00dd 00       		.byte	0
 9757 00de 00       		.byte	0
 9758 00df 14       		.uleb128 0x14
 9759 00e0 21       		.uleb128 0x21
 9760 00e1 00       		.byte	0
 9761 00e2 49       		.uleb128 0x49
 9762 00e3 13       		.uleb128 0x13
 9763 00e4 2F       		.uleb128 0x2f
 9764 00e5 0B       		.uleb128 0xb
 9765 00e6 00       		.byte	0
 9766 00e7 00       		.byte	0
 9767 00e8 15       		.uleb128 0x15
 9768 00e9 0D       		.uleb128 0xd
ARM GAS  /tmp/ccZlncvZ.s 			page 173


 9769 00ea 00       		.byte	0
 9770 00eb 03       		.uleb128 0x3
 9771 00ec 0E       		.uleb128 0xe
 9772 00ed 3A       		.uleb128 0x3a
 9773 00ee 0B       		.uleb128 0xb
 9774 00ef 3B       		.uleb128 0x3b
 9775 00f0 05       		.uleb128 0x5
 9776 00f1 49       		.uleb128 0x49
 9777 00f2 13       		.uleb128 0x13
 9778 00f3 38       		.uleb128 0x38
 9779 00f4 0B       		.uleb128 0xb
 9780 00f5 00       		.byte	0
 9781 00f6 00       		.byte	0
 9782 00f7 16       		.uleb128 0x16
 9783 00f8 16       		.uleb128 0x16
 9784 00f9 00       		.byte	0
 9785 00fa 03       		.uleb128 0x3
 9786 00fb 0E       		.uleb128 0xe
 9787 00fc 3A       		.uleb128 0x3a
 9788 00fd 0B       		.uleb128 0xb
 9789 00fe 3B       		.uleb128 0x3b
 9790 00ff 05       		.uleb128 0x5
 9791 0100 49       		.uleb128 0x49
 9792 0101 13       		.uleb128 0x13
 9793 0102 00       		.byte	0
 9794 0103 00       		.byte	0
 9795 0104 17       		.uleb128 0x17
 9796 0105 04       		.uleb128 0x4
 9797 0106 01       		.byte	0x1
 9798 0107 03       		.uleb128 0x3
 9799 0108 0E       		.uleb128 0xe
 9800 0109 0B       		.uleb128 0xb
 9801 010a 0B       		.uleb128 0xb
 9802 010b 3A       		.uleb128 0x3a
 9803 010c 0B       		.uleb128 0xb
 9804 010d 3B       		.uleb128 0x3b
 9805 010e 0B       		.uleb128 0xb
 9806 010f 01       		.uleb128 0x1
 9807 0110 13       		.uleb128 0x13
 9808 0111 00       		.byte	0
 9809 0112 00       		.byte	0
 9810 0113 18       		.uleb128 0x18
 9811 0114 28       		.uleb128 0x28
 9812 0115 00       		.byte	0
 9813 0116 03       		.uleb128 0x3
 9814 0117 0E       		.uleb128 0xe
 9815 0118 1C       		.uleb128 0x1c
 9816 0119 0D       		.uleb128 0xd
 9817 011a 00       		.byte	0
 9818 011b 00       		.byte	0
 9819 011c 19       		.uleb128 0x19
 9820 011d 0D       		.uleb128 0xd
 9821 011e 00       		.byte	0
 9822 011f 03       		.uleb128 0x3
 9823 0120 08       		.uleb128 0x8
 9824 0121 3A       		.uleb128 0x3a
 9825 0122 0B       		.uleb128 0xb
ARM GAS  /tmp/ccZlncvZ.s 			page 174


 9826 0123 3B       		.uleb128 0x3b
 9827 0124 0B       		.uleb128 0xb
 9828 0125 49       		.uleb128 0x49
 9829 0126 13       		.uleb128 0x13
 9830 0127 00       		.byte	0
 9831 0128 00       		.byte	0
 9832 0129 1A       		.uleb128 0x1a
 9833 012a 15       		.uleb128 0x15
 9834 012b 01       		.byte	0x1
 9835 012c 27       		.uleb128 0x27
 9836 012d 19       		.uleb128 0x19
 9837 012e 49       		.uleb128 0x49
 9838 012f 13       		.uleb128 0x13
 9839 0130 01       		.uleb128 0x1
 9840 0131 13       		.uleb128 0x13
 9841 0132 00       		.byte	0
 9842 0133 00       		.byte	0
 9843 0134 1B       		.uleb128 0x1b
 9844 0135 13       		.uleb128 0x13
 9845 0136 00       		.byte	0
 9846 0137 03       		.uleb128 0x3
 9847 0138 0E       		.uleb128 0xe
 9848 0139 3C       		.uleb128 0x3c
 9849 013a 19       		.uleb128 0x19
 9850 013b 00       		.byte	0
 9851 013c 00       		.byte	0
 9852 013d 1C       		.uleb128 0x1c
 9853 013e 26       		.uleb128 0x26
 9854 013f 00       		.byte	0
 9855 0140 00       		.byte	0
 9856 0141 00       		.byte	0
 9857 0142 1D       		.uleb128 0x1d
 9858 0143 2E       		.uleb128 0x2e
 9859 0144 01       		.byte	0x1
 9860 0145 03       		.uleb128 0x3
 9861 0146 0E       		.uleb128 0xe
 9862 0147 3A       		.uleb128 0x3a
 9863 0148 0B       		.uleb128 0xb
 9864 0149 3B       		.uleb128 0x3b
 9865 014a 0B       		.uleb128 0xb
 9866 014b 27       		.uleb128 0x27
 9867 014c 19       		.uleb128 0x19
 9868 014d 49       		.uleb128 0x49
 9869 014e 13       		.uleb128 0x13
 9870 014f 20       		.uleb128 0x20
 9871 0150 0B       		.uleb128 0xb
 9872 0151 01       		.uleb128 0x1
 9873 0152 13       		.uleb128 0x13
 9874 0153 00       		.byte	0
 9875 0154 00       		.byte	0
 9876 0155 1E       		.uleb128 0x1e
 9877 0156 05       		.uleb128 0x5
 9878 0157 00       		.byte	0
 9879 0158 03       		.uleb128 0x3
 9880 0159 08       		.uleb128 0x8
 9881 015a 3A       		.uleb128 0x3a
 9882 015b 0B       		.uleb128 0xb
ARM GAS  /tmp/ccZlncvZ.s 			page 175


 9883 015c 3B       		.uleb128 0x3b
 9884 015d 0B       		.uleb128 0xb
 9885 015e 49       		.uleb128 0x49
 9886 015f 13       		.uleb128 0x13
 9887 0160 00       		.byte	0
 9888 0161 00       		.byte	0
 9889 0162 1F       		.uleb128 0x1f
 9890 0163 34       		.uleb128 0x34
 9891 0164 00       		.byte	0
 9892 0165 03       		.uleb128 0x3
 9893 0166 0E       		.uleb128 0xe
 9894 0167 3A       		.uleb128 0x3a
 9895 0168 0B       		.uleb128 0xb
 9896 0169 3B       		.uleb128 0x3b
 9897 016a 0B       		.uleb128 0xb
 9898 016b 49       		.uleb128 0x49
 9899 016c 13       		.uleb128 0x13
 9900 016d 00       		.byte	0
 9901 016e 00       		.byte	0
 9902 016f 20       		.uleb128 0x20
 9903 0170 2E       		.uleb128 0x2e
 9904 0171 01       		.byte	0x1
 9905 0172 03       		.uleb128 0x3
 9906 0173 0E       		.uleb128 0xe
 9907 0174 3A       		.uleb128 0x3a
 9908 0175 0B       		.uleb128 0xb
 9909 0176 3B       		.uleb128 0x3b
 9910 0177 0B       		.uleb128 0xb
 9911 0178 27       		.uleb128 0x27
 9912 0179 19       		.uleb128 0x19
 9913 017a 49       		.uleb128 0x49
 9914 017b 13       		.uleb128 0x13
 9915 017c 11       		.uleb128 0x11
 9916 017d 01       		.uleb128 0x1
 9917 017e 12       		.uleb128 0x12
 9918 017f 06       		.uleb128 0x6
 9919 0180 40       		.uleb128 0x40
 9920 0181 18       		.uleb128 0x18
 9921 0182 9742     		.uleb128 0x2117
 9922 0184 19       		.uleb128 0x19
 9923 0185 01       		.uleb128 0x1
 9924 0186 13       		.uleb128 0x13
 9925 0187 00       		.byte	0
 9926 0188 00       		.byte	0
 9927 0189 21       		.uleb128 0x21
 9928 018a 05       		.uleb128 0x5
 9929 018b 00       		.byte	0
 9930 018c 03       		.uleb128 0x3
 9931 018d 0E       		.uleb128 0xe
 9932 018e 3A       		.uleb128 0x3a
 9933 018f 0B       		.uleb128 0xb
 9934 0190 3B       		.uleb128 0x3b
 9935 0191 0B       		.uleb128 0xb
 9936 0192 49       		.uleb128 0x49
 9937 0193 13       		.uleb128 0x13
 9938 0194 02       		.uleb128 0x2
 9939 0195 17       		.uleb128 0x17
ARM GAS  /tmp/ccZlncvZ.s 			page 176


 9940 0196 00       		.byte	0
 9941 0197 00       		.byte	0
 9942 0198 22       		.uleb128 0x22
 9943 0199 34       		.uleb128 0x34
 9944 019a 00       		.byte	0
 9945 019b 03       		.uleb128 0x3
 9946 019c 08       		.uleb128 0x8
 9947 019d 3A       		.uleb128 0x3a
 9948 019e 0B       		.uleb128 0xb
 9949 019f 3B       		.uleb128 0x3b
 9950 01a0 0B       		.uleb128 0xb
 9951 01a1 49       		.uleb128 0x49
 9952 01a2 13       		.uleb128 0x13
 9953 01a3 02       		.uleb128 0x2
 9954 01a4 17       		.uleb128 0x17
 9955 01a5 00       		.byte	0
 9956 01a6 00       		.byte	0
 9957 01a7 23       		.uleb128 0x23
 9958 01a8 2E       		.uleb128 0x2e
 9959 01a9 01       		.byte	0x1
 9960 01aa 03       		.uleb128 0x3
 9961 01ab 0E       		.uleb128 0xe
 9962 01ac 3A       		.uleb128 0x3a
 9963 01ad 0B       		.uleb128 0xb
 9964 01ae 3B       		.uleb128 0x3b
 9965 01af 05       		.uleb128 0x5
 9966 01b0 27       		.uleb128 0x27
 9967 01b1 19       		.uleb128 0x19
 9968 01b2 49       		.uleb128 0x49
 9969 01b3 13       		.uleb128 0x13
 9970 01b4 11       		.uleb128 0x11
 9971 01b5 01       		.uleb128 0x1
 9972 01b6 12       		.uleb128 0x12
 9973 01b7 06       		.uleb128 0x6
 9974 01b8 40       		.uleb128 0x40
 9975 01b9 18       		.uleb128 0x18
 9976 01ba 9742     		.uleb128 0x2117
 9977 01bc 19       		.uleb128 0x19
 9978 01bd 01       		.uleb128 0x1
 9979 01be 13       		.uleb128 0x13
 9980 01bf 00       		.byte	0
 9981 01c0 00       		.byte	0
 9982 01c1 24       		.uleb128 0x24
 9983 01c2 05       		.uleb128 0x5
 9984 01c3 00       		.byte	0
 9985 01c4 03       		.uleb128 0x3
 9986 01c5 0E       		.uleb128 0xe
 9987 01c6 3A       		.uleb128 0x3a
 9988 01c7 0B       		.uleb128 0xb
 9989 01c8 3B       		.uleb128 0x3b
 9990 01c9 05       		.uleb128 0x5
 9991 01ca 49       		.uleb128 0x49
 9992 01cb 13       		.uleb128 0x13
 9993 01cc 02       		.uleb128 0x2
 9994 01cd 17       		.uleb128 0x17
 9995 01ce 00       		.byte	0
 9996 01cf 00       		.byte	0
ARM GAS  /tmp/ccZlncvZ.s 			page 177


 9997 01d0 25       		.uleb128 0x25
 9998 01d1 34       		.uleb128 0x34
 9999 01d2 00       		.byte	0
 10000 01d3 03       		.uleb128 0x3
 10001 01d4 08       		.uleb128 0x8
 10002 01d5 3A       		.uleb128 0x3a
 10003 01d6 0B       		.uleb128 0xb
 10004 01d7 3B       		.uleb128 0x3b
 10005 01d8 05       		.uleb128 0x5
 10006 01d9 49       		.uleb128 0x49
 10007 01da 13       		.uleb128 0x13
 10008 01db 02       		.uleb128 0x2
 10009 01dc 17       		.uleb128 0x17
 10010 01dd 00       		.byte	0
 10011 01de 00       		.byte	0
 10012 01df 26       		.uleb128 0x26
 10013 01e0 34       		.uleb128 0x34
 10014 01e1 00       		.byte	0
 10015 01e2 03       		.uleb128 0x3
 10016 01e3 0E       		.uleb128 0xe
 10017 01e4 3A       		.uleb128 0x3a
 10018 01e5 0B       		.uleb128 0xb
 10019 01e6 3B       		.uleb128 0x3b
 10020 01e7 05       		.uleb128 0x5
 10021 01e8 49       		.uleb128 0x49
 10022 01e9 13       		.uleb128 0x13
 10023 01ea 02       		.uleb128 0x2
 10024 01eb 17       		.uleb128 0x17
 10025 01ec 00       		.byte	0
 10026 01ed 00       		.byte	0
 10027 01ee 27       		.uleb128 0x27
 10028 01ef 34       		.uleb128 0x34
 10029 01f0 00       		.byte	0
 10030 01f1 03       		.uleb128 0x3
 10031 01f2 0E       		.uleb128 0xe
 10032 01f3 3A       		.uleb128 0x3a
 10033 01f4 0B       		.uleb128 0xb
 10034 01f5 3B       		.uleb128 0x3b
 10035 01f6 05       		.uleb128 0x5
 10036 01f7 49       		.uleb128 0x49
 10037 01f8 13       		.uleb128 0x13
 10038 01f9 02       		.uleb128 0x2
 10039 01fa 18       		.uleb128 0x18
 10040 01fb 00       		.byte	0
 10041 01fc 00       		.byte	0
 10042 01fd 28       		.uleb128 0x28
 10043 01fe 34       		.uleb128 0x34
 10044 01ff 00       		.byte	0
 10045 0200 03       		.uleb128 0x3
 10046 0201 0E       		.uleb128 0xe
 10047 0202 3A       		.uleb128 0x3a
 10048 0203 0B       		.uleb128 0xb
 10049 0204 3B       		.uleb128 0x3b
 10050 0205 05       		.uleb128 0x5
 10051 0206 49       		.uleb128 0x49
 10052 0207 13       		.uleb128 0x13
 10053 0208 00       		.byte	0
ARM GAS  /tmp/ccZlncvZ.s 			page 178


 10054 0209 00       		.byte	0
 10055 020a 29       		.uleb128 0x29
 10056 020b 0B       		.uleb128 0xb
 10057 020c 01       		.byte	0x1
 10058 020d 55       		.uleb128 0x55
 10059 020e 17       		.uleb128 0x17
 10060 020f 00       		.byte	0
 10061 0210 00       		.byte	0
 10062 0211 2A       		.uleb128 0x2a
 10063 0212 1D       		.uleb128 0x1d
 10064 0213 01       		.byte	0x1
 10065 0214 31       		.uleb128 0x31
 10066 0215 13       		.uleb128 0x13
 10067 0216 52       		.uleb128 0x52
 10068 0217 01       		.uleb128 0x1
 10069 0218 55       		.uleb128 0x55
 10070 0219 17       		.uleb128 0x17
 10071 021a 58       		.uleb128 0x58
 10072 021b 0B       		.uleb128 0xb
 10073 021c 59       		.uleb128 0x59
 10074 021d 05       		.uleb128 0x5
 10075 021e 00       		.byte	0
 10076 021f 00       		.byte	0
 10077 0220 2B       		.uleb128 0x2b
 10078 0221 05       		.uleb128 0x5
 10079 0222 00       		.byte	0
 10080 0223 31       		.uleb128 0x31
 10081 0224 13       		.uleb128 0x13
 10082 0225 02       		.uleb128 0x2
 10083 0226 17       		.uleb128 0x17
 10084 0227 00       		.byte	0
 10085 0228 00       		.byte	0
 10086 0229 2C       		.uleb128 0x2c
 10087 022a 05       		.uleb128 0x5
 10088 022b 00       		.byte	0
 10089 022c 03       		.uleb128 0x3
 10090 022d 08       		.uleb128 0x8
 10091 022e 3A       		.uleb128 0x3a
 10092 022f 0B       		.uleb128 0xb
 10093 0230 3B       		.uleb128 0x3b
 10094 0231 05       		.uleb128 0x5
 10095 0232 49       		.uleb128 0x49
 10096 0233 13       		.uleb128 0x13
 10097 0234 02       		.uleb128 0x2
 10098 0235 17       		.uleb128 0x17
 10099 0236 00       		.byte	0
 10100 0237 00       		.byte	0
 10101 0238 2D       		.uleb128 0x2d
 10102 0239 34       		.uleb128 0x34
 10103 023a 00       		.byte	0
 10104 023b 03       		.uleb128 0x3
 10105 023c 08       		.uleb128 0x8
 10106 023d 3A       		.uleb128 0x3a
 10107 023e 0B       		.uleb128 0xb
 10108 023f 3B       		.uleb128 0x3b
 10109 0240 05       		.uleb128 0x5
 10110 0241 49       		.uleb128 0x49
ARM GAS  /tmp/ccZlncvZ.s 			page 179


 10111 0242 13       		.uleb128 0x13
 10112 0243 02       		.uleb128 0x2
 10113 0244 18       		.uleb128 0x18
 10114 0245 00       		.byte	0
 10115 0246 00       		.byte	0
 10116 0247 2E       		.uleb128 0x2e
 10117 0248 1D       		.uleb128 0x1d
 10118 0249 01       		.byte	0x1
 10119 024a 31       		.uleb128 0x31
 10120 024b 13       		.uleb128 0x13
 10121 024c 52       		.uleb128 0x52
 10122 024d 01       		.uleb128 0x1
 10123 024e 55       		.uleb128 0x55
 10124 024f 17       		.uleb128 0x17
 10125 0250 58       		.uleb128 0x58
 10126 0251 0B       		.uleb128 0xb
 10127 0252 59       		.uleb128 0x59
 10128 0253 05       		.uleb128 0x5
 10129 0254 01       		.uleb128 0x1
 10130 0255 13       		.uleb128 0x13
 10131 0256 00       		.byte	0
 10132 0257 00       		.byte	0
 10133 0258 2F       		.uleb128 0x2f
 10134 0259 34       		.uleb128 0x34
 10135 025a 00       		.byte	0
 10136 025b 31       		.uleb128 0x31
 10137 025c 13       		.uleb128 0x13
 10138 025d 02       		.uleb128 0x2
 10139 025e 17       		.uleb128 0x17
 10140 025f 00       		.byte	0
 10141 0260 00       		.byte	0
 10142 0261 30       		.uleb128 0x30
 10143 0262 898201   		.uleb128 0x4109
 10144 0265 01       		.byte	0x1
 10145 0266 11       		.uleb128 0x11
 10146 0267 01       		.uleb128 0x1
 10147 0268 31       		.uleb128 0x31
 10148 0269 13       		.uleb128 0x13
 10149 026a 01       		.uleb128 0x1
 10150 026b 13       		.uleb128 0x13
 10151 026c 00       		.byte	0
 10152 026d 00       		.byte	0
 10153 026e 31       		.uleb128 0x31
 10154 026f 8A8201   		.uleb128 0x410a
 10155 0272 00       		.byte	0
 10156 0273 02       		.uleb128 0x2
 10157 0274 18       		.uleb128 0x18
 10158 0275 9142     		.uleb128 0x2111
 10159 0277 18       		.uleb128 0x18
 10160 0278 00       		.byte	0
 10161 0279 00       		.byte	0
 10162 027a 32       		.uleb128 0x32
 10163 027b 898201   		.uleb128 0x4109
 10164 027e 00       		.byte	0
 10165 027f 11       		.uleb128 0x11
 10166 0280 01       		.uleb128 0x1
 10167 0281 31       		.uleb128 0x31
ARM GAS  /tmp/ccZlncvZ.s 			page 180


 10168 0282 13       		.uleb128 0x13
 10169 0283 00       		.byte	0
 10170 0284 00       		.byte	0
 10171 0285 33       		.uleb128 0x33
 10172 0286 898201   		.uleb128 0x4109
 10173 0289 01       		.byte	0x1
 10174 028a 11       		.uleb128 0x11
 10175 028b 01       		.uleb128 0x1
 10176 028c 31       		.uleb128 0x31
 10177 028d 13       		.uleb128 0x13
 10178 028e 00       		.byte	0
 10179 028f 00       		.byte	0
 10180 0290 34       		.uleb128 0x34
 10181 0291 2E       		.uleb128 0x2e
 10182 0292 01       		.byte	0x1
 10183 0293 03       		.uleb128 0x3
 10184 0294 0E       		.uleb128 0xe
 10185 0295 3A       		.uleb128 0x3a
 10186 0296 0B       		.uleb128 0xb
 10187 0297 3B       		.uleb128 0x3b
 10188 0298 05       		.uleb128 0x5
 10189 0299 27       		.uleb128 0x27
 10190 029a 19       		.uleb128 0x19
 10191 029b 11       		.uleb128 0x11
 10192 029c 01       		.uleb128 0x1
 10193 029d 12       		.uleb128 0x12
 10194 029e 06       		.uleb128 0x6
 10195 029f 40       		.uleb128 0x40
 10196 02a0 18       		.uleb128 0x18
 10197 02a1 9742     		.uleb128 0x2117
 10198 02a3 19       		.uleb128 0x19
 10199 02a4 01       		.uleb128 0x1
 10200 02a5 13       		.uleb128 0x13
 10201 02a6 00       		.byte	0
 10202 02a7 00       		.byte	0
 10203 02a8 35       		.uleb128 0x35
 10204 02a9 0A       		.uleb128 0xa
 10205 02aa 00       		.byte	0
 10206 02ab 03       		.uleb128 0x3
 10207 02ac 0E       		.uleb128 0xe
 10208 02ad 3A       		.uleb128 0x3a
 10209 02ae 0B       		.uleb128 0xb
 10210 02af 3B       		.uleb128 0x3b
 10211 02b0 05       		.uleb128 0x5
 10212 02b1 00       		.byte	0
 10213 02b2 00       		.byte	0
 10214 02b3 36       		.uleb128 0x36
 10215 02b4 1D       		.uleb128 0x1d
 10216 02b5 01       		.byte	0x1
 10217 02b6 31       		.uleb128 0x31
 10218 02b7 13       		.uleb128 0x13
 10219 02b8 11       		.uleb128 0x11
 10220 02b9 01       		.uleb128 0x1
 10221 02ba 12       		.uleb128 0x12
 10222 02bb 06       		.uleb128 0x6
 10223 02bc 58       		.uleb128 0x58
 10224 02bd 0B       		.uleb128 0xb
ARM GAS  /tmp/ccZlncvZ.s 			page 181


 10225 02be 59       		.uleb128 0x59
 10226 02bf 05       		.uleb128 0x5
 10227 02c0 01       		.uleb128 0x1
 10228 02c1 13       		.uleb128 0x13
 10229 02c2 00       		.byte	0
 10230 02c3 00       		.byte	0
 10231 02c4 37       		.uleb128 0x37
 10232 02c5 0B       		.uleb128 0xb
 10233 02c6 01       		.byte	0x1
 10234 02c7 11       		.uleb128 0x11
 10235 02c8 01       		.uleb128 0x1
 10236 02c9 12       		.uleb128 0x12
 10237 02ca 06       		.uleb128 0x6
 10238 02cb 00       		.byte	0
 10239 02cc 00       		.byte	0
 10240 02cd 38       		.uleb128 0x38
 10241 02ce 0B       		.uleb128 0xb
 10242 02cf 01       		.byte	0x1
 10243 02d0 55       		.uleb128 0x55
 10244 02d1 17       		.uleb128 0x17
 10245 02d2 01       		.uleb128 0x1
 10246 02d3 13       		.uleb128 0x13
 10247 02d4 00       		.byte	0
 10248 02d5 00       		.byte	0
 10249 02d6 39       		.uleb128 0x39
 10250 02d7 898201   		.uleb128 0x4109
 10251 02da 00       		.byte	0
 10252 02db 11       		.uleb128 0x11
 10253 02dc 01       		.uleb128 0x1
 10254 02dd 9542     		.uleb128 0x2115
 10255 02df 19       		.uleb128 0x19
 10256 02e0 31       		.uleb128 0x31
 10257 02e1 13       		.uleb128 0x13
 10258 02e2 00       		.byte	0
 10259 02e3 00       		.byte	0
 10260 02e4 3A       		.uleb128 0x3a
 10261 02e5 2E       		.uleb128 0x2e
 10262 02e6 00       		.byte	0
 10263 02e7 3F       		.uleb128 0x3f
 10264 02e8 19       		.uleb128 0x19
 10265 02e9 03       		.uleb128 0x3
 10266 02ea 0E       		.uleb128 0xe
 10267 02eb 3A       		.uleb128 0x3a
 10268 02ec 0B       		.uleb128 0xb
 10269 02ed 3B       		.uleb128 0x3b
 10270 02ee 0B       		.uleb128 0xb
 10271 02ef 27       		.uleb128 0x27
 10272 02f0 19       		.uleb128 0x19
 10273 02f1 11       		.uleb128 0x11
 10274 02f2 01       		.uleb128 0x1
 10275 02f3 12       		.uleb128 0x12
 10276 02f4 06       		.uleb128 0x6
 10277 02f5 40       		.uleb128 0x40
 10278 02f6 18       		.uleb128 0x18
 10279 02f7 9742     		.uleb128 0x2117
 10280 02f9 19       		.uleb128 0x19
 10281 02fa 00       		.byte	0
ARM GAS  /tmp/ccZlncvZ.s 			page 182


 10282 02fb 00       		.byte	0
 10283 02fc 3B       		.uleb128 0x3b
 10284 02fd 2E       		.uleb128 0x2e
 10285 02fe 01       		.byte	0x1
 10286 02ff 3F       		.uleb128 0x3f
 10287 0300 19       		.uleb128 0x19
 10288 0301 03       		.uleb128 0x3
 10289 0302 0E       		.uleb128 0xe
 10290 0303 3A       		.uleb128 0x3a
 10291 0304 0B       		.uleb128 0xb
 10292 0305 3B       		.uleb128 0x3b
 10293 0306 05       		.uleb128 0x5
 10294 0307 27       		.uleb128 0x27
 10295 0308 19       		.uleb128 0x19
 10296 0309 49       		.uleb128 0x49
 10297 030a 13       		.uleb128 0x13
 10298 030b 11       		.uleb128 0x11
 10299 030c 01       		.uleb128 0x1
 10300 030d 12       		.uleb128 0x12
 10301 030e 06       		.uleb128 0x6
 10302 030f 40       		.uleb128 0x40
 10303 0310 18       		.uleb128 0x18
 10304 0311 9742     		.uleb128 0x2117
 10305 0313 19       		.uleb128 0x19
 10306 0314 01       		.uleb128 0x1
 10307 0315 13       		.uleb128 0x13
 10308 0316 00       		.byte	0
 10309 0317 00       		.byte	0
 10310 0318 3C       		.uleb128 0x3c
 10311 0319 2E       		.uleb128 0x2e
 10312 031a 01       		.byte	0x1
 10313 031b 03       		.uleb128 0x3
 10314 031c 0E       		.uleb128 0xe
 10315 031d 3A       		.uleb128 0x3a
 10316 031e 0B       		.uleb128 0xb
 10317 031f 3B       		.uleb128 0x3b
 10318 0320 05       		.uleb128 0x5
 10319 0321 27       		.uleb128 0x27
 10320 0322 19       		.uleb128 0x19
 10321 0323 20       		.uleb128 0x20
 10322 0324 0B       		.uleb128 0xb
 10323 0325 01       		.uleb128 0x1
 10324 0326 13       		.uleb128 0x13
 10325 0327 00       		.byte	0
 10326 0328 00       		.byte	0
 10327 0329 3D       		.uleb128 0x3d
 10328 032a 05       		.uleb128 0x5
 10329 032b 00       		.byte	0
 10330 032c 03       		.uleb128 0x3
 10331 032d 0E       		.uleb128 0xe
 10332 032e 3A       		.uleb128 0x3a
 10333 032f 0B       		.uleb128 0xb
 10334 0330 3B       		.uleb128 0x3b
 10335 0331 05       		.uleb128 0x5
 10336 0332 49       		.uleb128 0x49
 10337 0333 13       		.uleb128 0x13
 10338 0334 00       		.byte	0
ARM GAS  /tmp/ccZlncvZ.s 			page 183


 10339 0335 00       		.byte	0
 10340 0336 3E       		.uleb128 0x3e
 10341 0337 0B       		.uleb128 0xb
 10342 0338 01       		.byte	0x1
 10343 0339 11       		.uleb128 0x11
 10344 033a 01       		.uleb128 0x1
 10345 033b 12       		.uleb128 0x12
 10346 033c 06       		.uleb128 0x6
 10347 033d 01       		.uleb128 0x1
 10348 033e 13       		.uleb128 0x13
 10349 033f 00       		.byte	0
 10350 0340 00       		.byte	0
 10351 0341 3F       		.uleb128 0x3f
 10352 0342 898201   		.uleb128 0x4109
 10353 0345 01       		.byte	0x1
 10354 0346 11       		.uleb128 0x11
 10355 0347 01       		.uleb128 0x1
 10356 0348 9542     		.uleb128 0x2115
 10357 034a 19       		.uleb128 0x19
 10358 034b 31       		.uleb128 0x31
 10359 034c 13       		.uleb128 0x13
 10360 034d 00       		.byte	0
 10361 034e 00       		.byte	0
 10362 034f 40       		.uleb128 0x40
 10363 0350 0A       		.uleb128 0xa
 10364 0351 00       		.byte	0
 10365 0352 03       		.uleb128 0x3
 10366 0353 0E       		.uleb128 0xe
 10367 0354 3A       		.uleb128 0x3a
 10368 0355 0B       		.uleb128 0xb
 10369 0356 3B       		.uleb128 0x3b
 10370 0357 05       		.uleb128 0x5
 10371 0358 11       		.uleb128 0x11
 10372 0359 01       		.uleb128 0x1
 10373 035a 00       		.byte	0
 10374 035b 00       		.byte	0
 10375 035c 41       		.uleb128 0x41
 10376 035d 05       		.uleb128 0x5
 10377 035e 00       		.byte	0
 10378 035f 03       		.uleb128 0x3
 10379 0360 08       		.uleb128 0x8
 10380 0361 3A       		.uleb128 0x3a
 10381 0362 0B       		.uleb128 0xb
 10382 0363 3B       		.uleb128 0x3b
 10383 0364 05       		.uleb128 0x5
 10384 0365 49       		.uleb128 0x49
 10385 0366 13       		.uleb128 0x13
 10386 0367 02       		.uleb128 0x2
 10387 0368 18       		.uleb128 0x18
 10388 0369 00       		.byte	0
 10389 036a 00       		.byte	0
 10390 036b 42       		.uleb128 0x42
 10391 036c 1D       		.uleb128 0x1d
 10392 036d 01       		.byte	0x1
 10393 036e 31       		.uleb128 0x31
 10394 036f 13       		.uleb128 0x13
 10395 0370 11       		.uleb128 0x11
ARM GAS  /tmp/ccZlncvZ.s 			page 184


 10396 0371 01       		.uleb128 0x1
 10397 0372 12       		.uleb128 0x12
 10398 0373 06       		.uleb128 0x6
 10399 0374 58       		.uleb128 0x58
 10400 0375 0B       		.uleb128 0xb
 10401 0376 59       		.uleb128 0x59
 10402 0377 05       		.uleb128 0x5
 10403 0378 00       		.byte	0
 10404 0379 00       		.byte	0
 10405 037a 43       		.uleb128 0x43
 10406 037b 34       		.uleb128 0x34
 10407 037c 00       		.byte	0
 10408 037d 03       		.uleb128 0x3
 10409 037e 0E       		.uleb128 0xe
 10410 037f 3A       		.uleb128 0x3a
 10411 0380 0B       		.uleb128 0xb
 10412 0381 3B       		.uleb128 0x3b
 10413 0382 0B       		.uleb128 0xb
 10414 0383 49       		.uleb128 0x49
 10415 0384 13       		.uleb128 0x13
 10416 0385 02       		.uleb128 0x2
 10417 0386 18       		.uleb128 0x18
 10418 0387 00       		.byte	0
 10419 0388 00       		.byte	0
 10420 0389 44       		.uleb128 0x44
 10421 038a 2E       		.uleb128 0x2e
 10422 038b 01       		.byte	0x1
 10423 038c 3F       		.uleb128 0x3f
 10424 038d 19       		.uleb128 0x19
 10425 038e 03       		.uleb128 0x3
 10426 038f 0E       		.uleb128 0xe
 10427 0390 3A       		.uleb128 0x3a
 10428 0391 0B       		.uleb128 0xb
 10429 0392 3B       		.uleb128 0x3b
 10430 0393 0B       		.uleb128 0xb
 10431 0394 27       		.uleb128 0x27
 10432 0395 19       		.uleb128 0x19
 10433 0396 49       		.uleb128 0x49
 10434 0397 13       		.uleb128 0x13
 10435 0398 3C       		.uleb128 0x3c
 10436 0399 19       		.uleb128 0x19
 10437 039a 01       		.uleb128 0x1
 10438 039b 13       		.uleb128 0x13
 10439 039c 00       		.byte	0
 10440 039d 00       		.byte	0
 10441 039e 45       		.uleb128 0x45
 10442 039f 2E       		.uleb128 0x2e
 10443 03a0 01       		.byte	0x1
 10444 03a1 3F       		.uleb128 0x3f
 10445 03a2 19       		.uleb128 0x19
 10446 03a3 03       		.uleb128 0x3
 10447 03a4 0E       		.uleb128 0xe
 10448 03a5 27       		.uleb128 0x27
 10449 03a6 19       		.uleb128 0x19
 10450 03a7 49       		.uleb128 0x49
 10451 03a8 13       		.uleb128 0x13
 10452 03a9 34       		.uleb128 0x34
ARM GAS  /tmp/ccZlncvZ.s 			page 185


 10453 03aa 19       		.uleb128 0x19
 10454 03ab 3C       		.uleb128 0x3c
 10455 03ac 19       		.uleb128 0x19
 10456 03ad 01       		.uleb128 0x1
 10457 03ae 13       		.uleb128 0x13
 10458 03af 00       		.byte	0
 10459 03b0 00       		.byte	0
 10460 03b1 46       		.uleb128 0x46
 10461 03b2 2E       		.uleb128 0x2e
 10462 03b3 01       		.byte	0x1
 10463 03b4 3F       		.uleb128 0x3f
 10464 03b5 19       		.uleb128 0x19
 10465 03b6 03       		.uleb128 0x3
 10466 03b7 0E       		.uleb128 0xe
 10467 03b8 3A       		.uleb128 0x3a
 10468 03b9 0B       		.uleb128 0xb
 10469 03ba 3B       		.uleb128 0x3b
 10470 03bb 0B       		.uleb128 0xb
 10471 03bc 27       		.uleb128 0x27
 10472 03bd 19       		.uleb128 0x19
 10473 03be 3C       		.uleb128 0x3c
 10474 03bf 19       		.uleb128 0x19
 10475 03c0 01       		.uleb128 0x1
 10476 03c1 13       		.uleb128 0x13
 10477 03c2 00       		.byte	0
 10478 03c3 00       		.byte	0
 10479 03c4 47       		.uleb128 0x47
 10480 03c5 2E       		.uleb128 0x2e
 10481 03c6 00       		.byte	0
 10482 03c7 3F       		.uleb128 0x3f
 10483 03c8 19       		.uleb128 0x19
 10484 03c9 03       		.uleb128 0x3
 10485 03ca 0E       		.uleb128 0xe
 10486 03cb 3A       		.uleb128 0x3a
 10487 03cc 0B       		.uleb128 0xb
 10488 03cd 3B       		.uleb128 0x3b
 10489 03ce 05       		.uleb128 0x5
 10490 03cf 27       		.uleb128 0x27
 10491 03d0 19       		.uleb128 0x19
 10492 03d1 3C       		.uleb128 0x3c
 10493 03d2 19       		.uleb128 0x19
 10494 03d3 00       		.byte	0
 10495 03d4 00       		.byte	0
 10496 03d5 48       		.uleb128 0x48
 10497 03d6 2E       		.uleb128 0x2e
 10498 03d7 01       		.byte	0x1
 10499 03d8 3F       		.uleb128 0x3f
 10500 03d9 19       		.uleb128 0x19
 10501 03da 03       		.uleb128 0x3
 10502 03db 0E       		.uleb128 0xe
 10503 03dc 3A       		.uleb128 0x3a
 10504 03dd 0B       		.uleb128 0xb
 10505 03de 3B       		.uleb128 0x3b
 10506 03df 0B       		.uleb128 0xb
 10507 03e0 27       		.uleb128 0x27
 10508 03e1 19       		.uleb128 0x19
 10509 03e2 49       		.uleb128 0x49
ARM GAS  /tmp/ccZlncvZ.s 			page 186


 10510 03e3 13       		.uleb128 0x13
 10511 03e4 3C       		.uleb128 0x3c
 10512 03e5 19       		.uleb128 0x19
 10513 03e6 00       		.byte	0
 10514 03e7 00       		.byte	0
 10515 03e8 00       		.byte	0
 10516              		.section	.debug_loc,"",%progbits
 10517              	.Ldebug_loc0:
 10518              	.LLST0:
 10519 0000 00000000 		.4byte	.LVL0
 10520 0004 28000000 		.4byte	.LVL3
 10521 0008 0100     		.2byte	0x1
 10522 000a 50       		.byte	0x50
 10523 000b 28000000 		.4byte	.LVL3
 10524 000f 2E000000 		.4byte	.LVL4
 10525 0013 0400     		.2byte	0x4
 10526 0015 F3       		.byte	0xf3
 10527 0016 01       		.uleb128 0x1
 10528 0017 50       		.byte	0x50
 10529 0018 9F       		.byte	0x9f
 10530 0019 2E000000 		.4byte	.LVL4
 10531 001d 64000000 		.4byte	.LVL6
 10532 0021 0100     		.2byte	0x1
 10533 0023 50       		.byte	0x50
 10534 0024 64000000 		.4byte	.LVL6
 10535 0028 70000000 		.4byte	.LVL7
 10536 002c 0500     		.2byte	0x5
 10537 002e 74       		.byte	0x74
 10538 002f 00       		.sleb128 0
 10539 0030 7C       		.byte	0x7c
 10540 0031 00       		.sleb128 0
 10541 0032 22       		.byte	0x22
 10542 0033 70000000 		.4byte	.LVL7
 10543 0037 72000000 		.4byte	.LFE10
 10544 003b 0800     		.2byte	0x8
 10545 003d 7C       		.byte	0x7c
 10546 003e 00       		.sleb128 0
 10547 003f 03       		.byte	0x3
 10548 0040 00000000 		.4byte	.LANCHOR0
 10549 0044 22       		.byte	0x22
 10550 0045 00000000 		.4byte	0
 10551 0049 00000000 		.4byte	0
 10552              	.LLST1:
 10553 004d 00000000 		.4byte	.LVL0
 10554 0051 4C000000 		.4byte	.LVL5
 10555 0055 0100     		.2byte	0x1
 10556 0057 51       		.byte	0x51
 10557 0058 4C000000 		.4byte	.LVL5
 10558 005c 72000000 		.4byte	.LFE10
 10559 0060 0400     		.2byte	0x4
 10560 0062 F3       		.byte	0xf3
 10561 0063 01       		.uleb128 0x1
 10562 0064 51       		.byte	0x51
 10563 0065 9F       		.byte	0x9f
 10564 0066 00000000 		.4byte	0
 10565 006a 00000000 		.4byte	0
 10566              	.LLST2:
ARM GAS  /tmp/ccZlncvZ.s 			page 187


 10567 006e 00000000 		.4byte	.LVL0
 10568 0072 10000000 		.4byte	.LVL1
 10569 0076 0200     		.2byte	0x2
 10570 0078 30       		.byte	0x30
 10571 0079 9F       		.byte	0x9f
 10572 007a 10000000 		.4byte	.LVL1
 10573 007e 72000000 		.4byte	.LFE10
 10574 0082 0100     		.2byte	0x1
 10575 0084 52       		.byte	0x52
 10576 0085 00000000 		.4byte	0
 10577 0089 00000000 		.4byte	0
 10578              	.LLST3:
 10579 008d 00000000 		.4byte	.LVL8
 10580 0091 1A000000 		.4byte	.LVL10
 10581 0095 0100     		.2byte	0x1
 10582 0097 50       		.byte	0x50
 10583 0098 1A000000 		.4byte	.LVL10
 10584 009c 08010000 		.4byte	.LVL24
 10585 00a0 0200     		.2byte	0x2
 10586 00a2 91       		.byte	0x91
 10587 00a3 4C       		.sleb128 -52
 10588 00a4 08010000 		.4byte	.LVL24
 10589 00a8 0A010000 		.4byte	.LVL25
 10590 00ac 0200     		.2byte	0x2
 10591 00ae 7D       		.byte	0x7d
 10592 00af 4C       		.sleb128 -52
 10593 00b0 0A010000 		.4byte	.LVL25
 10594 00b4 24010000 		.4byte	.LFE24
 10595 00b8 0200     		.2byte	0x2
 10596 00ba 91       		.byte	0x91
 10597 00bb 4C       		.sleb128 -52
 10598 00bc 00000000 		.4byte	0
 10599 00c0 00000000 		.4byte	0
 10600              	.LLST4:
 10601 00c4 00000000 		.4byte	.LVL8
 10602 00c8 EE000000 		.4byte	.LVL21
 10603 00cc 0100     		.2byte	0x1
 10604 00ce 51       		.byte	0x51
 10605 00cf EE000000 		.4byte	.LVL21
 10606 00d3 0A010000 		.4byte	.LVL25
 10607 00d7 0400     		.2byte	0x4
 10608 00d9 F3       		.byte	0xf3
 10609 00da 01       		.uleb128 0x1
 10610 00db 51       		.byte	0x51
 10611 00dc 9F       		.byte	0x9f
 10612 00dd 0A010000 		.4byte	.LVL25
 10613 00e1 24010000 		.4byte	.LFE24
 10614 00e5 0100     		.2byte	0x1
 10615 00e7 51       		.byte	0x51
 10616 00e8 00000000 		.4byte	0
 10617 00ec 00000000 		.4byte	0
 10618              	.LLST5:
 10619 00f0 00000000 		.4byte	.LVL8
 10620 00f4 F4000000 		.4byte	.LVL22
 10621 00f8 0100     		.2byte	0x1
 10622 00fa 52       		.byte	0x52
 10623 00fb F4000000 		.4byte	.LVL22
ARM GAS  /tmp/ccZlncvZ.s 			page 188


 10624 00ff 0A010000 		.4byte	.LVL25
 10625 0103 0400     		.2byte	0x4
 10626 0105 F3       		.byte	0xf3
 10627 0106 01       		.uleb128 0x1
 10628 0107 52       		.byte	0x52
 10629 0108 9F       		.byte	0x9f
 10630 0109 0A010000 		.4byte	.LVL25
 10631 010d 24010000 		.4byte	.LFE24
 10632 0111 0100     		.2byte	0x1
 10633 0113 52       		.byte	0x52
 10634 0114 00000000 		.4byte	0
 10635 0118 00000000 		.4byte	0
 10636              	.LLST6:
 10637 011c 00000000 		.4byte	.LVL8
 10638 0120 FA000000 		.4byte	.LVL23
 10639 0124 0100     		.2byte	0x1
 10640 0126 53       		.byte	0x53
 10641 0127 FA000000 		.4byte	.LVL23
 10642 012b 0A010000 		.4byte	.LVL25
 10643 012f 0400     		.2byte	0x4
 10644 0131 F3       		.byte	0xf3
 10645 0132 01       		.uleb128 0x1
 10646 0133 53       		.byte	0x53
 10647 0134 9F       		.byte	0x9f
 10648 0135 0A010000 		.4byte	.LVL25
 10649 0139 24010000 		.4byte	.LFE24
 10650 013d 0100     		.2byte	0x1
 10651 013f 53       		.byte	0x53
 10652 0140 00000000 		.4byte	0
 10653 0144 00000000 		.4byte	0
 10654              	.LLST7:
 10655 0148 00000000 		.4byte	.LVL8
 10656 014c 08010000 		.4byte	.LVL24
 10657 0150 0200     		.2byte	0x2
 10658 0152 91       		.byte	0x91
 10659 0153 00       		.sleb128 0
 10660 0154 08010000 		.4byte	.LVL24
 10661 0158 0A010000 		.4byte	.LVL25
 10662 015c 0200     		.2byte	0x2
 10663 015e 7D       		.byte	0x7d
 10664 015f 00       		.sleb128 0
 10665 0160 0A010000 		.4byte	.LVL25
 10666 0164 24010000 		.4byte	.LFE24
 10667 0168 0200     		.2byte	0x2
 10668 016a 91       		.byte	0x91
 10669 016b 00       		.sleb128 0
 10670 016c 00000000 		.4byte	0
 10671 0170 00000000 		.4byte	0
 10672              	.LLST8:
 10673 0174 00000000 		.4byte	.LVL8
 10674 0178 08010000 		.4byte	.LVL24
 10675 017c 0200     		.2byte	0x2
 10676 017e 91       		.byte	0x91
 10677 017f 04       		.sleb128 4
 10678 0180 08010000 		.4byte	.LVL24
 10679 0184 0A010000 		.4byte	.LVL25
 10680 0188 0200     		.2byte	0x2
ARM GAS  /tmp/ccZlncvZ.s 			page 189


 10681 018a 7D       		.byte	0x7d
 10682 018b 04       		.sleb128 4
 10683 018c 0A010000 		.4byte	.LVL25
 10684 0190 24010000 		.4byte	.LFE24
 10685 0194 0200     		.2byte	0x2
 10686 0196 91       		.byte	0x91
 10687 0197 04       		.sleb128 4
 10688 0198 00000000 		.4byte	0
 10689 019c 00000000 		.4byte	0
 10690              	.LLST9:
 10691 01a0 00000000 		.4byte	.LVL8
 10692 01a4 08010000 		.4byte	.LVL24
 10693 01a8 0200     		.2byte	0x2
 10694 01aa 91       		.byte	0x91
 10695 01ab 08       		.sleb128 8
 10696 01ac 08010000 		.4byte	.LVL24
 10697 01b0 0A010000 		.4byte	.LVL25
 10698 01b4 0200     		.2byte	0x2
 10699 01b6 7D       		.byte	0x7d
 10700 01b7 08       		.sleb128 8
 10701 01b8 0A010000 		.4byte	.LVL25
 10702 01bc 24010000 		.4byte	.LFE24
 10703 01c0 0200     		.2byte	0x2
 10704 01c2 91       		.byte	0x91
 10705 01c3 08       		.sleb128 8
 10706 01c4 00000000 		.4byte	0
 10707 01c8 00000000 		.4byte	0
 10708              	.LLST10:
 10709 01cc 18000000 		.4byte	.LVL9
 10710 01d0 26000000 		.4byte	.LVL11
 10711 01d4 0200     		.2byte	0x2
 10712 01d6 30       		.byte	0x30
 10713 01d7 9F       		.byte	0x9f
 10714 01d8 26000000 		.4byte	.LVL11
 10715 01dc EA000000 		.4byte	.LVL20
 10716 01e0 0100     		.2byte	0x1
 10717 01e2 54       		.byte	0x54
 10718 01e3 0A010000 		.4byte	.LVL25
 10719 01e7 24010000 		.4byte	.LFE24
 10720 01eb 0100     		.2byte	0x1
 10721 01ed 54       		.byte	0x54
 10722 01ee 00000000 		.4byte	0
 10723 01f2 00000000 		.4byte	0
 10724              	.LLST11:
 10725 01f6 00000000 		.4byte	.LVL8
 10726 01fa 26000000 		.4byte	.LVL11
 10727 01fe 0200     		.2byte	0x2
 10728 0200 30       		.byte	0x30
 10729 0201 9F       		.byte	0x9f
 10730 0202 26000000 		.4byte	.LVL11
 10731 0206 EA000000 		.4byte	.LVL20
 10732 020a 0100     		.2byte	0x1
 10733 020c 5B       		.byte	0x5b
 10734 020d 0A010000 		.4byte	.LVL25
 10735 0211 24010000 		.4byte	.LFE24
 10736 0215 0100     		.2byte	0x1
 10737 0217 5B       		.byte	0x5b
ARM GAS  /tmp/ccZlncvZ.s 			page 190


 10738 0218 00000000 		.4byte	0
 10739 021c 00000000 		.4byte	0
 10740              	.LLST12:
 10741 0220 26000000 		.4byte	.LVL11
 10742 0224 34000000 		.4byte	.LVL12
 10743 0228 0200     		.2byte	0x2
 10744 022a 30       		.byte	0x30
 10745 022b 9F       		.byte	0x9f
 10746 022c 34000000 		.4byte	.LVL12
 10747 0230 EA000000 		.4byte	.LVL20
 10748 0234 0100     		.2byte	0x1
 10749 0236 59       		.byte	0x59
 10750 0237 0A010000 		.4byte	.LVL25
 10751 023b 12010000 		.4byte	.LVL26
 10752 023f 0200     		.2byte	0x2
 10753 0241 30       		.byte	0x30
 10754 0242 9F       		.byte	0x9f
 10755 0243 12010000 		.4byte	.LVL26
 10756 0247 1C010000 		.4byte	.LVL30
 10757 024b 0100     		.2byte	0x1
 10758 024d 59       		.byte	0x59
 10759 024e 1C010000 		.4byte	.LVL30
 10760 0252 24010000 		.4byte	.LFE24
 10761 0256 0200     		.2byte	0x2
 10762 0258 30       		.byte	0x30
 10763 0259 9F       		.byte	0x9f
 10764 025a 00000000 		.4byte	0
 10765 025e 00000000 		.4byte	0
 10766              	.LLST13:
 10767 0262 26000000 		.4byte	.LVL11
 10768 0266 34000000 		.4byte	.LVL12
 10769 026a 0200     		.2byte	0x2
 10770 026c 30       		.byte	0x30
 10771 026d 9F       		.byte	0x9f
 10772 026e 34000000 		.4byte	.LVL12
 10773 0272 50000000 		.4byte	.LVL13
 10774 0276 0100     		.2byte	0x1
 10775 0278 5A       		.byte	0x5a
 10776 0279 0A010000 		.4byte	.LVL25
 10777 027d 16010000 		.4byte	.LVL27
 10778 0281 0200     		.2byte	0x2
 10779 0283 30       		.byte	0x30
 10780 0284 9F       		.byte	0x9f
 10781 0285 16010000 		.4byte	.LVL27
 10782 0289 1C010000 		.4byte	.LVL30
 10783 028d 0200     		.2byte	0x2
 10784 028f 76       		.byte	0x76
 10785 0290 0A       		.sleb128 10
 10786 0291 1C010000 		.4byte	.LVL30
 10787 0295 24010000 		.4byte	.LFE24
 10788 0299 0200     		.2byte	0x2
 10789 029b 30       		.byte	0x30
 10790 029c 9F       		.byte	0x9f
 10791 029d 00000000 		.4byte	0
 10792 02a1 00000000 		.4byte	0
 10793              	.LLST14:
 10794 02a5 26000000 		.4byte	.LVL11
ARM GAS  /tmp/ccZlncvZ.s 			page 191


 10795 02a9 34000000 		.4byte	.LVL12
 10796 02ad 0200     		.2byte	0x2
 10797 02af 30       		.byte	0x30
 10798 02b0 9F       		.byte	0x9f
 10799 02b1 34000000 		.4byte	.LVL12
 10800 02b5 96000000 		.4byte	.LVL15
 10801 02b9 0100     		.2byte	0x1
 10802 02bb 50       		.byte	0x50
 10803 02bc 0A010000 		.4byte	.LVL25
 10804 02c0 18010000 		.4byte	.LVL28
 10805 02c4 0200     		.2byte	0x2
 10806 02c6 30       		.byte	0x30
 10807 02c7 9F       		.byte	0x9f
 10808 02c8 18010000 		.4byte	.LVL28
 10809 02cc 1C010000 		.4byte	.LVL30
 10810 02d0 0200     		.2byte	0x2
 10811 02d2 76       		.byte	0x76
 10812 02d3 0C       		.sleb128 12
 10813 02d4 1C010000 		.4byte	.LVL30
 10814 02d8 24010000 		.4byte	.LFE24
 10815 02dc 0200     		.2byte	0x2
 10816 02de 30       		.byte	0x30
 10817 02df 9F       		.byte	0x9f
 10818 02e0 00000000 		.4byte	0
 10819 02e4 00000000 		.4byte	0
 10820              	.LLST15:
 10821 02e8 26000000 		.4byte	.LVL11
 10822 02ec 34000000 		.4byte	.LVL12
 10823 02f0 0200     		.2byte	0x2
 10824 02f2 30       		.byte	0x30
 10825 02f3 9F       		.byte	0x9f
 10826 02f4 34000000 		.4byte	.LVL12
 10827 02f8 C6000000 		.4byte	.LVL17
 10828 02fc 0100     		.2byte	0x1
 10829 02fe 55       		.byte	0x55
 10830 02ff 0A010000 		.4byte	.LVL25
 10831 0303 1A010000 		.4byte	.LVL29
 10832 0307 0200     		.2byte	0x2
 10833 0309 30       		.byte	0x30
 10834 030a 9F       		.byte	0x9f
 10835 030b 1A010000 		.4byte	.LVL29
 10836 030f 1C010000 		.4byte	.LVL30
 10837 0313 0200     		.2byte	0x2
 10838 0315 76       		.byte	0x76
 10839 0316 0E       		.sleb128 14
 10840 0317 1C010000 		.4byte	.LVL30
 10841 031b 24010000 		.4byte	.LFE24
 10842 031f 0200     		.2byte	0x2
 10843 0321 30       		.byte	0x30
 10844 0322 9F       		.byte	0x9f
 10845 0323 00000000 		.4byte	0
 10846 0327 00000000 		.4byte	0
 10847              	.LLST16:
 10848 032b 26000000 		.4byte	.LVL11
 10849 032f E0000000 		.4byte	.LVL19
 10850 0333 0100     		.2byte	0x1
 10851 0335 54       		.byte	0x54
ARM GAS  /tmp/ccZlncvZ.s 			page 192


 10852 0336 E0000000 		.4byte	.LVL19
 10853 033a EA000000 		.4byte	.LVL20
 10854 033e 0300     		.2byte	0x3
 10855 0340 74       		.byte	0x74
 10856 0341 7F       		.sleb128 -1
 10857 0342 9F       		.byte	0x9f
 10858 0343 0A010000 		.4byte	.LVL25
 10859 0347 24010000 		.4byte	.LFE24
 10860 034b 0100     		.2byte	0x1
 10861 034d 54       		.byte	0x54
 10862 034e 00000000 		.4byte	0
 10863 0352 00000000 		.4byte	0
 10864              	.LLST17:
 10865 0356 00000000 		.4byte	.LVL31
 10866 035a 12000000 		.4byte	.LVL32
 10867 035e 0100     		.2byte	0x1
 10868 0360 50       		.byte	0x50
 10869 0361 12000000 		.4byte	.LVL32
 10870 0365 7E000000 		.4byte	.LFE28
 10871 0369 0400     		.2byte	0x4
 10872 036b F3       		.byte	0xf3
 10873 036c 01       		.uleb128 0x1
 10874 036d 50       		.byte	0x50
 10875 036e 9F       		.byte	0x9f
 10876 036f 00000000 		.4byte	0
 10877 0373 00000000 		.4byte	0
 10878              	.LLST18:
 10879 0377 00000000 		.4byte	.LVL31
 10880 037b 2E000000 		.4byte	.LVL34
 10881 037f 0100     		.2byte	0x1
 10882 0381 51       		.byte	0x51
 10883 0382 2E000000 		.4byte	.LVL34
 10884 0386 74000000 		.4byte	.LVL39
 10885 038a 0100     		.2byte	0x1
 10886 038c 55       		.byte	0x55
 10887 038d 74000000 		.4byte	.LVL39
 10888 0391 7E000000 		.4byte	.LFE28
 10889 0395 0100     		.2byte	0x1
 10890 0397 51       		.byte	0x51
 10891 0398 00000000 		.4byte	0
 10892 039c 00000000 		.4byte	0
 10893              	.LLST19:
 10894 03a0 00000000 		.4byte	.LVL31
 10895 03a4 32000000 		.4byte	.LVL35
 10896 03a8 0100     		.2byte	0x1
 10897 03aa 52       		.byte	0x52
 10898 03ab 32000000 		.4byte	.LVL35
 10899 03af 74000000 		.4byte	.LVL39
 10900 03b3 0100     		.2byte	0x1
 10901 03b5 56       		.byte	0x56
 10902 03b6 74000000 		.4byte	.LVL39
 10903 03ba 7E000000 		.4byte	.LFE28
 10904 03be 0100     		.2byte	0x1
 10905 03c0 52       		.byte	0x52
 10906 03c1 00000000 		.4byte	0
 10907 03c5 00000000 		.4byte	0
 10908              	.LLST20:
ARM GAS  /tmp/ccZlncvZ.s 			page 193


 10909 03c9 00000000 		.4byte	.LVL31
 10910 03cd 45000000 		.4byte	.LVL36-1
 10911 03d1 0100     		.2byte	0x1
 10912 03d3 53       		.byte	0x53
 10913 03d4 45000000 		.4byte	.LVL36-1
 10914 03d8 74000000 		.4byte	.LVL39
 10915 03dc 0400     		.2byte	0x4
 10916 03de F3       		.byte	0xf3
 10917 03df 01       		.uleb128 0x1
 10918 03e0 53       		.byte	0x53
 10919 03e1 9F       		.byte	0x9f
 10920 03e2 74000000 		.4byte	.LVL39
 10921 03e6 7E000000 		.4byte	.LFE28
 10922 03ea 0100     		.2byte	0x1
 10923 03ec 53       		.byte	0x53
 10924 03ed 00000000 		.4byte	0
 10925 03f1 00000000 		.4byte	0
 10926              	.LLST22:
 10927 03f5 20000000 		.4byte	.LVL33
 10928 03f9 74000000 		.4byte	.LVL39
 10929 03fd 0100     		.2byte	0x1
 10930 03ff 58       		.byte	0x58
 10931 0400 00000000 		.4byte	0
 10932 0404 00000000 		.4byte	0
 10933              	.LLST23:
 10934 0408 00000000 		.4byte	.LVL40
 10935 040c 3A000000 		.4byte	.LVL46
 10936 0410 0100     		.2byte	0x1
 10937 0412 50       		.byte	0x50
 10938 0413 3A000000 		.4byte	.LVL46
 10939 0417 3E000000 		.4byte	.LVL47
 10940 041b 0400     		.2byte	0x4
 10941 041d F3       		.byte	0xf3
 10942 041e 01       		.uleb128 0x1
 10943 041f 50       		.byte	0x50
 10944 0420 9F       		.byte	0x9f
 10945 0421 3E000000 		.4byte	.LVL47
 10946 0425 44000000 		.4byte	.LVL48
 10947 0429 0100     		.2byte	0x1
 10948 042b 50       		.byte	0x50
 10949 042c 44000000 		.4byte	.LVL48
 10950 0430 B6000000 		.4byte	.LVL55
 10951 0434 0400     		.2byte	0x4
 10952 0436 F3       		.byte	0xf3
 10953 0437 01       		.uleb128 0x1
 10954 0438 50       		.byte	0x50
 10955 0439 9F       		.byte	0x9f
 10956 043a B6000000 		.4byte	.LVL55
 10957 043e DE000000 		.4byte	.LVL56
 10958 0442 0100     		.2byte	0x1
 10959 0444 50       		.byte	0x50
 10960 0445 DE000000 		.4byte	.LVL56
 10961 0449 EA000000 		.4byte	.LVL58
 10962 044d 0400     		.2byte	0x4
 10963 044f F3       		.byte	0xf3
 10964 0450 01       		.uleb128 0x1
 10965 0451 50       		.byte	0x50
ARM GAS  /tmp/ccZlncvZ.s 			page 194


 10966 0452 9F       		.byte	0x9f
 10967 0453 EA000000 		.4byte	.LVL58
 10968 0457 ED000000 		.4byte	.LVL59-1
 10969 045b 0100     		.2byte	0x1
 10970 045d 50       		.byte	0x50
 10971 045e ED000000 		.4byte	.LVL59-1
 10972 0462 F0000000 		.4byte	.LVL60
 10973 0466 0400     		.2byte	0x4
 10974 0468 F3       		.byte	0xf3
 10975 0469 01       		.uleb128 0x1
 10976 046a 50       		.byte	0x50
 10977 046b 9F       		.byte	0x9f
 10978 046c F0000000 		.4byte	.LVL60
 10979 0470 FC000000 		.4byte	.LFE26
 10980 0474 0100     		.2byte	0x1
 10981 0476 50       		.byte	0x50
 10982 0477 00000000 		.4byte	0
 10983 047b 00000000 		.4byte	0
 10984              	.LLST24:
 10985 047f 00000000 		.4byte	.LVL40
 10986 0483 3A000000 		.4byte	.LVL46
 10987 0487 0100     		.2byte	0x1
 10988 0489 51       		.byte	0x51
 10989 048a 3A000000 		.4byte	.LVL46
 10990 048e 3E000000 		.4byte	.LVL47
 10991 0492 0400     		.2byte	0x4
 10992 0494 F3       		.byte	0xf3
 10993 0495 01       		.uleb128 0x1
 10994 0496 51       		.byte	0x51
 10995 0497 9F       		.byte	0x9f
 10996 0498 3E000000 		.4byte	.LVL47
 10997 049c 44000000 		.4byte	.LVL48
 10998 04a0 0100     		.2byte	0x1
 10999 04a2 51       		.byte	0x51
 11000 04a3 44000000 		.4byte	.LVL48
 11001 04a7 B6000000 		.4byte	.LVL55
 11002 04ab 0400     		.2byte	0x4
 11003 04ad F3       		.byte	0xf3
 11004 04ae 01       		.uleb128 0x1
 11005 04af 51       		.byte	0x51
 11006 04b0 9F       		.byte	0x9f
 11007 04b1 B6000000 		.4byte	.LVL55
 11008 04b5 DE000000 		.4byte	.LVL56
 11009 04b9 0100     		.2byte	0x1
 11010 04bb 51       		.byte	0x51
 11011 04bc DE000000 		.4byte	.LVL56
 11012 04c0 EA000000 		.4byte	.LVL58
 11013 04c4 0400     		.2byte	0x4
 11014 04c6 F3       		.byte	0xf3
 11015 04c7 01       		.uleb128 0x1
 11016 04c8 51       		.byte	0x51
 11017 04c9 9F       		.byte	0x9f
 11018 04ca EA000000 		.4byte	.LVL58
 11019 04ce ED000000 		.4byte	.LVL59-1
 11020 04d2 0100     		.2byte	0x1
 11021 04d4 51       		.byte	0x51
 11022 04d5 ED000000 		.4byte	.LVL59-1
ARM GAS  /tmp/ccZlncvZ.s 			page 195


 11023 04d9 F0000000 		.4byte	.LVL60
 11024 04dd 0400     		.2byte	0x4
 11025 04df F3       		.byte	0xf3
 11026 04e0 01       		.uleb128 0x1
 11027 04e1 51       		.byte	0x51
 11028 04e2 9F       		.byte	0x9f
 11029 04e3 F0000000 		.4byte	.LVL60
 11030 04e7 FC000000 		.4byte	.LFE26
 11031 04eb 0100     		.2byte	0x1
 11032 04ed 51       		.byte	0x51
 11033 04ee 00000000 		.4byte	0
 11034 04f2 00000000 		.4byte	0
 11035              	.LLST25:
 11036 04f6 00000000 		.4byte	.LVL40
 11037 04fa 18000000 		.4byte	.LVL43
 11038 04fe 0100     		.2byte	0x1
 11039 0500 52       		.byte	0x52
 11040 0501 18000000 		.4byte	.LVL43
 11041 0505 36000000 		.4byte	.LVL45
 11042 0509 0400     		.2byte	0x4
 11043 050b F3       		.byte	0xf3
 11044 050c 01       		.uleb128 0x1
 11045 050d 52       		.byte	0x52
 11046 050e 9F       		.byte	0x9f
 11047 050f 36000000 		.4byte	.LVL45
 11048 0513 3A000000 		.4byte	.LVL46
 11049 0517 0100     		.2byte	0x1
 11050 0519 52       		.byte	0x52
 11051 051a 3A000000 		.4byte	.LVL46
 11052 051e F4000000 		.4byte	.LVL61
 11053 0522 0400     		.2byte	0x4
 11054 0524 F3       		.byte	0xf3
 11055 0525 01       		.uleb128 0x1
 11056 0526 52       		.byte	0x52
 11057 0527 9F       		.byte	0x9f
 11058 0528 F4000000 		.4byte	.LVL61
 11059 052c FC000000 		.4byte	.LFE26
 11060 0530 0100     		.2byte	0x1
 11061 0532 52       		.byte	0x52
 11062 0533 00000000 		.4byte	0
 11063 0537 00000000 		.4byte	0
 11064              	.LLST26:
 11065 053b 08000000 		.4byte	.LVL41
 11066 053f 3A000000 		.4byte	.LVL46
 11067 0543 0100     		.2byte	0x1
 11068 0545 54       		.byte	0x54
 11069 0546 3E000000 		.4byte	.LVL47
 11070 054a 62000000 		.4byte	.LVL49
 11071 054e 0100     		.2byte	0x1
 11072 0550 54       		.byte	0x54
 11073 0551 B6000000 		.4byte	.LVL55
 11074 0555 DE000000 		.4byte	.LVL56
 11075 0559 0100     		.2byte	0x1
 11076 055b 54       		.byte	0x54
 11077 055c EA000000 		.4byte	.LVL58
 11078 0560 F6000000 		.4byte	.LVL62
 11079 0564 0100     		.2byte	0x1
ARM GAS  /tmp/ccZlncvZ.s 			page 196


 11080 0566 54       		.byte	0x54
 11081 0567 F6000000 		.4byte	.LVL62
 11082 056b F8000000 		.4byte	.LVL63
 11083 056f 0200     		.2byte	0x2
 11084 0571 70       		.byte	0x70
 11085 0572 18       		.sleb128 24
 11086 0573 F8000000 		.4byte	.LVL63
 11087 0577 FC000000 		.4byte	.LFE26
 11088 057b 0300     		.2byte	0x3
 11089 057d 74       		.byte	0x74
 11090 057e 01       		.sleb128 1
 11091 057f 9F       		.byte	0x9f
 11092 0580 00000000 		.4byte	0
 11093 0584 00000000 		.4byte	0
 11094              	.LLST27:
 11095 0588 64000000 		.4byte	.LVL50
 11096 058c B6000000 		.4byte	.LVL55
 11097 0590 0100     		.2byte	0x1
 11098 0592 54       		.byte	0x54
 11099 0593 DE000000 		.4byte	.LVL56
 11100 0597 EA000000 		.4byte	.LVL58
 11101 059b 0100     		.2byte	0x1
 11102 059d 54       		.byte	0x54
 11103 059e 00000000 		.4byte	0
 11104 05a2 00000000 		.4byte	0
 11105              	.LLST28:
 11106 05a6 A6000000 		.4byte	.LVL53
 11107 05aa B6000000 		.4byte	.LVL55
 11108 05ae 0100     		.2byte	0x1
 11109 05b0 52       		.byte	0x52
 11110 05b1 00000000 		.4byte	0
 11111 05b5 00000000 		.4byte	0
 11112              	.LLST29:
 11113 05b9 0C000000 		.4byte	.LVL42
 11114 05bd 36000000 		.4byte	.LVL45
 11115 05c1 0100     		.2byte	0x1
 11116 05c3 54       		.byte	0x54
 11117 05c4 3E000000 		.4byte	.LVL47
 11118 05c8 62000000 		.4byte	.LVL49
 11119 05cc 0100     		.2byte	0x1
 11120 05ce 54       		.byte	0x54
 11121 05cf B6000000 		.4byte	.LVL55
 11122 05d3 DE000000 		.4byte	.LVL56
 11123 05d7 0100     		.2byte	0x1
 11124 05d9 54       		.byte	0x54
 11125 05da EA000000 		.4byte	.LVL58
 11126 05de F4000000 		.4byte	.LVL61
 11127 05e2 0100     		.2byte	0x1
 11128 05e4 54       		.byte	0x54
 11129 05e5 00000000 		.4byte	0
 11130 05e9 00000000 		.4byte	0
 11131              	.LLST30:
 11132 05ed 22000000 		.4byte	.LVL44
 11133 05f1 36000000 		.4byte	.LVL45
 11134 05f5 0100     		.2byte	0x1
 11135 05f7 58       		.byte	0x58
 11136 05f8 3E000000 		.4byte	.LVL47
ARM GAS  /tmp/ccZlncvZ.s 			page 197


 11137 05fc F4000000 		.4byte	.LVL61
 11138 0600 0100     		.2byte	0x1
 11139 0602 58       		.byte	0x58
 11140 0603 00000000 		.4byte	0
 11141 0607 00000000 		.4byte	0
 11142              	.LLST31:
 11143 060b 6C000000 		.4byte	.LVL51
 11144 060f A4000000 		.4byte	.LVL52
 11145 0613 0200     		.2byte	0x2
 11146 0615 30       		.byte	0x30
 11147 0616 9F       		.byte	0x9f
 11148 0617 00000000 		.4byte	0
 11149 061b 00000000 		.4byte	0
 11150              	.LLST32:
 11151 061f 00000000 		.4byte	.LVL64
 11152 0623 08000000 		.4byte	.LVL65
 11153 0627 0100     		.2byte	0x1
 11154 0629 50       		.byte	0x50
 11155 062a 08000000 		.4byte	.LVL65
 11156 062e CC000000 		.4byte	.LVL89
 11157 0632 0400     		.2byte	0x4
 11158 0634 F3       		.byte	0xf3
 11159 0635 01       		.uleb128 0x1
 11160 0636 50       		.byte	0x50
 11161 0637 9F       		.byte	0x9f
 11162 0638 CC000000 		.4byte	.LVL89
 11163 063c D1000000 		.4byte	.LVL90-1
 11164 0640 0100     		.2byte	0x1
 11165 0642 50       		.byte	0x50
 11166 0643 D1000000 		.4byte	.LVL90-1
 11167 0647 0E010000 		.4byte	.LFE32
 11168 064b 0400     		.2byte	0x4
 11169 064d F3       		.byte	0xf3
 11170 064e 01       		.uleb128 0x1
 11171 064f 50       		.byte	0x50
 11172 0650 9F       		.byte	0x9f
 11173 0651 00000000 		.4byte	0
 11174 0655 00000000 		.4byte	0
 11175              	.LLST33:
 11176 0659 0C000000 		.4byte	.LVL66
 11177 065d 2C000000 		.4byte	.LVL72
 11178 0661 0100     		.2byte	0x1
 11179 0663 54       		.byte	0x54
 11180 0664 30000000 		.4byte	.LVL73
 11181 0668 CC000000 		.4byte	.LVL89
 11182 066c 0100     		.2byte	0x1
 11183 066e 54       		.byte	0x54
 11184 066f D6000000 		.4byte	.LVL91
 11185 0673 0E010000 		.4byte	.LFE32
 11186 0677 0100     		.2byte	0x1
 11187 0679 54       		.byte	0x54
 11188 067a 00000000 		.4byte	0
 11189 067e 00000000 		.4byte	0
 11190              	.LLST34:
 11191 0682 0C000000 		.4byte	.LVL66
 11192 0686 1E000000 		.4byte	.LVL70
 11193 068a 0100     		.2byte	0x1
ARM GAS  /tmp/ccZlncvZ.s 			page 198


 11194 068c 53       		.byte	0x53
 11195 068d 30000000 		.4byte	.LVL73
 11196 0691 3C000000 		.4byte	.LVL74
 11197 0695 0100     		.2byte	0x1
 11198 0697 53       		.byte	0x53
 11199 0698 42000000 		.4byte	.LVL75
 11200 069c 4C000000 		.4byte	.LVL76
 11201 06a0 0100     		.2byte	0x1
 11202 06a2 53       		.byte	0x53
 11203 06a3 8C000000 		.4byte	.LVL78
 11204 06a7 98000000 		.4byte	.LVL80
 11205 06ab 0100     		.2byte	0x1
 11206 06ad 53       		.byte	0x53
 11207 06ae A0000000 		.4byte	.LVL81
 11208 06b2 A4000000 		.4byte	.LVL83
 11209 06b6 0100     		.2byte	0x1
 11210 06b8 53       		.byte	0x53
 11211 06b9 AE000000 		.4byte	.LVL84
 11212 06bd B2000000 		.4byte	.LVL85
 11213 06c1 0100     		.2byte	0x1
 11214 06c3 53       		.byte	0x53
 11215 06c4 B8000000 		.4byte	.LVL86
 11216 06c8 C4000000 		.4byte	.LVL87
 11217 06cc 0100     		.2byte	0x1
 11218 06ce 53       		.byte	0x53
 11219 06cf 00000000 		.4byte	0
 11220 06d3 00000000 		.4byte	0
 11221              	.LLST35:
 11222 06d7 0E000000 		.4byte	.LVL67
 11223 06db 21000000 		.4byte	.LVL71-1
 11224 06df 0100     		.2byte	0x1
 11225 06e1 52       		.byte	0x52
 11226 06e2 30000000 		.4byte	.LVL73
 11227 06e6 78000000 		.4byte	.LVL77
 11228 06ea 0100     		.2byte	0x1
 11229 06ec 52       		.byte	0x52
 11230 06ed 8C000000 		.4byte	.LVL78
 11231 06f1 C8000000 		.4byte	.LVL88
 11232 06f5 0100     		.2byte	0x1
 11233 06f7 52       		.byte	0x52
 11234 06f8 D6000000 		.4byte	.LVL91
 11235 06fc E8000000 		.4byte	.LVL92
 11236 0700 0100     		.2byte	0x1
 11237 0702 52       		.byte	0x52
 11238 0703 00000000 		.4byte	0
 11239 0707 00000000 		.4byte	0
 11240              	.LLST36:
 11241 070b 10000000 		.4byte	.LVL68
 11242 070f 21000000 		.4byte	.LVL71-1
 11243 0713 0100     		.2byte	0x1
 11244 0715 51       		.byte	0x51
 11245 0716 30000000 		.4byte	.LVL73
 11246 071a CC000000 		.4byte	.LVL89
 11247 071e 0100     		.2byte	0x1
 11248 0720 51       		.byte	0x51
 11249 0721 D6000000 		.4byte	.LVL91
 11250 0725 0E010000 		.4byte	.LFE32
ARM GAS  /tmp/ccZlncvZ.s 			page 199


 11251 0729 0100     		.2byte	0x1
 11252 072b 51       		.byte	0x51
 11253 072c 00000000 		.4byte	0
 11254 0730 00000000 		.4byte	0
 11255              	.LLST37:
 11256 0734 08000000 		.4byte	.LVL65
 11257 0738 18000000 		.4byte	.LVL69
 11258 073c 0100     		.2byte	0x1
 11259 073e 50       		.byte	0x50
 11260 073f 8C000000 		.4byte	.LVL78
 11261 0743 96000000 		.4byte	.LVL79
 11262 0747 0100     		.2byte	0x1
 11263 0749 50       		.byte	0x50
 11264 074a A0000000 		.4byte	.LVL81
 11265 074e A2000000 		.4byte	.LVL82
 11266 0752 0100     		.2byte	0x1
 11267 0754 50       		.byte	0x50
 11268 0755 00000000 		.4byte	0
 11269 0759 00000000 		.4byte	0
 11270              	.LLST38:
 11271 075d 00000000 		.4byte	.LVL93
 11272 0761 08000000 		.4byte	.LVL94
 11273 0765 0100     		.2byte	0x1
 11274 0767 50       		.byte	0x50
 11275 0768 08000000 		.4byte	.LVL94
 11276 076c B2000000 		.4byte	.LVL129
 11277 0770 0400     		.2byte	0x4
 11278 0772 F3       		.byte	0xf3
 11279 0773 01       		.uleb128 0x1
 11280 0774 50       		.byte	0x50
 11281 0775 9F       		.byte	0x9f
 11282 0776 B2000000 		.4byte	.LVL129
 11283 077a B7000000 		.4byte	.LVL130-1
 11284 077e 0100     		.2byte	0x1
 11285 0780 50       		.byte	0x50
 11286 0781 B7000000 		.4byte	.LVL130-1
 11287 0785 EC000000 		.4byte	.LFE34
 11288 0789 0400     		.2byte	0x4
 11289 078b F3       		.byte	0xf3
 11290 078c 01       		.uleb128 0x1
 11291 078d 50       		.byte	0x50
 11292 078e 9F       		.byte	0x9f
 11293 078f 00000000 		.4byte	0
 11294 0793 00000000 		.4byte	0
 11295              	.LLST39:
 11296 0797 0C000000 		.4byte	.LVL95
 11297 079b 2C000000 		.4byte	.LVL100
 11298 079f 0100     		.2byte	0x1
 11299 07a1 54       		.byte	0x54
 11300 07a2 30000000 		.4byte	.LVL101
 11301 07a6 B2000000 		.4byte	.LVL129
 11302 07aa 0100     		.2byte	0x1
 11303 07ac 54       		.byte	0x54
 11304 07ad BC000000 		.4byte	.LVL131
 11305 07b1 EC000000 		.4byte	.LFE34
 11306 07b5 0100     		.2byte	0x1
 11307 07b7 54       		.byte	0x54
ARM GAS  /tmp/ccZlncvZ.s 			page 200


 11308 07b8 00000000 		.4byte	0
 11309 07bc 00000000 		.4byte	0
 11310              	.LLST40:
 11311 07c0 0C000000 		.4byte	.LVL95
 11312 07c4 1E000000 		.4byte	.LVL98
 11313 07c8 0100     		.2byte	0x1
 11314 07ca 53       		.byte	0x53
 11315 07cb 1E000000 		.4byte	.LVL98
 11316 07cf 21000000 		.4byte	.LVL99-1
 11317 07d3 0200     		.2byte	0x2
 11318 07d5 70       		.byte	0x70
 11319 07d6 04       		.sleb128 4
 11320 07d7 30000000 		.4byte	.LVL101
 11321 07db 3A000000 		.4byte	.LVL102
 11322 07df 0100     		.2byte	0x1
 11323 07e1 53       		.byte	0x53
 11324 07e2 3A000000 		.4byte	.LVL102
 11325 07e6 40000000 		.4byte	.LVL104
 11326 07ea 0200     		.2byte	0x2
 11327 07ec 70       		.byte	0x70
 11328 07ed 04       		.sleb128 4
 11329 07ee 44000000 		.4byte	.LVL106
 11330 07f2 4C000000 		.4byte	.LVL107
 11331 07f6 0100     		.2byte	0x1
 11332 07f8 53       		.byte	0x53
 11333 07f9 4C000000 		.4byte	.LVL107
 11334 07fd 64000000 		.4byte	.LVL109
 11335 0801 0200     		.2byte	0x2
 11336 0803 70       		.byte	0x70
 11337 0804 04       		.sleb128 4
 11338 0805 68000000 		.4byte	.LVL111
 11339 0809 76000000 		.4byte	.LVL114
 11340 080d 0100     		.2byte	0x1
 11341 080f 53       		.byte	0x53
 11342 0810 7C000000 		.4byte	.LVL115
 11343 0814 8E000000 		.4byte	.LVL117
 11344 0818 0200     		.2byte	0x2
 11345 081a 70       		.byte	0x70
 11346 081b 04       		.sleb128 4
 11347 081c 92000000 		.4byte	.LVL119
 11348 0820 94000000 		.4byte	.LVL120
 11349 0824 0100     		.2byte	0x1
 11350 0826 53       		.byte	0x53
 11351 0827 94000000 		.4byte	.LVL120
 11352 082b A2000000 		.4byte	.LVL122
 11353 082f 0200     		.2byte	0x2
 11354 0831 70       		.byte	0x70
 11355 0832 04       		.sleb128 4
 11356 0833 A6000000 		.4byte	.LVL124
 11357 0837 A8000000 		.4byte	.LVL125
 11358 083b 0100     		.2byte	0x1
 11359 083d 53       		.byte	0x53
 11360 083e A8000000 		.4byte	.LVL125
 11361 0842 AE000000 		.4byte	.LVL127
 11362 0846 0200     		.2byte	0x2
 11363 0848 70       		.byte	0x70
 11364 0849 04       		.sleb128 4
ARM GAS  /tmp/ccZlncvZ.s 			page 201


 11365 084a BC000000 		.4byte	.LVL131
 11366 084e C8000000 		.4byte	.LVL133
 11367 0852 0200     		.2byte	0x2
 11368 0854 70       		.byte	0x70
 11369 0855 04       		.sleb128 4
 11370 0856 CC000000 		.4byte	.LVL135
 11371 085a D8000000 		.4byte	.LVL137
 11372 085e 0200     		.2byte	0x2
 11373 0860 70       		.byte	0x70
 11374 0861 04       		.sleb128 4
 11375 0862 DC000000 		.4byte	.LVL139
 11376 0866 E8000000 		.4byte	.LVL141
 11377 086a 0200     		.2byte	0x2
 11378 086c 70       		.byte	0x70
 11379 086d 04       		.sleb128 4
 11380 086e 00000000 		.4byte	0
 11381 0872 00000000 		.4byte	0
 11382              	.LLST41:
 11383 0876 0E000000 		.4byte	.LVL96
 11384 087a 21000000 		.4byte	.LVL99-1
 11385 087e 0100     		.2byte	0x1
 11386 0880 52       		.byte	0x52
 11387 0881 30000000 		.4byte	.LVL101
 11388 0885 3C000000 		.4byte	.LVL103
 11389 0889 0100     		.2byte	0x1
 11390 088b 52       		.byte	0x52
 11391 088c 3C000000 		.4byte	.LVL103
 11392 0890 40000000 		.4byte	.LVL104
 11393 0894 0200     		.2byte	0x2
 11394 0896 70       		.byte	0x70
 11395 0897 08       		.sleb128 8
 11396 0898 44000000 		.4byte	.LVL106
 11397 089c 62000000 		.4byte	.LVL108
 11398 08a0 0100     		.2byte	0x1
 11399 08a2 52       		.byte	0x52
 11400 08a3 62000000 		.4byte	.LVL108
 11401 08a7 64000000 		.4byte	.LVL109
 11402 08ab 0200     		.2byte	0x2
 11403 08ad 70       		.byte	0x70
 11404 08ae 08       		.sleb128 8
 11405 08af 68000000 		.4byte	.LVL111
 11406 08b3 74000000 		.4byte	.LVL113
 11407 08b7 0100     		.2byte	0x1
 11408 08b9 52       		.byte	0x52
 11409 08ba 7C000000 		.4byte	.LVL115
 11410 08be 88000000 		.4byte	.LVL116
 11411 08c2 0100     		.2byte	0x1
 11412 08c4 52       		.byte	0x52
 11413 08c5 88000000 		.4byte	.LVL116
 11414 08c9 8E000000 		.4byte	.LVL117
 11415 08cd 0200     		.2byte	0x2
 11416 08cf 70       		.byte	0x70
 11417 08d0 08       		.sleb128 8
 11418 08d1 92000000 		.4byte	.LVL119
 11419 08d5 9C000000 		.4byte	.LVL121
 11420 08d9 0100     		.2byte	0x1
 11421 08db 52       		.byte	0x52
ARM GAS  /tmp/ccZlncvZ.s 			page 202


 11422 08dc 9C000000 		.4byte	.LVL121
 11423 08e0 A2000000 		.4byte	.LVL122
 11424 08e4 0200     		.2byte	0x2
 11425 08e6 70       		.byte	0x70
 11426 08e7 08       		.sleb128 8
 11427 08e8 A6000000 		.4byte	.LVL124
 11428 08ec AA000000 		.4byte	.LVL126
 11429 08f0 0100     		.2byte	0x1
 11430 08f2 52       		.byte	0x52
 11431 08f3 AA000000 		.4byte	.LVL126
 11432 08f7 AE000000 		.4byte	.LVL127
 11433 08fb 0200     		.2byte	0x2
 11434 08fd 70       		.byte	0x70
 11435 08fe 08       		.sleb128 8
 11436 08ff BC000000 		.4byte	.LVL131
 11437 0903 C6000000 		.4byte	.LVL132
 11438 0907 0100     		.2byte	0x1
 11439 0909 52       		.byte	0x52
 11440 090a C6000000 		.4byte	.LVL132
 11441 090e C8000000 		.4byte	.LVL133
 11442 0912 0200     		.2byte	0x2
 11443 0914 70       		.byte	0x70
 11444 0915 08       		.sleb128 8
 11445 0916 CC000000 		.4byte	.LVL135
 11446 091a D2000000 		.4byte	.LVL136
 11447 091e 0100     		.2byte	0x1
 11448 0920 52       		.byte	0x52
 11449 0921 D2000000 		.4byte	.LVL136
 11450 0925 D8000000 		.4byte	.LVL137
 11451 0929 0200     		.2byte	0x2
 11452 092b 70       		.byte	0x70
 11453 092c 08       		.sleb128 8
 11454 092d DC000000 		.4byte	.LVL139
 11455 0931 E2000000 		.4byte	.LVL140
 11456 0935 0100     		.2byte	0x1
 11457 0937 52       		.byte	0x52
 11458 0938 E2000000 		.4byte	.LVL140
 11459 093c E8000000 		.4byte	.LVL141
 11460 0940 0200     		.2byte	0x2
 11461 0942 70       		.byte	0x70
 11462 0943 08       		.sleb128 8
 11463 0944 00000000 		.4byte	0
 11464 0948 00000000 		.4byte	0
 11465              	.LLST42:
 11466 094c 10000000 		.4byte	.LVL97
 11467 0950 2C000000 		.4byte	.LVL100
 11468 0954 0100     		.2byte	0x1
 11469 0956 55       		.byte	0x55
 11470 0957 30000000 		.4byte	.LVL101
 11471 095b B2000000 		.4byte	.LVL129
 11472 095f 0100     		.2byte	0x1
 11473 0961 55       		.byte	0x55
 11474 0962 BC000000 		.4byte	.LVL131
 11475 0966 EC000000 		.4byte	.LFE34
 11476 096a 0100     		.2byte	0x1
 11477 096c 55       		.byte	0x55
 11478 096d 00000000 		.4byte	0
ARM GAS  /tmp/ccZlncvZ.s 			page 203


 11479 0971 00000000 		.4byte	0
 11480              	.LLST43:
 11481 0975 08000000 		.4byte	.LVL94
 11482 0979 21000000 		.4byte	.LVL99-1
 11483 097d 0100     		.2byte	0x1
 11484 097f 50       		.byte	0x50
 11485 0980 30000000 		.4byte	.LVL101
 11486 0984 42000000 		.4byte	.LVL105
 11487 0988 0100     		.2byte	0x1
 11488 098a 50       		.byte	0x50
 11489 098b 44000000 		.4byte	.LVL106
 11490 098f 66000000 		.4byte	.LVL110
 11491 0993 0100     		.2byte	0x1
 11492 0995 50       		.byte	0x50
 11493 0996 68000000 		.4byte	.LVL111
 11494 099a 72000000 		.4byte	.LVL112
 11495 099e 0100     		.2byte	0x1
 11496 09a0 50       		.byte	0x50
 11497 09a1 7C000000 		.4byte	.LVL115
 11498 09a5 90000000 		.4byte	.LVL118
 11499 09a9 0100     		.2byte	0x1
 11500 09ab 50       		.byte	0x50
 11501 09ac 92000000 		.4byte	.LVL119
 11502 09b0 A4000000 		.4byte	.LVL123
 11503 09b4 0100     		.2byte	0x1
 11504 09b6 50       		.byte	0x50
 11505 09b7 A6000000 		.4byte	.LVL124
 11506 09bb B0000000 		.4byte	.LVL128
 11507 09bf 0100     		.2byte	0x1
 11508 09c1 50       		.byte	0x50
 11509 09c2 BC000000 		.4byte	.LVL131
 11510 09c6 CA000000 		.4byte	.LVL134
 11511 09ca 0100     		.2byte	0x1
 11512 09cc 50       		.byte	0x50
 11513 09cd CC000000 		.4byte	.LVL135
 11514 09d1 DA000000 		.4byte	.LVL138
 11515 09d5 0100     		.2byte	0x1
 11516 09d7 50       		.byte	0x50
 11517 09d8 DC000000 		.4byte	.LVL139
 11518 09dc EA000000 		.4byte	.LVL142
 11519 09e0 0100     		.2byte	0x1
 11520 09e2 50       		.byte	0x50
 11521 09e3 00000000 		.4byte	0
 11522 09e7 00000000 		.4byte	0
 11523              	.LLST44:
 11524 09eb 00000000 		.4byte	.LVL143
 11525 09ef 12000000 		.4byte	.LVL144
 11526 09f3 0100     		.2byte	0x1
 11527 09f5 50       		.byte	0x50
 11528 09f6 12000000 		.4byte	.LVL144
 11529 09fa 6A010000 		.4byte	.LFE12
 11530 09fe 0400     		.2byte	0x4
 11531 0a00 F3       		.byte	0xf3
 11532 0a01 01       		.uleb128 0x1
 11533 0a02 50       		.byte	0x50
 11534 0a03 9F       		.byte	0x9f
 11535 0a04 00000000 		.4byte	0
ARM GAS  /tmp/ccZlncvZ.s 			page 204


 11536 0a08 00000000 		.4byte	0
 11537              	.LLST45:
 11538 0a0c 00000000 		.4byte	.LVL143
 11539 0a10 3E000000 		.4byte	.LVL146
 11540 0a14 0100     		.2byte	0x1
 11541 0a16 51       		.byte	0x51
 11542 0a17 3E000000 		.4byte	.LVL146
 11543 0a1b 58000000 		.4byte	.LVL149
 11544 0a1f 0100     		.2byte	0x1
 11545 0a21 58       		.byte	0x58
 11546 0a22 58000000 		.4byte	.LVL149
 11547 0a26 5C000000 		.4byte	.LVL150
 11548 0a2a 0100     		.2byte	0x1
 11549 0a2c 51       		.byte	0x51
 11550 0a2d 5C000000 		.4byte	.LVL150
 11551 0a31 6A010000 		.4byte	.LFE12
 11552 0a35 0100     		.2byte	0x1
 11553 0a37 58       		.byte	0x58
 11554 0a38 00000000 		.4byte	0
 11555 0a3c 00000000 		.4byte	0
 11556              	.LLST46:
 11557 0a40 00000000 		.4byte	.LVL143
 11558 0a44 41000000 		.4byte	.LVL147-1
 11559 0a48 0100     		.2byte	0x1
 11560 0a4a 52       		.byte	0x52
 11561 0a4b 41000000 		.4byte	.LVL147-1
 11562 0a4f 58000000 		.4byte	.LVL149
 11563 0a53 0100     		.2byte	0x1
 11564 0a55 55       		.byte	0x55
 11565 0a56 58000000 		.4byte	.LVL149
 11566 0a5a 5C000000 		.4byte	.LVL150
 11567 0a5e 0100     		.2byte	0x1
 11568 0a60 52       		.byte	0x52
 11569 0a61 5C000000 		.4byte	.LVL150
 11570 0a65 62000000 		.4byte	.LVL151
 11571 0a69 0400     		.2byte	0x4
 11572 0a6b F3       		.byte	0xf3
 11573 0a6c 01       		.uleb128 0x1
 11574 0a6d 52       		.byte	0x52
 11575 0a6e 9F       		.byte	0x9f
 11576 0a6f 62000000 		.4byte	.LVL151
 11577 0a73 D0000000 		.4byte	.LVL158
 11578 0a77 0100     		.2byte	0x1
 11579 0a79 55       		.byte	0x55
 11580 0a7a D0000000 		.4byte	.LVL158
 11581 0a7e 16010000 		.4byte	.LVL164
 11582 0a82 0400     		.2byte	0x4
 11583 0a84 F3       		.byte	0xf3
 11584 0a85 01       		.uleb128 0x1
 11585 0a86 52       		.byte	0x52
 11586 0a87 9F       		.byte	0x9f
 11587 0a88 16010000 		.4byte	.LVL164
 11588 0a8c 5C010000 		.4byte	.LVL173
 11589 0a90 0100     		.2byte	0x1
 11590 0a92 55       		.byte	0x55
 11591 0a93 5C010000 		.4byte	.LVL173
 11592 0a97 6A010000 		.4byte	.LFE12
ARM GAS  /tmp/ccZlncvZ.s 			page 205


 11593 0a9b 0400     		.2byte	0x4
 11594 0a9d F3       		.byte	0xf3
 11595 0a9e 01       		.uleb128 0x1
 11596 0a9f 52       		.byte	0x52
 11597 0aa0 9F       		.byte	0x9f
 11598 0aa1 00000000 		.4byte	0
 11599 0aa5 00000000 		.4byte	0
 11600              	.LLST47:
 11601 0aa9 F8000000 		.4byte	.LVL161
 11602 0aad 10010000 		.4byte	.LVL162
 11603 0ab1 0100     		.2byte	0x1
 11604 0ab3 54       		.byte	0x54
 11605 0ab4 00000000 		.4byte	0
 11606 0ab8 00000000 		.4byte	0
 11607              	.LLST48:
 11608 0abc D0000000 		.4byte	.LVL158
 11609 0ac0 D6000000 		.4byte	.LVL159
 11610 0ac4 0100     		.2byte	0x1
 11611 0ac6 50       		.byte	0x50
 11612 0ac7 D6000000 		.4byte	.LVL159
 11613 0acb 10010000 		.4byte	.LVL162
 11614 0acf 0100     		.2byte	0x1
 11615 0ad1 55       		.byte	0x55
 11616 0ad2 10010000 		.4byte	.LVL162
 11617 0ad6 13010000 		.4byte	.LVL163-1
 11618 0ada 0100     		.2byte	0x1
 11619 0adc 50       		.byte	0x50
 11620 0add 13010000 		.4byte	.LVL163-1
 11621 0ae1 16010000 		.4byte	.LVL164
 11622 0ae5 0100     		.2byte	0x1
 11623 0ae7 55       		.byte	0x55
 11624 0ae8 5C010000 		.4byte	.LVL173
 11625 0aec 5E010000 		.4byte	.LVL174
 11626 0af0 0100     		.2byte	0x1
 11627 0af2 50       		.byte	0x50
 11628 0af3 5E010000 		.4byte	.LVL174
 11629 0af7 6A010000 		.4byte	.LFE12
 11630 0afb 0100     		.2byte	0x1
 11631 0afd 55       		.byte	0x55
 11632 0afe 00000000 		.4byte	0
 11633 0b02 00000000 		.4byte	0
 11634              	.LLST49:
 11635 0b06 42000000 		.4byte	.LVL147
 11636 0b0a 50000000 		.4byte	.LVL148
 11637 0b0e 0100     		.2byte	0x1
 11638 0b10 50       		.byte	0x50
 11639 0b11 62000000 		.4byte	.LVL151
 11640 0b15 64000000 		.4byte	.LVL152
 11641 0b19 0100     		.2byte	0x1
 11642 0b1b 50       		.byte	0x50
 11643 0b1c 7C000000 		.4byte	.LVL153
 11644 0b20 8C000000 		.4byte	.LVL154
 11645 0b24 0100     		.2byte	0x1
 11646 0b26 50       		.byte	0x50
 11647 0b27 1E010000 		.4byte	.LVL166
 11648 0b2b 21010000 		.4byte	.LVL167-1
 11649 0b2f 0100     		.2byte	0x1
ARM GAS  /tmp/ccZlncvZ.s 			page 206


 11650 0b31 50       		.byte	0x50
 11651 0b32 24010000 		.4byte	.LVL168
 11652 0b36 26010000 		.4byte	.LVL169
 11653 0b3a 0100     		.2byte	0x1
 11654 0b3c 50       		.byte	0x50
 11655 0b3d 48010000 		.4byte	.LVL171
 11656 0b41 4A010000 		.4byte	.LVL172
 11657 0b45 0100     		.2byte	0x1
 11658 0b47 50       		.byte	0x50
 11659 0b48 00000000 		.4byte	0
 11660 0b4c 00000000 		.4byte	0
 11661              	.LLST51:
 11662 0b50 22000000 		.4byte	.LVL145
 11663 0b54 58000000 		.4byte	.LVL149
 11664 0b58 0100     		.2byte	0x1
 11665 0b5a 56       		.byte	0x56
 11666 0b5b 62000000 		.4byte	.LVL151
 11667 0b5f 6A010000 		.4byte	.LFE12
 11668 0b63 0100     		.2byte	0x1
 11669 0b65 56       		.byte	0x56
 11670 0b66 00000000 		.4byte	0
 11671 0b6a 00000000 		.4byte	0
 11672              	.LLST52:
 11673 0b6e 00000000 		.4byte	.LVL176
 11674 0b72 0C000000 		.4byte	.LVL177
 11675 0b76 0100     		.2byte	0x1
 11676 0b78 50       		.byte	0x50
 11677 0b79 0C000000 		.4byte	.LVL177
 11678 0b7d 7E000000 		.4byte	.LFE13
 11679 0b81 0400     		.2byte	0x4
 11680 0b83 F3       		.byte	0xf3
 11681 0b84 01       		.uleb128 0x1
 11682 0b85 50       		.byte	0x50
 11683 0b86 9F       		.byte	0x9f
 11684 0b87 00000000 		.4byte	0
 11685 0b8b 00000000 		.4byte	0
 11686              	.LLST53:
 11687 0b8f 00000000 		.4byte	.LVL176
 11688 0b93 37000000 		.4byte	.LVL181-1
 11689 0b97 0100     		.2byte	0x1
 11690 0b99 51       		.byte	0x51
 11691 0b9a 37000000 		.4byte	.LVL181-1
 11692 0b9e 4A000000 		.4byte	.LVL183
 11693 0ba2 0400     		.2byte	0x4
 11694 0ba4 F3       		.byte	0xf3
 11695 0ba5 01       		.uleb128 0x1
 11696 0ba6 51       		.byte	0x51
 11697 0ba7 9F       		.byte	0x9f
 11698 0ba8 4A000000 		.4byte	.LVL183
 11699 0bac 4E000000 		.4byte	.LVL184
 11700 0bb0 0100     		.2byte	0x1
 11701 0bb2 51       		.byte	0x51
 11702 0bb3 4E000000 		.4byte	.LVL184
 11703 0bb7 52000000 		.4byte	.LVL185
 11704 0bbb 0400     		.2byte	0x4
 11705 0bbd F3       		.byte	0xf3
 11706 0bbe 01       		.uleb128 0x1
ARM GAS  /tmp/ccZlncvZ.s 			page 207


 11707 0bbf 51       		.byte	0x51
 11708 0bc0 9F       		.byte	0x9f
 11709 0bc1 52000000 		.4byte	.LVL185
 11710 0bc5 55000000 		.4byte	.LVL186-1
 11711 0bc9 0100     		.2byte	0x1
 11712 0bcb 51       		.byte	0x51
 11713 0bcc 55000000 		.4byte	.LVL186-1
 11714 0bd0 7E000000 		.4byte	.LFE13
 11715 0bd4 0400     		.2byte	0x4
 11716 0bd6 F3       		.byte	0xf3
 11717 0bd7 01       		.uleb128 0x1
 11718 0bd8 51       		.byte	0x51
 11719 0bd9 9F       		.byte	0x9f
 11720 0bda 00000000 		.4byte	0
 11721 0bde 00000000 		.4byte	0
 11722              	.LLST54:
 11723 0be2 00000000 		.4byte	.LVL176
 11724 0be6 37000000 		.4byte	.LVL181-1
 11725 0bea 0100     		.2byte	0x1
 11726 0bec 52       		.byte	0x52
 11727 0bed 37000000 		.4byte	.LVL181-1
 11728 0bf1 4A000000 		.4byte	.LVL183
 11729 0bf5 0400     		.2byte	0x4
 11730 0bf7 F3       		.byte	0xf3
 11731 0bf8 01       		.uleb128 0x1
 11732 0bf9 52       		.byte	0x52
 11733 0bfa 9F       		.byte	0x9f
 11734 0bfb 4A000000 		.4byte	.LVL183
 11735 0bff 4E000000 		.4byte	.LVL184
 11736 0c03 0100     		.2byte	0x1
 11737 0c05 52       		.byte	0x52
 11738 0c06 4E000000 		.4byte	.LVL184
 11739 0c0a 52000000 		.4byte	.LVL185
 11740 0c0e 0400     		.2byte	0x4
 11741 0c10 F3       		.byte	0xf3
 11742 0c11 01       		.uleb128 0x1
 11743 0c12 52       		.byte	0x52
 11744 0c13 9F       		.byte	0x9f
 11745 0c14 52000000 		.4byte	.LVL185
 11746 0c18 55000000 		.4byte	.LVL186-1
 11747 0c1c 0100     		.2byte	0x1
 11748 0c1e 52       		.byte	0x52
 11749 0c1f 55000000 		.4byte	.LVL186-1
 11750 0c23 7E000000 		.4byte	.LFE13
 11751 0c27 0400     		.2byte	0x4
 11752 0c29 F3       		.byte	0xf3
 11753 0c2a 01       		.uleb128 0x1
 11754 0c2b 52       		.byte	0x52
 11755 0c2c 9F       		.byte	0x9f
 11756 0c2d 00000000 		.4byte	0
 11757 0c31 00000000 		.4byte	0
 11758              	.LLST55:
 11759 0c35 34000000 		.4byte	.LVL180
 11760 0c39 37000000 		.4byte	.LVL181-1
 11761 0c3d 0200     		.2byte	0x2
 11762 0c3f 71       		.byte	0x71
 11763 0c40 02       		.sleb128 2
ARM GAS  /tmp/ccZlncvZ.s 			page 208


 11764 0c41 00000000 		.4byte	0
 11765 0c45 00000000 		.4byte	0
 11766              	.LLST56:
 11767 0c49 42000000 		.4byte	.LVL182
 11768 0c4d 4A000000 		.4byte	.LVL183
 11769 0c51 0100     		.2byte	0x1
 11770 0c53 50       		.byte	0x50
 11771 0c54 62000000 		.4byte	.LVL187
 11772 0c58 64000000 		.4byte	.LVL188
 11773 0c5c 0100     		.2byte	0x1
 11774 0c5e 50       		.byte	0x50
 11775 0c5f 00000000 		.4byte	0
 11776 0c63 00000000 		.4byte	0
 11777              	.LLST57:
 11778 0c67 2A000000 		.4byte	.LVL179
 11779 0c6b 37000000 		.4byte	.LVL181-1
 11780 0c6f 0100     		.2byte	0x1
 11781 0c71 51       		.byte	0x51
 11782 0c72 37000000 		.4byte	.LVL181-1
 11783 0c76 4A000000 		.4byte	.LVL183
 11784 0c7a 0400     		.2byte	0x4
 11785 0c7c F3       		.byte	0xf3
 11786 0c7d 01       		.uleb128 0x1
 11787 0c7e 51       		.byte	0x51
 11788 0c7f 9F       		.byte	0x9f
 11789 0c80 62000000 		.4byte	.LVL187
 11790 0c84 7E000000 		.4byte	.LFE13
 11791 0c88 0400     		.2byte	0x4
 11792 0c8a F3       		.byte	0xf3
 11793 0c8b 01       		.uleb128 0x1
 11794 0c8c 51       		.byte	0x51
 11795 0c8d 9F       		.byte	0x9f
 11796 0c8e 00000000 		.4byte	0
 11797 0c92 00000000 		.4byte	0
 11798              	.LLST59:
 11799 0c96 18000000 		.4byte	.LVL178
 11800 0c9a 4A000000 		.4byte	.LVL183
 11801 0c9e 0100     		.2byte	0x1
 11802 0ca0 56       		.byte	0x56
 11803 0ca1 52000000 		.4byte	.LVL185
 11804 0ca5 7E000000 		.4byte	.LFE13
 11805 0ca9 0100     		.2byte	0x1
 11806 0cab 56       		.byte	0x56
 11807 0cac 00000000 		.4byte	0
 11808 0cb0 00000000 		.4byte	0
 11809              	.LLST60:
 11810 0cb4 00000000 		.4byte	.LVL189
 11811 0cb8 0C000000 		.4byte	.LVL190
 11812 0cbc 0100     		.2byte	0x1
 11813 0cbe 50       		.byte	0x50
 11814 0cbf 0C000000 		.4byte	.LVL190
 11815 0cc3 5A000000 		.4byte	.LFE14
 11816 0cc7 0400     		.2byte	0x4
 11817 0cc9 F3       		.byte	0xf3
 11818 0cca 01       		.uleb128 0x1
 11819 0ccb 50       		.byte	0x50
 11820 0ccc 9F       		.byte	0x9f
ARM GAS  /tmp/ccZlncvZ.s 			page 209


 11821 0ccd 00000000 		.4byte	0
 11822 0cd1 00000000 		.4byte	0
 11823              	.LLST61:
 11824 0cd5 00000000 		.4byte	.LVL189
 11825 0cd9 22000000 		.4byte	.LVL192
 11826 0cdd 0200     		.2byte	0x2
 11827 0cdf 30       		.byte	0x30
 11828 0ce0 9F       		.byte	0x9f
 11829 0ce1 22000000 		.4byte	.LVL192
 11830 0ce5 44000000 		.4byte	.LVL196
 11831 0ce9 0B00     		.2byte	0xb
 11832 0ceb 78       		.byte	0x78
 11833 0cec 00       		.sleb128 0
 11834 0ced 08       		.byte	0x8
 11835 0cee FF       		.byte	0xff
 11836 0cef 1A       		.byte	0x1a
 11837 0cf0 40       		.byte	0x40
 11838 0cf1 29       		.byte	0x29
 11839 0cf2 08       		.byte	0x8
 11840 0cf3 FF       		.byte	0xff
 11841 0cf4 1A       		.byte	0x1a
 11842 0cf5 9F       		.byte	0x9f
 11843 0cf6 44000000 		.4byte	.LVL196
 11844 0cfa 4C000000 		.4byte	.LVL197
 11845 0cfe 0200     		.2byte	0x2
 11846 0d00 30       		.byte	0x30
 11847 0d01 9F       		.byte	0x9f
 11848 0d02 4C000000 		.4byte	.LVL197
 11849 0d06 5A000000 		.4byte	.LFE14
 11850 0d0a 0B00     		.2byte	0xb
 11851 0d0c 78       		.byte	0x78
 11852 0d0d 00       		.sleb128 0
 11853 0d0e 08       		.byte	0x8
 11854 0d0f FF       		.byte	0xff
 11855 0d10 1A       		.byte	0x1a
 11856 0d11 40       		.byte	0x40
 11857 0d12 29       		.byte	0x29
 11858 0d13 08       		.byte	0x8
 11859 0d14 FF       		.byte	0xff
 11860 0d15 1A       		.byte	0x1a
 11861 0d16 9F       		.byte	0x9f
 11862 0d17 00000000 		.4byte	0
 11863 0d1b 00000000 		.4byte	0
 11864              	.LLST63:
 11865 0d1f 18000000 		.4byte	.LVL191
 11866 0d23 44000000 		.4byte	.LVL196
 11867 0d27 0100     		.2byte	0x1
 11868 0d29 56       		.byte	0x56
 11869 0d2a 4C000000 		.4byte	.LVL197
 11870 0d2e 5A000000 		.4byte	.LFE14
 11871 0d32 0100     		.2byte	0x1
 11872 0d34 56       		.byte	0x56
 11873 0d35 00000000 		.4byte	0
 11874 0d39 00000000 		.4byte	0
 11875              	.LLST64:
 11876 0d3d 26000000 		.4byte	.LVL193
 11877 0d41 44000000 		.4byte	.LVL196
ARM GAS  /tmp/ccZlncvZ.s 			page 210


 11878 0d45 0B00     		.2byte	0xb
 11879 0d47 78       		.byte	0x78
 11880 0d48 00       		.sleb128 0
 11881 0d49 08       		.byte	0x8
 11882 0d4a FF       		.byte	0xff
 11883 0d4b 1A       		.byte	0x1a
 11884 0d4c 40       		.byte	0x40
 11885 0d4d 29       		.byte	0x29
 11886 0d4e 08       		.byte	0x8
 11887 0d4f FF       		.byte	0xff
 11888 0d50 1A       		.byte	0x1a
 11889 0d51 9F       		.byte	0x9f
 11890 0d52 4C000000 		.4byte	.LVL197
 11891 0d56 5A000000 		.4byte	.LFE14
 11892 0d5a 0B00     		.2byte	0xb
 11893 0d5c 78       		.byte	0x78
 11894 0d5d 00       		.sleb128 0
 11895 0d5e 08       		.byte	0x8
 11896 0d5f FF       		.byte	0xff
 11897 0d60 1A       		.byte	0x1a
 11898 0d61 40       		.byte	0x40
 11899 0d62 29       		.byte	0x29
 11900 0d63 08       		.byte	0x8
 11901 0d64 FF       		.byte	0xff
 11902 0d65 1A       		.byte	0x1a
 11903 0d66 9F       		.byte	0x9f
 11904 0d67 00000000 		.4byte	0
 11905 0d6b 00000000 		.4byte	0
 11906              	.LLST65:
 11907 0d6f 26000000 		.4byte	.LVL193
 11908 0d73 44000000 		.4byte	.LVL196
 11909 0d77 0100     		.2byte	0x1
 11910 0d79 56       		.byte	0x56
 11911 0d7a 4C000000 		.4byte	.LVL197
 11912 0d7e 5A000000 		.4byte	.LFE14
 11913 0d82 0100     		.2byte	0x1
 11914 0d84 56       		.byte	0x56
 11915 0d85 00000000 		.4byte	0
 11916 0d89 00000000 		.4byte	0
 11917              	.LLST66:
 11918 0d8d 28000000 		.4byte	.LVL194
 11919 0d91 3D000000 		.4byte	.LVL195-1
 11920 0d95 0100     		.2byte	0x1
 11921 0d97 50       		.byte	0x50
 11922 0d98 4C000000 		.4byte	.LVL197
 11923 0d9c 53000000 		.4byte	.LVL199-1
 11924 0da0 0100     		.2byte	0x1
 11925 0da2 50       		.byte	0x50
 11926 0da3 00000000 		.4byte	0
 11927 0da7 00000000 		.4byte	0
 11928              	.LLST67:
 11929 0dab 00000000 		.4byte	.LVL200
 11930 0daf 0C000000 		.4byte	.LVL201
 11931 0db3 0100     		.2byte	0x1
 11932 0db5 50       		.byte	0x50
 11933 0db6 0C000000 		.4byte	.LVL201
 11934 0dba 7E000000 		.4byte	.LFE15
ARM GAS  /tmp/ccZlncvZ.s 			page 211


 11935 0dbe 0400     		.2byte	0x4
 11936 0dc0 F3       		.byte	0xf3
 11937 0dc1 01       		.uleb128 0x1
 11938 0dc2 50       		.byte	0x50
 11939 0dc3 9F       		.byte	0x9f
 11940 0dc4 00000000 		.4byte	0
 11941 0dc8 00000000 		.4byte	0
 11942              	.LLST68:
 11943 0dcc 00000000 		.4byte	.LVL200
 11944 0dd0 37000000 		.4byte	.LVL205-1
 11945 0dd4 0100     		.2byte	0x1
 11946 0dd6 51       		.byte	0x51
 11947 0dd7 37000000 		.4byte	.LVL205-1
 11948 0ddb 4A000000 		.4byte	.LVL207
 11949 0ddf 0400     		.2byte	0x4
 11950 0de1 F3       		.byte	0xf3
 11951 0de2 01       		.uleb128 0x1
 11952 0de3 51       		.byte	0x51
 11953 0de4 9F       		.byte	0x9f
 11954 0de5 4A000000 		.4byte	.LVL207
 11955 0de9 4E000000 		.4byte	.LVL208
 11956 0ded 0100     		.2byte	0x1
 11957 0def 51       		.byte	0x51
 11958 0df0 4E000000 		.4byte	.LVL208
 11959 0df4 52000000 		.4byte	.LVL209
 11960 0df8 0400     		.2byte	0x4
 11961 0dfa F3       		.byte	0xf3
 11962 0dfb 01       		.uleb128 0x1
 11963 0dfc 51       		.byte	0x51
 11964 0dfd 9F       		.byte	0x9f
 11965 0dfe 52000000 		.4byte	.LVL209
 11966 0e02 55000000 		.4byte	.LVL210-1
 11967 0e06 0100     		.2byte	0x1
 11968 0e08 51       		.byte	0x51
 11969 0e09 55000000 		.4byte	.LVL210-1
 11970 0e0d 7E000000 		.4byte	.LFE15
 11971 0e11 0400     		.2byte	0x4
 11972 0e13 F3       		.byte	0xf3
 11973 0e14 01       		.uleb128 0x1
 11974 0e15 51       		.byte	0x51
 11975 0e16 9F       		.byte	0x9f
 11976 0e17 00000000 		.4byte	0
 11977 0e1b 00000000 		.4byte	0
 11978              	.LLST69:
 11979 0e1f 00000000 		.4byte	.LVL200
 11980 0e23 37000000 		.4byte	.LVL205-1
 11981 0e27 0100     		.2byte	0x1
 11982 0e29 52       		.byte	0x52
 11983 0e2a 37000000 		.4byte	.LVL205-1
 11984 0e2e 4A000000 		.4byte	.LVL207
 11985 0e32 0400     		.2byte	0x4
 11986 0e34 F3       		.byte	0xf3
 11987 0e35 01       		.uleb128 0x1
 11988 0e36 52       		.byte	0x52
 11989 0e37 9F       		.byte	0x9f
 11990 0e38 4A000000 		.4byte	.LVL207
 11991 0e3c 4E000000 		.4byte	.LVL208
ARM GAS  /tmp/ccZlncvZ.s 			page 212


 11992 0e40 0100     		.2byte	0x1
 11993 0e42 52       		.byte	0x52
 11994 0e43 4E000000 		.4byte	.LVL208
 11995 0e47 52000000 		.4byte	.LVL209
 11996 0e4b 0400     		.2byte	0x4
 11997 0e4d F3       		.byte	0xf3
 11998 0e4e 01       		.uleb128 0x1
 11999 0e4f 52       		.byte	0x52
 12000 0e50 9F       		.byte	0x9f
 12001 0e51 52000000 		.4byte	.LVL209
 12002 0e55 55000000 		.4byte	.LVL210-1
 12003 0e59 0100     		.2byte	0x1
 12004 0e5b 52       		.byte	0x52
 12005 0e5c 55000000 		.4byte	.LVL210-1
 12006 0e60 7E000000 		.4byte	.LFE15
 12007 0e64 0400     		.2byte	0x4
 12008 0e66 F3       		.byte	0xf3
 12009 0e67 01       		.uleb128 0x1
 12010 0e68 52       		.byte	0x52
 12011 0e69 9F       		.byte	0x9f
 12012 0e6a 00000000 		.4byte	0
 12013 0e6e 00000000 		.4byte	0
 12014              	.LLST70:
 12015 0e72 42000000 		.4byte	.LVL206
 12016 0e76 4A000000 		.4byte	.LVL207
 12017 0e7a 0100     		.2byte	0x1
 12018 0e7c 50       		.byte	0x50
 12019 0e7d 62000000 		.4byte	.LVL211
 12020 0e81 64000000 		.4byte	.LVL212
 12021 0e85 0100     		.2byte	0x1
 12022 0e87 50       		.byte	0x50
 12023 0e88 00000000 		.4byte	0
 12024 0e8c 00000000 		.4byte	0
 12025              	.LLST71:
 12026 0e90 2A000000 		.4byte	.LVL203
 12027 0e94 37000000 		.4byte	.LVL205-1
 12028 0e98 0100     		.2byte	0x1
 12029 0e9a 51       		.byte	0x51
 12030 0e9b 37000000 		.4byte	.LVL205-1
 12031 0e9f 4A000000 		.4byte	.LVL207
 12032 0ea3 0400     		.2byte	0x4
 12033 0ea5 F3       		.byte	0xf3
 12034 0ea6 01       		.uleb128 0x1
 12035 0ea7 51       		.byte	0x51
 12036 0ea8 9F       		.byte	0x9f
 12037 0ea9 62000000 		.4byte	.LVL211
 12038 0ead 7E000000 		.4byte	.LFE15
 12039 0eb1 0400     		.2byte	0x4
 12040 0eb3 F3       		.byte	0xf3
 12041 0eb4 01       		.uleb128 0x1
 12042 0eb5 51       		.byte	0x51
 12043 0eb6 9F       		.byte	0x9f
 12044 0eb7 00000000 		.4byte	0
 12045 0ebb 00000000 		.4byte	0
 12046              	.LLST73:
 12047 0ebf 18000000 		.4byte	.LVL202
 12048 0ec3 4A000000 		.4byte	.LVL207
ARM GAS  /tmp/ccZlncvZ.s 			page 213


 12049 0ec7 0100     		.2byte	0x1
 12050 0ec9 55       		.byte	0x55
 12051 0eca 52000000 		.4byte	.LVL209
 12052 0ece 7E000000 		.4byte	.LFE15
 12053 0ed2 0100     		.2byte	0x1
 12054 0ed4 55       		.byte	0x55
 12055 0ed5 00000000 		.4byte	0
 12056 0ed9 00000000 		.4byte	0
 12057              	.LLST74:
 12058 0edd 34000000 		.4byte	.LVL204
 12059 0ee1 37000000 		.4byte	.LVL205-1
 12060 0ee5 0200     		.2byte	0x2
 12061 0ee7 71       		.byte	0x71
 12062 0ee8 02       		.sleb128 2
 12063 0ee9 00000000 		.4byte	0
 12064 0eed 00000000 		.4byte	0
 12065              	.LLST75:
 12066 0ef1 00000000 		.4byte	.LVL213
 12067 0ef5 0A000000 		.4byte	.LVL214
 12068 0ef9 0100     		.2byte	0x1
 12069 0efb 50       		.byte	0x50
 12070 0efc 0A000000 		.4byte	.LVL214
 12071 0f00 62000000 		.4byte	.LFE16
 12072 0f04 0400     		.2byte	0x4
 12073 0f06 F3       		.byte	0xf3
 12074 0f07 01       		.uleb128 0x1
 12075 0f08 50       		.byte	0x50
 12076 0f09 9F       		.byte	0x9f
 12077 0f0a 00000000 		.4byte	0
 12078 0f0e 00000000 		.4byte	0
 12079              	.LLST76:
 12080 0f12 00000000 		.4byte	.LVL213
 12081 0f16 20000000 		.4byte	.LVL216
 12082 0f1a 0100     		.2byte	0x1
 12083 0f1c 51       		.byte	0x51
 12084 0f1d 20000000 		.4byte	.LVL216
 12085 0f21 28000000 		.4byte	.LVL217
 12086 0f25 0400     		.2byte	0x4
 12087 0f27 F3       		.byte	0xf3
 12088 0f28 01       		.uleb128 0x1
 12089 0f29 51       		.byte	0x51
 12090 0f2a 9F       		.byte	0x9f
 12091 0f2b 3C000000 		.4byte	.LVL220
 12092 0f2f 42000000 		.4byte	.LVL221
 12093 0f33 0100     		.2byte	0x1
 12094 0f35 51       		.byte	0x51
 12095 0f36 00000000 		.4byte	0
 12096 0f3a 00000000 		.4byte	0
 12097              	.LLST77:
 12098 0f3e 2C000000 		.4byte	.LVL218
 12099 0f42 38000000 		.4byte	.LVL219
 12100 0f46 0100     		.2byte	0x1
 12101 0f48 50       		.byte	0x50
 12102 0f49 42000000 		.4byte	.LVL221
 12103 0f4d 48000000 		.4byte	.LVL223
 12104 0f51 0100     		.2byte	0x1
 12105 0f53 50       		.byte	0x50
ARM GAS  /tmp/ccZlncvZ.s 			page 214


 12106 0f54 00000000 		.4byte	0
 12107 0f58 00000000 		.4byte	0
 12108              	.LLST79:
 12109 0f5c 16000000 		.4byte	.LVL215
 12110 0f60 3C000000 		.4byte	.LVL220
 12111 0f64 0100     		.2byte	0x1
 12112 0f66 56       		.byte	0x56
 12113 0f67 42000000 		.4byte	.LVL221
 12114 0f6b 62000000 		.4byte	.LFE16
 12115 0f6f 0100     		.2byte	0x1
 12116 0f71 56       		.byte	0x56
 12117 0f72 00000000 		.4byte	0
 12118 0f76 00000000 		.4byte	0
 12119              	.LLST80:
 12120 0f7a 00000000 		.4byte	.LVL224
 12121 0f7e 1E000000 		.4byte	.LVL226
 12122 0f82 0100     		.2byte	0x1
 12123 0f84 50       		.byte	0x50
 12124 0f85 1E000000 		.4byte	.LVL226
 12125 0f89 56020000 		.4byte	.LFE17
 12126 0f8d 0400     		.2byte	0x4
 12127 0f8f F3       		.byte	0xf3
 12128 0f90 01       		.uleb128 0x1
 12129 0f91 50       		.byte	0x50
 12130 0f92 9F       		.byte	0x9f
 12131 0f93 00000000 		.4byte	0
 12132 0f97 00000000 		.4byte	0
 12133              	.LLST81:
 12134 0f9b 00000000 		.4byte	.LVL224
 12135 0f9f 22000000 		.4byte	.LVL227
 12136 0fa3 0100     		.2byte	0x1
 12137 0fa5 51       		.byte	0x51
 12138 0fa6 22000000 		.4byte	.LVL227
 12139 0faa 56020000 		.4byte	.LFE17
 12140 0fae 0300     		.2byte	0x3
 12141 0fb0 91       		.byte	0x91
 12142 0fb1 A87F     		.sleb128 -88
 12143 0fb3 00000000 		.4byte	0
 12144 0fb7 00000000 		.4byte	0
 12145              	.LLST82:
 12146 0fbb 00000000 		.4byte	.LVL224
 12147 0fbf 3A000000 		.4byte	.LVL231
 12148 0fc3 0100     		.2byte	0x1
 12149 0fc5 52       		.byte	0x52
 12150 0fc6 3A000000 		.4byte	.LVL231
 12151 0fca 8E000000 		.4byte	.LVL238
 12152 0fce 0100     		.2byte	0x1
 12153 0fd0 56       		.byte	0x56
 12154 0fd1 8E000000 		.4byte	.LVL238
 12155 0fd5 90000000 		.4byte	.LVL239
 12156 0fd9 0600     		.2byte	0x6
 12157 0fdb 76       		.byte	0x76
 12158 0fdc 00       		.sleb128 0
 12159 0fdd 75       		.byte	0x75
 12160 0fde 00       		.sleb128 0
 12161 0fdf 1C       		.byte	0x1c
 12162 0fe0 9F       		.byte	0x9f
ARM GAS  /tmp/ccZlncvZ.s 			page 215


 12163 0fe1 90000000 		.4byte	.LVL239
 12164 0fe5 46010000 		.4byte	.LVL248
 12165 0fe9 0100     		.2byte	0x1
 12166 0feb 56       		.byte	0x56
 12167 0fec 46010000 		.4byte	.LVL248
 12168 0ff0 4A010000 		.4byte	.LVL249
 12169 0ff4 0100     		.2byte	0x1
 12170 0ff6 52       		.byte	0x52
 12171 0ff7 4A010000 		.4byte	.LVL249
 12172 0ffb AC010000 		.4byte	.LVL257
 12173 0fff 0100     		.2byte	0x1
 12174 1001 56       		.byte	0x56
 12175 1002 AC010000 		.4byte	.LVL257
 12176 1006 AE010000 		.4byte	.LVL258
 12177 100a 0600     		.2byte	0x6
 12178 100c 76       		.byte	0x76
 12179 100d 00       		.sleb128 0
 12180 100e 75       		.byte	0x75
 12181 100f 00       		.sleb128 0
 12182 1010 1C       		.byte	0x1c
 12183 1011 9F       		.byte	0x9f
 12184 1012 AE010000 		.4byte	.LVL258
 12185 1016 56020000 		.4byte	.LFE17
 12186 101a 0100     		.2byte	0x1
 12187 101c 56       		.byte	0x56
 12188 101d 00000000 		.4byte	0
 12189 1021 00000000 		.4byte	0
 12190              	.LLST83:
 12191 1025 00000000 		.4byte	.LVL224
 12192 1029 2C000000 		.4byte	.LVL228
 12193 102d 0100     		.2byte	0x1
 12194 102f 53       		.byte	0x53
 12195 1030 2C000000 		.4byte	.LVL228
 12196 1034 56020000 		.4byte	.LFE17
 12197 1038 0300     		.2byte	0x3
 12198 103a 91       		.byte	0x91
 12199 103b A47F     		.sleb128 -92
 12200 103d 00000000 		.4byte	0
 12201 1041 00000000 		.4byte	0
 12202              	.LLST84:
 12203 1045 00000000 		.4byte	.LVL224
 12204 1049 46010000 		.4byte	.LVL248
 12205 104d 0200     		.2byte	0x2
 12206 104f 91       		.byte	0x91
 12207 1050 00       		.sleb128 0
 12208 1051 46010000 		.4byte	.LVL248
 12209 1055 56020000 		.4byte	.LFE17
 12210 1059 0200     		.2byte	0x2
 12211 105b 91       		.byte	0x91
 12212 105c 00       		.sleb128 0
 12213 105d 00000000 		.4byte	0
 12214 1061 00000000 		.4byte	0
 12215              	.LLST85:
 12216 1065 00000000 		.4byte	.LVL224
 12217 1069 46010000 		.4byte	.LVL248
 12218 106d 0200     		.2byte	0x2
 12219 106f 91       		.byte	0x91
ARM GAS  /tmp/ccZlncvZ.s 			page 216


 12220 1070 04       		.sleb128 4
 12221 1071 46010000 		.4byte	.LVL248
 12222 1075 56020000 		.4byte	.LFE17
 12223 1079 0200     		.2byte	0x2
 12224 107b 91       		.byte	0x91
 12225 107c 04       		.sleb128 4
 12226 107d 00000000 		.4byte	0
 12227 1081 00000000 		.4byte	0
 12228              	.LLST86:
 12229 1085 5C000000 		.4byte	.LVL232
 12230 1089 A2000000 		.4byte	.LVL240
 12231 108d 0100     		.2byte	0x1
 12232 108f 5A       		.byte	0x5a
 12233 1090 A8010000 		.4byte	.LVL256
 12234 1094 B8010000 		.4byte	.LVL259
 12235 1098 0100     		.2byte	0x1
 12236 109a 5A       		.byte	0x5a
 12237 109b 00000000 		.4byte	0
 12238 109f 00000000 		.4byte	0
 12239              	.LLST87:
 12240 10a3 5C000000 		.4byte	.LVL232
 12241 10a7 6A000000 		.4byte	.LVL233
 12242 10ab 0200     		.2byte	0x2
 12243 10ad 7A       		.byte	0x7a
 12244 10ae 08       		.sleb128 8
 12245 10af 6A000000 		.4byte	.LVL233
 12246 10b3 2C010000 		.4byte	.LVL246
 12247 10b7 0100     		.2byte	0x1
 12248 10b9 58       		.byte	0x58
 12249 10ba 50010000 		.4byte	.LVL250
 12250 10be 70010000 		.4byte	.LVL253
 12251 10c2 0100     		.2byte	0x1
 12252 10c4 58       		.byte	0x58
 12253 10c5 A8010000 		.4byte	.LVL256
 12254 10c9 C6010000 		.4byte	.LVL261
 12255 10cd 0100     		.2byte	0x1
 12256 10cf 58       		.byte	0x58
 12257 10d0 22020000 		.4byte	.LVL268
 12258 10d4 3A020000 		.4byte	.LVL271
 12259 10d8 0100     		.2byte	0x1
 12260 10da 58       		.byte	0x58
 12261 10db 00000000 		.4byte	0
 12262 10df 00000000 		.4byte	0
 12263              	.LLST88:
 12264 10e3 70000000 		.4byte	.LVL234
 12265 10e7 2C010000 		.4byte	.LVL246
 12266 10eb 0100     		.2byte	0x1
 12267 10ed 55       		.byte	0x55
 12268 10ee 50010000 		.4byte	.LVL250
 12269 10f2 70010000 		.4byte	.LVL253
 12270 10f6 0100     		.2byte	0x1
 12271 10f8 55       		.byte	0x55
 12272 10f9 A8010000 		.4byte	.LVL256
 12273 10fd D2010000 		.4byte	.LVL262
 12274 1101 0100     		.2byte	0x1
 12275 1103 55       		.byte	0x55
 12276 1104 0C020000 		.4byte	.LVL266
ARM GAS  /tmp/ccZlncvZ.s 			page 217


 12277 1108 3A020000 		.4byte	.LVL271
 12278 110c 0100     		.2byte	0x1
 12279 110e 55       		.byte	0x55
 12280 110f 00000000 		.4byte	0
 12281 1113 00000000 		.4byte	0
 12282              	.LLST89:
 12283 1117 12000000 		.4byte	.LVL225
 12284 111b 38000000 		.4byte	.LVL230
 12285 111f 0200     		.2byte	0x2
 12286 1121 30       		.byte	0x30
 12287 1122 9F       		.byte	0x9f
 12288 1123 38000000 		.4byte	.LVL230
 12289 1127 46010000 		.4byte	.LVL248
 12290 112b 0100     		.2byte	0x1
 12291 112d 57       		.byte	0x57
 12292 112e 46010000 		.4byte	.LVL248
 12293 1132 4A010000 		.4byte	.LVL249
 12294 1136 0200     		.2byte	0x2
 12295 1138 30       		.byte	0x30
 12296 1139 9F       		.byte	0x9f
 12297 113a 50010000 		.4byte	.LVL250
 12298 113e 56020000 		.4byte	.LFE17
 12299 1142 0100     		.2byte	0x1
 12300 1144 57       		.byte	0x57
 12301 1145 00000000 		.4byte	0
 12302 1149 00000000 		.4byte	0
 12303              	.LLST90:
 12304 114d D8000000 		.4byte	.LVL242
 12305 1151 01010000 		.4byte	.LVL244-1
 12306 1155 0100     		.2byte	0x1
 12307 1157 5C       		.byte	0x5c
 12308 1158 22020000 		.4byte	.LVL268
 12309 115c 24020000 		.4byte	.LVL269
 12310 1160 0300     		.2byte	0x3
 12311 1162 91       		.byte	0x91
 12312 1163 44       		.sleb128 -60
 12313 1164 9F       		.byte	0x9f
 12314 1165 24020000 		.4byte	.LVL269
 12315 1169 2F020000 		.4byte	.LVL270-1
 12316 116d 0100     		.2byte	0x1
 12317 116f 51       		.byte	0x51
 12318 1170 2F020000 		.4byte	.LVL270-1
 12319 1174 3A020000 		.4byte	.LVL271
 12320 1178 0300     		.2byte	0x3
 12321 117a 91       		.byte	0x91
 12322 117b 44       		.sleb128 -60
 12323 117c 9F       		.byte	0x9f
 12324 117d 00000000 		.4byte	0
 12325 1181 00000000 		.4byte	0
 12326              	.LLST91:
 12327 1185 12000000 		.4byte	.LVL225
 12328 1189 BA000000 		.4byte	.LVL241
 12329 118d 0200     		.2byte	0x2
 12330 118f 30       		.byte	0x30
 12331 1190 9F       		.byte	0x9f
 12332 1191 BA000000 		.4byte	.LVL241
 12333 1195 2C010000 		.4byte	.LVL246
ARM GAS  /tmp/ccZlncvZ.s 			page 218


 12334 1199 0200     		.2byte	0x2
 12335 119b 31       		.byte	0x31
 12336 119c 9F       		.byte	0x9f
 12337 119d 46010000 		.4byte	.LVL248
 12338 11a1 50010000 		.4byte	.LVL250
 12339 11a5 0200     		.2byte	0x2
 12340 11a7 30       		.byte	0x30
 12341 11a8 9F       		.byte	0x9f
 12342 11a9 50010000 		.4byte	.LVL250
 12343 11ad 54010000 		.4byte	.LVL251
 12344 11b1 0200     		.2byte	0x2
 12345 11b3 31       		.byte	0x31
 12346 11b4 9F       		.byte	0x9f
 12347 11b5 70010000 		.4byte	.LVL253
 12348 11b9 C2010000 		.4byte	.LVL260
 12349 11bd 0200     		.2byte	0x2
 12350 11bf 30       		.byte	0x30
 12351 11c0 9F       		.byte	0x9f
 12352 11c1 DE010000 		.4byte	.LVL263
 12353 11c5 0C020000 		.4byte	.LVL266
 12354 11c9 0200     		.2byte	0x2
 12355 11cb 30       		.byte	0x30
 12356 11cc 9F       		.byte	0x9f
 12357 11cd 22020000 		.4byte	.LVL268
 12358 11d1 3A020000 		.4byte	.LVL271
 12359 11d5 0200     		.2byte	0x2
 12360 11d7 31       		.byte	0x31
 12361 11d8 9F       		.byte	0x9f
 12362 11d9 3A020000 		.4byte	.LVL271
 12363 11dd 56020000 		.4byte	.LFE17
 12364 11e1 0200     		.2byte	0x2
 12365 11e3 30       		.byte	0x30
 12366 11e4 9F       		.byte	0x9f
 12367 11e5 00000000 		.4byte	0
 12368 11e9 00000000 		.4byte	0
 12369              	.LLST92:
 12370 11ed 9A010000 		.4byte	.LVL254
 12371 11f1 9C010000 		.4byte	.LVL255
 12372 11f5 0100     		.2byte	0x1
 12373 11f7 50       		.byte	0x50
 12374 11f8 E2010000 		.4byte	.LVL264
 12375 11fc E6010000 		.4byte	.LVL265
 12376 1200 0100     		.2byte	0x1
 12377 1202 50       		.byte	0x50
 12378 1203 00000000 		.4byte	0
 12379 1207 00000000 		.4byte	0
 12380              	.LLST93:
 12381 120b 12000000 		.4byte	.LVL225
 12382 120f 1E000000 		.4byte	.LVL226
 12383 1213 0100     		.2byte	0x1
 12384 1215 50       		.byte	0x50
 12385 1216 1E000000 		.4byte	.LVL226
 12386 121a 56020000 		.4byte	.LFE17
 12387 121e 0400     		.2byte	0x4
 12388 1220 F3       		.byte	0xf3
 12389 1221 01       		.uleb128 0x1
 12390 1222 50       		.byte	0x50
ARM GAS  /tmp/ccZlncvZ.s 			page 219


 12391 1223 9F       		.byte	0x9f
 12392 1224 00000000 		.4byte	0
 12393 1228 00000000 		.4byte	0
 12394              	.LLST94:
 12395 122c 32000000 		.4byte	.LVL229
 12396 1230 46010000 		.4byte	.LVL248
 12397 1234 0100     		.2byte	0x1
 12398 1236 54       		.byte	0x54
 12399 1237 50010000 		.4byte	.LVL250
 12400 123b 56020000 		.4byte	.LFE17
 12401 123f 0100     		.2byte	0x1
 12402 1241 54       		.byte	0x54
 12403 1242 00000000 		.4byte	0
 12404 1246 00000000 		.4byte	0
 12405              	.LLST95:
 12406 124a 00000000 		.4byte	.LVL273
 12407 124e 0D000000 		.4byte	.LVL274-1
 12408 1252 0100     		.2byte	0x1
 12409 1254 50       		.byte	0x50
 12410 1255 0D000000 		.4byte	.LVL274-1
 12411 1259 14000000 		.4byte	.LFE18
 12412 125d 0400     		.2byte	0x4
 12413 125f F3       		.byte	0xf3
 12414 1260 01       		.uleb128 0x1
 12415 1261 50       		.byte	0x50
 12416 1262 9F       		.byte	0x9f
 12417 1263 00000000 		.4byte	0
 12418 1267 00000000 		.4byte	0
 12419              	.LLST96:
 12420 126b 00000000 		.4byte	.LVL273
 12421 126f 0D000000 		.4byte	.LVL274-1
 12422 1273 0100     		.2byte	0x1
 12423 1275 51       		.byte	0x51
 12424 1276 0D000000 		.4byte	.LVL274-1
 12425 127a 14000000 		.4byte	.LFE18
 12426 127e 0400     		.2byte	0x4
 12427 1280 F3       		.byte	0xf3
 12428 1281 01       		.uleb128 0x1
 12429 1282 51       		.byte	0x51
 12430 1283 9F       		.byte	0x9f
 12431 1284 00000000 		.4byte	0
 12432 1288 00000000 		.4byte	0
 12433              	.LLST97:
 12434 128c 00000000 		.4byte	.LVL273
 12435 1290 0D000000 		.4byte	.LVL274-1
 12436 1294 0100     		.2byte	0x1
 12437 1296 52       		.byte	0x52
 12438 1297 0D000000 		.4byte	.LVL274-1
 12439 129b 14000000 		.4byte	.LFE18
 12440 129f 0400     		.2byte	0x4
 12441 12a1 F3       		.byte	0xf3
 12442 12a2 01       		.uleb128 0x1
 12443 12a3 52       		.byte	0x52
 12444 12a4 9F       		.byte	0x9f
 12445 12a5 00000000 		.4byte	0
 12446 12a9 00000000 		.4byte	0
 12447              	.LLST98:
ARM GAS  /tmp/ccZlncvZ.s 			page 220


 12448 12ad 00000000 		.4byte	.LVL275
 12449 12b1 0D000000 		.4byte	.LVL276-1
 12450 12b5 0100     		.2byte	0x1
 12451 12b7 50       		.byte	0x50
 12452 12b8 0D000000 		.4byte	.LVL276-1
 12453 12bc 12000000 		.4byte	.LFE19
 12454 12c0 0400     		.2byte	0x4
 12455 12c2 F3       		.byte	0xf3
 12456 12c3 01       		.uleb128 0x1
 12457 12c4 50       		.byte	0x50
 12458 12c5 9F       		.byte	0x9f
 12459 12c6 00000000 		.4byte	0
 12460 12ca 00000000 		.4byte	0
 12461              	.LLST99:
 12462 12ce 00000000 		.4byte	.LVL275
 12463 12d2 0D000000 		.4byte	.LVL276-1
 12464 12d6 0100     		.2byte	0x1
 12465 12d8 51       		.byte	0x51
 12466 12d9 0D000000 		.4byte	.LVL276-1
 12467 12dd 12000000 		.4byte	.LFE19
 12468 12e1 0400     		.2byte	0x4
 12469 12e3 F3       		.byte	0xf3
 12470 12e4 01       		.uleb128 0x1
 12471 12e5 51       		.byte	0x51
 12472 12e6 9F       		.byte	0x9f
 12473 12e7 00000000 		.4byte	0
 12474 12eb 00000000 		.4byte	0
 12475              	.LLST100:
 12476 12ef 00000000 		.4byte	.LVL275
 12477 12f3 0D000000 		.4byte	.LVL276-1
 12478 12f7 0100     		.2byte	0x1
 12479 12f9 52       		.byte	0x52
 12480 12fa 0D000000 		.4byte	.LVL276-1
 12481 12fe 12000000 		.4byte	.LFE19
 12482 1302 0400     		.2byte	0x4
 12483 1304 F3       		.byte	0xf3
 12484 1305 01       		.uleb128 0x1
 12485 1306 52       		.byte	0x52
 12486 1307 9F       		.byte	0x9f
 12487 1308 00000000 		.4byte	0
 12488 130c 00000000 		.4byte	0
 12489              	.LLST101:
 12490 1310 00000000 		.4byte	.LVL275
 12491 1314 0D000000 		.4byte	.LVL276-1
 12492 1318 0100     		.2byte	0x1
 12493 131a 53       		.byte	0x53
 12494 131b 0D000000 		.4byte	.LVL276-1
 12495 131f 12000000 		.4byte	.LFE19
 12496 1323 0400     		.2byte	0x4
 12497 1325 F3       		.byte	0xf3
 12498 1326 01       		.uleb128 0x1
 12499 1327 53       		.byte	0x53
 12500 1328 9F       		.byte	0x9f
 12501 1329 00000000 		.4byte	0
 12502 132d 00000000 		.4byte	0
 12503              	.LLST102:
 12504 1331 00000000 		.4byte	.LVL277
ARM GAS  /tmp/ccZlncvZ.s 			page 221


 12505 1335 3E000000 		.4byte	.LVL280
 12506 1339 0100     		.2byte	0x1
 12507 133b 50       		.byte	0x50
 12508 133c 3E000000 		.4byte	.LVL280
 12509 1340 B8000000 		.4byte	.LVL292
 12510 1344 0400     		.2byte	0x4
 12511 1346 F3       		.byte	0xf3
 12512 1347 01       		.uleb128 0x1
 12513 1348 50       		.byte	0x50
 12514 1349 9F       		.byte	0x9f
 12515 134a B8000000 		.4byte	.LVL292
 12516 134e BB000000 		.4byte	.LVL293-1
 12517 1352 0100     		.2byte	0x1
 12518 1354 50       		.byte	0x50
 12519 1355 BB000000 		.4byte	.LVL293-1
 12520 1359 CC000000 		.4byte	.LVL298
 12521 135d 0400     		.2byte	0x4
 12522 135f F3       		.byte	0xf3
 12523 1360 01       		.uleb128 0x1
 12524 1361 50       		.byte	0x50
 12525 1362 9F       		.byte	0x9f
 12526 1363 CC000000 		.4byte	.LVL298
 12527 1367 CF000000 		.4byte	.LVL299-1
 12528 136b 0100     		.2byte	0x1
 12529 136d 50       		.byte	0x50
 12530 136e CF000000 		.4byte	.LVL299-1
 12531 1372 DE000000 		.4byte	.LFE21
 12532 1376 0400     		.2byte	0x4
 12533 1378 F3       		.byte	0xf3
 12534 1379 01       		.uleb128 0x1
 12535 137a 50       		.byte	0x50
 12536 137b 9F       		.byte	0x9f
 12537 137c 00000000 		.4byte	0
 12538 1380 00000000 		.4byte	0
 12539              	.LLST103:
 12540 1384 00000000 		.4byte	.LVL277
 12541 1388 3E000000 		.4byte	.LVL280
 12542 138c 0100     		.2byte	0x1
 12543 138e 51       		.byte	0x51
 12544 138f 3E000000 		.4byte	.LVL280
 12545 1393 B8000000 		.4byte	.LVL292
 12546 1397 0100     		.2byte	0x1
 12547 1399 5A       		.byte	0x5a
 12548 139a B8000000 		.4byte	.LVL292
 12549 139e BB000000 		.4byte	.LVL293-1
 12550 13a2 0100     		.2byte	0x1
 12551 13a4 51       		.byte	0x51
 12552 13a5 BB000000 		.4byte	.LVL293-1
 12553 13a9 CC000000 		.4byte	.LVL298
 12554 13ad 0100     		.2byte	0x1
 12555 13af 5A       		.byte	0x5a
 12556 13b0 CC000000 		.4byte	.LVL298
 12557 13b4 CF000000 		.4byte	.LVL299-1
 12558 13b8 0100     		.2byte	0x1
 12559 13ba 51       		.byte	0x51
 12560 13bb CF000000 		.4byte	.LVL299-1
 12561 13bf DE000000 		.4byte	.LFE21
ARM GAS  /tmp/ccZlncvZ.s 			page 222


 12562 13c3 0100     		.2byte	0x1
 12563 13c5 5A       		.byte	0x5a
 12564 13c6 00000000 		.4byte	0
 12565 13ca 00000000 		.4byte	0
 12566              	.LLST104:
 12567 13ce 00000000 		.4byte	.LVL277
 12568 13d2 3E000000 		.4byte	.LVL280
 12569 13d6 0100     		.2byte	0x1
 12570 13d8 52       		.byte	0x52
 12571 13d9 3E000000 		.4byte	.LVL280
 12572 13dd 46000000 		.4byte	.LVL281
 12573 13e1 0100     		.2byte	0x1
 12574 13e3 57       		.byte	0x57
 12575 13e4 46000000 		.4byte	.LVL281
 12576 13e8 B8000000 		.4byte	.LVL292
 12577 13ec 0400     		.2byte	0x4
 12578 13ee F3       		.byte	0xf3
 12579 13ef 01       		.uleb128 0x1
 12580 13f0 52       		.byte	0x52
 12581 13f1 9F       		.byte	0x9f
 12582 13f2 B8000000 		.4byte	.LVL292
 12583 13f6 BB000000 		.4byte	.LVL293-1
 12584 13fa 0100     		.2byte	0x1
 12585 13fc 52       		.byte	0x52
 12586 13fd BB000000 		.4byte	.LVL293-1
 12587 1401 BE000000 		.4byte	.LVL294
 12588 1405 0100     		.2byte	0x1
 12589 1407 57       		.byte	0x57
 12590 1408 BE000000 		.4byte	.LVL294
 12591 140c CC000000 		.4byte	.LVL298
 12592 1410 0400     		.2byte	0x4
 12593 1412 F3       		.byte	0xf3
 12594 1413 01       		.uleb128 0x1
 12595 1414 52       		.byte	0x52
 12596 1415 9F       		.byte	0x9f
 12597 1416 CC000000 		.4byte	.LVL298
 12598 141a CF000000 		.4byte	.LVL299-1
 12599 141e 0100     		.2byte	0x1
 12600 1420 52       		.byte	0x52
 12601 1421 CF000000 		.4byte	.LVL299-1
 12602 1425 D2000000 		.4byte	.LVL300
 12603 1429 0100     		.2byte	0x1
 12604 142b 57       		.byte	0x57
 12605 142c D2000000 		.4byte	.LVL300
 12606 1430 DE000000 		.4byte	.LFE21
 12607 1434 0400     		.2byte	0x4
 12608 1436 F3       		.byte	0xf3
 12609 1437 01       		.uleb128 0x1
 12610 1438 52       		.byte	0x52
 12611 1439 9F       		.byte	0x9f
 12612 143a 00000000 		.4byte	0
 12613 143e 00000000 		.4byte	0
 12614              	.LLST105:
 12615 1442 00000000 		.4byte	.LVL277
 12616 1446 3E000000 		.4byte	.LVL280
 12617 144a 0100     		.2byte	0x1
 12618 144c 53       		.byte	0x53
ARM GAS  /tmp/ccZlncvZ.s 			page 223


 12619 144d 3E000000 		.4byte	.LVL280
 12620 1451 B8000000 		.4byte	.LVL292
 12621 1455 0400     		.2byte	0x4
 12622 1457 F3       		.byte	0xf3
 12623 1458 01       		.uleb128 0x1
 12624 1459 53       		.byte	0x53
 12625 145a 9F       		.byte	0x9f
 12626 145b B8000000 		.4byte	.LVL292
 12627 145f BB000000 		.4byte	.LVL293-1
 12628 1463 0100     		.2byte	0x1
 12629 1465 53       		.byte	0x53
 12630 1466 BB000000 		.4byte	.LVL293-1
 12631 146a CC000000 		.4byte	.LVL298
 12632 146e 0400     		.2byte	0x4
 12633 1470 F3       		.byte	0xf3
 12634 1471 01       		.uleb128 0x1
 12635 1472 53       		.byte	0x53
 12636 1473 9F       		.byte	0x9f
 12637 1474 CC000000 		.4byte	.LVL298
 12638 1478 CF000000 		.4byte	.LVL299-1
 12639 147c 0100     		.2byte	0x1
 12640 147e 53       		.byte	0x53
 12641 147f CF000000 		.4byte	.LVL299-1
 12642 1483 DE000000 		.4byte	.LFE21
 12643 1487 0400     		.2byte	0x4
 12644 1489 F3       		.byte	0xf3
 12645 148a 01       		.uleb128 0x1
 12646 148b 53       		.byte	0x53
 12647 148c 9F       		.byte	0x9f
 12648 148d 00000000 		.4byte	0
 12649 1491 00000000 		.4byte	0
 12650              	.LLST106:
 12651 1495 00000000 		.4byte	.LVL277
 12652 1499 AC000000 		.4byte	.LVL290
 12653 149d 0200     		.2byte	0x2
 12654 149f 91       		.byte	0x91
 12655 14a0 00       		.sleb128 0
 12656 14a1 AC000000 		.4byte	.LVL290
 12657 14a5 DE000000 		.4byte	.LFE21
 12658 14a9 0200     		.2byte	0x2
 12659 14ab 91       		.byte	0x91
 12660 14ac 00       		.sleb128 0
 12661 14ad 00000000 		.4byte	0
 12662 14b1 00000000 		.4byte	0
 12663              	.LLST107:
 12664 14b5 00000000 		.4byte	.LVL277
 12665 14b9 AC000000 		.4byte	.LVL290
 12666 14bd 0200     		.2byte	0x2
 12667 14bf 91       		.byte	0x91
 12668 14c0 04       		.sleb128 4
 12669 14c1 AC000000 		.4byte	.LVL290
 12670 14c5 DE000000 		.4byte	.LFE21
 12671 14c9 0200     		.2byte	0x2
 12672 14cb 91       		.byte	0x91
 12673 14cc 04       		.sleb128 4
 12674 14cd 00000000 		.4byte	0
 12675 14d1 00000000 		.4byte	0
ARM GAS  /tmp/ccZlncvZ.s 			page 224


 12676              	.LLST108:
 12677 14d5 7A000000 		.4byte	.LVL285
 12678 14d9 7E000000 		.4byte	.LVL287
 12679 14dd 0100     		.2byte	0x1
 12680 14df 50       		.byte	0x50
 12681 14e0 7E000000 		.4byte	.LVL287
 12682 14e4 A2000000 		.4byte	.LVL289
 12683 14e8 0100     		.2byte	0x1
 12684 14ea 54       		.byte	0x54
 12685 14eb BE000000 		.4byte	.LVL294
 12686 14ef C2000000 		.4byte	.LVL295
 12687 14f3 0100     		.2byte	0x1
 12688 14f5 50       		.byte	0x50
 12689 14f6 CA000000 		.4byte	.LVL297
 12690 14fa CC000000 		.4byte	.LVL298
 12691 14fe 0100     		.2byte	0x1
 12692 1500 50       		.byte	0x50
 12693 1501 00000000 		.4byte	0
 12694 1505 00000000 		.4byte	0
 12695              	.LLST109:
 12696 1509 46000000 		.4byte	.LVL281
 12697 150d A2000000 		.4byte	.LVL289
 12698 1511 0100     		.2byte	0x1
 12699 1513 57       		.byte	0x57
 12700 1514 AC000000 		.4byte	.LVL290
 12701 1518 B8000000 		.4byte	.LVL292
 12702 151c 0100     		.2byte	0x1
 12703 151e 57       		.byte	0x57
 12704 151f BE000000 		.4byte	.LVL294
 12705 1523 CC000000 		.4byte	.LVL298
 12706 1527 0100     		.2byte	0x1
 12707 1529 57       		.byte	0x57
 12708 152a D2000000 		.4byte	.LVL300
 12709 152e DE000000 		.4byte	.LFE21
 12710 1532 0100     		.2byte	0x1
 12711 1534 57       		.byte	0x57
 12712 1535 00000000 		.4byte	0
 12713 1539 00000000 		.4byte	0
 12714              	.LLST110:
 12715 153d 5E000000 		.4byte	.LVL282
 12716 1541 7C000000 		.4byte	.LVL286
 12717 1545 0100     		.2byte	0x1
 12718 1547 54       		.byte	0x54
 12719 1548 7C000000 		.4byte	.LVL286
 12720 154c A2000000 		.4byte	.LVL289
 12721 1550 0200     		.2byte	0x2
 12722 1552 91       		.byte	0x91
 12723 1553 00       		.sleb128 0
 12724 1554 AC000000 		.4byte	.LVL290
 12725 1558 B8000000 		.4byte	.LVL292
 12726 155c 0100     		.2byte	0x1
 12727 155e 54       		.byte	0x54
 12728 155f BE000000 		.4byte	.LVL294
 12729 1563 CC000000 		.4byte	.LVL298
 12730 1567 0200     		.2byte	0x2
 12731 1569 91       		.byte	0x91
 12732 156a 00       		.sleb128 0
ARM GAS  /tmp/ccZlncvZ.s 			page 225


 12733 156b 00000000 		.4byte	0
 12734 156f 00000000 		.4byte	0
 12735              	.LLST111:
 12736 1573 6C000000 		.4byte	.LVL283
 12737 1577 70000000 		.4byte	.LVL284
 12738 157b 0100     		.2byte	0x1
 12739 157d 50       		.byte	0x50
 12740 157e B0000000 		.4byte	.LVL291
 12741 1582 B8000000 		.4byte	.LVL292
 12742 1586 0200     		.2byte	0x2
 12743 1588 30       		.byte	0x30
 12744 1589 9F       		.byte	0x9f
 12745 158a 00000000 		.4byte	0
 12746 158e 00000000 		.4byte	0
 12747              	.LLST112:
 12748 1592 0C000000 		.4byte	.LVL278
 12749 1596 3E000000 		.4byte	.LVL280
 12750 159a 0100     		.2byte	0x1
 12751 159c 50       		.byte	0x50
 12752 159d 3E000000 		.4byte	.LVL280
 12753 15a1 B8000000 		.4byte	.LVL292
 12754 15a5 0400     		.2byte	0x4
 12755 15a7 F3       		.byte	0xf3
 12756 15a8 01       		.uleb128 0x1
 12757 15a9 50       		.byte	0x50
 12758 15aa 9F       		.byte	0x9f
 12759 15ab B8000000 		.4byte	.LVL292
 12760 15af BB000000 		.4byte	.LVL293-1
 12761 15b3 0100     		.2byte	0x1
 12762 15b5 50       		.byte	0x50
 12763 15b6 BB000000 		.4byte	.LVL293-1
 12764 15ba CC000000 		.4byte	.LVL298
 12765 15be 0400     		.2byte	0x4
 12766 15c0 F3       		.byte	0xf3
 12767 15c1 01       		.uleb128 0x1
 12768 15c2 50       		.byte	0x50
 12769 15c3 9F       		.byte	0x9f
 12770 15c4 CC000000 		.4byte	.LVL298
 12771 15c8 CF000000 		.4byte	.LVL299-1
 12772 15cc 0100     		.2byte	0x1
 12773 15ce 50       		.byte	0x50
 12774 15cf CF000000 		.4byte	.LVL299-1
 12775 15d3 DE000000 		.4byte	.LFE21
 12776 15d7 0400     		.2byte	0x4
 12777 15d9 F3       		.byte	0xf3
 12778 15da 01       		.uleb128 0x1
 12779 15db 50       		.byte	0x50
 12780 15dc 9F       		.byte	0x9f
 12781 15dd 00000000 		.4byte	0
 12782 15e1 00000000 		.4byte	0
 12783              	.LLST113:
 12784 15e5 24000000 		.4byte	.LVL279
 12785 15e9 A2000000 		.4byte	.LVL289
 12786 15ed 0100     		.2byte	0x1
 12787 15ef 59       		.byte	0x59
 12788 15f0 AC000000 		.4byte	.LVL290
 12789 15f4 DE000000 		.4byte	.LFE21
ARM GAS  /tmp/ccZlncvZ.s 			page 226


 12790 15f8 0100     		.2byte	0x1
 12791 15fa 59       		.byte	0x59
 12792 15fb 00000000 		.4byte	0
 12793 15ff 00000000 		.4byte	0
 12794              	.LLST114:
 12795 1603 00000000 		.4byte	.LVL302
 12796 1607 2E000000 		.4byte	.LVL304
 12797 160b 0100     		.2byte	0x1
 12798 160d 50       		.byte	0x50
 12799 160e 2E000000 		.4byte	.LVL304
 12800 1612 72000000 		.4byte	.LVL311
 12801 1616 0400     		.2byte	0x4
 12802 1618 F3       		.byte	0xf3
 12803 1619 01       		.uleb128 0x1
 12804 161a 50       		.byte	0x50
 12805 161b 9F       		.byte	0x9f
 12806 161c 72000000 		.4byte	.LVL311
 12807 1620 7B000000 		.4byte	.LVL312-1
 12808 1624 0100     		.2byte	0x1
 12809 1626 50       		.byte	0x50
 12810 1627 7B000000 		.4byte	.LVL312-1
 12811 162b 80000000 		.4byte	.LFE20
 12812 162f 0400     		.2byte	0x4
 12813 1631 F3       		.byte	0xf3
 12814 1632 01       		.uleb128 0x1
 12815 1633 50       		.byte	0x50
 12816 1634 9F       		.byte	0x9f
 12817 1635 00000000 		.4byte	0
 12818 1639 00000000 		.4byte	0
 12819              	.LLST115:
 12820 163d 00000000 		.4byte	.LVL302
 12821 1641 4B000000 		.4byte	.LVL308-1
 12822 1645 0100     		.2byte	0x1
 12823 1647 51       		.byte	0x51
 12824 1648 4B000000 		.4byte	.LVL308-1
 12825 164c 72000000 		.4byte	.LVL311
 12826 1650 0400     		.2byte	0x4
 12827 1652 F3       		.byte	0xf3
 12828 1653 01       		.uleb128 0x1
 12829 1654 51       		.byte	0x51
 12830 1655 9F       		.byte	0x9f
 12831 1656 72000000 		.4byte	.LVL311
 12832 165a 7B000000 		.4byte	.LVL312-1
 12833 165e 0100     		.2byte	0x1
 12834 1660 51       		.byte	0x51
 12835 1661 7B000000 		.4byte	.LVL312-1
 12836 1665 80000000 		.4byte	.LFE20
 12837 1669 0400     		.2byte	0x4
 12838 166b F3       		.byte	0xf3
 12839 166c 01       		.uleb128 0x1
 12840 166d 51       		.byte	0x51
 12841 166e 9F       		.byte	0x9f
 12842 166f 00000000 		.4byte	0
 12843 1673 00000000 		.4byte	0
 12844              	.LLST116:
 12845 1677 00000000 		.4byte	.LVL302
 12846 167b 4B000000 		.4byte	.LVL308-1
ARM GAS  /tmp/ccZlncvZ.s 			page 227


 12847 167f 0100     		.2byte	0x1
 12848 1681 52       		.byte	0x52
 12849 1682 4B000000 		.4byte	.LVL308-1
 12850 1686 72000000 		.4byte	.LVL311
 12851 168a 0400     		.2byte	0x4
 12852 168c F3       		.byte	0xf3
 12853 168d 01       		.uleb128 0x1
 12854 168e 52       		.byte	0x52
 12855 168f 9F       		.byte	0x9f
 12856 1690 72000000 		.4byte	.LVL311
 12857 1694 7B000000 		.4byte	.LVL312-1
 12858 1698 0100     		.2byte	0x1
 12859 169a 52       		.byte	0x52
 12860 169b 7B000000 		.4byte	.LVL312-1
 12861 169f 80000000 		.4byte	.LFE20
 12862 16a3 0400     		.2byte	0x4
 12863 16a5 F3       		.byte	0xf3
 12864 16a6 01       		.uleb128 0x1
 12865 16a7 52       		.byte	0x52
 12866 16a8 9F       		.byte	0x9f
 12867 16a9 00000000 		.4byte	0
 12868 16ad 00000000 		.4byte	0
 12869              	.LLST117:
 12870 16b1 00000000 		.4byte	.LVL302
 12871 16b5 38000000 		.4byte	.LVL305
 12872 16b9 0100     		.2byte	0x1
 12873 16bb 53       		.byte	0x53
 12874 16bc 38000000 		.4byte	.LVL305
 12875 16c0 42000000 		.4byte	.LVL306
 12876 16c4 0100     		.2byte	0x1
 12877 16c6 56       		.byte	0x56
 12878 16c7 42000000 		.4byte	.LVL306
 12879 16cb 72000000 		.4byte	.LVL311
 12880 16cf 0400     		.2byte	0x4
 12881 16d1 F3       		.byte	0xf3
 12882 16d2 01       		.uleb128 0x1
 12883 16d3 53       		.byte	0x53
 12884 16d4 9F       		.byte	0x9f
 12885 16d5 72000000 		.4byte	.LVL311
 12886 16d9 7B000000 		.4byte	.LVL312-1
 12887 16dd 0100     		.2byte	0x1
 12888 16df 53       		.byte	0x53
 12889 16e0 7B000000 		.4byte	.LVL312-1
 12890 16e4 80000000 		.4byte	.LFE20
 12891 16e8 0100     		.2byte	0x1
 12892 16ea 56       		.byte	0x56
 12893 16eb 00000000 		.4byte	0
 12894 16ef 00000000 		.4byte	0
 12895              	.LLST118:
 12896 16f3 4C000000 		.4byte	.LVL308
 12897 16f7 66000000 		.4byte	.LVL309
 12898 16fb 0100     		.2byte	0x1
 12899 16fd 50       		.byte	0x50
 12900 16fe 00000000 		.4byte	0
 12901 1702 00000000 		.4byte	0
 12902              	.LLST119:
 12903 1706 42000000 		.4byte	.LVL306
ARM GAS  /tmp/ccZlncvZ.s 			page 228


 12904 170a 44000000 		.4byte	.LVL307
 12905 170e 0600     		.2byte	0x6
 12906 1710 76       		.byte	0x76
 12907 1711 00       		.sleb128 0
 12908 1712 73       		.byte	0x73
 12909 1713 00       		.sleb128 0
 12910 1714 21       		.byte	0x21
 12911 1715 9F       		.byte	0x9f
 12912 1716 44000000 		.4byte	.LVL307
 12913 171a 6A000000 		.4byte	.LVL310
 12914 171e 1500     		.2byte	0x15
 12915 1720 31       		.byte	0x31
 12916 1721 33       		.byte	0x33
 12917 1722 F3       		.byte	0xf3
 12918 1723 01       		.uleb128 0x1
 12919 1724 53       		.byte	0x53
 12920 1725 09       		.byte	0x9
 12921 1726 FF       		.byte	0xff
 12922 1727 24       		.byte	0x24
 12923 1728 33       		.byte	0x33
 12924 1729 25       		.byte	0x25
 12925 172a 30       		.byte	0x30
 12926 172b 29       		.byte	0x29
 12927 172c 28       		.byte	0x28
 12928 172d 0100     		.2byte	0x1
 12929 172f 16       		.byte	0x16
 12930 1730 13       		.byte	0x13
 12931 1731 76       		.byte	0x76
 12932 1732 00       		.sleb128 0
 12933 1733 21       		.byte	0x21
 12934 1734 9F       		.byte	0x9f
 12935 1735 00000000 		.4byte	0
 12936 1739 00000000 		.4byte	0
 12937              	.LLST121:
 12938 173d 1A000000 		.4byte	.LVL303
 12939 1741 6A000000 		.4byte	.LVL310
 12940 1745 0100     		.2byte	0x1
 12941 1747 57       		.byte	0x57
 12942 1748 72000000 		.4byte	.LVL311
 12943 174c 80000000 		.4byte	.LFE20
 12944 1750 0100     		.2byte	0x1
 12945 1752 57       		.byte	0x57
 12946 1753 00000000 		.4byte	0
 12947 1757 00000000 		.4byte	0
 12948              	.LLST122:
 12949 175b 00000000 		.4byte	.LVL313
 12950 175f 06000000 		.4byte	.LVL314
 12951 1763 0100     		.2byte	0x1
 12952 1765 50       		.byte	0x50
 12953 1766 06000000 		.4byte	.LVL314
 12954 176a 86000000 		.4byte	.LFE22
 12955 176e 0400     		.2byte	0x4
 12956 1770 F3       		.byte	0xf3
 12957 1771 01       		.uleb128 0x1
 12958 1772 50       		.byte	0x50
 12959 1773 9F       		.byte	0x9f
 12960 1774 00000000 		.4byte	0
ARM GAS  /tmp/ccZlncvZ.s 			page 229


 12961 1778 00000000 		.4byte	0
 12962              	.LLST123:
 12963 177c 00000000 		.4byte	.LVL313
 12964 1780 10000000 		.4byte	.LVL315
 12965 1784 0100     		.2byte	0x1
 12966 1786 51       		.byte	0x51
 12967 1787 10000000 		.4byte	.LVL315
 12968 178b 16000000 		.4byte	.LVL316
 12969 178f 0400     		.2byte	0x4
 12970 1791 F3       		.byte	0xf3
 12971 1792 01       		.uleb128 0x1
 12972 1793 51       		.byte	0x51
 12973 1794 9F       		.byte	0x9f
 12974 1795 16000000 		.4byte	.LVL316
 12975 1799 22000000 		.4byte	.LVL318
 12976 179d 0100     		.2byte	0x1
 12977 179f 51       		.byte	0x51
 12978 17a0 22000000 		.4byte	.LVL318
 12979 17a4 46000000 		.4byte	.LVL322
 12980 17a8 0400     		.2byte	0x4
 12981 17aa F3       		.byte	0xf3
 12982 17ab 01       		.uleb128 0x1
 12983 17ac 51       		.byte	0x51
 12984 17ad 9F       		.byte	0x9f
 12985 17ae 46000000 		.4byte	.LVL322
 12986 17b2 4C000000 		.4byte	.LVL323
 12987 17b6 0100     		.2byte	0x1
 12988 17b8 51       		.byte	0x51
 12989 17b9 4C000000 		.4byte	.LVL323
 12990 17bd 5E000000 		.4byte	.LVL327
 12991 17c1 0400     		.2byte	0x4
 12992 17c3 F3       		.byte	0xf3
 12993 17c4 01       		.uleb128 0x1
 12994 17c5 51       		.byte	0x51
 12995 17c6 9F       		.byte	0x9f
 12996 17c7 5E000000 		.4byte	.LVL327
 12997 17cb 70000000 		.4byte	.LVL329
 12998 17cf 0100     		.2byte	0x1
 12999 17d1 51       		.byte	0x51
 13000 17d2 70000000 		.4byte	.LVL329
 13001 17d6 86000000 		.4byte	.LFE22
 13002 17da 0400     		.2byte	0x4
 13003 17dc F3       		.byte	0xf3
 13004 17dd 01       		.uleb128 0x1
 13005 17de 51       		.byte	0x51
 13006 17df 9F       		.byte	0x9f
 13007 17e0 00000000 		.4byte	0
 13008 17e4 00000000 		.4byte	0
 13009              	.LLST124:
 13010 17e8 00000000 		.4byte	.LVL313
 13011 17ec 10000000 		.4byte	.LVL315
 13012 17f0 0100     		.2byte	0x1
 13013 17f2 52       		.byte	0x52
 13014 17f3 10000000 		.4byte	.LVL315
 13015 17f7 16000000 		.4byte	.LVL316
 13016 17fb 0400     		.2byte	0x4
 13017 17fd F3       		.byte	0xf3
ARM GAS  /tmp/ccZlncvZ.s 			page 230


 13018 17fe 01       		.uleb128 0x1
 13019 17ff 52       		.byte	0x52
 13020 1800 9F       		.byte	0x9f
 13021 1801 16000000 		.4byte	.LVL316
 13022 1805 20000000 		.4byte	.LVL317
 13023 1809 0100     		.2byte	0x1
 13024 180b 50       		.byte	0x50
 13025 180c 20000000 		.4byte	.LVL317
 13026 1810 46000000 		.4byte	.LVL322
 13027 1814 0400     		.2byte	0x4
 13028 1816 F3       		.byte	0xf3
 13029 1817 01       		.uleb128 0x1
 13030 1818 52       		.byte	0x52
 13031 1819 9F       		.byte	0x9f
 13032 181a 46000000 		.4byte	.LVL322
 13033 181e 52000000 		.4byte	.LVL324
 13034 1822 0100     		.2byte	0x1
 13035 1824 50       		.byte	0x50
 13036 1825 52000000 		.4byte	.LVL324
 13037 1829 5E000000 		.4byte	.LVL327
 13038 182d 0400     		.2byte	0x4
 13039 182f F3       		.byte	0xf3
 13040 1830 01       		.uleb128 0x1
 13041 1831 52       		.byte	0x52
 13042 1832 9F       		.byte	0x9f
 13043 1833 5E000000 		.4byte	.LVL327
 13044 1837 6A000000 		.4byte	.LVL328
 13045 183b 0100     		.2byte	0x1
 13046 183d 50       		.byte	0x50
 13047 183e 6A000000 		.4byte	.LVL328
 13048 1842 86000000 		.4byte	.LFE22
 13049 1846 0400     		.2byte	0x4
 13050 1848 F3       		.byte	0xf3
 13051 1849 01       		.uleb128 0x1
 13052 184a 52       		.byte	0x52
 13053 184b 9F       		.byte	0x9f
 13054 184c 00000000 		.4byte	0
 13055 1850 00000000 		.4byte	0
 13056              	.LLST125:
 13057 1854 26000000 		.4byte	.LVL319
 13058 1858 3B000000 		.4byte	.LVL320-1
 13059 185c 0100     		.2byte	0x1
 13060 185e 50       		.byte	0x50
 13061 185f 3B000000 		.4byte	.LVL320-1
 13062 1863 46000000 		.4byte	.LVL322
 13063 1867 0100     		.2byte	0x1
 13064 1869 54       		.byte	0x54
 13065 186a 58000000 		.4byte	.LVL326
 13066 186e 5E000000 		.4byte	.LVL327
 13067 1872 0100     		.2byte	0x1
 13068 1874 50       		.byte	0x50
 13069 1875 76000000 		.4byte	.LVL331
 13070 1879 7C000000 		.4byte	.LVL332
 13071 187d 0100     		.2byte	0x1
 13072 187f 50       		.byte	0x50
 13073 1880 7C000000 		.4byte	.LVL332
 13074 1884 86000000 		.4byte	.LFE22
ARM GAS  /tmp/ccZlncvZ.s 			page 231


 13075 1888 0100     		.2byte	0x1
 13076 188a 54       		.byte	0x54
 13077 188b 00000000 		.4byte	0
 13078 188f 00000000 		.4byte	0
 13079              	.LLST126:
 13080 1893 40000000 		.4byte	.LVL321
 13081 1897 46000000 		.4byte	.LVL322
 13082 189b 0100     		.2byte	0x1
 13083 189d 50       		.byte	0x50
 13084 189e 7C000000 		.4byte	.LVL332
 13085 18a2 7E000000 		.4byte	.LVL333
 13086 18a6 0100     		.2byte	0x1
 13087 18a8 50       		.byte	0x50
 13088 18a9 7E000000 		.4byte	.LVL333
 13089 18ad 86000000 		.4byte	.LFE22
 13090 18b1 0100     		.2byte	0x1
 13091 18b3 55       		.byte	0x55
 13092 18b4 00000000 		.4byte	0
 13093 18b8 00000000 		.4byte	0
 13094              	.LLST127:
 13095 18bc 00000000 		.4byte	.LVL335
 13096 18c0 05000000 		.4byte	.LVL336-1
 13097 18c4 0100     		.2byte	0x1
 13098 18c6 50       		.byte	0x50
 13099 18c7 05000000 		.4byte	.LVL336-1
 13100 18cb 06000000 		.4byte	.LFE23
 13101 18cf 0400     		.2byte	0x4
 13102 18d1 F3       		.byte	0xf3
 13103 18d2 01       		.uleb128 0x1
 13104 18d3 50       		.byte	0x50
 13105 18d4 9F       		.byte	0x9f
 13106 18d5 00000000 		.4byte	0
 13107 18d9 00000000 		.4byte	0
 13108              	.LLST128:
 13109 18dd 00000000 		.4byte	.LVL335
 13110 18e1 05000000 		.4byte	.LVL336-1
 13111 18e5 0100     		.2byte	0x1
 13112 18e7 51       		.byte	0x51
 13113 18e8 05000000 		.4byte	.LVL336-1
 13114 18ec 06000000 		.4byte	.LFE23
 13115 18f0 0400     		.2byte	0x4
 13116 18f2 F3       		.byte	0xf3
 13117 18f3 01       		.uleb128 0x1
 13118 18f4 51       		.byte	0x51
 13119 18f5 9F       		.byte	0x9f
 13120 18f6 00000000 		.4byte	0
 13121 18fa 00000000 		.4byte	0
 13122              	.LLST129:
 13123 18fe 00000000 		.4byte	.LVL335
 13124 1902 05000000 		.4byte	.LVL336-1
 13125 1906 0100     		.2byte	0x1
 13126 1908 52       		.byte	0x52
 13127 1909 05000000 		.4byte	.LVL336-1
 13128 190d 06000000 		.4byte	.LFE23
 13129 1911 0400     		.2byte	0x4
 13130 1913 F3       		.byte	0xf3
 13131 1914 01       		.uleb128 0x1
ARM GAS  /tmp/ccZlncvZ.s 			page 232


 13132 1915 52       		.byte	0x52
 13133 1916 9F       		.byte	0x9f
 13134 1917 00000000 		.4byte	0
 13135 191b 00000000 		.4byte	0
 13136              	.LLST130:
 13137 191f 00000000 		.4byte	.LVL337
 13138 1923 21000000 		.4byte	.LVL338-1
 13139 1927 0100     		.2byte	0x1
 13140 1929 50       		.byte	0x50
 13141 192a 21000000 		.4byte	.LVL338-1
 13142 192e 92020000 		.4byte	.LFE25
 13143 1932 0100     		.2byte	0x1
 13144 1934 56       		.byte	0x56
 13145 1935 00000000 		.4byte	0
 13146 1939 00000000 		.4byte	0
 13147              	.LLST131:
 13148 193d 00000000 		.4byte	.LVL337
 13149 1941 21000000 		.4byte	.LVL338-1
 13150 1945 0100     		.2byte	0x1
 13151 1947 51       		.byte	0x51
 13152 1948 21000000 		.4byte	.LVL338-1
 13153 194c 92020000 		.4byte	.LFE25
 13154 1950 0100     		.2byte	0x1
 13155 1952 54       		.byte	0x54
 13156 1953 00000000 		.4byte	0
 13157 1957 00000000 		.4byte	0
 13158              	.LLST132:
 13159 195b 00000000 		.4byte	.LVL337
 13160 195f 21000000 		.4byte	.LVL338-1
 13161 1963 0100     		.2byte	0x1
 13162 1965 52       		.byte	0x52
 13163 1966 21000000 		.4byte	.LVL338-1
 13164 196a 92020000 		.4byte	.LFE25
 13165 196e 0100     		.2byte	0x1
 13166 1970 55       		.byte	0x55
 13167 1971 00000000 		.4byte	0
 13168 1975 00000000 		.4byte	0
 13169              	.LLST133:
 13170 1979 00000000 		.4byte	.LVL337
 13171 197d 21000000 		.4byte	.LVL338-1
 13172 1981 0100     		.2byte	0x1
 13173 1983 53       		.byte	0x53
 13174 1984 21000000 		.4byte	.LVL338-1
 13175 1988 92020000 		.4byte	.LFE25
 13176 198c 0100     		.2byte	0x1
 13177 198e 57       		.byte	0x57
 13178 198f 00000000 		.4byte	0
 13179 1993 00000000 		.4byte	0
 13180              	.LLST134:
 13181 1997 00000000 		.4byte	.LVL337
 13182 199b 02020000 		.4byte	.LVL369
 13183 199f 0200     		.2byte	0x2
 13184 19a1 91       		.byte	0x91
 13185 19a2 00       		.sleb128 0
 13186 19a3 02020000 		.4byte	.LVL369
 13187 19a7 92020000 		.4byte	.LFE25
 13188 19ab 0200     		.2byte	0x2
ARM GAS  /tmp/ccZlncvZ.s 			page 233


 13189 19ad 91       		.byte	0x91
 13190 19ae 00       		.sleb128 0
 13191 19af 00000000 		.4byte	0
 13192 19b3 00000000 		.4byte	0
 13193              	.LLST135:
 13194 19b7 00000000 		.4byte	.LVL337
 13195 19bb 34010000 		.4byte	.LVL355
 13196 19bf 0200     		.2byte	0x2
 13197 19c1 30       		.byte	0x30
 13198 19c2 9F       		.byte	0x9f
 13199 19c3 34010000 		.4byte	.LVL355
 13200 19c7 36010000 		.4byte	.LVL356
 13201 19cb 0100     		.2byte	0x1
 13202 19cd 50       		.byte	0x50
 13203 19ce 36010000 		.4byte	.LVL356
 13204 19d2 3A010000 		.4byte	.LVL357
 13205 19d6 0200     		.2byte	0x2
 13206 19d8 30       		.byte	0x30
 13207 19d9 9F       		.byte	0x9f
 13208 19da 3A010000 		.4byte	.LVL357
 13209 19de E0010000 		.4byte	.LVL366
 13210 19e2 0300     		.2byte	0x3
 13211 19e4 91       		.byte	0x91
 13212 19e5 AC7F     		.sleb128 -84
 13213 19e7 02020000 		.4byte	.LVL369
 13214 19eb 3A020000 		.4byte	.LVL372
 13215 19ef 0200     		.2byte	0x2
 13216 19f1 30       		.byte	0x30
 13217 19f2 9F       		.byte	0x9f
 13218 19f3 3A020000 		.4byte	.LVL372
 13219 19f7 70020000 		.4byte	.LVL378
 13220 19fb 0300     		.2byte	0x3
 13221 19fd 91       		.byte	0x91
 13222 19fe AC7F     		.sleb128 -84
 13223 1a00 70020000 		.4byte	.LVL378
 13224 1a04 76020000 		.4byte	.LVL380
 13225 1a08 0200     		.2byte	0x2
 13226 1a0a 30       		.byte	0x30
 13227 1a0b 9F       		.byte	0x9f
 13228 1a0c 76020000 		.4byte	.LVL380
 13229 1a10 84020000 		.4byte	.LVL381
 13230 1a14 0300     		.2byte	0x3
 13231 1a16 91       		.byte	0x91
 13232 1a17 AC7F     		.sleb128 -84
 13233 1a19 84020000 		.4byte	.LVL381
 13234 1a1d 92020000 		.4byte	.LFE25
 13235 1a21 0200     		.2byte	0x2
 13236 1a23 30       		.byte	0x30
 13237 1a24 9F       		.byte	0x9f
 13238 1a25 00000000 		.4byte	0
 13239 1a29 00000000 		.4byte	0
 13240              	.LLST136:
 13241 1a2d 22000000 		.4byte	.LVL338
 13242 1a31 48000000 		.4byte	.LVL339
 13243 1a35 0100     		.2byte	0x1
 13244 1a37 50       		.byte	0x50
 13245 1a38 48000000 		.4byte	.LVL339
ARM GAS  /tmp/ccZlncvZ.s 			page 234


 13246 1a3c 9E000000 		.4byte	.LVL342
 13247 1a40 0100     		.2byte	0x1
 13248 1a42 58       		.byte	0x58
 13249 1a43 F8000000 		.4byte	.LVL349
 13250 1a47 08010000 		.4byte	.LVL350
 13251 1a4b 0100     		.2byte	0x1
 13252 1a4d 50       		.byte	0x50
 13253 1a4e 08010000 		.4byte	.LVL350
 13254 1a52 18010000 		.4byte	.LVL351
 13255 1a56 0100     		.2byte	0x1
 13256 1a58 51       		.byte	0x51
 13257 1a59 18010000 		.4byte	.LVL351
 13258 1a5d 36010000 		.4byte	.LVL356
 13259 1a61 0100     		.2byte	0x1
 13260 1a63 58       		.byte	0x58
 13261 1a64 36010000 		.4byte	.LVL356
 13262 1a68 3A010000 		.4byte	.LVL357
 13263 1a6c 0100     		.2byte	0x1
 13264 1a6e 50       		.byte	0x50
 13265 1a6f 3A010000 		.4byte	.LVL357
 13266 1a73 F4010000 		.4byte	.LVL367
 13267 1a77 0100     		.2byte	0x1
 13268 1a79 58       		.byte	0x58
 13269 1a7a F4010000 		.4byte	.LVL367
 13270 1a7e FA010000 		.4byte	.LVL368
 13271 1a82 0100     		.2byte	0x1
 13272 1a84 50       		.byte	0x50
 13273 1a85 FA010000 		.4byte	.LVL368
 13274 1a89 02020000 		.4byte	.LVL369
 13275 1a8d 0100     		.2byte	0x1
 13276 1a8f 58       		.byte	0x58
 13277 1a90 3A020000 		.4byte	.LVL372
 13278 1a94 84020000 		.4byte	.LVL381
 13279 1a98 0100     		.2byte	0x1
 13280 1a9a 58       		.byte	0x58
 13281 1a9b 00000000 		.4byte	0
 13282 1a9f 00000000 		.4byte	0
 13283              	.LLST137:
 13284 1aa3 26010000 		.4byte	.LVL352
 13285 1aa7 31010000 		.4byte	.LVL354-1
 13286 1aab 0100     		.2byte	0x1
 13287 1aad 51       		.byte	0x51
 13288 1aae 00000000 		.4byte	0
 13289 1ab2 00000000 		.4byte	0
 13290              	.LLST138:
 13291 1ab6 5A000000 		.4byte	.LVL340
 13292 1aba A0000000 		.4byte	.LVL343
 13293 1abe 0100     		.2byte	0x1
 13294 1ac0 50       		.byte	0x50
 13295 1ac1 70020000 		.4byte	.LVL378
 13296 1ac5 74020000 		.4byte	.LVL379
 13297 1ac9 0100     		.2byte	0x1
 13298 1acb 50       		.byte	0x50
 13299 1acc 00000000 		.4byte	0
 13300 1ad0 00000000 		.4byte	0
 13301              	.LLST139:
 13302 1ad4 94000000 		.4byte	.LVL341
ARM GAS  /tmp/ccZlncvZ.s 			page 235


 13303 1ad8 A0000000 		.4byte	.LVL343
 13304 1adc 0200     		.2byte	0x2
 13305 1ade 30       		.byte	0x30
 13306 1adf 9F       		.byte	0x9f
 13307 1ae0 A0000000 		.4byte	.LVL343
 13308 1ae4 E0000000 		.4byte	.LVL348
 13309 1ae8 0100     		.2byte	0x1
 13310 1aea 58       		.byte	0x58
 13311 1aeb 3A010000 		.4byte	.LVL357
 13312 1aef 4C010000 		.4byte	.LVL358
 13313 1af3 0200     		.2byte	0x2
 13314 1af5 30       		.byte	0x30
 13315 1af6 9F       		.byte	0x9f
 13316 1af7 4C010000 		.4byte	.LVL358
 13317 1afb 98010000 		.4byte	.LVL363
 13318 1aff 0100     		.2byte	0x1
 13319 1b01 59       		.byte	0x59
 13320 1b02 02020000 		.4byte	.LVL369
 13321 1b06 3A020000 		.4byte	.LVL372
 13322 1b0a 0100     		.2byte	0x1
 13323 1b0c 58       		.byte	0x58
 13324 1b0d 3A020000 		.4byte	.LVL372
 13325 1b11 58020000 		.4byte	.LVL375
 13326 1b15 0100     		.2byte	0x1
 13327 1b17 59       		.byte	0x59
 13328 1b18 76020000 		.4byte	.LVL380
 13329 1b1c 84020000 		.4byte	.LVL381
 13330 1b20 0100     		.2byte	0x1
 13331 1b22 59       		.byte	0x59
 13332 1b23 84020000 		.4byte	.LVL381
 13333 1b27 92020000 		.4byte	.LFE25
 13334 1b2b 0100     		.2byte	0x1
 13335 1b2d 58       		.byte	0x58
 13336 1b2e 00000000 		.4byte	0
 13337 1b32 00000000 		.4byte	0
 13338              	.LLST140:
 13339 1b36 BA000000 		.4byte	.LVL344
 13340 1b3a D4000000 		.4byte	.LVL346
 13341 1b3e 0100     		.2byte	0x1
 13342 1b40 58       		.byte	0x58
 13343 1b41 34020000 		.4byte	.LVL370
 13344 1b45 3A020000 		.4byte	.LVL372
 13345 1b49 0100     		.2byte	0x1
 13346 1b4b 58       		.byte	0x58
 13347 1b4c 84020000 		.4byte	.LVL381
 13348 1b50 92020000 		.4byte	.LFE25
 13349 1b54 0100     		.2byte	0x1
 13350 1b56 58       		.byte	0x58
 13351 1b57 00000000 		.4byte	0
 13352 1b5b 00000000 		.4byte	0
 13353              	.LLST141:
 13354 1b5f 76010000 		.4byte	.LVL359
 13355 1b63 8C010000 		.4byte	.LVL361
 13356 1b67 0100     		.2byte	0x1
 13357 1b69 59       		.byte	0x59
 13358 1b6a 52020000 		.4byte	.LVL373
 13359 1b6e 58020000 		.4byte	.LVL375
ARM GAS  /tmp/ccZlncvZ.s 			page 236


 13360 1b72 0100     		.2byte	0x1
 13361 1b74 59       		.byte	0x59
 13362 1b75 76020000 		.4byte	.LVL380
 13363 1b79 84020000 		.4byte	.LVL381
 13364 1b7d 0100     		.2byte	0x1
 13365 1b7f 59       		.byte	0x59
 13366 1b80 00000000 		.4byte	0
 13367 1b84 00000000 		.4byte	0
 13368              	.LLST142:
 13369 1b88 00000000 		.4byte	.LVL382
 13370 1b8c 0A000000 		.4byte	.LVL383
 13371 1b90 0100     		.2byte	0x1
 13372 1b92 50       		.byte	0x50
 13373 1b93 0A000000 		.4byte	.LVL383
 13374 1b97 70000000 		.4byte	.LFE27
 13375 1b9b 0400     		.2byte	0x4
 13376 1b9d F3       		.byte	0xf3
 13377 1b9e 01       		.uleb128 0x1
 13378 1b9f 50       		.byte	0x50
 13379 1ba0 9F       		.byte	0x9f
 13380 1ba1 00000000 		.4byte	0
 13381 1ba5 00000000 		.4byte	0
 13382              	.LLST143:
 13383 1ba9 00000000 		.4byte	.LVL382
 13384 1bad 40000000 		.4byte	.LVL388
 13385 1bb1 0100     		.2byte	0x1
 13386 1bb3 51       		.byte	0x51
 13387 1bb4 40000000 		.4byte	.LVL388
 13388 1bb8 64000000 		.4byte	.LVL391
 13389 1bbc 0400     		.2byte	0x4
 13390 1bbe F3       		.byte	0xf3
 13391 1bbf 01       		.uleb128 0x1
 13392 1bc0 51       		.byte	0x51
 13393 1bc1 9F       		.byte	0x9f
 13394 1bc2 64000000 		.4byte	.LVL391
 13395 1bc6 68000000 		.4byte	.LVL392
 13396 1bca 0100     		.2byte	0x1
 13397 1bcc 51       		.byte	0x51
 13398 1bcd 68000000 		.4byte	.LVL392
 13399 1bd1 6A000000 		.4byte	.LVL393
 13400 1bd5 0100     		.2byte	0x1
 13401 1bd7 52       		.byte	0x52
 13402 1bd8 6A000000 		.4byte	.LVL393
 13403 1bdc 6E000000 		.4byte	.LVL394
 13404 1be0 0100     		.2byte	0x1
 13405 1be2 51       		.byte	0x51
 13406 1be3 6E000000 		.4byte	.LVL394
 13407 1be7 70000000 		.4byte	.LFE27
 13408 1beb 0400     		.2byte	0x4
 13409 1bed F3       		.byte	0xf3
 13410 1bee 01       		.uleb128 0x1
 13411 1bef 51       		.byte	0x51
 13412 1bf0 9F       		.byte	0x9f
 13413 1bf1 00000000 		.4byte	0
 13414 1bf5 00000000 		.4byte	0
 13415              	.LLST144:
 13416 1bf9 44000000 		.4byte	.LVL389
ARM GAS  /tmp/ccZlncvZ.s 			page 237


 13417 1bfd 60000000 		.4byte	.LVL390
 13418 1c01 0100     		.2byte	0x1
 13419 1c03 50       		.byte	0x50
 13420 1c04 00000000 		.4byte	0
 13421 1c08 00000000 		.4byte	0
 13422              	.LLST145:
 13423 1c0c 00000000 		.4byte	.LVL382
 13424 1c10 40000000 		.4byte	.LVL388
 13425 1c14 0200     		.2byte	0x2
 13426 1c16 30       		.byte	0x30
 13427 1c17 9F       		.byte	0x9f
 13428 1c18 40000000 		.4byte	.LVL388
 13429 1c1c 43000000 		.4byte	.LVL389-1
 13430 1c20 0100     		.2byte	0x1
 13431 1c22 51       		.byte	0x51
 13432 1c23 64000000 		.4byte	.LVL391
 13433 1c27 70000000 		.4byte	.LFE27
 13434 1c2b 0200     		.2byte	0x2
 13435 1c2d 30       		.byte	0x30
 13436 1c2e 9F       		.byte	0x9f
 13437 1c2f 00000000 		.4byte	0
 13438 1c33 00000000 		.4byte	0
 13439              	.LLST146:
 13440 1c37 00000000 		.4byte	.LVL382
 13441 1c3b 40000000 		.4byte	.LVL388
 13442 1c3f 0200     		.2byte	0x2
 13443 1c41 30       		.byte	0x30
 13444 1c42 9F       		.byte	0x9f
 13445 1c43 40000000 		.4byte	.LVL388
 13446 1c47 43000000 		.4byte	.LVL389-1
 13447 1c4b 0100     		.2byte	0x1
 13448 1c4d 52       		.byte	0x52
 13449 1c4e 64000000 		.4byte	.LVL391
 13450 1c52 70000000 		.4byte	.LFE27
 13451 1c56 0200     		.2byte	0x2
 13452 1c58 30       		.byte	0x30
 13453 1c59 9F       		.byte	0x9f
 13454 1c5a 00000000 		.4byte	0
 13455 1c5e 00000000 		.4byte	0
 13456              	.LLST148:
 13457 1c62 16000000 		.4byte	.LVL384
 13458 1c66 26000000 		.4byte	.LVL385
 13459 1c6a 0100     		.2byte	0x1
 13460 1c6c 54       		.byte	0x54
 13461 1c6d 2C000000 		.4byte	.LVL386
 13462 1c71 70000000 		.4byte	.LFE27
 13463 1c75 0100     		.2byte	0x1
 13464 1c77 54       		.byte	0x54
 13465 1c78 00000000 		.4byte	0
 13466 1c7c 00000000 		.4byte	0
 13467              	.LLST149:
 13468 1c80 00000000 		.4byte	.LVL395
 13469 1c84 05000000 		.4byte	.LVL396-1
 13470 1c88 0100     		.2byte	0x1
 13471 1c8a 50       		.byte	0x50
 13472 1c8b 05000000 		.4byte	.LVL396-1
 13473 1c8f 06000000 		.4byte	.LFE29
ARM GAS  /tmp/ccZlncvZ.s 			page 238


 13474 1c93 0400     		.2byte	0x4
 13475 1c95 F3       		.byte	0xf3
 13476 1c96 01       		.uleb128 0x1
 13477 1c97 50       		.byte	0x50
 13478 1c98 9F       		.byte	0x9f
 13479 1c99 00000000 		.4byte	0
 13480 1c9d 00000000 		.4byte	0
 13481              	.LLST150:
 13482 1ca1 00000000 		.4byte	.LVL395
 13483 1ca5 05000000 		.4byte	.LVL396-1
 13484 1ca9 0100     		.2byte	0x1
 13485 1cab 51       		.byte	0x51
 13486 1cac 05000000 		.4byte	.LVL396-1
 13487 1cb0 06000000 		.4byte	.LFE29
 13488 1cb4 0400     		.2byte	0x4
 13489 1cb6 F3       		.byte	0xf3
 13490 1cb7 01       		.uleb128 0x1
 13491 1cb8 51       		.byte	0x51
 13492 1cb9 9F       		.byte	0x9f
 13493 1cba 00000000 		.4byte	0
 13494 1cbe 00000000 		.4byte	0
 13495              	.LLST151:
 13496 1cc2 00000000 		.4byte	.LVL395
 13497 1cc6 05000000 		.4byte	.LVL396-1
 13498 1cca 0100     		.2byte	0x1
 13499 1ccc 52       		.byte	0x52
 13500 1ccd 05000000 		.4byte	.LVL396-1
 13501 1cd1 06000000 		.4byte	.LFE29
 13502 1cd5 0400     		.2byte	0x4
 13503 1cd7 F3       		.byte	0xf3
 13504 1cd8 01       		.uleb128 0x1
 13505 1cd9 52       		.byte	0x52
 13506 1cda 9F       		.byte	0x9f
 13507 1cdb 00000000 		.4byte	0
 13508 1cdf 00000000 		.4byte	0
 13509              	.LLST152:
 13510 1ce3 00000000 		.4byte	.LVL397
 13511 1ce7 05000000 		.4byte	.LVL398-1
 13512 1ceb 0100     		.2byte	0x1
 13513 1ced 50       		.byte	0x50
 13514 1cee 05000000 		.4byte	.LVL398-1
 13515 1cf2 06000000 		.4byte	.LFE30
 13516 1cf6 0400     		.2byte	0x4
 13517 1cf8 F3       		.byte	0xf3
 13518 1cf9 01       		.uleb128 0x1
 13519 1cfa 50       		.byte	0x50
 13520 1cfb 9F       		.byte	0x9f
 13521 1cfc 00000000 		.4byte	0
 13522 1d00 00000000 		.4byte	0
 13523              	.LLST153:
 13524 1d04 00000000 		.4byte	.LVL397
 13525 1d08 05000000 		.4byte	.LVL398-1
 13526 1d0c 0100     		.2byte	0x1
 13527 1d0e 51       		.byte	0x51
 13528 1d0f 05000000 		.4byte	.LVL398-1
 13529 1d13 06000000 		.4byte	.LFE30
 13530 1d17 0400     		.2byte	0x4
ARM GAS  /tmp/ccZlncvZ.s 			page 239


 13531 1d19 F3       		.byte	0xf3
 13532 1d1a 01       		.uleb128 0x1
 13533 1d1b 51       		.byte	0x51
 13534 1d1c 9F       		.byte	0x9f
 13535 1d1d 00000000 		.4byte	0
 13536 1d21 00000000 		.4byte	0
 13537              	.LLST154:
 13538 1d25 00000000 		.4byte	.LVL397
 13539 1d29 05000000 		.4byte	.LVL398-1
 13540 1d2d 0100     		.2byte	0x1
 13541 1d2f 52       		.byte	0x52
 13542 1d30 05000000 		.4byte	.LVL398-1
 13543 1d34 06000000 		.4byte	.LFE30
 13544 1d38 0400     		.2byte	0x4
 13545 1d3a F3       		.byte	0xf3
 13546 1d3b 01       		.uleb128 0x1
 13547 1d3c 52       		.byte	0x52
 13548 1d3d 9F       		.byte	0x9f
 13549 1d3e 00000000 		.4byte	0
 13550 1d42 00000000 		.4byte	0
 13551              	.LLST155:
 13552 1d46 00000000 		.4byte	.LVL399
 13553 1d4a 14000000 		.4byte	.LVL400
 13554 1d4e 0100     		.2byte	0x1
 13555 1d50 50       		.byte	0x50
 13556 1d51 14000000 		.4byte	.LVL400
 13557 1d55 1C010000 		.4byte	.LFE31
 13558 1d59 0400     		.2byte	0x4
 13559 1d5b F3       		.byte	0xf3
 13560 1d5c 01       		.uleb128 0x1
 13561 1d5d 50       		.byte	0x50
 13562 1d5e 9F       		.byte	0x9f
 13563 1d5f 00000000 		.4byte	0
 13564 1d63 00000000 		.4byte	0
 13565              	.LLST156:
 13566 1d67 00000000 		.4byte	.LVL399
 13567 1d6b 28000000 		.4byte	.LVL402
 13568 1d6f 0100     		.2byte	0x1
 13569 1d71 51       		.byte	0x51
 13570 1d72 28000000 		.4byte	.LVL402
 13571 1d76 1C010000 		.4byte	.LFE31
 13572 1d7a 0100     		.2byte	0x1
 13573 1d7c 54       		.byte	0x54
 13574 1d7d 00000000 		.4byte	0
 13575 1d81 00000000 		.4byte	0
 13576              	.LLST157:
 13577 1d85 00000000 		.4byte	.LVL399
 13578 1d89 40000000 		.4byte	.LVL403
 13579 1d8d 0100     		.2byte	0x1
 13580 1d8f 52       		.byte	0x52
 13581 1d90 40000000 		.4byte	.LVL403
 13582 1d94 52000000 		.4byte	.LVL405
 13583 1d98 0100     		.2byte	0x1
 13584 1d9a 57       		.byte	0x57
 13585 1d9b 52000000 		.4byte	.LVL405
 13586 1d9f 56000000 		.4byte	.LVL406
 13587 1da3 0100     		.2byte	0x1
ARM GAS  /tmp/ccZlncvZ.s 			page 240


 13588 1da5 52       		.byte	0x52
 13589 1da6 56000000 		.4byte	.LVL406
 13590 1daa 5C000000 		.4byte	.LVL407
 13591 1dae 0100     		.2byte	0x1
 13592 1db0 57       		.byte	0x57
 13593 1db1 5C000000 		.4byte	.LVL407
 13594 1db5 5E000000 		.4byte	.LVL408
 13595 1db9 0100     		.2byte	0x1
 13596 1dbb 52       		.byte	0x52
 13597 1dbc 5E000000 		.4byte	.LVL408
 13598 1dc0 00010000 		.4byte	.LVL418
 13599 1dc4 0100     		.2byte	0x1
 13600 1dc6 57       		.byte	0x57
 13601 1dc7 00010000 		.4byte	.LVL418
 13602 1dcb 0C010000 		.4byte	.LVL420
 13603 1dcf 0100     		.2byte	0x1
 13604 1dd1 52       		.byte	0x52
 13605 1dd2 0C010000 		.4byte	.LVL420
 13606 1dd6 1C010000 		.4byte	.LFE31
 13607 1dda 0100     		.2byte	0x1
 13608 1ddc 57       		.byte	0x57
 13609 1ddd 00000000 		.4byte	0
 13610 1de1 00000000 		.4byte	0
 13611              	.LLST158:
 13612 1de5 00000000 		.4byte	.LVL399
 13613 1de9 48000000 		.4byte	.LVL404
 13614 1ded 0100     		.2byte	0x1
 13615 1def 53       		.byte	0x53
 13616 1df0 48000000 		.4byte	.LVL404
 13617 1df4 52000000 		.4byte	.LVL405
 13618 1df8 0400     		.2byte	0x4
 13619 1dfa F3       		.byte	0xf3
 13620 1dfb 01       		.uleb128 0x1
 13621 1dfc 53       		.byte	0x53
 13622 1dfd 9F       		.byte	0x9f
 13623 1dfe 52000000 		.4byte	.LVL405
 13624 1e02 56000000 		.4byte	.LVL406
 13625 1e06 0100     		.2byte	0x1
 13626 1e08 53       		.byte	0x53
 13627 1e09 56000000 		.4byte	.LVL406
 13628 1e0d 5C000000 		.4byte	.LVL407
 13629 1e11 0400     		.2byte	0x4
 13630 1e13 F3       		.byte	0xf3
 13631 1e14 01       		.uleb128 0x1
 13632 1e15 53       		.byte	0x53
 13633 1e16 9F       		.byte	0x9f
 13634 1e17 5C000000 		.4byte	.LVL407
 13635 1e1b 64000000 		.4byte	.LVL409
 13636 1e1f 0100     		.2byte	0x1
 13637 1e21 53       		.byte	0x53
 13638 1e22 64000000 		.4byte	.LVL409
 13639 1e26 66000000 		.4byte	.LVL410
 13640 1e2a 0400     		.2byte	0x4
 13641 1e2c F3       		.byte	0xf3
 13642 1e2d 01       		.uleb128 0x1
 13643 1e2e 53       		.byte	0x53
 13644 1e2f 9F       		.byte	0x9f
ARM GAS  /tmp/ccZlncvZ.s 			page 241


 13645 1e30 66000000 		.4byte	.LVL410
 13646 1e34 95000000 		.4byte	.LVL412-1
 13647 1e38 0100     		.2byte	0x1
 13648 1e3a 53       		.byte	0x53
 13649 1e3b 95000000 		.4byte	.LVL412-1
 13650 1e3f BA000000 		.4byte	.LVL414
 13651 1e43 0400     		.2byte	0x4
 13652 1e45 F3       		.byte	0xf3
 13653 1e46 01       		.uleb128 0x1
 13654 1e47 53       		.byte	0x53
 13655 1e48 9F       		.byte	0x9f
 13656 1e49 BA000000 		.4byte	.LVL414
 13657 1e4d E6000000 		.4byte	.LVL416
 13658 1e51 0100     		.2byte	0x1
 13659 1e53 53       		.byte	0x53
 13660 1e54 E6000000 		.4byte	.LVL416
 13661 1e58 E8000000 		.4byte	.LVL417
 13662 1e5c 0400     		.2byte	0x4
 13663 1e5e F3       		.byte	0xf3
 13664 1e5f 01       		.uleb128 0x1
 13665 1e60 53       		.byte	0x53
 13666 1e61 9F       		.byte	0x9f
 13667 1e62 E8000000 		.4byte	.LVL417
 13668 1e66 02010000 		.4byte	.LVL419
 13669 1e6a 0100     		.2byte	0x1
 13670 1e6c 53       		.byte	0x53
 13671 1e6d 02010000 		.4byte	.LVL419
 13672 1e71 0C010000 		.4byte	.LVL420
 13673 1e75 0400     		.2byte	0x4
 13674 1e77 F3       		.byte	0xf3
 13675 1e78 01       		.uleb128 0x1
 13676 1e79 53       		.byte	0x53
 13677 1e7a 9F       		.byte	0x9f
 13678 1e7b 0C010000 		.4byte	.LVL420
 13679 1e7f 1A010000 		.4byte	.LVL421
 13680 1e83 0100     		.2byte	0x1
 13681 1e85 53       		.byte	0x53
 13682 1e86 1A010000 		.4byte	.LVL421
 13683 1e8a 1C010000 		.4byte	.LFE31
 13684 1e8e 0400     		.2byte	0x4
 13685 1e90 F3       		.byte	0xf3
 13686 1e91 01       		.uleb128 0x1
 13687 1e92 53       		.byte	0x53
 13688 1e93 9F       		.byte	0x9f
 13689 1e94 00000000 		.4byte	0
 13690 1e98 00000000 		.4byte	0
 13691              	.LLST159:
 13692 1e9c 00000000 		.4byte	.LVL399
 13693 1ea0 5C000000 		.4byte	.LVL407
 13694 1ea4 0200     		.2byte	0x2
 13695 1ea6 91       		.byte	0x91
 13696 1ea7 00       		.sleb128 0
 13697 1ea8 5C000000 		.4byte	.LVL407
 13698 1eac 1C010000 		.4byte	.LFE31
 13699 1eb0 0200     		.2byte	0x2
 13700 1eb2 91       		.byte	0x91
 13701 1eb3 00       		.sleb128 0
ARM GAS  /tmp/ccZlncvZ.s 			page 242


 13702 1eb4 00000000 		.4byte	0
 13703 1eb8 00000000 		.4byte	0
 13704              	.LLST160:
 13705 1ebc 00000000 		.4byte	.LVL399
 13706 1ec0 48000000 		.4byte	.LVL404
 13707 1ec4 0200     		.2byte	0x2
 13708 1ec6 30       		.byte	0x30
 13709 1ec7 9F       		.byte	0x9f
 13710 1ec8 52000000 		.4byte	.LVL405
 13711 1ecc 56000000 		.4byte	.LVL406
 13712 1ed0 0200     		.2byte	0x2
 13713 1ed2 30       		.byte	0x30
 13714 1ed3 9F       		.byte	0x9f
 13715 1ed4 5C000000 		.4byte	.LVL407
 13716 1ed8 72000000 		.4byte	.LVL411
 13717 1edc 0200     		.2byte	0x2
 13718 1ede 30       		.byte	0x30
 13719 1edf 9F       		.byte	0x9f
 13720 1ee0 A2000000 		.4byte	.LVL413
 13721 1ee4 BA000000 		.4byte	.LVL414
 13722 1ee8 0200     		.2byte	0x2
 13723 1eea 91       		.byte	0x91
 13724 1eeb 5C       		.sleb128 -36
 13725 1eec BA000000 		.4byte	.LVL414
 13726 1ef0 E0000000 		.4byte	.LVL415
 13727 1ef4 0200     		.2byte	0x2
 13728 1ef6 30       		.byte	0x30
 13729 1ef7 9F       		.byte	0x9f
 13730 1ef8 E0000000 		.4byte	.LVL415
 13731 1efc E8000000 		.4byte	.LVL417
 13732 1f00 0100     		.2byte	0x1
 13733 1f02 52       		.byte	0x52
 13734 1f03 E8000000 		.4byte	.LVL417
 13735 1f07 0C010000 		.4byte	.LVL420
 13736 1f0b 0200     		.2byte	0x2
 13737 1f0d 30       		.byte	0x30
 13738 1f0e 9F       		.byte	0x9f
 13739 1f0f 0C010000 		.4byte	.LVL420
 13740 1f13 1C010000 		.4byte	.LFE31
 13741 1f17 0100     		.2byte	0x1
 13742 1f19 52       		.byte	0x52
 13743 1f1a 00000000 		.4byte	0
 13744 1f1e 00000000 		.4byte	0
 13745              	.LLST162:
 13746 1f22 24000000 		.4byte	.LVL401
 13747 1f26 52000000 		.4byte	.LVL405
 13748 1f2a 0100     		.2byte	0x1
 13749 1f2c 5A       		.byte	0x5a
 13750 1f2d 5C000000 		.4byte	.LVL407
 13751 1f31 1C010000 		.4byte	.LFE31
 13752 1f35 0100     		.2byte	0x1
 13753 1f37 5A       		.byte	0x5a
 13754 1f38 00000000 		.4byte	0
 13755 1f3c 00000000 		.4byte	0
 13756              	.LLST163:
 13757 1f40 00000000 		.4byte	.LVL422
 13758 1f44 12000000 		.4byte	.LVL423
ARM GAS  /tmp/ccZlncvZ.s 			page 243


 13759 1f48 0100     		.2byte	0x1
 13760 1f4a 50       		.byte	0x50
 13761 1f4b 12000000 		.4byte	.LVL423
 13762 1f4f 00010000 		.4byte	.LFE33
 13763 1f53 0400     		.2byte	0x4
 13764 1f55 F3       		.byte	0xf3
 13765 1f56 01       		.uleb128 0x1
 13766 1f57 50       		.byte	0x50
 13767 1f58 9F       		.byte	0x9f
 13768 1f59 00000000 		.4byte	0
 13769 1f5d 00000000 		.4byte	0
 13770              	.LLST164:
 13771 1f61 00000000 		.4byte	.LVL422
 13772 1f65 26000000 		.4byte	.LVL425
 13773 1f69 0100     		.2byte	0x1
 13774 1f6b 51       		.byte	0x51
 13775 1f6c 26000000 		.4byte	.LVL425
 13776 1f70 00010000 		.4byte	.LFE33
 13777 1f74 0100     		.2byte	0x1
 13778 1f76 54       		.byte	0x54
 13779 1f77 00000000 		.4byte	0
 13780 1f7b 00000000 		.4byte	0
 13781              	.LLST165:
 13782 1f7f 00000000 		.4byte	.LVL422
 13783 1f83 34000000 		.4byte	.LVL427
 13784 1f87 0100     		.2byte	0x1
 13785 1f89 52       		.byte	0x52
 13786 1f8a 34000000 		.4byte	.LVL427
 13787 1f8e 46000000 		.4byte	.LVL429
 13788 1f92 0100     		.2byte	0x1
 13789 1f94 56       		.byte	0x56
 13790 1f95 46000000 		.4byte	.LVL429
 13791 1f99 4A000000 		.4byte	.LVL430
 13792 1f9d 0100     		.2byte	0x1
 13793 1f9f 52       		.byte	0x52
 13794 1fa0 4A000000 		.4byte	.LVL430
 13795 1fa4 50000000 		.4byte	.LVL431
 13796 1fa8 0100     		.2byte	0x1
 13797 1faa 56       		.byte	0x56
 13798 1fab 50000000 		.4byte	.LVL431
 13799 1faf 52000000 		.4byte	.LVL432
 13800 1fb3 0100     		.2byte	0x1
 13801 1fb5 52       		.byte	0x52
 13802 1fb6 52000000 		.4byte	.LVL432
 13803 1fba F4000000 		.4byte	.LVL444
 13804 1fbe 0100     		.2byte	0x1
 13805 1fc0 56       		.byte	0x56
 13806 1fc1 F4000000 		.4byte	.LVL444
 13807 1fc5 00010000 		.4byte	.LFE33
 13808 1fc9 0100     		.2byte	0x1
 13809 1fcb 52       		.byte	0x52
 13810 1fcc 00000000 		.4byte	0
 13811 1fd0 00000000 		.4byte	0
 13812              	.LLST166:
 13813 1fd4 00000000 		.4byte	.LVL422
 13814 1fd8 3C000000 		.4byte	.LVL428
 13815 1fdc 0100     		.2byte	0x1
ARM GAS  /tmp/ccZlncvZ.s 			page 244


 13816 1fde 53       		.byte	0x53
 13817 1fdf 3C000000 		.4byte	.LVL428
 13818 1fe3 46000000 		.4byte	.LVL429
 13819 1fe7 0400     		.2byte	0x4
 13820 1fe9 F3       		.byte	0xf3
 13821 1fea 01       		.uleb128 0x1
 13822 1feb 53       		.byte	0x53
 13823 1fec 9F       		.byte	0x9f
 13824 1fed 46000000 		.4byte	.LVL429
 13825 1ff1 4A000000 		.4byte	.LVL430
 13826 1ff5 0100     		.2byte	0x1
 13827 1ff7 53       		.byte	0x53
 13828 1ff8 4A000000 		.4byte	.LVL430
 13829 1ffc 50000000 		.4byte	.LVL431
 13830 2000 0400     		.2byte	0x4
 13831 2002 F3       		.byte	0xf3
 13832 2003 01       		.uleb128 0x1
 13833 2004 53       		.byte	0x53
 13834 2005 9F       		.byte	0x9f
 13835 2006 50000000 		.4byte	.LVL431
 13836 200a 58000000 		.4byte	.LVL433
 13837 200e 0100     		.2byte	0x1
 13838 2010 53       		.byte	0x53
 13839 2011 58000000 		.4byte	.LVL433
 13840 2015 5A000000 		.4byte	.LVL434
 13841 2019 0400     		.2byte	0x4
 13842 201b F3       		.byte	0xf3
 13843 201c 01       		.uleb128 0x1
 13844 201d 53       		.byte	0x53
 13845 201e 9F       		.byte	0x9f
 13846 201f 5A000000 		.4byte	.LVL434
 13847 2023 78000000 		.4byte	.LVL436
 13848 2027 0100     		.2byte	0x1
 13849 2029 53       		.byte	0x53
 13850 202a 78000000 		.4byte	.LVL436
 13851 202e 89000000 		.4byte	.LVL437-1
 13852 2032 0200     		.2byte	0x2
 13853 2034 73       		.byte	0x73
 13854 2035 54       		.sleb128 -44
 13855 2036 89000000 		.4byte	.LVL437-1
 13856 203a AC000000 		.4byte	.LVL439
 13857 203e 0400     		.2byte	0x4
 13858 2040 F3       		.byte	0xf3
 13859 2041 01       		.uleb128 0x1
 13860 2042 53       		.byte	0x53
 13861 2043 9F       		.byte	0x9f
 13862 2044 AC000000 		.4byte	.LVL439
 13863 2048 E2000000 		.4byte	.LVL441
 13864 204c 0100     		.2byte	0x1
 13865 204e 53       		.byte	0x53
 13866 204f E2000000 		.4byte	.LVL441
 13867 2053 E4000000 		.4byte	.LVL442
 13868 2057 0400     		.2byte	0x4
 13869 2059 F3       		.byte	0xf3
 13870 205a 01       		.uleb128 0x1
 13871 205b 53       		.byte	0x53
 13872 205c 9F       		.byte	0x9f
ARM GAS  /tmp/ccZlncvZ.s 			page 245


 13873 205d E4000000 		.4byte	.LVL442
 13874 2061 F2000000 		.4byte	.LVL443
 13875 2065 0100     		.2byte	0x1
 13876 2067 53       		.byte	0x53
 13877 2068 F2000000 		.4byte	.LVL443
 13878 206c F4000000 		.4byte	.LVL444
 13879 2070 0400     		.2byte	0x4
 13880 2072 F3       		.byte	0xf3
 13881 2073 01       		.uleb128 0x1
 13882 2074 53       		.byte	0x53
 13883 2075 9F       		.byte	0x9f
 13884 2076 F4000000 		.4byte	.LVL444
 13885 207a F6000000 		.4byte	.LVL445
 13886 207e 0100     		.2byte	0x1
 13887 2080 53       		.byte	0x53
 13888 2081 F6000000 		.4byte	.LVL445
 13889 2085 00010000 		.4byte	.LFE33
 13890 2089 0400     		.2byte	0x4
 13891 208b F3       		.byte	0xf3
 13892 208c 01       		.uleb128 0x1
 13893 208d 53       		.byte	0x53
 13894 208e 9F       		.byte	0x9f
 13895 208f 00000000 		.4byte	0
 13896 2093 00000000 		.4byte	0
 13897              	.LLST167:
 13898 2097 00000000 		.4byte	.LVL422
 13899 209b 50000000 		.4byte	.LVL431
 13900 209f 0200     		.2byte	0x2
 13901 20a1 91       		.byte	0x91
 13902 20a2 00       		.sleb128 0
 13903 20a3 50000000 		.4byte	.LVL431
 13904 20a7 78000000 		.4byte	.LVL436
 13905 20ab 0200     		.2byte	0x2
 13906 20ad 91       		.byte	0x91
 13907 20ae 00       		.sleb128 0
 13908 20af 78000000 		.4byte	.LVL436
 13909 20b3 89000000 		.4byte	.LVL437-1
 13910 20b7 0200     		.2byte	0x2
 13911 20b9 73       		.byte	0x73
 13912 20ba 00       		.sleb128 0
 13913 20bb 89000000 		.4byte	.LVL437-1
 13914 20bf 00010000 		.4byte	.LFE33
 13915 20c3 0200     		.2byte	0x2
 13916 20c5 91       		.byte	0x91
 13917 20c6 00       		.sleb128 0
 13918 20c7 00000000 		.4byte	0
 13919 20cb 00000000 		.4byte	0
 13920              	.LLST168:
 13921 20cf 28000000 		.4byte	.LVL426
 13922 20d3 3C000000 		.4byte	.LVL428
 13923 20d7 0200     		.2byte	0x2
 13924 20d9 30       		.byte	0x30
 13925 20da 9F       		.byte	0x9f
 13926 20db 50000000 		.4byte	.LVL431
 13927 20df 66000000 		.4byte	.LVL435
 13928 20e3 0200     		.2byte	0x2
 13929 20e5 30       		.byte	0x30
ARM GAS  /tmp/ccZlncvZ.s 			page 246


 13930 20e6 9F       		.byte	0x9f
 13931 20e7 96000000 		.4byte	.LVL438
 13932 20eb AC000000 		.4byte	.LVL439
 13933 20ef 0200     		.2byte	0x2
 13934 20f1 91       		.byte	0x91
 13935 20f2 5C       		.sleb128 -36
 13936 20f3 AC000000 		.4byte	.LVL439
 13937 20f7 DC000000 		.4byte	.LVL440
 13938 20fb 0200     		.2byte	0x2
 13939 20fd 30       		.byte	0x30
 13940 20fe 9F       		.byte	0x9f
 13941 20ff DC000000 		.4byte	.LVL440
 13942 2103 F4000000 		.4byte	.LVL444
 13943 2107 0100     		.2byte	0x1
 13944 2109 52       		.byte	0x52
 13945 210a F4000000 		.4byte	.LVL444
 13946 210e 00010000 		.4byte	.LFE33
 13947 2112 0200     		.2byte	0x2
 13948 2114 30       		.byte	0x30
 13949 2115 9F       		.byte	0x9f
 13950 2116 00000000 		.4byte	0
 13951 211a 00000000 		.4byte	0
 13952              	.LLST170:
 13953 211e 22000000 		.4byte	.LVL424
 13954 2122 46000000 		.4byte	.LVL429
 13955 2126 0100     		.2byte	0x1
 13956 2128 59       		.byte	0x59
 13957 2129 50000000 		.4byte	.LVL431
 13958 212d 00010000 		.4byte	.LFE33
 13959 2131 0100     		.2byte	0x1
 13960 2133 59       		.byte	0x59
 13961 2134 00000000 		.4byte	0
 13962 2138 00000000 		.4byte	0
 13963              	.LLST171:
 13964 213c 00000000 		.4byte	.LVL446
 13965 2140 0A000000 		.4byte	.LVL447
 13966 2144 0100     		.2byte	0x1
 13967 2146 50       		.byte	0x50
 13968 2147 0A000000 		.4byte	.LVL447
 13969 214b 5C000000 		.4byte	.LFE35
 13970 214f 0400     		.2byte	0x4
 13971 2151 F3       		.byte	0xf3
 13972 2152 01       		.uleb128 0x1
 13973 2153 50       		.byte	0x50
 13974 2154 9F       		.byte	0x9f
 13975 2155 00000000 		.4byte	0
 13976 2159 00000000 		.4byte	0
 13977              	.LLST172:
 13978 215d 00000000 		.4byte	.LVL446
 13979 2161 2A000000 		.4byte	.LVL450
 13980 2165 0100     		.2byte	0x1
 13981 2167 52       		.byte	0x52
 13982 2168 2A000000 		.4byte	.LVL450
 13983 216c 3E000000 		.4byte	.LVL454
 13984 2170 0400     		.2byte	0x4
 13985 2172 F3       		.byte	0xf3
 13986 2173 01       		.uleb128 0x1
ARM GAS  /tmp/ccZlncvZ.s 			page 247


 13987 2174 52       		.byte	0x52
 13988 2175 9F       		.byte	0x9f
 13989 2176 3E000000 		.4byte	.LVL454
 13990 217a 48000000 		.4byte	.LVL455
 13991 217e 0100     		.2byte	0x1
 13992 2180 52       		.byte	0x52
 13993 2181 48000000 		.4byte	.LVL455
 13994 2185 52000000 		.4byte	.LVL456
 13995 2189 0400     		.2byte	0x4
 13996 218b F3       		.byte	0xf3
 13997 218c 01       		.uleb128 0x1
 13998 218d 52       		.byte	0x52
 13999 218e 9F       		.byte	0x9f
 14000 218f 52000000 		.4byte	.LVL456
 14001 2193 5C000000 		.4byte	.LFE35
 14002 2197 0100     		.2byte	0x1
 14003 2199 52       		.byte	0x52
 14004 219a 00000000 		.4byte	0
 14005 219e 00000000 		.4byte	0
 14006              	.LLST173:
 14007 21a2 26000000 		.4byte	.LVL449
 14008 21a6 2C000000 		.4byte	.LVL451
 14009 21aa 0200     		.2byte	0x2
 14010 21ac 30       		.byte	0x30
 14011 21ad 9F       		.byte	0x9f
 14012 21ae 2C000000 		.4byte	.LVL451
 14013 21b2 34000000 		.4byte	.LVL452
 14014 21b6 0200     		.2byte	0x2
 14015 21b8 31       		.byte	0x31
 14016 21b9 9F       		.byte	0x9f
 14017 21ba 48000000 		.4byte	.LVL455
 14018 21be 52000000 		.4byte	.LVL456
 14019 21c2 0200     		.2byte	0x2
 14020 21c4 30       		.byte	0x30
 14021 21c5 9F       		.byte	0x9f
 14022 21c6 00000000 		.4byte	0
 14023 21ca 00000000 		.4byte	0
 14024              	.LLST175:
 14025 21ce 16000000 		.4byte	.LVL448
 14026 21d2 3C000000 		.4byte	.LVL453
 14027 21d6 0100     		.2byte	0x1
 14028 21d8 54       		.byte	0x54
 14029 21d9 3C000000 		.4byte	.LVL453
 14030 21dd 3E000000 		.4byte	.LVL454
 14031 21e1 0E00     		.2byte	0xe
 14032 21e3 F3       		.byte	0xf3
 14033 21e4 01       		.uleb128 0x1
 14034 21e5 50       		.byte	0x50
 14035 21e6 33       		.byte	0x33
 14036 21e7 1E       		.byte	0x1e
 14037 21e8 33       		.byte	0x33
 14038 21e9 24       		.byte	0x24
 14039 21ea 03       		.byte	0x3
 14040 21eb 00000000 		.4byte	.LANCHOR0
 14041 21ef 22       		.byte	0x22
 14042 21f0 9F       		.byte	0x9f
 14043 21f1 48000000 		.4byte	.LVL455
ARM GAS  /tmp/ccZlncvZ.s 			page 248


 14044 21f5 5C000000 		.4byte	.LFE35
 14045 21f9 0100     		.2byte	0x1
 14046 21fb 54       		.byte	0x54
 14047 21fc 00000000 		.4byte	0
 14048 2200 00000000 		.4byte	0
 14049              	.LLST176:
 14050 2204 00000000 		.4byte	.LVL457
 14051 2208 0C000000 		.4byte	.LVL459
 14052 220c 0100     		.2byte	0x1
 14053 220e 50       		.byte	0x50
 14054 220f 0C000000 		.4byte	.LVL459
 14055 2213 48000000 		.4byte	.LFE36
 14056 2217 0400     		.2byte	0x4
 14057 2219 F3       		.byte	0xf3
 14058 221a 01       		.uleb128 0x1
 14059 221b 50       		.byte	0x50
 14060 221c 9F       		.byte	0x9f
 14061 221d 00000000 		.4byte	0
 14062 2221 00000000 		.4byte	0
 14063              	.LLST177:
 14064 2225 00000000 		.4byte	.LVL457
 14065 2229 28000000 		.4byte	.LVL461
 14066 222d 0100     		.2byte	0x1
 14067 222f 52       		.byte	0x52
 14068 2230 28000000 		.4byte	.LVL461
 14069 2234 30000000 		.4byte	.LVL462
 14070 2238 0400     		.2byte	0x4
 14071 223a F3       		.byte	0xf3
 14072 223b 01       		.uleb128 0x1
 14073 223c 52       		.byte	0x52
 14074 223d 9F       		.byte	0x9f
 14075 223e 30000000 		.4byte	.LVL462
 14076 2242 40000000 		.4byte	.LVL466
 14077 2246 0100     		.2byte	0x1
 14078 2248 52       		.byte	0x52
 14079 2249 40000000 		.4byte	.LVL466
 14080 224d 48000000 		.4byte	.LFE36
 14081 2251 0400     		.2byte	0x4
 14082 2253 F3       		.byte	0xf3
 14083 2254 01       		.uleb128 0x1
 14084 2255 52       		.byte	0x52
 14085 2256 9F       		.byte	0x9f
 14086 2257 00000000 		.4byte	0
 14087 225b 00000000 		.4byte	0
 14088              	.LLST178:
 14089 225f 16000000 		.4byte	.LVL460
 14090 2263 30000000 		.4byte	.LVL462
 14091 2267 0300     		.2byte	0x3
 14092 2269 09       		.byte	0x9
 14093 226a FF       		.byte	0xff
 14094 226b 9F       		.byte	0x9f
 14095 226c 36000000 		.4byte	.LVL463
 14096 2270 3C000000 		.4byte	.LVL464
 14097 2274 0300     		.2byte	0x3
 14098 2276 09       		.byte	0x9
 14099 2277 FF       		.byte	0xff
 14100 2278 9F       		.byte	0x9f
ARM GAS  /tmp/ccZlncvZ.s 			page 249


 14101 2279 3C000000 		.4byte	.LVL464
 14102 227d 3E000000 		.4byte	.LVL465
 14103 2281 0100     		.2byte	0x1
 14104 2283 50       		.byte	0x50
 14105 2284 3E000000 		.4byte	.LVL465
 14106 2288 48000000 		.4byte	.LFE36
 14107 228c 0300     		.2byte	0x3
 14108 228e 09       		.byte	0x9
 14109 228f FF       		.byte	0xff
 14110 2290 9F       		.byte	0x9f
 14111 2291 00000000 		.4byte	0
 14112 2295 00000000 		.4byte	0
 14113              	.LLST180:
 14114 2299 04000000 		.4byte	.LVL458
 14115 229d 0C000000 		.4byte	.LVL459
 14116 22a1 0B00     		.2byte	0xb
 14117 22a3 70       		.byte	0x70
 14118 22a4 00       		.sleb128 0
 14119 22a5 48       		.byte	0x48
 14120 22a6 1E       		.byte	0x1e
 14121 22a7 03       		.byte	0x3
 14122 22a8 00000000 		.4byte	sockets
 14123 22ac 22       		.byte	0x22
 14124 22ad 9F       		.byte	0x9f
 14125 22ae 0C000000 		.4byte	.LVL459
 14126 22b2 30000000 		.4byte	.LVL462
 14127 22b6 0C00     		.2byte	0xc
 14128 22b8 F3       		.byte	0xf3
 14129 22b9 01       		.uleb128 0x1
 14130 22ba 50       		.byte	0x50
 14131 22bb 48       		.byte	0x48
 14132 22bc 1E       		.byte	0x1e
 14133 22bd 03       		.byte	0x3
 14134 22be 00000000 		.4byte	sockets
 14135 22c2 22       		.byte	0x22
 14136 22c3 9F       		.byte	0x9f
 14137 22c4 36000000 		.4byte	.LVL463
 14138 22c8 48000000 		.4byte	.LFE36
 14139 22cc 0C00     		.2byte	0xc
 14140 22ce F3       		.byte	0xf3
 14141 22cf 01       		.uleb128 0x1
 14142 22d0 50       		.byte	0x50
 14143 22d1 48       		.byte	0x48
 14144 22d2 1E       		.byte	0x1e
 14145 22d3 03       		.byte	0x3
 14146 22d4 00000000 		.4byte	sockets
 14147 22d8 22       		.byte	0x22
 14148 22d9 9F       		.byte	0x9f
 14149 22da 00000000 		.4byte	0
 14150 22de 00000000 		.4byte	0
 14151              		.section	.debug_aranges,"",%progbits
 14152 0000 EC000000 		.4byte	0xec
 14153 0004 0200     		.2byte	0x2
 14154 0006 00000000 		.4byte	.Ldebug_info0
 14155 000a 04       		.byte	0x4
 14156 000b 00       		.byte	0
 14157 000c 0000     		.2byte	0
ARM GAS  /tmp/ccZlncvZ.s 			page 250


 14158 000e 0000     		.2byte	0
 14159 0010 00000000 		.4byte	.LFB10
 14160 0014 72000000 		.4byte	.LFE10-.LFB10
 14161 0018 00000000 		.4byte	.LFB24
 14162 001c 24010000 		.4byte	.LFE24-.LFB24
 14163 0020 00000000 		.4byte	.LFB28
 14164 0024 7E000000 		.4byte	.LFE28-.LFB28
 14165 0028 00000000 		.4byte	.LFB26
 14166 002c FC000000 		.4byte	.LFE26-.LFB26
 14167 0030 00000000 		.4byte	.LFB32
 14168 0034 0E010000 		.4byte	.LFE32-.LFB32
 14169 0038 00000000 		.4byte	.LFB34
 14170 003c EC000000 		.4byte	.LFE34-.LFB34
 14171 0040 00000000 		.4byte	.LFB7
 14172 0044 02000000 		.4byte	.LFE7-.LFB7
 14173 0048 00000000 		.4byte	.LFB12
 14174 004c 6A010000 		.4byte	.LFE12-.LFB12
 14175 0050 00000000 		.4byte	.LFB13
 14176 0054 7E000000 		.4byte	.LFE13-.LFB13
 14177 0058 00000000 		.4byte	.LFB14
 14178 005c 5A000000 		.4byte	.LFE14-.LFB14
 14179 0060 00000000 		.4byte	.LFB15
 14180 0064 7E000000 		.4byte	.LFE15-.LFB15
 14181 0068 00000000 		.4byte	.LFB16
 14182 006c 62000000 		.4byte	.LFE16-.LFB16
 14183 0070 00000000 		.4byte	.LFB17
 14184 0074 56020000 		.4byte	.LFE17-.LFB17
 14185 0078 00000000 		.4byte	.LFB18
 14186 007c 14000000 		.4byte	.LFE18-.LFB18
 14187 0080 00000000 		.4byte	.LFB19
 14188 0084 12000000 		.4byte	.LFE19-.LFB19
 14189 0088 00000000 		.4byte	.LFB21
 14190 008c DE000000 		.4byte	.LFE21-.LFB21
 14191 0090 00000000 		.4byte	.LFB20
 14192 0094 80000000 		.4byte	.LFE20-.LFB20
 14193 0098 00000000 		.4byte	.LFB22
 14194 009c 86000000 		.4byte	.LFE22-.LFB22
 14195 00a0 00000000 		.4byte	.LFB23
 14196 00a4 06000000 		.4byte	.LFE23-.LFB23
 14197 00a8 00000000 		.4byte	.LFB25
 14198 00ac 92020000 		.4byte	.LFE25-.LFB25
 14199 00b0 00000000 		.4byte	.LFB27
 14200 00b4 70000000 		.4byte	.LFE27-.LFB27
 14201 00b8 00000000 		.4byte	.LFB29
 14202 00bc 06000000 		.4byte	.LFE29-.LFB29
 14203 00c0 00000000 		.4byte	.LFB30
 14204 00c4 06000000 		.4byte	.LFE30-.LFB30
 14205 00c8 00000000 		.4byte	.LFB31
 14206 00cc 1C010000 		.4byte	.LFE31-.LFB31
 14207 00d0 00000000 		.4byte	.LFB33
 14208 00d4 00010000 		.4byte	.LFE33-.LFB33
 14209 00d8 00000000 		.4byte	.LFB35
 14210 00dc 5C000000 		.4byte	.LFE35-.LFB35
 14211 00e0 00000000 		.4byte	.LFB36
 14212 00e4 48000000 		.4byte	.LFE36-.LFB36
 14213 00e8 00000000 		.4byte	0
 14214 00ec 00000000 		.4byte	0
ARM GAS  /tmp/ccZlncvZ.s 			page 251


 14215              		.section	.debug_ranges,"",%progbits
 14216              	.Ldebug_ranges0:
 14217 0000 24000000 		.4byte	.LBB45
 14218 0004 DC000000 		.4byte	.LBE45
 14219 0008 0A010000 		.4byte	.LBB52
 14220 000c 24010000 		.4byte	.LBE52
 14221 0010 00000000 		.4byte	0
 14222 0014 00000000 		.4byte	0
 14223 0018 26000000 		.4byte	.LBB46
 14224 001c 28000000 		.4byte	.LBE46
 14225 0020 32000000 		.4byte	.LBB50
 14226 0024 34000000 		.4byte	.LBE50
 14227 0028 0A010000 		.4byte	.LBB51
 14228 002c 0E010000 		.4byte	.LBE51
 14229 0030 00000000 		.4byte	0
 14230 0034 00000000 		.4byte	0
 14231 0038 04000000 		.4byte	.LBB53
 14232 003c 06000000 		.4byte	.LBE53
 14233 0040 0C000000 		.4byte	.LBB56
 14234 0044 24000000 		.4byte	.LBE56
 14235 0048 00000000 		.4byte	0
 14236 004c 00000000 		.4byte	0
 14237 0050 6C000000 		.4byte	.LBB59
 14238 0054 A4000000 		.4byte	.LBE59
 14239 0058 DE000000 		.4byte	.LBB60
 14240 005c EA000000 		.4byte	.LBE60
 14241 0060 00000000 		.4byte	0
 14242 0064 00000000 		.4byte	0
 14243 0068 04000000 		.4byte	.LBB61
 14244 006c 06000000 		.4byte	.LBE61
 14245 0070 0C000000 		.4byte	.LBB64
 14246 0074 24000000 		.4byte	.LBE64
 14247 0078 00000000 		.4byte	0
 14248 007c 00000000 		.4byte	0
 14249 0080 02000000 		.4byte	.LBB65
 14250 0084 04000000 		.4byte	.LBE65
 14251 0088 06000000 		.4byte	.LBB68
 14252 008c 1C000000 		.4byte	.LBE68
 14253 0090 00000000 		.4byte	0
 14254 0094 00000000 		.4byte	0
 14255 0098 00000000 		.4byte	.LBB73
 14256 009c 02000000 		.4byte	.LBE73
 14257 00a0 06000000 		.4byte	.LBB76
 14258 00a4 1C000000 		.4byte	.LBE76
 14259 00a8 00000000 		.4byte	0
 14260 00ac 00000000 		.4byte	0
 14261 00b0 26000000 		.4byte	.LBB77
 14262 00b4 3E000000 		.4byte	.LBE77
 14263 00b8 50000000 		.4byte	.LBB80
 14264 00bc 54000000 		.4byte	.LBE80
 14265 00c0 00000000 		.4byte	0
 14266 00c4 00000000 		.4byte	0
 14267 00c8 02000000 		.4byte	.LBB81
 14268 00cc 04000000 		.4byte	.LBE81
 14269 00d0 06000000 		.4byte	.LBB84
 14270 00d4 1C000000 		.4byte	.LBE84
 14271 00d8 00000000 		.4byte	0
ARM GAS  /tmp/ccZlncvZ.s 			page 252


 14272 00dc 00000000 		.4byte	0
 14273 00e0 00000000 		.4byte	.LBB86
 14274 00e4 02000000 		.4byte	.LBE86
 14275 00e8 04000000 		.4byte	.LBB89
 14276 00ec 1A000000 		.4byte	.LBE89
 14277 00f0 00000000 		.4byte	0
 14278 00f4 00000000 		.4byte	0
 14279 00f8 08000000 		.4byte	.LBB90
 14280 00fc 0A000000 		.4byte	.LBE90
 14281 0100 16000000 		.4byte	.LBB93
 14282 0104 38000000 		.4byte	.LBE93
 14283 0108 00000000 		.4byte	0
 14284 010c 00000000 		.4byte	0
 14285 0110 40000000 		.4byte	.LBB94
 14286 0114 42000000 		.4byte	.LBE94
 14287 0118 BA000000 		.4byte	.LBB98
 14288 011c 26010000 		.4byte	.LBE98
 14289 0120 22020000 		.4byte	.LBB99
 14290 0124 3A020000 		.4byte	.LBE99
 14291 0128 00000000 		.4byte	0
 14292 012c 00000000 		.4byte	0
 14293 0130 40000000 		.4byte	.LBB95
 14294 0134 42000000 		.4byte	.LBE95
 14295 0138 C6000000 		.4byte	.LBB96
 14296 013c 26010000 		.4byte	.LBE96
 14297 0140 22020000 		.4byte	.LBB97
 14298 0144 3A020000 		.4byte	.LBE97
 14299 0148 00000000 		.4byte	0
 14300 014c 00000000 		.4byte	0
 14301 0150 06000000 		.4byte	.LBB100
 14302 0154 08000000 		.4byte	.LBE100
 14303 0158 10000000 		.4byte	.LBB103
 14304 015c 2E000000 		.4byte	.LBE103
 14305 0160 00000000 		.4byte	0
 14306 0164 00000000 		.4byte	0
 14307 0168 02000000 		.4byte	.LBB104
 14308 016c 04000000 		.4byte	.LBE104
 14309 0170 08000000 		.4byte	.LBB107
 14310 0174 1E000000 		.4byte	.LBE107
 14311 0178 00000000 		.4byte	0
 14312 017c 00000000 		.4byte	0
 14313 0180 BA000000 		.4byte	.LBB108
 14314 0184 D4000000 		.4byte	.LBE108
 14315 0188 34020000 		.4byte	.LBB118
 14316 018c 3A020000 		.4byte	.LBE118
 14317 0190 84020000 		.4byte	.LBB121
 14318 0194 92020000 		.4byte	.LBE121
 14319 0198 00000000 		.4byte	0
 14320 019c 00000000 		.4byte	0
 14321 01a0 BA000000 		.4byte	.LBB109
 14322 01a4 C2000000 		.4byte	.LBE109
 14323 01a8 84020000 		.4byte	.LBB112
 14324 01ac 92020000 		.4byte	.LBE112
 14325 01b0 00000000 		.4byte	0
 14326 01b4 00000000 		.4byte	0
 14327 01b8 76010000 		.4byte	.LBB113
 14328 01bc 8C010000 		.4byte	.LBE113
ARM GAS  /tmp/ccZlncvZ.s 			page 253


 14329 01c0 52020000 		.4byte	.LBB119
 14330 01c4 58020000 		.4byte	.LBE119
 14331 01c8 76020000 		.4byte	.LBB120
 14332 01cc 84020000 		.4byte	.LBE120
 14333 01d0 00000000 		.4byte	0
 14334 01d4 00000000 		.4byte	0
 14335 01d8 76010000 		.4byte	.LBB114
 14336 01dc 7C010000 		.4byte	.LBE114
 14337 01e0 76020000 		.4byte	.LBB117
 14338 01e4 84020000 		.4byte	.LBE117
 14339 01e8 00000000 		.4byte	0
 14340 01ec 00000000 		.4byte	0
 14341 01f0 00000000 		.4byte	.LBB122
 14342 01f4 02000000 		.4byte	.LBE122
 14343 01f8 04000000 		.4byte	.LBB125
 14344 01fc 1A000000 		.4byte	.LBE125
 14345 0200 00000000 		.4byte	0
 14346 0204 00000000 		.4byte	0
 14347 0208 06000000 		.4byte	.LBB126
 14348 020c 08000000 		.4byte	.LBE126
 14349 0210 0E000000 		.4byte	.LBB129
 14350 0214 2A000000 		.4byte	.LBE129
 14351 0218 00000000 		.4byte	0
 14352 021c 00000000 		.4byte	0
 14353 0220 04000000 		.4byte	.LBB130
 14354 0224 06000000 		.4byte	.LBE130
 14355 0228 0C000000 		.4byte	.LBB133
 14356 022c 28000000 		.4byte	.LBE133
 14357 0230 00000000 		.4byte	0
 14358 0234 00000000 		.4byte	0
 14359 0238 00000000 		.4byte	.LBB134
 14360 023c 02000000 		.4byte	.LBE134
 14361 0240 04000000 		.4byte	.LBB137
 14362 0244 1A000000 		.4byte	.LBE137
 14363 0248 00000000 		.4byte	0
 14364 024c 00000000 		.4byte	0
 14365 0250 00000000 		.4byte	.LFB10
 14366 0254 72000000 		.4byte	.LFE10
 14367 0258 00000000 		.4byte	.LFB24
 14368 025c 24010000 		.4byte	.LFE24
 14369 0260 00000000 		.4byte	.LFB28
 14370 0264 7E000000 		.4byte	.LFE28
 14371 0268 00000000 		.4byte	.LFB26
 14372 026c FC000000 		.4byte	.LFE26
 14373 0270 00000000 		.4byte	.LFB32
 14374 0274 0E010000 		.4byte	.LFE32
 14375 0278 00000000 		.4byte	.LFB34
 14376 027c EC000000 		.4byte	.LFE34
 14377 0280 00000000 		.4byte	.LFB7
 14378 0284 02000000 		.4byte	.LFE7
 14379 0288 00000000 		.4byte	.LFB12
 14380 028c 6A010000 		.4byte	.LFE12
 14381 0290 00000000 		.4byte	.LFB13
 14382 0294 7E000000 		.4byte	.LFE13
 14383 0298 00000000 		.4byte	.LFB14
 14384 029c 5A000000 		.4byte	.LFE14
 14385 02a0 00000000 		.4byte	.LFB15
ARM GAS  /tmp/ccZlncvZ.s 			page 254


 14386 02a4 7E000000 		.4byte	.LFE15
 14387 02a8 00000000 		.4byte	.LFB16
 14388 02ac 62000000 		.4byte	.LFE16
 14389 02b0 00000000 		.4byte	.LFB17
 14390 02b4 56020000 		.4byte	.LFE17
 14391 02b8 00000000 		.4byte	.LFB18
 14392 02bc 14000000 		.4byte	.LFE18
 14393 02c0 00000000 		.4byte	.LFB19
 14394 02c4 12000000 		.4byte	.LFE19
 14395 02c8 00000000 		.4byte	.LFB21
 14396 02cc DE000000 		.4byte	.LFE21
 14397 02d0 00000000 		.4byte	.LFB20
 14398 02d4 80000000 		.4byte	.LFE20
 14399 02d8 00000000 		.4byte	.LFB22
 14400 02dc 86000000 		.4byte	.LFE22
 14401 02e0 00000000 		.4byte	.LFB23
 14402 02e4 06000000 		.4byte	.LFE23
 14403 02e8 00000000 		.4byte	.LFB25
 14404 02ec 92020000 		.4byte	.LFE25
 14405 02f0 00000000 		.4byte	.LFB27
 14406 02f4 70000000 		.4byte	.LFE27
 14407 02f8 00000000 		.4byte	.LFB29
 14408 02fc 06000000 		.4byte	.LFE29
 14409 0300 00000000 		.4byte	.LFB30
 14410 0304 06000000 		.4byte	.LFE30
 14411 0308 00000000 		.4byte	.LFB31
 14412 030c 1C010000 		.4byte	.LFE31
 14413 0310 00000000 		.4byte	.LFB33
 14414 0314 00010000 		.4byte	.LFE33
 14415 0318 00000000 		.4byte	.LFB35
 14416 031c 5C000000 		.4byte	.LFE35
 14417 0320 00000000 		.4byte	.LFB36
 14418 0324 48000000 		.4byte	.LFE36
 14419 0328 00000000 		.4byte	0
 14420 032c 00000000 		.4byte	0
 14421              		.section	.debug_line,"",%progbits
 14422              	.Ldebug_line0:
 14423 0000 4E0B0000 		.section	.debug_str,"MS",%progbits,1
 14423      02006302 
 14423      00000201 
 14423      FB0E0D00 
 14423      01010101 
 14424              	.LASF261:
 14425 0000 6C657863 		.ascii	"lexceptset\000"
 14425      65707473 
 14425      657400
 14426              	.LASF16:
 14427 000b 696E7438 		.ascii	"int8_t\000"
 14427      5F7400
 14428              	.LASF1:
 14429 0012 73697A65 		.ascii	"size_t\000"
 14429      5F7400
 14430              	.LASF57:
 14431 0019 73697A65 		.ascii	"sizetype\000"
 14431      74797065 
 14431      00
 14432              	.LASF265:
ARM GAS  /tmp/ccZlncvZ.s 			page 255


 14433 0022 6E616464 		.ascii	"naddr\000"
 14433      7200
 14434              	.LASF30:
 14435 0028 73797374 		.ascii	"systime_t\000"
 14435      696D655F 
 14435      7400
 14436              	.LASF160:
 14437 0032 7263765F 		.ascii	"rcv_ann_wnd\000"
 14437      616E6E5F 
 14437      776E6400 
 14438              	.LASF36:
 14439 003e 705F6374 		.ascii	"p_ctx\000"
 14439      7800
 14440              	.LASF27:
 14441 0044 74707269 		.ascii	"tprio_t\000"
 14441      6F5F7400 
 14442              	.LASF331:
 14443 004c 6C776970 		.ascii	"lwip_ntohs\000"
 14443      5F6E746F 
 14443      687300
 14444              	.LASF246:
 14445 0057 6765745F 		.ascii	"get_socket\000"
 14445      736F636B 
 14445      657400
 14446              	.LASF46:
 14447 0062 705F6D73 		.ascii	"p_msgqueue\000"
 14447      67717565 
 14447      756500
 14448              	.LASF219:
 14449 006d 70726F74 		.ascii	"proto\000"
 14449      6F00
 14450              	.LASF20:
 14451 0073 696E7433 		.ascii	"int32_t\000"
 14451      325F7400 
 14452              	.LASF90:
 14453 007b 73696E5F 		.ascii	"sin_family\000"
 14453      66616D69 
 14453      6C7900
 14454              	.LASF277:
 14455 0086 6C6F6361 		.ascii	"local_addr\000"
 14455      6C5F6164 
 14455      647200
 14456              	.LASF92:
 14457 0091 73696E5F 		.ascii	"sin_addr\000"
 14457      61646472 
 14457      00
 14458              	.LASF280:
 14459 009a 6C776970 		.ascii	"lwip_close\000"
 14459      5F636C6F 
 14459      736500
 14460              	.LASF159:
 14461 00a5 7263765F 		.ascii	"rcv_wnd\000"
 14461      776E6400 
 14462              	.LASF148:
 14463 00ad 736F5F6F 		.ascii	"so_options\000"
 14463      7074696F 
 14463      6E7300
ARM GAS  /tmp/ccZlncvZ.s 			page 256


 14464              	.LASF323:
 14465 00b8 6572725F 		.ascii	"err_to_errno_table\000"
 14465      746F5F65 
 14465      72726E6F 
 14465      5F746162 
 14465      6C6500
 14466              	.LASF65:
 14467 00cb 6D625F62 		.ascii	"mb_buffer\000"
 14467      75666665 
 14467      7200
 14468              	.LASF329:
 14469 00d5 6E657463 		.ascii	"netconn_accept\000"
 14469      6F6E6E5F 
 14469      61636365 
 14469      707400
 14470              	.LASF279:
 14471 00e4 69735F74 		.ascii	"is_tcp\000"
 14471      637000
 14472              	.LASF286:
 14473 00eb 66726F6D 		.ascii	"from\000"
 14473      00
 14474              	.LASF207:
 14475 00f0 4C495354 		.ascii	"LISTEN\000"
 14475      454E00
 14476              	.LASF136:
 14477 00f7 73746174 		.ascii	"state\000"
 14477      6500
 14478              	.LASF252:
 14479 00fd 72656164 		.ascii	"readset_in\000"
 14479      7365745F 
 14479      696E00
 14480              	.LASF227:
 14481 0108 6C617374 		.ascii	"lastdata\000"
 14481      64617461 
 14481      00
 14482              	.LASF169:
 14483 0111 73737468 		.ascii	"ssthresh\000"
 14483      72657368 
 14483      00
 14484              	.LASF109:
 14485 011a 74797065 		.ascii	"type\000"
 14485      00
 14486              	.LASF221:
 14487 011f 6C6F6361 		.ascii	"local\000"
 14487      6C00
 14488              	.LASF237:
 14489 0125 65786365 		.ascii	"exceptset\000"
 14489      70747365 
 14489      7400
 14490              	.LASF216:
 14491 012f 54494D45 		.ascii	"TIME_WAIT\000"
 14491      5F574149 
 14491      5400
 14492              	.LASF198:
 14493 0139 636F6E6E 		.ascii	"conn\000"
 14493      00
 14494              	.LASF205:
ARM GAS  /tmp/ccZlncvZ.s 			page 257


 14495 013e 7463705F 		.ascii	"tcp_state\000"
 14495      73746174 
 14495      6500
 14496              	.LASF115:
 14497 0148 4E455443 		.ascii	"NETCONN_INVALID\000"
 14497      4F4E4E5F 
 14497      494E5641 
 14497      4C494400 
 14498              	.LASF152:
 14499 0158 7072696F 		.ascii	"prio\000"
 14499      00
 14500              	.LASF63:
 14501 015d 6D5F6F77 		.ascii	"m_owner\000"
 14501      6E657200 
 14502              	.LASF155:
 14503 0165 706F6C6C 		.ascii	"polltmr\000"
 14503      746D7200 
 14504              	.LASF73:
 14505 016d 65786974 		.ascii	"exitcode\000"
 14505      636F6465 
 14505      00
 14506              	.LASF4:
 14507 0176 5F5F7569 		.ascii	"__uint8_t\000"
 14507      6E74385F 
 14507      7400
 14508              	.LASF75:
 14509 0180 65776D61 		.ascii	"ewmask\000"
 14509      736B00
 14510              	.LASF135:
 14511 0187 6E657463 		.ascii	"netconn\000"
 14511      6F6E6E00 
 14512              	.LASF220:
 14513 018f 69706164 		.ascii	"ipaddr\000"
 14513      647200
 14514              	.LASF328:
 14515 0196 7379735F 		.ascii	"sys_sem_signal\000"
 14515      73656D5F 
 14515      7369676E 
 14515      616C00
 14516              	.LASF138:
 14517 01a5 6F705F63 		.ascii	"op_completed\000"
 14517      6F6D706C 
 14517      65746564 
 14517      00
 14518              	.LASF37:
 14519 01b2 705F6E65 		.ascii	"p_newer\000"
 14519      77657200 
 14520              	.LASF133:
 14521 01ba 4E455443 		.ascii	"NETCONN_EVT_ERROR\000"
 14521      4F4E4E5F 
 14521      4556545F 
 14521      4552524F 
 14521      5200
 14522              	.LASF11:
 14523 01cc 6C6F6E67 		.ascii	"long int\000"
 14523      20696E74 
 14523      00
ARM GAS  /tmp/ccZlncvZ.s 			page 258


 14524              	.LASF33:
 14525 01d5 705F6E65 		.ascii	"p_next\000"
 14525      787400
 14526              	.LASF325:
 14527 01dc 6C776970 		.ascii	"lwip_htons\000"
 14527      5F68746F 
 14527      6E7300
 14528              	.LASF247:
 14529 01e7 6E657763 		.ascii	"newconn\000"
 14529      6F6E6E00 
 14530              	.LASF34:
 14531 01ef 705F7072 		.ascii	"p_prev\000"
 14531      657600
 14532              	.LASF124:
 14533 01f6 4E455443 		.ascii	"NETCONN_WRITE\000"
 14533      4F4E4E5F 
 14533      57524954 
 14533      4500
 14534              	.LASF358:
 14535 0204 72657475 		.ascii	"return_copy_fdsets\000"
 14535      726E5F63 
 14535      6F70795F 
 14535      66647365 
 14535      747300
 14536              	.LASF113:
 14537 0217 7379735F 		.ascii	"sys_sem_t\000"
 14537      73656D5F 
 14537      7400
 14538              	.LASF300:
 14539 0221 77726974 		.ascii	"write_flags\000"
 14539      655F666C 
 14539      61677300 
 14540              	.LASF24:
 14541 022d 74737461 		.ascii	"tstate_t\000"
 14541      74655F74 
 14541      00
 14542              	.LASF49:
 14543 0236 705F6D74 		.ascii	"p_mtxlist\000"
 14543      786C6973 
 14543      7400
 14544              	.LASF89:
 14545 0240 73696E5F 		.ascii	"sin_len\000"
 14545      6C656E00 
 14546              	.LASF54:
 14547 0248 72656761 		.ascii	"regarm_t\000"
 14547      726D5F74 
 14547      00
 14548              	.LASF210:
 14549 0251 45535441 		.ascii	"ESTABLISHED\000"
 14549      424C4953 
 14549      48454400 
 14550              	.LASF303:
 14551 025d 646F6D61 		.ascii	"domain\000"
 14551      696E00
 14552              	.LASF128:
 14553 0264 6E657463 		.ascii	"netconn_evt\000"
 14553      6F6E6E5F 
ARM GAS  /tmp/ccZlncvZ.s 			page 259


 14553      65767400 
 14554              	.LASF217:
 14555 0270 7261775F 		.ascii	"raw_recv_fn\000"
 14555      72656376 
 14555      5F666E00 
 14556              	.LASF332:
 14557 027c 6E657463 		.ascii	"netconn_bind\000"
 14557      6F6E6E5F 
 14557      62696E64 
 14557      00
 14558              	.LASF201:
 14559 0289 7463705F 		.ascii	"tcp_sent_fn\000"
 14559      73656E74 
 14559      5F666E00 
 14560              	.LASF345:
 14561 0295 6E657463 		.ascii	"netconn_new_with_proto_and_callback\000"
 14561      6F6E6E5F 
 14561      6E65775F 
 14561      77697468 
 14561      5F70726F 
 14562              	.LASF284:
 14563 02b9 6261636B 		.ascii	"backlog\000"
 14563      6C6F6700 
 14564              	.LASF228:
 14565 02c1 6C617374 		.ascii	"lastoffset\000"
 14565      6F666673 
 14565      657400
 14566              	.LASF203:
 14567 02cc 7463705F 		.ascii	"tcp_err_fn\000"
 14567      6572725F 
 14567      666E00
 14568              	.LASF3:
 14569 02d7 7369676E 		.ascii	"signed char\000"
 14569      65642063 
 14569      68617200 
 14570              	.LASF43:
 14571 02e3 705F7072 		.ascii	"p_preempt\000"
 14571      65656D70 
 14571      7400
 14572              	.LASF17:
 14573 02ed 75696E74 		.ascii	"uint8_t\000"
 14573      385F7400 
 14574              	.LASF192:
 14575 02f5 6B656570 		.ascii	"keep_cnt_sent\000"
 14575      5F636E74 
 14575      5F73656E 
 14575      7400
 14576              	.LASF299:
 14577 0303 6C776970 		.ascii	"lwip_send\000"
 14577      5F73656E 
 14577      6400
 14578              	.LASF68:
 14579 030d 6D625F72 		.ascii	"mb_rdptr\000"
 14579      64707472 
 14579      00
 14580              	.LASF264:
 14581 0316 6E616D65 		.ascii	"namelen\000"
ARM GAS  /tmp/ccZlncvZ.s 			page 260


 14581      6C656E00 
 14582              	.LASF29:
 14583 031e 6576656E 		.ascii	"eventmask_t\000"
 14583      746D6173 
 14583      6B5F7400 
 14584              	.LASF289:
 14585 032a 636F7079 		.ascii	"copylen\000"
 14585      6C656E00 
 14586              	.LASF56:
 14587 0332 636F6E74 		.ascii	"context\000"
 14587      65787400 
 14588              	.LASF146:
 14589 033a 6C6F6361 		.ascii	"local_ip\000"
 14589      6C5F6970 
 14589      00
 14590              	.LASF333:
 14591 0343 6E657462 		.ascii	"netbuf_delete\000"
 14591      75665F64 
 14591      656C6574 
 14591      6500
 14592              	.LASF5:
 14593 0351 756E7369 		.ascii	"unsigned char\000"
 14593      676E6564 
 14593      20636861 
 14593      7200
 14594              	.LASF268:
 14595 035f 6576656E 		.ascii	"event_callback\000"
 14595      745F6361 
 14595      6C6C6261 
 14595      636B00
 14596              	.LASF317:
 14597 036e 6C776970 		.ascii	"lwip_ioctl\000"
 14597      5F696F63 
 14597      746C00
 14598              	.LASF231:
 14599 0379 65727265 		.ascii	"errevent\000"
 14599      76656E74 
 14599      00
 14600              	.LASF22:
 14601 0382 5F426F6F 		.ascii	"_Bool\000"
 14601      6C00
 14602              	.LASF211:
 14603 0388 46494E5F 		.ascii	"FIN_WAIT_1\000"
 14603      57414954 
 14603      5F3100
 14604              	.LASF212:
 14605 0393 46494E5F 		.ascii	"FIN_WAIT_2\000"
 14605      57414954 
 14605      5F3200
 14606              	.LASF116:
 14607 039e 4E455443 		.ascii	"NETCONN_TCP\000"
 14607      4F4E4E5F 
 14607      54435000 
 14608              	.LASF359:
 14609 03aa 706F7274 		.ascii	"port_halt\000"
 14609      5F68616C 
 14609      7400
ARM GAS  /tmp/ccZlncvZ.s 			page 261


 14610              	.LASF208:
 14611 03b4 53594E5F 		.ascii	"SYN_SENT\000"
 14611      53454E54 
 14611      00
 14612              	.LASF76:
 14613 03bd 63686172 		.ascii	"char\000"
 14613      00
 14614              	.LASF105:
 14615 03c2 70627566 		.ascii	"pbuf\000"
 14615      00
 14616              	.LASF253:
 14617 03c7 77726974 		.ascii	"writeset_in\000"
 14617      65736574 
 14617      5F696E00 
 14618              	.LASF35:
 14619 03d3 705F7072 		.ascii	"p_prio\000"
 14619      696F00
 14620              	.LASF215:
 14621 03da 4C415354 		.ascii	"LAST_ACK\000"
 14621      5F41434B 
 14621      00
 14622              	.LASF8:
 14623 03e3 5F5F7569 		.ascii	"__uint16_t\000"
 14623      6E743136 
 14623      5F7400
 14624              	.LASF273:
 14625 03ee 6E736F63 		.ascii	"nsock\000"
 14625      6B00
 14626              	.LASF70:
 14627 03f4 6D625F65 		.ascii	"mb_emptysem\000"
 14627      6D707479 
 14627      73656D00 
 14628              	.LASF235:
 14629 0400 72656164 		.ascii	"readset\000"
 14629      73657400 
 14630              	.LASF74:
 14631 0408 77746F62 		.ascii	"wtobjp\000"
 14631      6A7000
 14632              	.LASF330:
 14633 040f 6E657463 		.ascii	"netconn_delete\000"
 14633      6F6E6E5F 
 14633      64656C65 
 14633      746500
 14634              	.LASF101:
 14635 041e 74696D65 		.ascii	"timeval\000"
 14635      76616C00 
 14636              	.LASF193:
 14637 0426 7564705F 		.ascii	"udp_pcb\000"
 14637      70636200 
 14638              	.LASF310:
 14639 042e 6C776970 		.ascii	"lwip_shutdown\000"
 14639      5F736875 
 14639      74646F77 
 14639      6E00
 14640              	.LASF153:
 14641 043c 6C6F6361 		.ascii	"local_port\000"
 14641      6C5F706F 
ARM GAS  /tmp/ccZlncvZ.s 			page 262


 14641      727400
 14642              	.LASF91:
 14643 0447 73696E5F 		.ascii	"sin_port\000"
 14643      706F7274 
 14643      00
 14644              	.LASF121:
 14645 0450 6E657463 		.ascii	"netconn_type\000"
 14645      6F6E6E5F 
 14645      74797065 
 14645      00
 14646              	.LASF307:
 14647 045d 77616974 		.ascii	"waitres\000"
 14647      72657300 
 14648              	.LASF232:
 14649 0465 73656C65 		.ascii	"select_waiting\000"
 14649      63745F77 
 14649      61697469 
 14649      6E6700
 14650              	.LASF110:
 14651 0474 666C6167 		.ascii	"flags\000"
 14651      7300
 14652              	.LASF281:
 14653 047a 6C776970 		.ascii	"lwip_connect\000"
 14653      5F636F6E 
 14653      6E656374 
 14653      00
 14654              	.LASF149:
 14655 0487 7463705F 		.ascii	"tcp_pcb\000"
 14655      70636200 
 14656              	.LASF111:
 14657 048f 6E657462 		.ascii	"netbuf\000"
 14657      756600
 14658              	.LASF256:
 14659 0496 77726974 		.ascii	"writeset_out\000"
 14659      65736574 
 14659      5F6F7574 
 14659      00
 14660              	.LASF226:
 14661 04a3 6C776970 		.ascii	"lwip_sock\000"
 14661      5F736F63 
 14661      6B00
 14662              	.LASF163:
 14663 04ad 72747465 		.ascii	"rttest\000"
 14663      737400
 14664              	.LASF83:
 14665 04b4 69705F61 		.ascii	"ip_addr\000"
 14665      64647200 
 14666              	.LASF224:
 14667 04bc 73687574 		.ascii	"shut\000"
 14667      00
 14668              	.LASF96:
 14669 04c1 73615F66 		.ascii	"sa_family\000"
 14669      616D696C 
 14669      7900
 14670              	.LASF93:
 14671 04cb 73696E5F 		.ascii	"sin_zero\000"
 14671      7A65726F 
ARM GAS  /tmp/ccZlncvZ.s 			page 263


 14671      00
 14672              	.LASF119:
 14673 04d4 4E455443 		.ascii	"NETCONN_UDPNOCHKSUM\000"
 14673      4F4E4E5F 
 14673      5544504E 
 14673      4F43484B 
 14673      53554D00 
 14674              	.LASF254:
 14675 04e8 65786365 		.ascii	"exceptset_in\000"
 14675      70747365 
 14675      745F696E 
 14675      00
 14676              	.LASF173:
 14677 04f5 736E645F 		.ascii	"snd_lbb\000"
 14677      6C626200 
 14678              	.LASF315:
 14679 04fd 6C776970 		.ascii	"lwip_getsockopt\000"
 14679      5F676574 
 14679      736F636B 
 14679      6F707400 
 14680              	.LASF31:
 14681 050d 636E745F 		.ascii	"cnt_t\000"
 14681      7400
 14682              	.LASF98:
 14683 0513 736F636B 		.ascii	"socklen_t\000"
 14683      6C656E5F 
 14683      7400
 14684              	.LASF190:
 14685 051d 70657273 		.ascii	"persist_cnt\000"
 14685      6973745F 
 14685      636E7400 
 14686              	.LASF213:
 14687 0529 434C4F53 		.ascii	"CLOSE_WAIT\000"
 14687      455F5741 
 14687      495400
 14688              	.LASF233:
 14689 0534 6C776970 		.ascii	"lwip_select_cb\000"
 14689      5F73656C 
 14689      6563745F 
 14689      636200
 14690              	.LASF161:
 14691 0543 7263765F 		.ascii	"rcv_ann_right_edge\000"
 14691      616E6E5F 
 14691      72696768 
 14691      745F6564 
 14691      676500
 14692              	.LASF55:
 14693 0556 696E7463 		.ascii	"intctx\000"
 14693      747800
 14694              	.LASF320:
 14695 055d 736F636B 		.ascii	"sockets\000"
 14695      65747300 
 14696              	.LASF103:
 14697 0565 74765F75 		.ascii	"tv_usec\000"
 14697      73656300 
 14698              	.LASF48:
 14699 056d 705F6570 		.ascii	"p_epending\000"
ARM GAS  /tmp/ccZlncvZ.s 			page 264


 14699      656E6469 
 14699      6E6700
 14700              	.LASF164:
 14701 0578 72747365 		.ascii	"rtseq\000"
 14701      7100
 14702              	.LASF272:
 14703 057e 61646472 		.ascii	"addrlen\000"
 14703      6C656E00 
 14704              	.LASF157:
 14705 0586 6C617374 		.ascii	"last_timer\000"
 14705      5F74696D 
 14705      657200
 14706              	.LASF269:
 14707 0591 6C776970 		.ascii	"lwip_getsockopt_internal\000"
 14707      5F676574 
 14707      736F636B 
 14707      6F70745F 
 14707      696E7465 
 14708              	.LASF274:
 14709 05aa 6E657773 		.ascii	"newsock\000"
 14709      6F636B00 
 14710              	.LASF313:
 14711 05b2 6C776970 		.ascii	"lwip_getpeername\000"
 14711      5F676574 
 14711      70656572 
 14711      6E616D65 
 14711      00
 14712              	.LASF249:
 14713 05c3 616C6C6F 		.ascii	"alloc_socket\000"
 14713      635F736F 
 14713      636B6574 
 14713      00
 14714              	.LASF71:
 14715 05d0 4D61696C 		.ascii	"Mailbox\000"
 14715      626F7800 
 14716              	.LASF127:
 14717 05d8 4E455443 		.ascii	"NETCONN_CLOSE\000"
 14717      4F4E4E5F 
 14717      434C4F53 
 14717      4500
 14718              	.LASF143:
 14719 05e6 63757272 		.ascii	"current_msg\000"
 14719      656E745F 
 14719      6D736700 
 14720              	.LASF13:
 14721 05f2 6C6F6E67 		.ascii	"long unsigned int\000"
 14721      20756E73 
 14721      69676E65 
 14721      6420696E 
 14721      7400
 14722              	.LASF337:
 14723 0604 70627566 		.ascii	"pbuf_copy_partial\000"
 14723      5F636F70 
 14723      795F7061 
 14723      72746961 
 14723      6C00
 14724              	.LASF131:
ARM GAS  /tmp/ccZlncvZ.s 			page 265


 14725 0616 4E455443 		.ascii	"NETCONN_EVT_SENDPLUS\000"
 14725      4F4E4E5F 
 14725      4556545F 
 14725      53454E44 
 14725      504C5553 
 14726              	.LASF305:
 14727 062b 6C776970 		.ascii	"lwip_select\000"
 14727      5F73656C 
 14727      65637400 
 14728              	.LASF282:
 14729 0637 72656D6F 		.ascii	"remote_addr\000"
 14729      74655F61 
 14729      64647200 
 14730              	.LASF202:
 14731 0643 7463705F 		.ascii	"tcp_poll_fn\000"
 14731      706F6C6C 
 14731      5F666E00 
 14732              	.LASF140:
 14733 064f 61636365 		.ascii	"acceptmbox\000"
 14733      70746D62 
 14733      6F7800
 14734              	.LASF144:
 14735 065a 63616C6C 		.ascii	"callback\000"
 14735      6261636B 
 14735      00
 14736              	.LASF107:
 14737 0663 7061796C 		.ascii	"payload\000"
 14737      6F616400 
 14738              	.LASF348:
 14739 066b 7379735F 		.ascii	"sys_sem_free\000"
 14739      73656D5F 
 14739      66726565 
 14739      00
 14740              	.LASF165:
 14741 0678 6E727478 		.ascii	"nrtx\000"
 14741      00
 14742              	.LASF318:
 14743 067d 61726770 		.ascii	"argp\000"
 14743      00
 14744              	.LASF248:
 14745 0682 61636365 		.ascii	"accepted\000"
 14745      70746564 
 14745      00
 14746              	.LASF69:
 14747 068b 6D625F66 		.ascii	"mb_fullsem\000"
 14747      756C6C73 
 14747      656D00
 14748              	.LASF327:
 14749 0696 7379735F 		.ascii	"sys_sem_signal_S\000"
 14749      73656D5F 
 14749      7369676E 
 14749      616C5F53 
 14749      00
 14750              	.LASF167:
 14751 06a7 6C617374 		.ascii	"lastack\000"
 14751      61636B00 
 14752              	.LASF344:
ARM GAS  /tmp/ccZlncvZ.s 			page 266


 14753 06af 6E657463 		.ascii	"netconn_write_partly\000"
 14753      6F6E6E5F 
 14753      77726974 
 14753      655F7061 
 14753      72746C79 
 14754              	.LASF170:
 14755 06c4 736E645F 		.ascii	"snd_nxt\000"
 14755      6E787400 
 14756              	.LASF283:
 14757 06cc 6C776970 		.ascii	"lwip_listen\000"
 14757      5F6C6973 
 14757      74656E00 
 14758              	.LASF114:
 14759 06d8 7379735F 		.ascii	"sys_mbox_t\000"
 14759      6D626F78 
 14759      5F7400
 14760              	.LASF12:
 14761 06e3 5F5F7569 		.ascii	"__uint32_t\000"
 14761      6E743332 
 14761      5F7400
 14762              	.LASF61:
 14763 06ee 4D757465 		.ascii	"Mutex\000"
 14763      7800
 14764              	.LASF117:
 14765 06f4 4E455443 		.ascii	"NETCONN_UDP\000"
 14765      4F4E4E5F 
 14765      55445000 
 14766              	.LASF196:
 14767 0700 70726F74 		.ascii	"protocol\000"
 14767      6F636F6C 
 14767      00
 14768              	.LASF184:
 14769 0709 73656E74 		.ascii	"sent\000"
 14769      00
 14770              	.LASF14:
 14771 070e 6C6F6E67 		.ascii	"long long int\000"
 14771      206C6F6E 
 14771      6720696E 
 14771      7400
 14772              	.LASF145:
 14773 071c 69705F70 		.ascii	"ip_pcb\000"
 14773      636200
 14774              	.LASF62:
 14775 0723 6D5F7175 		.ascii	"m_queue\000"
 14775      65756500 
 14776              	.LASF67:
 14777 072b 6D625F77 		.ascii	"mb_wrptr\000"
 14777      72707472 
 14777      00
 14778              	.LASF285:
 14779 0734 6C776970 		.ascii	"lwip_recvfrom\000"
 14779      5F726563 
 14779      7666726F 
 14779      6D00
 14780              	.LASF262:
 14781 0742 6C776970 		.ascii	"lwip_getaddrname\000"
 14781      5F676574 
ARM GAS  /tmp/ccZlncvZ.s 			page 267


 14781      61646472 
 14781      6E616D65 
 14781      00
 14782              	.LASF100:
 14783 0753 66645F62 		.ascii	"fd_bits\000"
 14783      69747300 
 14784              	.LASF271:
 14785 075b 6C776970 		.ascii	"lwip_setsockopt_internal\000"
 14785      5F736574 
 14785      736F636B 
 14785      6F70745F 
 14785      696E7465 
 14786              	.LASF238:
 14787 0774 73656D5F 		.ascii	"sem_signalled\000"
 14787      7369676E 
 14787      616C6C65 
 14787      6400
 14788              	.LASF156:
 14789 0782 706F6C6C 		.ascii	"pollinterval\000"
 14789      696E7465 
 14789      7276616C 
 14789      00
 14790              	.LASF306:
 14791 078f 74696D65 		.ascii	"timeout\000"
 14791      6F757400 
 14792              	.LASF122:
 14793 0797 6E657463 		.ascii	"netconn_state\000"
 14793      6F6E6E5F 
 14793      73746174 
 14793      6500
 14794              	.LASF45:
 14795 07a5 705F7761 		.ascii	"p_waiting\000"
 14795      6974696E 
 14795      6700
 14796              	.LASF84:
 14797 07af 61646472 		.ascii	"addr\000"
 14797      00
 14798              	.LASF41:
 14799 07b4 705F666C 		.ascii	"p_flags\000"
 14799      61677300 
 14800              	.LASF0:
 14801 07bc 756E7369 		.ascii	"unsigned int\000"
 14801      676E6564 
 14801      20696E74 
 14801      00
 14802              	.LASF288:
 14803 07c9 6275666C 		.ascii	"buflen\000"
 14803      656E00
 14804              	.LASF79:
 14805 07d0 7531365F 		.ascii	"u16_t\000"
 14805      7400
 14806              	.LASF51:
 14807 07d6 705F6D70 		.ascii	"p_mpool\000"
 14807      6F6F6C00 
 14808              	.LASF175:
 14809 07de 736E645F 		.ascii	"snd_wnd_max\000"
 14809      776E645F 
ARM GAS  /tmp/ccZlncvZ.s 			page 268


 14809      6D617800 
 14810              	.LASF158:
 14811 07ea 7263765F 		.ascii	"rcv_nxt\000"
 14811      6E787400 
 14812              	.LASF240:
 14813 07f2 736F636B 		.ascii	"sock\000"
 14813      00
 14814              	.LASF42:
 14815 07f7 705F7265 		.ascii	"p_refs\000"
 14815      667300
 14816              	.LASF230:
 14817 07fe 73656E64 		.ascii	"sendevent\000"
 14817      6576656E 
 14817      7400
 14818              	.LASF351:
 14819 0808 474E5520 		.ascii	"GNU C 4.8.2 -mcpu=cortex-m4 -mno-thumb-interwork -m"
 14819      4320342E 
 14819      382E3220 
 14819      2D6D6370 
 14819      753D636F 
 14820 083b 7468756D 		.ascii	"thumb -ggdb -O2 -std=gnu99 -fomit-frame-pointer -fa"
 14820      62202D67 
 14820      67646220 
 14820      2D4F3220 
 14820      2D737464 
 14821 086e 6C69676E 		.ascii	"lign-functions=16 -ffunction-sections -fdata-sectio"
 14821      2D66756E 
 14821      6374696F 
 14821      6E733D31 
 14821      36202D66 
 14822 08a1 6E73202D 		.ascii	"ns -fno-common\000"
 14822      666E6F2D 
 14822      636F6D6D 
 14822      6F6E00
 14823              	.LASF243:
 14824 08b0 6F707476 		.ascii	"optval\000"
 14824      616C00
 14825              	.LASF53:
 14826 08b7 54687265 		.ascii	"ThreadsList\000"
 14826      6164734C 
 14826      69737400 
 14827              	.LASF267:
 14828 08c3 646F5F73 		.ascii	"do_signal\000"
 14828      69676E61 
 14828      6C00
 14829              	.LASF321:
 14830 08cd 73656C65 		.ascii	"select_cb_list\000"
 14830      63745F63 
 14830      625F6C69 
 14830      737400
 14831              	.LASF275:
 14832 08dc 6C776970 		.ascii	"lwip_accept\000"
 14832      5F616363 
 14832      65707400 
 14833              	.LASF187:
 14834 08e8 706F6C6C 		.ascii	"poll\000"
 14834      00
ARM GAS  /tmp/ccZlncvZ.s 			page 269


 14835              	.LASF290:
 14836 08ed 646F6E65 		.ascii	"done\000"
 14836      00
 14837              	.LASF266:
 14838 08f2 6C617374 		.ascii	"last_select_cb_ctr\000"
 14838      5F73656C 
 14838      6563745F 
 14838      63625F63 
 14838      747200
 14839              	.LASF162:
 14840 0905 7274696D 		.ascii	"rtime\000"
 14840      6500
 14841              	.LASF225:
 14842 090b 74637069 		.ascii	"tcpip_callback_fn\000"
 14842      705F6361 
 14842      6C6C6261 
 14842      636B5F66 
 14842      6E00
 14843              	.LASF209:
 14844 091d 53594E5F 		.ascii	"SYN_RCVD\000"
 14844      52435644 
 14844      00
 14845              	.LASF302:
 14846 0926 6C776970 		.ascii	"lwip_socket\000"
 14846      5F736F63 
 14846      6B657400 
 14847              	.LASF44:
 14848 0932 705F7469 		.ascii	"p_time\000"
 14848      6D6500
 14849              	.LASF242:
 14850 0939 6F70746E 		.ascii	"optname\000"
 14850      616D6500 
 14851              	.LASF185:
 14852 0941 72656376 		.ascii	"recv\000"
 14852      00
 14853              	.LASF287:
 14854 0946 66726F6D 		.ascii	"fromlen\000"
 14854      6C656E00 
 14855              	.LASF126:
 14856 094e 4E455443 		.ascii	"NETCONN_CONNECT\000"
 14856      4F4E4E5F 
 14856      434F4E4E 
 14856      45435400 
 14857              	.LASF298:
 14858 095e 746F5F69 		.ascii	"to_in\000"
 14858      6E00
 14859              	.LASF108:
 14860 0964 746F745F 		.ascii	"tot_len\000"
 14860      6C656E00 
 14861              	.LASF311:
 14862 096c 73687574 		.ascii	"shut_rx\000"
 14862      5F727800 
 14863              	.LASF85:
 14864 0974 69705F61 		.ascii	"ip_addr_t\000"
 14864      6464725F 
 14864      7400
 14865              	.LASF58:
ARM GAS  /tmp/ccZlncvZ.s 			page 270


 14866 097e 53656D61 		.ascii	"Semaphore\000"
 14866      70686F72 
 14866      6500
 14867              	.LASF314:
 14868 0988 6C776970 		.ascii	"lwip_getsockname\000"
 14868      5F676574 
 14868      736F636B 
 14868      6E616D65 
 14868      00
 14869              	.LASF355:
 14870 0999 61676169 		.ascii	"again\000"
 14870      6E00
 14871              	.LASF50:
 14872 099f 705F7265 		.ascii	"p_realprio\000"
 14872      616C7072 
 14872      696F00
 14873              	.LASF104:
 14874 09aa 6572725F 		.ascii	"err_t\000"
 14874      7400
 14875              	.LASF218:
 14876 09b0 7564705F 		.ascii	"udp_recv_fn\000"
 14876      72656376 
 14876      5F666E00 
 14877              	.LASF66:
 14878 09bc 6D625F74 		.ascii	"mb_top\000"
 14878      6F7000
 14879              	.LASF291:
 14880 09c3 66726F6D 		.ascii	"fromaddr\000"
 14880      61646472 
 14880      00
 14881              	.LASF250:
 14882 09cc 6C776970 		.ascii	"lwip_selscan\000"
 14882      5F73656C 
 14882      7363616E 
 14882      00
 14883              	.LASF260:
 14884 09d9 6C777269 		.ascii	"lwriteset\000"
 14884      74657365 
 14884      7400
 14885              	.LASF60:
 14886 09e3 735F636E 		.ascii	"s_cnt\000"
 14886      7400
 14887              	.LASF204:
 14888 09e9 7463705F 		.ascii	"tcp_connected_fn\000"
 14888      636F6E6E 
 14888      65637465 
 14888      645F666E 
 14888      00
 14889              	.LASF2:
 14890 09fa 5F5F696E 		.ascii	"__int8_t\000"
 14890      74385F74 
 14890      00
 14891              	.LASF295:
 14892 0a03 73697A65 		.ascii	"size\000"
 14892      00
 14893              	.LASF15:
 14894 0a08 6C6F6E67 		.ascii	"long long unsigned int\000"
ARM GAS  /tmp/ccZlncvZ.s 			page 271


 14894      206C6F6E 
 14894      6720756E 
 14894      7369676E 
 14894      65642069 
 14895              	.LASF154:
 14896 0a1f 72656D6F 		.ascii	"remote_port\000"
 14896      74655F70 
 14896      6F727400 
 14897              	.LASF38:
 14898 0a2b 705F6F6C 		.ascii	"p_older\000"
 14898      64657200 
 14899              	.LASF19:
 14900 0a33 75696E74 		.ascii	"uint16_t\000"
 14900      31365F74 
 14900      00
 14901              	.LASF191:
 14902 0a3c 70657273 		.ascii	"persist_backoff\000"
 14902      6973745F 
 14902      6261636B 
 14902      6F666600 
 14903              	.LASF343:
 14904 0a4c 6E657463 		.ascii	"netconn_send\000"
 14904      6F6E6E5F 
 14904      73656E64 
 14904      00
 14905              	.LASF336:
 14906 0a59 6E657463 		.ascii	"netconn_listen_with_backlog\000"
 14906      6F6E6E5F 
 14906      6C697374 
 14906      656E5F77 
 14906      6974685F 
 14907              	.LASF28:
 14908 0a75 6D73675F 		.ascii	"msg_t\000"
 14908      7400
 14909              	.LASF324:
 14910 0a7b 6E657463 		.ascii	"netconn_getaddr\000"
 14910      6F6E6E5F 
 14910      67657461 
 14910      64647200 
 14911              	.LASF168:
 14912 0a8b 63776E64 		.ascii	"cwnd\000"
 14912      00
 14913              	.LASF26:
 14914 0a90 74736C69 		.ascii	"tslices_t\000"
 14914      6365735F 
 14914      7400
 14915              	.LASF244:
 14916 0a9a 6F70746C 		.ascii	"optlen\000"
 14916      656E00
 14917              	.LASF183:
 14918 0aa1 72656675 		.ascii	"refused_data\000"
 14918      7365645F 
 14918      64617461 
 14918      00
 14919              	.LASF132:
 14920 0aae 4E455443 		.ascii	"NETCONN_EVT_SENDMINUS\000"
 14920      4F4E4E5F 
ARM GAS  /tmp/ccZlncvZ.s 			page 272


 14920      4556545F 
 14920      53454E44 
 14920      4D494E55 
 14921              	.LASF309:
 14922 0ac4 73656C65 		.ascii	"select_cb\000"
 14922      63745F63 
 14922      6200
 14923              	.LASF97:
 14924 0ace 73615F64 		.ascii	"sa_data\000"
 14924      61746100 
 14925              	.LASF178:
 14926 0ad6 736E645F 		.ascii	"snd_queuelen\000"
 14926      71756575 
 14926      656C656E 
 14926      00
 14927              	.LASF292:
 14928 0ae3 6C776970 		.ascii	"lwip_read\000"
 14928      5F726561 
 14928      6400
 14929              	.LASF278:
 14930 0aed 6E616D65 		.ascii	"name_in\000"
 14930      5F696E00 
 14931              	.LASF88:
 14932 0af5 736F636B 		.ascii	"sockaddr_in\000"
 14932      61646472 
 14932      5F696E00 
 14933              	.LASF308:
 14934 0b01 6D736563 		.ascii	"msectimeout\000"
 14934      74696D65 
 14934      6F757400 
 14935              	.LASF194:
 14936 0b0d 72656376 		.ascii	"recv_arg\000"
 14936      5F617267 
 14936      00
 14937              	.LASF94:
 14938 0b16 736F636B 		.ascii	"sockaddr\000"
 14938      61646472 
 14938      00
 14939              	.LASF130:
 14940 0b1f 4E455443 		.ascii	"NETCONN_EVT_RCVMINUS\000"
 14940      4F4E4E5F 
 14940      4556545F 
 14940      5243564D 
 14940      494E5553 
 14941              	.LASF180:
 14942 0b34 756E7365 		.ascii	"unsent\000"
 14942      6E7400
 14943              	.LASF335:
 14944 0b3b 6E657463 		.ascii	"netconn_connect\000"
 14944      6F6E6E5F 
 14944      636F6E6E 
 14944      65637400 
 14945              	.LASF6:
 14946 0b4b 5F5F696E 		.ascii	"__int16_t\000"
 14946      7431365F 
 14946      7400
 14947              	.LASF322:
ARM GAS  /tmp/ccZlncvZ.s 			page 273


 14948 0b55 73656C65 		.ascii	"select_cb_ctr\000"
 14948      63745F63 
 14948      625F6374 
 14948      7200
 14949              	.LASF297:
 14950 0b63 73686F72 		.ascii	"short_size\000"
 14950      745F7369 
 14950      7A6500
 14951              	.LASF179:
 14952 0b6e 756E7365 		.ascii	"unsent_oversize\000"
 14952      6E745F6F 
 14952      76657273 
 14952      697A6500 
 14953              	.LASF334:
 14954 0b7e 70627566 		.ascii	"pbuf_free\000"
 14954      5F667265 
 14954      6500
 14955              	.LASF347:
 14956 0b88 7379735F 		.ascii	"sys_arch_sem_wait\000"
 14956      61726368 
 14956      5F73656D 
 14956      5F776169 
 14956      7400
 14957              	.LASF197:
 14958 0b9a 6170695F 		.ascii	"api_msg_msg\000"
 14958      6D73675F 
 14958      6D736700 
 14959              	.LASF147:
 14960 0ba6 72656D6F 		.ascii	"remote_ip\000"
 14960      74655F69 
 14960      7000
 14961              	.LASF86:
 14962 0bb0 696E5F61 		.ascii	"in_addr\000"
 14962      64647200 
 14963              	.LASF304:
 14964 0bb8 6C776970 		.ascii	"lwip_write\000"
 14964      5F777269 
 14964      746500
 14965              	.LASF81:
 14966 0bc3 7533325F 		.ascii	"u32_t\000"
 14966      7400
 14967              	.LASF23:
 14968 0bc9 746D6F64 		.ascii	"tmode_t\000"
 14968      655F7400 
 14969              	.LASF142:
 14970 0bd1 77726974 		.ascii	"write_offset\000"
 14970      655F6F66 
 14970      66736574 
 14970      00
 14971              	.LASF236:
 14972 0bde 77726974 		.ascii	"writeset\000"
 14972      65736574 
 14972      00
 14973              	.LASF357:
 14974 0be7 66726565 		.ascii	"free_socket\000"
 14974      5F736F63 
 14974      6B657400 
ARM GAS  /tmp/ccZlncvZ.s 			page 274


 14975              	.LASF259:
 14976 0bf3 6C726561 		.ascii	"lreadset\000"
 14976      64736574 
 14976      00
 14977              	.LASF319:
 14978 0bfc 6C776970 		.ascii	"lwip_fcntl\000"
 14978      5F66636E 
 14978      746C00
 14979              	.LASF120:
 14980 0c07 4E455443 		.ascii	"NETCONN_RAW\000"
 14980      4F4E4E5F 
 14980      52415700 
 14981              	.LASF293:
 14982 0c13 6C776970 		.ascii	"lwip_recv\000"
 14982      5F726563 
 14982      7600
 14983              	.LASF353:
 14984 0c1d 2F686F6D 		.ascii	"/home/caroline/Documents/PAF/ChibiOS_2.6.4/demos/AR"
 14984      652F6361 
 14984      726F6C69 
 14984      6E652F44 
 14984      6F63756D 
 14985 0c50 4D434D34 		.ascii	"MCM4-STM32F407-LWIP\000"
 14985      2D53544D 
 14985      33324634 
 14985      30372D4C 
 14985      57495000 
 14986              	.LASF294:
 14987 0c64 6C776970 		.ascii	"lwip_sendto\000"
 14987      5F73656E 
 14987      64746F00 
 14988              	.LASF263:
 14989 0c70 6E616D65 		.ascii	"name\000"
 14989      00
 14990              	.LASF59:
 14991 0c75 735F7175 		.ascii	"s_queue\000"
 14991      65756500 
 14992              	.LASF112:
 14993 0c7d 706F7274 		.ascii	"port\000"
 14993      00
 14994              	.LASF176:
 14995 0c82 61636B65 		.ascii	"acked\000"
 14995      6400
 14996              	.LASF346:
 14997 0c88 7379735F 		.ascii	"sys_sem_new\000"
 14997      73656D5F 
 14997      6E657700 
 14998              	.LASF95:
 14999 0c94 73615F6C 		.ascii	"sa_len\000"
 14999      656E00
 15000              	.LASF189:
 15001 0c9b 6B656570 		.ascii	"keep_idle\000"
 15001      5F69646C 
 15001      6500
 15002              	.LASF356:
 15003 0ca5 6C776970 		.ascii	"lwip_socket_init\000"
 15003      5F736F63 
ARM GAS  /tmp/ccZlncvZ.s 			page 275


 15003      6B65745F 
 15003      696E6974 
 15003      00
 15004              	.LASF7:
 15005 0cb6 73686F72 		.ascii	"short int\000"
 15005      7420696E 
 15005      7400
 15006              	.LASF125:
 15007 0cc0 4E455443 		.ascii	"NETCONN_LISTEN\000"
 15007      4F4E4E5F 
 15007      4C495354 
 15007      454E00
 15008              	.LASF257:
 15009 0ccf 65786365 		.ascii	"exceptset_out\000"
 15009      70747365 
 15009      745F6F75 
 15009      7400
 15010              	.LASF118:
 15011 0cdd 4E455443 		.ascii	"NETCONN_UDPLITE\000"
 15011      4F4E4E5F 
 15011      5544504C 
 15011      49544500 
 15012              	.LASF352:
 15013 0ced 2E2E2F2E 		.ascii	"../../ext/lwip/src/api/sockets.c\000"
 15013      2E2F6578 
 15013      742F6C77 
 15013      69702F73 
 15013      72632F61 
 15014              	.LASF181:
 15015 0d0e 756E6163 		.ascii	"unacked\000"
 15015      6B656400 
 15016              	.LASF18:
 15017 0d16 696E7431 		.ascii	"int16_t\000"
 15017      365F7400 
 15018              	.LASF150:
 15019 0d1e 63616C6C 		.ascii	"callback_arg\000"
 15019      6261636B 
 15019      5F617267 
 15019      00
 15020              	.LASF339:
 15021 0d2b 6E657463 		.ascii	"netconn_recv\000"
 15021      6F6E6E5F 
 15021      72656376 
 15021      00
 15022              	.LASF245:
 15023 0d38 74727967 		.ascii	"tryget_socket\000"
 15023      65745F73 
 15023      6F636B65 
 15023      7400
 15024              	.LASF188:
 15025 0d46 65727266 		.ascii	"errf\000"
 15025      00
 15026              	.LASF349:
 15027 0d4b 6E657463 		.ascii	"netconn_shutdown\000"
 15027      6F6E6E5F 
 15027      73687574 
 15027      646F776E 
ARM GAS  /tmp/ccZlncvZ.s 			page 276


 15027      00
 15028              	.LASF223:
 15029 0d5c 61706966 		.ascii	"apiflags\000"
 15029      6C616773 
 15029      00
 15030              	.LASF151:
 15031 0d65 61636365 		.ascii	"accept\000"
 15031      707400
 15032              	.LASF239:
 15033 0d6c 6C776970 		.ascii	"lwip_setgetsockopt_data\000"
 15033      5F736574 
 15033      67657473 
 15033      6F636B6F 
 15033      70745F64 
 15034              	.LASF32:
 15035 0d84 54687265 		.ascii	"Thread\000"
 15035      616400
 15036              	.LASF316:
 15037 0d8b 6C776970 		.ascii	"lwip_setsockopt\000"
 15037      5F736574 
 15037      736F636B 
 15037      6F707400 
 15038              	.LASF200:
 15039 0d9b 7463705F 		.ascii	"tcp_recv_fn\000"
 15039      72656376 
 15039      5F666E00 
 15040              	.LASF123:
 15041 0da7 4E455443 		.ascii	"NETCONN_NONE\000"
 15041      4F4E4E5F 
 15041      4E4F4E45 
 15041      00
 15042              	.LASF171:
 15043 0db4 736E645F 		.ascii	"snd_wl1\000"
 15043      776C3100 
 15044              	.LASF172:
 15045 0dbc 736E645F 		.ascii	"snd_wl2\000"
 15045      776C3200 
 15046              	.LASF99:
 15047 0dc4 66645F73 		.ascii	"fd_set\000"
 15047      657400
 15048              	.LASF206:
 15049 0dcb 434C4F53 		.ascii	"CLOSED\000"
 15049      454400
 15050              	.LASF141:
 15051 0dd2 736F636B 		.ascii	"socket\000"
 15051      657400
 15052              	.LASF166:
 15053 0dd9 64757061 		.ascii	"dupacks\000"
 15053      636B7300 
 15054              	.LASF276:
 15055 0de1 6C776970 		.ascii	"lwip_bind\000"
 15055      5F62696E 
 15055      6400
 15056              	.LASF80:
 15057 0deb 7331365F 		.ascii	"s16_t\000"
 15057      7400
 15058              	.LASF326:
ARM GAS  /tmp/ccZlncvZ.s 			page 277


 15059 0df1 6D656D63 		.ascii	"memcpy\000"
 15059      707900
 15060              	.LASF301:
 15061 0df8 77726974 		.ascii	"written\000"
 15061      74656E00 
 15062              	.LASF25:
 15063 0e00 74726566 		.ascii	"trefs_t\000"
 15063      735F7400 
 15064              	.LASF229:
 15065 0e08 72637665 		.ascii	"rcvevent\000"
 15065      76656E74 
 15065      00
 15066              	.LASF195:
 15067 0e11 7261775F 		.ascii	"raw_pcb\000"
 15067      70636200 
 15068              	.LASF82:
 15069 0e19 6D656D5F 		.ascii	"mem_ptr_t\000"
 15069      7074725F 
 15069      7400
 15070              	.LASF350:
 15071 0e23 74637069 		.ascii	"tcpip_callback_with_block\000"
 15071      705F6361 
 15071      6C6C6261 
 15071      636B5F77 
 15071      6974685F 
 15072              	.LASF87:
 15073 0e3d 735F6164 		.ascii	"s_addr\000"
 15073      647200
 15074              	.LASF21:
 15075 0e44 75696E74 		.ascii	"uint32_t\000"
 15075      33325F74 
 15075      00
 15076              	.LASF134:
 15077 0e4d 6E657463 		.ascii	"netconn_callback\000"
 15077      6F6E6E5F 
 15077      63616C6C 
 15077      6261636B 
 15077      00
 15078              	.LASF222:
 15079 0e5e 64617461 		.ascii	"dataptr\000"
 15079      70747200 
 15080              	.LASF241:
 15081 0e66 6C657665 		.ascii	"level\000"
 15081      6C00
 15082              	.LASF52:
 15083 0e6c 54687265 		.ascii	"ThreadsQueue\000"
 15083      61647351 
 15083      75657565 
 15083      00
 15084              	.LASF342:
 15085 0e79 6E657462 		.ascii	"netbuf_free\000"
 15085      75665F66 
 15085      72656500 
 15086              	.LASF338:
 15087 0e85 6E657463 		.ascii	"netconn_recved\000"
 15087      6F6E6E5F 
 15087      72656376 
ARM GAS  /tmp/ccZlncvZ.s 			page 278


 15087      656400
 15088              	.LASF139:
 15089 0e94 72656376 		.ascii	"recvmbox\000"
 15089      6D626F78 
 15089      00
 15090              	.LASF129:
 15091 0e9d 4E455443 		.ascii	"NETCONN_EVT_RCVPLUS\000"
 15091      4F4E4E5F 
 15091      4556545F 
 15091      52435650 
 15091      4C555300 
 15092              	.LASF255:
 15093 0eb1 72656164 		.ascii	"readset_out\000"
 15093      7365745F 
 15093      6F757400 
 15094              	.LASF340:
 15095 0ebd 6E657463 		.ascii	"netconn_recv_tcp_pbuf\000"
 15095      6F6E6E5F 
 15095      72656376 
 15095      5F746370 
 15095      5F706275 
 15096              	.LASF341:
 15097 0ed3 6E657462 		.ascii	"netbuf_ref\000"
 15097      75665F72 
 15097      656600
 15098              	.LASF72:
 15099 0ede 7264796D 		.ascii	"rdymsg\000"
 15099      736700
 15100              	.LASF9:
 15101 0ee5 73686F72 		.ascii	"short unsigned int\000"
 15101      7420756E 
 15101      7369676E 
 15101      65642069 
 15101      6E7400
 15102              	.LASF78:
 15103 0ef8 73385F74 		.ascii	"s8_t\000"
 15103      00
 15104              	.LASF77:
 15105 0efd 75385F74 		.ascii	"u8_t\000"
 15105      00
 15106              	.LASF214:
 15107 0f02 434C4F53 		.ascii	"CLOSING\000"
 15107      494E4700 
 15108              	.LASF10:
 15109 0f0a 5F5F696E 		.ascii	"__int32_t\000"
 15109      7433325F 
 15109      7400
 15110              	.LASF177:
 15111 0f14 736E645F 		.ascii	"snd_buf\000"
 15111      62756600 
 15112              	.LASF251:
 15113 0f1c 6D617866 		.ascii	"maxfdp1\000"
 15113      64703100 
 15114              	.LASF174:
 15115 0f24 736E645F 		.ascii	"snd_wnd\000"
 15115      776E6400 
 15116              	.LASF312:
ARM GAS  /tmp/ccZlncvZ.s 			page 279


 15117 0f2c 73687574 		.ascii	"shut_tx\000"
 15117      5F747800 
 15118              	.LASF258:
 15119 0f34 6E726561 		.ascii	"nready\000"
 15119      647900
 15120              	.LASF199:
 15121 0f3b 7463705F 		.ascii	"tcp_accept_fn\000"
 15121      61636365 
 15121      70745F66 
 15121      6E00
 15122              	.LASF39:
 15123 0f49 705F6E61 		.ascii	"p_name\000"
 15123      6D6500
 15124              	.LASF106:
 15125 0f50 6E657874 		.ascii	"next\000"
 15125      00
 15126              	.LASF270:
 15127 0f55 64617461 		.ascii	"data\000"
 15127      00
 15128              	.LASF64:
 15129 0f5a 6D5F6E65 		.ascii	"m_next\000"
 15129      787400
 15130              	.LASF354:
 15131 0f61 7463705F 		.ascii	"tcp_seg\000"
 15131      73656700 
 15132              	.LASF186:
 15133 0f69 636F6E6E 		.ascii	"connected\000"
 15133      65637465 
 15133      6400
 15134              	.LASF296:
 15135 0f73 746F6C65 		.ascii	"tolen\000"
 15135      6E00
 15136              	.LASF234:
 15137 0f79 70726576 		.ascii	"prev\000"
 15137      00
 15138              	.LASF102:
 15139 0f7e 74765F73 		.ascii	"tv_sec\000"
 15139      656300
 15140              	.LASF137:
 15141 0f85 6C617374 		.ascii	"last_err\000"
 15141      5F657272 
 15141      00
 15142              	.LASF182:
 15143 0f8e 6F6F7365 		.ascii	"ooseq\000"
 15143      7100
 15144              	.LASF47:
 15145 0f94 705F6D73 		.ascii	"p_msg\000"
 15145      6700
 15146              	.LASF40:
 15147 0f9a 705F7374 		.ascii	"p_state\000"
 15147      61746500 
 15148              		.ident	"GCC: (4.8.2-14ubuntu1+6) 4.8.2"
ARM GAS  /tmp/ccZlncvZ.s 			page 280


DEFINED SYMBOLS
                            *ABS*:0000000000000000 sockets.c
     /tmp/ccZlncvZ.s:19     .text.alloc_socket:0000000000000000 $t
     /tmp/ccZlncvZ.s:24     .text.alloc_socket:0000000000000000 alloc_socket
     /tmp/ccZlncvZ.s:4147   .bss.sockets:0000000000000000 .LANCHOR0
     /tmp/ccZlncvZ.s:118    .text.lwip_selscan:0000000000000000 $t
     /tmp/ccZlncvZ.s:123    .text.lwip_selscan:0000000000000000 lwip_selscan
     /tmp/ccZlncvZ.s:340    .text.lwip_getaddrname:0000000000000000 $t
     /tmp/ccZlncvZ.s:345    .text.lwip_getaddrname:0000000000000000 lwip_getaddrname
     /tmp/ccZlncvZ.s:456    .text.event_callback:0000000000000000 $t
     /tmp/ccZlncvZ.s:461    .text.event_callback:0000000000000000 event_callback
     /tmp/ccZlncvZ.s:511    .text.event_callback:0000000000000030 $d
     /tmp/ccZlncvZ.s:4140   .bss.select_cb_list:0000000000000000 .LANCHOR1
     /tmp/ccZlncvZ.s:4154   .bss.select_cb_ctr:0000000000000000 .LANCHOR2
     /tmp/ccZlncvZ.s:662    .text.lwip_getsockopt_internal:0000000000000000 $t
     /tmp/ccZlncvZ.s:667    .text.lwip_getsockopt_internal:0000000000000000 lwip_getsockopt_internal
     /tmp/ccZlncvZ.s:4118   .rodata.err_to_errno_table:0000000000000000 .LANCHOR3
     /tmp/ccZlncvZ.s:891    .text.lwip_setsockopt_internal:0000000000000000 $t
     /tmp/ccZlncvZ.s:896    .text.lwip_setsockopt_internal:0000000000000000 lwip_setsockopt_internal
     /tmp/ccZlncvZ.s:1111   .text.lwip_socket_init:0000000000000000 $t
     /tmp/ccZlncvZ.s:1117   .text.lwip_socket_init:0000000000000000 lwip_socket_init
     /tmp/ccZlncvZ.s:1129   .text.lwip_accept:0000000000000000 $t
     /tmp/ccZlncvZ.s:1135   .text.lwip_accept:0000000000000000 lwip_accept
     /tmp/ccZlncvZ.s:1432   .text.lwip_bind:0000000000000000 $t
     /tmp/ccZlncvZ.s:1438   .text.lwip_bind:0000000000000000 lwip_bind
     /tmp/ccZlncvZ.s:1555   .text.lwip_close:0000000000000000 $t
     /tmp/ccZlncvZ.s:1561   .text.lwip_close:0000000000000000 lwip_close
     /tmp/ccZlncvZ.s:1660   .text.lwip_connect:0000000000000000 $t
     /tmp/ccZlncvZ.s:1666   .text.lwip_connect:0000000000000000 lwip_connect
     /tmp/ccZlncvZ.s:1785   .text.lwip_listen:0000000000000000 $t
     /tmp/ccZlncvZ.s:1791   .text.lwip_listen:0000000000000000 lwip_listen
     /tmp/ccZlncvZ.s:1887   .text.lwip_recvfrom:0000000000000000 $t
     /tmp/ccZlncvZ.s:1893   .text.lwip_recvfrom:0000000000000000 lwip_recvfrom
     /tmp/ccZlncvZ.s:2348   .text.lwip_read:0000000000000000 $t
     /tmp/ccZlncvZ.s:2354   .text.lwip_read:0000000000000000 lwip_read
     /tmp/ccZlncvZ.s:2380   .text.lwip_recv:0000000000000000 $t
     /tmp/ccZlncvZ.s:2386   .text.lwip_recv:0000000000000000 lwip_recv
     /tmp/ccZlncvZ.s:2413   .text.lwip_sendto:0000000000000000 $t
     /tmp/ccZlncvZ.s:2419   .text.lwip_sendto:0000000000000000 lwip_sendto
     /tmp/ccZlncvZ.s:2605   .text.lwip_send:0000000000000000 lwip_send
     /tmp/ccZlncvZ.s:2599   .text.lwip_send:0000000000000000 $t
     /tmp/ccZlncvZ.s:2717   .text.lwip_socket:0000000000000000 $t
     /tmp/ccZlncvZ.s:2723   .text.lwip_socket:0000000000000000 lwip_socket
     /tmp/ccZlncvZ.s:2841   .text.lwip_write:0000000000000000 $t
     /tmp/ccZlncvZ.s:2847   .text.lwip_write:0000000000000000 lwip_write
     /tmp/ccZlncvZ.s:2863   .text.lwip_select:0000000000000000 $t
     /tmp/ccZlncvZ.s:2869   .text.lwip_select:0000000000000000 lwip_select
     /tmp/ccZlncvZ.s:3339   .text.lwip_shutdown:0000000000000000 $t
     /tmp/ccZlncvZ.s:3345   .text.lwip_shutdown:0000000000000000 lwip_shutdown
     /tmp/ccZlncvZ.s:3456   .text.lwip_getpeername:0000000000000000 $t
     /tmp/ccZlncvZ.s:3462   .text.lwip_getpeername:0000000000000000 lwip_getpeername
     /tmp/ccZlncvZ.s:3478   .text.lwip_getsockname:0000000000000000 $t
     /tmp/ccZlncvZ.s:3484   .text.lwip_getsockname:0000000000000000 lwip_getsockname
     /tmp/ccZlncvZ.s:3500   .text.lwip_getsockopt:0000000000000000 $t
     /tmp/ccZlncvZ.s:3506   .text.lwip_getsockopt:0000000000000000 lwip_getsockopt
     /tmp/ccZlncvZ.s:3730   .text.lwip_setsockopt:0000000000000000 $t
     /tmp/ccZlncvZ.s:3736   .text.lwip_setsockopt:0000000000000000 lwip_setsockopt
ARM GAS  /tmp/ccZlncvZ.s 			page 281


     /tmp/ccZlncvZ.s:3951   .text.lwip_ioctl:0000000000000000 $t
     /tmp/ccZlncvZ.s:3957   .text.lwip_ioctl:0000000000000000 lwip_ioctl
     /tmp/ccZlncvZ.s:4045   .text.lwip_fcntl:0000000000000000 $t
     /tmp/ccZlncvZ.s:4051   .text.lwip_fcntl:0000000000000000 lwip_fcntl
     /tmp/ccZlncvZ.s:4117   .rodata.err_to_errno_table:0000000000000000 $d
     /tmp/ccZlncvZ.s:4121   .rodata.err_to_errno_table:0000000000000000 err_to_errno_table
     /tmp/ccZlncvZ.s:4139   .bss.select_cb_list:0000000000000000 $d
     /tmp/ccZlncvZ.s:4143   .bss.select_cb_list:0000000000000000 select_cb_list
     /tmp/ccZlncvZ.s:4146   .bss.sockets:0000000000000000 $d
     /tmp/ccZlncvZ.s:4150   .bss.sockets:0000000000000000 sockets
     /tmp/ccZlncvZ.s:4153   .bss.select_cb_ctr:0000000000000000 $d
     /tmp/ccZlncvZ.s:4157   .bss.select_cb_ctr:0000000000000000 select_cb_ctr
                     .debug_frame:0000000000000010 $d
     /tmp/ccZlncvZ.s:516    .text.event_callback:0000000000000035 $d
     /tmp/ccZlncvZ.s:516    .text.event_callback:0000000000000036 $t

UNDEFINED SYMBOLS
netconn_getaddr
lwip_htons
memcpy
sys_sem_signal_S
port_halt
sys_sem_signal
netconn_accept
netconn_delete
lwip_ntohs
netconn_bind
netbuf_delete
pbuf_free
netconn_connect
netconn_listen_with_backlog
pbuf_copy_partial
netconn_recved
netconn_recv
netconn_recv_tcp_pbuf
netbuf_ref
netbuf_free
netconn_send
netconn_write_partly
netconn_new_with_proto_and_callback
sys_sem_new
sys_arch_sem_wait
sys_sem_free
netconn_shutdown
tcpip_callback_with_block
