ARM GAS  /tmp/ccZlncvZ.s 			page 1


   1              		.syntax unified
   2              		.cpu cortex-m4
   3              		.fpu softvfp
   4              		.eabi_attribute 20, 1
   5              		.eabi_attribute 21, 1
   6              		.eabi_attribute 23, 3
   7              		.eabi_attribute 24, 1
   8              		.eabi_attribute 25, 1
   9              		.eabi_attribute 26, 1
  10              		.eabi_attribute 30, 2
  11              		.eabi_attribute 34, 1
  12              		.eabi_attribute 18, 4
  13              		.thumb
  14              		.file	"sockets.c"
  15              		.text
  16              	.Ltext0:
  17              		.cfi_sections	.debug_frame
  18              		.section	.text.alloc_socket,"ax",%progbits
  19              		.align	2
  20              		.p2align 4,,15
  21              		.thumb
  22              		.thumb_func
  23              		.type	alloc_socket, %function
  24              	alloc_socket:
  25              	.LFB10:
  26              		.file 1 "../../ext/lwip/src/api/sockets.c"
  27              		.loc 1 244 0
  28              		.cfi_startproc
  29              		@ args = 0, pretend = 0, frame = 0
  30              		@ frame_needed = 0, uses_anonymous_args = 0
  31              		@ link register save eliminated.
  32              	.LVL0:
  33 0000 2DE9F001 		push	{r4, r5, r6, r7, r8}
  34              		.cfi_def_cfa_offset 20
  35              		.cfi_offset 4, -20
  36              		.cfi_offset 5, -16
  37              		.cfi_offset 6, -12
  38              		.cfi_offset 7, -8
  39              		.cfi_offset 8, -4
  40              		.loc 1 244 0
  41 0004 0023     		movs	r3, #0
  42 0006 40F20006 		movw	r6, #:lower16:.LANCHOR0
  43              		.loc 1 249 0
  44 000a 1A46     		mov	r2, r3
  45 000c C0F20006 		movt	r6, #:upper16:.LANCHOR0
  46              	.LVL1:
  47              	.L5:
  48              		.loc 1 252 0
  49 0010 F558     		ldr	r5, [r6, r3]
  50 0012 40F20004 		movw	r4, #:lower16:.LANCHOR0
  51 0016 1833     		adds	r3, r3, #24
  52 0018 C0F20004 		movt	r4, #:upper16:.LANCHOR0
  53 001c 3DB1     		cbz	r5, .L10
  54              		.loc 1 249 0
  55 001e 0132     		adds	r2, r2, #1
  56              	.LVL2:
  57 0020 042A     		cmp	r2, #4
ARM GAS  /tmp/ccZlncvZ.s 			page 2


  58 0022 F5D1     		bne	.L5
  59              		.loc 1 270 0
  60 0024 4FF0FF30 		mov	r0, #-1
  61              	.LVL3:
  62              		.loc 1 271 0
  63 0028 BDE8F001 		pop	{r4, r5, r6, r7, r8}
  64 002c 7047     		bx	lr
  65              	.LVL4:
  66              	.L10:
  67              		.loc 1 253 0
  68 002e 5700     		lsls	r7, r2, #1
  69 0030 07EB020C 		add	ip, r7, r2
  70              		.loc 1 262 0
  71 0034 90F80080 		ldrb	r8, [r0]	@ zero_extendqisi2
  72              		.loc 1 253 0
  73 0038 4FEACC0C 		lsl	ip, ip, #3
  74 003c 04EB0C03 		add	r3, r4, ip
  75              		.loc 1 262 0
  76 0040 B8F1100F 		cmp	r8, #16
  77              		.loc 1 253 0
  78 0044 44F80C00 		str	r0, [r4, ip]
  79 0048 18BF     		it	ne
  80 004a 0121     		movne	r1, #1
  81              	.LVL5:
  82              		.loc 1 257 0
  83 004c 5D60     		str	r5, [r3, #4]
  84              		.loc 1 258 0
  85 004e 1D81     		strh	r5, [r3, #8]	@ movhi
  86              		.loc 1 259 0
  87 0050 5D81     		strh	r5, [r3, #10]	@ movhi
  88              		.loc 1 262 0
  89 0052 02D1     		bne	.L3
  90 0054 0031     		adds	r1, r1, #0
  91 0056 18BF     		it	ne
  92 0058 0121     		movne	r1, #1
  93              	.L3:
  94              		.loc 1 262 0 is_stmt 0 discriminator 4
  95 005a 1744     		add	r7, r7, r2
  96 005c 06EBC706 		add	r6, r6, r7, lsl #3
  97              		.loc 1 263 0 is_stmt 1 discriminator 4
  98 0060 0023     		movs	r3, #0
  99              		.loc 1 266 0 discriminator 4
 100 0062 1046     		mov	r0, r2
 101              	.LVL6:
 102              		.loc 1 262 0 discriminator 4
 103 0064 B181     		strh	r1, [r6, #12]	@ movhi
 104              		.loc 1 263 0 discriminator 4
 105 0066 F381     		strh	r3, [r6, #14]	@ movhi
 106              		.loc 1 264 0 discriminator 4
 107 0068 3361     		str	r3, [r6, #16]
 108              		.loc 1 265 0 discriminator 4
 109 006a 7361     		str	r3, [r6, #20]
 110              		.loc 1 271 0 discriminator 4
 111 006c BDE8F001 		pop	{r4, r5, r6, r7, r8}
 112              	.LVL7:
 113 0070 7047     		bx	lr
 114              		.cfi_endproc
ARM GAS  /tmp/ccZlncvZ.s 			page 3


 115              	.LFE10:
 116              		.size	alloc_socket, .-alloc_socket
 117 0072 00BFAFF3 		.section	.text.lwip_selscan,"ax",%progbits
 117      0080AFF3 
 117      0080AFF3 
 117      0080
 118              		.align	2
 119              		.p2align 4,,15
 120              		.thumb
 121              		.thumb_func
 122              		.type	lwip_selscan, %function
 123              	lwip_selscan:
 124              	.LFB24:
 125              		.loc 1 1028 0
 126              		.cfi_startproc
 127              		@ args = 12, pretend = 0, frame = 24
 128              		@ frame_needed = 0, uses_anonymous_args = 0
 129              		@ link register save eliminated.
 130              	.LVL8:
 131 0000 2DE9F00F 		push	{r4, r5, r6, r7, r8, r9, r10, fp}
 132              		.cfi_def_cfa_offset 32
 133              		.cfi_offset 4, -32
 134              		.cfi_offset 5, -28
 135              		.cfi_offset 6, -24
 136              		.cfi_offset 7, -20
 137              		.cfi_offset 8, -16
 138              		.cfi_offset 9, -12
 139              		.cfi_offset 10, -8
 140              		.cfi_offset 11, -4
 141 0004 86B0     		sub	sp, sp, #24
 142              		.cfi_def_cfa_offset 56
 143              		.loc 1 1034 0
 144 0006 0024     		movs	r4, #0
 145              		.loc 1 1040 0
 146 0008 0028     		cmp	r0, #0
 147 000a 0190     		str	r0, [sp, #4]
 148              		.loc 1 1034 0
 149 000c 8DF80C40 		strb	r4, [sp, #12]
 150              		.loc 1 1035 0
 151 0010 8DF81040 		strb	r4, [sp, #16]
 152              		.loc 1 1036 0
 153 0014 8DF81440 		strb	r4, [sp, #20]
 154              	.LVL9:
 155              		.loc 1 1029 0
 156 0018 2046     		mov	r0, r4
 157              	.LVL10:
 158              		.loc 1 1040 0
 159 001a 66DD     		ble	.L12
 160 001c 40F20006 		movw	r6, #:lower16:.LANCHOR0
 161 0020 C0F20006 		movt	r6, #:upper16:.LANCHOR0
 162              	.LBB45:
 163              		.loc 1 1058 0
 164 0024 A346     		mov	fp, r4
 165              	.LVL11:
 166              	.L17:
 167              	.LBB46:
 168              	.LBB47:
ARM GAS  /tmp/ccZlncvZ.s 			page 4


 169              		.loc 1 225 0
 170 0026 032C     		cmp	r4, #3
 171              	.LBE47:
 172              	.LBE46:
 173              		.loc 1 1044 0
 174 0028 81BF     		itttt	hi
 175 002a 0025     		movhi	r5, #0
 176              		.loc 1 1043 0
 177 002c 2846     		movhi	r0, r5
 178              		.loc 1 1042 0
 179 002e AA46     		movhi	r10, r5
 180              		.loc 1 1041 0
 181 0030 A946     		movhi	r9, r5
 182              	.LBB50:
 183              	.LBB48:
 184              		.loc 1 225 0
 185 0032 6AD9     		bls	.L49
 186              	.LVL12:
 187              	.L13:
 188              	.LBE48:
 189              	.LBE50:
 190              		.loc 1 1057 0
 191 0034 09B3     		cbz	r1, .L14
 192              		.loc 1 1057 0 is_stmt 0 discriminator 1
 193 0036 4FEAE40C 		asr	ip, r4, #3
 194 003a 04F00707 		and	r7, r4, #7
 195 003e 11F80C80 		ldrb	r8, [r1, ip]	@ zero_extendqisi2
 196 0042 48FA07F8 		asr	r8, r8, r7
 197 0046 18F0010F 		tst	r8, #1
 198 004a 16D0     		beq	.L14
 199 004c 0FFA8AFA 		sxth	r10, r10
 200              	.LVL13:
 201 0050 BAF1000F 		cmp	r10, #0
 202 0054 D8BF     		it	le
 203 0056 B9F1000F 		cmple	r9, #0
 204 005a 0ED0     		beq	.L14
 205              		.loc 1 1058 0 is_stmt 1
 206 005c 0DF11808 		add	r8, sp, #24
 207 0060 C444     		add	ip, ip, r8
 208 0062 4FF00108 		mov	r8, #1
 209 0066 08FA07F7 		lsl	r7, r8, r7
 210 006a 1CF80C8C 		ldrb	r8, [ip, #-12]	@ zero_extendqisi2
 211 006e 47EA0807 		orr	r7, r7, r8
 212              		.loc 1 1060 0
 213 0072 0BF1010B 		add	fp, fp, #1
 214              	.LVL14:
 215              		.loc 1 1058 0
 216 0076 0CF80C7C 		strb	r7, [ip, #-12]
 217              	.L14:
 218              		.loc 1 1063 0
 219 007a BAB1     		cbz	r2, .L15
 220              		.loc 1 1063 0 is_stmt 0 discriminator 1
 221 007c 4FEAE40C 		asr	ip, r4, #3
 222 0080 04F00707 		and	r7, r4, #7
 223 0084 12F80C80 		ldrb	r8, [r2, ip]	@ zero_extendqisi2
 224 0088 48FA07F8 		asr	r8, r8, r7
 225 008c 18F0010F 		tst	r8, #1
ARM GAS  /tmp/ccZlncvZ.s 			page 5


 226 0090 0CD0     		beq	.L15
 227 0092 58B1     		cbz	r0, .L15
 228              		.loc 1 1064 0 is_stmt 1
 229 0094 06A8     		add	r0, sp, #24
 230              	.LVL15:
 231 0096 8444     		add	ip, ip, r0
 232 0098 4FF00108 		mov	r8, #1
 233 009c 1CF8080C 		ldrb	r0, [ip, #-8]	@ zero_extendqisi2
 234 00a0 08FA07F7 		lsl	r7, r8, r7
 235 00a4 0743     		orrs	r7, r7, r0
 236              		.loc 1 1066 0
 237 00a6 C344     		add	fp, fp, r8
 238              	.LVL16:
 239              		.loc 1 1064 0
 240 00a8 0CF8087C 		strb	r7, [ip, #-8]
 241              	.L15:
 242              		.loc 1 1069 0
 243 00ac B3B1     		cbz	r3, .L16
 244              		.loc 1 1069 0 is_stmt 0 discriminator 1
 245 00ae E710     		asrs	r7, r4, #3
 246 00b0 04F00700 		and	r0, r4, #7
 247 00b4 13F807C0 		ldrb	ip, [r3, r7]	@ zero_extendqisi2
 248 00b8 4CFA00FC 		asr	ip, ip, r0
 249 00bc 1CF0010F 		tst	ip, #1
 250 00c0 0CD0     		beq	.L16
 251 00c2 5DB1     		cbz	r5, .L16
 252              		.loc 1 1070 0 is_stmt 1
 253 00c4 06AD     		add	r5, sp, #24
 254              	.LVL17:
 255 00c6 2F44     		add	r7, r7, r5
 256 00c8 4FF00108 		mov	r8, #1
 257 00cc 17F8045C 		ldrb	r5, [r7, #-4]	@ zero_extendqisi2
 258 00d0 08FA00F0 		lsl	r0, r8, r0
 259 00d4 2843     		orrs	r0, r0, r5
 260              		.loc 1 1072 0
 261 00d6 C344     		add	fp, fp, r8
 262              	.LVL18:
 263              		.loc 1 1070 0
 264 00d8 07F8040C 		strb	r0, [r7, #-4]
 265              	.L16:
 266              	.LBE45:
 267              		.loc 1 1040 0
 268 00dc 0198     		ldr	r0, [sp, #4]
 269 00de 0134     		adds	r4, r4, #1
 270              	.LVL19:
 271 00e0 8442     		cmp	r4, r0
 272 00e2 06F11806 		add	r6, r6, #24
 273 00e6 9ED1     		bne	.L17
 274 00e8 5846     		mov	r0, fp
 275              	.LVL20:
 276              	.L12:
 277              		.loc 1 1076 0
 278 00ea 9DF80C10 		ldrb	r1, [sp, #12]	@ zero_extendqisi2
 279              	.LVL21:
 280 00ee 0E9C     		ldr	r4, [sp, #56]
 281              		.loc 1 1077 0
 282 00f0 9DF81020 		ldrb	r2, [sp, #16]	@ zero_extendqisi2
ARM GAS  /tmp/ccZlncvZ.s 			page 6


 283              	.LVL22:
 284              		.loc 1 1076 0
 285 00f4 2170     		strb	r1, [r4]
 286              		.loc 1 1078 0
 287 00f6 9DF81430 		ldrb	r3, [sp, #20]	@ zero_extendqisi2
 288              	.LVL23:
 289              		.loc 1 1077 0
 290 00fa 0F9D     		ldr	r5, [sp, #60]
 291              		.loc 1 1078 0
 292 00fc 1099     		ldr	r1, [sp, #64]
 293              		.loc 1 1077 0
 294 00fe 2A70     		strb	r2, [r5]
 295              		.loc 1 1078 0
 296 0100 0B70     		strb	r3, [r1]
 297              		.loc 1 1082 0
 298 0102 06B0     		add	sp, sp, #24
 299              		@ sp needed
 300 0104 BDE8F00F 		pop	{r4, r5, r6, r7, r8, r9, r10, fp}
 301              	.LVL24:
 302 0108 7047     		bx	lr
 303              	.LVL25:
 304              	.L49:
 305              	.LBB52:
 306              	.LBB51:
 307              	.LBB49:
 308              		.loc 1 228 0
 309 010a 3568     		ldr	r5, [r6]
 310 010c 35B1     		cbz	r5, .L20
 311              	.LBE49:
 312              	.LBE51:
 313              		.loc 1 1049 0
 314 010e D6F80490 		ldr	r9, [r6, #4]
 315              	.LVL26:
 316              		.loc 1 1050 0
 317 0112 B6F80AA0 		ldrh	r10, [r6, #10]
 318              	.LVL27:
 319              		.loc 1 1051 0
 320 0116 B089     		ldrh	r0, [r6, #12]
 321              	.LVL28:
 322              		.loc 1 1052 0
 323 0118 F589     		ldrh	r5, [r6, #14]
 324              	.LVL29:
 325 011a 8BE7     		b	.L13
 326              	.LVL30:
 327              	.L20:
 328              		.loc 1 1043 0
 329 011c 2846     		mov	r0, r5
 330              		.loc 1 1042 0
 331 011e AA46     		mov	r10, r5
 332              		.loc 1 1041 0
 333 0120 A946     		mov	r9, r5
 334 0122 87E7     		b	.L13
 335              	.LBE52:
 336              		.cfi_endproc
 337              	.LFE24:
 338              		.size	lwip_selscan, .-lwip_selscan
 339 0124 AFF30080 		.section	.text.lwip_getaddrname,"ax",%progbits
ARM GAS  /tmp/ccZlncvZ.s 			page 7


 339      AFF30080 
 339      AFF30080 
 340              		.align	2
 341              		.p2align 4,,15
 342              		.thumb
 343              		.thumb_func
 344              		.type	lwip_getaddrname, %function
 345              	lwip_getaddrname:
 346              	.LFB28:
 347              		.loc 1 1412 0
 348              		.cfi_startproc
 349              		@ args = 0, pretend = 0, frame = 24
 350              		@ frame_needed = 0, uses_anonymous_args = 0
 351              	.LVL31:
 352 0000 2DE9F041 		push	{r4, r5, r6, r7, r8, lr}
 353              		.cfi_def_cfa_offset 24
 354              		.cfi_offset 4, -24
 355              		.cfi_offset 5, -20
 356              		.cfi_offset 6, -16
 357              		.cfi_offset 7, -12
 358              		.cfi_offset 8, -8
 359              		.cfi_offset 14, -4
 360              	.LBB53:
 361              	.LBB54:
 362              		.loc 1 199 0
 363 0004 0328     		cmp	r0, #3
 364              	.LBE54:
 365              	.LBE53:
 366              		.loc 1 1412 0
 367 0006 86B0     		sub	sp, sp, #24
 368              		.cfi_def_cfa_offset 48
 369              		.loc 1 1412 0
 370 0008 0D46     		mov	r5, r1
 371 000a 1646     		mov	r6, r2
 372              	.LBB56:
 373              	.LBB55:
 374              		.loc 1 199 0
 375 000c 32D8     		bhi	.L56
 376              		.loc 1 205 0
 377 000e 00EB4000 		add	r0, r0, r0, lsl #1
 378              	.LVL32:
 379 0012 40F20004 		movw	r4, #:lower16:.LANCHOR0
 380 0016 C000     		lsls	r0, r0, #3
 381 0018 C0F20004 		movt	r4, #:upper16:.LANCHOR0
 382 001c 04EB0008 		add	r8, r4, r0
 383              	.LVL33:
 384              		.loc 1 207 0
 385 0020 2058     		ldr	r0, [r4, r0]
 386 0022 38B3     		cbz	r0, .L56
 387              	.LBE55:
 388              	.LBE56:
 389              		.loc 1 1422 0
 390 0024 0024     		movs	r4, #0
 391              		.loc 1 1423 0
 392 0026 1027     		movs	r7, #16
 393              		.loc 1 1424 0
 394 0028 4FF0020E 		mov	lr, #2
ARM GAS  /tmp/ccZlncvZ.s 			page 8


 395              		.loc 1 1427 0
 396 002c 01A9     		add	r1, sp, #4
 397              	.LVL34:
 398 002e 0DF10A02 		add	r2, sp, #10
 399              	.LVL35:
 400              		.loc 1 1422 0
 401 0032 0294     		str	r4, [sp, #8]
 402 0034 0394     		str	r4, [sp, #12]
 403              		.loc 1 1424 0
 404 0036 8DF809E0 		strb	lr, [sp, #9]
 405              		.loc 1 1422 0
 406 003a 0494     		str	r4, [sp, #16]
 407 003c 0594     		str	r4, [sp, #20]
 408              		.loc 1 1423 0
 409 003e 8DF80870 		strb	r7, [sp, #8]
 410              		.loc 1 1427 0
 411 0042 FFF7FEFF 		bl	netconn_getaddr
 412              	.LVL36:
 413              		.loc 1 1433 0
 414 0046 BDF80A00 		ldrh	r0, [sp, #10]
 415 004a FFF7FEFF 		bl	lwip_htons
 416              	.LVL37:
 417              		.loc 1 1436 0
 418 004e 3268     		ldr	r2, [r6]
 419              		.loc 1 1434 0
 420 0050 019B     		ldr	r3, [sp, #4]
 421              		.loc 1 1433 0
 422 0052 ADF80A00 		strh	r0, [sp, #10]	@ movhi
 423              		.loc 1 1436 0
 424 0056 BA42     		cmp	r2, r7
 425              		.loc 1 1437 0
 426 0058 84BF     		itt	hi
 427 005a 3760     		strhi	r7, [r6]
 428 005c 3A46     		movhi	r2, r7
 429              		.loc 1 1440 0
 430 005e 2846     		mov	r0, r5
 431 0060 02A9     		add	r1, sp, #8
 432              		.loc 1 1434 0
 433 0062 0393     		str	r3, [sp, #12]
 434              		.loc 1 1440 0
 435 0064 FFF7FEFF 		bl	memcpy
 436              	.LVL38:
 437              		.loc 1 1441 0
 438 0068 0020     		movs	r0, #0
 439 006a C8F81000 		str	r0, [r8, #16]
 440              		.loc 1 1443 0
 441 006e 06B0     		add	sp, sp, #24
 442              		@ sp needed
 443 0070 BDE8F081 		pop	{r4, r5, r6, r7, r8, pc}
 444              	.LVL39:
 445              	.L56:
 446              		.loc 1 1419 0
 447 0074 4FF0FF30 		mov	r0, #-1
 448              		.loc 1 1443 0
 449 0078 06B0     		add	sp, sp, #24
 450              		@ sp needed
 451 007a BDE8F081 		pop	{r4, r5, r6, r7, r8, pc}
ARM GAS  /tmp/ccZlncvZ.s 			page 9


 452              		.cfi_endproc
 453              	.LFE28:
 454              		.size	lwip_getaddrname, .-lwip_getaddrname
 455 007e 00BF     		.section	.text.event_callback,"ax",%progbits
 456              		.align	2
 457              		.p2align 4,,15
 458              		.thumb
 459              		.thumb_func
 460              		.type	event_callback, %function
 461              	event_callback:
 462              	.LFB26:
 463              		.loc 1 1248 0
 464              		.cfi_startproc
 465              		@ args = 0, pretend = 0, frame = 0
 466              		@ frame_needed = 0, uses_anonymous_args = 0
 467              	.LVL40:
 468 0000 2DE9F843 		push	{r3, r4, r5, r6, r7, r8, r9, lr}
 469              		.cfi_def_cfa_offset 32
 470              		.cfi_offset 3, -32
 471              		.cfi_offset 4, -28
 472              		.cfi_offset 5, -24
 473              		.cfi_offset 6, -20
 474              		.cfi_offset 7, -16
 475              		.cfi_offset 8, -12
 476              		.cfi_offset 9, -8
 477              		.cfi_offset 14, -4
 478              		.loc 1 1258 0
 479 0004 C8B1     		cbz	r0, .L59
 480              		.loc 1 1259 0
 481 0006 8469     		ldr	r4, [r0, #24]
 482              	.LVL41:
 483              		.loc 1 1260 0
 484 0008 002C     		cmp	r4, #0
 485 000a 14DB     		blt	.L109
 486              	.LVL42:
 487              	.LBB57:
 488              	.LBB58:
 489              		.loc 1 199 0
 490 000c 032C     		cmp	r4, #3
 491 000e 14D8     		bhi	.L59
 492              		.loc 1 205 0
 493 0010 40F20003 		movw	r3, #:lower16:.LANCHOR0
 494 0014 04EB4402 		add	r2, r4, r4, lsl #1
 495              	.LVL43:
 496 0018 C0F20003 		movt	r3, #:upper16:.LANCHOR0
 497 001c D200     		lsls	r2, r2, #3
 498 001e 03EB0208 		add	r8, r3, r2
 499              	.LVL44:
 500              		.loc 1 207 0
 501 0022 9B58     		ldr	r3, [r3, r2]
 502 0024 002B     		cmp	r3, #0
 503 0026 63D0     		beq	.L110
 504              	.LBE58:
 505              	.LBE57:
 506              		.loc 1 1288 0
 507 0028 0429     		cmp	r1, #4
 508 002a 5ED8     		bhi	.L71
ARM GAS  /tmp/ccZlncvZ.s 			page 10


 509 002c DFE801F0 		tbb	[pc, r1]
 510              	.L79:
 511 0030 43       		.byte	(.L65-.L79)/2
 512 0031 4D       		.byte	(.L67-.L79)/2
 513 0032 49       		.byte	(.L68-.L79)/2
 514 0033 53       		.byte	(.L69-.L79)/2
 515 0034 07       		.byte	(.L70-.L79)/2
 516 0035 00       		.align	1
 517              	.LVL45:
 518              	.L109:
 519              		.loc 1 1268 0
 520 0036 0029     		cmp	r1, #0
 521 0038 5CD0     		beq	.L111
 522              	.LVL46:
 523              	.L59:
 524 003a BDE8F883 		pop	{r3, r4, r5, r6, r7, r8, r9, pc}
 525              	.LVL47:
 526              	.L70:
 527              		.loc 1 1302 0
 528 003e 0123     		movs	r3, #1
 529 0040 A8F80E30 		strh	r3, [r8, #14]	@ movhi
 530              	.LVL48:
 531              	.L66:
 532              		.loc 1 1309 0
 533 0044 D8F81430 		ldr	r3, [r8, #20]
 534 0048 002B     		cmp	r3, #0
 535 004a F6D0     		beq	.L59
 536 004c 0127     		movs	r7, #1
 537 004e 40F20006 		movw	r6, #:lower16:.LANCHOR1
 538 0052 40F20005 		movw	r5, #:lower16:.LANCHOR2
 539 0056 07FA04F9 		lsl	r9, r7, r4
 540 005a C0F20006 		movt	r6, #:upper16:.LANCHOR1
 541 005e C0F20005 		movt	r5, #:upper16:.LANCHOR2
 542              	.LVL49:
 543              	.L77:
 544              		.loc 1 1322 0
 545 0062 3468     		ldr	r4, [r6]
 546              	.LVL50:
 547 0064 002C     		cmp	r4, #0
 548 0066 E8D0     		beq	.L59
 549              	.L78:
 550              		.loc 1 1323 0
 551 0068 6369     		ldr	r3, [r4, #20]
 552 006a DBB9     		cbnz	r3, .L72
 553              	.LVL51:
 554              	.LBB59:
 555              		.loc 1 1327 0
 556 006c B8F90A30 		ldrsh	r3, [r8, #10]
 557 0070 002B     		cmp	r3, #0
 558 0072 05DD     		ble	.L73
 559              		.loc 1 1328 0
 560 0074 A368     		ldr	r3, [r4, #8]
 561 0076 1BB1     		cbz	r3, .L73
 562              		.loc 1 1328 0 is_stmt 0 discriminator 1
 563 0078 1B78     		ldrb	r3, [r3]	@ zero_extendqisi2
 564 007a 13EA090F 		tst	r3, r9
 565 007e 2ED1     		bne	.L74
ARM GAS  /tmp/ccZlncvZ.s 			page 11


 566              	.L73:
 567              		.loc 1 1332 0 is_stmt 1
 568 0080 B8F80C30 		ldrh	r3, [r8, #12]
 569 0084 2BB1     		cbz	r3, .L108
 570              		.loc 1 1333 0 discriminator 1
 571 0086 E368     		ldr	r3, [r4, #12]
 572 0088 1BB1     		cbz	r3, .L108
 573 008a 1B78     		ldrb	r3, [r3]	@ zero_extendqisi2
 574 008c 19EA030F 		tst	r9, r3
 575 0090 25D1     		bne	.L74
 576              	.L108:
 577              		.loc 1 1337 0
 578 0092 B8F80E30 		ldrh	r3, [r8, #14]
 579 0096 2BB1     		cbz	r3, .L72
 580              		.loc 1 1338 0 discriminator 1
 581 0098 2369     		ldr	r3, [r4, #16]
 582 009a 1BB1     		cbz	r3, .L72
 583 009c 1B78     		ldrb	r3, [r3]	@ zero_extendqisi2
 584 009e 19EA030F 		tst	r9, r3
 585 00a2 1CD1     		bne	.L74
 586              	.LVL52:
 587              	.L72:
 588              	.LBE59:
 589              		.loc 1 1353 0
 590 00a4 2A68     		ldr	r2, [r5]
 591              	.LVL53:
 592              		.loc 1 1357 0
 593 00a6 2B68     		ldr	r3, [r5]
 594 00a8 9A42     		cmp	r2, r3
 595 00aa DAD1     		bne	.L77
 596              		.loc 1 1322 0
 597 00ac 2468     		ldr	r4, [r4]
 598              	.LVL54:
 599 00ae 002C     		cmp	r4, #0
 600 00b0 DAD1     		bne	.L78
 601 00b2 BDE8F883 		pop	{r3, r4, r5, r6, r7, r8, r9, pc}
 602              	.LVL55:
 603              	.L65:
 604              		.loc 1 1290 0
 605 00b6 B8F80A30 		ldrh	r3, [r8, #10]
 606 00ba 0133     		adds	r3, r3, #1
 607 00bc A8F80A30 		strh	r3, [r8, #10]	@ movhi
 608              		.loc 1 1291 0
 609 00c0 C0E7     		b	.L66
 610              	.L68:
 611              		.loc 1 1296 0
 612 00c2 0123     		movs	r3, #1
 613 00c4 A8F80C30 		strh	r3, [r8, #12]	@ movhi
 614              		.loc 1 1297 0
 615 00c8 BCE7     		b	.L66
 616              	.L67:
 617              		.loc 1 1293 0
 618 00ca B8F80A30 		ldrh	r3, [r8, #10]
 619 00ce 013B     		subs	r3, r3, #1
 620 00d0 A8F80A30 		strh	r3, [r8, #10]	@ movhi
 621              		.loc 1 1294 0
 622 00d4 B6E7     		b	.L66
ARM GAS  /tmp/ccZlncvZ.s 			page 12


 623              	.L69:
 624              		.loc 1 1299 0
 625 00d6 0023     		movs	r3, #0
 626 00d8 A8F80C30 		strh	r3, [r8, #12]	@ movhi
 627              		.loc 1 1300 0
 628 00dc B2E7     		b	.L66
 629              	.LVL56:
 630              	.L74:
 631              	.LBB60:
 632              		.loc 1 1343 0
 633 00de 6761     		str	r7, [r4, #20]
 634              		.loc 1 1349 0
 635 00e0 04F11800 		add	r0, r4, #24
 636 00e4 FFF7FEFF 		bl	sys_sem_signal_S
 637              	.LVL57:
 638 00e8 DCE7     		b	.L72
 639              	.LVL58:
 640              	.L71:
 641              	.LBE60:
 642              		.loc 1 1305 0 discriminator 1
 643 00ea FFF7FEFF 		bl	port_halt
 644              	.LVL59:
 645              		.loc 1 1306 0 discriminator 1
 646 00ee A9E7     		b	.L66
 647              	.LVL60:
 648              	.L110:
 649 00f0 BDE8F883 		pop	{r3, r4, r5, r6, r7, r8, r9, pc}
 650              	.LVL61:
 651              	.L111:
 652              		.loc 1 1269 0
 653 00f4 013C     		subs	r4, r4, #1
 654              	.LVL62:
 655 00f6 8461     		str	r4, [r0, #24]
 656              	.LVL63:
 657 00f8 BDE8F883 		pop	{r3, r4, r5, r6, r7, r8, r9, pc}
 658              		.cfi_endproc
 659              	.LFE26:
 660              		.size	event_callback, .-event_callback
 661 00fc AFF30080 		.section	.text.lwip_getsockopt_internal,"ax",%progbits
 662              		.align	2
 663              		.p2align 4,,15
 664              		.thumb
 665              		.thumb_func
 666              		.type	lwip_getsockopt_internal, %function
 667              	lwip_getsockopt_internal:
 668              	.LFB32:
 669              		.loc 1 1659 0
 670              		.cfi_startproc
 671              		@ args = 0, pretend = 0, frame = 8
 672              		@ frame_needed = 0, uses_anonymous_args = 0
 673              	.LVL64:
 674 0000 10B5     		push	{r4, lr}
 675              		.cfi_def_cfa_offset 8
 676              		.cfi_offset 4, -8
 677              		.cfi_offset 14, -4
 678 0002 82B0     		sub	sp, sp, #8
 679              		.cfi_def_cfa_offset 16
ARM GAS  /tmp/ccZlncvZ.s 			page 13


 680              		.loc 1 1668 0
 681 0004 0028     		cmp	r0, #0
 682 0006 61D0     		beq	.L152
 683              	.LVL65:
 684              	.L113:
 685              		.loc 1 1679 0
 686 0008 4368     		ldr	r3, [r0, #4]
 687              		.loc 1 1671 0
 688 000a 0468     		ldr	r4, [r0]
 689              	.LVL66:
 690              		.loc 1 1676 0
 691 000c 8268     		ldr	r2, [r0, #8]
 692              	.LVL67:
 693              		.loc 1 1677 0
 694 000e C168     		ldr	r1, [r0, #12]
 695              	.LVL68:
 696              		.loc 1 1679 0
 697 0010 062B     		cmp	r3, #6
 698 0012 3BD0     		beq	.L115
 699 0014 40F6FF70 		movw	r0, #4095
 700              	.LVL69:
 701 0018 8342     		cmp	r3, r0
 702 001a 12D0     		beq	.L116
 703 001c 43B1     		cbz	r3, .L153
 704              	.LVL70:
 705              	.L148:
 706              		.loc 1 1859 0 discriminator 1
 707 001e FFF7FEFF 		bl	port_halt
 708              	.LVL71:
 709 0022 2068     		ldr	r0, [r4]
 710              	.L124:
 711              		.loc 1 1862 0
 712 0024 0C30     		adds	r0, r0, #12
 713              		.loc 1 1863 0
 714 0026 02B0     		add	sp, sp, #8
 715              		@ sp needed
 716 0028 BDE81040 		pop	{r4, lr}
 717              	.LVL72:
 718              		.loc 1 1862 0
 719 002c FFF7FEBF 		b	sys_sem_signal
 720              	.LVL73:
 721              	.L153:
 722              		.loc 1 1762 0
 723 0030 012A     		cmp	r2, #1
 724 0032 3CD0     		beq	.L133
 725 0034 022A     		cmp	r2, #2
 726 0036 F2D1     		bne	.L148
 727              		.loc 1 1764 0
 728 0038 2068     		ldr	r0, [r4]
 729 003a 4368     		ldr	r3, [r0, #4]
 730              	.LVL74:
 731 003c 9B7A     		ldrb	r3, [r3, #10]	@ zero_extendqisi2
 732 003e 0B60     		str	r3, [r1]
 733              		.loc 1 1767 0
 734 0040 F0E7     		b	.L124
 735              	.LVL75:
 736              	.L116:
ARM GAS  /tmp/ccZlncvZ.s 			page 14


 737              		.loc 1 1683 0
 738 0042 202A     		cmp	r2, #32
 739 0044 3CD0     		beq	.L119
 740 0046 37DD     		ble	.L154
 741 0048 41F20803 		movw	r3, #4104
 742              	.LVL76:
 743 004c 9A42     		cmp	r2, r3
 744 004e 49D0     		beq	.L121
 745 0050 0233     		adds	r3, r3, #2
 746 0052 9A42     		cmp	r2, r3
 747 0054 3FD0     		beq	.L122
 748 0056 41F20703 		movw	r3, #4103
 749 005a 9A42     		cmp	r2, r3
 750 005c DFD1     		bne	.L148
 751              		.loc 1 1725 0
 752 005e 2369     		ldr	r3, [r4, #16]
 753              		.loc 1 1726 0
 754 0060 2068     		ldr	r0, [r4]
 755              		.loc 1 1725 0
 756 0062 002B     		cmp	r3, #0
 757 0064 18BF     		it	ne
 758 0066 732B     		cmpne	r3, #115
 759 0068 0CD1     		bne	.L130
 760              		.loc 1 1726 0
 761 006a 90F90830 		ldrsb	r3, [r0, #8]
 762 006e 5B42     		negs	r3, r3
 763 0070 0F2B     		cmp	r3, #15
 764 0072 9BBF     		ittet	ls
 765 0074 40F20002 		movwls	r2, #:lower16:.LANCHOR3
 766              	.LVL77:
 767 0078 C0F20002 		movtls	r2, #:upper16:.LANCHOR3
 768 007c 0523     		movhi	r3, #5
 769 007e 52F82330 		ldrls	r3, [r2, r3, lsl #2]
 770 0082 2361     		str	r3, [r4, #16]
 771              	.L130:
 772              		.loc 1 1729 0
 773 0084 0022     		movs	r2, #0
 774              		.loc 1 1728 0
 775 0086 0B60     		str	r3, [r1]
 776              		.loc 1 1729 0
 777 0088 2261     		str	r2, [r4, #16]
 778              		.loc 1 1732 0
 779 008a CBE7     		b	.L124
 780              	.LVL78:
 781              	.L115:
 782              		.loc 1 1803 0
 783 008c 012A     		cmp	r2, #1
 784 008e 07D0     		beq	.L136
 785 0090 022A     		cmp	r2, #2
 786 0092 C4D1     		bne	.L148
 787              		.loc 1 1810 0
 788 0094 2068     		ldr	r0, [r4]
 789              	.LVL79:
 790 0096 4368     		ldr	r3, [r0, #4]
 791              	.LVL80:
 792 0098 D3F89030 		ldr	r3, [r3, #144]
 793 009c 0B60     		str	r3, [r1]
ARM GAS  /tmp/ccZlncvZ.s 			page 15


 794              		.loc 1 1813 0
 795 009e C1E7     		b	.L124
 796              	.LVL81:
 797              	.L136:
 798              		.loc 1 1805 0
 799 00a0 2068     		ldr	r0, [r4]
 800              	.LVL82:
 801 00a2 4368     		ldr	r3, [r0, #4]
 802              	.LVL83:
 803 00a4 9B7F     		ldrb	r3, [r3, #30]	@ zero_extendqisi2
 804 00a6 C3F38013 		ubfx	r3, r3, #6, #1
 805 00aa 0B60     		str	r3, [r1]
 806              		.loc 1 1808 0
 807 00ac BAE7     		b	.L124
 808              	.LVL84:
 809              	.L133:
 810              		.loc 1 1769 0
 811 00ae 2068     		ldr	r0, [r4]
 812 00b0 4368     		ldr	r3, [r0, #4]
 813              	.LVL85:
 814 00b2 5B7A     		ldrb	r3, [r3, #9]	@ zero_extendqisi2
 815 00b4 0B60     		str	r3, [r1]
 816              		.loc 1 1772 0
 817 00b6 B5E7     		b	.L124
 818              	.LVL86:
 819              	.L154:
 820              		.loc 1 1683 0
 821 00b8 022A     		cmp	r2, #2
 822 00ba 01D0     		beq	.L119
 823 00bc 082A     		cmp	r2, #8
 824 00be AED1     		bne	.L148
 825              	.L119:
 826              		.loc 1 1697 0
 827 00c0 2068     		ldr	r0, [r4]
 828 00c2 4368     		ldr	r3, [r0, #4]
 829              	.LVL87:
 830 00c4 1B7A     		ldrb	r3, [r3, #8]	@ zero_extendqisi2
 831 00c6 1A40     		ands	r2, r2, r3
 832              	.LVL88:
 833 00c8 0A60     		str	r2, [r1]
 834              		.loc 1 1700 0
 835 00ca ABE7     		b	.L124
 836              	.LVL89:
 837              	.L152:
 838              		.loc 1 1668 0 discriminator 1
 839 00cc 0190     		str	r0, [sp, #4]
 840 00ce FFF7FEFF 		bl	port_halt
 841              	.LVL90:
 842 00d2 0198     		ldr	r0, [sp, #4]
 843 00d4 98E7     		b	.L113
 844              	.LVL91:
 845              	.L122:
 846              		.loc 1 1751 0
 847 00d6 2068     		ldr	r0, [r4]
 848 00d8 4368     		ldr	r3, [r0, #4]
 849 00da 1B7C     		ldrb	r3, [r3, #16]	@ zero_extendqisi2
 850 00dc 03F00103 		and	r3, r3, #1
ARM GAS  /tmp/ccZlncvZ.s 			page 16


 851 00e0 0B60     		str	r3, [r1]
 852              		.loc 1 1752 0
 853 00e2 9FE7     		b	.L124
 854              	.L121:
 855              		.loc 1 1703 0
 856 00e4 2068     		ldr	r0, [r4]
 857 00e6 0278     		ldrb	r2, [r0]	@ zero_extendqisi2
 858              	.LVL92:
 859 00e8 02F0F003 		and	r3, r2, #240
 860 00ec 202B     		cmp	r3, #32
 861 00ee 08D0     		beq	.L126
 862 00f0 402B     		cmp	r3, #64
 863 00f2 09D0     		beq	.L127
 864 00f4 102B     		cmp	r3, #16
 865              		.loc 1 1714 0
 866 00f6 18BF     		it	ne
 867 00f8 0A60     		strne	r2, [r1]
 868              		.loc 1 1703 0
 869 00fa 93D1     		bne	.L124
 870              		.loc 1 1708 0
 871 00fc 0123     		movs	r3, #1
 872 00fe 0B60     		str	r3, [r1]
 873              		.loc 1 1709 0
 874 0100 90E7     		b	.L124
 875              	.L126:
 876              		.loc 1 1711 0
 877 0102 0223     		movs	r3, #2
 878 0104 0B60     		str	r3, [r1]
 879              		.loc 1 1712 0
 880 0106 8DE7     		b	.L124
 881              	.L127:
 882              		.loc 1 1705 0
 883 0108 0323     		movs	r3, #3
 884 010a 0B60     		str	r3, [r1]
 885              		.loc 1 1706 0
 886 010c 8AE7     		b	.L124
 887              		.cfi_endproc
 888              	.LFE32:
 889              		.size	lwip_getsockopt_internal, .-lwip_getsockopt_internal
 890 010e 00BF     		.section	.text.lwip_setsockopt_internal,"ax",%progbits
 891              		.align	2
 892              		.p2align 4,,15
 893              		.thumb
 894              		.thumb_func
 895              		.type	lwip_setsockopt_internal, %function
 896              	lwip_setsockopt_internal:
 897              	.LFB34:
 898              		.loc 1 2076 0
 899              		.cfi_startproc
 900              		@ args = 0, pretend = 0, frame = 8
 901              		@ frame_needed = 0, uses_anonymous_args = 0
 902              	.LVL93:
 903 0000 30B5     		push	{r4, r5, lr}
 904              		.cfi_def_cfa_offset 12
 905              		.cfi_offset 4, -12
 906              		.cfi_offset 5, -8
 907              		.cfi_offset 14, -4
ARM GAS  /tmp/ccZlncvZ.s 			page 17


 908 0002 83B0     		sub	sp, sp, #12
 909              		.cfi_def_cfa_offset 24
 910              		.loc 1 2085 0
 911 0004 0028     		cmp	r0, #0
 912 0006 54D0     		beq	.L184
 913              	.LVL94:
 914              	.L156:
 915              		.loc 1 2096 0
 916 0008 4368     		ldr	r3, [r0, #4]
 917              		.loc 1 2088 0
 918 000a 0468     		ldr	r4, [r0]
 919              	.LVL95:
 920              		.loc 1 2093 0
 921 000c 8268     		ldr	r2, [r0, #8]
 922              	.LVL96:
 923              		.loc 1 2094 0
 924 000e C568     		ldr	r5, [r0, #12]
 925              	.LVL97:
 926              		.loc 1 2096 0
 927 0010 062B     		cmp	r3, #6
 928 0012 29D0     		beq	.L158
 929 0014 40F6FF71 		movw	r1, #4095
 930 0018 8B42     		cmp	r3, r1
 931 001a 13D0     		beq	.L159
 932 001c 43B1     		cbz	r3, .L185
 933              	.LVL98:
 934              	.L180:
 935              		.loc 1 2277 0 discriminator 1
 936 001e FFF7FEFF 		bl	port_halt
 937              	.LVL99:
 938 0022 2068     		ldr	r0, [r4]
 939              	.L165:
 940              		.loc 1 2280 0
 941 0024 0C30     		adds	r0, r0, #12
 942              		.loc 1 2281 0
 943 0026 03B0     		add	sp, sp, #12
 944              		@ sp needed
 945 0028 BDE83040 		pop	{r4, r5, lr}
 946              	.LVL100:
 947              		.loc 1 2280 0
 948 002c FFF7FEBF 		b	sys_sem_signal
 949              	.LVL101:
 950              	.L185:
 951              		.loc 1 2153 0
 952 0030 012A     		cmp	r2, #1
 953 0032 38D0     		beq	.L168
 954 0034 022A     		cmp	r2, #2
 955 0036 F2D1     		bne	.L180
 956              		.loc 1 2155 0
 957 0038 2368     		ldr	r3, [r4]
 958              	.LVL102:
 959 003a 2A68     		ldr	r2, [r5]
 960              	.LVL103:
 961 003c 5B68     		ldr	r3, [r3, #4]
 962 003e 9A72     		strb	r2, [r3, #10]
 963              	.LVL104:
 964 0040 2068     		ldr	r0, [r4]
ARM GAS  /tmp/ccZlncvZ.s 			page 18


 965              	.LVL105:
 966              		.loc 1 2158 0
 967 0042 EFE7     		b	.L165
 968              	.LVL106:
 969              	.L159:
 970              		.loc 1 2100 0
 971 0044 202A     		cmp	r2, #32
 972 0046 05D0     		beq	.L162
 973 0048 41F20A03 		movw	r3, #4106
 974              	.LVL107:
 975 004c 9A42     		cmp	r2, r3
 976 004e 15D0     		beq	.L163
 977 0050 082A     		cmp	r2, #8
 978 0052 E4D1     		bne	.L180
 979              	.L162:
 980              		.loc 1 2113 0
 981 0054 2B68     		ldr	r3, [r5]
 982 0056 002B     		cmp	r3, #0
 983 0058 30D0     		beq	.L164
 984              		.loc 1 2114 0
 985 005a 2368     		ldr	r3, [r4]
 986 005c 5B68     		ldr	r3, [r3, #4]
 987 005e 197A     		ldrb	r1, [r3, #8]	@ zero_extendqisi2
 988 0060 0A43     		orrs	r2, r2, r1
 989              	.LVL108:
 990 0062 1A72     		strb	r2, [r3, #8]
 991              	.LVL109:
 992 0064 2068     		ldr	r0, [r4]
 993              	.LVL110:
 994 0066 DDE7     		b	.L165
 995              	.LVL111:
 996              	.L158:
 997              		.loc 1 2207 0
 998 0068 012A     		cmp	r2, #1
 999 006a 12D0     		beq	.L171
 1000 006c 022A     		cmp	r2, #2
 1001 006e D6D1     		bne	.L180
 1002              		.loc 1 2218 0
 1003 0070 2068     		ldr	r0, [r4]
 1004              	.LVL112:
 1005 0072 2A68     		ldr	r2, [r5]
 1006              	.LVL113:
 1007 0074 4368     		ldr	r3, [r0, #4]
 1008              	.LVL114:
 1009 0076 C3F89020 		str	r2, [r3, #144]
 1010              		.loc 1 2221 0
 1011 007a D3E7     		b	.L165
 1012              	.LVL115:
 1013              	.L163:
 1014              		.loc 1 2138 0
 1015 007c 2B68     		ldr	r3, [r5]
 1016 007e 002B     		cmp	r3, #0
 1017 0080 2CD0     		beq	.L166
 1018              		.loc 1 2139 0
 1019 0082 2368     		ldr	r3, [r4]
 1020 0084 5B68     		ldr	r3, [r3, #4]
 1021 0086 1A7C     		ldrb	r2, [r3, #16]	@ zero_extendqisi2
ARM GAS  /tmp/ccZlncvZ.s 			page 19


 1022              	.LVL116:
 1023 0088 42F00102 		orr	r2, r2, #1
 1024 008c 1A74     		strb	r2, [r3, #16]
 1025              	.LVL117:
 1026 008e 2068     		ldr	r0, [r4]
 1027              	.LVL118:
 1028 0090 C8E7     		b	.L165
 1029              	.LVL119:
 1030              	.L171:
 1031              		.loc 1 2209 0
 1032 0092 2B68     		ldr	r3, [r5]
 1033              	.LVL120:
 1034 0094 D3B1     		cbz	r3, .L173
 1035              		.loc 1 2210 0
 1036 0096 2368     		ldr	r3, [r4]
 1037 0098 5B68     		ldr	r3, [r3, #4]
 1038 009a 9A7F     		ldrb	r2, [r3, #30]	@ zero_extendqisi2
 1039              	.LVL121:
 1040 009c 42F04002 		orr	r2, r2, #64
 1041 00a0 9A77     		strb	r2, [r3, #30]
 1042              	.LVL122:
 1043 00a2 2068     		ldr	r0, [r4]
 1044              	.LVL123:
 1045 00a4 BEE7     		b	.L165
 1046              	.LVL124:
 1047              	.L168:
 1048              		.loc 1 2160 0
 1049 00a6 2368     		ldr	r3, [r4]
 1050              	.LVL125:
 1051 00a8 2A68     		ldr	r2, [r5]
 1052              	.LVL126:
 1053 00aa 5B68     		ldr	r3, [r3, #4]
 1054 00ac 5A72     		strb	r2, [r3, #9]
 1055              	.LVL127:
 1056 00ae 2068     		ldr	r0, [r4]
 1057              	.LVL128:
 1058              		.loc 1 2163 0
 1059 00b0 B8E7     		b	.L165
 1060              	.LVL129:
 1061              	.L184:
 1062              		.loc 1 2085 0 discriminator 1
 1063 00b2 0190     		str	r0, [sp, #4]
 1064 00b4 FFF7FEFF 		bl	port_halt
 1065              	.LVL130:
 1066 00b8 0198     		ldr	r0, [sp, #4]
 1067 00ba A5E7     		b	.L156
 1068              	.LVL131:
 1069              	.L164:
 1070              		.loc 1 2116 0
 1071 00bc 2368     		ldr	r3, [r4]
 1072 00be 5B68     		ldr	r3, [r3, #4]
 1073 00c0 197A     		ldrb	r1, [r3, #8]	@ zero_extendqisi2
 1074 00c2 21EA0202 		bic	r2, r1, r2
 1075              	.LVL132:
 1076 00c6 1A72     		strb	r2, [r3, #8]
 1077              	.LVL133:
 1078 00c8 2068     		ldr	r0, [r4]
ARM GAS  /tmp/ccZlncvZ.s 			page 20


 1079              	.LVL134:
 1080 00ca ABE7     		b	.L165
 1081              	.LVL135:
 1082              	.L173:
 1083              		.loc 1 2212 0
 1084 00cc 2368     		ldr	r3, [r4]
 1085 00ce 5B68     		ldr	r3, [r3, #4]
 1086 00d0 9A7F     		ldrb	r2, [r3, #30]	@ zero_extendqisi2
 1087              	.LVL136:
 1088 00d2 22F04002 		bic	r2, r2, #64
 1089 00d6 9A77     		strb	r2, [r3, #30]
 1090              	.LVL137:
 1091 00d8 2068     		ldr	r0, [r4]
 1092              	.LVL138:
 1093 00da A3E7     		b	.L165
 1094              	.LVL139:
 1095              	.L166:
 1096              		.loc 1 2141 0
 1097 00dc 2368     		ldr	r3, [r4]
 1098 00de 5B68     		ldr	r3, [r3, #4]
 1099 00e0 1A7C     		ldrb	r2, [r3, #16]	@ zero_extendqisi2
 1100              	.LVL140:
 1101 00e2 22F00102 		bic	r2, r2, #1
 1102 00e6 1A74     		strb	r2, [r3, #16]
 1103              	.LVL141:
 1104 00e8 2068     		ldr	r0, [r4]
 1105              	.LVL142:
 1106 00ea 9BE7     		b	.L165
 1107              		.cfi_endproc
 1108              	.LFE34:
 1109              		.size	lwip_setsockopt_internal, .-lwip_setsockopt_internal
 1110 00ec AFF30080 		.section	.text.lwip_socket_init,"ax",%progbits
 1111              		.align	2
 1112              		.p2align 4,,15
 1113              		.global	lwip_socket_init
 1114              		.thumb
 1115              		.thumb_func
 1116              		.type	lwip_socket_init, %function
 1117              	lwip_socket_init:
 1118              	.LFB7:
 1119              		.loc 1 185 0
 1120              		.cfi_startproc
 1121              		@ args = 0, pretend = 0, frame = 0
 1122              		@ frame_needed = 0, uses_anonymous_args = 0
 1123              		@ link register save eliminated.
 1124 0000 7047     		bx	lr
 1125              		.cfi_endproc
 1126              	.LFE7:
 1127              		.size	lwip_socket_init, .-lwip_socket_init
 1128 0002 00BFAFF3 		.section	.text.lwip_accept,"ax",%progbits
 1128      0080AFF3 
 1128      0080AFF3 
 1128      0080
 1129              		.align	2
 1130              		.p2align 4,,15
 1131              		.global	lwip_accept
 1132              		.thumb
ARM GAS  /tmp/ccZlncvZ.s 			page 21


 1133              		.thumb_func
 1134              		.type	lwip_accept, %function
 1135              	lwip_accept:
 1136              	.LFB12:
 1137              		.loc 1 313 0
 1138              		.cfi_startproc
 1139              		@ args = 0, pretend = 0, frame = 32
 1140              		@ frame_needed = 0, uses_anonymous_args = 0
 1141              	.LVL143:
 1142              		.loc 1 313 0
 1143 0000 2DE9F043 		push	{r4, r5, r6, r7, r8, r9, lr}
 1144              		.cfi_def_cfa_offset 28
 1145              		.cfi_offset 4, -28
 1146              		.cfi_offset 5, -24
 1147              		.cfi_offset 6, -20
 1148              		.cfi_offset 7, -16
 1149              		.cfi_offset 8, -12
 1150              		.cfi_offset 9, -8
 1151              		.cfi_offset 14, -4
 1152              	.LBB61:
 1153              	.LBB62:
 1154              		.loc 1 199 0
 1155 0004 0328     		cmp	r0, #3
 1156              	.LBE62:
 1157              	.LBE61:
 1158              		.loc 1 313 0
 1159 0006 89B0     		sub	sp, sp, #36
 1160              		.cfi_def_cfa_offset 64
 1161              		.loc 1 313 0
 1162 0008 8846     		mov	r8, r1
 1163 000a 1546     		mov	r5, r2
 1164              	.LBB64:
 1165              	.LBB63:
 1166              		.loc 1 199 0
 1167 000c 24D8     		bhi	.L205
 1168              		.loc 1 205 0
 1169 000e 00EB4000 		add	r0, r0, r0, lsl #1
 1170              	.LVL144:
 1171 0012 40F20004 		movw	r4, #:lower16:.LANCHOR0
 1172 0016 C0F20004 		movt	r4, #:upper16:.LANCHOR0
 1173 001a C700     		lsls	r7, r0, #3
 1174 001c A146     		mov	r9, r4
 1175              		.loc 1 207 0
 1176 001e E059     		ldr	r0, [r4, r7]
 1177              		.loc 1 205 0
 1178 0020 E619     		adds	r6, r4, r7
 1179              	.LVL145:
 1180              		.loc 1 207 0
 1181 0022 C8B1     		cbz	r0, .L205
 1182              	.LBE63:
 1183              	.LBE64:
 1184              		.loc 1 329 0
 1185 0024 037F     		ldrb	r3, [r0, #28]	@ zero_extendqisi2
 1186 0026 9B07     		lsls	r3, r3, #30
 1187 0028 08D5     		bpl	.L190
 1188              		.loc 1 329 0 is_stmt 0 discriminator 1
 1189 002a B6F90A30 		ldrsh	r3, [r6, #10]
ARM GAS  /tmp/ccZlncvZ.s 			page 22


 1190 002e 002B     		cmp	r3, #0
 1191              		.loc 1 331 0 is_stmt 1 discriminator 1
 1192 0030 DEBF     		ittt	le
 1193 0032 0B23     		movle	r3, #11
 1194 0034 3361     		strle	r3, [r6, #16]
 1195              		.loc 1 332 0 discriminator 1
 1196 0036 4FF0FF30 		movle	r0, #-1
 1197              		.loc 1 329 0 discriminator 1
 1198 003a 0FDD     		ble	.L215
 1199              	.L190:
 1200              		.loc 1 336 0
 1201 003c 02A9     		add	r1, sp, #8
 1202              	.LVL146:
 1203 003e FFF7FEFF 		bl	netconn_accept
 1204              	.LVL147:
 1205              		.loc 1 337 0
 1206 0042 70B1     		cbz	r0, .L191
 1207              		.loc 1 339 0
 1208 0044 59F80730 		ldr	r3, [r9, r7]
 1209 0048 1B78     		ldrb	r3, [r3]	@ zero_extendqisi2
 1210 004a 102B     		cmp	r3, #16
 1211 004c 7CD0     		beq	.L192
 1212              		.loc 1 340 0
 1213 004e 5F20     		movs	r0, #95
 1214              	.LVL148:
 1215 0050 3061     		str	r0, [r6, #16]
 1216              		.loc 1 402 0
 1217 0052 09B0     		add	sp, sp, #36
 1218              		@ sp needed
 1219 0054 BDE8F083 		pop	{r4, r5, r6, r7, r8, r9, pc}
 1220              	.LVL149:
 1221              	.L205:
 1222              		.loc 1 326 0
 1223 0058 4FF0FF30 		mov	r0, #-1
 1224              	.LVL150:
 1225              	.L215:
 1226              		.loc 1 402 0
 1227 005c 09B0     		add	sp, sp, #36
 1228              		@ sp needed
 1229 005e BDE8F083 		pop	{r4, r5, r6, r7, r8, r9, pc}
 1230              	.LVL151:
 1231              	.L191:
 1232              		.loc 1 346 0
 1233 0062 0298     		ldr	r0, [sp, #8]
 1234              	.LVL152:
 1235 0064 0028     		cmp	r0, #0
 1236 0066 56D0     		beq	.L216
 1237              	.L194:
 1238              		.loc 1 348 0 discriminator 1
 1239 0068 037F     		ldrb	r3, [r0, #28]	@ zero_extendqisi2
 1240 006a 43F00803 		orr	r3, r3, #8
 1241 006e 0377     		strb	r3, [r0, #28]
 1242              		.loc 1 351 0 discriminator 1
 1243 0070 03A9     		add	r1, sp, #12
 1244 0072 0DF10602 		add	r2, sp, #6
 1245 0076 0023     		movs	r3, #0
 1246 0078 FFF7FEFF 		bl	netconn_getaddr
ARM GAS  /tmp/ccZlncvZ.s 			page 23


 1247              	.LVL153:
 1248              		.loc 1 352 0 discriminator 1
 1249 007c 0746     		mov	r7, r0
 1250 007e 0028     		cmp	r0, #0
 1251 0080 50D1     		bne	.L217
 1252              		.loc 1 362 0
 1253 0082 B8F1000F 		cmp	r8, #0
 1254 0086 1DD0     		beq	.L197
 1255              		.loc 1 363 0
 1256 0088 002D     		cmp	r5, #0
 1257 008a 48D0     		beq	.L218
 1258              	.LVL154:
 1259              	.L198:
 1260              		.loc 1 364 0
 1261 008c 0023     		movs	r3, #0
 1262              		.loc 1 365 0
 1263 008e 1027     		movs	r7, #16
 1264              		.loc 1 366 0
 1265 0090 0222     		movs	r2, #2
 1266              		.loc 1 367 0
 1267 0092 BDF80600 		ldrh	r0, [sp, #6]
 1268              		.loc 1 364 0
 1269 0096 0493     		str	r3, [sp, #16]
 1270 0098 0593     		str	r3, [sp, #20]
 1271 009a 0693     		str	r3, [sp, #24]
 1272 009c 0793     		str	r3, [sp, #28]
 1273              		.loc 1 366 0
 1274 009e 8DF81120 		strb	r2, [sp, #17]
 1275              		.loc 1 365 0
 1276 00a2 8DF81070 		strb	r7, [sp, #16]
 1277              		.loc 1 367 0
 1278 00a6 FFF7FEFF 		bl	lwip_htons
 1279              	.LVL155:
 1280              		.loc 1 370 0
 1281 00aa 2A68     		ldr	r2, [r5]
 1282              		.loc 1 368 0
 1283 00ac 039B     		ldr	r3, [sp, #12]
 1284              		.loc 1 367 0
 1285 00ae ADF81200 		strh	r0, [sp, #18]	@ movhi
 1286              		.loc 1 370 0
 1287 00b2 BA42     		cmp	r2, r7
 1288              		.loc 1 371 0
 1289 00b4 84BF     		itt	hi
 1290 00b6 2F60     		strhi	r7, [r5]
 1291 00b8 3A46     		movhi	r2, r7
 1292              		.loc 1 373 0
 1293 00ba 4046     		mov	r0, r8
 1294 00bc 04A9     		add	r1, sp, #16
 1295              		.loc 1 368 0
 1296 00be 0593     		str	r3, [sp, #20]
 1297              		.loc 1 373 0
 1298 00c0 FFF7FEFF 		bl	memcpy
 1299              	.LVL156:
 1300              	.L197:
 1301              		.loc 1 376 0
 1302 00c4 0298     		ldr	r0, [sp, #8]
 1303 00c6 0121     		movs	r1, #1
ARM GAS  /tmp/ccZlncvZ.s 			page 24


 1304 00c8 FFF7FEFF 		bl	alloc_socket
 1305              	.LVL157:
 1306              		.loc 1 377 0
 1307 00cc 421C     		adds	r2, r0, #1
 1308              		.loc 1 376 0
 1309 00ce 0546     		mov	r5, r0
 1310              	.LVL158:
 1311              		.loc 1 377 0
 1312 00d0 44D0     		beq	.L219
 1313              		.loc 1 382 0
 1314 00d2 0328     		cmp	r0, #3
 1315 00d4 1CD8     		bhi	.L220
 1316              	.LVL159:
 1317              	.L201:
 1318              		.loc 1 383 0
 1319 00d6 029A     		ldr	r2, [sp, #8]
 1320 00d8 40F20003 		movw	r3, #:lower16:event_callback
 1321 00dc 916A     		ldr	r1, [r2, #40]
 1322 00de C0F20003 		movt	r3, #:upper16:event_callback
 1323 00e2 9942     		cmp	r1, r3
 1324 00e4 08BF     		it	eq
 1325 00e6 1346     		moveq	r3, r2
 1326 00e8 02D0     		beq	.L202
 1327              		.loc 1 383 0 is_stmt 0 discriminator 1
 1328 00ea FFF7FEFF 		bl	port_halt
 1329              	.LVL160:
 1330 00ee 029B     		ldr	r3, [sp, #8]
 1331              	.L202:
 1332              		.loc 1 384 0 is_stmt 1
 1333 00f0 05EB4502 		add	r2, r5, r5, lsl #1
 1334 00f4 04EBC204 		add	r4, r4, r2, lsl #3
 1335              	.LVL161:
 1336              		.loc 1 392 0
 1337 00f8 9A69     		ldr	r2, [r3, #24]
 1338 00fa 6189     		ldrh	r1, [r4, #10]
 1339 00fc 0139     		subs	r1, r1, #1
 1340 00fe 8A1A     		subs	r2, r1, r2
 1341              		.loc 1 401 0
 1342 0100 2846     		mov	r0, r5
 1343              		.loc 1 400 0
 1344 0102 0021     		movs	r1, #0
 1345              		.loc 1 392 0
 1346 0104 6281     		strh	r2, [r4, #10]	@ movhi
 1347              		.loc 1 393 0
 1348 0106 9D61     		str	r5, [r3, #24]
 1349              		.loc 1 400 0
 1350 0108 3161     		str	r1, [r6, #16]
 1351              		.loc 1 402 0
 1352 010a 09B0     		add	sp, sp, #36
 1353              		@ sp needed
 1354 010c BDE8F083 		pop	{r4, r5, r6, r7, r8, r9, pc}
 1355              	.LVL162:
 1356              	.L220:
 1357              		.loc 1 382 0 discriminator 1
 1358 0110 FFF7FEFF 		bl	port_halt
 1359              	.LVL163:
 1360 0114 DFE7     		b	.L201
ARM GAS  /tmp/ccZlncvZ.s 			page 25


 1361              	.LVL164:
 1362              	.L216:
 1363              		.loc 1 346 0 discriminator 1
 1364 0116 FFF7FEFF 		bl	port_halt
 1365              	.LVL165:
 1366 011a 0298     		ldr	r0, [sp, #8]
 1367 011c A4E7     		b	.L194
 1368              	.LVL166:
 1369              	.L218:
 1370              		.loc 1 363 0 discriminator 1
 1371 011e FFF7FEFF 		bl	port_halt
 1372              	.LVL167:
 1373 0122 B3E7     		b	.L198
 1374              	.LVL168:
 1375              	.L217:
 1376              		.loc 1 354 0
 1377 0124 0298     		ldr	r0, [sp, #8]
 1378              	.LVL169:
 1379              		.loc 1 355 0
 1380 0126 7F42     		negs	r7, r7
 1381              		.loc 1 354 0
 1382 0128 FFF7FEFF 		bl	netconn_delete
 1383              	.LVL170:
 1384              		.loc 1 355 0
 1385 012c 0F2F     		cmp	r7, #15
 1386 012e 09D8     		bhi	.L208
 1387              		.loc 1 355 0 is_stmt 0 discriminator 1
 1388 0130 40F20003 		movw	r3, #:lower16:.LANCHOR3
 1389 0134 C0F20003 		movt	r3, #:upper16:.LANCHOR3
 1390 0138 53F82730 		ldr	r3, [r3, r7, lsl #2]
 1391              	.L196:
 1392              		.loc 1 355 0 discriminator 3
 1393 013c 3361     		str	r3, [r6, #16]
 1394              		.loc 1 356 0 is_stmt 1 discriminator 3
 1395 013e 4FF0FF30 		mov	r0, #-1
 1396 0142 8BE7     		b	.L215
 1397              	.L208:
 1398              		.loc 1 355 0
 1399 0144 0523     		movs	r3, #5
 1400 0146 F9E7     		b	.L196
 1401              	.LVL171:
 1402              	.L192:
 1403              		.loc 1 343 0
 1404 0148 4042     		negs	r0, r0
 1405              	.LVL172:
 1406 014a 0F28     		cmp	r0, #15
 1407 014c FAD8     		bhi	.L208
 1408              		.loc 1 343 0 is_stmt 0 discriminator 1
 1409 014e 40F20003 		movw	r3, #:lower16:.LANCHOR3
 1410 0152 C0F20003 		movt	r3, #:upper16:.LANCHOR3
 1411 0156 53F82030 		ldr	r3, [r3, r0, lsl #2]
 1412 015a EFE7     		b	.L196
 1413              	.LVL173:
 1414              	.L219:
 1415              		.loc 1 378 0 is_stmt 1
 1416 015c 0298     		ldr	r0, [sp, #8]
 1417              	.LVL174:
ARM GAS  /tmp/ccZlncvZ.s 			page 26


 1418 015e FFF7FEFF 		bl	netconn_delete
 1419              	.LVL175:
 1420              		.loc 1 379 0
 1421 0162 1723     		movs	r3, #23
 1422              		.loc 1 380 0
 1423 0164 2846     		mov	r0, r5
 1424              		.loc 1 379 0
 1425 0166 3361     		str	r3, [r6, #16]
 1426              		.loc 1 380 0
 1427 0168 78E7     		b	.L215
 1428              		.cfi_endproc
 1429              	.LFE12:
 1430              		.size	lwip_accept, .-lwip_accept
 1431 016a 00BFAFF3 		.section	.text.lwip_bind,"ax",%progbits
 1431      0080
 1432              		.align	2
 1433              		.p2align 4,,15
 1434              		.global	lwip_bind
 1435              		.thumb
 1436              		.thumb_func
 1437              		.type	lwip_bind, %function
 1438              	lwip_bind:
 1439              	.LFB13:
 1440              		.loc 1 406 0
 1441              		.cfi_startproc
 1442              		@ args = 0, pretend = 0, frame = 8
 1443              		@ frame_needed = 0, uses_anonymous_args = 0
 1444              	.LVL176:
 1445 0000 70B5     		push	{r4, r5, r6, lr}
 1446              		.cfi_def_cfa_offset 16
 1447              		.cfi_offset 4, -16
 1448              		.cfi_offset 5, -12
 1449              		.cfi_offset 6, -8
 1450              		.cfi_offset 14, -4
 1451              	.LBB65:
 1452              	.LBB66:
 1453              		.loc 1 199 0
 1454 0002 0328     		cmp	r0, #3
 1455              	.LBE66:
 1456              	.LBE65:
 1457              		.loc 1 406 0
 1458 0004 82B0     		sub	sp, sp, #8
 1459              		.cfi_def_cfa_offset 24
 1460              	.LBB68:
 1461              	.LBB67:
 1462              		.loc 1 199 0
 1463 0006 20D8     		bhi	.L230
 1464              		.loc 1 205 0
 1465 0008 00EB4000 		add	r0, r0, r0, lsl #1
 1466              	.LVL177:
 1467 000c 40F20003 		movw	r3, #:lower16:.LANCHOR0
 1468 0010 C000     		lsls	r0, r0, #3
 1469 0012 C0F20003 		movt	r3, #:upper16:.LANCHOR0
 1470 0016 1E18     		adds	r6, r3, r0
 1471              	.LVL178:
 1472              		.loc 1 207 0
 1473 0018 1D58     		ldr	r5, [r3, r0]
ARM GAS  /tmp/ccZlncvZ.s 			page 27


 1474 001a B5B1     		cbz	r5, .L230
 1475              	.LBE67:
 1476              	.LBE68:
 1477              		.loc 1 419 0
 1478 001c 102A     		cmp	r2, #16
 1479 001e 18D1     		bne	.L224
 1480              		.loc 1 419 0 is_stmt 0 discriminator 2
 1481 0020 4B78     		ldrb	r3, [r1, #1]	@ zero_extendqisi2
 1482 0022 022B     		cmp	r3, #2
 1483 0024 15D1     		bne	.L224
 1484              		.loc 1 419 0 discriminator 1
 1485 0026 8807     		lsls	r0, r1, #30
 1486 0028 13D1     		bne	.L224
 1487              	.LVL179:
 1488              		.loc 1 424 0 is_stmt 1
 1489 002a 4B68     		ldr	r3, [r1, #4]
 1490              		.loc 1 431 0
 1491 002c 4888     		ldrh	r0, [r1, #2]
 1492              		.loc 1 424 0
 1493 002e 02AC     		add	r4, sp, #8
 1494 0030 44F8043D 		str	r3, [r4, #-4]!
 1495              	.LVL180:
 1496              		.loc 1 431 0
 1497 0034 FFF7FEFF 		bl	lwip_ntohs
 1498              	.LVL181:
 1499 0038 2146     		mov	r1, r4
 1500 003a 0246     		mov	r2, r0
 1501 003c 2846     		mov	r0, r5
 1502 003e FFF7FEFF 		bl	netconn_bind
 1503              	.LVL182:
 1504              		.loc 1 433 0
 1505 0042 70B9     		cbnz	r0, .L235
 1506              		.loc 1 440 0
 1507 0044 3061     		str	r0, [r6, #16]
 1508              		.loc 1 442 0
 1509 0046 02B0     		add	sp, sp, #8
 1510              		@ sp needed
 1511 0048 70BD     		pop	{r4, r5, r6, pc}
 1512              	.LVL183:
 1513              	.L230:
 1514              		.loc 1 415 0
 1515 004a 4FF0FF30 		mov	r0, #-1
 1516              	.LVL184:
 1517              	.L233:
 1518              		.loc 1 442 0
 1519 004e 02B0     		add	sp, sp, #8
 1520              		@ sp needed
 1521 0050 70BD     		pop	{r4, r5, r6, pc}
 1522              	.LVL185:
 1523              	.L224:
 1524              		.loc 1 419 0 discriminator 1
 1525 0052 FFF7FEFF 		bl	port_halt
 1526              	.LVL186:
 1527 0056 0523     		movs	r3, #5
 1528 0058 4FF0FF30 		mov	r0, #-1
 1529 005c 3361     		str	r3, [r6, #16]
 1530              		.loc 1 442 0 discriminator 1
ARM GAS  /tmp/ccZlncvZ.s 			page 28


 1531 005e 02B0     		add	sp, sp, #8
 1532              		@ sp needed
 1533 0060 70BD     		pop	{r4, r5, r6, pc}
 1534              	.LVL187:
 1535              	.L235:
 1536              		.loc 1 435 0
 1537 0062 4042     		negs	r0, r0
 1538              	.LVL188:
 1539 0064 0F28     		cmp	r0, #15
 1540 0066 9BBF     		ittet	ls
 1541 0068 40F20003 		movwls	r3, #:lower16:.LANCHOR3
 1542 006c C0F20003 		movtls	r3, #:upper16:.LANCHOR3
 1543 0070 0523     		movhi	r3, #5
 1544 0072 53F82030 		ldrls	r3, [r3, r0, lsl #2]
 1545              		.loc 1 436 0
 1546 0076 4FF0FF30 		mov	r0, #-1
 1547              		.loc 1 435 0
 1548 007a 3361     		str	r3, [r6, #16]
 1549              		.loc 1 436 0
 1550 007c E7E7     		b	.L233
 1551              		.cfi_endproc
 1552              	.LFE13:
 1553              		.size	lwip_bind, .-lwip_bind
 1554 007e 00BF     		.section	.text.lwip_close,"ax",%progbits
 1555              		.align	2
 1556              		.p2align 4,,15
 1557              		.global	lwip_close
 1558              		.thumb
 1559              		.thumb_func
 1560              		.type	lwip_close, %function
 1561              	lwip_close:
 1562              	.LFB14:
 1563              		.loc 1 446 0
 1564              		.cfi_startproc
 1565              		@ args = 0, pretend = 0, frame = 0
 1566              		@ frame_needed = 0, uses_anonymous_args = 0
 1567              	.LVL189:
 1568              	.LBB73:
 1569              	.LBB74:
 1570              		.loc 1 199 0
 1571 0000 0328     		cmp	r0, #3
 1572              	.LBE74:
 1573              	.LBE73:
 1574              		.loc 1 446 0
 1575 0002 2DE9F041 		push	{r4, r5, r6, r7, r8, lr}
 1576              		.cfi_def_cfa_offset 24
 1577              		.cfi_offset 4, -24
 1578              		.cfi_offset 5, -20
 1579              		.cfi_offset 6, -16
 1580              		.cfi_offset 7, -12
 1581              		.cfi_offset 8, -8
 1582              		.cfi_offset 14, -4
 1583              	.LBB76:
 1584              	.LBB75:
 1585              		.loc 1 199 0
 1586 0006 1DD8     		bhi	.L242
 1587              		.loc 1 205 0
ARM GAS  /tmp/ccZlncvZ.s 			page 29


 1588 0008 00EB4000 		add	r0, r0, r0, lsl #1
 1589              	.LVL190:
 1590 000c 40F20005 		movw	r5, #:lower16:.LANCHOR0
 1591 0010 C700     		lsls	r7, r0, #3
 1592 0012 C0F20005 		movt	r5, #:upper16:.LANCHOR0
 1593 0016 EE19     		adds	r6, r5, r7
 1594              	.LVL191:
 1595              		.loc 1 207 0
 1596 0018 EB59     		ldr	r3, [r5, r7]
 1597 001a 9BB1     		cbz	r3, .L242
 1598              	.LBE75:
 1599              	.LBE76:
 1600              		.loc 1 463 0
 1601 001c 1846     		mov	r0, r3
 1602              		.loc 1 458 0
 1603 001e 93F80080 		ldrb	r8, [r3]	@ zero_extendqisi2
 1604              	.LVL192:
 1605              		.loc 1 463 0
 1606 0022 FFF7FEFF 		bl	netconn_delete
 1607              	.LVL193:
 1608              	.LBB77:
 1609              	.LBB78:
 1610              		.loc 1 285 0
 1611 0026 7068     		ldr	r0, [r6, #4]
 1612              	.LVL194:
 1613              		.loc 1 286 0
 1614 0028 0024     		movs	r4, #0
 1615 002a 7460     		str	r4, [r6, #4]
 1616              		.loc 1 287 0
 1617 002c 3481     		strh	r4, [r6, #8]	@ movhi
 1618              		.loc 1 288 0
 1619 002e 3461     		str	r4, [r6, #16]
 1620              		.loc 1 292 0
 1621 0030 EC51     		str	r4, [r5, r7]
 1622              		.loc 1 296 0
 1623 0032 58B1     		cbz	r0, .L245
 1624              		.loc 1 297 0
 1625 0034 B8F1100F 		cmp	r8, #16
 1626 0038 0AD0     		beq	.L246
 1627              		.loc 1 300 0
 1628 003a FFF7FEFF 		bl	netbuf_delete
 1629              	.LVL195:
 1630              	.LBE78:
 1631              	.LBE77:
 1632              		.loc 1 467 0
 1633 003e 2046     		mov	r0, r4
 1634 0040 BDE8F081 		pop	{r4, r5, r6, r7, r8, pc}
 1635              	.LVL196:
 1636              	.L242:
 1637              		.loc 1 454 0
 1638 0044 4FF0FF30 		mov	r0, #-1
 1639 0048 BDE8F081 		pop	{r4, r5, r6, r7, r8, pc}
 1640              	.LVL197:
 1641              	.L245:
 1642              		.loc 1 468 0
 1643 004c BDE8F081 		pop	{r4, r5, r6, r7, r8, pc}
 1644              	.LVL198:
ARM GAS  /tmp/ccZlncvZ.s 			page 30


 1645              	.L246:
 1646              	.LBB80:
 1647              	.LBB79:
 1648              		.loc 1 298 0
 1649 0050 FFF7FEFF 		bl	pbuf_free
 1650              	.LVL199:
 1651              	.LBE79:
 1652              	.LBE80:
 1653              		.loc 1 467 0
 1654 0054 2046     		mov	r0, r4
 1655 0056 BDE8F081 		pop	{r4, r5, r6, r7, r8, pc}
 1656              		.cfi_endproc
 1657              	.LFE14:
 1658              		.size	lwip_close, .-lwip_close
 1659 005a 00BFAFF3 		.section	.text.lwip_connect,"ax",%progbits
 1659      0080
 1660              		.align	2
 1661              		.p2align 4,,15
 1662              		.global	lwip_connect
 1663              		.thumb
 1664              		.thumb_func
 1665              		.type	lwip_connect, %function
 1666              	lwip_connect:
 1667              	.LFB15:
 1668              		.loc 1 472 0
 1669              		.cfi_startproc
 1670              		@ args = 0, pretend = 0, frame = 8
 1671              		@ frame_needed = 0, uses_anonymous_args = 0
 1672              	.LVL200:
 1673 0000 70B5     		push	{r4, r5, r6, lr}
 1674              		.cfi_def_cfa_offset 16
 1675              		.cfi_offset 4, -16
 1676              		.cfi_offset 5, -12
 1677              		.cfi_offset 6, -8
 1678              		.cfi_offset 14, -4
 1679              	.LBB81:
 1680              	.LBB82:
 1681              		.loc 1 199 0
 1682 0002 0328     		cmp	r0, #3
 1683              	.LBE82:
 1684              	.LBE81:
 1685              		.loc 1 472 0
 1686 0004 82B0     		sub	sp, sp, #8
 1687              		.cfi_def_cfa_offset 24
 1688              	.LBB84:
 1689              	.LBB83:
 1690              		.loc 1 199 0
 1691 0006 20D8     		bhi	.L256
 1692              		.loc 1 205 0
 1693 0008 00EB4000 		add	r0, r0, r0, lsl #1
 1694              	.LVL201:
 1695 000c 40F20003 		movw	r3, #:lower16:.LANCHOR0
 1696 0010 C000     		lsls	r0, r0, #3
 1697 0012 C0F20003 		movt	r3, #:upper16:.LANCHOR0
 1698 0016 1D18     		adds	r5, r3, r0
 1699              	.LVL202:
 1700              		.loc 1 207 0
ARM GAS  /tmp/ccZlncvZ.s 			page 31


 1701 0018 1E58     		ldr	r6, [r3, r0]
 1702 001a B6B1     		cbz	r6, .L256
 1703              	.LBE83:
 1704              	.LBE84:
 1705              		.loc 1 483 0
 1706 001c 102A     		cmp	r2, #16
 1707 001e 18D1     		bne	.L250
 1708              		.loc 1 483 0 is_stmt 0 discriminator 2
 1709 0020 4B78     		ldrb	r3, [r1, #1]	@ zero_extendqisi2
 1710 0022 022B     		cmp	r3, #2
 1711 0024 15D1     		bne	.L250
 1712              		.loc 1 483 0 discriminator 1
 1713 0026 8C07     		lsls	r4, r1, #30
 1714 0028 13D1     		bne	.L250
 1715              	.LVL203:
 1716              	.LBB85:
 1717              		.loc 1 495 0 is_stmt 1
 1718 002a 4B68     		ldr	r3, [r1, #4]
 1719              		.loc 1 502 0
 1720 002c 4888     		ldrh	r0, [r1, #2]
 1721              		.loc 1 495 0
 1722 002e 02AC     		add	r4, sp, #8
 1723 0030 44F8043D 		str	r3, [r4, #-4]!
 1724              	.LVL204:
 1725              		.loc 1 502 0
 1726 0034 FFF7FEFF 		bl	lwip_ntohs
 1727              	.LVL205:
 1728 0038 2146     		mov	r1, r4
 1729 003a 0246     		mov	r2, r0
 1730 003c 3046     		mov	r0, r6
 1731 003e FFF7FEFF 		bl	netconn_connect
 1732              	.LVL206:
 1733              	.LBE85:
 1734              		.loc 1 505 0
 1735 0042 70B9     		cbnz	r0, .L261
 1736              		.loc 1 512 0
 1737 0044 2861     		str	r0, [r5, #16]
 1738              		.loc 1 514 0
 1739 0046 02B0     		add	sp, sp, #8
 1740              		@ sp needed
 1741 0048 70BD     		pop	{r4, r5, r6, pc}
 1742              	.LVL207:
 1743              	.L256:
 1744              		.loc 1 479 0
 1745 004a 4FF0FF30 		mov	r0, #-1
 1746              	.LVL208:
 1747              	.L259:
 1748              		.loc 1 514 0
 1749 004e 02B0     		add	sp, sp, #8
 1750              		@ sp needed
 1751 0050 70BD     		pop	{r4, r5, r6, pc}
 1752              	.LVL209:
 1753              	.L250:
 1754              		.loc 1 483 0 discriminator 1
 1755 0052 FFF7FEFF 		bl	port_halt
 1756              	.LVL210:
 1757 0056 0523     		movs	r3, #5
ARM GAS  /tmp/ccZlncvZ.s 			page 32


 1758 0058 4FF0FF30 		mov	r0, #-1
 1759 005c 2B61     		str	r3, [r5, #16]
 1760              		.loc 1 514 0 discriminator 1
 1761 005e 02B0     		add	sp, sp, #8
 1762              		@ sp needed
 1763 0060 70BD     		pop	{r4, r5, r6, pc}
 1764              	.LVL211:
 1765              	.L261:
 1766              		.loc 1 507 0
 1767 0062 4042     		negs	r0, r0
 1768              	.LVL212:
 1769 0064 0F28     		cmp	r0, #15
 1770 0066 9BBF     		ittet	ls
 1771 0068 40F20003 		movwls	r3, #:lower16:.LANCHOR3
 1772 006c C0F20003 		movtls	r3, #:upper16:.LANCHOR3
 1773 0070 0523     		movhi	r3, #5
 1774 0072 53F82030 		ldrls	r3, [r3, r0, lsl #2]
 1775              		.loc 1 508 0
 1776 0076 4FF0FF30 		mov	r0, #-1
 1777              		.loc 1 507 0
 1778 007a 2B61     		str	r3, [r5, #16]
 1779              		.loc 1 508 0
 1780 007c E7E7     		b	.L259
 1781              		.cfi_endproc
 1782              	.LFE15:
 1783              		.size	lwip_connect, .-lwip_connect
 1784 007e 00BF     		.section	.text.lwip_listen,"ax",%progbits
 1785              		.align	2
 1786              		.p2align 4,,15
 1787              		.global	lwip_listen
 1788              		.thumb
 1789              		.thumb_func
 1790              		.type	lwip_listen, %function
 1791              	lwip_listen:
 1792              	.LFB16:
 1793              		.loc 1 526 0
 1794              		.cfi_startproc
 1795              		@ args = 0, pretend = 0, frame = 0
 1796              		@ frame_needed = 0, uses_anonymous_args = 0
 1797              	.LVL213:
 1798              	.LBB86:
 1799              	.LBB87:
 1800              		.loc 1 199 0
 1801 0000 0328     		cmp	r0, #3
 1802              	.LBE87:
 1803              	.LBE86:
 1804              		.loc 1 526 0
 1805 0002 70B5     		push	{r4, r5, r6, lr}
 1806              		.cfi_def_cfa_offset 16
 1807              		.cfi_offset 4, -16
 1808              		.cfi_offset 5, -12
 1809              		.cfi_offset 6, -8
 1810              		.cfi_offset 14, -4
 1811              	.LBB89:
 1812              	.LBB88:
 1813              		.loc 1 199 0
 1814 0004 1AD8     		bhi	.L271
ARM GAS  /tmp/ccZlncvZ.s 			page 33


 1815              		.loc 1 205 0
 1816 0006 00EB4000 		add	r0, r0, r0, lsl #1
 1817              	.LVL214:
 1818 000a 40F20004 		movw	r4, #:lower16:.LANCHOR0
 1819 000e C500     		lsls	r5, r0, #3
 1820 0010 C0F20004 		movt	r4, #:upper16:.LANCHOR0
 1821 0014 6619     		adds	r6, r4, r5
 1822              	.LVL215:
 1823              		.loc 1 207 0
 1824 0016 6059     		ldr	r0, [r4, r5]
 1825 0018 80B1     		cbz	r0, .L271
 1826              	.LBE88:
 1827              	.LBE89:
 1828              		.loc 1 538 0
 1829 001a FE29     		cmp	r1, #254
 1830 001c C8BF     		it	gt
 1831 001e FF21     		movgt	r1, #255
 1832              	.LVL216:
 1833 0020 02DC     		bgt	.L269
 1834              		.loc 1 538 0 is_stmt 0 discriminator 1
 1835 0022 21EAE171 		bic	r1, r1, r1, asr #31
 1836 0026 C9B2     		uxtb	r1, r1
 1837              	.L269:
 1838              	.LVL217:
 1839              		.loc 1 540 0 is_stmt 1 discriminator 3
 1840 0028 FFF7FEFF 		bl	netconn_listen_with_backlog
 1841              	.LVL218:
 1842              		.loc 1 542 0 discriminator 3
 1843 002c 48B1     		cbz	r0, .L265
 1844              		.loc 1 544 0
 1845 002e 6359     		ldr	r3, [r4, r5]
 1846 0030 1B78     		ldrb	r3, [r3]	@ zero_extendqisi2
 1847 0032 102B     		cmp	r3, #16
 1848 0034 07D0     		beq	.L266
 1849              		.loc 1 545 0
 1850 0036 5F20     		movs	r0, #95
 1851              	.LVL219:
 1852 0038 3061     		str	r0, [r6, #16]
 1853              		.loc 1 546 0
 1854 003a 70BD     		pop	{r4, r5, r6, pc}
 1855              	.LVL220:
 1856              	.L271:
 1857              		.loc 1 534 0
 1858 003c 4FF0FF30 		mov	r0, #-1
 1859 0040 70BD     		pop	{r4, r5, r6, pc}
 1860              	.LVL221:
 1861              	.L265:
 1862              		.loc 1 552 0
 1863 0042 3061     		str	r0, [r6, #16]
 1864              		.loc 1 553 0
 1865 0044 70BD     		pop	{r4, r5, r6, pc}
 1866              	.LVL222:
 1867              	.L266:
 1868              		.loc 1 548 0
 1869 0046 4042     		negs	r0, r0
 1870              	.LVL223:
 1871 0048 0F28     		cmp	r0, #15
ARM GAS  /tmp/ccZlncvZ.s 			page 34


 1872 004a 9BBF     		ittet	ls
 1873 004c 40F20003 		movwls	r3, #:lower16:.LANCHOR3
 1874 0050 C0F20003 		movtls	r3, #:upper16:.LANCHOR3
 1875 0054 0523     		movhi	r3, #5
 1876 0056 53F82030 		ldrls	r3, [r3, r0, lsl #2]
 1877              		.loc 1 549 0
 1878 005a 4FF0FF30 		mov	r0, #-1
 1879              		.loc 1 548 0
 1880 005e 3361     		str	r3, [r6, #16]
 1881              		.loc 1 549 0
 1882 0060 70BD     		pop	{r4, r5, r6, pc}
 1883              		.cfi_endproc
 1884              	.LFE16:
 1885              		.size	lwip_listen, .-lwip_listen
 1886 0062 00BFAFF3 		.section	.text.lwip_recvfrom,"ax",%progbits
 1886      0080AFF3 
 1886      0080AFF3 
 1886      0080
 1887              		.align	2
 1888              		.p2align 4,,15
 1889              		.global	lwip_recvfrom
 1890              		.thumb
 1891              		.thumb_func
 1892              		.type	lwip_recvfrom, %function
 1893              	lwip_recvfrom:
 1894              	.LFB17:
 1895              		.loc 1 559 0
 1896              		.cfi_startproc
 1897              		@ args = 8, pretend = 0, frame = 56
 1898              		@ frame_needed = 0, uses_anonymous_args = 0
 1899              	.LVL224:
 1900 0000 2DE9F04F 		push	{r4, r5, r6, r7, r8, r9, r10, fp, lr}
 1901              		.cfi_def_cfa_offset 36
 1902              		.cfi_offset 4, -36
 1903              		.cfi_offset 5, -32
 1904              		.cfi_offset 6, -28
 1905              		.cfi_offset 7, -24
 1906              		.cfi_offset 8, -20
 1907              		.cfi_offset 9, -16
 1908              		.cfi_offset 10, -12
 1909              		.cfi_offset 11, -8
 1910              		.cfi_offset 14, -4
 1911 0004 8FB0     		sub	sp, sp, #60
 1912              		.cfi_def_cfa_offset 96
 1913              		.loc 1 561 0
 1914 0006 0027     		movs	r7, #0
 1915              	.LBB90:
 1916              	.LBB91:
 1917              		.loc 1 199 0
 1918 0008 0328     		cmp	r0, #3
 1919              	.LBE91:
 1920              	.LBE90:
 1921              		.loc 1 559 0
 1922 000a 0291     		str	r1, [sp, #8]
 1923 000c 1646     		mov	r6, r2
 1924 000e 0193     		str	r3, [sp, #4]
 1925              		.loc 1 561 0
ARM GAS  /tmp/ccZlncvZ.s 			page 35


 1926 0010 0897     		str	r7, [sp, #32]
 1927              	.LVL225:
 1928              		.loc 1 559 0
 1929 0012 DDF864B0 		ldr	fp, [sp, #100]
 1930              	.LBB93:
 1931              	.LBB92:
 1932              		.loc 1 199 0
 1933 0016 00F29680 		bhi	.L310
 1934              		.loc 1 205 0
 1935 001a 00EB4000 		add	r0, r0, r0, lsl #1
 1936              	.LVL226:
 1937 001e 40F20001 		movw	r1, #:lower16:.LANCHOR0
 1938              	.LVL227:
 1939 0022 C000     		lsls	r0, r0, #3
 1940 0024 C0F20001 		movt	r1, #:upper16:.LANCHOR0
 1941 0028 0C46     		mov	r4, r1
 1942              		.loc 1 207 0
 1943 002a 0B58     		ldr	r3, [r1, r0]
 1944              	.LVL228:
 1945              		.loc 1 205 0
 1946 002c 0590     		str	r0, [sp, #20]
 1947 002e 0491     		str	r1, [sp, #16]
 1948 0030 0444     		add	r4, r4, r0
 1949              	.LVL229:
 1950              		.loc 1 207 0
 1951 0032 002B     		cmp	r3, #0
 1952 0034 00F08780 		beq	.L310
 1953              	.LVL230:
 1954              	.LBE92:
 1955              	.LBE93:
 1956              		.loc 1 583 0
 1957 0038 019A     		ldr	r2, [sp, #4]
 1958              	.LVL231:
 1959              		.loc 1 579 0
 1960 003a 6368     		ldr	r3, [r4, #4]
 1961              		.loc 1 583 0
 1962 003c 02F00802 		and	r2, r2, #8
 1963              	.LBB94:
 1964              	.LBB95:
 1965              		.loc 1 679 0
 1966 0040 B946     		mov	r9, r7
 1967              	.LBE95:
 1968              	.LBE94:
 1969              		.loc 1 583 0
 1970 0042 0392     		str	r2, [sp, #12]
 1971              		.loc 1 579 0
 1972 0044 002B     		cmp	r3, #0
 1973 0046 00F09780 		beq	.L277
 1974              	.L336:
 1975              		.loc 1 580 0
 1976 004a 0893     		str	r3, [sp, #32]
 1977 004c 9A46     		mov	r10, r3
 1978              	.L278:
 1979              		.loc 1 629 0
 1980 004e 2368     		ldr	r3, [r4]
 1981              		.loc 1 648 0
 1982 0050 0299     		ldr	r1, [sp, #8]
ARM GAS  /tmp/ccZlncvZ.s 			page 36


 1983              		.loc 1 629 0
 1984 0052 1B78     		ldrb	r3, [r3]	@ zero_extendqisi2
 1985 0054 102B     		cmp	r3, #16
 1986              		.loc 1 632 0
 1987 0056 18BF     		it	ne
 1988 0058 DAF800A0 		ldrne	r10, [r10]
 1989              	.LVL232:
 1990              		.loc 1 638 0
 1991 005c 2389     		ldrh	r3, [r4, #8]
 1992 005e BAF80880 		ldrh	r8, [r10, #8]
 1993 0062 C3EB0808 		rsb	r8, r3, r8
 1994 0066 1FFA88F8 		uxth	r8, r8
 1995              	.LVL233:
 1996              		.loc 1 640 0
 1997 006a 4645     		cmp	r6, r8
 1998              		.loc 1 643 0
 1999 006c 94BF     		ite	ls
 2000 006e B5B2     		uxthls	r5, r6
 2001              	.LVL234:
 2002              		.loc 1 641 0
 2003 0070 4546     		movhi	r5, r8
 2004              	.LVL235:
 2005              		.loc 1 648 0
 2006 0072 3944     		add	r1, r1, r7
 2007 0074 5046     		mov	r0, r10
 2008 0076 2A46     		mov	r2, r5
 2009 0078 FFF7FEFF 		bl	pbuf_copy_partial
 2010              	.LVL236:
 2011              		.loc 1 652 0
 2012 007c 2368     		ldr	r3, [r4]
 2013 007e 1B78     		ldrb	r3, [r3]	@ zero_extendqisi2
 2014 0080 102B     		cmp	r3, #16
 2015              		.loc 1 650 0
 2016 0082 2F44     		add	r7, r7, r5
 2017              	.LVL237:
 2018              		.loc 1 652 0
 2019 0084 40F09580 		bne	.L291
 2020              		.loc 1 653 0
 2021 0088 AE42     		cmp	r6, r5
 2022 008a C0F08D80 		bcc	.L331
 2023              	.LVL238:
 2024              		.loc 1 655 0
 2025 008e 761B     		subs	r6, r6, r5
 2026              	.LVL239:
 2027 0090 00F08F80 		beq	.L291
 2028              	.L293:
 2029              		.loc 1 656 0 discriminator 1
 2030 0094 9AF80D30 		ldrb	r3, [r10, #13]	@ zero_extendqisi2
 2031              		.loc 1 655 0 discriminator 1
 2032 0098 DB07     		lsls	r3, r3, #31
 2033 009a 44BF     		itt	mi
 2034 009c 019B     		ldrmi	r3, [sp, #4]
 2035 009e 03F0010A 		andmi	r10, r3, #1
 2036              	.LVL240:
 2037 00a2 0AD4     		bmi	.L294
 2038              		.loc 1 656 0
 2039 00a4 B4F90A30 		ldrsh	r3, [r4, #10]
ARM GAS  /tmp/ccZlncvZ.s 			page 37


 2040 00a8 002B     		cmp	r3, #0
 2041 00aa 40F38680 		ble	.L332
 2042              		.loc 1 657 0
 2043 00ae 019A     		ldr	r2, [sp, #4]
 2044 00b0 12F0010A 		ands	r10, r2, #1
 2045 00b4 4ED0     		beq	.L297
 2046 00b6 4FF0010A 		mov	r10, #1
 2047              	.L294:
 2048              	.LVL241:
 2049              	.LBB98:
 2050              		.loc 1 668 0
 2051 00ba 189B     		ldr	r3, [sp, #96]
 2052 00bc 002B     		cmp	r3, #0
 2053 00be 18BF     		it	ne
 2054 00c0 BBF1000F 		cmpne	fp, #0
 2055 00c4 2FD0     		beq	.L307
 2056              	.LBB96:
 2057              		.loc 1 671 0
 2058 00c6 2068     		ldr	r0, [r4]
 2059 00c8 0378     		ldrb	r3, [r0]	@ zero_extendqisi2
 2060 00ca 102B     		cmp	r3, #16
 2061 00cc 00F0A980 		beq	.L333
 2062              		.loc 1 675 0
 2063 00d0 089B     		ldr	r3, [sp, #32]
 2064              		.loc 1 676 0
 2065 00d2 9889     		ldrh	r0, [r3, #12]
 2066              		.loc 1 675 0
 2067 00d4 03F1080C 		add	ip, r3, #8
 2068              	.LVL242:
 2069              		.loc 1 676 0
 2070 00d8 ADF81E00 		strh	r0, [sp, #30]	@ movhi
 2071              	.LVL243:
 2072              	.L299:
 2073              		.loc 1 681 0
 2074 00dc 0223     		movs	r3, #2
 2075              		.loc 1 680 0
 2076 00de 4FF01001 		mov	r1, #16
 2077              		.loc 1 679 0
 2078 00e2 CDF82890 		str	r9, [sp, #40]
 2079              		.loc 1 682 0
 2080 00e6 CDF800C0 		str	ip, [sp]
 2081              		.loc 1 680 0
 2082 00ea 8DF82810 		strb	r1, [sp, #40]
 2083              		.loc 1 681 0
 2084 00ee 8DF82930 		strb	r3, [sp, #41]
 2085              		.loc 1 679 0
 2086 00f2 CDF82C90 		str	r9, [sp, #44]
 2087 00f6 CDF83090 		str	r9, [sp, #48]
 2088 00fa CDF83490 		str	r9, [sp, #52]
 2089              		.loc 1 682 0
 2090 00fe FFF7FEFF 		bl	lwip_htons
 2091              	.LVL244:
 2092              		.loc 1 685 0
 2093 0102 DBF80020 		ldr	r2, [fp]
 2094              		.loc 1 683 0
 2095 0106 DDF800C0 		ldr	ip, [sp]
 2096              		.loc 1 682 0
ARM GAS  /tmp/ccZlncvZ.s 			page 38


 2097 010a ADF82A00 		strh	r0, [sp, #42]	@ movhi
 2098              		.loc 1 685 0
 2099 010e 102A     		cmp	r2, #16
 2100              		.loc 1 683 0
 2101 0110 DCF80030 		ldr	r3, [ip]
 2102              		.loc 1 689 0
 2103 0114 1898     		ldr	r0, [sp, #96]
 2104              		.loc 1 683 0
 2105 0116 0B93     		str	r3, [sp, #44]
 2106              		.loc 1 686 0
 2107 0118 84BF     		itt	hi
 2108 011a 1022     		movhi	r2, #16
 2109 011c CBF80020 		strhi	r2, [fp]
 2110              		.loc 1 689 0
 2111 0120 0AA9     		add	r1, sp, #40
 2112 0122 FFF7FEFF 		bl	memcpy
 2113              	.LVL245:
 2114              	.L307:
 2115              	.LBE96:
 2116              	.LBE98:
 2117              		.loc 1 712 0 discriminator 1
 2118 0126 BAF1000F 		cmp	r10, #0
 2119 012a 11D0     		beq	.L334
 2120              	.LVL246:
 2121              	.L301:
 2122              		.loc 1 733 0
 2123 012c 2FB1     		cbz	r7, .L305
 2124              	.L329:
 2125              		.loc 1 735 0
 2126 012e 0499     		ldr	r1, [sp, #16]
 2127 0130 059B     		ldr	r3, [sp, #20]
 2128 0132 C858     		ldr	r0, [r1, r3]
 2129              	.L328:
 2130 0134 3946     		mov	r1, r7
 2131 0136 FFF7FEFF 		bl	netconn_recved
 2132              	.LVL247:
 2133              	.L305:
 2134              		.loc 1 737 0
 2135 013a 0023     		movs	r3, #0
 2136              		.loc 1 650 0
 2137 013c 3846     		mov	r0, r7
 2138              		.loc 1 737 0
 2139 013e 2361     		str	r3, [r4, #16]
 2140              		.loc 1 739 0
 2141 0140 0FB0     		add	sp, sp, #60
 2142              		@ sp needed
 2143 0142 BDE8F08F 		pop	{r4, r5, r6, r7, r8, r9, r10, fp, pc}
 2144              	.LVL248:
 2145              	.L310:
 2146              		.loc 1 573 0
 2147 0146 4FF0FF30 		mov	r0, #-1
 2148              	.LVL249:
 2149              	.L327:
 2150              		.loc 1 739 0
 2151 014a 0FB0     		add	sp, sp, #60
 2152              		@ sp needed
 2153 014c BDE8F08F 		pop	{r4, r5, r6, r7, r8, r9, r10, fp, pc}
ARM GAS  /tmp/ccZlncvZ.s 			page 39


 2154              	.LVL250:
 2155              	.L334:
 2156 0150 4FF0010A 		mov	r10, #1
 2157              	.LVL251:
 2158              	.L297:
 2159              		.loc 1 716 0
 2160 0154 2368     		ldr	r3, [r4]
 2161 0156 1B78     		ldrb	r3, [r3]	@ zero_extendqisi2
 2162 0158 102B     		cmp	r3, #16
 2163 015a 32D0     		beq	.L335
 2164              		.loc 1 727 0
 2165 015c 0898     		ldr	r0, [sp, #32]
 2166              		.loc 1 721 0
 2167 015e C4F80490 		str	r9, [r4, #4]
 2168              		.loc 1 722 0
 2169 0162 A4F80890 		strh	r9, [r4, #8]	@ movhi
 2170              		.loc 1 727 0
 2171 0166 FFF7FEFF 		bl	netbuf_delete
 2172              	.LVL252:
 2173              		.loc 1 731 0
 2174 016a BAF1000F 		cmp	r10, #0
 2175 016e DDD1     		bne	.L301
 2176              	.LVL253:
 2177              	.L330:
 2178              		.loc 1 579 0
 2179 0170 6368     		ldr	r3, [r4, #4]
 2180 0172 002B     		cmp	r3, #0
 2181 0174 7FF469AF 		bne	.L336
 2182              	.L277:
 2183              		.loc 1 583 0
 2184 0178 039B     		ldr	r3, [sp, #12]
 2185 017a 1BB9     		cbnz	r3, .L279
 2186              		.loc 1 583 0 is_stmt 0 discriminator 2
 2187 017c 2068     		ldr	r0, [r4]
 2188 017e 037F     		ldrb	r3, [r0, #28]	@ zero_extendqisi2
 2189 0180 9A07     		lsls	r2, r3, #30
 2190 0182 04D5     		bpl	.L280
 2191              	.L279:
 2192              		.loc 1 583 0 discriminator 1
 2193 0184 B4F90A30 		ldrsh	r3, [r4, #10]
 2194 0188 002B     		cmp	r3, #0
 2195 018a 5ADD     		ble	.L281
 2196 018c 2068     		ldr	r0, [r4]
 2197              	.L280:
 2198              		.loc 1 599 0 is_stmt 1
 2199 018e 0378     		ldrb	r3, [r0]	@ zero_extendqisi2
 2200 0190 102B     		cmp	r3, #16
 2201              		.loc 1 600 0
 2202 0192 08A9     		add	r1, sp, #32
 2203              		.loc 1 599 0
 2204 0194 23D0     		beq	.L337
 2205              		.loc 1 602 0
 2206 0196 FFF7FEFF 		bl	netconn_recv
 2207              	.LVL254:
 2208              		.loc 1 607 0
 2209 019a 20BB     		cbnz	r0, .L338
 2210              	.LVL255:
ARM GAS  /tmp/ccZlncvZ.s 			page 40


 2211              	.L285:
 2212              		.loc 1 625 0
 2213 019c 089B     		ldr	r3, [sp, #32]
 2214 019e 002B     		cmp	r3, #0
 2215 01a0 4BD0     		beq	.L339
 2216              	.L288:
 2217              		.loc 1 626 0
 2218 01a2 6360     		str	r3, [r4, #4]
 2219 01a4 9A46     		mov	r10, r3
 2220 01a6 52E7     		b	.L278
 2221              	.LVL256:
 2222              	.L331:
 2223              		.loc 1 653 0 discriminator 1
 2224 01a8 FFF7FEFF 		bl	port_halt
 2225              	.LVL257:
 2226              		.loc 1 655 0 discriminator 1
 2227 01ac 761B     		subs	r6, r6, r5
 2228              	.LVL258:
 2229 01ae 7FF471AF 		bne	.L293
 2230              	.L291:
 2231 01b2 019A     		ldr	r2, [sp, #4]
 2232 01b4 02F0010A 		and	r10, r2, #1
 2233              	.LVL259:
 2234 01b8 7FE7     		b	.L294
 2235              	.L332:
 2236 01ba 0199     		ldr	r1, [sp, #4]
 2237 01bc 01F0010A 		and	r10, r1, #1
 2238 01c0 7BE7     		b	.L294
 2239              	.LVL260:
 2240              	.L335:
 2241              		.loc 1 716 0 discriminator 1
 2242 01c2 C5EB0808 		rsb	r8, r5, r8
 2243              	.LVL261:
 2244 01c6 B8F1000F 		cmp	r8, #0
 2245 01ca 1FDD     		ble	.L303
 2246              		.loc 1 718 0
 2247 01cc 2289     		ldrh	r2, [r4, #8]
 2248              		.loc 1 717 0
 2249 01ce 089B     		ldr	r3, [sp, #32]
 2250              		.loc 1 718 0
 2251 01d0 1544     		add	r5, r5, r2
 2252              	.LVL262:
 2253 01d2 2581     		strh	r5, [r4, #8]	@ movhi
 2254              		.loc 1 717 0
 2255 01d4 6360     		str	r3, [r4, #4]
 2256              		.loc 1 731 0
 2257 01d6 BAF1000F 		cmp	r10, #0
 2258 01da C9D0     		beq	.L330
 2259 01dc A6E7     		b	.L301
 2260              	.LVL263:
 2261              	.L337:
 2262              		.loc 1 600 0
 2263 01de FFF7FEFF 		bl	netconn_recv_tcp_pbuf
 2264              	.LVL264:
 2265              		.loc 1 607 0
 2266 01e2 0028     		cmp	r0, #0
 2267 01e4 DAD0     		beq	.L285
ARM GAS  /tmp/ccZlncvZ.s 			page 41


 2268              	.LVL265:
 2269              	.L338:
 2270              		.loc 1 608 0
 2271 01e6 002F     		cmp	r7, #0
 2272 01e8 A1D1     		bne	.L329
 2273              		.loc 1 618 0
 2274 01ea 40B2     		sxtb	r0, r0
 2275 01ec 4342     		negs	r3, r0
 2276 01ee 0F2B     		cmp	r3, #15
 2277 01f0 9BBF     		ittet	ls
 2278 01f2 40F20002 		movwls	r2, #:lower16:.LANCHOR3
 2279 01f6 C0F20002 		movtls	r2, #:upper16:.LANCHOR3
 2280 01fa 0523     		movhi	r3, #5
 2281 01fc 52F82330 		ldrls	r3, [r2, r3, lsl #2]
 2282              		.loc 1 619 0
 2283 0200 0C30     		adds	r0, r0, #12
 2284 0202 18BF     		it	ne
 2285 0204 0120     		movne	r0, #1
 2286 0206 4042     		negs	r0, r0
 2287              		.loc 1 618 0
 2288 0208 2361     		str	r3, [r4, #16]
 2289 020a 9EE7     		b	.L327
 2290              	.LVL266:
 2291              	.L303:
 2292              		.loc 1 725 0
 2293 020c 0898     		ldr	r0, [sp, #32]
 2294              		.loc 1 721 0
 2295 020e C4F80490 		str	r9, [r4, #4]
 2296              		.loc 1 722 0
 2297 0212 A4F80890 		strh	r9, [r4, #8]	@ movhi
 2298              		.loc 1 725 0
 2299 0216 FFF7FEFF 		bl	pbuf_free
 2300              	.LVL267:
 2301              		.loc 1 731 0
 2302 021a BAF1000F 		cmp	r10, #0
 2303 021e A7D0     		beq	.L330
 2304 0220 84E7     		b	.L301
 2305              	.LVL268:
 2306              	.L333:
 2307              	.LBB99:
 2308              	.LBB97:
 2309              		.loc 1 673 0
 2310 0222 09A9     		add	r1, sp, #36
 2311              	.LVL269:
 2312 0224 0DF11E02 		add	r2, sp, #30
 2313 0228 0023     		movs	r3, #0
 2314 022a 0091     		str	r1, [sp]
 2315 022c FFF7FEFF 		bl	netconn_getaddr
 2316              	.LVL270:
 2317 0230 BDF81E00 		ldrh	r0, [sp, #30]
 2318 0234 DDF800C0 		ldr	ip, [sp]
 2319 0238 50E7     		b	.L299
 2320              	.LVL271:
 2321              	.L339:
 2322              	.LBE97:
 2323              	.LBE99:
 2324              		.loc 1 625 0 discriminator 1
ARM GAS  /tmp/ccZlncvZ.s 			page 42


 2325 023a FFF7FEFF 		bl	port_halt
 2326              	.LVL272:
 2327 023e 089B     		ldr	r3, [sp, #32]
 2328 0240 AFE7     		b	.L288
 2329              	.L281:
 2330              		.loc 1 585 0
 2331 0242 1FB1     		cbz	r7, .L282
 2332              		.loc 1 587 0
 2333 0244 049A     		ldr	r2, [sp, #16]
 2334 0246 0599     		ldr	r1, [sp, #20]
 2335 0248 5058     		ldr	r0, [r2, r1]
 2336 024a 73E7     		b	.L328
 2337              	.L282:
 2338              		.loc 1 593 0
 2339 024c 0B23     		movs	r3, #11
 2340 024e 2361     		str	r3, [r4, #16]
 2341              		.loc 1 594 0
 2342 0250 4FF0FF30 		mov	r0, #-1
 2343 0254 79E7     		b	.L327
 2344              		.cfi_endproc
 2345              	.LFE17:
 2346              		.size	lwip_recvfrom, .-lwip_recvfrom
 2347 0256 00BFAFF3 		.section	.text.lwip_read,"ax",%progbits
 2347      0080AFF3 
 2347      0080
 2348              		.align	2
 2349              		.p2align 4,,15
 2350              		.global	lwip_read
 2351              		.thumb
 2352              		.thumb_func
 2353              		.type	lwip_read, %function
 2354              	lwip_read:
 2355              	.LFB18:
 2356              		.loc 1 743 0
 2357              		.cfi_startproc
 2358              		@ args = 0, pretend = 0, frame = 0
 2359              		@ frame_needed = 0, uses_anonymous_args = 0
 2360              	.LVL273:
 2361 0000 00B5     		push	{lr}
 2362              		.cfi_def_cfa_offset 4
 2363              		.cfi_offset 14, -4
 2364 0002 83B0     		sub	sp, sp, #12
 2365              		.cfi_def_cfa_offset 16
 2366              		.loc 1 744 0
 2367 0004 0023     		movs	r3, #0
 2368 0006 0093     		str	r3, [sp]
 2369 0008 0193     		str	r3, [sp, #4]
 2370 000a FFF7FEFF 		bl	lwip_recvfrom
 2371              	.LVL274:
 2372              		.loc 1 745 0
 2373 000e 03B0     		add	sp, sp, #12
 2374              		@ sp needed
 2375 0010 5DF804FB 		ldr	pc, [sp], #4
 2376              		.cfi_endproc
 2377              	.LFE18:
 2378              		.size	lwip_read, .-lwip_read
 2379 0014 AFF30080 		.section	.text.lwip_recv,"ax",%progbits
ARM GAS  /tmp/ccZlncvZ.s 			page 43


 2379      AFF30080 
 2379      AFF30080 
 2380              		.align	2
 2381              		.p2align 4,,15
 2382              		.global	lwip_recv
 2383              		.thumb
 2384              		.thumb_func
 2385              		.type	lwip_recv, %function
 2386              	lwip_recv:
 2387              	.LFB19:
 2388              		.loc 1 749 0
 2389              		.cfi_startproc
 2390              		@ args = 0, pretend = 0, frame = 0
 2391              		@ frame_needed = 0, uses_anonymous_args = 0
 2392              	.LVL275:
 2393 0000 10B5     		push	{r4, lr}
 2394              		.cfi_def_cfa_offset 8
 2395              		.cfi_offset 4, -8
 2396              		.cfi_offset 14, -4
 2397 0002 82B0     		sub	sp, sp, #8
 2398              		.cfi_def_cfa_offset 16
 2399              		.loc 1 750 0
 2400 0004 0024     		movs	r4, #0
 2401 0006 0094     		str	r4, [sp]
 2402 0008 0194     		str	r4, [sp, #4]
 2403 000a FFF7FEFF 		bl	lwip_recvfrom
 2404              	.LVL276:
 2405              		.loc 1 751 0
 2406 000e 02B0     		add	sp, sp, #8
 2407              		@ sp needed
 2408 0010 10BD     		pop	{r4, pc}
 2409              		.cfi_endproc
 2410              	.LFE19:
 2411              		.size	lwip_recv, .-lwip_recv
 2412 0012 00BFAFF3 		.section	.text.lwip_sendto,"ax",%progbits
 2412      0080AFF3 
 2412      0080AFF3 
 2412      0080
 2413              		.align	2
 2414              		.p2align 4,,15
 2415              		.global	lwip_sendto
 2416              		.thumb
 2417              		.thumb_func
 2418              		.type	lwip_sendto, %function
 2419              	lwip_sendto:
 2420              	.LFB21:
 2421              		.loc 1 792 0
 2422              		.cfi_startproc
 2423              		@ args = 8, pretend = 0, frame = 16
 2424              		@ frame_needed = 0, uses_anonymous_args = 0
 2425              	.LVL277:
 2426 0000 2DE9F047 		push	{r4, r5, r6, r7, r8, r9, r10, lr}
 2427              		.cfi_def_cfa_offset 32
 2428              		.cfi_offset 4, -32
 2429              		.cfi_offset 5, -28
 2430              		.cfi_offset 6, -24
 2431              		.cfi_offset 7, -20
ARM GAS  /tmp/ccZlncvZ.s 			page 44


 2432              		.cfi_offset 8, -16
 2433              		.cfi_offset 9, -12
 2434              		.cfi_offset 10, -8
 2435              		.cfi_offset 14, -4
 2436 0004 84B0     		sub	sp, sp, #16
 2437              		.cfi_def_cfa_offset 48
 2438              	.LBB100:
 2439              	.LBB101:
 2440              		.loc 1 199 0
 2441 0006 0328     		cmp	r0, #3
 2442              	.LBE101:
 2443              	.LBE100:
 2444              		.loc 1 792 0
 2445 0008 8A46     		mov	r10, r1
 2446 000a 1746     		mov	r7, r2
 2447              	.LVL278:
 2448 000c 0C9C     		ldr	r4, [sp, #48]
 2449 000e 0D9D     		ldr	r5, [sp, #52]
 2450              	.LBB103:
 2451              	.LBB102:
 2452              		.loc 1 199 0
 2453 0010 47D8     		bhi	.L363
 2454              		.loc 1 205 0
 2455 0012 00EB4006 		add	r6, r0, r0, lsl #1
 2456 0016 40F20008 		movw	r8, #:lower16:.LANCHOR0
 2457 001a F600     		lsls	r6, r6, #3
 2458 001c C0F20008 		movt	r8, #:upper16:.LANCHOR0
 2459 0020 08EB0609 		add	r9, r8, r6
 2460              	.LVL279:
 2461              		.loc 1 207 0
 2462 0024 58F806C0 		ldr	ip, [r8, r6]
 2463 0028 BCF1000F 		cmp	ip, #0
 2464 002c 39D0     		beq	.L363
 2465              	.LBE102:
 2466              	.LBE103:
 2467              		.loc 1 807 0
 2468 002e 9CF800E0 		ldrb	lr, [ip]	@ zero_extendqisi2
 2469 0032 BEF1100F 		cmp	lr, #16
 2470 0036 49D0     		beq	.L364
 2471              		.loc 1 818 0
 2472 0038 B7F5803F 		cmp	r7, #65536
 2473 003c 3CD2     		bcs	.L365
 2474              	.LVL280:
 2475              	.L347:
 2476              		.loc 1 820 0
 2477 003e 002D     		cmp	r5, #0
 2478 0040 08BF     		it	eq
 2479 0042 002C     		cmpeq	r4, #0
 2480              		.loc 1 819 0
 2481 0044 BFB2     		uxth	r7, r7
 2482              	.LVL281:
 2483              		.loc 1 820 0
 2484 0046 0CBF     		ite	eq
 2485 0048 0023     		moveq	r3, #0
 2486 004a 0123     		movne	r3, #1
 2487 004c 2ED0     		beq	.L348
 2488              		.loc 1 820 0 is_stmt 0 discriminator 1
ARM GAS  /tmp/ccZlncvZ.s 			page 45


 2489 004e 102D     		cmp	r5, #16
 2490 0050 3FD1     		bne	.L349
 2491              		.loc 1 820 0 discriminator 2
 2492 0052 6378     		ldrb	r3, [r4, #1]	@ zero_extendqisi2
 2493 0054 022B     		cmp	r3, #2
 2494 0056 3CD1     		bne	.L349
 2495              		.loc 1 820 0 discriminator 1
 2496 0058 14F00303 		ands	r3, r4, #3
 2497 005c 39D1     		bne	.L349
 2498              	.LVL282:
 2499              		.loc 1 901 0 is_stmt 1
 2500 005e 6268     		ldr	r2, [r4, #4]
 2501              		.loc 1 902 0
 2502 0060 6088     		ldrh	r0, [r4, #2]
 2503              		.loc 1 896 0
 2504 0062 0193     		str	r3, [sp, #4]
 2505 0064 0093     		str	r3, [sp]
 2506              		.loc 1 901 0
 2507 0066 0292     		str	r2, [sp, #8]
 2508              		.loc 1 902 0
 2509 0068 FFF7FEFF 		bl	lwip_ntohs
 2510              	.LVL283:
 2511              		.loc 1 903 0
 2512 006c ADF80C00 		strh	r0, [sp, #12]	@ movhi
 2513              	.LVL284:
 2514              	.L355:
 2515              		.loc 1 933 0
 2516 0070 5146     		mov	r1, r10
 2517 0072 6846     		mov	r0, sp
 2518 0074 3A46     		mov	r2, r7
 2519 0076 FFF7FEFF 		bl	netbuf_ref
 2520              	.LVL285:
 2521              		.loc 1 935 0
 2522 007a 0446     		mov	r4, r0
 2523              	.LVL286:
 2524 007c F8B1     		cbz	r0, .L366
 2525              	.LVL287:
 2526              	.L351:
 2527              		.loc 1 941 0
 2528 007e 6846     		mov	r0, sp
 2529 0080 FFF7FEFF 		bl	netbuf_free
 2530              	.LVL288:
 2531              		.loc 1 943 0
 2532 0084 63B2     		sxtb	r3, r4
 2533 0086 5B42     		negs	r3, r3
 2534 0088 0F2B     		cmp	r3, #15
 2535 008a 9BBF     		ittet	ls
 2536 008c 40F20002 		movwls	r2, #:lower16:.LANCHOR3
 2537 0090 C0F20002 		movtls	r2, #:upper16:.LANCHOR3
 2538 0094 0523     		movhi	r3, #5
 2539 0096 52F82330 		ldrls	r3, [r2, r3, lsl #2]
 2540 009a 3846     		mov	r0, r7
 2541 009c C9F81030 		str	r3, [r9, #16]
 2542              		.loc 1 944 0
 2543 00a0 0CB1     		cbz	r4, .L360
 2544              	.LVL289:
 2545              	.L363:
ARM GAS  /tmp/ccZlncvZ.s 			page 46


 2546              		.loc 1 820 0 discriminator 1
 2547 00a2 4FF0FF30 		mov	r0, #-1
 2548              	.L360:
 2549              		.loc 1 945 0
 2550 00a6 04B0     		add	sp, sp, #16
 2551              		@ sp needed
 2552 00a8 BDE8F087 		pop	{r4, r5, r6, r7, r8, r9, r10, pc}
 2553              	.LVL290:
 2554              	.L348:
 2555              		.loc 1 896 0
 2556 00ac 0193     		str	r3, [sp, #4]
 2557 00ae 0093     		str	r3, [sp]
 2558              	.LVL291:
 2559              		.loc 1 906 0
 2560 00b0 0293     		str	r3, [sp, #8]
 2561              		.loc 1 907 0
 2562 00b2 ADF80C30 		strh	r3, [sp, #12]	@ movhi
 2563 00b6 DBE7     		b	.L355
 2564              	.LVL292:
 2565              	.L365:
 2566              		.loc 1 818 0 discriminator 1
 2567 00b8 FFF7FEFF 		bl	port_halt
 2568              	.LVL293:
 2569 00bc BFE7     		b	.L347
 2570              	.LVL294:
 2571              	.L366:
 2572              		.loc 1 937 0
 2573 00be 58F80600 		ldr	r0, [r8, r6]
 2574              	.LVL295:
 2575 00c2 6946     		mov	r1, sp
 2576 00c4 FFF7FEFF 		bl	netconn_send
 2577              	.LVL296:
 2578 00c8 0446     		mov	r4, r0
 2579              	.LVL297:
 2580 00ca D8E7     		b	.L351
 2581              	.LVL298:
 2582              	.L364:
 2583              		.loc 1 809 0
 2584 00cc FFF7FEFF 		bl	lwip_send
 2585              	.LVL299:
 2586 00d0 E9E7     		b	.L360
 2587              	.LVL300:
 2588              	.L349:
 2589              		.loc 1 820 0 discriminator 1
 2590 00d2 FFF7FEFF 		bl	port_halt
 2591              	.LVL301:
 2592 00d6 0523     		movs	r3, #5
 2593 00d8 C9F81030 		str	r3, [r9, #16]
 2594 00dc E1E7     		b	.L363
 2595              		.cfi_endproc
 2596              	.LFE21:
 2597              		.size	lwip_sendto, .-lwip_sendto
 2598 00de 00BF     		.section	.text.lwip_send,"ax",%progbits
 2599              		.align	2
 2600              		.p2align 4,,15
 2601              		.global	lwip_send
 2602              		.thumb
ARM GAS  /tmp/ccZlncvZ.s 			page 47


 2603              		.thumb_func
 2604              		.type	lwip_send, %function
 2605              	lwip_send:
 2606              	.LFB20:
 2607              		.loc 1 755 0
 2608              		.cfi_startproc
 2609              		@ args = 0, pretend = 0, frame = 8
 2610              		@ frame_needed = 0, uses_anonymous_args = 0
 2611              	.LVL302:
 2612 0000 F0B5     		push	{r4, r5, r6, r7, lr}
 2613              		.cfi_def_cfa_offset 20
 2614              		.cfi_offset 4, -20
 2615              		.cfi_offset 5, -16
 2616              		.cfi_offset 6, -12
 2617              		.cfi_offset 7, -8
 2618              		.cfi_offset 14, -4
 2619              	.LBB104:
 2620              	.LBB105:
 2621              		.loc 1 199 0
 2622 0002 0328     		cmp	r0, #3
 2623              	.LBE105:
 2624              	.LBE104:
 2625              		.loc 1 755 0
 2626 0004 85B0     		sub	sp, sp, #20
 2627              		.cfi_def_cfa_offset 40
 2628              		.loc 1 755 0
 2629 0006 1E46     		mov	r6, r3
 2630              	.LBB107:
 2631              	.LBB106:
 2632              		.loc 1 199 0
 2633 0008 2FD8     		bhi	.L370
 2634              		.loc 1 205 0
 2635 000a 00EB4004 		add	r4, r0, r0, lsl #1
 2636 000e 40F20005 		movw	r5, #:lower16:.LANCHOR0
 2637 0012 E400     		lsls	r4, r4, #3
 2638 0014 C0F20005 		movt	r5, #:upper16:.LANCHOR0
 2639 0018 2F19     		adds	r7, r5, r4
 2640              	.LVL303:
 2641              		.loc 1 207 0
 2642 001a 2D59     		ldr	r5, [r5, r4]
 2643 001c 2DB3     		cbz	r5, .L370
 2644              	.LBE106:
 2645              	.LBE107:
 2646              		.loc 1 769 0
 2647 001e 2C78     		ldrb	r4, [r5]	@ zero_extendqisi2
 2648 0020 102C     		cmp	r4, #16
 2649 0022 26D1     		bne	.L386
 2650              		.loc 1 781 0
 2651 0024 04AC     		add	r4, sp, #16
 2652              		.loc 1 778 0
 2653 0026 16F0100F 		tst	r6, #16
 2654              		.loc 1 781 0
 2655 002a 4FF00000 		mov	r0, #0
 2656              	.LVL304:
 2657 002e 44F8040D 		str	r0, [r4, #-4]!
 2658              		.loc 1 778 0
 2659 0032 0CBF     		ite	eq
ARM GAS  /tmp/ccZlncvZ.s 			page 48


 2660 0034 0123     		moveq	r3, #1
 2661 0036 0323     		movne	r3, #3
 2662              	.LVL305:
 2663 0038 16F0080F 		tst	r6, #8
 2664 003c 0CBF     		ite	eq
 2665 003e 0646     		moveq	r6, r0
 2666 0040 0426     		movne	r6, #4
 2667              	.LVL306:
 2668              		.loc 1 782 0
 2669 0042 3343     		orrs	r3, r3, r6
 2670              	.LVL307:
 2671 0044 2846     		mov	r0, r5
 2672 0046 0094     		str	r4, [sp]
 2673 0048 FFF7FEFF 		bl	netconn_write_partly
 2674              	.LVL308:
 2675              		.loc 1 785 0
 2676 004c 4342     		negs	r3, r0
 2677 004e 0F2B     		cmp	r3, #15
 2678 0050 9BBF     		ittet	ls
 2679 0052 40F20002 		movwls	r2, #:lower16:.LANCHOR3
 2680 0056 C0F20002 		movtls	r2, #:upper16:.LANCHOR3
 2681 005a 0523     		movhi	r3, #5
 2682 005c 52F82330 		ldrls	r3, [r2, r3, lsl #2]
 2683 0060 3B61     		str	r3, [r7, #16]
 2684              		.loc 1 786 0
 2685 0062 10B9     		cbnz	r0, .L370
 2686              		.loc 1 786 0 is_stmt 0 discriminator 1
 2687 0064 0398     		ldr	r0, [sp, #12]
 2688              	.LVL309:
 2689              		.loc 1 787 0 is_stmt 1 discriminator 1
 2690 0066 05B0     		add	sp, sp, #20
 2691              		@ sp needed
 2692 0068 F0BD     		pop	{r4, r5, r6, r7, pc}
 2693              	.LVL310:
 2694              	.L370:
 2695              		.loc 1 766 0
 2696 006a 4FF0FF30 		mov	r0, #-1
 2697              		.loc 1 787 0
 2698 006e 05B0     		add	sp, sp, #20
 2699              		@ sp needed
 2700 0070 F0BD     		pop	{r4, r5, r6, r7, pc}
 2701              	.LVL311:
 2702              	.L386:
 2703              		.loc 1 771 0
 2704 0072 0024     		movs	r4, #0
 2705 0074 0094     		str	r4, [sp]
 2706 0076 0194     		str	r4, [sp, #4]
 2707 0078 FFF7FEFF 		bl	lwip_sendto
 2708              	.LVL312:
 2709              		.loc 1 787 0
 2710 007c 05B0     		add	sp, sp, #20
 2711              		@ sp needed
 2712 007e F0BD     		pop	{r4, r5, r6, r7, pc}
 2713              		.cfi_endproc
 2714              	.LFE20:
 2715              		.size	lwip_send, .-lwip_send
 2716              		.section	.text.lwip_socket,"ax",%progbits
ARM GAS  /tmp/ccZlncvZ.s 			page 49


 2717              		.align	2
 2718              		.p2align 4,,15
 2719              		.global	lwip_socket
 2720              		.thumb
 2721              		.thumb_func
 2722              		.type	lwip_socket, %function
 2723              	lwip_socket:
 2724              	.LFB22:
 2725              		.loc 1 949 0
 2726              		.cfi_startproc
 2727              		@ args = 0, pretend = 0, frame = 0
 2728              		@ frame_needed = 0, uses_anonymous_args = 0
 2729              	.LVL313:
 2730              		.loc 1 956 0
 2731 0000 0229     		cmp	r1, #2
 2732              		.loc 1 949 0
 2733 0002 38B5     		push	{r3, r4, r5, lr}
 2734              		.cfi_def_cfa_offset 16
 2735              		.cfi_offset 3, -16
 2736              		.cfi_offset 4, -12
 2737              		.cfi_offset 5, -8
 2738              		.cfi_offset 14, -4
 2739              		.loc 1 949 0
 2740 0004 1046     		mov	r0, r2
 2741              	.LVL314:
 2742              		.loc 1 956 0
 2743 0006 2AD0     		beq	.L389
 2744 0008 0329     		cmp	r1, #3
 2745 000a 1CD0     		beq	.L390
 2746 000c 0129     		cmp	r1, #1
 2747 000e 02D0     		beq	.L404
 2748              	.LVL315:
 2749              	.L403:
 2750              		.loc 1 981 0
 2751 0010 4FF0FF30 		mov	r0, #-1
 2752              		.loc 1 1001 0
 2753 0014 38BD     		pop	{r3, r4, r5, pc}
 2754              	.LVL316:
 2755              	.L404:
 2756              		.loc 1 969 0
 2757 0016 40F20002 		movw	r2, #:lower16:event_callback
 2758 001a C0F20002 		movt	r2, #:upper16:event_callback
 2759 001e 1020     		movs	r0, #16
 2760              	.LVL317:
 2761 0020 0021     		movs	r1, #0
 2762              	.LVL318:
 2763 0022 FFF7FEFF 		bl	netconn_new_with_proto_and_callback
 2764              	.LVL319:
 2765              		.loc 1 972 0
 2766 0026 0446     		mov	r4, r0
 2767 0028 0028     		cmp	r0, #0
 2768 002a F1D0     		beq	.L403
 2769              		.loc 1 974 0 discriminator 1
 2770 002c 037F     		ldrb	r3, [r0, #28]	@ zero_extendqisi2
 2771 002e 43F00803 		orr	r3, r3, #8
 2772 0032 0377     		strb	r3, [r0, #28]
 2773              	.L395:
ARM GAS  /tmp/ccZlncvZ.s 			page 50


 2774              		.loc 1 990 0
 2775 0034 0021     		movs	r1, #0
 2776 0036 2046     		mov	r0, r4
 2777 0038 FFF7FEFF 		bl	alloc_socket
 2778              	.LVL320:
 2779              		.loc 1 992 0
 2780 003c 411C     		adds	r1, r0, #1
 2781              		.loc 1 990 0
 2782 003e 0546     		mov	r5, r0
 2783              	.LVL321:
 2784              		.loc 1 992 0
 2785 0040 1CD0     		beq	.L405
 2786              		.loc 1 997 0
 2787 0042 A061     		str	r0, [r4, #24]
 2788              		.loc 1 1000 0
 2789 0044 38BD     		pop	{r3, r4, r5, pc}
 2790              	.LVL322:
 2791              	.L390:
 2792              		.loc 1 958 0
 2793 0046 40F20002 		movw	r2, #:lower16:event_callback
 2794 004a C1B2     		uxtb	r1, r0
 2795              	.LVL323:
 2796 004c C0F20002 		movt	r2, #:upper16:event_callback
 2797 0050 4020     		movs	r0, #64
 2798              	.LVL324:
 2799 0052 FFF7FEFF 		bl	netconn_new_with_proto_and_callback
 2800              	.LVL325:
 2801 0056 0446     		mov	r4, r0
 2802              	.LVL326:
 2803              		.loc 1 984 0
 2804 0058 002C     		cmp	r4, #0
 2805 005a EBD1     		bne	.L395
 2806 005c D8E7     		b	.L403
 2807              	.LVL327:
 2808              	.L389:
 2809              		.loc 1 963 0
 2810 005e 40F20002 		movw	r2, #:lower16:event_callback
 2811 0062 8828     		cmp	r0, #136
 2812 0064 14BF     		ite	ne
 2813 0066 2020     		movne	r0, #32
 2814 0068 2120     		moveq	r0, #33
 2815              	.LVL328:
 2816 006a C0F20002 		movt	r2, #:upper16:event_callback
 2817 006e 0021     		movs	r1, #0
 2818              	.LVL329:
 2819 0070 FFF7FEFF 		bl	netconn_new_with_proto_and_callback
 2820              	.LVL330:
 2821 0074 0446     		mov	r4, r0
 2822              	.LVL331:
 2823              		.loc 1 984 0
 2824 0076 002C     		cmp	r4, #0
 2825 0078 DCD1     		bne	.L395
 2826 007a C9E7     		b	.L403
 2827              	.LVL332:
 2828              	.L405:
 2829              		.loc 1 993 0
 2830 007c 2046     		mov	r0, r4
ARM GAS  /tmp/ccZlncvZ.s 			page 51


 2831              	.LVL333:
 2832 007e FFF7FEFF 		bl	netconn_delete
 2833              	.LVL334:
 2834              		.loc 1 995 0
 2835 0082 2846     		mov	r0, r5
 2836 0084 38BD     		pop	{r3, r4, r5, pc}
 2837              		.cfi_endproc
 2838              	.LFE22:
 2839              		.size	lwip_socket, .-lwip_socket
 2840 0086 00BFAFF3 		.section	.text.lwip_write,"ax",%progbits
 2840      0080AFF3 
 2840      0080
 2841              		.align	2
 2842              		.p2align 4,,15
 2843              		.global	lwip_write
 2844              		.thumb
 2845              		.thumb_func
 2846              		.type	lwip_write, %function
 2847              	lwip_write:
 2848              	.LFB23:
 2849              		.loc 1 1005 0
 2850              		.cfi_startproc
 2851              		@ args = 0, pretend = 0, frame = 0
 2852              		@ frame_needed = 0, uses_anonymous_args = 0
 2853              		@ link register save eliminated.
 2854              	.LVL335:
 2855              		.loc 1 1006 0
 2856 0000 0023     		movs	r3, #0
 2857 0002 FFF7FEBF 		b	lwip_send
 2858              	.LVL336:
 2859              		.cfi_endproc
 2860              	.LFE23:
 2861              		.size	lwip_write, .-lwip_write
 2862 0006 00BFAFF3 		.section	.text.lwip_select,"ax",%progbits
 2862      0080AFF3 
 2862      0080
 2863              		.align	2
 2864              		.p2align 4,,15
 2865              		.global	lwip_select
 2866              		.thumb
 2867              		.thumb_func
 2868              		.type	lwip_select, %function
 2869              	lwip_select:
 2870              	.LFB25:
 2871              		.loc 1 1090 0
 2872              		.cfi_startproc
 2873              		@ args = 4, pretend = 0, frame = 56
 2874              		@ frame_needed = 0, uses_anonymous_args = 0
 2875              	.LVL337:
 2876 0000 2DE9F04F 		push	{r4, r5, r6, r7, r8, r9, r10, fp, lr}
 2877              		.cfi_def_cfa_offset 36
 2878              		.cfi_offset 4, -36
 2879              		.cfi_offset 5, -32
 2880              		.cfi_offset 6, -28
 2881              		.cfi_offset 7, -24
 2882              		.cfi_offset 8, -20
 2883              		.cfi_offset 9, -16
ARM GAS  /tmp/ccZlncvZ.s 			page 52


 2884              		.cfi_offset 10, -12
 2885              		.cfi_offset 11, -8
 2886              		.cfi_offset 14, -4
 2887 0004 93B0     		sub	sp, sp, #76
 2888              		.cfi_def_cfa_offset 112
 2889              		.loc 1 1107 0
 2890 0006 08AC     		add	r4, sp, #32
 2891 0008 0094     		str	r4, [sp]
 2892 000a 09AC     		add	r4, sp, #36
 2893 000c 0194     		str	r4, [sp, #4]
 2894 000e 0AAC     		add	r4, sp, #40
 2895 0010 0294     		str	r4, [sp, #8]
 2896              		.loc 1 1090 0
 2897 0012 0646     		mov	r6, r0
 2898 0014 0C46     		mov	r4, r1
 2899 0016 1546     		mov	r5, r2
 2900 0018 1F46     		mov	r7, r3
 2901 001a DDF87090 		ldr	r9, [sp, #112]
 2902              		.loc 1 1107 0
 2903 001e FFF7FEFF 		bl	lwip_selscan
 2904              	.LVL338:
 2905              		.loc 1 1110 0
 2906 0022 8046     		mov	r8, r0
 2907 0024 0028     		cmp	r0, #0
 2908 0026 40F0DB80 		bne	.L408
 2909              		.loc 1 1111 0
 2910 002a B9F1000F 		cmp	r9, #0
 2911 002e 07D0     		beq	.L409
 2912              		.loc 1 1111 0 is_stmt 0 discriminator 1
 2913 0030 D9F80030 		ldr	r3, [r9]
 2914 0034 23B9     		cbnz	r3, .L409
 2915 0036 D9F80430 		ldr	r3, [r9, #4]
 2916 003a 002B     		cmp	r3, #0
 2917 003c 00F0D080 		beq	.L408
 2918              	.L409:
 2919              		.loc 1 1123 0 is_stmt 1
 2920 0040 0023     		movs	r3, #0
 2921              		.loc 1 1129 0
 2922 0042 0BAA     		add	r2, sp, #44
 2923 0044 1946     		mov	r1, r3
 2924 0046 11A8     		add	r0, sp, #68
 2925              	.LVL339:
 2926              		.loc 1 1125 0
 2927 0048 0D94     		str	r4, [sp, #52]
 2928              		.loc 1 1126 0
 2929 004a 0E95     		str	r5, [sp, #56]
 2930              		.loc 1 1127 0
 2931 004c 0F97     		str	r7, [sp, #60]
 2932              		.loc 1 1123 0
 2933 004e 0B93     		str	r3, [sp, #44]
 2934              		.loc 1 1124 0
 2935 0050 0C93     		str	r3, [sp, #48]
 2936              		.loc 1 1128 0
 2937 0052 1093     		str	r3, [sp, #64]
 2938              		.loc 1 1129 0
 2939 0054 0592     		str	r2, [sp, #20]
 2940 0056 FFF7FEFF 		bl	sys_sem_new
ARM GAS  /tmp/ccZlncvZ.s 			page 53


 2941              	.LVL340:
 2942              		.loc 1 1130 0
 2943 005a 0028     		cmp	r0, #0
 2944 005c 40F00881 		bne	.L445
 2945              		.loc 1 1140 0
 2946 0060 40F2000B 		movw	fp, #:lower16:.LANCHOR1
 2947 0064 C0F2000B 		movt	fp, #:upper16:.LANCHOR1
 2948 0068 DBF80030 		ldr	r3, [fp]
 2949 006c 0B93     		str	r3, [sp, #44]
 2950              		.loc 1 1141 0
 2951 006e 0BB1     		cbz	r3, .L411
 2952              		.loc 1 1142 0
 2953 0070 0BA9     		add	r1, sp, #44
 2954 0072 5960     		str	r1, [r3, #4]
 2955              	.L411:
 2956              		.loc 1 1146 0
 2957 0074 40F20002 		movw	r2, #:lower16:.LANCHOR2
 2958 0078 C0F20002 		movt	r2, #:upper16:.LANCHOR2
 2959              		.loc 1 1144 0
 2960 007c 0BAB     		add	r3, sp, #44
 2961 007e CBF80030 		str	r3, [fp]
 2962              		.loc 1 1146 0
 2963 0082 1368     		ldr	r3, [r2]
 2964 0084 0692     		str	r2, [sp, #24]
 2965              		.loc 1 1152 0
 2966 0086 002E     		cmp	r6, #0
 2967              		.loc 1 1146 0
 2968 0088 03F10103 		add	r3, r3, #1
 2969 008c C8BF     		it	gt
 2970 008e 40F2000A 		movwgt	r10, #:lower16:.LANCHOR0
 2971 0092 1360     		str	r3, [r2]
 2972              	.LVL341:
 2973 0094 C4BF     		itt	gt
 2974 0096 C0F2000A 		movtgt	r10, #:upper16:.LANCHOR0
 2975              		.loc 1 1152 0
 2976 009a 4FF00008 		movgt	r8, #0
 2977              	.LVL342:
 2978 009e 1FDD     		ble	.L422
 2979              	.LVL343:
 2980              	.L423:
 2981              		.loc 1 1153 0
 2982 00a0 002C     		cmp	r4, #0
 2983 00a2 00F0AE80 		beq	.L415
 2984              		.loc 1 1153 0 is_stmt 0 discriminator 1
 2985 00a6 4FEAE802 		asr	r2, r8, #3
 2986 00aa 08F00703 		and	r3, r8, #7
 2987 00ae A25C     		ldrb	r2, [r4, r2]	@ zero_extendqisi2
 2988 00b0 42FA03F3 		asr	r3, r2, r3
 2989 00b4 DB07     		lsls	r3, r3, #31
 2990 00b6 40F1A480 		bpl	.L415
 2991              	.L416:
 2992              	.LVL344:
 2993              	.LBB108:
 2994              	.LBB109:
 2995              	.LBB110:
 2996              		.loc 1 225 0 is_stmt 1
 2997 00ba B8F1030F 		cmp	r8, #3
ARM GAS  /tmp/ccZlncvZ.s 			page 54


 2998 00be 40F2E180 		bls	.L494
 2999              	.L421:
 3000              	.LBE110:
 3001              	.LBE109:
 3002              		.loc 1 1157 0
 3003 00c2 FFF7FEFF 		bl	port_halt
 3004              	.LVL345:
 3005 00c6 0023     		movs	r3, #0
 3006              	.L443:
 3007              		.loc 1 1159 0
 3008 00c8 5A69     		ldr	r2, [r3, #20]
 3009 00ca 0132     		adds	r2, r2, #1
 3010              		.loc 1 1160 0
 3011 00cc 002A     		cmp	r2, #0
 3012              		.loc 1 1159 0
 3013 00ce 5A61     		str	r2, [r3, #20]
 3014              		.loc 1 1160 0
 3015 00d0 40F3B080 		ble	.L495
 3016              	.LVL346:
 3017              	.L419:
 3018              	.LBE108:
 3019              		.loc 1 1152 0
 3020 00d4 08F10108 		add	r8, r8, #1
 3021              	.LVL347:
 3022 00d8 B045     		cmp	r8, r6
 3023 00da 0AF1180A 		add	r10, r10, #24
 3024 00de DFD1     		bne	.L423
 3025              	.LVL348:
 3026              	.L422:
 3027              		.loc 1 1167 0
 3028 00e0 08A9     		add	r1, sp, #32
 3029 00e2 09AA     		add	r2, sp, #36
 3030 00e4 0AAB     		add	r3, sp, #40
 3031 00e6 0091     		str	r1, [sp]
 3032 00e8 0192     		str	r2, [sp, #4]
 3033 00ea 0293     		str	r3, [sp, #8]
 3034 00ec 3046     		mov	r0, r6
 3035 00ee 2146     		mov	r1, r4
 3036 00f0 2A46     		mov	r2, r5
 3037 00f2 3B46     		mov	r3, r7
 3038 00f4 FFF7FEFF 		bl	lwip_selscan
 3039              	.LVL349:
 3040              		.loc 1 1168 0
 3041 00f8 8046     		mov	r8, r0
 3042 00fa E0B9     		cbnz	r0, .L496
 3043              		.loc 1 1172 0
 3044 00fc 0146     		mov	r1, r0
 3045              		.loc 1 1170 0
 3046 00fe B9F1000F 		cmp	r9, #0
 3047 0102 13D0     		beq	.L424
 3048              		.loc 1 1174 0
 3049 0104 99E80900 		ldmia	r9, {r0, r3}
 3050              	.LVL350:
 3051 0108 44F6D352 		movw	r2, #19923
 3052 010c 03F5FA73 		add	r3, r3, #500
 3053 0110 C1F26202 		movt	r2, 4194
 3054 0114 82FB0312 		smull	r1, r2, r2, r3
ARM GAS  /tmp/ccZlncvZ.s 			page 55


 3055              	.LVL351:
 3056 0118 DB17     		asrs	r3, r3, #31
 3057 011a C3EBA213 		rsb	r3, r3, r2, asr #6
 3058 011e 4FF47A71 		mov	r1, #1000
 3059 0122 01FB0031 		mla	r1, r1, r0, r3
 3060              	.LVL352:
 3061              		.loc 1 1177 0
 3062 0126 0029     		cmp	r1, #0
 3063 0128 08BF     		it	eq
 3064 012a 0121     		moveq	r1, #1
 3065              	.LVL353:
 3066              	.L424:
 3067              		.loc 1 1181 0
 3068 012c 11A8     		add	r0, sp, #68
 3069 012e FFF7FEFF 		bl	sys_arch_sem_wait
 3070              	.LVL354:
 3071 0132 0790     		str	r0, [sp, #28]
 3072              	.LVL355:
 3073 0134 01E0     		b	.L414
 3074              	.LVL356:
 3075              	.L496:
 3076              		.loc 1 1091 0
 3077 0136 0021     		movs	r1, #0
 3078 0138 0791     		str	r1, [sp, #28]
 3079              	.LVL357:
 3080              	.L414:
 3081              		.loc 1 1184 0
 3082 013a 002E     		cmp	r6, #0
 3083 013c C2BF     		ittt	gt
 3084 013e 40F2000A 		movwgt	r10, #:lower16:.LANCHOR0
 3085 0142 C0F2000A 		movtgt	r10, #:upper16:.LANCHOR0
 3086 0146 4FF00009 		movgt	r9, #0
 3087 014a 25DD     		ble	.L435
 3088              	.LVL358:
 3089              	.L436:
 3090              		.loc 1 1185 0
 3091 014c 44B1     		cbz	r4, .L428
 3092              		.loc 1 1185 0 is_stmt 0 discriminator 1
 3093 014e 4FEAE902 		asr	r2, r9, #3
 3094 0152 09F00703 		and	r3, r9, #7
 3095 0156 A25C     		ldrb	r2, [r4, r2]	@ zero_extendqisi2
 3096 0158 42FA03F3 		asr	r3, r2, r3
 3097 015c DA07     		lsls	r2, r3, #31
 3098 015e 0AD4     		bmi	.L429
 3099              	.L428:
 3100              		.loc 1 1185 0 discriminator 2
 3101 0160 002D     		cmp	r5, #0
 3102 0162 6AD0     		beq	.L430
 3103              		.loc 1 1186 0 is_stmt 1
 3104 0164 4FEAE902 		asr	r2, r9, #3
 3105 0168 09F00703 		and	r3, r9, #7
 3106 016c AA5C     		ldrb	r2, [r5, r2]	@ zero_extendqisi2
 3107 016e 42FA03F3 		asr	r3, r2, r3
 3108 0172 DB07     		lsls	r3, r3, #31
 3109 0174 61D5     		bpl	.L430
 3110              	.L429:
 3111              	.LVL359:
ARM GAS  /tmp/ccZlncvZ.s 			page 56


 3112              	.LBB113:
 3113              	.LBB114:
 3114              	.LBB115:
 3115              		.loc 1 225 0
 3116 0176 B9F1030F 		cmp	r9, #3
 3117 017a 7CD9     		bls	.L497
 3118              	.L434:
 3119              	.LBE115:
 3120              	.LBE114:
 3121              		.loc 1 1189 0
 3122 017c FFF7FEFF 		bl	port_halt
 3123              	.LVL360:
 3124 0180 0023     		movs	r3, #0
 3125              	.L444:
 3126              		.loc 1 1191 0
 3127 0182 5A69     		ldr	r2, [r3, #20]
 3128 0184 013A     		subs	r2, r2, #1
 3129              		.loc 1 1192 0
 3130 0186 002A     		cmp	r2, #0
 3131              		.loc 1 1191 0
 3132 0188 5A61     		str	r2, [r3, #20]
 3133              		.loc 1 1192 0
 3134 018a 62DB     		blt	.L498
 3135              	.LVL361:
 3136              	.L432:
 3137              	.LBE113:
 3138              		.loc 1 1184 0
 3139 018c 09F10109 		add	r9, r9, #1
 3140              	.LVL362:
 3141 0190 B145     		cmp	r9, r6
 3142 0192 0AF1180A 		add	r10, r10, #24
 3143 0196 D9D1     		bne	.L436
 3144              	.LVL363:
 3145              	.L435:
 3146              		.loc 1 1198 0
 3147 0198 0B9B     		ldr	r3, [sp, #44]
 3148 019a 0BB1     		cbz	r3, .L427
 3149              		.loc 1 1199 0
 3150 019c 0C9A     		ldr	r2, [sp, #48]
 3151 019e 5A60     		str	r2, [r3, #4]
 3152              	.L427:
 3153              		.loc 1 1201 0
 3154 01a0 DBF80020 		ldr	r2, [fp]
 3155 01a4 0599     		ldr	r1, [sp, #20]
 3156 01a6 8A42     		cmp	r2, r1
 3157              		.loc 1 1202 0
 3158 01a8 0C9A     		ldr	r2, [sp, #48]
 3159              		.loc 1 1201 0
 3160 01aa 55D0     		beq	.L499
 3161              		.loc 1 1205 0
 3162 01ac 002A     		cmp	r2, #0
 3163 01ae 5AD0     		beq	.L500
 3164              	.L440:
 3165              		.loc 1 1206 0
 3166 01b0 1360     		str	r3, [r2]
 3167              	.L439:
 3168              		.loc 1 1209 0
ARM GAS  /tmp/ccZlncvZ.s 			page 57


 3169 01b2 069A     		ldr	r2, [sp, #24]
 3170 01b4 1368     		ldr	r3, [r2]
 3171              		.loc 1 1212 0
 3172 01b6 11A8     		add	r0, sp, #68
 3173              		.loc 1 1209 0
 3174 01b8 0133     		adds	r3, r3, #1
 3175 01ba 1360     		str	r3, [r2]
 3176              		.loc 1 1212 0
 3177 01bc FFF7FEFF 		bl	sys_sem_free
 3178              	.LVL364:
 3179              		.loc 1 1213 0
 3180 01c0 079B     		ldr	r3, [sp, #28]
 3181 01c2 0133     		adds	r3, r3, #1
 3182 01c4 0CD0     		beq	.L408
 3183              		.loc 1 1222 0
 3184 01c6 08A9     		add	r1, sp, #32
 3185 01c8 09AA     		add	r2, sp, #36
 3186 01ca 0AAB     		add	r3, sp, #40
 3187 01cc 0091     		str	r1, [sp]
 3188 01ce 0192     		str	r2, [sp, #4]
 3189 01d0 0293     		str	r3, [sp, #8]
 3190 01d2 3046     		mov	r0, r6
 3191 01d4 2146     		mov	r1, r4
 3192 01d6 2A46     		mov	r2, r5
 3193 01d8 3B46     		mov	r3, r7
 3194 01da FFF7FEFF 		bl	lwip_selscan
 3195              	.LVL365:
 3196 01de 8046     		mov	r8, r0
 3197              	.LVL366:
 3198              	.L408:
 3199              		.loc 1 1228 0
 3200 01e0 14B1     		cbz	r4, .L441
 3201              		.loc 1 1229 0
 3202 01e2 9DF82030 		ldrb	r3, [sp, #32]	@ zero_extendqisi2
 3203 01e6 2370     		strb	r3, [r4]
 3204              	.L441:
 3205              		.loc 1 1231 0
 3206 01e8 15B1     		cbz	r5, .L442
 3207              		.loc 1 1232 0
 3208 01ea 9DF82430 		ldrb	r3, [sp, #36]	@ zero_extendqisi2
 3209 01ee 2B70     		strb	r3, [r5]
 3210              	.L442:
 3211              		.loc 1 1239 0
 3212 01f0 4046     		mov	r0, r8
 3213              		.loc 1 1234 0
 3214 01f2 1FB1     		cbz	r7, .L493
 3215              	.LVL367:
 3216              		.loc 1 1235 0
 3217 01f4 9DF82830 		ldrb	r3, [sp, #40]	@ zero_extendqisi2
 3218              		.loc 1 1239 0
 3219 01f8 4046     		mov	r0, r8
 3220              	.LVL368:
 3221              		.loc 1 1235 0
 3222 01fa 3B70     		strb	r3, [r7]
 3223              	.L493:
 3224              		.loc 1 1240 0
 3225 01fc 13B0     		add	sp, sp, #76
ARM GAS  /tmp/ccZlncvZ.s 			page 58


 3226              		@ sp needed
 3227 01fe BDE8F08F 		pop	{r4, r5, r6, r7, r8, r9, r10, fp, pc}
 3228              	.LVL369:
 3229              	.L415:
 3230              		.loc 1 1153 0 discriminator 2
 3231 0202 4DB1     		cbz	r5, .L417
 3232              		.loc 1 1154 0
 3233 0204 4FEAE802 		asr	r2, r8, #3
 3234 0208 08F00703 		and	r3, r8, #7
 3235 020c AA5C     		ldrb	r2, [r5, r2]	@ zero_extendqisi2
 3236 020e 42FA03F3 		asr	r3, r2, r3
 3237 0212 D807     		lsls	r0, r3, #31
 3238 0214 3FF551AF 		bmi	.L416
 3239              	.L417:
 3240              		.loc 1 1154 0 is_stmt 0 discriminator 1
 3241 0218 002F     		cmp	r7, #0
 3242 021a 3FF45BAF 		beq	.L419
 3243              		.loc 1 1155 0 is_stmt 1
 3244 021e 4FEAE802 		asr	r2, r8, #3
 3245 0222 08F00703 		and	r3, r8, #7
 3246 0226 BA5C     		ldrb	r2, [r7, r2]	@ zero_extendqisi2
 3247 0228 42FA03F3 		asr	r3, r2, r3
 3248 022c D907     		lsls	r1, r3, #31
 3249 022e 7FF551AF 		bpl	.L419
 3250 0232 42E7     		b	.L416
 3251              	.LVL370:
 3252              	.L495:
 3253              	.LBB118:
 3254              		.loc 1 1160 0 discriminator 1
 3255 0234 FFF7FEFF 		bl	port_halt
 3256              	.LVL371:
 3257 0238 4CE7     		b	.L419
 3258              	.LVL372:
 3259              	.L430:
 3260              	.LBE118:
 3261              		.loc 1 1186 0 discriminator 1
 3262 023a 002F     		cmp	r7, #0
 3263 023c A6D0     		beq	.L432
 3264              		.loc 1 1187 0
 3265 023e 4FEAE902 		asr	r2, r9, #3
 3266 0242 09F00703 		and	r3, r9, #7
 3267 0246 BA5C     		ldrb	r2, [r7, r2]	@ zero_extendqisi2
 3268 0248 42FA03F3 		asr	r3, r2, r3
 3269 024c D807     		lsls	r0, r3, #31
 3270 024e 9DD5     		bpl	.L432
 3271 0250 91E7     		b	.L429
 3272              	.LVL373:
 3273              	.L498:
 3274              	.LBB119:
 3275              		.loc 1 1192 0 discriminator 1
 3276 0252 FFF7FEFF 		bl	port_halt
 3277              	.LVL374:
 3278 0256 99E7     		b	.L432
 3279              	.LVL375:
 3280              	.L499:
 3281              	.LBE119:
 3282              		.loc 1 1202 0
ARM GAS  /tmp/ccZlncvZ.s 			page 59


 3283 0258 12B1     		cbz	r2, .L438
 3284              		.loc 1 1202 0 is_stmt 0 discriminator 1
 3285 025a FFF7FEFF 		bl	port_halt
 3286              	.LVL376:
 3287 025e 0B9B     		ldr	r3, [sp, #44]
 3288              	.L438:
 3289              		.loc 1 1203 0 is_stmt 1
 3290 0260 CBF80030 		str	r3, [fp]
 3291 0264 A5E7     		b	.L439
 3292              	.L500:
 3293              		.loc 1 1205 0 discriminator 1
 3294 0266 FFF7FEFF 		bl	port_halt
 3295              	.LVL377:
 3296 026a 0C9A     		ldr	r2, [sp, #48]
 3297 026c 0B9B     		ldr	r3, [sp, #44]
 3298 026e 9FE7     		b	.L440
 3299              	.LVL378:
 3300              	.L445:
 3301              		.loc 1 1133 0
 3302 0270 4FF0FF30 		mov	r0, #-1
 3303              	.LVL379:
 3304 0274 C2E7     		b	.L493
 3305              	.LVL380:
 3306              	.L497:
 3307              	.LBB120:
 3308              	.LBB117:
 3309              	.LBB116:
 3310              		.loc 1 228 0
 3311 0276 DAF80030 		ldr	r3, [r10]
 3312 027a 002B     		cmp	r3, #0
 3313 027c 3FF47EAF 		beq	.L434
 3314              		.loc 1 231 0
 3315 0280 5346     		mov	r3, r10
 3316 0282 7EE7     		b	.L444
 3317              	.LVL381:
 3318              	.L494:
 3319              	.LBE116:
 3320              	.LBE117:
 3321              	.LBE120:
 3322              	.LBB121:
 3323              	.LBB112:
 3324              	.LBB111:
 3325              		.loc 1 228 0
 3326 0284 DAF80030 		ldr	r3, [r10]
 3327 0288 002B     		cmp	r3, #0
 3328 028a 3FF41AAF 		beq	.L421
 3329              		.loc 1 231 0
 3330 028e 5346     		mov	r3, r10
 3331 0290 1AE7     		b	.L443
 3332              	.LBE111:
 3333              	.LBE112:
 3334              	.LBE121:
 3335              		.cfi_endproc
 3336              	.LFE25:
 3337              		.size	lwip_select, .-lwip_select
 3338 0292 00BFAFF3 		.section	.text.lwip_shutdown,"ax",%progbits
 3338      0080AFF3 
ARM GAS  /tmp/ccZlncvZ.s 			page 60


 3338      0080AFF3 
 3338      0080
 3339              		.align	2
 3340              		.p2align 4,,15
 3341              		.global	lwip_shutdown
 3342              		.thumb
 3343              		.thumb_func
 3344              		.type	lwip_shutdown, %function
 3345              	lwip_shutdown:
 3346              	.LFB27:
 3347              		.loc 1 1371 0
 3348              		.cfi_startproc
 3349              		@ args = 0, pretend = 0, frame = 0
 3350              		@ frame_needed = 0, uses_anonymous_args = 0
 3351              	.LVL382:
 3352              	.LBB122:
 3353              	.LBB123:
 3354              		.loc 1 199 0
 3355 0000 0328     		cmp	r0, #3
 3356              	.LBE123:
 3357              	.LBE122:
 3358              		.loc 1 1371 0
 3359 0002 10B5     		push	{r4, lr}
 3360              		.cfi_def_cfa_offset 8
 3361              		.cfi_offset 4, -8
 3362              		.cfi_offset 14, -4
 3363              	.LBB125:
 3364              	.LBB124:
 3365              		.loc 1 199 0
 3366 0004 0FD8     		bhi	.L509
 3367              		.loc 1 205 0
 3368 0006 00EB4000 		add	r0, r0, r0, lsl #1
 3369              	.LVL383:
 3370 000a 40F20003 		movw	r3, #:lower16:.LANCHOR0
 3371 000e C000     		lsls	r0, r0, #3
 3372 0010 C0F20003 		movt	r3, #:upper16:.LANCHOR0
 3373 0014 1C18     		adds	r4, r3, r0
 3374              	.LVL384:
 3375              		.loc 1 207 0
 3376 0016 1858     		ldr	r0, [r3, r0]
 3377 0018 28B1     		cbz	r0, .L509
 3378              	.LBE124:
 3379              	.LBE125:
 3380              		.loc 1 1384 0
 3381 001a 0378     		ldrb	r3, [r0]	@ zero_extendqisi2
 3382 001c 102B     		cmp	r3, #16
 3383 001e 05D0     		beq	.L517
 3384              		.loc 1 1385 0
 3385 0020 5F20     		movs	r0, #95
 3386 0022 2061     		str	r0, [r4, #16]
 3387              		.loc 1 1386 0
 3388 0024 10BD     		pop	{r4, pc}
 3389              	.LVL385:
 3390              	.L509:
 3391              		.loc 1 1380 0
 3392 0026 4FF0FF30 		mov	r0, #-1
 3393 002a 10BD     		pop	{r4, pc}
ARM GAS  /tmp/ccZlncvZ.s 			page 61


 3394              	.LVL386:
 3395              	.L517:
 3396              		.loc 1 1393 0
 3397 002c 31B1     		cbz	r1, .L510
 3398              		.loc 1 1395 0
 3399 002e 0129     		cmp	r1, #1
 3400 0030 18D0     		beq	.L511
 3401              		.loc 1 1397 0
 3402 0032 0229     		cmp	r1, #2
 3403 0034 19D0     		beq	.L512
 3404              		.loc 1 1401 0
 3405 0036 1620     		movs	r0, #22
 3406 0038 2061     		str	r0, [r4, #16]
 3407              		.loc 1 1402 0
 3408 003a 10BD     		pop	{r4, pc}
 3409              	.LVL387:
 3410              	.L510:
 3411              		.loc 1 1374 0
 3412 003c 0A46     		mov	r2, r1
 3413              		.loc 1 1394 0
 3414 003e 0121     		movs	r1, #1
 3415              	.LVL388:
 3416              	.L504:
 3417              		.loc 1 1404 0
 3418 0040 FFF7FEFF 		bl	netconn_shutdown
 3419              	.LVL389:
 3420              		.loc 1 1406 0
 3421 0044 4342     		negs	r3, r0
 3422 0046 0F2B     		cmp	r3, #15
 3423 0048 9BBF     		ittet	ls
 3424 004a 40F20002 		movwls	r2, #:lower16:.LANCHOR3
 3425 004e C0F20002 		movtls	r2, #:upper16:.LANCHOR3
 3426 0052 0523     		movhi	r3, #5
 3427 0054 52F82330 		ldrls	r3, [r2, r3, lsl #2]
 3428              		.loc 1 1407 0
 3429 0058 0038     		subs	r0, r0, #0
 3430 005a 18BF     		it	ne
 3431 005c 6FF00000 		mvnne	r0, #0
 3432              	.LVL390:
 3433              		.loc 1 1406 0
 3434 0060 2361     		str	r3, [r4, #16]
 3435 0062 10BD     		pop	{r4, pc}
 3436              	.LVL391:
 3437              	.L511:
 3438              		.loc 1 1396 0
 3439 0064 0A46     		mov	r2, r1
 3440              		.loc 1 1374 0
 3441 0066 0021     		movs	r1, #0
 3442              	.LVL392:
 3443 0068 EAE7     		b	.L504
 3444              	.LVL393:
 3445              	.L512:
 3446              		.loc 1 1399 0
 3447 006a 0122     		movs	r2, #1
 3448              		.loc 1 1398 0
 3449 006c 1146     		mov	r1, r2
 3450              	.LVL394:
ARM GAS  /tmp/ccZlncvZ.s 			page 62


 3451 006e E7E7     		b	.L504
 3452              		.cfi_endproc
 3453              	.LFE27:
 3454              		.size	lwip_shutdown, .-lwip_shutdown
 3455              		.section	.text.lwip_getpeername,"ax",%progbits
 3456              		.align	2
 3457              		.p2align 4,,15
 3458              		.global	lwip_getpeername
 3459              		.thumb
 3460              		.thumb_func
 3461              		.type	lwip_getpeername, %function
 3462              	lwip_getpeername:
 3463              	.LFB29:
 3464              		.loc 1 1447 0
 3465              		.cfi_startproc
 3466              		@ args = 0, pretend = 0, frame = 0
 3467              		@ frame_needed = 0, uses_anonymous_args = 0
 3468              		@ link register save eliminated.
 3469              	.LVL395:
 3470              		.loc 1 1448 0
 3471 0000 0023     		movs	r3, #0
 3472 0002 FFF7FEBF 		b	lwip_getaddrname
 3473              	.LVL396:
 3474              		.cfi_endproc
 3475              	.LFE29:
 3476              		.size	lwip_getpeername, .-lwip_getpeername
 3477 0006 00BFAFF3 		.section	.text.lwip_getsockname,"ax",%progbits
 3477      0080AFF3 
 3477      0080
 3478              		.align	2
 3479              		.p2align 4,,15
 3480              		.global	lwip_getsockname
 3481              		.thumb
 3482              		.thumb_func
 3483              		.type	lwip_getsockname, %function
 3484              	lwip_getsockname:
 3485              	.LFB30:
 3486              		.loc 1 1453 0
 3487              		.cfi_startproc
 3488              		@ args = 0, pretend = 0, frame = 0
 3489              		@ frame_needed = 0, uses_anonymous_args = 0
 3490              		@ link register save eliminated.
 3491              	.LVL397:
 3492              		.loc 1 1454 0
 3493 0000 0123     		movs	r3, #1
 3494 0002 FFF7FEBF 		b	lwip_getaddrname
 3495              	.LVL398:
 3496              		.cfi_endproc
 3497              	.LFE30:
 3498              		.size	lwip_getsockname, .-lwip_getsockname
 3499 0006 00BFAFF3 		.section	.text.lwip_getsockopt,"ax",%progbits
 3499      0080AFF3 
 3499      0080
 3500              		.align	2
 3501              		.p2align 4,,15
 3502              		.global	lwip_getsockopt
 3503              		.thumb
ARM GAS  /tmp/ccZlncvZ.s 			page 63


 3504              		.thumb_func
 3505              		.type	lwip_getsockopt, %function
 3506              	lwip_getsockopt:
 3507              	.LFB31:
 3508              		.loc 1 1459 0
 3509              		.cfi_startproc
 3510              		@ args = 4, pretend = 0, frame = 24
 3511              		@ frame_needed = 0, uses_anonymous_args = 0
 3512              	.LVL399:
 3513 0000 2DE9F047 		push	{r4, r5, r6, r7, r8, r9, r10, lr}
 3514              		.cfi_def_cfa_offset 32
 3515              		.cfi_offset 4, -32
 3516              		.cfi_offset 5, -28
 3517              		.cfi_offset 6, -24
 3518              		.cfi_offset 7, -20
 3519              		.cfi_offset 8, -16
 3520              		.cfi_offset 9, -12
 3521              		.cfi_offset 10, -8
 3522              		.cfi_offset 14, -4
 3523 0004 86B0     		sub	sp, sp, #24
 3524              		.cfi_def_cfa_offset 56
 3525              	.LBB126:
 3526              	.LBB127:
 3527              		.loc 1 199 0
 3528 0006 0328     		cmp	r0, #3
 3529              	.LBE127:
 3530              	.LBE126:
 3531              		.loc 1 1459 0
 3532 0008 0C46     		mov	r4, r1
 3533 000a 1746     		mov	r7, r2
 3534 000c 0E9E     		ldr	r6, [sp, #56]
 3535              	.LBB129:
 3536              	.LBB128:
 3537              		.loc 1 199 0
 3538 000e 20D8     		bhi	.L538
 3539              		.loc 1 205 0
 3540 0010 00EB4000 		add	r0, r0, r0, lsl #1
 3541              	.LVL400:
 3542 0014 40F20005 		movw	r5, #:lower16:.LANCHOR0
 3543 0018 4FEAC009 		lsl	r9, r0, #3
 3544 001c C0F20005 		movt	r5, #:upper16:.LANCHOR0
 3545 0020 05EB090A 		add	r10, r5, r9
 3546              	.LVL401:
 3547              		.loc 1 207 0
 3548 0024 55F80910 		ldr	r1, [r5, r9]
 3549              	.LVL402:
 3550 0028 99B1     		cbz	r1, .L538
 3551              	.LBE128:
 3552              	.LBE129:
 3553              		.loc 1 1468 0
 3554 002a 002E     		cmp	r6, #0
 3555 002c 18BF     		it	ne
 3556 002e 002B     		cmpne	r3, #0
 3557 0030 14BF     		ite	ne
 3558 0032 0020     		movne	r0, #0
 3559 0034 0120     		moveq	r0, #1
 3560 0036 63D0     		beq	.L568
ARM GAS  /tmp/ccZlncvZ.s 			page 64


 3561              		.loc 1 1474 0
 3562 0038 062C     		cmp	r4, #6
 3563 003a 0FD0     		beq	.L524
 3564 003c 40F6FF72 		movw	r2, #4095
 3565              	.LVL403:
 3566 0040 9442     		cmp	r4, r2
 3567 0042 3AD0     		beq	.L525
 3568 0044 7CB1     		cbz	r4, .L569
 3569              	.L549:
 3570              		.loc 1 1583 0
 3571 0046 5C23     		movs	r3, #92
 3572              	.LVL404:
 3573              	.L536:
 3574              		.loc 1 1634 0
 3575 0048 CAF81030 		str	r3, [r10, #16]
 3576              		.loc 1 1635 0
 3577 004c 4FF0FF30 		mov	r0, #-1
 3578 0050 01E0     		b	.L563
 3579              	.LVL405:
 3580              	.L538:
 3581              		.loc 1 1465 0
 3582 0052 4FF0FF30 		mov	r0, #-1
 3583              	.LVL406:
 3584              	.L563:
 3585              		.loc 1 1655 0
 3586 0056 06B0     		add	sp, sp, #24
 3587              		@ sp needed
 3588 0058 BDE8F087 		pop	{r4, r5, r6, r7, r8, r9, r10, pc}
 3589              	.LVL407:
 3590              	.L524:
 3591              		.loc 1 1574 0
 3592 005c 3268     		ldr	r2, [r6]
 3593              	.LVL408:
 3594 005e 032A     		cmp	r2, #3
 3595 0060 42D8     		bhi	.L570
 3596              	.L547:
 3597 0062 1623     		movs	r3, #22
 3598              	.LVL409:
 3599 0064 F0E7     		b	.L536
 3600              	.LVL410:
 3601              	.L569:
 3602              		.loc 1 1533 0
 3603 0066 7A1E     		subs	r2, r7, #1
 3604 0068 012A     		cmp	r2, #1
 3605 006a ECD8     		bhi	.L549
 3606              	.L567:
 3607              		.loc 1 1539 0
 3608 006c 3268     		ldr	r2, [r6]
 3609 006e 032A     		cmp	r2, #3
 3610 0070 F7D9     		bls	.L547
 3611              	.LVL411:
 3612              	.L530:
 3613              		.loc 1 1648 0
 3614 0072 40F20000 		movw	r0, #:lower16:lwip_getsockopt_internal
 3615              		.loc 1 1647 0
 3616 0076 4FF00008 		mov	r8, #0
 3617              		.loc 1 1648 0
ARM GAS  /tmp/ccZlncvZ.s 			page 65


 3618 007a 6946     		mov	r1, sp
 3619 007c 0122     		movs	r2, #1
 3620 007e C0F20000 		movt	r0, #:upper16:lwip_getsockopt_internal
 3621              		.loc 1 1645 0
 3622 0082 0393     		str	r3, [sp, #12]
 3623              		.loc 1 1639 0
 3624 0084 CDF800A0 		str	r10, [sp]
 3625              		.loc 1 1643 0
 3626 0088 0194     		str	r4, [sp, #4]
 3627              		.loc 1 1644 0
 3628 008a 0297     		str	r7, [sp, #8]
 3629              		.loc 1 1646 0
 3630 008c 0496     		str	r6, [sp, #16]
 3631              		.loc 1 1647 0
 3632 008e 8DF81480 		strb	r8, [sp, #20]
 3633              		.loc 1 1648 0
 3634 0092 FFF7FEFF 		bl	tcpip_callback_with_block
 3635              	.LVL412:
 3636              		.loc 1 1649 0
 3637 0096 55F80900 		ldr	r0, [r5, r9]
 3638 009a 4146     		mov	r1, r8
 3639 009c 0C30     		adds	r0, r0, #12
 3640 009e FFF7FEFF 		bl	sys_arch_sem_wait
 3641              	.LVL413:
 3642              		.loc 1 1653 0
 3643 00a2 9DF91400 		ldrsb	r0, [sp, #20]
 3644 00a6 CAF81000 		str	r0, [r10, #16]
 3645              		.loc 1 1654 0
 3646 00aa B0EB0800 		subs	r0, r0, r8
 3647 00ae 18BF     		it	ne
 3648 00b0 6FF00000 		mvnne	r0, #0
 3649              		.loc 1 1655 0
 3650 00b4 06B0     		add	sp, sp, #24
 3651              		@ sp needed
 3652 00b6 BDE8F087 		pop	{r4, r5, r6, r7, r8, r9, r10, pc}
 3653              	.LVL414:
 3654              	.L525:
 3655              		.loc 1 1478 0
 3656 00ba 202F     		cmp	r7, #32
 3657 00bc D6D0     		beq	.L567
 3658 00be 1ADD     		ble	.L571
 3659 00c0 41F20702 		movw	r2, #4103
 3660 00c4 9742     		cmp	r7, r2
 3661 00c6 BEDB     		blt	.L549
 3662 00c8 0132     		adds	r2, r2, #1
 3663 00ca 9742     		cmp	r7, r2
 3664 00cc CEDD     		ble	.L567
 3665 00ce 0232     		adds	r2, r2, #2
 3666 00d0 9742     		cmp	r7, r2
 3667 00d2 B8D1     		bne	.L549
 3668              		.loc 1 1512 0
 3669 00d4 3268     		ldr	r2, [r6]
 3670              		.loc 1 1516 0
 3671 00d6 0878     		ldrb	r0, [r1]	@ zero_extendqisi2
 3672              		.loc 1 1460 0
 3673 00d8 032A     		cmp	r2, #3
 3674 00da 94BF     		ite	ls
ARM GAS  /tmp/ccZlncvZ.s 			page 66


 3675 00dc 1622     		movls	r2, #22
 3676 00de 0022     		movhi	r2, #0
 3677              	.LVL415:
 3678              		.loc 1 1516 0
 3679 00e0 2028     		cmp	r0, #32
 3680 00e2 13D0     		beq	.L572
 3681              	.L544:
 3682 00e4 6123     		movs	r3, #97
 3683              	.LVL416:
 3684 00e6 AFE7     		b	.L536
 3685              	.LVL417:
 3686              	.L570:
 3687              		.loc 1 1580 0
 3688 00e8 0A78     		ldrb	r2, [r1]	@ zero_extendqisi2
 3689 00ea 102A     		cmp	r2, #16
 3690 00ec B3D1     		bne	.L563
 3691              		.loc 1 1583 0
 3692 00ee 7A1E     		subs	r2, r7, #1
 3693 00f0 012A     		cmp	r2, #1
 3694 00f2 A8D8     		bhi	.L549
 3695 00f4 BDE7     		b	.L530
 3696              	.L571:
 3697              		.loc 1 1478 0
 3698 00f6 022F     		cmp	r7, #2
 3699 00f8 B8D0     		beq	.L567
 3700 00fa 082F     		cmp	r7, #8
 3701 00fc A3D1     		bne	.L549
 3702 00fe B5E7     		b	.L567
 3703              	.LVL418:
 3704              	.L568:
 3705              		.loc 1 1469 0
 3706 0100 0E23     		movs	r3, #14
 3707              	.LVL419:
 3708 0102 CAF81030 		str	r3, [r10, #16]
 3709              		.loc 1 1470 0
 3710 0106 4FF0FF30 		mov	r0, #-1
 3711 010a A4E7     		b	.L563
 3712              	.LVL420:
 3713              	.L572:
 3714              		.loc 1 1517 0 discriminator 1
 3715 010c 4968     		ldr	r1, [r1, #4]
 3716 010e 097C     		ldrb	r1, [r1, #16]	@ zero_extendqisi2
 3717              		.loc 1 1516 0 discriminator 1
 3718 0110 8907     		lsls	r1, r1, #30
 3719 0112 E7D4     		bmi	.L544
 3720              		.loc 1 1633 0
 3721 0114 002A     		cmp	r2, #0
 3722 0116 ACD0     		beq	.L530
 3723 0118 53B2     		sxtb	r3, r2
 3724              	.LVL421:
 3725 011a 95E7     		b	.L536
 3726              		.cfi_endproc
 3727              	.LFE31:
 3728              		.size	lwip_getsockopt, .-lwip_getsockopt
 3729              		.section	.text.lwip_setsockopt,"ax",%progbits
 3730              		.align	2
 3731              		.p2align 4,,15
ARM GAS  /tmp/ccZlncvZ.s 			page 67


 3732              		.global	lwip_setsockopt
 3733              		.thumb
 3734              		.thumb_func
 3735              		.type	lwip_setsockopt, %function
 3736              	lwip_setsockopt:
 3737              	.LFB33:
 3738              		.loc 1 1867 0
 3739              		.cfi_startproc
 3740              		@ args = 4, pretend = 0, frame = 24
 3741              		@ frame_needed = 0, uses_anonymous_args = 0
 3742              	.LVL422:
 3743 0000 2DE9F043 		push	{r4, r5, r6, r7, r8, r9, lr}
 3744              		.cfi_def_cfa_offset 28
 3745              		.cfi_offset 4, -28
 3746              		.cfi_offset 5, -24
 3747              		.cfi_offset 6, -20
 3748              		.cfi_offset 7, -16
 3749              		.cfi_offset 8, -12
 3750              		.cfi_offset 9, -8
 3751              		.cfi_offset 14, -4
 3752              	.LBB130:
 3753              	.LBB131:
 3754              		.loc 1 199 0
 3755 0004 0328     		cmp	r0, #3
 3756              	.LBE131:
 3757              	.LBE130:
 3758              		.loc 1 1867 0
 3759 0006 87B0     		sub	sp, sp, #28
 3760              		.cfi_def_cfa_offset 56
 3761              		.loc 1 1867 0
 3762 0008 0C46     		mov	r4, r1
 3763 000a 1646     		mov	r6, r2
 3764              	.LBB133:
 3765              	.LBB132:
 3766              		.loc 1 199 0
 3767 000c 1BD8     		bhi	.L590
 3768              		.loc 1 205 0
 3769 000e 00EB4000 		add	r0, r0, r0, lsl #1
 3770              	.LVL423:
 3771 0012 40F20005 		movw	r5, #:lower16:.LANCHOR0
 3772 0016 4FEAC008 		lsl	r8, r0, #3
 3773 001a C0F20005 		movt	r5, #:upper16:.LANCHOR0
 3774 001e 05EB0809 		add	r9, r5, r8
 3775              	.LVL424:
 3776              		.loc 1 207 0
 3777 0022 55F80810 		ldr	r1, [r5, r8]
 3778              	.LVL425:
 3779 0026 71B1     		cbz	r1, .L590
 3780              	.LVL426:
 3781              	.LBE132:
 3782              	.LBE133:
 3783              		.loc 1 1876 0
 3784 0028 002B     		cmp	r3, #0
 3785 002a 63D0     		beq	.L618
 3786              		.loc 1 1882 0
 3787 002c 062C     		cmp	r4, #6
 3788 002e 0FD0     		beq	.L577
ARM GAS  /tmp/ccZlncvZ.s 			page 68


 3789 0030 40F6FF72 		movw	r2, #4095
 3790              	.LVL427:
 3791 0034 9442     		cmp	r4, r2
 3792 0036 39D0     		beq	.L578
 3793 0038 7CB1     		cbz	r4, .L619
 3794              	.L601:
 3795              		.loc 1 2000 0
 3796 003a 5C23     		movs	r3, #92
 3797              	.LVL428:
 3798              	.L588:
 3799              		.loc 1 2050 0
 3800 003c C9F81030 		str	r3, [r9, #16]
 3801              		.loc 1 2051 0
 3802 0040 4FF0FF30 		mov	r0, #-1
 3803 0044 01E0     		b	.L612
 3804              	.LVL429:
 3805              	.L590:
 3806              		.loc 1 1873 0
 3807 0046 4FF0FF30 		mov	r0, #-1
 3808              	.LVL430:
 3809              	.L612:
 3810              		.loc 1 2072 0
 3811 004a 07B0     		add	sp, sp, #28
 3812              		@ sp needed
 3813 004c BDE8F083 		pop	{r4, r5, r6, r7, r8, r9, pc}
 3814              	.LVL431:
 3815              	.L577:
 3816              		.loc 1 1991 0
 3817 0050 0E9A     		ldr	r2, [sp, #56]
 3818              	.LVL432:
 3819 0052 032A     		cmp	r2, #3
 3820 0054 33D8     		bhi	.L620
 3821              	.L599:
 3822 0056 1623     		movs	r3, #22
 3823              	.LVL433:
 3824 0058 F0E7     		b	.L588
 3825              	.LVL434:
 3826              	.L619:
 3827              		.loc 1 1936 0
 3828 005a 721E     		subs	r2, r6, #1
 3829 005c 012A     		cmp	r2, #1
 3830 005e ECD8     		bhi	.L601
 3831              	.L617:
 3832              		.loc 1 1942 0
 3833 0060 0E9A     		ldr	r2, [sp, #56]
 3834 0062 032A     		cmp	r2, #3
 3835 0064 F7D9     		bls	.L599
 3836              	.LVL435:
 3837              	.L582:
 3838              		.loc 1 2065 0
 3839 0066 40F20000 		movw	r0, #:lower16:lwip_setsockopt_internal
 3840              		.loc 1 2064 0
 3841 006a 0027     		movs	r7, #0
 3842              		.loc 1 2065 0
 3843 006c 6946     		mov	r1, sp
 3844 006e 0122     		movs	r2, #1
 3845              		.loc 1 2062 0
ARM GAS  /tmp/ccZlncvZ.s 			page 69


 3846 0070 0393     		str	r3, [sp, #12]
 3847              		.loc 1 2065 0
 3848 0072 C0F20000 		movt	r0, #:upper16:lwip_setsockopt_internal
 3849              		.loc 1 2063 0
 3850 0076 0EAB     		add	r3, sp, #56
 3851              	.LVL436:
 3852 0078 0493     		str	r3, [sp, #16]
 3853              		.loc 1 2056 0
 3854 007a CDF80090 		str	r9, [sp]
 3855              		.loc 1 2060 0
 3856 007e 0194     		str	r4, [sp, #4]
 3857              		.loc 1 2061 0
 3858 0080 0296     		str	r6, [sp, #8]
 3859              		.loc 1 2064 0
 3860 0082 8DF81470 		strb	r7, [sp, #20]
 3861              		.loc 1 2065 0
 3862 0086 FFF7FEFF 		bl	tcpip_callback_with_block
 3863              	.LVL437:
 3864              		.loc 1 2066 0
 3865 008a 55F80800 		ldr	r0, [r5, r8]
 3866 008e 3946     		mov	r1, r7
 3867 0090 0C30     		adds	r0, r0, #12
 3868 0092 FFF7FEFF 		bl	sys_arch_sem_wait
 3869              	.LVL438:
 3870              		.loc 1 2070 0
 3871 0096 9DF91400 		ldrsb	r0, [sp, #20]
 3872 009a C9F81000 		str	r0, [r9, #16]
 3873              		.loc 1 2071 0
 3874 009e C01B     		subs	r0, r0, r7
 3875 00a0 18BF     		it	ne
 3876 00a2 6FF00000 		mvnne	r0, #0
 3877              		.loc 1 2072 0
 3878 00a6 07B0     		add	sp, sp, #28
 3879              		@ sp needed
 3880 00a8 BDE8F083 		pop	{r4, r5, r6, r7, r8, r9, pc}
 3881              	.LVL439:
 3882              	.L578:
 3883              		.loc 1 1886 0
 3884 00ac 202E     		cmp	r6, #32
 3885 00ae D7D0     		beq	.L617
 3886 00b0 41F20A02 		movw	r2, #4106
 3887 00b4 9642     		cmp	r6, r2
 3888 00b6 0BD0     		beq	.L581
 3889 00b8 082E     		cmp	r6, #8
 3890 00ba BED1     		bne	.L601
 3891 00bc D0E7     		b	.L617
 3892              	.L620:
 3893              		.loc 1 1997 0
 3894 00be 0A78     		ldrb	r2, [r1]	@ zero_extendqisi2
 3895 00c0 102A     		cmp	r2, #16
 3896              		.loc 1 1998 0
 3897 00c2 18BF     		it	ne
 3898 00c4 0020     		movne	r0, #0
 3899              		.loc 1 1997 0
 3900 00c6 C0D1     		bne	.L612
 3901              		.loc 1 2000 0
 3902 00c8 721E     		subs	r2, r6, #1
ARM GAS  /tmp/ccZlncvZ.s 			page 70


 3903 00ca 012A     		cmp	r2, #1
 3904 00cc B5D8     		bhi	.L601
 3905 00ce CAE7     		b	.L582
 3906              	.L581:
 3907              		.loc 1 1916 0
 3908 00d0 0E9A     		ldr	r2, [sp, #56]
 3909              		.loc 1 1920 0
 3910 00d2 0878     		ldrb	r0, [r1]	@ zero_extendqisi2
 3911              		.loc 1 1869 0
 3912 00d4 032A     		cmp	r2, #3
 3913 00d6 94BF     		ite	ls
 3914 00d8 1622     		movls	r2, #22
 3915 00da 0022     		movhi	r2, #0
 3916              	.LVL440:
 3917              		.loc 1 1920 0
 3918 00dc 2028     		cmp	r0, #32
 3919 00de 01D0     		beq	.L621
 3920              	.L596:
 3921 00e0 6123     		movs	r3, #97
 3922              	.LVL441:
 3923 00e2 ABE7     		b	.L588
 3924              	.LVL442:
 3925              	.L621:
 3926              		.loc 1 1921 0 discriminator 1
 3927 00e4 4968     		ldr	r1, [r1, #4]
 3928 00e6 097C     		ldrb	r1, [r1, #16]	@ zero_extendqisi2
 3929              		.loc 1 1920 0 discriminator 1
 3930 00e8 8807     		lsls	r0, r1, #30
 3931 00ea F9D4     		bmi	.L596
 3932              		.loc 1 2049 0
 3933 00ec 002A     		cmp	r2, #0
 3934 00ee BAD0     		beq	.L582
 3935 00f0 53B2     		sxtb	r3, r2
 3936              	.LVL443:
 3937 00f2 A3E7     		b	.L588
 3938              	.LVL444:
 3939              	.L618:
 3940              		.loc 1 1877 0
 3941 00f4 0E23     		movs	r3, #14
 3942              	.LVL445:
 3943 00f6 C9F81030 		str	r3, [r9, #16]
 3944              		.loc 1 1878 0
 3945 00fa 4FF0FF30 		mov	r0, #-1
 3946 00fe A4E7     		b	.L612
 3947              		.cfi_endproc
 3948              	.LFE33:
 3949              		.size	lwip_setsockopt, .-lwip_setsockopt
 3950              		.section	.text.lwip_ioctl,"ax",%progbits
 3951              		.align	2
 3952              		.p2align 4,,15
 3953              		.global	lwip_ioctl
 3954              		.thumb
 3955              		.thumb_func
 3956              		.type	lwip_ioctl, %function
 3957              	lwip_ioctl:
 3958              	.LFB35:
 3959              		.loc 1 2285 0
ARM GAS  /tmp/ccZlncvZ.s 			page 71


 3960              		.cfi_startproc
 3961              		@ args = 0, pretend = 0, frame = 0
 3962              		@ frame_needed = 0, uses_anonymous_args = 0
 3963              		@ link register save eliminated.
 3964              	.LVL446:
 3965              	.LBB134:
 3966              	.LBB135:
 3967              		.loc 1 199 0
 3968 0000 0328     		cmp	r0, #3
 3969              	.LBE135:
 3970              	.LBE134:
 3971              		.loc 1 2285 0
 3972 0002 10B4     		push	{r4}
 3973              		.cfi_def_cfa_offset 4
 3974              		.cfi_offset 4, -4
 3975              	.LBB137:
 3976              	.LBB136:
 3977              		.loc 1 199 0
 3978 0004 1BD8     		bhi	.L631
 3979              		.loc 1 205 0
 3980 0006 00EB4000 		add	r0, r0, r0, lsl #1
 3981              	.LVL447:
 3982 000a 40F20003 		movw	r3, #:lower16:.LANCHOR0
 3983 000e C000     		lsls	r0, r0, #3
 3984 0010 C0F20003 		movt	r3, #:upper16:.LANCHOR0
 3985 0014 1C18     		adds	r4, r3, r0
 3986              	.LVL448:
 3987              		.loc 1 207 0
 3988 0016 1B58     		ldr	r3, [r3, r0]
 3989 0018 8BB1     		cbz	r3, .L631
 3990              	.LBE136:
 3991              	.LBE137:
 3992              		.loc 1 2297 0
 3993 001a 46F27E60 		movw	r0, #26238
 3994 001e C8F20400 		movt	r0, 32772
 3995 0022 8142     		cmp	r1, r0
 3996 0024 15D1     		bne	.L638
 3997              	.LVL449:
 3998              		.loc 1 2330 0
 3999 0026 7AB1     		cbz	r2, .L626
 4000              		.loc 1 2330 0 is_stmt 0 discriminator 1
 4001 0028 1268     		ldr	r2, [r2]
 4002              	.LVL450:
 4003 002a 6AB1     		cbz	r2, .L626
 4004              	.LVL451:
 4005              		.loc 1 2333 0 is_stmt 1
 4006 002c 1A7F     		ldrb	r2, [r3, #28]	@ zero_extendqisi2
 4007 002e 42F00202 		orr	r2, r2, #2
 4008 0032 1A77     		strb	r2, [r3, #28]
 4009              	.LVL452:
 4010              	.L629:
 4011              		.loc 1 2335 0
 4012 0034 0020     		movs	r0, #0
 4013 0036 2061     		str	r0, [r4, #16]
 4014              		.loc 1 2343 0
 4015 0038 5DF8044B 		ldr	r4, [sp], #4
 4016              	.LVL453:
ARM GAS  /tmp/ccZlncvZ.s 			page 72


 4017 003c 7047     		bx	lr
 4018              	.LVL454:
 4019              	.L631:
 4020              		.loc 1 2294 0
 4021 003e 4FF0FF30 		mov	r0, #-1
 4022              	.L636:
 4023              		.loc 1 2343 0
 4024 0042 5DF8044B 		ldr	r4, [sp], #4
 4025 0046 7047     		bx	lr
 4026              	.LVL455:
 4027              	.L626:
 4028              		.loc 1 2333 0
 4029 0048 1A7F     		ldrb	r2, [r3, #28]	@ zero_extendqisi2
 4030 004a 22F00202 		bic	r2, r2, #2
 4031 004e 1A77     		strb	r2, [r3, #28]
 4032 0050 F0E7     		b	.L629
 4033              	.LVL456:
 4034              	.L638:
 4035              		.loc 1 2340 0
 4036 0052 2623     		movs	r3, #38
 4037 0054 2361     		str	r3, [r4, #16]
 4038              		.loc 1 2341 0
 4039 0056 4FF0FF30 		mov	r0, #-1
 4040 005a F2E7     		b	.L636
 4041              		.cfi_endproc
 4042              	.LFE35:
 4043              		.size	lwip_ioctl, .-lwip_ioctl
 4044 005c AFF30080 		.section	.text.lwip_fcntl,"ax",%progbits
 4045              		.align	2
 4046              		.p2align 4,,15
 4047              		.global	lwip_fcntl
 4048              		.thumb
 4049              		.thumb_func
 4050              		.type	lwip_fcntl, %function
 4051              	lwip_fcntl:
 4052              	.LFB36:
 4053              		.loc 1 2351 0
 4054              		.cfi_startproc
 4055              		@ args = 0, pretend = 0, frame = 0
 4056              		@ frame_needed = 0, uses_anonymous_args = 0
 4057              		@ link register save eliminated.
 4058              	.LVL457:
 4059              	.LBB138:
 4060              	.LBB139:
 4061              		.loc 1 199 0
 4062 0000 0328     		cmp	r0, #3
 4063 0002 15D8     		bhi	.L651
 4064              	.LVL458:
 4065              		.loc 1 205 0
 4066 0004 40F20003 		movw	r3, #:lower16:.LANCHOR0
 4067 0008 00EB4000 		add	r0, r0, r0, lsl #1
 4068              	.LVL459:
 4069 000c C0F20003 		movt	r3, #:upper16:.LANCHOR0
 4070              		.loc 1 207 0
 4071 0010 53F83030 		ldr	r3, [r3, r0, lsl #3]
 4072 0014 63B1     		cbz	r3, .L651
 4073              	.LVL460:
ARM GAS  /tmp/ccZlncvZ.s 			page 73


 4074              	.LBE139:
 4075              	.LBE138:
 4076              		.loc 1 2359 0
 4077 0016 0329     		cmp	r1, #3
 4078 0018 0DD0     		beq	.L642
 4079 001a 0429     		cmp	r1, #4
 4080 001c 08D1     		bne	.L651
 4081              		.loc 1 2364 0
 4082 001e 32F00100 		bics	r0, r2, #1
 4083 0022 05D1     		bne	.L651
 4084              		.loc 1 2366 0
 4085 0024 5AB1     		cbz	r2, .L644
 4086              		.loc 1 2366 0 is_stmt 0 discriminator 1
 4087 0026 1A7F     		ldrb	r2, [r3, #28]	@ zero_extendqisi2
 4088              	.LVL461:
 4089 0028 42F00202 		orr	r2, r2, #2
 4090 002c 1A77     		strb	r2, [r3, #28]
 4091 002e 7047     		bx	lr
 4092              	.LVL462:
 4093              	.L651:
 4094              		.loc 1 2353 0 is_stmt 1
 4095 0030 4FF0FF30 		mov	r0, #-1
 4096 0034 7047     		bx	lr
 4097              	.LVL463:
 4098              	.L642:
 4099              		.loc 1 2361 0
 4100 0036 187F     		ldrb	r0, [r3, #28]	@ zero_extendqisi2
 4101 0038 C0F34000 		ubfx	r0, r0, #1, #1
 4102              	.LVL464:
 4103              		.loc 1 2362 0
 4104 003c 7047     		bx	lr
 4105              	.LVL465:
 4106              	.L644:
 4107              		.loc 1 2366 0 discriminator 2
 4108 003e 1A7F     		ldrb	r2, [r3, #28]	@ zero_extendqisi2
 4109              	.LVL466:
 4110 0040 22F00202 		bic	r2, r2, #2
 4111 0044 1A77     		strb	r2, [r3, #28]
 4112 0046 7047     		bx	lr
 4113              		.cfi_endproc
 4114              	.LFE36:
 4115              		.size	lwip_fcntl, .-lwip_fcntl
 4116 0048 AFF30080 		.section	.rodata.err_to_errno_table,"a",%progbits
 4116      AFF30080 
 4117              		.align	2
 4118              		.set	.LANCHOR3,. + 0
 4119              		.type	err_to_errno_table, %object
 4120              		.size	err_to_errno_table, 64
 4121              	err_to_errno_table:
 4122 0000 00000000 		.word	0
 4123 0004 0C000000 		.word	12
 4124 0008 69000000 		.word	105
 4125 000c 0B000000 		.word	11
 4126 0010 71000000 		.word	113
 4127 0014 73000000 		.word	115
 4128 0018 16000000 		.word	22
 4129 001c 0B000000 		.word	11
ARM GAS  /tmp/ccZlncvZ.s 			page 74


 4130 0020 62000000 		.word	98
 4131 0024 72000000 		.word	114
 4132 0028 67000000 		.word	103
 4133 002c 68000000 		.word	104
 4134 0030 6B000000 		.word	107
 4135 0034 6B000000 		.word	107
 4136 0038 05000000 		.word	5
 4137 003c FFFFFFFF 		.word	-1
 4138              		.section	.bss.select_cb_list,"aw",%nobits
 4139              		.align	2
 4140              		.set	.LANCHOR1,. + 0
 4141              		.type	select_cb_list, %object
 4142              		.size	select_cb_list, 4
 4143              	select_cb_list:
 4144 0000 00000000 		.space	4
 4145              		.section	.bss.sockets,"aw",%nobits
 4146              		.align	2
 4147              		.set	.LANCHOR0,. + 0
 4148              		.type	sockets, %object
 4149              		.size	sockets, 96
 4150              	sockets:
 4151 0000 00000000 		.space	96
 4151      00000000 
 4151      00000000 
 4151      00000000 
 4151      00000000 
 4152              		.section	.bss.select_cb_ctr,"aw",%nobits
 4153              		.align	2
 4154              		.set	.LANCHOR2,. + 0
 4155              		.type	select_cb_ctr, %object
 4156              		.size	select_cb_ctr, 4
 4157              	select_cb_ctr:
 4158 0000 00000000 		.space	4
 4159              		.text
 4160              	.Letext0:
 4161              		.file 2 "/usr/lib/gcc/arm-none-eabi/4.8.2/include/stddef.h"
 4162              		.file 3 "/usr/include/newlib/machine/_default_types.h"
 4163              		.file 4 "/usr/include/newlib/stdint.h"
 4164              		.file 5 "../../os/ports/GCC/ARMCMx/chtypes.h"
 4165              		.file 6 "../../os/kernel/include/chlists.h"
 4166              		.file 7 "../../os/kernel/include/chthreads.h"
 4167              		.file 8 "../../os/ports/GCC/ARMCMx/chcore_v7m.h"
 4168              		.file 9 "../../os/kernel/include/chsem.h"
 4169              		.file 10 "../../os/kernel/include/chmtx.h"
 4170              		.file 11 "../../os/kernel/include/chmboxes.h"
 4171              		.file 12 "../../os/various/lwip_bindings/arch/cc.h"
 4172              		.file 13 "../../ext/lwip/src/include/ipv4/lwip/ip_addr.h"
 4173              		.file 14 "../../ext/lwip/src/include/ipv4/lwip/inet.h"
 4174              		.file 15 "../../ext/lwip/src/include/lwip/sockets.h"
 4175              		.file 16 "../../ext/lwip/src/include/lwip/err.h"
 4176              		.file 17 "../../ext/lwip/src/include/lwip/pbuf.h"
 4177              		.file 18 "../../ext/lwip/src/include/lwip/netbuf.h"
 4178              		.file 19 "../../os/various/lwip_bindings/arch/sys_arch.h"
 4179              		.file 20 "../../ext/lwip/src/include/lwip/api.h"
 4180              		.file 21 "../../ext/lwip/src/include/ipv4/lwip/ip.h"
 4181              		.file 22 "../../ext/lwip/src/include/lwip/tcp.h"
 4182              		.file 23 "../../ext/lwip/src/include/lwip/udp.h"
ARM GAS  /tmp/ccZlncvZ.s 			page 75


 4183              		.file 24 "../../ext/lwip/src/include/lwip/raw.h"
 4184              		.file 25 "../../ext/lwip/src/include/lwip/api_msg.h"
 4185              		.file 26 "../../ext/lwip/src/include/lwip/tcpip.h"
 4186              		.file 27 "../../ext/lwip/src/include/lwip/def.h"
 4187              		.file 28 "../../ext/lwip/src/include/lwip/sys.h"