ARM GAS  /tmp/ccDEgPij.s 			page 1


   1              		.syntax unified
   2              		.cpu cortex-m4
   3              		.fpu softvfp
   4              		.eabi_attribute 20, 1
   5              		.eabi_attribute 21, 1
   6              		.eabi_attribute 23, 3
   7              		.eabi_attribute 24, 1
   8              		.eabi_attribute 25, 1
   9              		.eabi_attribute 26, 1
  10              		.eabi_attribute 30, 2
  11              		.eabi_attribute 34, 1
  12              		.eabi_attribute 18, 4
  13              		.thumb
  14              		.file	"sys_arch.c"
  15              		.text
  16              	.Ltext0:
  17              		.cfi_sections	.debug_frame
  18              		.section	.text.sys_init,"ax",%progbits
  19              		.align	2
  20              		.p2align 4,,15
  21              		.global	sys_init
  22              		.thumb
  23              		.thumb_func
  24              		.type	sys_init, %function
  25              	sys_init:
  26              	.LFB7:
  27              		.file 1 "../../os/various/lwip_bindings/arch/sys_arch.c"
  28              		.loc 1 63 0
  29              		.cfi_startproc
  30              		@ args = 0, pretend = 0, frame = 0
  31              		@ frame_needed = 0, uses_anonymous_args = 0
  32              		@ link register save eliminated.
  33 0000 7047     		bx	lr
  34              		.cfi_endproc
  35              	.LFE7:
  36              		.size	sys_init, .-sys_init
  37 0002 00BFAFF3 		.section	.text.sys_sem_new,"ax",%progbits
  37      0080AFF3 
  37      0080AFF3 
  37      0080
  38              		.align	2
  39              		.p2align 4,,15
  40              		.global	sys_sem_new
  41              		.thumb
  42              		.thumb_func
  43              		.type	sys_sem_new, %function
  44              	sys_sem_new:
  45              	.LFB8:
  46              		.loc 1 67 0
  47              		.cfi_startproc
  48              		@ args = 0, pretend = 0, frame = 0
  49              		@ frame_needed = 0, uses_anonymous_args = 0
  50              	.LVL0:
  51              		.loc 1 67 0
  52 0000 38B5     		push	{r3, r4, r5, lr}
  53              		.cfi_def_cfa_offset 16
  54              		.cfi_offset 3, -16
ARM GAS  /tmp/ccDEgPij.s 			page 2


  55              		.cfi_offset 4, -12
  56              		.cfi_offset 5, -8
  57              		.cfi_offset 14, -4
  58              		.loc 1 67 0
  59 0002 0446     		mov	r4, r0
  60 0004 0D46     		mov	r5, r1
  61              		.loc 1 69 0
  62 0006 0020     		movs	r0, #0
  63              	.LVL1:
  64 0008 0C21     		movs	r1, #12
  65              	.LVL2:
  66 000a FFF7FEFF 		bl	chHeapAlloc
  67              	.LVL3:
  68 000e 2060     		str	r0, [r4]
  69              		.loc 1 70 0
  70 0010 A8B1     		cbz	r0, .L7
  71              		.loc 1 75 0
  72 0012 2946     		mov	r1, r5
  73 0014 FFF7FEFF 		bl	chSemInit
  74              	.LVL4:
  75              		.loc 1 76 0
  76 0018 40F20003 		movw	r3, #:lower16:lwip_stats
  77 001c C0F20003 		movt	r3, #:upper16:lwip_stats
  78              		.loc 1 77 0
  79 0020 0020     		movs	r0, #0
  80              		.loc 1 76 0
  81 0022 B3F83E21 		ldrh	r2, [r3, #318]
  82 0026 B3F84011 		ldrh	r1, [r3, #320]
  83 002a 0132     		adds	r2, r2, #1
  84 002c 92B2     		uxth	r2, r2
  85 002e 9142     		cmp	r1, r2
  86 0030 A3F83E21 		strh	r2, [r3, #318]	@ movhi
  87 0034 38BF     		it	cc
  88 0036 A3F84021 		strhcc	r2, [r3, #320]	@ movhi
  89              	.L4:
  90              		.loc 1 79 0
  91 003a 40B2     		sxtb	r0, r0
  92 003c 38BD     		pop	{r3, r4, r5, pc}
  93              	.LVL5:
  94              	.L7:
  95              		.loc 1 71 0
  96 003e 40F20003 		movw	r3, #:lower16:lwip_stats
  97 0042 C0F20003 		movt	r3, #:upper16:lwip_stats
  98              		.loc 1 72 0
  99 0046 FF20     		movs	r0, #255
 100              		.loc 1 71 0
 101 0048 B3F84221 		ldrh	r2, [r3, #322]
 102 004c 0132     		adds	r2, r2, #1
 103 004e A3F84221 		strh	r2, [r3, #322]	@ movhi
 104              		.loc 1 72 0
 105 0052 F2E7     		b	.L4
 106              		.cfi_endproc
 107              	.LFE8:
 108              		.size	sys_sem_new, .-sys_sem_new
 109 0054 AFF30080 		.section	.text.sys_sem_free,"ax",%progbits
 109      AFF30080 
 109      AFF30080 
ARM GAS  /tmp/ccDEgPij.s 			page 3


 110              		.align	2
 111              		.p2align 4,,15
 112              		.global	sys_sem_free
 113              		.thumb
 114              		.thumb_func
 115              		.type	sys_sem_free, %function
 116              	sys_sem_free:
 117              	.LFB9:
 118              		.loc 1 81 0
 119              		.cfi_startproc
 120              		@ args = 0, pretend = 0, frame = 0
 121              		@ frame_needed = 0, uses_anonymous_args = 0
 122              	.LVL6:
 123 0000 10B5     		push	{r4, lr}
 124              		.cfi_def_cfa_offset 8
 125              		.cfi_offset 4, -8
 126              		.cfi_offset 14, -4
 127              		.loc 1 81 0
 128 0002 0446     		mov	r4, r0
 129              		.loc 1 83 0
 130 0004 0068     		ldr	r0, [r0]
 131              	.LVL7:
 132 0006 FFF7FEFF 		bl	chHeapFree
 133              	.LVL8:
 134              		.loc 1 85 0
 135 000a 40F20003 		movw	r3, #:lower16:lwip_stats
 136 000e C0F20003 		movt	r3, #:upper16:lwip_stats
 137              		.loc 1 84 0
 138 0012 0021     		movs	r1, #0
 139              		.loc 1 85 0
 140 0014 B3F83E21 		ldrh	r2, [r3, #318]
 141              		.loc 1 84 0
 142 0018 2160     		str	r1, [r4]
 143              		.loc 1 85 0
 144 001a 013A     		subs	r2, r2, #1
 145 001c A3F83E21 		strh	r2, [r3, #318]	@ movhi
 146 0020 10BD     		pop	{r4, pc}
 147              		.cfi_endproc
 148              	.LFE9:
 149              		.size	sys_sem_free, .-sys_sem_free
 150 0022 00BFAFF3 		.section	.text.sys_sem_signal,"ax",%progbits
 150      0080AFF3 
 150      0080AFF3 
 150      0080
 151              		.align	2
 152              		.p2align 4,,15
 153              		.global	sys_sem_signal
 154              		.thumb
 155              		.thumb_func
 156              		.type	sys_sem_signal, %function
 157              	sys_sem_signal:
 158              	.LFB10:
 159              		.loc 1 88 0
 160              		.cfi_startproc
 161              		@ args = 0, pretend = 0, frame = 0
 162              		@ frame_needed = 0, uses_anonymous_args = 0
 163              		@ link register save eliminated.
ARM GAS  /tmp/ccDEgPij.s 			page 4


 164              	.LVL9:
 165              		.loc 1 90 0
 166 0000 0068     		ldr	r0, [r0]
 167              	.LVL10:
 168 0002 FFF7FEBF 		b	chSemSignal
 169              	.LVL11:
 170              		.cfi_endproc
 171              	.LFE10:
 172              		.size	sys_sem_signal, .-sys_sem_signal
 173 0006 00BFAFF3 		.section	.text.sys_sem_signal_S,"ax",%progbits
 173      0080AFF3 
 173      0080
 174              		.align	2
 175              		.p2align 4,,15
 176              		.global	sys_sem_signal_S
 177              		.thumb
 178              		.thumb_func
 179              		.type	sys_sem_signal_S, %function
 180              	sys_sem_signal_S:
 181              	.LFB11:
 182              		.loc 1 95 0
 183              		.cfi_startproc
 184              		@ args = 0, pretend = 0, frame = 0
 185              		@ frame_needed = 0, uses_anonymous_args = 0
 186              	.LVL12:
 187 0000 08B5     		push	{r3, lr}
 188              		.cfi_def_cfa_offset 8
 189              		.cfi_offset 3, -8
 190              		.cfi_offset 14, -4
 191              		.loc 1 97 0
 192 0002 0068     		ldr	r0, [r0]
 193              	.LVL13:
 194 0004 FFF7FEFF 		bl	chSemSignalI
 195              	.LVL14:
 196              		.loc 1 99 0
 197 0008 BDE80840 		pop	{r3, lr}
 198              		.loc 1 98 0
 199 000c FFF7FEBF 		b	chSchRescheduleS
 200              	.LVL15:
 201              		.cfi_endproc
 202              	.LFE11:
 203              		.size	sys_sem_signal_S, .-sys_sem_signal_S
 204              		.section	.text.sys_arch_sem_wait,"ax",%progbits
 205              		.align	2
 206              		.p2align 4,,15
 207              		.global	sys_arch_sem_wait
 208              		.thumb
 209              		.thumb_func
 210              		.type	sys_arch_sem_wait, %function
 211              	sys_arch_sem_wait:
 212              	.LFB12:
 213              		.loc 1 101 0
 214              		.cfi_startproc
 215              		@ args = 0, pretend = 0, frame = 0
 216              		@ frame_needed = 0, uses_anonymous_args = 0
 217              	.LVL16:
 218 0000 38B5     		push	{r3, r4, r5, lr}
ARM GAS  /tmp/ccDEgPij.s 			page 5


 219              		.cfi_def_cfa_offset 16
 220              		.cfi_offset 3, -16
 221              		.cfi_offset 4, -12
 222              		.cfi_offset 5, -8
 223              		.cfi_offset 14, -4
 224              	.LBB2:
 225              		.loc 1 104 0
 226 0002 2023     		movs	r3, #32
 227              	@ 104 "../../os/various/lwip_bindings/arch/sys_arch.c" 1
 228 0004 83F31188 		msr     BASEPRI, r3
 229              	@ 0 "" 2
 230              	.LVL17:
 231              		.thumb
 232              	.LBE2:
 233              		.loc 1 106 0
 234 0008 40F20004 		movw	r4, #:lower16:vtlist
 235 000c C0F20004 		movt	r4, #:upper16:vtlist
 236              		.loc 1 107 0
 237 0010 0068     		ldr	r0, [r0]
 238              	.LVL18:
 239              		.loc 1 106 0
 240 0012 E568     		ldr	r5, [r4, #12]
 241              	.LVL19:
 242              		.loc 1 107 0
 243 0014 0029     		cmp	r1, #0
 244 0016 08BF     		it	eq
 245 0018 4FF0FF31 		moveq	r1, #-1
 246              	.LVL20:
 247 001c FFF7FEFF 		bl	chSemWaitTimeoutS
 248              	.LVL21:
 249 0020 28B1     		cbz	r0, .L15
 250              		.loc 1 108 0
 251 0022 4FF0FF30 		mov	r0, #-1
 252              	.LVL22:
 253              	.LBB3:
 254              		.loc 1 111 0
 255 0026 0023     		movs	r3, #0
 256              	@ 111 "../../os/various/lwip_bindings/arch/sys_arch.c" 1
 257 0028 83F31188 		msr     BASEPRI, r3
 258              	@ 0 "" 2
 259              		.thumb
 260              	.LBE3:
 261              		.loc 1 113 0
 262 002c 38BD     		pop	{r3, r4, r5, pc}
 263              	.LVL23:
 264              	.L15:
 265              		.loc 1 110 0
 266 002e E068     		ldr	r0, [r4, #12]
 267              	.LBB4:
 268              		.loc 1 111 0
 269 0030 0023     		movs	r3, #0
 270              	.LBE4:
 271              		.loc 1 110 0
 272 0032 401B     		subs	r0, r0, r5
 273              	.LVL24:
 274              	.LBB5:
 275              		.loc 1 111 0
ARM GAS  /tmp/ccDEgPij.s 			page 6


 276              	@ 111 "../../os/various/lwip_bindings/arch/sys_arch.c" 1
 277 0034 83F31188 		msr     BASEPRI, r3
 278              	@ 0 "" 2
 279              		.thumb
 280              	.LBE5:
 281              		.loc 1 113 0
 282 0038 38BD     		pop	{r3, r4, r5, pc}
 283              		.cfi_endproc
 284              	.LFE12:
 285              		.size	sys_arch_sem_wait, .-sys_arch_sem_wait
 286 003a 00BFAFF3 		.section	.text.sys_sem_valid,"ax",%progbits
 286      0080
 287              		.align	2
 288              		.p2align 4,,15
 289              		.global	sys_sem_valid
 290              		.thumb
 291              		.thumb_func
 292              		.type	sys_sem_valid, %function
 293              	sys_sem_valid:
 294              	.LFB13:
 295              		.loc 1 115 0
 296              		.cfi_startproc
 297              		@ args = 0, pretend = 0, frame = 0
 298              		@ frame_needed = 0, uses_anonymous_args = 0
 299              		@ link register save eliminated.
 300              	.LVL25:
 301              		.loc 1 116 0
 302 0000 0068     		ldr	r0, [r0]
 303              	.LVL26:
 304              		.loc 1 117 0
 305 0002 0030     		adds	r0, r0, #0
 306 0004 18BF     		it	ne
 307 0006 0120     		movne	r0, #1
 308 0008 7047     		bx	lr
 309              		.cfi_endproc
 310              	.LFE13:
 311              		.size	sys_sem_valid, .-sys_sem_valid
 312 000a 00BFAFF3 		.section	.text.sys_sem_set_invalid,"ax",%progbits
 312      0080
 313              		.align	2
 314              		.p2align 4,,15
 315              		.global	sys_sem_set_invalid
 316              		.thumb
 317              		.thumb_func
 318              		.type	sys_sem_set_invalid, %function
 319              	sys_sem_set_invalid:
 320              	.LFB14:
 321              		.loc 1 121 0
 322              		.cfi_startproc
 323              		@ args = 0, pretend = 0, frame = 0
 324              		@ frame_needed = 0, uses_anonymous_args = 0
 325              		@ link register save eliminated.
 326              	.LVL27:
 327              		.loc 1 122 0
 328 0000 0023     		movs	r3, #0
 329 0002 0360     		str	r3, [r0]
 330 0004 7047     		bx	lr
ARM GAS  /tmp/ccDEgPij.s 			page 7


 331              		.cfi_endproc
 332              	.LFE14:
 333              		.size	sys_sem_set_invalid, .-sys_sem_set_invalid
 334 0006 00BFAFF3 		.section	.text.sys_mbox_new,"ax",%progbits
 334      0080AFF3 
 334      0080
 335              		.align	2
 336              		.p2align 4,,15
 337              		.global	sys_mbox_new
 338              		.thumb
 339              		.thumb_func
 340              		.type	sys_mbox_new, %function
 341              	sys_mbox_new:
 342              	.LFB15:
 343              		.loc 1 125 0
 344              		.cfi_startproc
 345              		@ args = 0, pretend = 0, frame = 0
 346              		@ frame_needed = 0, uses_anonymous_args = 0
 347              	.LVL28:
 348 0000 38B5     		push	{r3, r4, r5, lr}
 349              		.cfi_def_cfa_offset 16
 350              		.cfi_offset 3, -16
 351              		.cfi_offset 4, -12
 352              		.cfi_offset 5, -8
 353              		.cfi_offset 14, -4
 354              		.loc 1 125 0
 355 0002 0C46     		mov	r4, r1
 356              		.loc 1 127 0
 357 0004 0A31     		adds	r1, r1, #10
 358              	.LVL29:
 359              		.loc 1 125 0
 360 0006 0546     		mov	r5, r0
 361              		.loc 1 127 0
 362 0008 8900     		lsls	r1, r1, #2
 363 000a 0020     		movs	r0, #0
 364              	.LVL30:
 365 000c FFF7FEFF 		bl	chHeapAlloc
 366              	.LVL31:
 367 0010 2860     		str	r0, [r5]
 368              		.loc 1 128 0
 369 0012 80B1     		cbz	r0, .L21
 370              		.loc 1 133 0
 371 0014 00F12801 		add	r1, r0, #40
 372 0018 2246     		mov	r2, r4
 373 001a FFF7FEFF 		bl	chMBInit
 374              	.LVL32:
 375              		.loc 1 134 0
 376 001e 40F20003 		movw	r3, #:lower16:lwip_stats
 377 0022 C0F20003 		movt	r3, #:upper16:lwip_stats
 378              		.loc 1 135 0
 379 0026 0020     		movs	r0, #0
 380              		.loc 1 134 0
 381 0028 B3F84A21 		ldrh	r2, [r3, #330]
 382 002c 0132     		adds	r2, r2, #1
 383 002e A3F84A21 		strh	r2, [r3, #330]	@ movhi
 384              	.L20:
 385              		.loc 1 137 0
ARM GAS  /tmp/ccDEgPij.s 			page 8


 386 0032 40B2     		sxtb	r0, r0
 387 0034 38BD     		pop	{r3, r4, r5, pc}
 388              	.LVL33:
 389              	.L21:
 390              		.loc 1 129 0
 391 0036 40F20003 		movw	r3, #:lower16:lwip_stats
 392 003a C0F20003 		movt	r3, #:upper16:lwip_stats
 393              		.loc 1 130 0
 394 003e FF20     		movs	r0, #255
 395              		.loc 1 129 0
 396 0040 B3F84E21 		ldrh	r2, [r3, #334]
 397 0044 0132     		adds	r2, r2, #1
 398 0046 A3F84E21 		strh	r2, [r3, #334]	@ movhi
 399              		.loc 1 130 0
 400 004a F2E7     		b	.L20
 401              		.cfi_endproc
 402              	.LFE15:
 403              		.size	sys_mbox_new, .-sys_mbox_new
 404              		.section	.text.sys_mbox_free,"ax",%progbits
 405              		.align	2
 406              		.p2align 4,,15
 407              		.global	sys_mbox_free
 408              		.thumb
 409              		.thumb_func
 410              		.type	sys_mbox_free, %function
 411              	sys_mbox_free:
 412              	.LFB16:
 413              		.loc 1 139 0
 414              		.cfi_startproc
 415              		@ args = 0, pretend = 0, frame = 0
 416              		@ frame_needed = 0, uses_anonymous_args = 0
 417              	.LVL34:
 418 0000 38B5     		push	{r3, r4, r5, lr}
 419              		.cfi_def_cfa_offset 16
 420              		.cfi_offset 3, -16
 421              		.cfi_offset 4, -12
 422              		.cfi_offset 5, -8
 423              		.cfi_offset 14, -4
 424              		.loc 1 139 0
 425 0002 0546     		mov	r5, r0
 426              		.loc 1 141 0
 427 0004 0068     		ldr	r0, [r0]
 428              	.LVL35:
 429 0006 8369     		ldr	r3, [r0, #24]
 430              		.loc 1 145 0
 431 0008 40F20004 		movw	r4, #:lower16:lwip_stats
 432 000c C0F20004 		movt	r4, #:upper16:lwip_stats
 433              		.loc 1 141 0
 434 0010 3BB1     		cbz	r3, .L23
 435              		.loc 1 145 0
 436 0012 B4F84E31 		ldrh	r3, [r4, #334]
 437 0016 0133     		adds	r3, r3, #1
 438 0018 A4F84E31 		strh	r3, [r4, #334]	@ movhi
 439              		.loc 1 146 0
 440 001c FFF7FEFF 		bl	chMBReset
 441              	.LVL36:
 442 0020 2868     		ldr	r0, [r5]
ARM GAS  /tmp/ccDEgPij.s 			page 9


 443              	.L23:
 444              		.loc 1 148 0
 445 0022 FFF7FEFF 		bl	chHeapFree
 446              	.LVL37:
 447              		.loc 1 150 0
 448 0026 B4F84A31 		ldrh	r3, [r4, #330]
 449              		.loc 1 149 0
 450 002a 0022     		movs	r2, #0
 451              		.loc 1 150 0
 452 002c 013B     		subs	r3, r3, #1
 453              		.loc 1 149 0
 454 002e 2A60     		str	r2, [r5]
 455              		.loc 1 150 0
 456 0030 A4F84A31 		strh	r3, [r4, #330]	@ movhi
 457 0034 38BD     		pop	{r3, r4, r5, pc}
 458              		.cfi_endproc
 459              	.LFE16:
 460              		.size	sys_mbox_free, .-sys_mbox_free
 461              		.section	.text.sys_mbox_post,"ax",%progbits
 462              		.align	2
 463              		.p2align 4,,15
 464              		.global	sys_mbox_post
 465              		.thumb
 466              		.thumb_func
 467              		.type	sys_mbox_post, %function
 468              	sys_mbox_post:
 469              	.LFB17:
 470              		.loc 1 153 0
 471              		.cfi_startproc
 472              		@ args = 0, pretend = 0, frame = 0
 473              		@ frame_needed = 0, uses_anonymous_args = 0
 474              		@ link register save eliminated.
 475              	.LVL38:
 476              		.loc 1 155 0
 477 0000 0068     		ldr	r0, [r0]
 478              	.LVL39:
 479 0002 4FF0FF32 		mov	r2, #-1
 480 0006 FFF7FEBF 		b	chMBPost
 481              	.LVL40:
 482              		.cfi_endproc
 483              	.LFE17:
 484              		.size	sys_mbox_post, .-sys_mbox_post
 485 000a 00BFAFF3 		.section	.text.sys_mbox_trypost,"ax",%progbits
 485      0080
 486              		.align	2
 487              		.p2align 4,,15
 488              		.global	sys_mbox_trypost
 489              		.thumb
 490              		.thumb_func
 491              		.type	sys_mbox_trypost, %function
 492              	sys_mbox_trypost:
 493              	.LFB18:
 494              		.loc 1 158 0
 495              		.cfi_startproc
 496              		@ args = 0, pretend = 0, frame = 0
 497              		@ frame_needed = 0, uses_anonymous_args = 0
 498              	.LVL41:
ARM GAS  /tmp/ccDEgPij.s 			page 10


 499              		.loc 1 160 0
 500 0000 0022     		movs	r2, #0
 501              		.loc 1 158 0
 502 0002 08B5     		push	{r3, lr}
 503              		.cfi_def_cfa_offset 8
 504              		.cfi_offset 3, -8
 505              		.cfi_offset 14, -4
 506              		.loc 1 160 0
 507 0004 0068     		ldr	r0, [r0]
 508              	.LVL42:
 509 0006 FFF7FEFF 		bl	chMBPost
 510              	.LVL43:
 511 000a 0130     		adds	r0, r0, #1
 512              		.loc 1 161 0
 513 000c 01BF     		itttt	eq
 514 000e 40F20003 		movweq	r3, #:lower16:lwip_stats
 515 0012 C0F20003 		movteq	r3, #:upper16:lwip_stats
 516              		.loc 1 162 0
 517 0016 FF20     		moveq	r0, #255
 518              		.loc 1 161 0
 519 0018 B3F84E21 		ldrheq	r2, [r3, #334]
 520              		.loc 1 164 0
 521 001c 12BF     		itee	ne
 522 001e 0020     		movne	r0, #0
 523              		.loc 1 161 0
 524 0020 0132     		addeq	r2, r2, #1
 525 0022 A3F84E21 		strheq	r2, [r3, #334]	@ movhi
 526              		.loc 1 165 0
 527 0026 40B2     		sxtb	r0, r0
 528 0028 08BD     		pop	{r3, pc}
 529              		.cfi_endproc
 530              	.LFE18:
 531              		.size	sys_mbox_trypost, .-sys_mbox_trypost
 532 002a 00BFAFF3 		.section	.text.sys_arch_mbox_fetch,"ax",%progbits
 532      0080
 533              		.align	2
 534              		.p2align 4,,15
 535              		.global	sys_arch_mbox_fetch
 536              		.thumb
 537              		.thumb_func
 538              		.type	sys_arch_mbox_fetch, %function
 539              	sys_arch_mbox_fetch:
 540              	.LFB19:
 541              		.loc 1 167 0
 542              		.cfi_startproc
 543              		@ args = 0, pretend = 0, frame = 0
 544              		@ frame_needed = 0, uses_anonymous_args = 0
 545              	.LVL44:
 546 0000 38B5     		push	{r3, r4, r5, lr}
 547              		.cfi_def_cfa_offset 16
 548              		.cfi_offset 3, -16
 549              		.cfi_offset 4, -12
 550              		.cfi_offset 5, -8
 551              		.cfi_offset 14, -4
 552              	.LBB6:
 553              		.loc 1 170 0
 554 0002 2023     		movs	r3, #32
ARM GAS  /tmp/ccDEgPij.s 			page 11


 555              	@ 170 "../../os/various/lwip_bindings/arch/sys_arch.c" 1
 556 0004 83F31188 		msr     BASEPRI, r3
 557              	@ 0 "" 2
 558              	.LVL45:
 559              		.thumb
 560              	.LBE6:
 561              		.loc 1 172 0
 562 0008 40F20004 		movw	r4, #:lower16:vtlist
 563 000c C0F20004 		movt	r4, #:upper16:vtlist
 564              		.loc 1 173 0
 565 0010 0068     		ldr	r0, [r0]
 566              	.LVL46:
 567              		.loc 1 172 0
 568 0012 E568     		ldr	r5, [r4, #12]
 569              	.LVL47:
 570              		.loc 1 173 0
 571 0014 002A     		cmp	r2, #0
 572 0016 08BF     		it	eq
 573 0018 4FF0FF32 		moveq	r2, #-1
 574              	.LVL48:
 575 001c FFF7FEFF 		bl	chMBFetchS
 576              	.LVL49:
 577 0020 28B1     		cbz	r0, .L33
 578              		.loc 1 174 0
 579 0022 4FF0FF30 		mov	r0, #-1
 580              	.LVL50:
 581              	.LBB7:
 582              		.loc 1 177 0
 583 0026 0023     		movs	r3, #0
 584              	@ 177 "../../os/various/lwip_bindings/arch/sys_arch.c" 1
 585 0028 83F31188 		msr     BASEPRI, r3
 586              	@ 0 "" 2
 587              		.thumb
 588              	.LBE7:
 589              		.loc 1 179 0
 590 002c 38BD     		pop	{r3, r4, r5, pc}
 591              	.LVL51:
 592              	.L33:
 593              		.loc 1 176 0
 594 002e E068     		ldr	r0, [r4, #12]
 595              	.LBB8:
 596              		.loc 1 177 0
 597 0030 0023     		movs	r3, #0
 598              	.LBE8:
 599              		.loc 1 176 0
 600 0032 401B     		subs	r0, r0, r5
 601              	.LVL52:
 602              	.LBB9:
 603              		.loc 1 177 0
 604              	@ 177 "../../os/various/lwip_bindings/arch/sys_arch.c" 1
 605 0034 83F31188 		msr     BASEPRI, r3
 606              	@ 0 "" 2
 607              		.thumb
 608              	.LBE9:
 609              		.loc 1 179 0
 610 0038 38BD     		pop	{r3, r4, r5, pc}
 611              		.cfi_endproc
ARM GAS  /tmp/ccDEgPij.s 			page 12


 612              	.LFE19:
 613              		.size	sys_arch_mbox_fetch, .-sys_arch_mbox_fetch
 614 003a 00BFAFF3 		.section	.text.sys_arch_mbox_tryfetch,"ax",%progbits
 614      0080
 615              		.align	2
 616              		.p2align 4,,15
 617              		.global	sys_arch_mbox_tryfetch
 618              		.thumb
 619              		.thumb_func
 620              		.type	sys_arch_mbox_tryfetch, %function
 621              	sys_arch_mbox_tryfetch:
 622              	.LFB20:
 623              		.loc 1 181 0
 624              		.cfi_startproc
 625              		@ args = 0, pretend = 0, frame = 0
 626              		@ frame_needed = 0, uses_anonymous_args = 0
 627              	.LVL53:
 628 0000 08B5     		push	{r3, lr}
 629              		.cfi_def_cfa_offset 8
 630              		.cfi_offset 3, -8
 631              		.cfi_offset 14, -4
 632              		.loc 1 183 0
 633 0002 0022     		movs	r2, #0
 634 0004 0068     		ldr	r0, [r0]
 635              	.LVL54:
 636 0006 FFF7FEFF 		bl	chMBFetch
 637              	.LVL55:
 638              		.loc 1 186 0
 639 000a B0F1FF3F 		cmp	r0, #-1
 640 000e 14BF     		ite	ne
 641 0010 0020     		movne	r0, #0
 642 0012 6FF00000 		mvneq	r0, #0
 643 0016 08BD     		pop	{r3, pc}
 644              		.cfi_endproc
 645              	.LFE20:
 646              		.size	sys_arch_mbox_tryfetch, .-sys_arch_mbox_tryfetch
 647 0018 AFF30080 		.section	.text.sys_mbox_valid,"ax",%progbits
 647      AFF30080 
 648              		.align	2
 649              		.p2align 4,,15
 650              		.global	sys_mbox_valid
 651              		.thumb
 652              		.thumb_func
 653              		.type	sys_mbox_valid, %function
 654              	sys_mbox_valid:
 655              	.LFB21:
 656              		.loc 1 188 0
 657              		.cfi_startproc
 658              		@ args = 0, pretend = 0, frame = 0
 659              		@ frame_needed = 0, uses_anonymous_args = 0
 660              		@ link register save eliminated.
 661              	.LVL56:
 662              		.loc 1 189 0
 663 0000 0068     		ldr	r0, [r0]
 664              	.LVL57:
 665              		.loc 1 190 0
 666 0002 0030     		adds	r0, r0, #0
ARM GAS  /tmp/ccDEgPij.s 			page 13


 667 0004 18BF     		it	ne
 668 0006 0120     		movne	r0, #1
 669 0008 7047     		bx	lr
 670              		.cfi_endproc
 671              	.LFE21:
 672              		.size	sys_mbox_valid, .-sys_mbox_valid
 673 000a 00BFAFF3 		.section	.text.sys_mbox_set_invalid,"ax",%progbits
 673      0080
 674              		.align	2
 675              		.p2align 4,,15
 676              		.global	sys_mbox_set_invalid
 677              		.thumb
 678              		.thumb_func
 679              		.type	sys_mbox_set_invalid, %function
 680              	sys_mbox_set_invalid:
 681              	.LFB22:
 682              		.loc 1 194 0
 683              		.cfi_startproc
 684              		@ args = 0, pretend = 0, frame = 0
 685              		@ frame_needed = 0, uses_anonymous_args = 0
 686              		@ link register save eliminated.
 687              	.LVL58:
 688              		.loc 1 195 0
 689 0000 0023     		movs	r3, #0
 690 0002 0360     		str	r3, [r0]
 691 0004 7047     		bx	lr
 692              		.cfi_endproc
 693              	.LFE22:
 694              		.size	sys_mbox_set_invalid, .-sys_mbox_set_invalid
 695 0006 00BFAFF3 		.section	.text.sys_thread_new,"ax",%progbits
 695      0080AFF3 
 695      0080
 696              		.align	2
 697              		.p2align 4,,15
 698              		.global	sys_thread_new
 699              		.thumb
 700              		.thumb_func
 701              		.type	sys_thread_new, %function
 702              	sys_thread_new:
 703              	.LFB23:
 704              		.loc 1 199 0
 705              		.cfi_startproc
 706              		@ args = 4, pretend = 0, frame = 0
 707              		@ frame_needed = 0, uses_anonymous_args = 0
 708              	.LVL59:
 709              		.loc 1 205 0
 710 0000 CB33     		adds	r3, r3, #203
 711              	.LVL60:
 712              		.loc 1 199 0
 713 0002 2DE9F041 		push	{r4, r5, r6, r7, r8, lr}
 714              		.cfi_def_cfa_offset 24
 715              		.cfi_offset 4, -24
 716              		.cfi_offset 5, -20
 717              		.cfi_offset 6, -16
 718              		.cfi_offset 7, -12
 719              		.cfi_offset 8, -8
 720              		.cfi_offset 14, -4
ARM GAS  /tmp/ccDEgPij.s 			page 14


 721              		.loc 1 205 0
 722 0006 43F00704 		orr	r4, r3, #7
 723 000a 0134     		adds	r4, r4, #1
 724              	.LVL61:
 725              		.loc 1 206 0
 726 000c 2046     		mov	r0, r4
 727              	.LVL62:
 728              		.loc 1 199 0
 729 000e 0D46     		mov	r5, r1
 730 0010 1746     		mov	r7, r2
 731 0012 069E     		ldr	r6, [sp, #24]
 732              		.loc 1 206 0
 733 0014 FFF7FEFF 		bl	chCoreAlloc
 734              	.LVL63:
 735              		.loc 1 207 0
 736 0018 38B1     		cbz	r0, .L38
 737              		.loc 1 209 0
 738 001a 0697     		str	r7, [sp, #24]
 739 001c 2146     		mov	r1, r4
 740 001e 3246     		mov	r2, r6
 741 0020 2B46     		mov	r3, r5
 742              		.loc 1 210 0
 743 0022 BDE8F041 		pop	{r4, r5, r6, r7, r8, lr}
 744              	.LVL64:
 745              		.loc 1 209 0
 746 0026 FFF7FEBF 		b	chThdCreateStatic
 747              	.LVL65:
 748              	.L38:
 749              		.loc 1 210 0
 750 002a BDE8F081 		pop	{r4, r5, r6, r7, r8, pc}
 751              		.cfi_endproc
 752              	.LFE23:
 753              		.size	sys_thread_new, .-sys_thread_new
 754 002e 00BF     		.section	.text.sys_arch_protect,"ax",%progbits
 755              		.align	2
 756              		.p2align 4,,15
 757              		.global	sys_arch_protect
 758              		.thumb
 759              		.thumb_func
 760              		.type	sys_arch_protect, %function
 761              	sys_arch_protect:
 762              	.LFB24:
 763              		.loc 1 212 0
 764              		.cfi_startproc
 765              		@ args = 0, pretend = 0, frame = 0
 766              		@ frame_needed = 0, uses_anonymous_args = 0
 767              		@ link register save eliminated.
 768              	.LBB10:
 769              		.loc 1 214 0
 770 0000 2023     		movs	r3, #32
 771              	@ 214 "../../os/various/lwip_bindings/arch/sys_arch.c" 1
 772 0002 83F31188 		msr     BASEPRI, r3
 773              	@ 0 "" 2
 774              		.thumb
 775              	.LBE10:
 776              		.loc 1 216 0
 777 0006 0020     		movs	r0, #0
ARM GAS  /tmp/ccDEgPij.s 			page 15


 778 0008 7047     		bx	lr
 779              		.cfi_endproc
 780              	.LFE24:
 781              		.size	sys_arch_protect, .-sys_arch_protect
 782 000a 00BFAFF3 		.section	.text.sys_arch_unprotect,"ax",%progbits
 782      0080
 783              		.align	2
 784              		.p2align 4,,15
 785              		.global	sys_arch_unprotect
 786              		.thumb
 787              		.thumb_func
 788              		.type	sys_arch_unprotect, %function
 789              	sys_arch_unprotect:
 790              	.LFB25:
 791              		.loc 1 218 0
 792              		.cfi_startproc
 793              		@ args = 0, pretend = 0, frame = 0
 794              		@ frame_needed = 0, uses_anonymous_args = 0
 795              		@ link register save eliminated.
 796              	.LVL66:
 797              	.LBB11:
 798              		.loc 1 221 0
 799 0000 0023     		movs	r3, #0
 800              	@ 221 "../../os/various/lwip_bindings/arch/sys_arch.c" 1
 801 0002 83F31188 		msr     BASEPRI, r3
 802              	@ 0 "" 2
 803              		.thumb
 804 0006 7047     		bx	lr
 805              	.LBE11:
 806              		.cfi_endproc
 807              	.LFE25:
 808              		.size	sys_arch_unprotect, .-sys_arch_unprotect
 809 0008 AFF30080 		.section	.text.sys_now,"ax",%progbits
 809      AFF30080 
 810              		.align	2
 811              		.p2align 4,,15
 812              		.global	sys_now
 813              		.thumb
 814              		.thumb_func
 815              		.type	sys_now, %function
 816              	sys_now:
 817              	.LFB26:
 818              		.loc 1 224 0
 819              		.cfi_startproc
 820              		@ args = 0, pretend = 0, frame = 0
 821              		@ frame_needed = 0, uses_anonymous_args = 0
 822              		@ link register save eliminated.
 823              		.loc 1 227 0
 824 0000 40F20003 		movw	r3, #:lower16:vtlist
 825 0004 C0F20003 		movt	r3, #:upper16:vtlist
 826 0008 D868     		ldr	r0, [r3, #12]
 827              		.loc 1 235 0
 828 000a 7047     		bx	lr
 829              		.cfi_endproc
 830              	.LFE26:
 831              		.size	sys_now, .-sys_now
 832 000c AFF30080 		.text
ARM GAS  /tmp/ccDEgPij.s 			page 16


 833              	.Letext0:
 834              		.file 2 "/usr/lib/gcc/arm-none-eabi/4.8.2/include/stddef.h"
 835              		.file 3 "/usr/include/newlib/machine/_default_types.h"
 836              		.file 4 "/usr/include/newlib/stdint.h"
 837              		.file 5 "../../os/ports/GCC/ARMCMx/chtypes.h"
 838              		.file 6 "../../os/kernel/include/chlists.h"
 839              		.file 7 "../../os/kernel/include/chthreads.h"
 840              		.file 8 "../../os/ports/GCC/ARMCMx/chcore_v7m.h"
 841              		.file 9 "../../os/kernel/include/chvt.h"
 842              		.file 10 "../../os/kernel/include/chsem.h"
 843              		.file 11 "../../os/kernel/include/chmtx.h"
 844              		.file 12 "../../os/kernel/include/chmboxes.h"
 845              		.file 13 "../../os/kernel/include/chmemcore.h"
 846              		.file 14 "../../os/kernel/include/chheap.h"
 847              		.file 15 "../../os/various/lwip_bindings/arch/cc.h"
 848              		.file 16 "../../ext/lwip/src/include/lwip/mem.h"
 849              		.file 17 "../../ext/lwip/src/include/lwip/err.h"
 850              		.file 18 "../../os/various/lwip_bindings/arch/sys_arch.h"
 851              		.file 19 "../../ext/lwip/src/include/lwip/sys.h"
 852              		.file 20 "../../ext/lwip/src/include/lwip/stats.h"
 853              		.file 21 "../../os/kernel/include/chschd.h"