ARM GAS  /tmp/ccDEgPij.s 			page 1


   1              		.syntax unified
   2              		.cpu cortex-m4
   3              		.fpu softvfp
   4              		.eabi_attribute 20, 1
   5              		.eabi_attribute 21, 1
   6              		.eabi_attribute 23, 3
   7              		.eabi_attribute 24, 1
   8              		.eabi_attribute 25, 1
   9              		.eabi_attribute 26, 1
  10              		.eabi_attribute 30, 2
  11              		.eabi_attribute 34, 1
  12              		.eabi_attribute 18, 4
  13              		.thumb
  14              		.file	"sys_arch.c"
  15              		.text
  16              	.Ltext0:
  17              		.cfi_sections	.debug_frame
  18              		.section	.text.sys_init,"ax",%progbits
  19              		.align	2
  20              		.p2align 4,,15
  21              		.global	sys_init
  22              		.thumb
  23              		.thumb_func
  24              		.type	sys_init, %function
  25              	sys_init:
  26              	.LFB7:
  27              		.file 1 "../../os/various/lwip_bindings/arch/sys_arch.c"
  28              		.loc 1 63 0
  29              		.cfi_startproc
  30              		@ args = 0, pretend = 0, frame = 0
  31              		@ frame_needed = 0, uses_anonymous_args = 0
  32              		@ link register save eliminated.
  33 0000 7047     		bx	lr
  34              		.cfi_endproc
  35              	.LFE7:
  36              		.size	sys_init, .-sys_init
  37 0002 00BFAFF3 		.section	.text.sys_sem_new,"ax",%progbits
  37      0080AFF3 
  37      0080AFF3 
  37      0080
  38              		.align	2
  39              		.p2align 4,,15
  40              		.global	sys_sem_new
  41              		.thumb
  42              		.thumb_func
  43              		.type	sys_sem_new, %function
  44              	sys_sem_new:
  45              	.LFB8:
  46              		.loc 1 67 0
  47              		.cfi_startproc
  48              		@ args = 0, pretend = 0, frame = 0
  49              		@ frame_needed = 0, uses_anonymous_args = 0
  50              	.LVL0:
  51              		.loc 1 67 0
  52 0000 38B5     		push	{r3, r4, r5, lr}
  53              		.cfi_def_cfa_offset 16
  54              		.cfi_offset 3, -16
ARM GAS  /tmp/ccDEgPij.s 			page 2


  55              		.cfi_offset 4, -12
  56              		.cfi_offset 5, -8
  57              		.cfi_offset 14, -4
  58              		.loc 1 67 0
  59 0002 0446     		mov	r4, r0
  60 0004 0D46     		mov	r5, r1
  61              		.loc 1 69 0
  62 0006 0020     		movs	r0, #0
  63              	.LVL1:
  64 0008 0C21     		movs	r1, #12
  65              	.LVL2:
  66 000a FFF7FEFF 		bl	chHeapAlloc
  67              	.LVL3:
  68 000e 2060     		str	r0, [r4]
  69              		.loc 1 70 0
  70 0010 A8B1     		cbz	r0, .L7
  71              		.loc 1 75 0
  72 0012 2946     		mov	r1, r5
  73 0014 FFF7FEFF 		bl	chSemInit
  74              	.LVL4:
  75              		.loc 1 76 0
  76 0018 40F20003 		movw	r3, #:lower16:lwip_stats
  77 001c C0F20003 		movt	r3, #:upper16:lwip_stats
  78              		.loc 1 77 0
  79 0020 0020     		movs	r0, #0
  80              		.loc 1 76 0
  81 0022 B3F83E21 		ldrh	r2, [r3, #318]
  82 0026 B3F84011 		ldrh	r1, [r3, #320]
  83 002a 0132     		adds	r2, r2, #1
  84 002c 92B2     		uxth	r2, r2
  85 002e 9142     		cmp	r1, r2
  86 0030 A3F83E21 		strh	r2, [r3, #318]	@ movhi
  87 0034 38BF     		it	cc
  88 0036 A3F84021 		strhcc	r2, [r3, #320]	@ movhi
  89              	.L4:
  90              		.loc 1 79 0
  91 003a 40B2     		sxtb	r0, r0
  92 003c 38BD     		pop	{r3, r4, r5, pc}
  93              	.LVL5:
  94              	.L7:
  95              		.loc 1 71 0
  96 003e 40F20003 		movw	r3, #:lower16:lwip_stats
  97 0042 C0F20003 		movt	r3, #:upper16:lwip_stats
  98              		.loc 1 72 0
  99 0046 FF20     		movs	r0, #255
 100              		.loc 1 71 0
 101 0048 B3F84221 		ldrh	r2, [r3, #322]
 102 004c 0132     		adds	r2, r2, #1
 103 004e A3F84221 		strh	r2, [r3, #322]	@ movhi
 104              		.loc 1 72 0
 105 0052 F2E7     		b	.L4
 106              		.cfi_endproc
 107              	.LFE8:
 108              		.size	sys_sem_new, .-sys_sem_new
 109 0054 AFF30080 		.section	.text.sys_sem_free,"ax",%progbits
 109      AFF30080 
 109      AFF30080 
ARM GAS  /tmp/ccDEgPij.s 			page 3


 110              		.align	2
 111              		.p2align 4,,15
 112              		.global	sys_sem_free
 113              		.thumb
 114              		.thumb_func
 115              		.type	sys_sem_free, %function
 116              	sys_sem_free:
 117              	.LFB9:
 118              		.loc 1 81 0
 119              		.cfi_startproc
 120              		@ args = 0, pretend = 0, frame = 0
 121              		@ frame_needed = 0, uses_anonymous_args = 0
 122              	.LVL6:
 123 0000 10B5     		push	{r4, lr}
 124              		.cfi_def_cfa_offset 8
 125              		.cfi_offset 4, -8
 126              		.cfi_offset 14, -4
 127              		.loc 1 81 0
 128 0002 0446     		mov	r4, r0
 129              		.loc 1 83 0
 130 0004 0068     		ldr	r0, [r0]
 131              	.LVL7:
 132 0006 FFF7FEFF 		bl	chHeapFree
 133              	.LVL8:
 134              		.loc 1 85 0
 135 000a 40F20003 		movw	r3, #:lower16:lwip_stats
 136 000e C0F20003 		movt	r3, #:upper16:lwip_stats
 137              		.loc 1 84 0
 138 0012 0021     		movs	r1, #0
 139              		.loc 1 85 0
 140 0014 B3F83E21 		ldrh	r2, [r3, #318]
 141              		.loc 1 84 0
 142 0018 2160     		str	r1, [r4]
 143              		.loc 1 85 0
 144 001a 013A     		subs	r2, r2, #1
 145 001c A3F83E21 		strh	r2, [r3, #318]	@ movhi
 146 0020 10BD     		pop	{r4, pc}
 147              		.cfi_endproc
 148              	.LFE9:
 149              		.size	sys_sem_free, .-sys_sem_free
 150 0022 00BFAFF3 		.section	.text.sys_sem_signal,"ax",%progbits
 150      0080AFF3 
 150      0080AFF3 
 150      0080
 151              		.align	2
 152              		.p2align 4,,15
 153              		.global	sys_sem_signal
 154              		.thumb
 155              		.thumb_func
 156              		.type	sys_sem_signal, %function
 157              	sys_sem_signal:
 158              	.LFB10:
 159              		.loc 1 88 0
 160              		.cfi_startproc
 161              		@ args = 0, pretend = 0, frame = 0
 162              		@ frame_needed = 0, uses_anonymous_args = 0
 163              		@ link register save eliminated.
ARM GAS  /tmp/ccDEgPij.s 			page 4


 164              	.LVL9:
 165              		.loc 1 90 0
 166 0000 0068     		ldr	r0, [r0]
 167              	.LVL10:
 168 0002 FFF7FEBF 		b	chSemSignal
 169              	.LVL11:
 170              		.cfi_endproc
 171              	.LFE10:
 172              		.size	sys_sem_signal, .-sys_sem_signal
 173 0006 00BFAFF3 		.section	.text.sys_sem_signal_S,"ax",%progbits
 173      0080AFF3 
 173      0080
 174              		.align	2
 175              		.p2align 4,,15
 176              		.global	sys_sem_signal_S
 177              		.thumb
 178              		.thumb_func
 179              		.type	sys_sem_signal_S, %function
 180              	sys_sem_signal_S:
 181              	.LFB11:
 182              		.loc 1 95 0
 183              		.cfi_startproc
 184              		@ args = 0, pretend = 0, frame = 0
 185              		@ frame_needed = 0, uses_anonymous_args = 0
 186              	.LVL12:
 187 0000 08B5     		push	{r3, lr}
 188              		.cfi_def_cfa_offset 8
 189              		.cfi_offset 3, -8
 190              		.cfi_offset 14, -4
 191              		.loc 1 97 0
 192 0002 0068     		ldr	r0, [r0]
 193              	.LVL13:
 194 0004 FFF7FEFF 		bl	chSemSignalI
 195              	.LVL14:
 196              		.loc 1 99 0
 197 0008 BDE80840 		pop	{r3, lr}
 198              		.loc 1 98 0
 199 000c FFF7FEBF 		b	chSchRescheduleS
 200              	.LVL15:
 201              		.cfi_endproc
 202              	.LFE11:
 203              		.size	sys_sem_signal_S, .-sys_sem_signal_S
 204              		.section	.text.sys_arch_sem_wait,"ax",%progbits
 205              		.align	2
 206              		.p2align 4,,15
 207              		.global	sys_arch_sem_wait
 208              		.thumb
 209              		.thumb_func
 210              		.type	sys_arch_sem_wait, %function
 211              	sys_arch_sem_wait:
 212              	.LFB12:
 213              		.loc 1 101 0
 214              		.cfi_startproc
 215              		@ args = 0, pretend = 0, frame = 0
 216              		@ frame_needed = 0, uses_anonymous_args = 0
 217              	.LVL16:
 218 0000 38B5     		push	{r3, r4, r5, lr}
ARM GAS  /tmp/ccDEgPij.s 			page 5


 219              		.cfi_def_cfa_offset 16
 220              		.cfi_offset 3, -16
 221              		.cfi_offset 4, -12
 222              		.cfi_offset 5, -8
 223              		.cfi_offset 14, -4
 224              	.LBB2:
 225              		.loc 1 104 0
 226 0002 2023     		movs	r3, #32
 227              	@ 104 "../../os/various/lwip_bindings/arch/sys_arch.c" 1
 228 0004 83F31188 		msr     BASEPRI, r3
 229              	@ 0 "" 2
 230              	.LVL17:
 231              		.thumb
 232              	.LBE2:
 233              		.loc 1 106 0
 234 0008 40F20004 		movw	r4, #:lower16:vtlist
 235 000c C0F20004 		movt	r4, #:upper16:vtlist
 236              		.loc 1 107 0
 237 0010 0068     		ldr	r0, [r0]
 238              	.LVL18:
 239              		.loc 1 106 0
 240 0012 E568     		ldr	r5, [r4, #12]
 241              	.LVL19:
 242              		.loc 1 107 0
 243 0014 0029     		cmp	r1, #0
 244 0016 08BF     		it	eq
 245 0018 4FF0FF31 		moveq	r1, #-1
 246              	.LVL20:
 247 001c FFF7FEFF 		bl	chSemWaitTimeoutS
 248              	.LVL21:
 249 0020 28B1     		cbz	r0, .L15
 250              		.loc 1 108 0
 251 0022 4FF0FF30 		mov	r0, #-1
 252              	.LVL22:
 253              	.LBB3:
 254              		.loc 1 111 0
 255 0026 0023     		movs	r3, #0
 256              	@ 111 "../../os/various/lwip_bindings/arch/sys_arch.c" 1
 257 0028 83F31188 		msr     BASEPRI, r3
 258              	@ 0 "" 2
 259              		.thumb
 260              	.LBE3:
 261              		.loc 1 113 0
 262 002c 38BD     		pop	{r3, r4, r5, pc}
 263              	.LVL23:
 264              	.L15:
 265              		.loc 1 110 0
 266 002e E068     		ldr	r0, [r4, #12]
 267              	.LBB4:
 268              		.loc 1 111 0
 269 0030 0023     		movs	r3, #0
 270              	.LBE4:
 271              		.loc 1 110 0
 272 0032 401B     		subs	r0, r0, r5
 273              	.LVL24:
 274              	.LBB5:
 275              		.loc 1 111 0
ARM GAS  /tmp/ccDEgPij.s 			page 6


 276              	@ 111 "../../os/various/lwip_bindings/arch/sys_arch.c" 1
 277 0034 83F31188 		msr     BASEPRI, r3
 278              	@ 0 "" 2
 279              		.thumb
 280              	.LBE5:
 281              		.loc 1 113 0
 282 0038 38BD     		pop	{r3, r4, r5, pc}
 283              		.cfi_endproc
 284              	.LFE12:
 285              		.size	sys_arch_sem_wait, .-sys_arch_sem_wait
 286 003a 00BFAFF3 		.section	.text.sys_sem_valid,"ax",%progbits
 286      0080
 287              		.align	2
 288              		.p2align 4,,15
 289              		.global	sys_sem_valid
 290              		.thumb
 291              		.thumb_func
 292              		.type	sys_sem_valid, %function
 293              	sys_sem_valid:
 294              	.LFB13:
 295              		.loc 1 115 0
 296              		.cfi_startproc
 297              		@ args = 0, pretend = 0, frame = 0
 298              		@ frame_needed = 0, uses_anonymous_args = 0
 299              		@ link register save eliminated.
 300              	.LVL25:
 301              		.loc 1 116 0
 302 0000 0068     		ldr	r0, [r0]
 303              	.LVL26:
 304              		.loc 1 117 0
 305 0002 0030     		adds	r0, r0, #0
 306 0004 18BF     		it	ne
 307 0006 0120     		movne	r0, #1
 308 0008 7047     		bx	lr
 309              		.cfi_endproc
 310              	.LFE13:
 311              		.size	sys_sem_valid, .-sys_sem_valid
 312 000a 00BFAFF3 		.section	.text.sys_sem_set_invalid,"ax",%progbits
 312      0080
 313              		.align	2
 314              		.p2align 4,,15
 315              		.global	sys_sem_set_invalid
 316              		.thumb
 317              		.thumb_func
 318              		.type	sys_sem_set_invalid, %function
 319              	sys_sem_set_invalid:
 320              	.LFB14:
 321              		.loc 1 121 0
 322              		.cfi_startproc
 323              		@ args = 0, pretend = 0, frame = 0
 324              		@ frame_needed = 0, uses_anonymous_args = 0
 325              		@ link register save eliminated.
 326              	.LVL27:
 327              		.loc 1 122 0
 328 0000 0023     		movs	r3, #0
 329 0002 0360     		str	r3, [r0]
 330 0004 7047     		bx	lr
ARM GAS  /tmp/ccDEgPij.s 			page 7


 331              		.cfi_endproc
 332              	.LFE14:
 333              		.size	sys_sem_set_invalid, .-sys_sem_set_invalid
 334 0006 00BFAFF3 		.section	.text.sys_mbox_new,"ax",%progbits
 334      0080AFF3 
 334      0080
 335              		.align	2
 336              		.p2align 4,,15
 337              		.global	sys_mbox_new
 338              		.thumb
 339              		.thumb_func
 340              		.type	sys_mbox_new, %function
 341              	sys_mbox_new:
 342              	.LFB15:
 343              		.loc 1 125 0
 344              		.cfi_startproc
 345              		@ args = 0, pretend = 0, frame = 0
 346              		@ frame_needed = 0, uses_anonymous_args = 0
 347              	.LVL28:
 348 0000 38B5     		push	{r3, r4, r5, lr}
 349              		.cfi_def_cfa_offset 16
 350              		.cfi_offset 3, -16
 351              		.cfi_offset 4, -12
 352              		.cfi_offset 5, -8
 353              		.cfi_offset 14, -4
 354              		.loc 1 125 0
 355 0002 0C46     		mov	r4, r1
 356              		.loc 1 127 0
 357 0004 0A31     		adds	r1, r1, #10
 358              	.LVL29:
 359              		.loc 1 125 0
 360 0006 0546     		mov	r5, r0
 361              		.loc 1 127 0
 362 0008 8900     		lsls	r1, r1, #2
 363 000a 0020     		movs	r0, #0
 364              	.LVL30:
 365 000c FFF7FEFF 		bl	chHeapAlloc
 366              	.LVL31:
 367 0010 2860     		str	r0, [r5]
 368              		.loc 1 128 0
 369 0012 80B1     		cbz	r0, .L21
 370              		.loc 1 133 0
 371 0014 00F12801 		add	r1, r0, #40
 372 0018 2246     		mov	r2, r4
 373 001a FFF7FEFF 		bl	chMBInit
 374              	.LVL32:
 375              		.loc 1 134 0
 376 001e 40F20003 		movw	r3, #:lower16:lwip_stats
 377 0022 C0F20003 		movt	r3, #:upper16:lwip_stats
 378              		.loc 1 135 0
 379 0026 0020     		movs	r0, #0
 380              		.loc 1 134 0
 381 0028 B3F84A21 		ldrh	r2, [r3, #330]
 382 002c 0132     		adds	r2, r2, #1
 383 002e A3F84A21 		strh	r2, [r3, #330]	@ movhi
 384              	.L20:
 385              		.loc 1 137 0
ARM GAS  /tmp/ccDEgPij.s 			page 8


 386 0032 40B2     		sxtb	r0, r0
 387 0034 38BD     		pop	{r3, r4, r5, pc}
 388              	.LVL33:
 389              	.L21:
 390              		.loc 1 129 0
 391 0036 40F20003 		movw	r3, #:lower16:lwip_stats
 392 003a C0F20003 		movt	r3, #:upper16:lwip_stats
 393              		.loc 1 130 0
 394 003e FF20     		movs	r0, #255
 395              		.loc 1 129 0
 396 0040 B3F84E21 		ldrh	r2, [r3, #334]
 397 0044 0132     		adds	r2, r2, #1
 398 0046 A3F84E21 		strh	r2, [r3, #334]	@ movhi
 399              		.loc 1 130 0
 400 004a F2E7     		b	.L20
 401              		.cfi_endproc
 402              	.LFE15:
 403              		.size	sys_mbox_new, .-sys_mbox_new
 404              		.section	.text.sys_mbox_free,"ax",%progbits
 405              		.align	2
 406              		.p2align 4,,15
 407              		.global	sys_mbox_free
 408              		.thumb
 409              		.thumb_func
 410              		.type	sys_mbox_free, %function
 411              	sys_mbox_free:
 412              	.LFB16:
 413              		.loc 1 139 0
 414              		.cfi_startproc
 415              		@ args = 0, pretend = 0, frame = 0
 416              		@ frame_needed = 0, uses_anonymous_args = 0
 417              	.LVL34:
 418 0000 38B5     		push	{r3, r4, r5, lr}
 419              		.cfi_def_cfa_offset 16
 420              		.cfi_offset 3, -16
 421              		.cfi_offset 4, -12
 422              		.cfi_offset 5, -8
 423              		.cfi_offset 14, -4
 424              		.loc 1 139 0
 425 0002 0546     		mov	r5, r0
 426              		.loc 1 141 0
 427 0004 0068     		ldr	r0, [r0]
 428              	.LVL35:
 429 0006 8369     		ldr	r3, [r0, #24]
 430              		.loc 1 145 0
 431 0008 40F20004 		movw	r4, #:lower16:lwip_stats
 432 000c C0F20004 		movt	r4, #:upper16:lwip_stats
 433              		.loc 1 141 0
 434 0010 3BB1     		cbz	r3, .L23
 435              		.loc 1 145 0
 436 0012 B4F84E31 		ldrh	r3, [r4, #334]
 437 0016 0133     		adds	r3, r3, #1
 438 0018 A4F84E31 		strh	r3, [r4, #334]	@ movhi
 439              		.loc 1 146 0
 440 001c FFF7FEFF 		bl	chMBReset
 441              	.LVL36:
 442 0020 2868     		ldr	r0, [r5]
ARM GAS  /tmp/ccDEgPij.s 			page 9


 443              	.L23:
 444              		.loc 1 148 0
 445 0022 FFF7FEFF 		bl	chHeapFree
 446              	.LVL37:
 447              		.loc 1 150 0
 448 0026 B4F84A31 		ldrh	r3, [r4, #330]
 449              		.loc 1 149 0
 450 002a 0022     		movs	r2, #0
 451              		.loc 1 150 0
 452 002c 013B     		subs	r3, r3, #1
 453              		.loc 1 149 0
 454 002e 2A60     		str	r2, [r5]
 455              		.loc 1 150 0
 456 0030 A4F84A31 		strh	r3, [r4, #330]	@ movhi
 457 0034 38BD     		pop	{r3, r4, r5, pc}
 458              		.cfi_endproc
 459              	.LFE16:
 460              		.size	sys_mbox_free, .-sys_mbox_free
 461              		.section	.text.sys_mbox_post,"ax",%progbits
 462              		.align	2
 463              		.p2align 4,,15
 464              		.global	sys_mbox_post
 465              		.thumb
 466              		.thumb_func
 467              		.type	sys_mbox_post, %function
 468              	sys_mbox_post:
 469              	.LFB17:
 470              		.loc 1 153 0
 471              		.cfi_startproc
 472              		@ args = 0, pretend = 0, frame = 0
 473              		@ frame_needed = 0, uses_anonymous_args = 0
 474              		@ link register save eliminated.
 475              	.LVL38:
 476              		.loc 1 155 0
 477 0000 0068     		ldr	r0, [r0]
 478              	.LVL39:
 479 0002 4FF0FF32 		mov	r2, #-1
 480 0006 FFF7FEBF 		b	chMBPost
 481              	.LVL40:
 482              		.cfi_endproc
 483              	.LFE17:
 484              		.size	sys_mbox_post, .-sys_mbox_post
 485 000a 00BFAFF3 		.section	.text.sys_mbox_trypost,"ax",%progbits
 485      0080
 486              		.align	2
 487              		.p2align 4,,15
 488              		.global	sys_mbox_trypost
 489              		.thumb
 490              		.thumb_func
 491              		.type	sys_mbox_trypost, %function
 492              	sys_mbox_trypost:
 493              	.LFB18:
 494              		.loc 1 158 0
 495              		.cfi_startproc
 496              		@ args = 0, pretend = 0, frame = 0
 497              		@ frame_needed = 0, uses_anonymous_args = 0
 498              	.LVL41:
ARM GAS  /tmp/ccDEgPij.s 			page 10


 499              		.loc 1 160 0
 500 0000 0022     		movs	r2, #0
 501              		.loc 1 158 0
 502 0002 08B5     		push	{r3, lr}
 503              		.cfi_def_cfa_offset 8
 504              		.cfi_offset 3, -8
 505              		.cfi_offset 14, -4
 506              		.loc 1 160 0
 507 0004 0068     		ldr	r0, [r0]
 508              	.LVL42:
 509 0006 FFF7FEFF 		bl	chMBPost
 510              	.LVL43:
 511 000a 0130     		adds	r0, r0, #1
 512              		.loc 1 161 0
 513 000c 01BF     		itttt	eq
 514 000e 40F20003 		movweq	r3, #:lower16:lwip_stats
 515 0012 C0F20003 		movteq	r3, #:upper16:lwip_stats
 516              		.loc 1 162 0
 517 0016 FF20     		moveq	r0, #255
 518              		.loc 1 161 0
 519 0018 B3F84E21 		ldrheq	r2, [r3, #334]
 520              		.loc 1 164 0
 521 001c 12BF     		itee	ne
 522 001e 0020     		movne	r0, #0
 523              		.loc 1 161 0
 524 0020 0132     		addeq	r2, r2, #1
 525 0022 A3F84E21 		strheq	r2, [r3, #334]	@ movhi
 526              		.loc 1 165 0
 527 0026 40B2     		sxtb	r0, r0
 528 0028 08BD     		pop	{r3, pc}
 529              		.cfi_endproc
 530              	.LFE18:
 531              		.size	sys_mbox_trypost, .-sys_mbox_trypost
 532 002a 00BFAFF3 		.section	.text.sys_arch_mbox_fetch,"ax",%progbits
 532      0080
 533              		.align	2
 534              		.p2align 4,,15
 535              		.global	sys_arch_mbox_fetch
 536              		.thumb
 537              		.thumb_func
 538              		.type	sys_arch_mbox_fetch, %function
 539              	sys_arch_mbox_fetch:
 540              	.LFB19:
 541              		.loc 1 167 0
 542              		.cfi_startproc
 543              		@ args = 0, pretend = 0, frame = 0
 544              		@ frame_needed = 0, uses_anonymous_args = 0
 545              	.LVL44:
 546 0000 38B5     		push	{r3, r4, r5, lr}
 547              		.cfi_def_cfa_offset 16
 548              		.cfi_offset 3, -16
 549              		.cfi_offset 4, -12
 550              		.cfi_offset 5, -8
 551              		.cfi_offset 14, -4
 552              	.LBB6:
 553              		.loc 1 170 0
 554 0002 2023     		movs	r3, #32
ARM GAS  /tmp/ccDEgPij.s 			page 11


 555              	@ 170 "../../os/various/lwip_bindings/arch/sys_arch.c" 1
 556 0004 83F31188 		msr     BASEPRI, r3
 557              	@ 0 "" 2
 558              	.LVL45:
 559              		.thumb
 560              	.LBE6:
 561              		.loc 1 172 0
 562 0008 40F20004 		movw	r4, #:lower16:vtlist
 563 000c C0F20004 		movt	r4, #:upper16:vtlist
 564              		.loc 1 173 0
 565 0010 0068     		ldr	r0, [r0]
 566              	.LVL46:
 567              		.loc 1 172 0
 568 0012 E568     		ldr	r5, [r4, #12]
 569              	.LVL47:
 570              		.loc 1 173 0
 571 0014 002A     		cmp	r2, #0
 572 0016 08BF     		it	eq
 573 0018 4FF0FF32 		moveq	r2, #-1
 574              	.LVL48:
 575 001c FFF7FEFF 		bl	chMBFetchS
 576              	.LVL49:
 577 0020 28B1     		cbz	r0, .L33
 578              		.loc 1 174 0
 579 0022 4FF0FF30 		mov	r0, #-1
 580              	.LVL50:
 581              	.LBB7:
 582              		.loc 1 177 0
 583 0026 0023     		movs	r3, #0
 584              	@ 177 "../../os/various/lwip_bindings/arch/sys_arch.c" 1
 585 0028 83F31188 		msr     BASEPRI, r3
 586              	@ 0 "" 2
 587              		.thumb
 588              	.LBE7:
 589              		.loc 1 179 0
 590 002c 38BD     		pop	{r3, r4, r5, pc}
 591              	.LVL51:
 592              	.L33:
 593              		.loc 1 176 0
 594 002e E068     		ldr	r0, [r4, #12]
 595              	.LBB8:
 596              		.loc 1 177 0
 597 0030 0023     		movs	r3, #0
 598              	.LBE8:
 599              		.loc 1 176 0
 600 0032 401B     		subs	r0, r0, r5
 601              	.LVL52:
 602              	.LBB9:
 603              		.loc 1 177 0
 604              	@ 177 "../../os/various/lwip_bindings/arch/sys_arch.c" 1
 605 0034 83F31188 		msr     BASEPRI, r3
 606              	@ 0 "" 2
 607              		.thumb
 608              	.LBE9:
 609              		.loc 1 179 0
 610 0038 38BD     		pop	{r3, r4, r5, pc}
 611              		.cfi_endproc
ARM GAS  /tmp/ccDEgPij.s 			page 12


 612              	.LFE19:
 613              		.size	sys_arch_mbox_fetch, .-sys_arch_mbox_fetch
 614 003a 00BFAFF3 		.section	.text.sys_arch_mbox_tryfetch,"ax",%progbits
 614      0080
 615              		.align	2
 616              		.p2align 4,,15
 617              		.global	sys_arch_mbox_tryfetch
 618              		.thumb
 619              		.thumb_func
 620              		.type	sys_arch_mbox_tryfetch, %function
 621              	sys_arch_mbox_tryfetch:
 622              	.LFB20:
 623              		.loc 1 181 0
 624              		.cfi_startproc
 625              		@ args = 0, pretend = 0, frame = 0
 626              		@ frame_needed = 0, uses_anonymous_args = 0
 627              	.LVL53:
 628 0000 08B5     		push	{r3, lr}
 629              		.cfi_def_cfa_offset 8
 630              		.cfi_offset 3, -8
 631              		.cfi_offset 14, -4
 632              		.loc 1 183 0
 633 0002 0022     		movs	r2, #0
 634 0004 0068     		ldr	r0, [r0]
 635              	.LVL54:
 636 0006 FFF7FEFF 		bl	chMBFetch
 637              	.LVL55:
 638              		.loc 1 186 0
 639 000a B0F1FF3F 		cmp	r0, #-1
 640 000e 14BF     		ite	ne
 641 0010 0020     		movne	r0, #0
 642 0012 6FF00000 		mvneq	r0, #0
 643 0016 08BD     		pop	{r3, pc}
 644              		.cfi_endproc
 645              	.LFE20:
 646              		.size	sys_arch_mbox_tryfetch, .-sys_arch_mbox_tryfetch
 647 0018 AFF30080 		.section	.text.sys_mbox_valid,"ax",%progbits
 647      AFF30080 
 648              		.align	2
 649              		.p2align 4,,15
 650              		.global	sys_mbox_valid
 651              		.thumb
 652              		.thumb_func
 653              		.type	sys_mbox_valid, %function
 654              	sys_mbox_valid:
 655              	.LFB21:
 656              		.loc 1 188 0
 657              		.cfi_startproc
 658              		@ args = 0, pretend = 0, frame = 0
 659              		@ frame_needed = 0, uses_anonymous_args = 0
 660              		@ link register save eliminated.
 661              	.LVL56:
 662              		.loc 1 189 0
 663 0000 0068     		ldr	r0, [r0]
 664              	.LVL57:
 665              		.loc 1 190 0
 666 0002 0030     		adds	r0, r0, #0
ARM GAS  /tmp/ccDEgPij.s 			page 13


 667 0004 18BF     		it	ne
 668 0006 0120     		movne	r0, #1
 669 0008 7047     		bx	lr
 670              		.cfi_endproc
 671              	.LFE21:
 672              		.size	sys_mbox_valid, .-sys_mbox_valid
 673 000a 00BFAFF3 		.section	.text.sys_mbox_set_invalid,"ax",%progbits
 673      0080
 674              		.align	2
 675              		.p2align 4,,15
 676              		.global	sys_mbox_set_invalid
 677              		.thumb
 678              		.thumb_func
 679              		.type	sys_mbox_set_invalid, %function
 680              	sys_mbox_set_invalid:
 681              	.LFB22:
 682              		.loc 1 194 0
 683              		.cfi_startproc
 684              		@ args = 0, pretend = 0, frame = 0
 685              		@ frame_needed = 0, uses_anonymous_args = 0
 686              		@ link register save eliminated.
 687              	.LVL58:
 688              		.loc 1 195 0
 689 0000 0023     		movs	r3, #0
 690 0002 0360     		str	r3, [r0]
 691 0004 7047     		bx	lr
 692              		.cfi_endproc
 693              	.LFE22:
 694              		.size	sys_mbox_set_invalid, .-sys_mbox_set_invalid
 695 0006 00BFAFF3 		.section	.text.sys_thread_new,"ax",%progbits
 695      0080AFF3 
 695      0080
 696              		.align	2
 697              		.p2align 4,,15
 698              		.global	sys_thread_new
 699              		.thumb
 700              		.thumb_func
 701              		.type	sys_thread_new, %function
 702              	sys_thread_new:
 703              	.LFB23:
 704              		.loc 1 199 0
 705              		.cfi_startproc
 706              		@ args = 4, pretend = 0, frame = 0
 707              		@ frame_needed = 0, uses_anonymous_args = 0
 708              	.LVL59:
 709              		.loc 1 205 0
 710 0000 CB33     		adds	r3, r3, #203
 711              	.LVL60:
 712              		.loc 1 199 0
 713 0002 2DE9F041 		push	{r4, r5, r6, r7, r8, lr}
 714              		.cfi_def_cfa_offset 24
 715              		.cfi_offset 4, -24
 716              		.cfi_offset 5, -20
 717              		.cfi_offset 6, -16
 718              		.cfi_offset 7, -12
 719              		.cfi_offset 8, -8
 720              		.cfi_offset 14, -4
ARM GAS  /tmp/ccDEgPij.s 			page 14


 721              		.loc 1 205 0
 722 0006 43F00704 		orr	r4, r3, #7
 723 000a 0134     		adds	r4, r4, #1
 724              	.LVL61:
 725              		.loc 1 206 0
 726 000c 2046     		mov	r0, r4
 727              	.LVL62:
 728              		.loc 1 199 0
 729 000e 0D46     		mov	r5, r1
 730 0010 1746     		mov	r7, r2
 731 0012 069E     		ldr	r6, [sp, #24]
 732              		.loc 1 206 0
 733 0014 FFF7FEFF 		bl	chCoreAlloc
 734              	.LVL63:
 735              		.loc 1 207 0
 736 0018 38B1     		cbz	r0, .L38
 737              		.loc 1 209 0
 738 001a 0697     		str	r7, [sp, #24]
 739 001c 2146     		mov	r1, r4
 740 001e 3246     		mov	r2, r6
 741 0020 2B46     		mov	r3, r5
 742              		.loc 1 210 0
 743 0022 BDE8F041 		pop	{r4, r5, r6, r7, r8, lr}
 744              	.LVL64:
 745              		.loc 1 209 0
 746 0026 FFF7FEBF 		b	chThdCreateStatic
 747              	.LVL65:
 748              	.L38:
 749              		.loc 1 210 0
 750 002a BDE8F081 		pop	{r4, r5, r6, r7, r8, pc}
 751              		.cfi_endproc
 752              	.LFE23:
 753              		.size	sys_thread_new, .-sys_thread_new
 754 002e 00BF     		.section	.text.sys_arch_protect,"ax",%progbits
 755              		.align	2
 756              		.p2align 4,,15
 757              		.global	sys_arch_protect
 758              		.thumb
 759              		.thumb_func
 760              		.type	sys_arch_protect, %function
 761              	sys_arch_protect:
 762              	.LFB24:
 763              		.loc 1 212 0
 764              		.cfi_startproc
 765              		@ args = 0, pretend = 0, frame = 0
 766              		@ frame_needed = 0, uses_anonymous_args = 0
 767              		@ link register save eliminated.
 768              	.LBB10:
 769              		.loc 1 214 0
 770 0000 2023     		movs	r3, #32
 771              	@ 214 "../../os/various/lwip_bindings/arch/sys_arch.c" 1
 772 0002 83F31188 		msr     BASEPRI, r3
 773              	@ 0 "" 2
 774              		.thumb
 775              	.LBE10:
 776              		.loc 1 216 0
 777 0006 0020     		movs	r0, #0
ARM GAS  /tmp/ccDEgPij.s 			page 15


 778 0008 7047     		bx	lr
 779              		.cfi_endproc
 780              	.LFE24:
 781              		.size	sys_arch_protect, .-sys_arch_protect
 782 000a 00BFAFF3 		.section	.text.sys_arch_unprotect,"ax",%progbits
 782      0080
 783              		.align	2
 784              		.p2align 4,,15
 785              		.global	sys_arch_unprotect
 786              		.thumb
 787              		.thumb_func
 788              		.type	sys_arch_unprotect, %function
 789              	sys_arch_unprotect:
 790              	.LFB25:
 791              		.loc 1 218 0
 792              		.cfi_startproc
 793              		@ args = 0, pretend = 0, frame = 0
 794              		@ frame_needed = 0, uses_anonymous_args = 0
 795              		@ link register save eliminated.
 796              	.LVL66:
 797              	.LBB11:
 798              		.loc 1 221 0
 799 0000 0023     		movs	r3, #0
 800              	@ 221 "../../os/various/lwip_bindings/arch/sys_arch.c" 1
 801 0002 83F31188 		msr     BASEPRI, r3
 802              	@ 0 "" 2
 803              		.thumb
 804 0006 7047     		bx	lr
 805              	.LBE11:
 806              		.cfi_endproc
 807              	.LFE25:
 808              		.size	sys_arch_unprotect, .-sys_arch_unprotect
 809 0008 AFF30080 		.section	.text.sys_now,"ax",%progbits
 809      AFF30080 
 810              		.align	2
 811              		.p2align 4,,15
 812              		.global	sys_now
 813              		.thumb
 814              		.thumb_func
 815              		.type	sys_now, %function
 816              	sys_now:
 817              	.LFB26:
 818              		.loc 1 224 0
 819              		.cfi_startproc
 820              		@ args = 0, pretend = 0, frame = 0
 821              		@ frame_needed = 0, uses_anonymous_args = 0
 822              		@ link register save eliminated.
 823              		.loc 1 227 0
 824 0000 40F20003 		movw	r3, #:lower16:vtlist
 825 0004 C0F20003 		movt	r3, #:upper16:vtlist
 826 0008 D868     		ldr	r0, [r3, #12]
 827              		.loc 1 235 0
 828 000a 7047     		bx	lr
 829              		.cfi_endproc
 830              	.LFE26:
 831              		.size	sys_now, .-sys_now
 832 000c AFF30080 		.text
ARM GAS  /tmp/ccDEgPij.s 			page 16


 833              	.Letext0:
 834              		.file 2 "/usr/lib/gcc/arm-none-eabi/4.8.2/include/stddef.h"
 835              		.file 3 "/usr/include/newlib/machine/_default_types.h"
 836              		.file 4 "/usr/include/newlib/stdint.h"
 837              		.file 5 "../../os/ports/GCC/ARMCMx/chtypes.h"
 838              		.file 6 "../../os/kernel/include/chlists.h"
 839              		.file 7 "../../os/kernel/include/chthreads.h"
 840              		.file 8 "../../os/ports/GCC/ARMCMx/chcore_v7m.h"
 841              		.file 9 "../../os/kernel/include/chvt.h"
 842              		.file 10 "../../os/kernel/include/chsem.h"
 843              		.file 11 "../../os/kernel/include/chmtx.h"
 844              		.file 12 "../../os/kernel/include/chmboxes.h"
 845              		.file 13 "../../os/kernel/include/chmemcore.h"
 846              		.file 14 "../../os/kernel/include/chheap.h"
 847              		.file 15 "../../os/various/lwip_bindings/arch/cc.h"
 848              		.file 16 "../../ext/lwip/src/include/lwip/mem.h"
 849              		.file 17 "../../ext/lwip/src/include/lwip/err.h"
 850              		.file 18 "../../os/various/lwip_bindings/arch/sys_arch.h"
 851              		.file 19 "../../ext/lwip/src/include/lwip/sys.h"
 852              		.file 20 "../../ext/lwip/src/include/lwip/stats.h"
 853              		.file 21 "../../os/kernel/include/chschd.h"
 854              		.section	.debug_info,"",%progbits
 855              	.Ldebug_info0:
 856 0000 CB0F0000 		.4byte	0xfcb
 857 0004 0400     		.2byte	0x4
 858 0006 00000000 		.4byte	.Ldebug_abbrev0
 859 000a 04       		.byte	0x4
 860 000b 01       		.uleb128 0x1
 861 000c 31060000 		.4byte	.LASF175
 862 0010 01       		.byte	0x1
 863 0011 73020000 		.4byte	.LASF176
 864 0015 31000000 		.4byte	.LASF177
 865 0019 40000000 		.4byte	.Ldebug_ranges0+0x40
 866 001d 00000000 		.4byte	0
 867 0021 00000000 		.4byte	.Ldebug_line0
 868 0025 02       		.uleb128 0x2
 869 0026 04       		.byte	0x4
 870 0027 05       		.byte	0x5
 871 0028 696E7400 		.ascii	"int\000"
 872 002c 03       		.uleb128 0x3
 873 002d AE020000 		.4byte	.LASF1
 874 0031 02       		.byte	0x2
 875 0032 D4       		.byte	0xd4
 876 0033 37000000 		.4byte	0x37
 877 0037 04       		.uleb128 0x4
 878 0038 04       		.byte	0x4
 879 0039 07       		.byte	0x7
 880 003a C4000000 		.4byte	.LASF0
 881 003e 03       		.uleb128 0x3
 882 003f B2040000 		.4byte	.LASF2
 883 0043 03       		.byte	0x3
 884 0044 1B       		.byte	0x1b
 885 0045 49000000 		.4byte	0x49
 886 0049 04       		.uleb128 0x4
 887 004a 01       		.byte	0x1
 888 004b 06       		.byte	0x6
 889 004c 7E070000 		.4byte	.LASF3
ARM GAS  /tmp/ccDEgPij.s 			page 17


 890 0050 03       		.uleb128 0x3
 891 0051 A9050000 		.4byte	.LASF4
 892 0055 03       		.byte	0x3
 893 0056 1C       		.byte	0x1c
 894 0057 5B000000 		.4byte	0x5b
 895 005b 04       		.uleb128 0x4
 896 005c 01       		.byte	0x1
 897 005d 08       		.byte	0x8
 898 005e 12070000 		.4byte	.LASF5
 899 0062 04       		.uleb128 0x4
 900 0063 02       		.byte	0x2
 901 0064 05       		.byte	0x5
 902 0065 1F050000 		.4byte	.LASF6
 903 0069 03       		.uleb128 0x3
 904 006a 0B020000 		.4byte	.LASF7
 905 006e 03       		.byte	0x3
 906 006f 26       		.byte	0x26
 907 0070 74000000 		.4byte	0x74
 908 0074 04       		.uleb128 0x4
 909 0075 02       		.byte	0x2
 910 0076 07       		.byte	0x7
 911 0077 8A070000 		.4byte	.LASF8
 912 007b 03       		.uleb128 0x3
 913 007c EB000000 		.4byte	.LASF9
 914 0080 03       		.byte	0x3
 915 0081 37       		.byte	0x37
 916 0082 86000000 		.4byte	0x86
 917 0086 04       		.uleb128 0x4
 918 0087 04       		.byte	0x4
 919 0088 05       		.byte	0x5
 920 0089 51050000 		.4byte	.LASF10
 921 008d 03       		.uleb128 0x3
 922 008e 20070000 		.4byte	.LASF11
 923 0092 03       		.byte	0x3
 924 0093 38       		.byte	0x38
 925 0094 98000000 		.4byte	0x98
 926 0098 04       		.uleb128 0x4
 927 0099 04       		.byte	0x4
 928 009a 07       		.byte	0x7
 929 009b 1F060000 		.4byte	.LASF12
 930 009f 04       		.uleb128 0x4
 931 00a0 08       		.byte	0x8
 932 00a1 05       		.byte	0x5
 933 00a2 FC030000 		.4byte	.LASF13
 934 00a6 03       		.uleb128 0x3
 935 00a7 D5020000 		.4byte	.LASF14
 936 00ab 03       		.byte	0x3
 937 00ac 4E       		.byte	0x4e
 938 00ad B1000000 		.4byte	0xb1
 939 00b1 04       		.uleb128 0x4
 940 00b2 08       		.byte	0x8
 941 00b3 07       		.byte	0x7
 942 00b4 F4010000 		.4byte	.LASF15
 943 00b8 03       		.uleb128 0x3
 944 00b9 82010000 		.4byte	.LASF16
 945 00bd 04       		.byte	0x4
 946 00be 29       		.byte	0x29
ARM GAS  /tmp/ccDEgPij.s 			page 18


 947 00bf 3E000000 		.4byte	0x3e
 948 00c3 03       		.uleb128 0x3
 949 00c4 AD030000 		.4byte	.LASF17
 950 00c8 04       		.byte	0x4
 951 00c9 2A       		.byte	0x2a
 952 00ca 50000000 		.4byte	0x50
 953 00ce 03       		.uleb128 0x3
 954 00cf E9040000 		.4byte	.LASF18
 955 00d3 04       		.byte	0x4
 956 00d4 36       		.byte	0x36
 957 00d5 69000000 		.4byte	0x69
 958 00d9 03       		.uleb128 0x3
 959 00da E3060000 		.4byte	.LASF19
 960 00de 04       		.byte	0x4
 961 00df 41       		.byte	0x41
 962 00e0 7B000000 		.4byte	0x7b
 963 00e4 03       		.uleb128 0x3
 964 00e5 79010000 		.4byte	.LASF20
 965 00e9 04       		.byte	0x4
 966 00ea 42       		.byte	0x42
 967 00eb 8D000000 		.4byte	0x8d
 968 00ef 03       		.uleb128 0x3
 969 00f0 6D050000 		.4byte	.LASF21
 970 00f4 04       		.byte	0x4
 971 00f5 4E       		.byte	0x4e
 972 00f6 A6000000 		.4byte	0xa6
 973 00fa 04       		.uleb128 0x4
 974 00fb 01       		.byte	0x1
 975 00fc 02       		.byte	0x2
 976 00fd BC020000 		.4byte	.LASF22
 977 0101 03       		.uleb128 0x3
 978 0102 BB040000 		.4byte	.LASF23
 979 0106 05       		.byte	0x5
 980 0107 2C       		.byte	0x2c
 981 0108 C3000000 		.4byte	0xc3
 982 010c 03       		.uleb128 0x3
 983 010d 81030000 		.4byte	.LASF24
 984 0111 05       		.byte	0x5
 985 0112 2D       		.byte	0x2d
 986 0113 C3000000 		.4byte	0xc3
 987 0117 03       		.uleb128 0x3
 988 0118 17060000 		.4byte	.LASF25
 989 011c 05       		.byte	0x5
 990 011d 2E       		.byte	0x2e
 991 011e C3000000 		.4byte	0xc3
 992 0122 03       		.uleb128 0x3
 993 0123 89040000 		.4byte	.LASF26
 994 0127 05       		.byte	0x5
 995 0128 2F       		.byte	0x2f
 996 0129 C3000000 		.4byte	0xc3
 997 012d 03       		.uleb128 0x3
 998 012e B1010000 		.4byte	.LASF27
 999 0132 05       		.byte	0x5
 1000 0133 30       		.byte	0x30
 1001 0134 E4000000 		.4byte	0xe4
 1002 0138 03       		.uleb128 0x3
 1003 0139 2A040000 		.4byte	.LASF28
ARM GAS  /tmp/ccDEgPij.s 			page 19


 1004 013d 05       		.byte	0x5
 1005 013e 31       		.byte	0x31
 1006 013f D9000000 		.4byte	0xd9
 1007 0143 03       		.uleb128 0x3
 1008 0144 89010000 		.4byte	.LASF29
 1009 0148 05       		.byte	0x5
 1010 0149 33       		.byte	0x33
 1011 014a E4000000 		.4byte	0xe4
 1012 014e 03       		.uleb128 0x3
 1013 014f 7F000000 		.4byte	.LASF30
 1014 0153 05       		.byte	0x5
 1015 0154 35       		.byte	0x35
 1016 0155 E4000000 		.4byte	0xe4
 1017 0159 03       		.uleb128 0x3
 1018 015a 16020000 		.4byte	.LASF31
 1019 015e 05       		.byte	0x5
 1020 015f 36       		.byte	0x36
 1021 0160 D9000000 		.4byte	0xd9
 1022 0164 03       		.uleb128 0x3
 1023 0165 7A030000 		.4byte	.LASF32
 1024 0169 06       		.byte	0x6
 1025 016a 2A       		.byte	0x2a
 1026 016b 6F010000 		.4byte	0x16f
 1027 016f 05       		.uleb128 0x5
 1028 0170 7A030000 		.4byte	.LASF32
 1029 0174 48       		.byte	0x48
 1030 0175 07       		.byte	0x7
 1031 0176 5E       		.byte	0x5e
 1032 0177 6C020000 		.4byte	0x26c
 1033 017b 06       		.uleb128 0x6
 1034 017c 66050000 		.4byte	.LASF33
 1035 0180 07       		.byte	0x7
 1036 0181 5F       		.byte	0x5f
 1037 0182 8D020000 		.4byte	0x28d
 1038 0186 00       		.byte	0
 1039 0187 06       		.uleb128 0x6
 1040 0188 07060000 		.4byte	.LASF34
 1041 018c 07       		.byte	0x7
 1042 018d 61       		.byte	0x61
 1043 018e 8D020000 		.4byte	0x28d
 1044 0192 04       		.byte	0x4
 1045 0193 06       		.uleb128 0x6
 1046 0194 78000000 		.4byte	.LASF35
 1047 0198 07       		.byte	0x7
 1048 0199 63       		.byte	0x63
 1049 019a 2D010000 		.4byte	0x12d
 1050 019e 08       		.byte	0x8
 1051 019f 06       		.uleb128 0x6
 1052 01a0 76050000 		.4byte	.LASF36
 1053 01a4 07       		.byte	0x7
 1054 01a5 64       		.byte	0x64
 1055 01a6 52030000 		.4byte	0x352
 1056 01aa 0C       		.byte	0xc
 1057 01ab 06       		.uleb128 0x6
 1058 01ac 30020000 		.4byte	.LASF37
 1059 01b0 07       		.byte	0x7
 1060 01b1 66       		.byte	0x66
ARM GAS  /tmp/ccDEgPij.s 			page 20


 1061 01b2 8D020000 		.4byte	0x28d
 1062 01b6 10       		.byte	0x10
 1063 01b7 06       		.uleb128 0x6
 1064 01b8 91030000 		.4byte	.LASF38
 1065 01bc 07       		.byte	0x7
 1066 01bd 67       		.byte	0x67
 1067 01be 8D020000 		.4byte	0x28d
 1068 01c2 14       		.byte	0x14
 1069 01c3 06       		.uleb128 0x6
 1070 01c4 2F030000 		.4byte	.LASF39
 1071 01c8 07       		.byte	0x7
 1072 01c9 6E       		.byte	0x6e
 1073 01ca 09060000 		.4byte	0x609
 1074 01ce 18       		.byte	0x18
 1075 01cf 06       		.uleb128 0x6
 1076 01d0 99030000 		.4byte	.LASF40
 1077 01d4 07       		.byte	0x7
 1078 01d5 79       		.byte	0x79
 1079 01d6 0C010000 		.4byte	0x10c
 1080 01da 1C       		.byte	0x1c
 1081 01db 06       		.uleb128 0x6
 1082 01dc 48040000 		.4byte	.LASF41
 1083 01e0 07       		.byte	0x7
 1084 01e1 7D       		.byte	0x7d
 1085 01e2 01010000 		.4byte	0x101
 1086 01e6 1D       		.byte	0x1d
 1087 01e7 06       		.uleb128 0x6
 1088 01e8 2B070000 		.4byte	.LASF42
 1089 01ec 07       		.byte	0x7
 1090 01ed 82       		.byte	0x82
 1091 01ee 17010000 		.4byte	0x117
 1092 01f2 1E       		.byte	0x1e
 1093 01f3 06       		.uleb128 0x6
 1094 01f4 40070000 		.4byte	.LASF43
 1095 01f8 07       		.byte	0x7
 1096 01f9 88       		.byte	0x88
 1097 01fa 22010000 		.4byte	0x122
 1098 01fe 1F       		.byte	0x1f
 1099 01ff 06       		.uleb128 0x6
 1100 0200 2A000000 		.4byte	.LASF44
 1101 0204 07       		.byte	0x7
 1102 0205 8F       		.byte	0x8f
 1103 0206 29040000 		.4byte	0x429
 1104 020a 20       		.byte	0x20
 1105 020b 07       		.uleb128 0x7
 1106 020c 705F7500 		.ascii	"p_u\000"
 1107 0210 07       		.byte	0x7
 1108 0211 B4       		.byte	0xb4
 1109 0212 D4050000 		.4byte	0x5d4
 1110 0216 24       		.byte	0x24
 1111 0217 06       		.uleb128 0x6
 1112 0218 15000000 		.4byte	.LASF45
 1113 021c 07       		.byte	0x7
 1114 021d B9       		.byte	0xb9
 1115 021e B3020000 		.4byte	0x2b3
 1116 0222 28       		.byte	0x28
 1117 0223 06       		.uleb128 0x6
ARM GAS  /tmp/ccDEgPij.s 			page 21


 1118 0224 B9000000 		.4byte	.LASF46
 1119 0228 07       		.byte	0x7
 1120 0229 BF       		.byte	0xbf
 1121 022a 93020000 		.4byte	0x293
 1122 022e 2C       		.byte	0x2c
 1123 022f 06       		.uleb128 0x6
 1124 0230 AC040000 		.4byte	.LASF47
 1125 0234 07       		.byte	0x7
 1126 0235 C3       		.byte	0xc3
 1127 0236 38010000 		.4byte	0x138
 1128 023a 34       		.byte	0x34
 1129 023b 06       		.uleb128 0x6
 1130 023c 3E050000 		.4byte	.LASF48
 1131 0240 07       		.byte	0x7
 1132 0241 C9       		.byte	0xc9
 1133 0242 43010000 		.4byte	0x143
 1134 0246 38       		.byte	0x38
 1135 0247 06       		.uleb128 0x6
 1136 0248 E3030000 		.4byte	.LASF49
 1137 024c 07       		.byte	0x7
 1138 024d D0       		.byte	0xd0
 1139 024e 1B060000 		.4byte	0x61b
 1140 0252 3C       		.byte	0x3c
 1141 0253 06       		.uleb128 0x6
 1142 0254 0E050000 		.4byte	.LASF50
 1143 0258 07       		.byte	0x7
 1144 0259 D4       		.byte	0xd4
 1145 025a 2D010000 		.4byte	0x12d
 1146 025e 40       		.byte	0x40
 1147 025f 06       		.uleb128 0x6
 1148 0260 DB030000 		.4byte	.LASF51
 1149 0264 07       		.byte	0x7
 1150 0265 DA       		.byte	0xda
 1151 0266 C9020000 		.4byte	0x2c9
 1152 026a 44       		.byte	0x44
 1153 026b 00       		.byte	0
 1154 026c 08       		.uleb128 0x8
 1155 026d 08       		.byte	0x8
 1156 026e 06       		.byte	0x6
 1157 026f 61       		.byte	0x61
 1158 0270 8D020000 		.4byte	0x28d
 1159 0274 06       		.uleb128 0x6
 1160 0275 66050000 		.4byte	.LASF33
 1161 0279 06       		.byte	0x6
 1162 027a 62       		.byte	0x62
 1163 027b 8D020000 		.4byte	0x28d
 1164 027f 00       		.byte	0
 1165 0280 06       		.uleb128 0x6
 1166 0281 07060000 		.4byte	.LASF34
 1167 0285 06       		.byte	0x6
 1168 0286 64       		.byte	0x64
 1169 0287 8D020000 		.4byte	0x28d
 1170 028b 04       		.byte	0x4
 1171 028c 00       		.byte	0
 1172 028d 09       		.uleb128 0x9
 1173 028e 04       		.byte	0x4
 1174 028f 64010000 		.4byte	0x164
ARM GAS  /tmp/ccDEgPij.s 			page 22


 1175 0293 03       		.uleb128 0x3
 1176 0294 46030000 		.4byte	.LASF52
 1177 0298 06       		.byte	0x6
 1178 0299 66       		.byte	0x66
 1179 029a 6C020000 		.4byte	0x26c
 1180 029e 08       		.uleb128 0x8
 1181 029f 04       		.byte	0x4
 1182 02a0 06       		.byte	0x6
 1183 02a1 6B       		.byte	0x6b
 1184 02a2 B3020000 		.4byte	0x2b3
 1185 02a6 06       		.uleb128 0x6
 1186 02a7 66050000 		.4byte	.LASF33
 1187 02ab 06       		.byte	0x6
 1188 02ac 6D       		.byte	0x6d
 1189 02ad 8D020000 		.4byte	0x28d
 1190 02b1 00       		.byte	0
 1191 02b2 00       		.byte	0
 1192 02b3 03       		.uleb128 0x3
 1193 02b4 09000000 		.4byte	.LASF53
 1194 02b8 06       		.byte	0x6
 1195 02b9 70       		.byte	0x70
 1196 02ba 9E020000 		.4byte	0x29e
 1197 02be 03       		.uleb128 0x3
 1198 02bf F3030000 		.4byte	.LASF54
 1199 02c3 08       		.byte	0x8
 1200 02c4 E5       		.byte	0xe5
 1201 02c5 C9020000 		.4byte	0x2c9
 1202 02c9 0A       		.uleb128 0xa
 1203 02ca 04       		.byte	0x4
 1204 02cb 03       		.uleb128 0x3
 1205 02cc 9D070000 		.4byte	.LASF55
 1206 02d0 08       		.byte	0x8
 1207 02d1 EB       		.byte	0xeb
 1208 02d2 EF000000 		.4byte	0xef
 1209 02d6 0B       		.uleb128 0xb
 1210 02d7 F2040000 		.4byte	.LASF56
 1211 02db 24       		.byte	0x24
 1212 02dc 08       		.byte	0x8
 1213 02dd 0C01     		.2byte	0x10c
 1214 02df 52030000 		.4byte	0x352
 1215 02e3 0C       		.uleb128 0xc
 1216 02e4 723400   		.ascii	"r4\000"
 1217 02e7 08       		.byte	0x8
 1218 02e8 1F01     		.2byte	0x11f
 1219 02ea BE020000 		.4byte	0x2be
 1220 02ee 00       		.byte	0
 1221 02ef 0C       		.uleb128 0xc
 1222 02f0 723500   		.ascii	"r5\000"
 1223 02f3 08       		.byte	0x8
 1224 02f4 2001     		.2byte	0x120
 1225 02f6 BE020000 		.4byte	0x2be
 1226 02fa 04       		.byte	0x4
 1227 02fb 0C       		.uleb128 0xc
 1228 02fc 723600   		.ascii	"r6\000"
 1229 02ff 08       		.byte	0x8
 1230 0300 2101     		.2byte	0x121
 1231 0302 BE020000 		.4byte	0x2be
ARM GAS  /tmp/ccDEgPij.s 			page 23


 1232 0306 08       		.byte	0x8
 1233 0307 0C       		.uleb128 0xc
 1234 0308 723700   		.ascii	"r7\000"
 1235 030b 08       		.byte	0x8
 1236 030c 2201     		.2byte	0x122
 1237 030e BE020000 		.4byte	0x2be
 1238 0312 0C       		.byte	0xc
 1239 0313 0C       		.uleb128 0xc
 1240 0314 723800   		.ascii	"r8\000"
 1241 0317 08       		.byte	0x8
 1242 0318 2301     		.2byte	0x123
 1243 031a BE020000 		.4byte	0x2be
 1244 031e 10       		.byte	0x10
 1245 031f 0C       		.uleb128 0xc
 1246 0320 723900   		.ascii	"r9\000"
 1247 0323 08       		.byte	0x8
 1248 0324 2401     		.2byte	0x124
 1249 0326 BE020000 		.4byte	0x2be
 1250 032a 14       		.byte	0x14
 1251 032b 0C       		.uleb128 0xc
 1252 032c 72313000 		.ascii	"r10\000"
 1253 0330 08       		.byte	0x8
 1254 0331 2501     		.2byte	0x125
 1255 0333 BE020000 		.4byte	0x2be
 1256 0337 18       		.byte	0x18
 1257 0338 0C       		.uleb128 0xc
 1258 0339 72313100 		.ascii	"r11\000"
 1259 033d 08       		.byte	0x8
 1260 033e 2601     		.2byte	0x126
 1261 0340 BE020000 		.4byte	0x2be
 1262 0344 1C       		.byte	0x1c
 1263 0345 0C       		.uleb128 0xc
 1264 0346 6C7200   		.ascii	"lr\000"
 1265 0349 08       		.byte	0x8
 1266 034a 2701     		.2byte	0x127
 1267 034c BE020000 		.4byte	0x2be
 1268 0350 20       		.byte	0x20
 1269 0351 00       		.byte	0
 1270 0352 0B       		.uleb128 0xb
 1271 0353 3B040000 		.4byte	.LASF57
 1272 0357 04       		.byte	0x4
 1273 0358 08       		.byte	0x8
 1274 0359 3101     		.2byte	0x131
 1275 035b 6D030000 		.4byte	0x36d
 1276 035f 0C       		.uleb128 0xc
 1277 0360 72313300 		.ascii	"r13\000"
 1278 0364 08       		.byte	0x8
 1279 0365 3201     		.2byte	0x132
 1280 0367 6D030000 		.4byte	0x36d
 1281 036b 00       		.byte	0
 1282 036c 00       		.byte	0
 1283 036d 09       		.uleb128 0x9
 1284 036e 04       		.byte	0x4
 1285 036f D6020000 		.4byte	0x2d6
 1286 0373 04       		.uleb128 0x4
 1287 0374 04       		.byte	0x4
 1288 0375 07       		.byte	0x7
ARM GAS  /tmp/ccDEgPij.s 			page 24


 1289 0376 0E060000 		.4byte	.LASF58
 1290 037a 03       		.uleb128 0x3
 1291 037b 00000000 		.4byte	.LASF59
 1292 037f 09       		.byte	0x9
 1293 0380 58       		.byte	0x58
 1294 0381 85030000 		.4byte	0x385
 1295 0385 09       		.uleb128 0x9
 1296 0386 04       		.byte	0x4
 1297 0387 8B030000 		.4byte	0x38b
 1298 038b 0D       		.uleb128 0xd
 1299 038c 96030000 		.4byte	0x396
 1300 0390 0E       		.uleb128 0xe
 1301 0391 C9020000 		.4byte	0x2c9
 1302 0395 00       		.byte	0
 1303 0396 03       		.uleb128 0x3
 1304 0397 9C050000 		.4byte	.LASF60
 1305 039b 09       		.byte	0x9
 1306 039c 5D       		.byte	0x5d
 1307 039d A1030000 		.4byte	0x3a1
 1308 03a1 05       		.uleb128 0x5
 1309 03a2 9C050000 		.4byte	.LASF60
 1310 03a6 14       		.byte	0x14
 1311 03a7 09       		.byte	0x9
 1312 03a8 64       		.byte	0x64
 1313 03a9 EA030000 		.4byte	0x3ea
 1314 03ad 06       		.uleb128 0x6
 1315 03ae 4F070000 		.4byte	.LASF61
 1316 03b2 09       		.byte	0x9
 1317 03b3 65       		.byte	0x65
 1318 03b4 EA030000 		.4byte	0x3ea
 1319 03b8 00       		.byte	0
 1320 03b9 06       		.uleb128 0x6
 1321 03ba C0070000 		.4byte	.LASF62
 1322 03be 09       		.byte	0x9
 1323 03bf 67       		.byte	0x67
 1324 03c0 EA030000 		.4byte	0x3ea
 1325 03c4 04       		.byte	0x4
 1326 03c5 06       		.uleb128 0x6
 1327 03c6 71010000 		.4byte	.LASF63
 1328 03ca 09       		.byte	0x9
 1329 03cb 69       		.byte	0x69
 1330 03cc 4E010000 		.4byte	0x14e
 1331 03d0 08       		.byte	0x8
 1332 03d1 06       		.uleb128 0x6
 1333 03d2 B8070000 		.4byte	.LASF64
 1334 03d6 09       		.byte	0x9
 1335 03d7 6A       		.byte	0x6a
 1336 03d8 7A030000 		.4byte	0x37a
 1337 03dc 0C       		.byte	0xc
 1338 03dd 06       		.uleb128 0x6
 1339 03de 95010000 		.4byte	.LASF65
 1340 03e2 09       		.byte	0x9
 1341 03e3 6C       		.byte	0x6c
 1342 03e4 C9020000 		.4byte	0x2c9
 1343 03e8 10       		.byte	0x10
 1344 03e9 00       		.byte	0
 1345 03ea 09       		.uleb128 0x9
ARM GAS  /tmp/ccDEgPij.s 			page 25


 1346 03eb 04       		.byte	0x4
 1347 03ec 96030000 		.4byte	0x396
 1348 03f0 08       		.uleb128 0x8
 1349 03f1 10       		.byte	0x10
 1350 03f2 09       		.byte	0x9
 1351 03f3 76       		.byte	0x76
 1352 03f4 29040000 		.4byte	0x429
 1353 03f8 06       		.uleb128 0x6
 1354 03f9 4F070000 		.4byte	.LASF61
 1355 03fd 09       		.byte	0x9
 1356 03fe 77       		.byte	0x77
 1357 03ff EA030000 		.4byte	0x3ea
 1358 0403 00       		.byte	0
 1359 0404 06       		.uleb128 0x6
 1360 0405 C0070000 		.4byte	.LASF62
 1361 0409 09       		.byte	0x9
 1362 040a 79       		.byte	0x79
 1363 040b EA030000 		.4byte	0x3ea
 1364 040f 04       		.byte	0x4
 1365 0410 06       		.uleb128 0x6
 1366 0411 71010000 		.4byte	.LASF63
 1367 0415 09       		.byte	0x9
 1368 0416 7B       		.byte	0x7b
 1369 0417 4E010000 		.4byte	0x14e
 1370 041b 08       		.byte	0x8
 1371 041c 06       		.uleb128 0x6
 1372 041d 99000000 		.4byte	.LASF66
 1373 0421 09       		.byte	0x9
 1374 0422 7C       		.byte	0x7c
 1375 0423 29040000 		.4byte	0x429
 1376 0427 0C       		.byte	0xc
 1377 0428 00       		.byte	0
 1378 0429 0F       		.uleb128 0xf
 1379 042a 4E010000 		.4byte	0x14e
 1380 042e 03       		.uleb128 0x3
 1381 042f 8A030000 		.4byte	.LASF67
 1382 0433 09       		.byte	0x9
 1383 0434 7D       		.byte	0x7d
 1384 0435 F0030000 		.4byte	0x3f0
 1385 0439 05       		.uleb128 0x5
 1386 043a B3050000 		.4byte	.LASF68
 1387 043e 0C       		.byte	0xc
 1388 043f 0A       		.byte	0xa
 1389 0440 2C       		.byte	0x2c
 1390 0441 5E040000 		.4byte	0x45e
 1391 0445 06       		.uleb128 0x6
 1392 0446 91000000 		.4byte	.LASF69
 1393 044a 0A       		.byte	0xa
 1394 044b 2D       		.byte	0x2d
 1395 044c 93020000 		.4byte	0x293
 1396 0450 00       		.byte	0
 1397 0451 06       		.uleb128 0x6
 1398 0452 40010000 		.4byte	.LASF70
 1399 0456 0A       		.byte	0xa
 1400 0457 2F       		.byte	0x2f
 1401 0458 59010000 		.4byte	0x159
 1402 045c 08       		.byte	0x8
ARM GAS  /tmp/ccDEgPij.s 			page 26


 1403 045d 00       		.byte	0
 1404 045e 03       		.uleb128 0x3
 1405 045f B3050000 		.4byte	.LASF68
 1406 0463 0A       		.byte	0xa
 1407 0464 30       		.byte	0x30
 1408 0465 39040000 		.4byte	0x439
 1409 0469 05       		.uleb128 0x5
 1410 046a 00030000 		.4byte	.LASF71
 1411 046e 10       		.byte	0x10
 1412 046f 0B       		.byte	0xb
 1413 0470 2C       		.byte	0x2c
 1414 0471 9A040000 		.4byte	0x49a
 1415 0475 06       		.uleb128 0x6
 1416 0476 49050000 		.4byte	.LASF72
 1417 047a 0B       		.byte	0xb
 1418 047b 2D       		.byte	0x2d
 1419 047c 93020000 		.4byte	0x293
 1420 0480 00       		.byte	0
 1421 0481 06       		.uleb128 0x6
 1422 0482 89000000 		.4byte	.LASF73
 1423 0486 0B       		.byte	0xb
 1424 0487 2F       		.byte	0x2f
 1425 0488 8D020000 		.4byte	0x28d
 1426 048c 08       		.byte	0x8
 1427 048d 06       		.uleb128 0x6
 1428 048e 77070000 		.4byte	.LASF74
 1429 0492 0B       		.byte	0xb
 1430 0493 31       		.byte	0x31
 1431 0494 9A040000 		.4byte	0x49a
 1432 0498 0C       		.byte	0xc
 1433 0499 00       		.byte	0
 1434 049a 09       		.uleb128 0x9
 1435 049b 04       		.byte	0x4
 1436 049c 69040000 		.4byte	0x469
 1437 04a0 03       		.uleb128 0x3
 1438 04a1 00030000 		.4byte	.LASF71
 1439 04a5 0B       		.byte	0xb
 1440 04a6 33       		.byte	0x33
 1441 04a7 69040000 		.4byte	0x469
 1442 04ab 08       		.uleb128 0x8
 1443 04ac 28       		.byte	0x28
 1444 04ad 0C       		.byte	0xc
 1445 04ae 33       		.byte	0x33
 1446 04af FC040000 		.4byte	0x4fc
 1447 04b3 06       		.uleb128 0x6
 1448 04b4 D9060000 		.4byte	.LASF75
 1449 04b8 0C       		.byte	0xc
 1450 04b9 34       		.byte	0x34
 1451 04ba FC040000 		.4byte	0x4fc
 1452 04be 00       		.byte	0
 1453 04bf 06       		.uleb128 0x6
 1454 04c0 6C040000 		.4byte	.LASF76
 1455 04c4 0C       		.byte	0xc
 1456 04c5 36       		.byte	0x36
 1457 04c6 FC040000 		.4byte	0x4fc
 1458 04ca 04       		.byte	0x4
 1459 04cb 06       		.uleb128 0x6
ARM GAS  /tmp/ccDEgPij.s 			page 27


 1460 04cc 35050000 		.4byte	.LASF77
 1461 04d0 0C       		.byte	0xc
 1462 04d1 38       		.byte	0x38
 1463 04d2 FC040000 		.4byte	0x4fc
 1464 04d6 08       		.byte	0x8
 1465 04d7 06       		.uleb128 0x6
 1466 04d8 C2020000 		.4byte	.LASF78
 1467 04dc 0C       		.byte	0xc
 1468 04dd 39       		.byte	0x39
 1469 04de FC040000 		.4byte	0x4fc
 1470 04e2 0C       		.byte	0xc
 1471 04e3 06       		.uleb128 0x6
 1472 04e4 B5030000 		.4byte	.LASF79
 1473 04e8 0C       		.byte	0xc
 1474 04e9 3A       		.byte	0x3a
 1475 04ea 5E040000 		.4byte	0x45e
 1476 04ee 10       		.byte	0x10
 1477 04ef 06       		.uleb128 0x6
 1478 04f0 06030000 		.4byte	.LASF80
 1479 04f4 0C       		.byte	0xc
 1480 04f5 3C       		.byte	0x3c
 1481 04f6 5E040000 		.4byte	0x45e
 1482 04fa 1C       		.byte	0x1c
 1483 04fb 00       		.byte	0
 1484 04fc 09       		.uleb128 0x9
 1485 04fd 04       		.byte	0x4
 1486 04fe 38010000 		.4byte	0x138
 1487 0502 03       		.uleb128 0x3
 1488 0503 2D010000 		.4byte	.LASF81
 1489 0507 0C       		.byte	0xc
 1490 0508 3E       		.byte	0x3e
 1491 0509 AB040000 		.4byte	0x4ab
 1492 050d 03       		.uleb128 0x3
 1493 050e BD050000 		.4byte	.LASF82
 1494 0512 0D       		.byte	0xd
 1495 0513 2C       		.byte	0x2c
 1496 0514 18050000 		.4byte	0x518
 1497 0518 09       		.uleb128 0x9
 1498 0519 04       		.byte	0x4
 1499 051a 1E050000 		.4byte	0x51e
 1500 051e 10       		.uleb128 0x10
 1501 051f C9020000 		.4byte	0x2c9
 1502 0523 2D050000 		.4byte	0x52d
 1503 0527 0E       		.uleb128 0xe
 1504 0528 2C000000 		.4byte	0x2c
 1505 052c 00       		.byte	0
 1506 052d 03       		.uleb128 0x3
 1507 052e A8070000 		.4byte	.LASF83
 1508 0532 0E       		.byte	0xe
 1509 0533 34       		.byte	0x34
 1510 0534 38050000 		.4byte	0x538
 1511 0538 05       		.uleb128 0x5
 1512 0539 29050000 		.4byte	.LASF84
 1513 053d 20       		.byte	0x20
 1514 053e 0E       		.byte	0xe
 1515 053f 47       		.byte	0x47
 1516 0540 69050000 		.4byte	0x569
ARM GAS  /tmp/ccDEgPij.s 			page 28


 1517 0544 06       		.uleb128 0x6
 1518 0545 3B030000 		.4byte	.LASF85
 1519 0549 0E       		.byte	0xe
 1520 054a 48       		.byte	0x48
 1521 054b 0D050000 		.4byte	0x50d
 1522 054f 00       		.byte	0
 1523 0550 06       		.uleb128 0x6
 1524 0551 F5000000 		.4byte	.LASF86
 1525 0555 0E       		.byte	0xe
 1526 0556 4A       		.byte	0x4a
 1527 0557 88050000 		.4byte	0x588
 1528 055b 08       		.byte	0x8
 1529 055c 06       		.uleb128 0x6
 1530 055d ED030000 		.4byte	.LASF87
 1531 0561 0E       		.byte	0xe
 1532 0562 4C       		.byte	0x4c
 1533 0563 A0040000 		.4byte	0x4a0
 1534 0567 10       		.byte	0x10
 1535 0568 00       		.byte	0
 1536 0569 11       		.uleb128 0x11
 1537 056a 04       		.byte	0x4
 1538 056b 0E       		.byte	0xe
 1539 056c 3C       		.byte	0x3c
 1540 056d 88050000 		.4byte	0x588
 1541 0571 12       		.uleb128 0x12
 1542 0572 D1000000 		.4byte	.LASF88
 1543 0576 0E       		.byte	0xe
 1544 0577 3D       		.byte	0x3d
 1545 0578 A9050000 		.4byte	0x5a9
 1546 057c 12       		.uleb128 0x12
 1547 057d FC000000 		.4byte	.LASF89
 1548 0581 0E       		.byte	0xe
 1549 0582 3E       		.byte	0x3e
 1550 0583 AF050000 		.4byte	0x5af
 1551 0587 00       		.byte	0
 1552 0588 13       		.uleb128 0x13
 1553 0589 A2020000 		.4byte	.LASF178
 1554 058d 08       		.byte	0x8
 1555 058e 0E       		.byte	0xe
 1556 058f 39       		.byte	0x39
 1557 0590 A9050000 		.4byte	0x5a9
 1558 0594 12       		.uleb128 0x12
 1559 0595 C8070000 		.4byte	.LASF90
 1560 0599 0E       		.byte	0xe
 1561 059a 3A       		.byte	0x3a
 1562 059b CB020000 		.4byte	0x2cb
 1563 059f 14       		.uleb128 0x14
 1564 05a0 6800     		.ascii	"h\000"
 1565 05a2 0E       		.byte	0xe
 1566 05a3 41       		.byte	0x41
 1567 05a4 B5050000 		.4byte	0x5b5
 1568 05a8 00       		.byte	0
 1569 05a9 09       		.uleb128 0x9
 1570 05aa 04       		.byte	0x4
 1571 05ab 88050000 		.4byte	0x588
 1572 05af 09       		.uleb128 0x9
 1573 05b0 04       		.byte	0x4
ARM GAS  /tmp/ccDEgPij.s 			page 29


 1574 05b1 2D050000 		.4byte	0x52d
 1575 05b5 08       		.uleb128 0x8
 1576 05b6 08       		.byte	0x8
 1577 05b7 0E       		.byte	0xe
 1578 05b8 3B       		.byte	0x3b
 1579 05b9 D4050000 		.4byte	0x5d4
 1580 05bd 07       		.uleb128 0x7
 1581 05be 7500     		.ascii	"u\000"
 1582 05c0 0E       		.byte	0xe
 1583 05c1 3F       		.byte	0x3f
 1584 05c2 69050000 		.4byte	0x569
 1585 05c6 00       		.byte	0
 1586 05c7 06       		.uleb128 0x6
 1587 05c8 67040000 		.4byte	.LASF91
 1588 05cc 0E       		.byte	0xe
 1589 05cd 40       		.byte	0x40
 1590 05ce 2C000000 		.4byte	0x2c
 1591 05d2 04       		.byte	0x4
 1592 05d3 00       		.byte	0
 1593 05d4 11       		.uleb128 0x11
 1594 05d5 04       		.byte	0x4
 1595 05d6 07       		.byte	0x7
 1596 05d7 96       		.byte	0x96
 1597 05d8 09060000 		.4byte	0x609
 1598 05dc 12       		.uleb128 0x12
 1599 05dd B5020000 		.4byte	.LASF92
 1600 05e1 07       		.byte	0x7
 1601 05e2 9D       		.byte	0x9d
 1602 05e3 38010000 		.4byte	0x138
 1603 05e7 12       		.uleb128 0x12
 1604 05e8 D6070000 		.4byte	.LASF93
 1605 05ec 07       		.byte	0x7
 1606 05ed A4       		.byte	0xa4
 1607 05ee 38010000 		.4byte	0x138
 1608 05f2 12       		.uleb128 0x12
 1609 05f3 01010000 		.4byte	.LASF94
 1610 05f7 07       		.byte	0x7
 1611 05f8 AB       		.byte	0xab
 1612 05f9 C9020000 		.4byte	0x2c9
 1613 05fd 12       		.uleb128 0x12
 1614 05fe 26010000 		.4byte	.LASF95
 1615 0602 07       		.byte	0x7
 1616 0603 B2       		.byte	0xb2
 1617 0604 43010000 		.4byte	0x143
 1618 0608 00       		.byte	0
 1619 0609 09       		.uleb128 0x9
 1620 060a 04       		.byte	0x4
 1621 060b 0F060000 		.4byte	0x60f
 1622 060f 15       		.uleb128 0x15
 1623 0610 14060000 		.4byte	0x614
 1624 0614 04       		.uleb128 0x4
 1625 0615 01       		.byte	0x1
 1626 0616 08       		.byte	0x8
 1627 0617 53030000 		.4byte	.LASF96
 1628 061b 09       		.uleb128 0x9
 1629 061c 04       		.byte	0x4
 1630 061d A0040000 		.4byte	0x4a0
ARM GAS  /tmp/ccDEgPij.s 			page 30


 1631 0621 03       		.uleb128 0x3
 1632 0622 D4010000 		.4byte	.LASF97
 1633 0626 07       		.byte	0x7
 1634 0627 E5       		.byte	0xe5
 1635 0628 2C060000 		.4byte	0x62c
 1636 062c 09       		.uleb128 0x9
 1637 062d 04       		.byte	0x4
 1638 062e 32060000 		.4byte	0x632
 1639 0632 10       		.uleb128 0x10
 1640 0633 38010000 		.4byte	0x138
 1641 0637 41060000 		.4byte	0x641
 1642 063b 0E       		.uleb128 0xe
 1643 063c C9020000 		.4byte	0x2c9
 1644 0640 00       		.byte	0
 1645 0641 03       		.uleb128 0x3
 1646 0642 43040000 		.4byte	.LASF98
 1647 0646 0F       		.byte	0xf
 1648 0647 38       		.byte	0x38
 1649 0648 C3000000 		.4byte	0xc3
 1650 064c 03       		.uleb128 0x3
 1651 064d E0020000 		.4byte	.LASF99
 1652 0651 0F       		.byte	0xf
 1653 0652 39       		.byte	0x39
 1654 0653 B8000000 		.4byte	0xb8
 1655 0657 03       		.uleb128 0x3
 1656 0658 F9040000 		.4byte	.LASF100
 1657 065c 0F       		.byte	0xf
 1658 065d 3A       		.byte	0x3a
 1659 065e CE000000 		.4byte	0xce
 1660 0662 03       		.uleb128 0x3
 1661 0663 19050000 		.4byte	.LASF101
 1662 0667 0F       		.byte	0xf
 1663 0668 3C       		.byte	0x3c
 1664 0669 E4000000 		.4byte	0xe4
 1665 066d 03       		.uleb128 0x3
 1666 066e 58030000 		.4byte	.LASF102
 1667 0672 10       		.byte	0x10
 1668 0673 4C       		.byte	0x4c
 1669 0674 57060000 		.4byte	0x657
 1670 0678 03       		.uleb128 0x3
 1671 0679 E5000000 		.4byte	.LASF103
 1672 067d 11       		.byte	0x11
 1673 067e 2F       		.byte	0x2f
 1674 067f 4C060000 		.4byte	0x64c
 1675 0683 03       		.uleb128 0x3
 1676 0684 CB020000 		.4byte	.LASF104
 1677 0688 12       		.byte	0x12
 1678 0689 38       		.byte	0x38
 1679 068a 8E060000 		.4byte	0x68e
 1680 068e 09       		.uleb128 0x9
 1681 068f 04       		.byte	0x4
 1682 0690 5E040000 		.4byte	0x45e
 1683 0694 03       		.uleb128 0x3
 1684 0695 1F000000 		.4byte	.LASF105
 1685 0699 12       		.byte	0x12
 1686 069a 39       		.byte	0x39
 1687 069b 9F060000 		.4byte	0x69f
ARM GAS  /tmp/ccDEgPij.s 			page 31


 1688 069f 09       		.uleb128 0x9
 1689 06a0 04       		.byte	0x4
 1690 06a1 02050000 		.4byte	0x502
 1691 06a5 03       		.uleb128 0x3
 1692 06a6 C7010000 		.4byte	.LASF106
 1693 06aa 12       		.byte	0x12
 1694 06ab 3A       		.byte	0x3a
 1695 06ac 8D020000 		.4byte	0x28d
 1696 06b0 03       		.uleb128 0x3
 1697 06b1 6F030000 		.4byte	.LASF107
 1698 06b5 12       		.byte	0x12
 1699 06b6 3B       		.byte	0x3b
 1700 06b7 25000000 		.4byte	0x25
 1701 06bb 03       		.uleb128 0x3
 1702 06bc 1C020000 		.4byte	.LASF108
 1703 06c0 13       		.byte	0x13
 1704 06c1 59       		.byte	0x59
 1705 06c2 85030000 		.4byte	0x385
 1706 06c6 05       		.uleb128 0x5
 1707 06c7 63030000 		.4byte	.LASF109
 1708 06cb 18       		.byte	0x18
 1709 06cc 14       		.byte	0x14
 1710 06cd 3A       		.byte	0x3a
 1711 06ce 62070000 		.4byte	0x762
 1712 06d2 06       		.uleb128 0x6
 1713 06d3 B3070000 		.4byte	.LASF110
 1714 06d7 14       		.byte	0x14
 1715 06d8 3B       		.byte	0x3b
 1716 06d9 57060000 		.4byte	0x657
 1717 06dd 00       		.byte	0
 1718 06de 06       		.uleb128 0x6
 1719 06df 72070000 		.4byte	.LASF111
 1720 06e3 14       		.byte	0x14
 1721 06e4 3C       		.byte	0x3c
 1722 06e5 57060000 		.4byte	0x657
 1723 06e9 02       		.byte	0x2
 1724 06ea 07       		.uleb128 0x7
 1725 06eb 667700   		.ascii	"fw\000"
 1726 06ee 14       		.byte	0x14
 1727 06ef 3D       		.byte	0x3d
 1728 06f0 57060000 		.4byte	0x657
 1729 06f4 04       		.byte	0x4
 1730 06f5 06       		.uleb128 0x6
 1731 06f6 4A070000 		.4byte	.LASF112
 1732 06fa 14       		.byte	0x14
 1733 06fb 3E       		.byte	0x3e
 1734 06fc 57060000 		.4byte	0x657
 1735 0700 06       		.byte	0x6
 1736 0701 06       		.uleb128 0x6
 1737 0702 82040000 		.4byte	.LASF113
 1738 0706 14       		.byte	0x14
 1739 0707 3F       		.byte	0x3f
 1740 0708 57060000 		.4byte	0x657
 1741 070c 08       		.byte	0x8
 1742 070d 06       		.uleb128 0x6
 1743 070e 07050000 		.4byte	.LASF114
 1744 0712 14       		.byte	0x14
ARM GAS  /tmp/ccDEgPij.s 			page 32


 1745 0713 40       		.byte	0x40
 1746 0714 57060000 		.4byte	0x657
 1747 0718 0A       		.byte	0xa
 1748 0719 06       		.uleb128 0x6
 1749 071a 93040000 		.4byte	.LASF115
 1750 071e 14       		.byte	0x14
 1751 071f 41       		.byte	0x41
 1752 0720 57060000 		.4byte	0x657
 1753 0724 0C       		.byte	0xc
 1754 0725 06       		.uleb128 0x6
 1755 0726 5A050000 		.4byte	.LASF116
 1756 072a 14       		.byte	0x14
 1757 072b 42       		.byte	0x42
 1758 072c 57060000 		.4byte	0x657
 1759 0730 0E       		.byte	0xe
 1760 0731 06       		.uleb128 0x6
 1761 0732 F2060000 		.4byte	.LASF117
 1762 0736 14       		.byte	0x14
 1763 0737 43       		.byte	0x43
 1764 0738 57060000 		.4byte	0x657
 1765 073c 10       		.byte	0x10
 1766 073d 06       		.uleb128 0x6
 1767 073e 9C010000 		.4byte	.LASF118
 1768 0742 14       		.byte	0x14
 1769 0743 44       		.byte	0x44
 1770 0744 57060000 		.4byte	0x657
 1771 0748 12       		.byte	0x12
 1772 0749 07       		.uleb128 0x7
 1773 074a 65727200 		.ascii	"err\000"
 1774 074e 14       		.byte	0x14
 1775 074f 45       		.byte	0x45
 1776 0750 57060000 		.4byte	0x657
 1777 0754 14       		.byte	0x14
 1778 0755 06       		.uleb128 0x6
 1779 0756 93050000 		.4byte	.LASF119
 1780 075a 14       		.byte	0x14
 1781 075b 46       		.byte	0x46
 1782 075c 57060000 		.4byte	0x657
 1783 0760 16       		.byte	0x16
 1784 0761 00       		.byte	0
 1785 0762 05       		.uleb128 0x5
 1786 0763 1C010000 		.4byte	.LASF120
 1787 0767 0A       		.byte	0xa
 1788 0768 14       		.byte	0x14
 1789 0769 5A       		.byte	0x5a
 1790 076a AB070000 		.4byte	0x7ab
 1791 076e 06       		.uleb128 0x6
 1792 076f 60050000 		.4byte	.LASF121
 1793 0773 14       		.byte	0x14
 1794 0774 5E       		.byte	0x5e
 1795 0775 6D060000 		.4byte	0x66d
 1796 0779 00       		.byte	0
 1797 077a 06       		.uleb128 0x6
 1798 077b 47020000 		.4byte	.LASF122
 1799 077f 14       		.byte	0x14
 1800 0780 5F       		.byte	0x5f
 1801 0781 6D060000 		.4byte	0x66d
ARM GAS  /tmp/ccDEgPij.s 			page 33


 1802 0785 02       		.byte	0x2
 1803 0786 07       		.uleb128 0x7
 1804 0787 6D617800 		.ascii	"max\000"
 1805 078b 14       		.byte	0x14
 1806 078c 60       		.byte	0x60
 1807 078d 6D060000 		.4byte	0x66d
 1808 0791 04       		.byte	0x4
 1809 0792 07       		.uleb128 0x7
 1810 0793 65727200 		.ascii	"err\000"
 1811 0797 14       		.byte	0x14
 1812 0798 61       		.byte	0x61
 1813 0799 57060000 		.4byte	0x657
 1814 079d 06       		.byte	0x6
 1815 079e 06       		.uleb128 0x6
 1816 079f BF010000 		.4byte	.LASF123
 1817 07a3 14       		.byte	0x14
 1818 07a4 62       		.byte	0x62
 1819 07a5 57060000 		.4byte	0x657
 1820 07a9 08       		.byte	0x8
 1821 07aa 00       		.byte	0
 1822 07ab 05       		.uleb128 0x5
 1823 07ac 46010000 		.4byte	.LASF124
 1824 07b0 06       		.byte	0x6
 1825 07b1 14       		.byte	0x14
 1826 07b2 65       		.byte	0x65
 1827 07b3 DC070000 		.4byte	0x7dc
 1828 07b7 06       		.uleb128 0x6
 1829 07b8 47020000 		.4byte	.LASF122
 1830 07bc 14       		.byte	0x14
 1831 07bd 66       		.byte	0x66
 1832 07be 57060000 		.4byte	0x657
 1833 07c2 00       		.byte	0
 1834 07c3 07       		.uleb128 0x7
 1835 07c4 6D617800 		.ascii	"max\000"
 1836 07c8 14       		.byte	0x14
 1837 07c9 67       		.byte	0x67
 1838 07ca 57060000 		.4byte	0x657
 1839 07ce 02       		.byte	0x2
 1840 07cf 07       		.uleb128 0x7
 1841 07d0 65727200 		.ascii	"err\000"
 1842 07d4 14       		.byte	0x14
 1843 07d5 68       		.byte	0x68
 1844 07d6 57060000 		.4byte	0x657
 1845 07da 04       		.byte	0x4
 1846 07db 00       		.byte	0
 1847 07dc 05       		.uleb128 0x5
 1848 07dd 08070000 		.4byte	.LASF125
 1849 07e1 12       		.byte	0x12
 1850 07e2 14       		.byte	0x14
 1851 07e3 6B       		.byte	0x6b
 1852 07e4 0D080000 		.4byte	0x80d
 1853 07e8 07       		.uleb128 0x7
 1854 07e9 73656D00 		.ascii	"sem\000"
 1855 07ed 14       		.byte	0x14
 1856 07ee 6C       		.byte	0x6c
 1857 07ef AB070000 		.4byte	0x7ab
 1858 07f3 00       		.byte	0
ARM GAS  /tmp/ccDEgPij.s 			page 34


 1859 07f4 06       		.uleb128 0x6
 1860 07f5 A3010000 		.4byte	.LASF126
 1861 07f9 14       		.byte	0x14
 1862 07fa 6D       		.byte	0x6d
 1863 07fb AB070000 		.4byte	0x7ab
 1864 07ff 06       		.byte	0x6
 1865 0800 06       		.uleb128 0x6
 1866 0801 7C050000 		.4byte	.LASF127
 1867 0805 14       		.byte	0x14
 1868 0806 6E       		.byte	0x6e
 1869 0807 AB070000 		.4byte	0x7ab
 1870 080b 0C       		.byte	0xc
 1871 080c 00       		.byte	0
 1872 080d 16       		.uleb128 0x16
 1873 080e 4C020000 		.4byte	.LASF128
 1874 0812 5001     		.2byte	0x150
 1875 0814 14       		.byte	0x14
 1876 0815 71       		.byte	0x71
 1877 0816 93080000 		.4byte	0x893
 1878 081a 06       		.uleb128 0x6
 1879 081b 32070000 		.4byte	.LASF129
 1880 081f 14       		.byte	0x14
 1881 0820 73       		.byte	0x73
 1882 0821 C6060000 		.4byte	0x6c6
 1883 0825 00       		.byte	0
 1884 0826 06       		.uleb128 0x6
 1885 0827 DC010000 		.4byte	.LASF130
 1886 082b 14       		.byte	0x14
 1887 082c 76       		.byte	0x76
 1888 082d C6060000 		.4byte	0x6c6
 1889 0831 18       		.byte	0x18
 1890 0832 06       		.uleb128 0x6
 1891 0833 A9010000 		.4byte	.LASF131
 1892 0837 14       		.byte	0x14
 1893 0838 79       		.byte	0x79
 1894 0839 C6060000 		.4byte	0x6c6
 1895 083d 30       		.byte	0x30
 1896 083e 07       		.uleb128 0x7
 1897 083f 697000   		.ascii	"ip\000"
 1898 0842 14       		.byte	0x14
 1899 0843 7C       		.byte	0x7c
 1900 0844 C6060000 		.4byte	0x6c6
 1901 0848 48       		.byte	0x48
 1902 0849 06       		.uleb128 0x6
 1903 084a DF070000 		.4byte	.LASF132
 1904 084e 14       		.byte	0x14
 1905 084f 7F       		.byte	0x7f
 1906 0850 C6060000 		.4byte	0x6c6
 1907 0854 60       		.byte	0x60
 1908 0855 07       		.uleb128 0x7
 1909 0856 75647000 		.ascii	"udp\000"
 1910 085a 14       		.byte	0x14
 1911 085b 85       		.byte	0x85
 1912 085c C6060000 		.4byte	0x6c6
 1913 0860 78       		.byte	0x78
 1914 0861 07       		.uleb128 0x7
 1915 0862 74637000 		.ascii	"tcp\000"
ARM GAS  /tmp/ccDEgPij.s 			page 35


 1916 0866 14       		.byte	0x14
 1917 0867 88       		.byte	0x88
 1918 0868 C6060000 		.4byte	0x6c6
 1919 086c 90       		.byte	0x90
 1920 086d 07       		.uleb128 0x7
 1921 086e 6D656D00 		.ascii	"mem\000"
 1922 0872 14       		.byte	0x14
 1923 0873 8B       		.byte	0x8b
 1924 0874 62070000 		.4byte	0x762
 1925 0878 A8       		.byte	0xa8
 1926 0879 06       		.uleb128 0x6
 1927 087a 02060000 		.4byte	.LASF133
 1928 087e 14       		.byte	0x14
 1929 087f 8E       		.byte	0x8e
 1930 0880 93080000 		.4byte	0x893
 1931 0884 B2       		.byte	0xb2
 1932 0885 17       		.uleb128 0x17
 1933 0886 73797300 		.ascii	"sys\000"
 1934 088a 14       		.byte	0x14
 1935 088b 91       		.byte	0x91
 1936 088c DC070000 		.4byte	0x7dc
 1937 0890 3E01     		.2byte	0x13e
 1938 0892 00       		.byte	0
 1939 0893 18       		.uleb128 0x18
 1940 0894 62070000 		.4byte	0x762
 1941 0898 A3080000 		.4byte	0x8a3
 1942 089c 19       		.uleb128 0x19
 1943 089d 73030000 		.4byte	0x373
 1944 08a1 0D       		.byte	0xd
 1945 08a2 00       		.byte	0
 1946 08a3 1A       		.uleb128 0x1a
 1947 08a4 26030000 		.4byte	.LASF179
 1948 08a8 01       		.byte	0x1
 1949 08a9 3F       		.byte	0x3f
 1950 08aa 00000000 		.4byte	.LFB7
 1951 08ae 02000000 		.4byte	.LFE7-.LFB7
 1952 08b2 01       		.uleb128 0x1
 1953 08b3 9C       		.byte	0x9c
 1954 08b4 1B       		.uleb128 0x1b
 1955 08b5 1E040000 		.4byte	.LASF138
 1956 08b9 01       		.byte	0x1
 1957 08ba 43       		.byte	0x43
 1958 08bb 78060000 		.4byte	0x678
 1959 08bf 00000000 		.4byte	.LFB8
 1960 08c3 54000000 		.4byte	.LFE8-.LFB8
 1961 08c7 01       		.uleb128 0x1
 1962 08c8 9C       		.byte	0x9c
 1963 08c9 14090000 		.4byte	0x914
 1964 08cd 1C       		.uleb128 0x1c
 1965 08ce 73656D00 		.ascii	"sem\000"
 1966 08d2 01       		.byte	0x1
 1967 08d3 43       		.byte	0x43
 1968 08d4 14090000 		.4byte	0x914
 1969 08d8 00000000 		.4byte	.LLST0
 1970 08dc 1D       		.uleb128 0x1d
 1971 08dd B9010000 		.4byte	.LASF134
 1972 08e1 01       		.byte	0x1
ARM GAS  /tmp/ccDEgPij.s 			page 36


 1973 08e2 43       		.byte	0x43
 1974 08e3 41060000 		.4byte	0x641
 1975 08e7 1E000000 		.4byte	.LLST1
 1976 08eb 1E       		.uleb128 0x1e
 1977 08ec 0E000000 		.4byte	.LVL3
 1978 08f0 860E0000 		.4byte	0xe86
 1979 08f4 03090000 		.4byte	0x903
 1980 08f8 1F       		.uleb128 0x1f
 1981 08f9 01       		.uleb128 0x1
 1982 08fa 51       		.byte	0x51
 1983 08fb 01       		.uleb128 0x1
 1984 08fc 3C       		.byte	0x3c
 1985 08fd 1F       		.uleb128 0x1f
 1986 08fe 01       		.uleb128 0x1
 1987 08ff 50       		.byte	0x50
 1988 0900 01       		.uleb128 0x1
 1989 0901 30       		.byte	0x30
 1990 0902 00       		.byte	0
 1991 0903 20       		.uleb128 0x20
 1992 0904 18000000 		.4byte	.LVL4
 1993 0908 A00E0000 		.4byte	0xea0
 1994 090c 1F       		.uleb128 0x1f
 1995 090d 01       		.uleb128 0x1
 1996 090e 51       		.byte	0x51
 1997 090f 02       		.uleb128 0x2
 1998 0910 75       		.byte	0x75
 1999 0911 00       		.sleb128 0
 2000 0912 00       		.byte	0
 2001 0913 00       		.byte	0
 2002 0914 09       		.uleb128 0x9
 2003 0915 04       		.byte	0x4
 2004 0916 83060000 		.4byte	0x683
 2005 091a 21       		.uleb128 0x21
 2006 091b F5050000 		.4byte	.LASF135
 2007 091f 01       		.byte	0x1
 2008 0920 51       		.byte	0x51
 2009 0921 00000000 		.4byte	.LFB9
 2010 0925 22000000 		.4byte	.LFE9-.LFB9
 2011 0929 01       		.uleb128 0x1
 2012 092a 9C       		.byte	0x9c
 2013 092b 48090000 		.4byte	0x948
 2014 092f 1C       		.uleb128 0x1c
 2015 0930 73656D00 		.ascii	"sem\000"
 2016 0934 01       		.byte	0x1
 2017 0935 51       		.byte	0x51
 2018 0936 14090000 		.4byte	0x914
 2019 093a 3F000000 		.4byte	.LLST2
 2020 093e 22       		.uleb128 0x22
 2021 093f 0A000000 		.4byte	.LVL8
 2022 0943 B60E0000 		.4byte	0xeb6
 2023 0947 00       		.byte	0
 2024 0948 21       		.uleb128 0x21
 2025 0949 38020000 		.4byte	.LASF136
 2026 094d 01       		.byte	0x1
 2027 094e 58       		.byte	0x58
 2028 094f 00000000 		.4byte	.LFB10
 2029 0953 06000000 		.4byte	.LFE10-.LFB10
ARM GAS  /tmp/ccDEgPij.s 			page 37


 2030 0957 01       		.uleb128 0x1
 2031 0958 9C       		.byte	0x9c
 2032 0959 76090000 		.4byte	0x976
 2033 095d 1C       		.uleb128 0x1c
 2034 095e 73656D00 		.ascii	"sem\000"
 2035 0962 01       		.byte	0x1
 2036 0963 58       		.byte	0x58
 2037 0964 14090000 		.4byte	0x914
 2038 0968 5D000000 		.4byte	.LLST3
 2039 096c 23       		.uleb128 0x23
 2040 096d 06000000 		.4byte	.LVL11
 2041 0971 C70E0000 		.4byte	0xec7
 2042 0975 00       		.byte	0
 2043 0976 21       		.uleb128 0x21
 2044 0977 E3010000 		.4byte	.LASF137
 2045 097b 01       		.byte	0x1
 2046 097c 5F       		.byte	0x5f
 2047 097d 00000000 		.4byte	.LFB11
 2048 0981 10000000 		.4byte	.LFE11-.LFB11
 2049 0985 01       		.uleb128 0x1
 2050 0986 9C       		.byte	0x9c
 2051 0987 AD090000 		.4byte	0x9ad
 2052 098b 1C       		.uleb128 0x1c
 2053 098c 73656D00 		.ascii	"sem\000"
 2054 0990 01       		.byte	0x1
 2055 0991 5F       		.byte	0x5f
 2056 0992 14090000 		.4byte	0x914
 2057 0996 7E000000 		.4byte	.LLST4
 2058 099a 22       		.uleb128 0x22
 2059 099b 08000000 		.4byte	.LVL14
 2060 099f D80E0000 		.4byte	0xed8
 2061 09a3 23       		.uleb128 0x23
 2062 09a4 10000000 		.4byte	.LVL15
 2063 09a8 E90E0000 		.4byte	0xee9
 2064 09ac 00       		.byte	0
 2065 09ad 1B       		.uleb128 0x1b
 2066 09ae 81050000 		.4byte	.LASF139
 2067 09b2 01       		.byte	0x1
 2068 09b3 65       		.byte	0x65
 2069 09b4 62060000 		.4byte	0x662
 2070 09b8 00000000 		.4byte	.LFB12
 2071 09bc 3A000000 		.4byte	.LFE12-.LFB12
 2072 09c0 01       		.uleb128 0x1
 2073 09c1 9C       		.byte	0x9c
 2074 09c2 520A0000 		.4byte	0xa52
 2075 09c6 1C       		.uleb128 0x1c
 2076 09c7 73656D00 		.ascii	"sem\000"
 2077 09cb 01       		.byte	0x1
 2078 09cc 65       		.byte	0x65
 2079 09cd 14090000 		.4byte	0x914
 2080 09d1 9F000000 		.4byte	.LLST5
 2081 09d5 1D       		.uleb128 0x1d
 2082 09d6 FF040000 		.4byte	.LASF140
 2083 09da 01       		.byte	0x1
 2084 09db 65       		.byte	0x65
 2085 09dc 62060000 		.4byte	0x662
 2086 09e0 C0000000 		.4byte	.LLST6
ARM GAS  /tmp/ccDEgPij.s 			page 38


 2087 09e4 24       		.uleb128 0x24
 2088 09e5 2B020000 		.4byte	.LASF141
 2089 09e9 01       		.byte	0x1
 2090 09ea 66       		.byte	0x66
 2091 09eb 4E010000 		.4byte	0x14e
 2092 09ef E1000000 		.4byte	.LLST7
 2093 09f3 25       		.uleb128 0x25
 2094 09f4 746D6F00 		.ascii	"tmo\000"
 2095 09f8 01       		.byte	0x1
 2096 09f9 66       		.byte	0x66
 2097 09fa 4E010000 		.4byte	0x14e
 2098 09fe 15010000 		.4byte	.LLST8
 2099 0a02 26       		.uleb128 0x26
 2100 0a03 02000000 		.4byte	.LBB2
 2101 0a07 06000000 		.4byte	.LBE2-.LBB2
 2102 0a0b 1D0A0000 		.4byte	0xa1d
 2103 0a0f 27       		.uleb128 0x27
 2104 0a10 746D7000 		.ascii	"tmp\000"
 2105 0a14 01       		.byte	0x1
 2106 0a15 68       		.byte	0x68
 2107 0a16 E4000000 		.4byte	0xe4
 2108 0a1a 01       		.uleb128 0x1
 2109 0a1b 53       		.byte	0x53
 2110 0a1c 00       		.byte	0
 2111 0a1d 28       		.uleb128 0x28
 2112 0a1e 00000000 		.4byte	.Ldebug_ranges0+0
 2113 0a22 340A0000 		.4byte	0xa34
 2114 0a26 27       		.uleb128 0x27
 2115 0a27 746D7000 		.ascii	"tmp\000"
 2116 0a2b 01       		.byte	0x1
 2117 0a2c 6F       		.byte	0x6f
 2118 0a2d E4000000 		.4byte	0xe4
 2119 0a31 01       		.uleb128 0x1
 2120 0a32 53       		.byte	0x53
 2121 0a33 00       		.byte	0
 2122 0a34 20       		.uleb128 0x20
 2123 0a35 20000000 		.4byte	.LVL21
 2124 0a39 F00E0000 		.4byte	0xef0
 2125 0a3d 1F       		.uleb128 0x1f
 2126 0a3e 01       		.uleb128 0x1
 2127 0a3f 51       		.byte	0x51
 2128 0a40 0F       		.uleb128 0xf
 2129 0a41 F3       		.byte	0xf3
 2130 0a42 01       		.uleb128 0x1
 2131 0a43 51       		.byte	0x51
 2132 0a44 09       		.byte	0x9
 2133 0a45 FF       		.byte	0xff
 2134 0a46 F3       		.byte	0xf3
 2135 0a47 01       		.uleb128 0x1
 2136 0a48 51       		.byte	0x51
 2137 0a49 30       		.byte	0x30
 2138 0a4a 2E       		.byte	0x2e
 2139 0a4b 28       		.byte	0x28
 2140 0a4c 0100     		.2byte	0x1
 2141 0a4e 16       		.byte	0x16
 2142 0a4f 13       		.byte	0x13
 2143 0a50 00       		.byte	0
ARM GAS  /tmp/ccDEgPij.s 			page 39


 2144 0a51 00       		.byte	0
 2145 0a52 1B       		.uleb128 0x1b
 2146 0a53 57070000 		.4byte	.LASF142
 2147 0a57 01       		.byte	0x1
 2148 0a58 73       		.byte	0x73
 2149 0a59 25000000 		.4byte	0x25
 2150 0a5d 00000000 		.4byte	.LFB13
 2151 0a61 0A000000 		.4byte	.LFE13-.LFB13
 2152 0a65 01       		.uleb128 0x1
 2153 0a66 9C       		.byte	0x9c
 2154 0a67 7B0A0000 		.4byte	0xa7b
 2155 0a6b 1C       		.uleb128 0x1c
 2156 0a6c 73656D00 		.ascii	"sem\000"
 2157 0a70 01       		.byte	0x1
 2158 0a71 73       		.byte	0x73
 2159 0a72 14090000 		.4byte	0x914
 2160 0a76 5A010000 		.4byte	.LLST9
 2161 0a7a 00       		.byte	0
 2162 0a7b 21       		.uleb128 0x21
 2163 0a7c 12030000 		.4byte	.LASF143
 2164 0a80 01       		.byte	0x1
 2165 0a81 79       		.byte	0x79
 2166 0a82 00000000 		.4byte	.LFB14
 2167 0a86 06000000 		.4byte	.LFE14-.LFB14
 2168 0a8a 01       		.uleb128 0x1
 2169 0a8b 9C       		.byte	0x9c
 2170 0a8c 9E0A0000 		.4byte	0xa9e
 2171 0a90 29       		.uleb128 0x29
 2172 0a91 73656D00 		.ascii	"sem\000"
 2173 0a95 01       		.byte	0x1
 2174 0a96 79       		.byte	0x79
 2175 0a97 14090000 		.4byte	0x914
 2176 0a9b 01       		.uleb128 0x1
 2177 0a9c 50       		.byte	0x50
 2178 0a9d 00       		.byte	0
 2179 0a9e 1B       		.uleb128 0x1b
 2180 0a9f 65070000 		.4byte	.LASF144
 2181 0aa3 01       		.byte	0x1
 2182 0aa4 7D       		.byte	0x7d
 2183 0aa5 78060000 		.4byte	0x678
 2184 0aa9 00000000 		.4byte	.LFB15
 2185 0aad 4C000000 		.4byte	.LFE15-.LFB15
 2186 0ab1 01       		.uleb128 0x1
 2187 0ab2 9C       		.byte	0x9c
 2188 0ab3 010B0000 		.4byte	0xb01
 2189 0ab7 1D       		.uleb128 0x1d
 2190 0ab8 7C050000 		.4byte	.LASF127
 2191 0abc 01       		.byte	0x1
 2192 0abd 7D       		.byte	0x7d
 2193 0abe 010B0000 		.4byte	0xb01
 2194 0ac2 7B010000 		.4byte	.LLST10
 2195 0ac6 1D       		.uleb128 0x1d
 2196 0ac7 67040000 		.4byte	.LASF91
 2197 0acb 01       		.byte	0x1
 2198 0acc 7D       		.byte	0x7d
 2199 0acd 25000000 		.4byte	0x25
 2200 0ad1 99010000 		.4byte	.LLST11
ARM GAS  /tmp/ccDEgPij.s 			page 40


 2201 0ad5 1E       		.uleb128 0x1e
 2202 0ad6 10000000 		.4byte	.LVL31
 2203 0ada 860E0000 		.4byte	0xe86
 2204 0ade F00A0000 		.4byte	0xaf0
 2205 0ae2 1F       		.uleb128 0x1f
 2206 0ae3 01       		.uleb128 0x1
 2207 0ae4 51       		.byte	0x51
 2208 0ae5 04       		.uleb128 0x4
 2209 0ae6 74       		.byte	0x74
 2210 0ae7 0A       		.sleb128 10
 2211 0ae8 32       		.byte	0x32
 2212 0ae9 24       		.byte	0x24
 2213 0aea 1F       		.uleb128 0x1f
 2214 0aeb 01       		.uleb128 0x1
 2215 0aec 50       		.byte	0x50
 2216 0aed 01       		.uleb128 0x1
 2217 0aee 30       		.byte	0x30
 2218 0aef 00       		.byte	0
 2219 0af0 20       		.uleb128 0x20
 2220 0af1 1E000000 		.4byte	.LVL32
 2221 0af5 0A0F0000 		.4byte	0xf0a
 2222 0af9 1F       		.uleb128 0x1f
 2223 0afa 01       		.uleb128 0x1
 2224 0afb 52       		.byte	0x52
 2225 0afc 02       		.uleb128 0x2
 2226 0afd 74       		.byte	0x74
 2227 0afe 00       		.sleb128 0
 2228 0aff 00       		.byte	0
 2229 0b00 00       		.byte	0
 2230 0b01 09       		.uleb128 0x9
 2231 0b02 04       		.byte	0x4
 2232 0b03 94060000 		.4byte	0x694
 2233 0b07 21       		.uleb128 0x21
 2234 0b08 53020000 		.4byte	.LASF145
 2235 0b0c 01       		.byte	0x1
 2236 0b0d 8B       		.byte	0x8b
 2237 0b0e 00000000 		.4byte	.LFB16
 2238 0b12 36000000 		.4byte	.LFE16-.LFB16
 2239 0b16 01       		.uleb128 0x1
 2240 0b17 9C       		.byte	0x9c
 2241 0b18 3E0B0000 		.4byte	0xb3e
 2242 0b1c 1D       		.uleb128 0x1d
 2243 0b1d 7C050000 		.4byte	.LASF127
 2244 0b21 01       		.byte	0x1
 2245 0b22 8B       		.byte	0x8b
 2246 0b23 010B0000 		.4byte	0xb01
 2247 0b27 B7010000 		.4byte	.LLST12
 2248 0b2b 22       		.uleb128 0x22
 2249 0b2c 20000000 		.4byte	.LVL36
 2250 0b30 250F0000 		.4byte	0xf25
 2251 0b34 22       		.uleb128 0x22
 2252 0b35 26000000 		.4byte	.LVL37
 2253 0b39 B60E0000 		.4byte	0xeb6
 2254 0b3d 00       		.byte	0
 2255 0b3e 21       		.uleb128 0x21
 2256 0b3f FA060000 		.4byte	.LASF146
 2257 0b43 01       		.byte	0x1
ARM GAS  /tmp/ccDEgPij.s 			page 41


 2258 0b44 99       		.byte	0x99
 2259 0b45 00000000 		.4byte	.LFB17
 2260 0b49 0A000000 		.4byte	.LFE17-.LFB17
 2261 0b4d 01       		.uleb128 0x1
 2262 0b4e 9C       		.byte	0x9c
 2263 0b4f 890B0000 		.4byte	0xb89
 2264 0b53 1D       		.uleb128 0x1d
 2265 0b54 7C050000 		.4byte	.LASF127
 2266 0b58 01       		.byte	0x1
 2267 0b59 99       		.byte	0x99
 2268 0b5a 010B0000 		.4byte	0xb01
 2269 0b5e D5010000 		.4byte	.LLST13
 2270 0b62 1C       		.uleb128 0x1c
 2271 0b63 6D736700 		.ascii	"msg\000"
 2272 0b67 01       		.byte	0x1
 2273 0b68 99       		.byte	0x99
 2274 0b69 C9020000 		.4byte	0x2c9
 2275 0b6d F6010000 		.4byte	.LLST14
 2276 0b71 2A       		.uleb128 0x2a
 2277 0b72 0A000000 		.4byte	.LVL40
 2278 0b76 360F0000 		.4byte	0xf36
 2279 0b7a 1F       		.uleb128 0x1f
 2280 0b7b 01       		.uleb128 0x1
 2281 0b7c 52       		.byte	0x52
 2282 0b7d 02       		.uleb128 0x2
 2283 0b7e 09       		.byte	0x9
 2284 0b7f FF       		.byte	0xff
 2285 0b80 1F       		.uleb128 0x1f
 2286 0b81 01       		.uleb128 0x1
 2287 0b82 51       		.byte	0x51
 2288 0b83 03       		.uleb128 0x3
 2289 0b84 F3       		.byte	0xf3
 2290 0b85 01       		.uleb128 0x1
 2291 0b86 51       		.byte	0x51
 2292 0b87 00       		.byte	0
 2293 0b88 00       		.byte	0
 2294 0b89 1B       		.uleb128 0x1b
 2295 0b8a CE040000 		.4byte	.LASF147
 2296 0b8e 01       		.byte	0x1
 2297 0b8f 9E       		.byte	0x9e
 2298 0b90 78060000 		.4byte	0x678
 2299 0b94 00000000 		.4byte	.LFB18
 2300 0b98 2A000000 		.4byte	.LFE18-.LFB18
 2301 0b9c 01       		.uleb128 0x1
 2302 0b9d 9C       		.byte	0x9c
 2303 0b9e D70B0000 		.4byte	0xbd7
 2304 0ba2 1D       		.uleb128 0x1d
 2305 0ba3 7C050000 		.4byte	.LASF127
 2306 0ba7 01       		.byte	0x1
 2307 0ba8 9E       		.byte	0x9e
 2308 0ba9 010B0000 		.4byte	0xb01
 2309 0bad 17020000 		.4byte	.LLST15
 2310 0bb1 1C       		.uleb128 0x1c
 2311 0bb2 6D736700 		.ascii	"msg\000"
 2312 0bb6 01       		.byte	0x1
 2313 0bb7 9E       		.byte	0x9e
 2314 0bb8 C9020000 		.4byte	0x2c9
ARM GAS  /tmp/ccDEgPij.s 			page 42


 2315 0bbc 38020000 		.4byte	.LLST16
 2316 0bc0 20       		.uleb128 0x20
 2317 0bc1 0A000000 		.4byte	.LVL43
 2318 0bc5 360F0000 		.4byte	0xf36
 2319 0bc9 1F       		.uleb128 0x1f
 2320 0bca 01       		.uleb128 0x1
 2321 0bcb 52       		.byte	0x52
 2322 0bcc 01       		.uleb128 0x1
 2323 0bcd 30       		.byte	0x30
 2324 0bce 1F       		.uleb128 0x1f
 2325 0bcf 01       		.uleb128 0x1
 2326 0bd0 51       		.byte	0x51
 2327 0bd1 03       		.uleb128 0x3
 2328 0bd2 F3       		.byte	0xf3
 2329 0bd3 01       		.uleb128 0x1
 2330 0bd4 51       		.byte	0x51
 2331 0bd5 00       		.byte	0
 2332 0bd6 00       		.byte	0
 2333 0bd7 1B       		.uleb128 0x1b
 2334 0bd8 0A040000 		.4byte	.LASF148
 2335 0bdc 01       		.byte	0x1
 2336 0bdd A7       		.byte	0xa7
 2337 0bde 62060000 		.4byte	0x662
 2338 0be2 00000000 		.4byte	.LFB19
 2339 0be6 3A000000 		.4byte	.LFE19-.LFB19
 2340 0bea 01       		.uleb128 0x1
 2341 0beb 9C       		.byte	0x9c
 2342 0bec 920C0000 		.4byte	0xc92
 2343 0bf0 1D       		.uleb128 0x1d
 2344 0bf1 7C050000 		.4byte	.LASF127
 2345 0bf5 01       		.byte	0x1
 2346 0bf6 A7       		.byte	0xa7
 2347 0bf7 010B0000 		.4byte	0xb01
 2348 0bfb 59020000 		.4byte	.LLST17
 2349 0bff 1C       		.uleb128 0x1c
 2350 0c00 6D736700 		.ascii	"msg\000"
 2351 0c04 01       		.byte	0x1
 2352 0c05 A7       		.byte	0xa7
 2353 0c06 920C0000 		.4byte	0xc92
 2354 0c0a 7A020000 		.4byte	.LLST18
 2355 0c0e 1D       		.uleb128 0x1d
 2356 0c0f FF040000 		.4byte	.LASF140
 2357 0c13 01       		.byte	0x1
 2358 0c14 A7       		.byte	0xa7
 2359 0c15 62060000 		.4byte	0x662
 2360 0c19 9B020000 		.4byte	.LLST19
 2361 0c1d 24       		.uleb128 0x24
 2362 0c1e 2B020000 		.4byte	.LASF141
 2363 0c22 01       		.byte	0x1
 2364 0c23 A8       		.byte	0xa8
 2365 0c24 4E010000 		.4byte	0x14e
 2366 0c28 BC020000 		.4byte	.LLST20
 2367 0c2c 25       		.uleb128 0x25
 2368 0c2d 746D6F00 		.ascii	"tmo\000"
 2369 0c31 01       		.byte	0x1
 2370 0c32 A8       		.byte	0xa8
 2371 0c33 4E010000 		.4byte	0x14e
ARM GAS  /tmp/ccDEgPij.s 			page 43


 2372 0c37 F0020000 		.4byte	.LLST21
 2373 0c3b 26       		.uleb128 0x26
 2374 0c3c 02000000 		.4byte	.LBB6
 2375 0c40 06000000 		.4byte	.LBE6-.LBB6
 2376 0c44 560C0000 		.4byte	0xc56
 2377 0c48 27       		.uleb128 0x27
 2378 0c49 746D7000 		.ascii	"tmp\000"
 2379 0c4d 01       		.byte	0x1
 2380 0c4e AA       		.byte	0xaa
 2381 0c4f E4000000 		.4byte	0xe4
 2382 0c53 01       		.uleb128 0x1
 2383 0c54 53       		.byte	0x53
 2384 0c55 00       		.byte	0
 2385 0c56 28       		.uleb128 0x28
 2386 0c57 20000000 		.4byte	.Ldebug_ranges0+0x20
 2387 0c5b 6D0C0000 		.4byte	0xc6d
 2388 0c5f 27       		.uleb128 0x27
 2389 0c60 746D7000 		.ascii	"tmp\000"
 2390 0c64 01       		.byte	0x1
 2391 0c65 B1       		.byte	0xb1
 2392 0c66 E4000000 		.4byte	0xe4
 2393 0c6a 01       		.uleb128 0x1
 2394 0c6b 53       		.byte	0x53
 2395 0c6c 00       		.byte	0
 2396 0c6d 20       		.uleb128 0x20
 2397 0c6e 20000000 		.4byte	.LVL49
 2398 0c72 550F0000 		.4byte	0xf55
 2399 0c76 1F       		.uleb128 0x1f
 2400 0c77 01       		.uleb128 0x1
 2401 0c78 52       		.byte	0x52
 2402 0c79 0F       		.uleb128 0xf
 2403 0c7a F3       		.byte	0xf3
 2404 0c7b 01       		.uleb128 0x1
 2405 0c7c 52       		.byte	0x52
 2406 0c7d 09       		.byte	0x9
 2407 0c7e FF       		.byte	0xff
 2408 0c7f F3       		.byte	0xf3
 2409 0c80 01       		.uleb128 0x1
 2410 0c81 52       		.byte	0x52
 2411 0c82 30       		.byte	0x30
 2412 0c83 2E       		.byte	0x2e
 2413 0c84 28       		.byte	0x28
 2414 0c85 0100     		.2byte	0x1
 2415 0c87 16       		.byte	0x16
 2416 0c88 13       		.byte	0x13
 2417 0c89 1F       		.uleb128 0x1f
 2418 0c8a 01       		.uleb128 0x1
 2419 0c8b 51       		.byte	0x51
 2420 0c8c 03       		.uleb128 0x3
 2421 0c8d F3       		.byte	0xf3
 2422 0c8e 01       		.uleb128 0x1
 2423 0c8f 51       		.byte	0x51
 2424 0c90 00       		.byte	0
 2425 0c91 00       		.byte	0
 2426 0c92 09       		.uleb128 0x9
 2427 0c93 04       		.byte	0x4
 2428 0c94 C9020000 		.4byte	0x2c9
ARM GAS  /tmp/ccDEgPij.s 			page 44


 2429 0c98 1B       		.uleb128 0x1b
 2430 0c99 50040000 		.4byte	.LASF149
 2431 0c9d 01       		.byte	0x1
 2432 0c9e B5       		.byte	0xb5
 2433 0c9f 62060000 		.4byte	0x662
 2434 0ca3 00000000 		.4byte	.LFB20
 2435 0ca7 18000000 		.4byte	.LFE20-.LFB20
 2436 0cab 01       		.uleb128 0x1
 2437 0cac 9C       		.byte	0x9c
 2438 0cad E60C0000 		.4byte	0xce6
 2439 0cb1 1D       		.uleb128 0x1d
 2440 0cb2 7C050000 		.4byte	.LASF127
 2441 0cb6 01       		.byte	0x1
 2442 0cb7 B5       		.byte	0xb5
 2443 0cb8 010B0000 		.4byte	0xb01
 2444 0cbc 35030000 		.4byte	.LLST22
 2445 0cc0 1C       		.uleb128 0x1c
 2446 0cc1 6D736700 		.ascii	"msg\000"
 2447 0cc5 01       		.byte	0x1
 2448 0cc6 B5       		.byte	0xb5
 2449 0cc7 920C0000 		.4byte	0xc92
 2450 0ccb 56030000 		.4byte	.LLST23
 2451 0ccf 20       		.uleb128 0x20
 2452 0cd0 0A000000 		.4byte	.LVL55
 2453 0cd4 740F0000 		.4byte	0xf74
 2454 0cd8 1F       		.uleb128 0x1f
 2455 0cd9 01       		.uleb128 0x1
 2456 0cda 52       		.byte	0x52
 2457 0cdb 01       		.uleb128 0x1
 2458 0cdc 30       		.byte	0x30
 2459 0cdd 1F       		.uleb128 0x1f
 2460 0cde 01       		.uleb128 0x1
 2461 0cdf 51       		.byte	0x51
 2462 0ce0 03       		.uleb128 0x3
 2463 0ce1 F3       		.byte	0xf3
 2464 0ce2 01       		.uleb128 0x1
 2465 0ce3 51       		.byte	0x51
 2466 0ce4 00       		.byte	0
 2467 0ce5 00       		.byte	0
 2468 0ce6 1B       		.uleb128 0x1b
 2469 0ce7 73040000 		.4byte	.LASF150
 2470 0ceb 01       		.byte	0x1
 2471 0cec BC       		.byte	0xbc
 2472 0ced 25000000 		.4byte	0x25
 2473 0cf1 00000000 		.4byte	.LFB21
 2474 0cf5 0A000000 		.4byte	.LFE21-.LFB21
 2475 0cf9 01       		.uleb128 0x1
 2476 0cfa 9C       		.byte	0x9c
 2477 0cfb 0F0D0000 		.4byte	0xd0f
 2478 0cff 1D       		.uleb128 0x1d
 2479 0d00 7C050000 		.4byte	.LASF127
 2480 0d04 01       		.byte	0x1
 2481 0d05 BC       		.byte	0xbc
 2482 0d06 010B0000 		.4byte	0xb01
 2483 0d0a 77030000 		.4byte	.LLST24
 2484 0d0e 00       		.byte	0
 2485 0d0f 21       		.uleb128 0x21
ARM GAS  /tmp/ccDEgPij.s 			page 45


 2486 0d10 A4000000 		.4byte	.LASF151
 2487 0d14 01       		.byte	0x1
 2488 0d15 C2       		.byte	0xc2
 2489 0d16 00000000 		.4byte	.LFB22
 2490 0d1a 06000000 		.4byte	.LFE22-.LFB22
 2491 0d1e 01       		.uleb128 0x1
 2492 0d1f 9C       		.byte	0x9c
 2493 0d20 320D0000 		.4byte	0xd32
 2494 0d24 2B       		.uleb128 0x2b
 2495 0d25 7C050000 		.4byte	.LASF127
 2496 0d29 01       		.byte	0x1
 2497 0d2a C2       		.byte	0xc2
 2498 0d2b 010B0000 		.4byte	0xb01
 2499 0d2f 01       		.uleb128 0x1
 2500 0d30 50       		.byte	0x50
 2501 0d31 00       		.byte	0
 2502 0d32 1B       		.uleb128 0x1b
 2503 0d33 D6000000 		.4byte	.LASF152
 2504 0d37 01       		.byte	0x1
 2505 0d38 C6       		.byte	0xc6
 2506 0d39 A5060000 		.4byte	0x6a5
 2507 0d3d 00000000 		.4byte	.LFB23
 2508 0d41 2E000000 		.4byte	.LFE23-.LFB23
 2509 0d45 01       		.uleb128 0x1
 2510 0d46 9C       		.byte	0x9c
 2511 0d47 F00D0000 		.4byte	0xdf0
 2512 0d4b 1D       		.uleb128 0x1d
 2513 0d4c CA050000 		.4byte	.LASF153
 2514 0d50 01       		.byte	0x1
 2515 0d51 C6       		.byte	0xc6
 2516 0d52 09060000 		.4byte	0x609
 2517 0d56 98030000 		.4byte	.LLST25
 2518 0d5a 1D       		.uleb128 0x1d
 2519 0d5b EB060000 		.4byte	.LASF154
 2520 0d5f 01       		.byte	0x1
 2521 0d60 C6       		.byte	0xc6
 2522 0d61 BB060000 		.4byte	0x6bb
 2523 0d65 B9030000 		.4byte	.LLST26
 2524 0d69 1C       		.uleb128 0x1c
 2525 0d6a 61726700 		.ascii	"arg\000"
 2526 0d6e 01       		.byte	0x1
 2527 0d6f C7       		.byte	0xc7
 2528 0d70 C9020000 		.4byte	0x2c9
 2529 0d74 FB030000 		.4byte	.LLST27
 2530 0d78 1D       		.uleb128 0x1d
 2531 0d79 C5030000 		.4byte	.LASF155
 2532 0d7d 01       		.byte	0x1
 2533 0d7e C7       		.byte	0xc7
 2534 0d7f 25000000 		.4byte	0x25
 2535 0d83 3E040000 		.4byte	.LLST28
 2536 0d87 1D       		.uleb128 0x1d
 2537 0d88 36030000 		.4byte	.LASF156
 2538 0d8c 01       		.byte	0x1
 2539 0d8d C7       		.byte	0xc7
 2540 0d8e 25000000 		.4byte	0x25
 2541 0d92 6D040000 		.4byte	.LLST29
 2542 0d96 25       		.uleb128 0x25
ARM GAS  /tmp/ccDEgPij.s 			page 46


 2543 0d97 77737A00 		.ascii	"wsz\000"
 2544 0d9b 01       		.byte	0x1
 2545 0d9c C9       		.byte	0xc9
 2546 0d9d 2C000000 		.4byte	0x2c
 2547 0da1 99040000 		.4byte	.LLST30
 2548 0da5 25       		.uleb128 0x25
 2549 0da6 77737000 		.ascii	"wsp\000"
 2550 0daa 01       		.byte	0x1
 2551 0dab CA       		.byte	0xca
 2552 0dac C9020000 		.4byte	0x2c9
 2553 0db0 D7040000 		.4byte	.LLST31
 2554 0db4 1E       		.uleb128 0x1e
 2555 0db5 18000000 		.4byte	.LVL63
 2556 0db9 930F0000 		.4byte	0xf93
 2557 0dbd C80D0000 		.4byte	0xdc8
 2558 0dc1 1F       		.uleb128 0x1f
 2559 0dc2 01       		.uleb128 0x1
 2560 0dc3 50       		.byte	0x50
 2561 0dc4 02       		.uleb128 0x2
 2562 0dc5 74       		.byte	0x74
 2563 0dc6 00       		.sleb128 0
 2564 0dc7 00       		.byte	0
 2565 0dc8 2A       		.uleb128 0x2a
 2566 0dc9 2A000000 		.4byte	.LVL65
 2567 0dcd A80F0000 		.4byte	0xfa8
 2568 0dd1 1F       		.uleb128 0x1f
 2569 0dd2 01       		.uleb128 0x1
 2570 0dd3 53       		.byte	0x53
 2571 0dd4 03       		.uleb128 0x3
 2572 0dd5 F3       		.byte	0xf3
 2573 0dd6 01       		.uleb128 0x1
 2574 0dd7 51       		.byte	0x51
 2575 0dd8 1F       		.uleb128 0x1f
 2576 0dd9 01       		.uleb128 0x1
 2577 0dda 51       		.byte	0x51
 2578 0ddb 0A       		.uleb128 0xa
 2579 0ddc F3       		.byte	0xf3
 2580 0ddd 01       		.uleb128 0x1
 2581 0dde 53       		.byte	0x53
 2582 0ddf 23       		.byte	0x23
 2583 0de0 CB01     		.uleb128 0xcb
 2584 0de2 37       		.byte	0x37
 2585 0de3 21       		.byte	0x21
 2586 0de4 23       		.byte	0x23
 2587 0de5 01       		.uleb128 0x1
 2588 0de6 1F       		.uleb128 0x1f
 2589 0de7 02       		.uleb128 0x2
 2590 0de8 91       		.byte	0x91
 2591 0de9 00       		.sleb128 0
 2592 0dea 03       		.uleb128 0x3
 2593 0deb F3       		.byte	0xf3
 2594 0dec 01       		.uleb128 0x1
 2595 0ded 52       		.byte	0x52
 2596 0dee 00       		.byte	0
 2597 0def 00       		.byte	0
 2598 0df0 1B       		.uleb128 0x1b
 2599 0df1 E4050000 		.4byte	.LASF157
ARM GAS  /tmp/ccDEgPij.s 			page 47


 2600 0df5 01       		.byte	0x1
 2601 0df6 D4       		.byte	0xd4
 2602 0df7 B0060000 		.4byte	0x6b0
 2603 0dfb 00000000 		.4byte	.LFB24
 2604 0dff 0A000000 		.4byte	.LFE24-.LFB24
 2605 0e03 01       		.uleb128 0x1
 2606 0e04 9C       		.byte	0x9c
 2607 0e05 210E0000 		.4byte	0xe21
 2608 0e09 2C       		.uleb128 0x2c
 2609 0e0a 00000000 		.4byte	.LBB10
 2610 0e0e 06000000 		.4byte	.LBE10-.LBB10
 2611 0e12 27       		.uleb128 0x27
 2612 0e13 746D7000 		.ascii	"tmp\000"
 2613 0e17 01       		.byte	0x1
 2614 0e18 D6       		.byte	0xd6
 2615 0e19 E4000000 		.4byte	0xe4
 2616 0e1d 01       		.uleb128 0x1
 2617 0e1e 53       		.byte	0x53
 2618 0e1f 00       		.byte	0
 2619 0e20 00       		.byte	0
 2620 0e21 21       		.uleb128 0x21
 2621 0e22 54010000 		.4byte	.LASF158
 2622 0e26 01       		.byte	0x1
 2623 0e27 DA       		.byte	0xda
 2624 0e28 00000000 		.4byte	.LFB25
 2625 0e2c 08000000 		.4byte	.LFE25-.LFB25
 2626 0e30 01       		.uleb128 0x1
 2627 0e31 9C       		.byte	0x9c
 2628 0e32 5B0E0000 		.4byte	0xe5b
 2629 0e36 2B       		.uleb128 0x2b
 2630 0e37 C0030000 		.4byte	.LASF159
 2631 0e3b 01       		.byte	0x1
 2632 0e3c DA       		.byte	0xda
 2633 0e3d B0060000 		.4byte	0x6b0
 2634 0e41 01       		.uleb128 0x1
 2635 0e42 50       		.byte	0x50
 2636 0e43 2C       		.uleb128 0x2c
 2637 0e44 00000000 		.4byte	.LBB11
 2638 0e48 08000000 		.4byte	.LBE11-.LBB11
 2639 0e4c 27       		.uleb128 0x27
 2640 0e4d 746D7000 		.ascii	"tmp\000"
 2641 0e51 01       		.byte	0x1
 2642 0e52 DD       		.byte	0xdd
 2643 0e53 E4000000 		.4byte	0xe4
 2644 0e57 01       		.uleb128 0x1
 2645 0e58 53       		.byte	0x53
 2646 0e59 00       		.byte	0
 2647 0e5a 00       		.byte	0
 2648 0e5b 2D       		.uleb128 0x2d
 2649 0e5c CE070000 		.4byte	.LASF180
 2650 0e60 01       		.byte	0x1
 2651 0e61 E0       		.byte	0xe0
 2652 0e62 62060000 		.4byte	0x662
 2653 0e66 00000000 		.4byte	.LFB26
 2654 0e6a 0C000000 		.4byte	.LFE26-.LFB26
 2655 0e6e 01       		.uleb128 0x1
 2656 0e6f 9C       		.byte	0x9c
ARM GAS  /tmp/ccDEgPij.s 			page 48


 2657 0e70 2E       		.uleb128 0x2e
 2658 0e71 08010000 		.4byte	.LASF160
 2659 0e75 09       		.byte	0x9
 2660 0e76 F5       		.byte	0xf5
 2661 0e77 2E040000 		.4byte	0x42e
 2662 0e7b 2E       		.uleb128 0x2e
 2663 0e7c 35010000 		.4byte	.LASF161
 2664 0e80 14       		.byte	0x14
 2665 0e81 95       		.byte	0x95
 2666 0e82 0D080000 		.4byte	0x80d
 2667 0e86 2F       		.uleb128 0x2f
 2668 0e87 CF030000 		.4byte	.LASF166
 2669 0e8b 0E       		.byte	0xe
 2670 0e8c 59       		.byte	0x59
 2671 0e8d C9020000 		.4byte	0x2c9
 2672 0e91 A00E0000 		.4byte	0xea0
 2673 0e95 0E       		.uleb128 0xe
 2674 0e96 AF050000 		.4byte	0x5af
 2675 0e9a 0E       		.uleb128 0xe
 2676 0e9b 2C000000 		.4byte	0x2c
 2677 0e9f 00       		.byte	0
 2678 0ea0 30       		.uleb128 0x30
 2679 0ea1 E5020000 		.4byte	.LASF162
 2680 0ea5 0A       		.byte	0xa
 2681 0ea6 35       		.byte	0x35
 2682 0ea7 B60E0000 		.4byte	0xeb6
 2683 0eab 0E       		.uleb128 0xe
 2684 0eac 8E060000 		.4byte	0x68e
 2685 0eb0 0E       		.uleb128 0xe
 2686 0eb1 59010000 		.4byte	0x159
 2687 0eb5 00       		.byte	0
 2688 0eb6 30       		.uleb128 0x30
 2689 0eb7 30040000 		.4byte	.LASF163
 2690 0ebb 0E       		.byte	0xe
 2691 0ebc 5A       		.byte	0x5a
 2692 0ebd C70E0000 		.4byte	0xec7
 2693 0ec1 0E       		.uleb128 0xe
 2694 0ec2 C9020000 		.4byte	0x2c9
 2695 0ec6 00       		.byte	0
 2696 0ec7 30       		.uleb128 0x30
 2697 0ec8 D8050000 		.4byte	.LASF164
 2698 0ecc 0A       		.byte	0xa
 2699 0ecd 3C       		.byte	0x3c
 2700 0ece D80E0000 		.4byte	0xed8
 2701 0ed2 0E       		.uleb128 0xe
 2702 0ed3 8E060000 		.4byte	0x68e
 2703 0ed7 00       		.byte	0
 2704 0ed8 30       		.uleb128 0x30
 2705 0ed9 0F010000 		.4byte	.LASF165
 2706 0edd 0A       		.byte	0xa
 2707 0ede 3D       		.byte	0x3d
 2708 0edf E90E0000 		.4byte	0xee9
 2709 0ee3 0E       		.uleb128 0xe
 2710 0ee4 8E060000 		.4byte	0x68e
 2711 0ee8 00       		.byte	0
 2712 0ee9 31       		.uleb128 0x31
 2713 0eea EF020000 		.4byte	.LASF181
ARM GAS  /tmp/ccDEgPij.s 			page 49


 2714 0eee 15       		.byte	0x15
 2715 0eef 9C       		.byte	0x9c
 2716 0ef0 2F       		.uleb128 0x2f
 2717 0ef1 61020000 		.4byte	.LASF167
 2718 0ef5 0A       		.byte	0xa
 2719 0ef6 3B       		.byte	0x3b
 2720 0ef7 38010000 		.4byte	0x138
 2721 0efb 0A0F0000 		.4byte	0xf0a
 2722 0eff 0E       		.uleb128 0xe
 2723 0f00 8E060000 		.4byte	0x68e
 2724 0f04 0E       		.uleb128 0xe
 2725 0f05 4E010000 		.4byte	0x14e
 2726 0f09 00       		.byte	0
 2727 0f0a 30       		.uleb128 0x30
 2728 0f0b CF050000 		.4byte	.LASF168
 2729 0f0f 0C       		.byte	0xc
 2730 0f10 43       		.byte	0x43
 2731 0f11 250F0000 		.4byte	0xf25
 2732 0f15 0E       		.uleb128 0xe
 2733 0f16 9F060000 		.4byte	0x69f
 2734 0f1a 0E       		.uleb128 0xe
 2735 0f1b FC040000 		.4byte	0x4fc
 2736 0f1f 0E       		.uleb128 0xe
 2737 0f20 59010000 		.4byte	0x159
 2738 0f24 00       		.byte	0
 2739 0f25 30       		.uleb128 0x30
 2740 0f26 67010000 		.4byte	.LASF169
 2741 0f2a 0C       		.byte	0xc
 2742 0f2b 44       		.byte	0x44
 2743 0f2c 360F0000 		.4byte	0xf36
 2744 0f30 0E       		.uleb128 0xe
 2745 0f31 9F060000 		.4byte	0x69f
 2746 0f35 00       		.byte	0
 2747 0f36 2F       		.uleb128 0x2f
 2748 0f37 37070000 		.4byte	.LASF170
 2749 0f3b 0C       		.byte	0xc
 2750 0f3c 45       		.byte	0x45
 2751 0f3d 38010000 		.4byte	0x138
 2752 0f41 550F0000 		.4byte	0xf55
 2753 0f45 0E       		.uleb128 0xe
 2754 0f46 9F060000 		.4byte	0x69f
 2755 0f4a 0E       		.uleb128 0xe
 2756 0f4b 38010000 		.4byte	0x138
 2757 0f4f 0E       		.uleb128 0xe
 2758 0f50 4E010000 		.4byte	0x14e
 2759 0f54 00       		.byte	0
 2760 0f55 2F       		.uleb128 0x2f
 2761 0f56 C3040000 		.4byte	.LASF171
 2762 0f5a 0C       		.byte	0xc
 2763 0f5b 4C       		.byte	0x4c
 2764 0f5c 38010000 		.4byte	0x138
 2765 0f60 740F0000 		.4byte	0xf74
 2766 0f64 0E       		.uleb128 0xe
 2767 0f65 9F060000 		.4byte	0x69f
 2768 0f69 0E       		.uleb128 0xe
 2769 0f6a FC040000 		.4byte	0x4fc
 2770 0f6e 0E       		.uleb128 0xe
ARM GAS  /tmp/ccDEgPij.s 			page 50


 2771 0f6f 4E010000 		.4byte	0x14e
 2772 0f73 00       		.byte	0
 2773 0f74 2F       		.uleb128 0x2f
 2774 0f75 DF040000 		.4byte	.LASF172
 2775 0f79 0C       		.byte	0xc
 2776 0f7a 4B       		.byte	0x4b
 2777 0f7b 38010000 		.4byte	0x138
 2778 0f7f 930F0000 		.4byte	0xf93
 2779 0f83 0E       		.uleb128 0xe
 2780 0f84 9F060000 		.4byte	0x69f
 2781 0f88 0E       		.uleb128 0xe
 2782 0f89 FC040000 		.4byte	0x4fc
 2783 0f8d 0E       		.uleb128 0xe
 2784 0f8e 4E010000 		.4byte	0x14e
 2785 0f92 00       		.byte	0
 2786 0f93 2F       		.uleb128 0x2f
 2787 0f94 A1030000 		.4byte	.LASF173
 2788 0f98 0D       		.byte	0xd
 2789 0f99 52       		.byte	0x52
 2790 0f9a C9020000 		.4byte	0x2c9
 2791 0f9e A80F0000 		.4byte	0xfa8
 2792 0fa2 0E       		.uleb128 0xe
 2793 0fa3 2C000000 		.4byte	0x2c
 2794 0fa7 00       		.byte	0
 2795 0fa8 32       		.uleb128 0x32
 2796 0fa9 9A040000 		.4byte	.LASF174
 2797 0fad 07       		.byte	0x7
 2798 0fae 7001     		.2byte	0x170
 2799 0fb0 8D020000 		.4byte	0x28d
 2800 0fb4 0E       		.uleb128 0xe
 2801 0fb5 C9020000 		.4byte	0x2c9
 2802 0fb9 0E       		.uleb128 0xe
 2803 0fba 2C000000 		.4byte	0x2c
 2804 0fbe 0E       		.uleb128 0xe
 2805 0fbf 2D010000 		.4byte	0x12d
 2806 0fc3 0E       		.uleb128 0xe
 2807 0fc4 21060000 		.4byte	0x621
 2808 0fc8 0E       		.uleb128 0xe
 2809 0fc9 C9020000 		.4byte	0x2c9
 2810 0fcd 00       		.byte	0
 2811 0fce 00       		.byte	0
 2812              		.section	.debug_abbrev,"",%progbits
 2813              	.Ldebug_abbrev0:
 2814 0000 01       		.uleb128 0x1
 2815 0001 11       		.uleb128 0x11
 2816 0002 01       		.byte	0x1
 2817 0003 25       		.uleb128 0x25
 2818 0004 0E       		.uleb128 0xe
 2819 0005 13       		.uleb128 0x13
 2820 0006 0B       		.uleb128 0xb
 2821 0007 03       		.uleb128 0x3
 2822 0008 0E       		.uleb128 0xe
 2823 0009 1B       		.uleb128 0x1b
 2824 000a 0E       		.uleb128 0xe
 2825 000b 55       		.uleb128 0x55
 2826 000c 17       		.uleb128 0x17
 2827 000d 11       		.uleb128 0x11
ARM GAS  /tmp/ccDEgPij.s 			page 51


 2828 000e 01       		.uleb128 0x1
 2829 000f 10       		.uleb128 0x10
 2830 0010 17       		.uleb128 0x17
 2831 0011 00       		.byte	0
 2832 0012 00       		.byte	0
 2833 0013 02       		.uleb128 0x2
 2834 0014 24       		.uleb128 0x24
 2835 0015 00       		.byte	0
 2836 0016 0B       		.uleb128 0xb
 2837 0017 0B       		.uleb128 0xb
 2838 0018 3E       		.uleb128 0x3e
 2839 0019 0B       		.uleb128 0xb
 2840 001a 03       		.uleb128 0x3
 2841 001b 08       		.uleb128 0x8
 2842 001c 00       		.byte	0
 2843 001d 00       		.byte	0
 2844 001e 03       		.uleb128 0x3
 2845 001f 16       		.uleb128 0x16
 2846 0020 00       		.byte	0
 2847 0021 03       		.uleb128 0x3
 2848 0022 0E       		.uleb128 0xe
 2849 0023 3A       		.uleb128 0x3a
 2850 0024 0B       		.uleb128 0xb
 2851 0025 3B       		.uleb128 0x3b
 2852 0026 0B       		.uleb128 0xb
 2853 0027 49       		.uleb128 0x49
 2854 0028 13       		.uleb128 0x13
 2855 0029 00       		.byte	0
 2856 002a 00       		.byte	0
 2857 002b 04       		.uleb128 0x4
 2858 002c 24       		.uleb128 0x24
 2859 002d 00       		.byte	0
 2860 002e 0B       		.uleb128 0xb
 2861 002f 0B       		.uleb128 0xb
 2862 0030 3E       		.uleb128 0x3e
 2863 0031 0B       		.uleb128 0xb
 2864 0032 03       		.uleb128 0x3
 2865 0033 0E       		.uleb128 0xe
 2866 0034 00       		.byte	0
 2867 0035 00       		.byte	0
 2868 0036 05       		.uleb128 0x5
 2869 0037 13       		.uleb128 0x13
 2870 0038 01       		.byte	0x1
 2871 0039 03       		.uleb128 0x3
 2872 003a 0E       		.uleb128 0xe
 2873 003b 0B       		.uleb128 0xb
 2874 003c 0B       		.uleb128 0xb
 2875 003d 3A       		.uleb128 0x3a
 2876 003e 0B       		.uleb128 0xb
 2877 003f 3B       		.uleb128 0x3b
 2878 0040 0B       		.uleb128 0xb
 2879 0041 01       		.uleb128 0x1
 2880 0042 13       		.uleb128 0x13
 2881 0043 00       		.byte	0
 2882 0044 00       		.byte	0
 2883 0045 06       		.uleb128 0x6
 2884 0046 0D       		.uleb128 0xd
ARM GAS  /tmp/ccDEgPij.s 			page 52


 2885 0047 00       		.byte	0
 2886 0048 03       		.uleb128 0x3
 2887 0049 0E       		.uleb128 0xe
 2888 004a 3A       		.uleb128 0x3a
 2889 004b 0B       		.uleb128 0xb
 2890 004c 3B       		.uleb128 0x3b
 2891 004d 0B       		.uleb128 0xb
 2892 004e 49       		.uleb128 0x49
 2893 004f 13       		.uleb128 0x13
 2894 0050 38       		.uleb128 0x38
 2895 0051 0B       		.uleb128 0xb
 2896 0052 00       		.byte	0
 2897 0053 00       		.byte	0
 2898 0054 07       		.uleb128 0x7
 2899 0055 0D       		.uleb128 0xd
 2900 0056 00       		.byte	0
 2901 0057 03       		.uleb128 0x3
 2902 0058 08       		.uleb128 0x8
 2903 0059 3A       		.uleb128 0x3a
 2904 005a 0B       		.uleb128 0xb
 2905 005b 3B       		.uleb128 0x3b
 2906 005c 0B       		.uleb128 0xb
 2907 005d 49       		.uleb128 0x49
 2908 005e 13       		.uleb128 0x13
 2909 005f 38       		.uleb128 0x38
 2910 0060 0B       		.uleb128 0xb
 2911 0061 00       		.byte	0
 2912 0062 00       		.byte	0
 2913 0063 08       		.uleb128 0x8
 2914 0064 13       		.uleb128 0x13
 2915 0065 01       		.byte	0x1
 2916 0066 0B       		.uleb128 0xb
 2917 0067 0B       		.uleb128 0xb
 2918 0068 3A       		.uleb128 0x3a
 2919 0069 0B       		.uleb128 0xb
 2920 006a 3B       		.uleb128 0x3b
 2921 006b 0B       		.uleb128 0xb
 2922 006c 01       		.uleb128 0x1
 2923 006d 13       		.uleb128 0x13
 2924 006e 00       		.byte	0
 2925 006f 00       		.byte	0
 2926 0070 09       		.uleb128 0x9
 2927 0071 0F       		.uleb128 0xf
 2928 0072 00       		.byte	0
 2929 0073 0B       		.uleb128 0xb
 2930 0074 0B       		.uleb128 0xb
 2931 0075 49       		.uleb128 0x49
 2932 0076 13       		.uleb128 0x13
 2933 0077 00       		.byte	0
 2934 0078 00       		.byte	0
 2935 0079 0A       		.uleb128 0xa
 2936 007a 0F       		.uleb128 0xf
 2937 007b 00       		.byte	0
 2938 007c 0B       		.uleb128 0xb
 2939 007d 0B       		.uleb128 0xb
 2940 007e 00       		.byte	0
 2941 007f 00       		.byte	0
ARM GAS  /tmp/ccDEgPij.s 			page 53


 2942 0080 0B       		.uleb128 0xb
 2943 0081 13       		.uleb128 0x13
 2944 0082 01       		.byte	0x1
 2945 0083 03       		.uleb128 0x3
 2946 0084 0E       		.uleb128 0xe
 2947 0085 0B       		.uleb128 0xb
 2948 0086 0B       		.uleb128 0xb
 2949 0087 3A       		.uleb128 0x3a
 2950 0088 0B       		.uleb128 0xb
 2951 0089 3B       		.uleb128 0x3b
 2952 008a 05       		.uleb128 0x5
 2953 008b 01       		.uleb128 0x1
 2954 008c 13       		.uleb128 0x13
 2955 008d 00       		.byte	0
 2956 008e 00       		.byte	0
 2957 008f 0C       		.uleb128 0xc
 2958 0090 0D       		.uleb128 0xd
 2959 0091 00       		.byte	0
 2960 0092 03       		.uleb128 0x3
 2961 0093 08       		.uleb128 0x8
 2962 0094 3A       		.uleb128 0x3a
 2963 0095 0B       		.uleb128 0xb
 2964 0096 3B       		.uleb128 0x3b
 2965 0097 05       		.uleb128 0x5
 2966 0098 49       		.uleb128 0x49
 2967 0099 13       		.uleb128 0x13
 2968 009a 38       		.uleb128 0x38
 2969 009b 0B       		.uleb128 0xb
 2970 009c 00       		.byte	0
 2971 009d 00       		.byte	0
 2972 009e 0D       		.uleb128 0xd
 2973 009f 15       		.uleb128 0x15
 2974 00a0 01       		.byte	0x1
 2975 00a1 27       		.uleb128 0x27
 2976 00a2 19       		.uleb128 0x19
 2977 00a3 01       		.uleb128 0x1
 2978 00a4 13       		.uleb128 0x13
 2979 00a5 00       		.byte	0
 2980 00a6 00       		.byte	0
 2981 00a7 0E       		.uleb128 0xe
 2982 00a8 05       		.uleb128 0x5
 2983 00a9 00       		.byte	0
 2984 00aa 49       		.uleb128 0x49
 2985 00ab 13       		.uleb128 0x13
 2986 00ac 00       		.byte	0
 2987 00ad 00       		.byte	0
 2988 00ae 0F       		.uleb128 0xf
 2989 00af 35       		.uleb128 0x35
 2990 00b0 00       		.byte	0
 2991 00b1 49       		.uleb128 0x49
 2992 00b2 13       		.uleb128 0x13
 2993 00b3 00       		.byte	0
 2994 00b4 00       		.byte	0
 2995 00b5 10       		.uleb128 0x10
 2996 00b6 15       		.uleb128 0x15
 2997 00b7 01       		.byte	0x1
 2998 00b8 27       		.uleb128 0x27
ARM GAS  /tmp/ccDEgPij.s 			page 54


 2999 00b9 19       		.uleb128 0x19
 3000 00ba 49       		.uleb128 0x49
 3001 00bb 13       		.uleb128 0x13
 3002 00bc 01       		.uleb128 0x1
 3003 00bd 13       		.uleb128 0x13
 3004 00be 00       		.byte	0
 3005 00bf 00       		.byte	0
 3006 00c0 11       		.uleb128 0x11
 3007 00c1 17       		.uleb128 0x17
 3008 00c2 01       		.byte	0x1
 3009 00c3 0B       		.uleb128 0xb
 3010 00c4 0B       		.uleb128 0xb
 3011 00c5 3A       		.uleb128 0x3a
 3012 00c6 0B       		.uleb128 0xb
 3013 00c7 3B       		.uleb128 0x3b
 3014 00c8 0B       		.uleb128 0xb
 3015 00c9 01       		.uleb128 0x1
 3016 00ca 13       		.uleb128 0x13
 3017 00cb 00       		.byte	0
 3018 00cc 00       		.byte	0
 3019 00cd 12       		.uleb128 0x12
 3020 00ce 0D       		.uleb128 0xd
 3021 00cf 00       		.byte	0
 3022 00d0 03       		.uleb128 0x3
 3023 00d1 0E       		.uleb128 0xe
 3024 00d2 3A       		.uleb128 0x3a
 3025 00d3 0B       		.uleb128 0xb
 3026 00d4 3B       		.uleb128 0x3b
 3027 00d5 0B       		.uleb128 0xb
 3028 00d6 49       		.uleb128 0x49
 3029 00d7 13       		.uleb128 0x13
 3030 00d8 00       		.byte	0
 3031 00d9 00       		.byte	0
 3032 00da 13       		.uleb128 0x13
 3033 00db 17       		.uleb128 0x17
 3034 00dc 01       		.byte	0x1
 3035 00dd 03       		.uleb128 0x3
 3036 00de 0E       		.uleb128 0xe
 3037 00df 0B       		.uleb128 0xb
 3038 00e0 0B       		.uleb128 0xb
 3039 00e1 3A       		.uleb128 0x3a
 3040 00e2 0B       		.uleb128 0xb
 3041 00e3 3B       		.uleb128 0x3b
 3042 00e4 0B       		.uleb128 0xb
 3043 00e5 01       		.uleb128 0x1
 3044 00e6 13       		.uleb128 0x13
 3045 00e7 00       		.byte	0
 3046 00e8 00       		.byte	0
 3047 00e9 14       		.uleb128 0x14
 3048 00ea 0D       		.uleb128 0xd
 3049 00eb 00       		.byte	0
 3050 00ec 03       		.uleb128 0x3
 3051 00ed 08       		.uleb128 0x8
 3052 00ee 3A       		.uleb128 0x3a
 3053 00ef 0B       		.uleb128 0xb
 3054 00f0 3B       		.uleb128 0x3b
 3055 00f1 0B       		.uleb128 0xb
ARM GAS  /tmp/ccDEgPij.s 			page 55


 3056 00f2 49       		.uleb128 0x49
 3057 00f3 13       		.uleb128 0x13
 3058 00f4 00       		.byte	0
 3059 00f5 00       		.byte	0
 3060 00f6 15       		.uleb128 0x15
 3061 00f7 26       		.uleb128 0x26
 3062 00f8 00       		.byte	0
 3063 00f9 49       		.uleb128 0x49
 3064 00fa 13       		.uleb128 0x13
 3065 00fb 00       		.byte	0
 3066 00fc 00       		.byte	0
 3067 00fd 16       		.uleb128 0x16
 3068 00fe 13       		.uleb128 0x13
 3069 00ff 01       		.byte	0x1
 3070 0100 03       		.uleb128 0x3
 3071 0101 0E       		.uleb128 0xe
 3072 0102 0B       		.uleb128 0xb
 3073 0103 05       		.uleb128 0x5
 3074 0104 3A       		.uleb128 0x3a
 3075 0105 0B       		.uleb128 0xb
 3076 0106 3B       		.uleb128 0x3b
 3077 0107 0B       		.uleb128 0xb
 3078 0108 01       		.uleb128 0x1
 3079 0109 13       		.uleb128 0x13
 3080 010a 00       		.byte	0
 3081 010b 00       		.byte	0
 3082 010c 17       		.uleb128 0x17
 3083 010d 0D       		.uleb128 0xd
 3084 010e 00       		.byte	0
 3085 010f 03       		.uleb128 0x3
 3086 0110 08       		.uleb128 0x8
 3087 0111 3A       		.uleb128 0x3a
 3088 0112 0B       		.uleb128 0xb
 3089 0113 3B       		.uleb128 0x3b
 3090 0114 0B       		.uleb128 0xb
 3091 0115 49       		.uleb128 0x49
 3092 0116 13       		.uleb128 0x13
 3093 0117 38       		.uleb128 0x38
 3094 0118 05       		.uleb128 0x5
 3095 0119 00       		.byte	0
 3096 011a 00       		.byte	0
 3097 011b 18       		.uleb128 0x18
 3098 011c 01       		.uleb128 0x1
 3099 011d 01       		.byte	0x1
 3100 011e 49       		.uleb128 0x49
 3101 011f 13       		.uleb128 0x13
 3102 0120 01       		.uleb128 0x1
 3103 0121 13       		.uleb128 0x13
 3104 0122 00       		.byte	0
 3105 0123 00       		.byte	0
 3106 0124 19       		.uleb128 0x19
 3107 0125 21       		.uleb128 0x21
 3108 0126 00       		.byte	0
 3109 0127 49       		.uleb128 0x49
 3110 0128 13       		.uleb128 0x13
 3111 0129 2F       		.uleb128 0x2f
 3112 012a 0B       		.uleb128 0xb
ARM GAS  /tmp/ccDEgPij.s 			page 56


 3113 012b 00       		.byte	0
 3114 012c 00       		.byte	0
 3115 012d 1A       		.uleb128 0x1a
 3116 012e 2E       		.uleb128 0x2e
 3117 012f 00       		.byte	0
 3118 0130 3F       		.uleb128 0x3f
 3119 0131 19       		.uleb128 0x19
 3120 0132 03       		.uleb128 0x3
 3121 0133 0E       		.uleb128 0xe
 3122 0134 3A       		.uleb128 0x3a
 3123 0135 0B       		.uleb128 0xb
 3124 0136 3B       		.uleb128 0x3b
 3125 0137 0B       		.uleb128 0xb
 3126 0138 27       		.uleb128 0x27
 3127 0139 19       		.uleb128 0x19
 3128 013a 11       		.uleb128 0x11
 3129 013b 01       		.uleb128 0x1
 3130 013c 12       		.uleb128 0x12
 3131 013d 06       		.uleb128 0x6
 3132 013e 40       		.uleb128 0x40
 3133 013f 18       		.uleb128 0x18
 3134 0140 9742     		.uleb128 0x2117
 3135 0142 19       		.uleb128 0x19
 3136 0143 00       		.byte	0
 3137 0144 00       		.byte	0
 3138 0145 1B       		.uleb128 0x1b
 3139 0146 2E       		.uleb128 0x2e
 3140 0147 01       		.byte	0x1
 3141 0148 3F       		.uleb128 0x3f
 3142 0149 19       		.uleb128 0x19
 3143 014a 03       		.uleb128 0x3
 3144 014b 0E       		.uleb128 0xe
 3145 014c 3A       		.uleb128 0x3a
 3146 014d 0B       		.uleb128 0xb
 3147 014e 3B       		.uleb128 0x3b
 3148 014f 0B       		.uleb128 0xb
 3149 0150 27       		.uleb128 0x27
 3150 0151 19       		.uleb128 0x19
 3151 0152 49       		.uleb128 0x49
 3152 0153 13       		.uleb128 0x13
 3153 0154 11       		.uleb128 0x11
 3154 0155 01       		.uleb128 0x1
 3155 0156 12       		.uleb128 0x12
 3156 0157 06       		.uleb128 0x6
 3157 0158 40       		.uleb128 0x40
 3158 0159 18       		.uleb128 0x18
 3159 015a 9742     		.uleb128 0x2117
 3160 015c 19       		.uleb128 0x19
 3161 015d 01       		.uleb128 0x1
 3162 015e 13       		.uleb128 0x13
 3163 015f 00       		.byte	0
 3164 0160 00       		.byte	0
 3165 0161 1C       		.uleb128 0x1c
 3166 0162 05       		.uleb128 0x5
 3167 0163 00       		.byte	0
 3168 0164 03       		.uleb128 0x3
 3169 0165 08       		.uleb128 0x8
ARM GAS  /tmp/ccDEgPij.s 			page 57


 3170 0166 3A       		.uleb128 0x3a
 3171 0167 0B       		.uleb128 0xb
 3172 0168 3B       		.uleb128 0x3b
 3173 0169 0B       		.uleb128 0xb
 3174 016a 49       		.uleb128 0x49
 3175 016b 13       		.uleb128 0x13
 3176 016c 02       		.uleb128 0x2
 3177 016d 17       		.uleb128 0x17
 3178 016e 00       		.byte	0
 3179 016f 00       		.byte	0
 3180 0170 1D       		.uleb128 0x1d
 3181 0171 05       		.uleb128 0x5
 3182 0172 00       		.byte	0
 3183 0173 03       		.uleb128 0x3
 3184 0174 0E       		.uleb128 0xe
 3185 0175 3A       		.uleb128 0x3a
 3186 0176 0B       		.uleb128 0xb
 3187 0177 3B       		.uleb128 0x3b
 3188 0178 0B       		.uleb128 0xb
 3189 0179 49       		.uleb128 0x49
 3190 017a 13       		.uleb128 0x13
 3191 017b 02       		.uleb128 0x2
 3192 017c 17       		.uleb128 0x17
 3193 017d 00       		.byte	0
 3194 017e 00       		.byte	0
 3195 017f 1E       		.uleb128 0x1e
 3196 0180 898201   		.uleb128 0x4109
 3197 0183 01       		.byte	0x1
 3198 0184 11       		.uleb128 0x11
 3199 0185 01       		.uleb128 0x1
 3200 0186 31       		.uleb128 0x31
 3201 0187 13       		.uleb128 0x13
 3202 0188 01       		.uleb128 0x1
 3203 0189 13       		.uleb128 0x13
 3204 018a 00       		.byte	0
 3205 018b 00       		.byte	0
 3206 018c 1F       		.uleb128 0x1f
 3207 018d 8A8201   		.uleb128 0x410a
 3208 0190 00       		.byte	0
 3209 0191 02       		.uleb128 0x2
 3210 0192 18       		.uleb128 0x18
 3211 0193 9142     		.uleb128 0x2111
 3212 0195 18       		.uleb128 0x18
 3213 0196 00       		.byte	0
 3214 0197 00       		.byte	0
 3215 0198 20       		.uleb128 0x20
 3216 0199 898201   		.uleb128 0x4109
 3217 019c 01       		.byte	0x1
 3218 019d 11       		.uleb128 0x11
 3219 019e 01       		.uleb128 0x1
 3220 019f 31       		.uleb128 0x31
 3221 01a0 13       		.uleb128 0x13
 3222 01a1 00       		.byte	0
 3223 01a2 00       		.byte	0
 3224 01a3 21       		.uleb128 0x21
 3225 01a4 2E       		.uleb128 0x2e
 3226 01a5 01       		.byte	0x1
ARM GAS  /tmp/ccDEgPij.s 			page 58


 3227 01a6 3F       		.uleb128 0x3f
 3228 01a7 19       		.uleb128 0x19
 3229 01a8 03       		.uleb128 0x3
 3230 01a9 0E       		.uleb128 0xe
 3231 01aa 3A       		.uleb128 0x3a
 3232 01ab 0B       		.uleb128 0xb
 3233 01ac 3B       		.uleb128 0x3b
 3234 01ad 0B       		.uleb128 0xb
 3235 01ae 27       		.uleb128 0x27
 3236 01af 19       		.uleb128 0x19
 3237 01b0 11       		.uleb128 0x11
 3238 01b1 01       		.uleb128 0x1
 3239 01b2 12       		.uleb128 0x12
 3240 01b3 06       		.uleb128 0x6
 3241 01b4 40       		.uleb128 0x40
 3242 01b5 18       		.uleb128 0x18
 3243 01b6 9742     		.uleb128 0x2117
 3244 01b8 19       		.uleb128 0x19
 3245 01b9 01       		.uleb128 0x1
 3246 01ba 13       		.uleb128 0x13
 3247 01bb 00       		.byte	0
 3248 01bc 00       		.byte	0
 3249 01bd 22       		.uleb128 0x22
 3250 01be 898201   		.uleb128 0x4109
 3251 01c1 00       		.byte	0
 3252 01c2 11       		.uleb128 0x11
 3253 01c3 01       		.uleb128 0x1
 3254 01c4 31       		.uleb128 0x31
 3255 01c5 13       		.uleb128 0x13
 3256 01c6 00       		.byte	0
 3257 01c7 00       		.byte	0
 3258 01c8 23       		.uleb128 0x23
 3259 01c9 898201   		.uleb128 0x4109
 3260 01cc 00       		.byte	0
 3261 01cd 11       		.uleb128 0x11
 3262 01ce 01       		.uleb128 0x1
 3263 01cf 9542     		.uleb128 0x2115
 3264 01d1 19       		.uleb128 0x19
 3265 01d2 31       		.uleb128 0x31
 3266 01d3 13       		.uleb128 0x13
 3267 01d4 00       		.byte	0
 3268 01d5 00       		.byte	0
 3269 01d6 24       		.uleb128 0x24
 3270 01d7 34       		.uleb128 0x34
 3271 01d8 00       		.byte	0
 3272 01d9 03       		.uleb128 0x3
 3273 01da 0E       		.uleb128 0xe
 3274 01db 3A       		.uleb128 0x3a
 3275 01dc 0B       		.uleb128 0xb
 3276 01dd 3B       		.uleb128 0x3b
 3277 01de 0B       		.uleb128 0xb
 3278 01df 49       		.uleb128 0x49
 3279 01e0 13       		.uleb128 0x13
 3280 01e1 02       		.uleb128 0x2
 3281 01e2 17       		.uleb128 0x17
 3282 01e3 00       		.byte	0
 3283 01e4 00       		.byte	0
ARM GAS  /tmp/ccDEgPij.s 			page 59


 3284 01e5 25       		.uleb128 0x25
 3285 01e6 34       		.uleb128 0x34
 3286 01e7 00       		.byte	0
 3287 01e8 03       		.uleb128 0x3
 3288 01e9 08       		.uleb128 0x8
 3289 01ea 3A       		.uleb128 0x3a
 3290 01eb 0B       		.uleb128 0xb
 3291 01ec 3B       		.uleb128 0x3b
 3292 01ed 0B       		.uleb128 0xb
 3293 01ee 49       		.uleb128 0x49
 3294 01ef 13       		.uleb128 0x13
 3295 01f0 02       		.uleb128 0x2
 3296 01f1 17       		.uleb128 0x17
 3297 01f2 00       		.byte	0
 3298 01f3 00       		.byte	0
 3299 01f4 26       		.uleb128 0x26
 3300 01f5 0B       		.uleb128 0xb
 3301 01f6 01       		.byte	0x1
 3302 01f7 11       		.uleb128 0x11
 3303 01f8 01       		.uleb128 0x1
 3304 01f9 12       		.uleb128 0x12
 3305 01fa 06       		.uleb128 0x6
 3306 01fb 01       		.uleb128 0x1
 3307 01fc 13       		.uleb128 0x13
 3308 01fd 00       		.byte	0
 3309 01fe 00       		.byte	0
 3310 01ff 27       		.uleb128 0x27
 3311 0200 34       		.uleb128 0x34
 3312 0201 00       		.byte	0
 3313 0202 03       		.uleb128 0x3
 3314 0203 08       		.uleb128 0x8
 3315 0204 3A       		.uleb128 0x3a
 3316 0205 0B       		.uleb128 0xb
 3317 0206 3B       		.uleb128 0x3b
 3318 0207 0B       		.uleb128 0xb
 3319 0208 49       		.uleb128 0x49
 3320 0209 13       		.uleb128 0x13
 3321 020a 02       		.uleb128 0x2
 3322 020b 18       		.uleb128 0x18
 3323 020c 00       		.byte	0
 3324 020d 00       		.byte	0
 3325 020e 28       		.uleb128 0x28
 3326 020f 0B       		.uleb128 0xb
 3327 0210 01       		.byte	0x1
 3328 0211 55       		.uleb128 0x55
 3329 0212 17       		.uleb128 0x17
 3330 0213 01       		.uleb128 0x1
 3331 0214 13       		.uleb128 0x13
 3332 0215 00       		.byte	0
 3333 0216 00       		.byte	0
 3334 0217 29       		.uleb128 0x29
 3335 0218 05       		.uleb128 0x5
 3336 0219 00       		.byte	0
 3337 021a 03       		.uleb128 0x3
 3338 021b 08       		.uleb128 0x8
 3339 021c 3A       		.uleb128 0x3a
 3340 021d 0B       		.uleb128 0xb
ARM GAS  /tmp/ccDEgPij.s 			page 60


 3341 021e 3B       		.uleb128 0x3b
 3342 021f 0B       		.uleb128 0xb
 3343 0220 49       		.uleb128 0x49
 3344 0221 13       		.uleb128 0x13
 3345 0222 02       		.uleb128 0x2
 3346 0223 18       		.uleb128 0x18
 3347 0224 00       		.byte	0
 3348 0225 00       		.byte	0
 3349 0226 2A       		.uleb128 0x2a
 3350 0227 898201   		.uleb128 0x4109
 3351 022a 01       		.byte	0x1
 3352 022b 11       		.uleb128 0x11
 3353 022c 01       		.uleb128 0x1
 3354 022d 9542     		.uleb128 0x2115
 3355 022f 19       		.uleb128 0x19
 3356 0230 31       		.uleb128 0x31
 3357 0231 13       		.uleb128 0x13
 3358 0232 00       		.byte	0
 3359 0233 00       		.byte	0
 3360 0234 2B       		.uleb128 0x2b
 3361 0235 05       		.uleb128 0x5
 3362 0236 00       		.byte	0
 3363 0237 03       		.uleb128 0x3
 3364 0238 0E       		.uleb128 0xe
 3365 0239 3A       		.uleb128 0x3a
 3366 023a 0B       		.uleb128 0xb
 3367 023b 3B       		.uleb128 0x3b
 3368 023c 0B       		.uleb128 0xb
 3369 023d 49       		.uleb128 0x49
 3370 023e 13       		.uleb128 0x13
 3371 023f 02       		.uleb128 0x2
 3372 0240 18       		.uleb128 0x18
 3373 0241 00       		.byte	0
 3374 0242 00       		.byte	0
 3375 0243 2C       		.uleb128 0x2c
 3376 0244 0B       		.uleb128 0xb
 3377 0245 01       		.byte	0x1
 3378 0246 11       		.uleb128 0x11
 3379 0247 01       		.uleb128 0x1
 3380 0248 12       		.uleb128 0x12
 3381 0249 06       		.uleb128 0x6
 3382 024a 00       		.byte	0
 3383 024b 00       		.byte	0
 3384 024c 2D       		.uleb128 0x2d
 3385 024d 2E       		.uleb128 0x2e
 3386 024e 00       		.byte	0
 3387 024f 3F       		.uleb128 0x3f
 3388 0250 19       		.uleb128 0x19
 3389 0251 03       		.uleb128 0x3
 3390 0252 0E       		.uleb128 0xe
 3391 0253 3A       		.uleb128 0x3a
 3392 0254 0B       		.uleb128 0xb
 3393 0255 3B       		.uleb128 0x3b
 3394 0256 0B       		.uleb128 0xb
 3395 0257 27       		.uleb128 0x27
 3396 0258 19       		.uleb128 0x19
 3397 0259 49       		.uleb128 0x49
ARM GAS  /tmp/ccDEgPij.s 			page 61


 3398 025a 13       		.uleb128 0x13
 3399 025b 11       		.uleb128 0x11
 3400 025c 01       		.uleb128 0x1
 3401 025d 12       		.uleb128 0x12
 3402 025e 06       		.uleb128 0x6
 3403 025f 40       		.uleb128 0x40
 3404 0260 18       		.uleb128 0x18
 3405 0261 9742     		.uleb128 0x2117
 3406 0263 19       		.uleb128 0x19
 3407 0264 00       		.byte	0
 3408 0265 00       		.byte	0
 3409 0266 2E       		.uleb128 0x2e
 3410 0267 34       		.uleb128 0x34
 3411 0268 00       		.byte	0
 3412 0269 03       		.uleb128 0x3
 3413 026a 0E       		.uleb128 0xe
 3414 026b 3A       		.uleb128 0x3a
 3415 026c 0B       		.uleb128 0xb
 3416 026d 3B       		.uleb128 0x3b
 3417 026e 0B       		.uleb128 0xb
 3418 026f 49       		.uleb128 0x49
 3419 0270 13       		.uleb128 0x13
 3420 0271 3F       		.uleb128 0x3f
 3421 0272 19       		.uleb128 0x19
 3422 0273 3C       		.uleb128 0x3c
 3423 0274 19       		.uleb128 0x19
 3424 0275 00       		.byte	0
 3425 0276 00       		.byte	0
 3426 0277 2F       		.uleb128 0x2f
 3427 0278 2E       		.uleb128 0x2e
 3428 0279 01       		.byte	0x1
 3429 027a 3F       		.uleb128 0x3f
 3430 027b 19       		.uleb128 0x19
 3431 027c 03       		.uleb128 0x3
 3432 027d 0E       		.uleb128 0xe
 3433 027e 3A       		.uleb128 0x3a
 3434 027f 0B       		.uleb128 0xb
 3435 0280 3B       		.uleb128 0x3b
 3436 0281 0B       		.uleb128 0xb
 3437 0282 27       		.uleb128 0x27
 3438 0283 19       		.uleb128 0x19
 3439 0284 49       		.uleb128 0x49
 3440 0285 13       		.uleb128 0x13
 3441 0286 3C       		.uleb128 0x3c
 3442 0287 19       		.uleb128 0x19
 3443 0288 01       		.uleb128 0x1
 3444 0289 13       		.uleb128 0x13
 3445 028a 00       		.byte	0
 3446 028b 00       		.byte	0
 3447 028c 30       		.uleb128 0x30
 3448 028d 2E       		.uleb128 0x2e
 3449 028e 01       		.byte	0x1
 3450 028f 3F       		.uleb128 0x3f
 3451 0290 19       		.uleb128 0x19
 3452 0291 03       		.uleb128 0x3
 3453 0292 0E       		.uleb128 0xe
 3454 0293 3A       		.uleb128 0x3a
ARM GAS  /tmp/ccDEgPij.s 			page 62


 3455 0294 0B       		.uleb128 0xb
 3456 0295 3B       		.uleb128 0x3b
 3457 0296 0B       		.uleb128 0xb
 3458 0297 27       		.uleb128 0x27
 3459 0298 19       		.uleb128 0x19
 3460 0299 3C       		.uleb128 0x3c
 3461 029a 19       		.uleb128 0x19
 3462 029b 01       		.uleb128 0x1
 3463 029c 13       		.uleb128 0x13
 3464 029d 00       		.byte	0
 3465 029e 00       		.byte	0
 3466 029f 31       		.uleb128 0x31
 3467 02a0 2E       		.uleb128 0x2e
 3468 02a1 00       		.byte	0
 3469 02a2 3F       		.uleb128 0x3f
 3470 02a3 19       		.uleb128 0x19
 3471 02a4 03       		.uleb128 0x3
 3472 02a5 0E       		.uleb128 0xe
 3473 02a6 3A       		.uleb128 0x3a
 3474 02a7 0B       		.uleb128 0xb
 3475 02a8 3B       		.uleb128 0x3b
 3476 02a9 0B       		.uleb128 0xb
 3477 02aa 27       		.uleb128 0x27
 3478 02ab 19       		.uleb128 0x19
 3479 02ac 3C       		.uleb128 0x3c
 3480 02ad 19       		.uleb128 0x19
 3481 02ae 00       		.byte	0
 3482 02af 00       		.byte	0
 3483 02b0 32       		.uleb128 0x32
 3484 02b1 2E       		.uleb128 0x2e
 3485 02b2 01       		.byte	0x1
 3486 02b3 3F       		.uleb128 0x3f
 3487 02b4 19       		.uleb128 0x19
 3488 02b5 03       		.uleb128 0x3
 3489 02b6 0E       		.uleb128 0xe
 3490 02b7 3A       		.uleb128 0x3a
 3491 02b8 0B       		.uleb128 0xb
 3492 02b9 3B       		.uleb128 0x3b
 3493 02ba 05       		.uleb128 0x5
 3494 02bb 27       		.uleb128 0x27
 3495 02bc 19       		.uleb128 0x19
 3496 02bd 49       		.uleb128 0x49
 3497 02be 13       		.uleb128 0x13
 3498 02bf 3C       		.uleb128 0x3c
 3499 02c0 19       		.uleb128 0x19
 3500 02c1 00       		.byte	0
 3501 02c2 00       		.byte	0
 3502 02c3 00       		.byte	0
 3503              		.section	.debug_loc,"",%progbits
 3504              	.Ldebug_loc0:
 3505              	.LLST0:
 3506 0000 00000000 		.4byte	.LVL0
 3507 0004 08000000 		.4byte	.LVL1
 3508 0008 0100     		.2byte	0x1
 3509 000a 50       		.byte	0x50
 3510 000b 08000000 		.4byte	.LVL1
 3511 000f 54000000 		.4byte	.LFE8
ARM GAS  /tmp/ccDEgPij.s 			page 63


 3512 0013 0100     		.2byte	0x1
 3513 0015 54       		.byte	0x54
 3514 0016 00000000 		.4byte	0
 3515 001a 00000000 		.4byte	0
 3516              	.LLST1:
 3517 001e 00000000 		.4byte	.LVL0
 3518 0022 0A000000 		.4byte	.LVL2
 3519 0026 0100     		.2byte	0x1
 3520 0028 51       		.byte	0x51
 3521 0029 0A000000 		.4byte	.LVL2
 3522 002d 54000000 		.4byte	.LFE8
 3523 0031 0400     		.2byte	0x4
 3524 0033 F3       		.byte	0xf3
 3525 0034 01       		.uleb128 0x1
 3526 0035 51       		.byte	0x51
 3527 0036 9F       		.byte	0x9f
 3528 0037 00000000 		.4byte	0
 3529 003b 00000000 		.4byte	0
 3530              	.LLST2:
 3531 003f 00000000 		.4byte	.LVL6
 3532 0043 06000000 		.4byte	.LVL7
 3533 0047 0100     		.2byte	0x1
 3534 0049 50       		.byte	0x50
 3535 004a 06000000 		.4byte	.LVL7
 3536 004e 22000000 		.4byte	.LFE9
 3537 0052 0100     		.2byte	0x1
 3538 0054 54       		.byte	0x54
 3539 0055 00000000 		.4byte	0
 3540 0059 00000000 		.4byte	0
 3541              	.LLST3:
 3542 005d 00000000 		.4byte	.LVL9
 3543 0061 02000000 		.4byte	.LVL10
 3544 0065 0100     		.2byte	0x1
 3545 0067 50       		.byte	0x50
 3546 0068 02000000 		.4byte	.LVL10
 3547 006c 06000000 		.4byte	.LFE10
 3548 0070 0400     		.2byte	0x4
 3549 0072 F3       		.byte	0xf3
 3550 0073 01       		.uleb128 0x1
 3551 0074 50       		.byte	0x50
 3552 0075 9F       		.byte	0x9f
 3553 0076 00000000 		.4byte	0
 3554 007a 00000000 		.4byte	0
 3555              	.LLST4:
 3556 007e 00000000 		.4byte	.LVL12
 3557 0082 04000000 		.4byte	.LVL13
 3558 0086 0100     		.2byte	0x1
 3559 0088 50       		.byte	0x50
 3560 0089 04000000 		.4byte	.LVL13
 3561 008d 10000000 		.4byte	.LFE11
 3562 0091 0400     		.2byte	0x4
 3563 0093 F3       		.byte	0xf3
 3564 0094 01       		.uleb128 0x1
 3565 0095 50       		.byte	0x50
 3566 0096 9F       		.byte	0x9f
 3567 0097 00000000 		.4byte	0
 3568 009b 00000000 		.4byte	0
ARM GAS  /tmp/ccDEgPij.s 			page 64


 3569              	.LLST5:
 3570 009f 00000000 		.4byte	.LVL16
 3571 00a3 12000000 		.4byte	.LVL18
 3572 00a7 0100     		.2byte	0x1
 3573 00a9 50       		.byte	0x50
 3574 00aa 12000000 		.4byte	.LVL18
 3575 00ae 3A000000 		.4byte	.LFE12
 3576 00b2 0400     		.2byte	0x4
 3577 00b4 F3       		.byte	0xf3
 3578 00b5 01       		.uleb128 0x1
 3579 00b6 50       		.byte	0x50
 3580 00b7 9F       		.byte	0x9f
 3581 00b8 00000000 		.4byte	0
 3582 00bc 00000000 		.4byte	0
 3583              	.LLST6:
 3584 00c0 00000000 		.4byte	.LVL16
 3585 00c4 1C000000 		.4byte	.LVL20
 3586 00c8 0100     		.2byte	0x1
 3587 00ca 51       		.byte	0x51
 3588 00cb 1C000000 		.4byte	.LVL20
 3589 00cf 3A000000 		.4byte	.LFE12
 3590 00d3 0400     		.2byte	0x4
 3591 00d5 F3       		.byte	0xf3
 3592 00d6 01       		.uleb128 0x1
 3593 00d7 51       		.byte	0x51
 3594 00d8 9F       		.byte	0x9f
 3595 00d9 00000000 		.4byte	0
 3596 00dd 00000000 		.4byte	0
 3597              	.LLST7:
 3598 00e1 14000000 		.4byte	.LVL19
 3599 00e5 26000000 		.4byte	.LVL22
 3600 00e9 0100     		.2byte	0x1
 3601 00eb 55       		.byte	0x55
 3602 00ec 26000000 		.4byte	.LVL22
 3603 00f0 2E000000 		.4byte	.LVL23
 3604 00f4 0100     		.2byte	0x1
 3605 00f6 50       		.byte	0x50
 3606 00f7 2E000000 		.4byte	.LVL23
 3607 00fb 34000000 		.4byte	.LVL24
 3608 00ff 0100     		.2byte	0x1
 3609 0101 55       		.byte	0x55
 3610 0102 34000000 		.4byte	.LVL24
 3611 0106 3A000000 		.4byte	.LFE12
 3612 010a 0100     		.2byte	0x1
 3613 010c 50       		.byte	0x50
 3614 010d 00000000 		.4byte	0
 3615 0111 00000000 		.4byte	0
 3616              	.LLST8:
 3617 0115 08000000 		.4byte	.LVL17
 3618 0119 1C000000 		.4byte	.LVL20
 3619 011d 0E00     		.2byte	0xe
 3620 011f 71       		.byte	0x71
 3621 0120 00       		.sleb128 0
 3622 0121 09       		.byte	0x9
 3623 0122 FF       		.byte	0xff
 3624 0123 71       		.byte	0x71
 3625 0124 00       		.sleb128 0
ARM GAS  /tmp/ccDEgPij.s 			page 65


 3626 0125 30       		.byte	0x30
 3627 0126 2E       		.byte	0x2e
 3628 0127 28       		.byte	0x28
 3629 0128 0100     		.2byte	0x1
 3630 012a 16       		.byte	0x16
 3631 012b 13       		.byte	0x13
 3632 012c 9F       		.byte	0x9f
 3633 012d 1C000000 		.4byte	.LVL20
 3634 0131 1F000000 		.4byte	.LVL21-1
 3635 0135 0100     		.2byte	0x1
 3636 0137 51       		.byte	0x51
 3637 0138 1F000000 		.4byte	.LVL21-1
 3638 013c 3A000000 		.4byte	.LFE12
 3639 0140 1000     		.2byte	0x10
 3640 0142 F3       		.byte	0xf3
 3641 0143 01       		.uleb128 0x1
 3642 0144 51       		.byte	0x51
 3643 0145 09       		.byte	0x9
 3644 0146 FF       		.byte	0xff
 3645 0147 F3       		.byte	0xf3
 3646 0148 01       		.uleb128 0x1
 3647 0149 51       		.byte	0x51
 3648 014a 30       		.byte	0x30
 3649 014b 2E       		.byte	0x2e
 3650 014c 28       		.byte	0x28
 3651 014d 0100     		.2byte	0x1
 3652 014f 16       		.byte	0x16
 3653 0150 13       		.byte	0x13
 3654 0151 9F       		.byte	0x9f
 3655 0152 00000000 		.4byte	0
 3656 0156 00000000 		.4byte	0
 3657              	.LLST9:
 3658 015a 00000000 		.4byte	.LVL25
 3659 015e 02000000 		.4byte	.LVL26
 3660 0162 0100     		.2byte	0x1
 3661 0164 50       		.byte	0x50
 3662 0165 02000000 		.4byte	.LVL26
 3663 0169 0A000000 		.4byte	.LFE13
 3664 016d 0400     		.2byte	0x4
 3665 016f F3       		.byte	0xf3
 3666 0170 01       		.uleb128 0x1
 3667 0171 50       		.byte	0x50
 3668 0172 9F       		.byte	0x9f
 3669 0173 00000000 		.4byte	0
 3670 0177 00000000 		.4byte	0
 3671              	.LLST10:
 3672 017b 00000000 		.4byte	.LVL28
 3673 017f 0C000000 		.4byte	.LVL30
 3674 0183 0100     		.2byte	0x1
 3675 0185 50       		.byte	0x50
 3676 0186 0C000000 		.4byte	.LVL30
 3677 018a 4C000000 		.4byte	.LFE15
 3678 018e 0100     		.2byte	0x1
 3679 0190 55       		.byte	0x55
 3680 0191 00000000 		.4byte	0
 3681 0195 00000000 		.4byte	0
 3682              	.LLST11:
ARM GAS  /tmp/ccDEgPij.s 			page 66


 3683 0199 00000000 		.4byte	.LVL28
 3684 019d 06000000 		.4byte	.LVL29
 3685 01a1 0100     		.2byte	0x1
 3686 01a3 51       		.byte	0x51
 3687 01a4 06000000 		.4byte	.LVL29
 3688 01a8 4C000000 		.4byte	.LFE15
 3689 01ac 0100     		.2byte	0x1
 3690 01ae 54       		.byte	0x54
 3691 01af 00000000 		.4byte	0
 3692 01b3 00000000 		.4byte	0
 3693              	.LLST12:
 3694 01b7 00000000 		.4byte	.LVL34
 3695 01bb 06000000 		.4byte	.LVL35
 3696 01bf 0100     		.2byte	0x1
 3697 01c1 50       		.byte	0x50
 3698 01c2 06000000 		.4byte	.LVL35
 3699 01c6 36000000 		.4byte	.LFE16
 3700 01ca 0100     		.2byte	0x1
 3701 01cc 55       		.byte	0x55
 3702 01cd 00000000 		.4byte	0
 3703 01d1 00000000 		.4byte	0
 3704              	.LLST13:
 3705 01d5 00000000 		.4byte	.LVL38
 3706 01d9 02000000 		.4byte	.LVL39
 3707 01dd 0100     		.2byte	0x1
 3708 01df 50       		.byte	0x50
 3709 01e0 02000000 		.4byte	.LVL39
 3710 01e4 0A000000 		.4byte	.LFE17
 3711 01e8 0400     		.2byte	0x4
 3712 01ea F3       		.byte	0xf3
 3713 01eb 01       		.uleb128 0x1
 3714 01ec 50       		.byte	0x50
 3715 01ed 9F       		.byte	0x9f
 3716 01ee 00000000 		.4byte	0
 3717 01f2 00000000 		.4byte	0
 3718              	.LLST14:
 3719 01f6 00000000 		.4byte	.LVL38
 3720 01fa 09000000 		.4byte	.LVL40-1
 3721 01fe 0100     		.2byte	0x1
 3722 0200 51       		.byte	0x51
 3723 0201 09000000 		.4byte	.LVL40-1
 3724 0205 0A000000 		.4byte	.LFE17
 3725 0209 0400     		.2byte	0x4
 3726 020b F3       		.byte	0xf3
 3727 020c 01       		.uleb128 0x1
 3728 020d 51       		.byte	0x51
 3729 020e 9F       		.byte	0x9f
 3730 020f 00000000 		.4byte	0
 3731 0213 00000000 		.4byte	0
 3732              	.LLST15:
 3733 0217 00000000 		.4byte	.LVL41
 3734 021b 06000000 		.4byte	.LVL42
 3735 021f 0100     		.2byte	0x1
 3736 0221 50       		.byte	0x50
 3737 0222 06000000 		.4byte	.LVL42
 3738 0226 2A000000 		.4byte	.LFE18
 3739 022a 0400     		.2byte	0x4
ARM GAS  /tmp/ccDEgPij.s 			page 67


 3740 022c F3       		.byte	0xf3
 3741 022d 01       		.uleb128 0x1
 3742 022e 50       		.byte	0x50
 3743 022f 9F       		.byte	0x9f
 3744 0230 00000000 		.4byte	0
 3745 0234 00000000 		.4byte	0
 3746              	.LLST16:
 3747 0238 00000000 		.4byte	.LVL41
 3748 023c 09000000 		.4byte	.LVL43-1
 3749 0240 0100     		.2byte	0x1
 3750 0242 51       		.byte	0x51
 3751 0243 09000000 		.4byte	.LVL43-1
 3752 0247 2A000000 		.4byte	.LFE18
 3753 024b 0400     		.2byte	0x4
 3754 024d F3       		.byte	0xf3
 3755 024e 01       		.uleb128 0x1
 3756 024f 51       		.byte	0x51
 3757 0250 9F       		.byte	0x9f
 3758 0251 00000000 		.4byte	0
 3759 0255 00000000 		.4byte	0
 3760              	.LLST17:
 3761 0259 00000000 		.4byte	.LVL44
 3762 025d 12000000 		.4byte	.LVL46
 3763 0261 0100     		.2byte	0x1
 3764 0263 50       		.byte	0x50
 3765 0264 12000000 		.4byte	.LVL46
 3766 0268 3A000000 		.4byte	.LFE19
 3767 026c 0400     		.2byte	0x4
 3768 026e F3       		.byte	0xf3
 3769 026f 01       		.uleb128 0x1
 3770 0270 50       		.byte	0x50
 3771 0271 9F       		.byte	0x9f
 3772 0272 00000000 		.4byte	0
 3773 0276 00000000 		.4byte	0
 3774              	.LLST18:
 3775 027a 00000000 		.4byte	.LVL44
 3776 027e 1F000000 		.4byte	.LVL49-1
 3777 0282 0100     		.2byte	0x1
 3778 0284 51       		.byte	0x51
 3779 0285 1F000000 		.4byte	.LVL49-1
 3780 0289 3A000000 		.4byte	.LFE19
 3781 028d 0400     		.2byte	0x4
 3782 028f F3       		.byte	0xf3
 3783 0290 01       		.uleb128 0x1
 3784 0291 51       		.byte	0x51
 3785 0292 9F       		.byte	0x9f
 3786 0293 00000000 		.4byte	0
 3787 0297 00000000 		.4byte	0
 3788              	.LLST19:
 3789 029b 00000000 		.4byte	.LVL44
 3790 029f 1C000000 		.4byte	.LVL48
 3791 02a3 0100     		.2byte	0x1
 3792 02a5 52       		.byte	0x52
 3793 02a6 1C000000 		.4byte	.LVL48
 3794 02aa 3A000000 		.4byte	.LFE19
 3795 02ae 0400     		.2byte	0x4
 3796 02b0 F3       		.byte	0xf3
ARM GAS  /tmp/ccDEgPij.s 			page 68


 3797 02b1 01       		.uleb128 0x1
 3798 02b2 52       		.byte	0x52
 3799 02b3 9F       		.byte	0x9f
 3800 02b4 00000000 		.4byte	0
 3801 02b8 00000000 		.4byte	0
 3802              	.LLST20:
 3803 02bc 14000000 		.4byte	.LVL47
 3804 02c0 26000000 		.4byte	.LVL50
 3805 02c4 0100     		.2byte	0x1
 3806 02c6 55       		.byte	0x55
 3807 02c7 26000000 		.4byte	.LVL50
 3808 02cb 2E000000 		.4byte	.LVL51
 3809 02cf 0100     		.2byte	0x1
 3810 02d1 50       		.byte	0x50
 3811 02d2 2E000000 		.4byte	.LVL51
 3812 02d6 34000000 		.4byte	.LVL52
 3813 02da 0100     		.2byte	0x1
 3814 02dc 55       		.byte	0x55
 3815 02dd 34000000 		.4byte	.LVL52
 3816 02e1 3A000000 		.4byte	.LFE19
 3817 02e5 0100     		.2byte	0x1
 3818 02e7 50       		.byte	0x50
 3819 02e8 00000000 		.4byte	0
 3820 02ec 00000000 		.4byte	0
 3821              	.LLST21:
 3822 02f0 08000000 		.4byte	.LVL45
 3823 02f4 1C000000 		.4byte	.LVL48
 3824 02f8 0E00     		.2byte	0xe
 3825 02fa 72       		.byte	0x72
 3826 02fb 00       		.sleb128 0
 3827 02fc 09       		.byte	0x9
 3828 02fd FF       		.byte	0xff
 3829 02fe 72       		.byte	0x72
 3830 02ff 00       		.sleb128 0
 3831 0300 30       		.byte	0x30
 3832 0301 2E       		.byte	0x2e
 3833 0302 28       		.byte	0x28
 3834 0303 0100     		.2byte	0x1
 3835 0305 16       		.byte	0x16
 3836 0306 13       		.byte	0x13
 3837 0307 9F       		.byte	0x9f
 3838 0308 1C000000 		.4byte	.LVL48
 3839 030c 1F000000 		.4byte	.LVL49-1
 3840 0310 0100     		.2byte	0x1
 3841 0312 52       		.byte	0x52
 3842 0313 1F000000 		.4byte	.LVL49-1
 3843 0317 3A000000 		.4byte	.LFE19
 3844 031b 1000     		.2byte	0x10
 3845 031d F3       		.byte	0xf3
 3846 031e 01       		.uleb128 0x1
 3847 031f 52       		.byte	0x52
 3848 0320 09       		.byte	0x9
 3849 0321 FF       		.byte	0xff
 3850 0322 F3       		.byte	0xf3
 3851 0323 01       		.uleb128 0x1
 3852 0324 52       		.byte	0x52
 3853 0325 30       		.byte	0x30
ARM GAS  /tmp/ccDEgPij.s 			page 69


 3854 0326 2E       		.byte	0x2e
 3855 0327 28       		.byte	0x28
 3856 0328 0100     		.2byte	0x1
 3857 032a 16       		.byte	0x16
 3858 032b 13       		.byte	0x13
 3859 032c 9F       		.byte	0x9f
 3860 032d 00000000 		.4byte	0
 3861 0331 00000000 		.4byte	0
 3862              	.LLST22:
 3863 0335 00000000 		.4byte	.LVL53
 3864 0339 06000000 		.4byte	.LVL54
 3865 033d 0100     		.2byte	0x1
 3866 033f 50       		.byte	0x50
 3867 0340 06000000 		.4byte	.LVL54
 3868 0344 18000000 		.4byte	.LFE20
 3869 0348 0400     		.2byte	0x4
 3870 034a F3       		.byte	0xf3
 3871 034b 01       		.uleb128 0x1
 3872 034c 50       		.byte	0x50
 3873 034d 9F       		.byte	0x9f
 3874 034e 00000000 		.4byte	0
 3875 0352 00000000 		.4byte	0
 3876              	.LLST23:
 3877 0356 00000000 		.4byte	.LVL53
 3878 035a 09000000 		.4byte	.LVL55-1
 3879 035e 0100     		.2byte	0x1
 3880 0360 51       		.byte	0x51
 3881 0361 09000000 		.4byte	.LVL55-1
 3882 0365 18000000 		.4byte	.LFE20
 3883 0369 0400     		.2byte	0x4
 3884 036b F3       		.byte	0xf3
 3885 036c 01       		.uleb128 0x1
 3886 036d 51       		.byte	0x51
 3887 036e 9F       		.byte	0x9f
 3888 036f 00000000 		.4byte	0
 3889 0373 00000000 		.4byte	0
 3890              	.LLST24:
 3891 0377 00000000 		.4byte	.LVL56
 3892 037b 02000000 		.4byte	.LVL57
 3893 037f 0100     		.2byte	0x1
 3894 0381 50       		.byte	0x50
 3895 0382 02000000 		.4byte	.LVL57
 3896 0386 0A000000 		.4byte	.LFE21
 3897 038a 0400     		.2byte	0x4
 3898 038c F3       		.byte	0xf3
 3899 038d 01       		.uleb128 0x1
 3900 038e 50       		.byte	0x50
 3901 038f 9F       		.byte	0x9f
 3902 0390 00000000 		.4byte	0
 3903 0394 00000000 		.4byte	0
 3904              	.LLST25:
 3905 0398 00000000 		.4byte	.LVL59
 3906 039c 0E000000 		.4byte	.LVL62
 3907 03a0 0100     		.2byte	0x1
 3908 03a2 50       		.byte	0x50
 3909 03a3 0E000000 		.4byte	.LVL62
 3910 03a7 2E000000 		.4byte	.LFE23
ARM GAS  /tmp/ccDEgPij.s 			page 70


 3911 03ab 0400     		.2byte	0x4
 3912 03ad F3       		.byte	0xf3
 3913 03ae 01       		.uleb128 0x1
 3914 03af 50       		.byte	0x50
 3915 03b0 9F       		.byte	0x9f
 3916 03b1 00000000 		.4byte	0
 3917 03b5 00000000 		.4byte	0
 3918              	.LLST26:
 3919 03b9 00000000 		.4byte	.LVL59
 3920 03bd 17000000 		.4byte	.LVL63-1
 3921 03c1 0100     		.2byte	0x1
 3922 03c3 51       		.byte	0x51
 3923 03c4 17000000 		.4byte	.LVL63-1
 3924 03c8 26000000 		.4byte	.LVL64
 3925 03cc 0100     		.2byte	0x1
 3926 03ce 55       		.byte	0x55
 3927 03cf 26000000 		.4byte	.LVL64
 3928 03d3 29000000 		.4byte	.LVL65-1
 3929 03d7 0100     		.2byte	0x1
 3930 03d9 53       		.byte	0x53
 3931 03da 29000000 		.4byte	.LVL65-1
 3932 03de 2A000000 		.4byte	.LVL65
 3933 03e2 0400     		.2byte	0x4
 3934 03e4 F3       		.byte	0xf3
 3935 03e5 01       		.uleb128 0x1
 3936 03e6 51       		.byte	0x51
 3937 03e7 9F       		.byte	0x9f
 3938 03e8 2A000000 		.4byte	.LVL65
 3939 03ec 2E000000 		.4byte	.LFE23
 3940 03f0 0100     		.2byte	0x1
 3941 03f2 55       		.byte	0x55
 3942 03f3 00000000 		.4byte	0
 3943 03f7 00000000 		.4byte	0
 3944              	.LLST27:
 3945 03fb 00000000 		.4byte	.LVL59
 3946 03ff 17000000 		.4byte	.LVL63-1
 3947 0403 0100     		.2byte	0x1
 3948 0405 52       		.byte	0x52
 3949 0406 17000000 		.4byte	.LVL63-1
 3950 040a 26000000 		.4byte	.LVL64
 3951 040e 0100     		.2byte	0x1
 3952 0410 57       		.byte	0x57
 3953 0411 26000000 		.4byte	.LVL64
 3954 0415 29000000 		.4byte	.LVL65-1
 3955 0419 0200     		.2byte	0x2
 3956 041b 7D       		.byte	0x7d
 3957 041c 00       		.sleb128 0
 3958 041d 29000000 		.4byte	.LVL65-1
 3959 0421 2A000000 		.4byte	.LVL65
 3960 0425 0400     		.2byte	0x4
 3961 0427 F3       		.byte	0xf3
 3962 0428 01       		.uleb128 0x1
 3963 0429 52       		.byte	0x52
 3964 042a 9F       		.byte	0x9f
 3965 042b 2A000000 		.4byte	.LVL65
 3966 042f 2E000000 		.4byte	.LFE23
 3967 0433 0100     		.2byte	0x1
ARM GAS  /tmp/ccDEgPij.s 			page 71


 3968 0435 57       		.byte	0x57
 3969 0436 00000000 		.4byte	0
 3970 043a 00000000 		.4byte	0
 3971              	.LLST28:
 3972 043e 00000000 		.4byte	.LVL59
 3973 0442 02000000 		.4byte	.LVL60
 3974 0446 0100     		.2byte	0x1
 3975 0448 53       		.byte	0x53
 3976 0449 02000000 		.4byte	.LVL60
 3977 044d 17000000 		.4byte	.LVL63-1
 3978 0451 0400     		.2byte	0x4
 3979 0453 73       		.byte	0x73
 3980 0454 B57E     		.sleb128 -203
 3981 0456 9F       		.byte	0x9f
 3982 0457 17000000 		.4byte	.LVL63-1
 3983 045b 2E000000 		.4byte	.LFE23
 3984 045f 0400     		.2byte	0x4
 3985 0461 F3       		.byte	0xf3
 3986 0462 01       		.uleb128 0x1
 3987 0463 53       		.byte	0x53
 3988 0464 9F       		.byte	0x9f
 3989 0465 00000000 		.4byte	0
 3990 0469 00000000 		.4byte	0
 3991              	.LLST29:
 3992 046d 00000000 		.4byte	.LVL59
 3993 0471 26000000 		.4byte	.LVL64
 3994 0475 0200     		.2byte	0x2
 3995 0477 91       		.byte	0x91
 3996 0478 00       		.sleb128 0
 3997 0479 26000000 		.4byte	.LVL64
 3998 047d 2A000000 		.4byte	.LVL65
 3999 0481 0200     		.2byte	0x2
 4000 0483 7D       		.byte	0x7d
 4001 0484 00       		.sleb128 0
 4002 0485 2A000000 		.4byte	.LVL65
 4003 0489 2E000000 		.4byte	.LFE23
 4004 048d 0200     		.2byte	0x2
 4005 048f 7D       		.byte	0x7d
 4006 0490 18       		.sleb128 24
 4007 0491 00000000 		.4byte	0
 4008 0495 00000000 		.4byte	0
 4009              	.LLST30:
 4010 0499 0C000000 		.4byte	.LVL61
 4011 049d 26000000 		.4byte	.LVL64
 4012 04a1 0100     		.2byte	0x1
 4013 04a3 54       		.byte	0x54
 4014 04a4 26000000 		.4byte	.LVL64
 4015 04a8 29000000 		.4byte	.LVL65-1
 4016 04ac 0100     		.2byte	0x1
 4017 04ae 51       		.byte	0x51
 4018 04af 29000000 		.4byte	.LVL65-1
 4019 04b3 2A000000 		.4byte	.LVL65
 4020 04b7 0B00     		.2byte	0xb
 4021 04b9 F3       		.byte	0xf3
 4022 04ba 01       		.uleb128 0x1
 4023 04bb 53       		.byte	0x53
 4024 04bc 23       		.byte	0x23
ARM GAS  /tmp/ccDEgPij.s 			page 72


 4025 04bd CB01     		.uleb128 0xcb
 4026 04bf 37       		.byte	0x37
 4027 04c0 21       		.byte	0x21
 4028 04c1 23       		.byte	0x23
 4029 04c2 01       		.uleb128 0x1
 4030 04c3 9F       		.byte	0x9f
 4031 04c4 2A000000 		.4byte	.LVL65
 4032 04c8 2E000000 		.4byte	.LFE23
 4033 04cc 0100     		.2byte	0x1
 4034 04ce 54       		.byte	0x54
 4035 04cf 00000000 		.4byte	0
 4036 04d3 00000000 		.4byte	0
 4037              	.LLST31:
 4038 04d7 18000000 		.4byte	.LVL63
 4039 04db 29000000 		.4byte	.LVL65-1
 4040 04df 0100     		.2byte	0x1
 4041 04e1 50       		.byte	0x50
 4042 04e2 2A000000 		.4byte	.LVL65
 4043 04e6 2E000000 		.4byte	.LFE23
 4044 04ea 0100     		.2byte	0x1
 4045 04ec 50       		.byte	0x50
 4046 04ed 00000000 		.4byte	0
 4047 04f1 00000000 		.4byte	0
 4048              		.section	.debug_aranges,"",%progbits
 4049 0000 B4000000 		.4byte	0xb4
 4050 0004 0200     		.2byte	0x2
 4051 0006 00000000 		.4byte	.Ldebug_info0
 4052 000a 04       		.byte	0x4
 4053 000b 00       		.byte	0
 4054 000c 0000     		.2byte	0
 4055 000e 0000     		.2byte	0
 4056 0010 00000000 		.4byte	.LFB7
 4057 0014 02000000 		.4byte	.LFE7-.LFB7
 4058 0018 00000000 		.4byte	.LFB8
 4059 001c 54000000 		.4byte	.LFE8-.LFB8
 4060 0020 00000000 		.4byte	.LFB9
 4061 0024 22000000 		.4byte	.LFE9-.LFB9
 4062 0028 00000000 		.4byte	.LFB10
 4063 002c 06000000 		.4byte	.LFE10-.LFB10
 4064 0030 00000000 		.4byte	.LFB11
 4065 0034 10000000 		.4byte	.LFE11-.LFB11
 4066 0038 00000000 		.4byte	.LFB12
 4067 003c 3A000000 		.4byte	.LFE12-.LFB12
 4068 0040 00000000 		.4byte	.LFB13
 4069 0044 0A000000 		.4byte	.LFE13-.LFB13
 4070 0048 00000000 		.4byte	.LFB14
 4071 004c 06000000 		.4byte	.LFE14-.LFB14
 4072 0050 00000000 		.4byte	.LFB15
 4073 0054 4C000000 		.4byte	.LFE15-.LFB15
 4074 0058 00000000 		.4byte	.LFB16
 4075 005c 36000000 		.4byte	.LFE16-.LFB16
 4076 0060 00000000 		.4byte	.LFB17
 4077 0064 0A000000 		.4byte	.LFE17-.LFB17
 4078 0068 00000000 		.4byte	.LFB18
 4079 006c 2A000000 		.4byte	.LFE18-.LFB18
 4080 0070 00000000 		.4byte	.LFB19
 4081 0074 3A000000 		.4byte	.LFE19-.LFB19
ARM GAS  /tmp/ccDEgPij.s 			page 73


 4082 0078 00000000 		.4byte	.LFB20
 4083 007c 18000000 		.4byte	.LFE20-.LFB20
 4084 0080 00000000 		.4byte	.LFB21
 4085 0084 0A000000 		.4byte	.LFE21-.LFB21
 4086 0088 00000000 		.4byte	.LFB22
 4087 008c 06000000 		.4byte	.LFE22-.LFB22
 4088 0090 00000000 		.4byte	.LFB23
 4089 0094 2E000000 		.4byte	.LFE23-.LFB23
 4090 0098 00000000 		.4byte	.LFB24
 4091 009c 0A000000 		.4byte	.LFE24-.LFB24
 4092 00a0 00000000 		.4byte	.LFB25
 4093 00a4 08000000 		.4byte	.LFE25-.LFB25
 4094 00a8 00000000 		.4byte	.LFB26
 4095 00ac 0C000000 		.4byte	.LFE26-.LFB26
 4096 00b0 00000000 		.4byte	0
 4097 00b4 00000000 		.4byte	0
 4098              		.section	.debug_ranges,"",%progbits
 4099              	.Ldebug_ranges0:
 4100 0000 26000000 		.4byte	.LBB3
 4101 0004 2C000000 		.4byte	.LBE3
 4102 0008 30000000 		.4byte	.LBB4
 4103 000c 32000000 		.4byte	.LBE4
 4104 0010 34000000 		.4byte	.LBB5
 4105 0014 38000000 		.4byte	.LBE5
 4106 0018 00000000 		.4byte	0
 4107 001c 00000000 		.4byte	0
 4108 0020 26000000 		.4byte	.LBB7
 4109 0024 2C000000 		.4byte	.LBE7
 4110 0028 30000000 		.4byte	.LBB8
 4111 002c 32000000 		.4byte	.LBE8
 4112 0030 34000000 		.4byte	.LBB9
 4113 0034 38000000 		.4byte	.LBE9
 4114 0038 00000000 		.4byte	0
 4115 003c 00000000 		.4byte	0
 4116 0040 00000000 		.4byte	.LFB7
 4117 0044 02000000 		.4byte	.LFE7
 4118 0048 00000000 		.4byte	.LFB8
 4119 004c 54000000 		.4byte	.LFE8
 4120 0050 00000000 		.4byte	.LFB9
 4121 0054 22000000 		.4byte	.LFE9
 4122 0058 00000000 		.4byte	.LFB10
 4123 005c 06000000 		.4byte	.LFE10
 4124 0060 00000000 		.4byte	.LFB11
 4125 0064 10000000 		.4byte	.LFE11
 4126 0068 00000000 		.4byte	.LFB12
 4127 006c 3A000000 		.4byte	.LFE12
 4128 0070 00000000 		.4byte	.LFB13
 4129 0074 0A000000 		.4byte	.LFE13
 4130 0078 00000000 		.4byte	.LFB14
 4131 007c 06000000 		.4byte	.LFE14
 4132 0080 00000000 		.4byte	.LFB15
 4133 0084 4C000000 		.4byte	.LFE15
 4134 0088 00000000 		.4byte	.LFB16
 4135 008c 36000000 		.4byte	.LFE16
 4136 0090 00000000 		.4byte	.LFB17
 4137 0094 0A000000 		.4byte	.LFE17
 4138 0098 00000000 		.4byte	.LFB18
ARM GAS  /tmp/ccDEgPij.s 			page 74


 4139 009c 2A000000 		.4byte	.LFE18
 4140 00a0 00000000 		.4byte	.LFB19
 4141 00a4 3A000000 		.4byte	.LFE19
 4142 00a8 00000000 		.4byte	.LFB20
 4143 00ac 18000000 		.4byte	.LFE20
 4144 00b0 00000000 		.4byte	.LFB21
 4145 00b4 0A000000 		.4byte	.LFE21
 4146 00b8 00000000 		.4byte	.LFB22
 4147 00bc 06000000 		.4byte	.LFE22
 4148 00c0 00000000 		.4byte	.LFB23
 4149 00c4 2E000000 		.4byte	.LFE23
 4150 00c8 00000000 		.4byte	.LFB24
 4151 00cc 0A000000 		.4byte	.LFE24
 4152 00d0 00000000 		.4byte	.LFB25
 4153 00d4 08000000 		.4byte	.LFE25
 4154 00d8 00000000 		.4byte	.LFB26
 4155 00dc 0C000000 		.4byte	.LFE26
 4156 00e0 00000000 		.4byte	0
 4157 00e4 00000000 		.4byte	0
 4158              		.section	.debug_line,"",%progbits
 4159              	.Ldebug_line0:
 4160 0000 A1030000 		.section	.debug_str,"MS",%progbits,1
 4160      0200E601 
 4160      00000201 
 4160      FB0E0D00 
 4160      01010101 
 4161              	.LASF59:
 4162 0000 76746675 		.ascii	"vtfunc_t\000"
 4162      6E635F74 
 4162      00
 4163              	.LASF53:
 4164 0009 54687265 		.ascii	"ThreadsList\000"
 4164      6164734C 
 4164      69737400 
 4165              	.LASF45:
 4166 0015 705F7761 		.ascii	"p_waiting\000"
 4166      6974696E 
 4166      6700
 4167              	.LASF105:
 4168 001f 7379735F 		.ascii	"sys_mbox_t\000"
 4168      6D626F78 
 4168      5F7400
 4169              	.LASF44:
 4170 002a 705F7469 		.ascii	"p_time\000"
 4170      6D6500
 4171              	.LASF177:
 4172 0031 2F686F6D 		.ascii	"/home/caroline/Documents/PAF/ChibiOS_2.6.4/demos/AR"
 4172      652F6361 
 4172      726F6C69 
 4172      6E652F44 
 4172      6F63756D 
 4173 0064 4D434D34 		.ascii	"MCM4-STM32F407-LWIP\000"
 4173      2D53544D 
 4173      33324634 
 4173      30372D4C 
 4173      57495000 
 4174              	.LASF35:
ARM GAS  /tmp/ccDEgPij.s 			page 75


 4175 0078 705F7072 		.ascii	"p_prio\000"
 4175      696F00
 4176              	.LASF30:
 4177 007f 73797374 		.ascii	"systime_t\000"
 4177      696D655F 
 4177      7400
 4178              	.LASF73:
 4179 0089 6D5F6F77 		.ascii	"m_owner\000"
 4179      6E657200 
 4180              	.LASF69:
 4181 0091 735F7175 		.ascii	"s_queue\000"
 4181      65756500 
 4182              	.LASF66:
 4183 0099 76745F73 		.ascii	"vt_systime\000"
 4183      79737469 
 4183      6D6500
 4184              	.LASF151:
 4185 00a4 7379735F 		.ascii	"sys_mbox_set_invalid\000"
 4185      6D626F78 
 4185      5F736574 
 4185      5F696E76 
 4185      616C6964 
 4186              	.LASF46:
 4187 00b9 705F6D73 		.ascii	"p_msgqueue\000"
 4187      67717565 
 4187      756500
 4188              	.LASF0:
 4189 00c4 756E7369 		.ascii	"unsigned int\000"
 4189      676E6564 
 4189      20696E74 
 4189      00
 4190              	.LASF88:
 4191 00d1 6E657874 		.ascii	"next\000"
 4191      00
 4192              	.LASF152:
 4193 00d6 7379735F 		.ascii	"sys_thread_new\000"
 4193      74687265 
 4193      61645F6E 
 4193      657700
 4194              	.LASF103:
 4195 00e5 6572725F 		.ascii	"err_t\000"
 4195      7400
 4196              	.LASF9:
 4197 00eb 5F5F696E 		.ascii	"__int32_t\000"
 4197      7433325F 
 4197      7400
 4198              	.LASF86:
 4199 00f5 685F6672 		.ascii	"h_free\000"
 4199      656500
 4200              	.LASF89:
 4201 00fc 68656170 		.ascii	"heap\000"
 4201      00
 4202              	.LASF94:
 4203 0101 77746F62 		.ascii	"wtobjp\000"
 4203      6A7000
 4204              	.LASF160:
 4205 0108 76746C69 		.ascii	"vtlist\000"
ARM GAS  /tmp/ccDEgPij.s 			page 76


 4205      737400
 4206              	.LASF165:
 4207 010f 63685365 		.ascii	"chSemSignalI\000"
 4207      6D536967 
 4207      6E616C49 
 4207      00
 4208              	.LASF120:
 4209 011c 73746174 		.ascii	"stats_mem\000"
 4209      735F6D65 
 4209      6D00
 4210              	.LASF95:
 4211 0126 65776D61 		.ascii	"ewmask\000"
 4211      736B00
 4212              	.LASF81:
 4213 012d 4D61696C 		.ascii	"Mailbox\000"
 4213      626F7800 
 4214              	.LASF161:
 4215 0135 6C776970 		.ascii	"lwip_stats\000"
 4215      5F737461 
 4215      747300
 4216              	.LASF70:
 4217 0140 735F636E 		.ascii	"s_cnt\000"
 4217      7400
 4218              	.LASF124:
 4219 0146 73746174 		.ascii	"stats_syselem\000"
 4219      735F7379 
 4219      73656C65 
 4219      6D00
 4220              	.LASF158:
 4221 0154 7379735F 		.ascii	"sys_arch_unprotect\000"
 4221      61726368 
 4221      5F756E70 
 4221      726F7465 
 4221      637400
 4222              	.LASF169:
 4223 0167 63684D42 		.ascii	"chMBReset\000"
 4223      52657365 
 4223      7400
 4224              	.LASF63:
 4225 0171 76745F74 		.ascii	"vt_time\000"
 4225      696D6500 
 4226              	.LASF20:
 4227 0179 75696E74 		.ascii	"uint32_t\000"
 4227      33325F74 
 4227      00
 4228              	.LASF16:
 4229 0182 696E7438 		.ascii	"int8_t\000"
 4229      5F7400
 4230              	.LASF29:
 4231 0189 6576656E 		.ascii	"eventmask_t\000"
 4231      746D6173 
 4231      6B5F7400 
 4232              	.LASF65:
 4233 0195 76745F70 		.ascii	"vt_par\000"
 4233      617200
 4234              	.LASF118:
 4235 019c 6F707465 		.ascii	"opterr\000"
ARM GAS  /tmp/ccDEgPij.s 			page 77


 4235      727200
 4236              	.LASF126:
 4237 01a3 6D757465 		.ascii	"mutex\000"
 4237      7800
 4238              	.LASF131:
 4239 01a9 69705F66 		.ascii	"ip_frag\000"
 4239      72616700 
 4240              	.LASF27:
 4241 01b1 74707269 		.ascii	"tprio_t\000"
 4241      6F5F7400 
 4242              	.LASF134:
 4243 01b9 636F756E 		.ascii	"count\000"
 4243      7400
 4244              	.LASF123:
 4245 01bf 696C6C65 		.ascii	"illegal\000"
 4245      67616C00 
 4246              	.LASF106:
 4247 01c7 7379735F 		.ascii	"sys_thread_t\000"
 4247      74687265 
 4247      61645F74 
 4247      00
 4248              	.LASF97:
 4249 01d4 7466756E 		.ascii	"tfunc_t\000"
 4249      635F7400 
 4250              	.LASF130:
 4251 01dc 65746861 		.ascii	"etharp\000"
 4251      727000
 4252              	.LASF137:
 4253 01e3 7379735F 		.ascii	"sys_sem_signal_S\000"
 4253      73656D5F 
 4253      7369676E 
 4253      616C5F53 
 4253      00
 4254              	.LASF15:
 4255 01f4 6C6F6E67 		.ascii	"long long unsigned int\000"
 4255      206C6F6E 
 4255      6720756E 
 4255      7369676E 
 4255      65642069 
 4256              	.LASF7:
 4257 020b 5F5F7569 		.ascii	"__uint16_t\000"
 4257      6E743136 
 4257      5F7400
 4258              	.LASF31:
 4259 0216 636E745F 		.ascii	"cnt_t\000"
 4259      7400
 4260              	.LASF108:
 4261 021c 6C776970 		.ascii	"lwip_thread_fn\000"
 4261      5F746872 
 4261      6561645F 
 4261      666E00
 4262              	.LASF141:
 4263 022b 74696D65 		.ascii	"time\000"
 4263      00
 4264              	.LASF37:
 4265 0230 705F6E65 		.ascii	"p_newer\000"
 4265      77657200 
ARM GAS  /tmp/ccDEgPij.s 			page 78


 4266              	.LASF136:
 4267 0238 7379735F 		.ascii	"sys_sem_signal\000"
 4267      73656D5F 
 4267      7369676E 
 4267      616C00
 4268              	.LASF122:
 4269 0247 75736564 		.ascii	"used\000"
 4269      00
 4270              	.LASF128:
 4271 024c 73746174 		.ascii	"stats_\000"
 4271      735F00
 4272              	.LASF145:
 4273 0253 7379735F 		.ascii	"sys_mbox_free\000"
 4273      6D626F78 
 4273      5F667265 
 4273      6500
 4274              	.LASF167:
 4275 0261 63685365 		.ascii	"chSemWaitTimeoutS\000"
 4275      6D576169 
 4275      7454696D 
 4275      656F7574 
 4275      5300
 4276              	.LASF176:
 4277 0273 2E2E2F2E 		.ascii	"../../os/various/lwip_bindings/arch/sys_arch.c\000"
 4277      2E2F6F73 
 4277      2F766172 
 4277      696F7573 
 4277      2F6C7769 
 4278              	.LASF178:
 4279 02a2 68656170 		.ascii	"heap_header\000"
 4279      5F686561 
 4279      64657200 
 4280              	.LASF1:
 4281 02ae 73697A65 		.ascii	"size_t\000"
 4281      5F7400
 4282              	.LASF92:
 4283 02b5 7264796D 		.ascii	"rdymsg\000"
 4283      736700
 4284              	.LASF22:
 4285 02bc 5F426F6F 		.ascii	"_Bool\000"
 4285      6C00
 4286              	.LASF78:
 4287 02c2 6D625F72 		.ascii	"mb_rdptr\000"
 4287      64707472 
 4287      00
 4288              	.LASF104:
 4289 02cb 7379735F 		.ascii	"sys_sem_t\000"
 4289      73656D5F 
 4289      7400
 4290              	.LASF14:
 4291 02d5 5F5F7569 		.ascii	"__uint64_t\000"
 4291      6E743634 
 4291      5F7400
 4292              	.LASF99:
 4293 02e0 73385F74 		.ascii	"s8_t\000"
 4293      00
 4294              	.LASF162:
ARM GAS  /tmp/ccDEgPij.s 			page 79


 4295 02e5 63685365 		.ascii	"chSemInit\000"
 4295      6D496E69 
 4295      7400
 4296              	.LASF181:
 4297 02ef 63685363 		.ascii	"chSchRescheduleS\000"
 4297      68526573 
 4297      63686564 
 4297      756C6553 
 4297      00
 4298              	.LASF71:
 4299 0300 4D757465 		.ascii	"Mutex\000"
 4299      7800
 4300              	.LASF80:
 4301 0306 6D625F65 		.ascii	"mb_emptysem\000"
 4301      6D707479 
 4301      73656D00 
 4302              	.LASF143:
 4303 0312 7379735F 		.ascii	"sys_sem_set_invalid\000"
 4303      73656D5F 
 4303      7365745F 
 4303      696E7661 
 4303      6C696400 
 4304              	.LASF179:
 4305 0326 7379735F 		.ascii	"sys_init\000"
 4305      696E6974 
 4305      00
 4306              	.LASF39:
 4307 032f 705F6E61 		.ascii	"p_name\000"
 4307      6D6500
 4308              	.LASF156:
 4309 0336 7072696F 		.ascii	"prio\000"
 4309      00
 4310              	.LASF85:
 4311 033b 685F7072 		.ascii	"h_provider\000"
 4311      6F766964 
 4311      657200
 4312              	.LASF52:
 4313 0346 54687265 		.ascii	"ThreadsQueue\000"
 4313      61647351 
 4313      75657565 
 4313      00
 4314              	.LASF96:
 4315 0353 63686172 		.ascii	"char\000"
 4315      00
 4316              	.LASF102:
 4317 0358 6D656D5F 		.ascii	"mem_size_t\000"
 4317      73697A65 
 4317      5F7400
 4318              	.LASF109:
 4319 0363 73746174 		.ascii	"stats_proto\000"
 4319      735F7072 
 4319      6F746F00 
 4320              	.LASF107:
 4321 036f 7379735F 		.ascii	"sys_prot_t\000"
 4321      70726F74 
 4321      5F7400
 4322              	.LASF32:
ARM GAS  /tmp/ccDEgPij.s 			page 80


 4323 037a 54687265 		.ascii	"Thread\000"
 4323      616400
 4324              	.LASF24:
 4325 0381 74737461 		.ascii	"tstate_t\000"
 4325      74655F74 
 4325      00
 4326              	.LASF67:
 4327 038a 56544C69 		.ascii	"VTList\000"
 4327      737400
 4328              	.LASF38:
 4329 0391 705F6F6C 		.ascii	"p_older\000"
 4329      64657200 
 4330              	.LASF40:
 4331 0399 705F7374 		.ascii	"p_state\000"
 4331      61746500 
 4332              	.LASF173:
 4333 03a1 6368436F 		.ascii	"chCoreAlloc\000"
 4333      7265416C 
 4333      6C6F6300 
 4334              	.LASF17:
 4335 03ad 75696E74 		.ascii	"uint8_t\000"
 4335      385F7400 
 4336              	.LASF79:
 4337 03b5 6D625F66 		.ascii	"mb_fullsem\000"
 4337      756C6C73 
 4337      656D00
 4338              	.LASF159:
 4339 03c0 7076616C 		.ascii	"pval\000"
 4339      00
 4340              	.LASF155:
 4341 03c5 73746163 		.ascii	"stacksize\000"
 4341      6B73697A 
 4341      6500
 4342              	.LASF166:
 4343 03cf 63684865 		.ascii	"chHeapAlloc\000"
 4343      6170416C 
 4343      6C6F6300 
 4344              	.LASF51:
 4345 03db 705F6D70 		.ascii	"p_mpool\000"
 4345      6F6F6C00 
 4346              	.LASF49:
 4347 03e3 705F6D74 		.ascii	"p_mtxlist\000"
 4347      786C6973 
 4347      7400
 4348              	.LASF87:
 4349 03ed 685F6D74 		.ascii	"h_mtx\000"
 4349      7800
 4350              	.LASF54:
 4351 03f3 72656761 		.ascii	"regarm_t\000"
 4351      726D5F74 
 4351      00
 4352              	.LASF13:
 4353 03fc 6C6F6E67 		.ascii	"long long int\000"
 4353      206C6F6E 
 4353      6720696E 
 4353      7400
 4354              	.LASF148:
ARM GAS  /tmp/ccDEgPij.s 			page 81


 4355 040a 7379735F 		.ascii	"sys_arch_mbox_fetch\000"
 4355      61726368 
 4355      5F6D626F 
 4355      785F6665 
 4355      74636800 
 4356              	.LASF138:
 4357 041e 7379735F 		.ascii	"sys_sem_new\000"
 4357      73656D5F 
 4357      6E657700 
 4358              	.LASF28:
 4359 042a 6D73675F 		.ascii	"msg_t\000"
 4359      7400
 4360              	.LASF163:
 4361 0430 63684865 		.ascii	"chHeapFree\000"
 4361      61704672 
 4361      656500
 4362              	.LASF57:
 4363 043b 636F6E74 		.ascii	"context\000"
 4363      65787400 
 4364              	.LASF98:
 4365 0443 75385F74 		.ascii	"u8_t\000"
 4365      00
 4366              	.LASF41:
 4367 0448 705F666C 		.ascii	"p_flags\000"
 4367      61677300 
 4368              	.LASF149:
 4369 0450 7379735F 		.ascii	"sys_arch_mbox_tryfetch\000"
 4369      61726368 
 4369      5F6D626F 
 4369      785F7472 
 4369      79666574 
 4370              	.LASF91:
 4371 0467 73697A65 		.ascii	"size\000"
 4371      00
 4372              	.LASF76:
 4373 046c 6D625F74 		.ascii	"mb_top\000"
 4373      6F7000
 4374              	.LASF150:
 4375 0473 7379735F 		.ascii	"sys_mbox_valid\000"
 4375      6D626F78 
 4375      5F76616C 
 4375      696400
 4376              	.LASF113:
 4377 0482 63686B65 		.ascii	"chkerr\000"
 4377      727200
 4378              	.LASF26:
 4379 0489 74736C69 		.ascii	"tslices_t\000"
 4379      6365735F 
 4379      7400
 4380              	.LASF115:
 4381 0493 6D656D65 		.ascii	"memerr\000"
 4381      727200
 4382              	.LASF174:
 4383 049a 63685468 		.ascii	"chThdCreateStatic\000"
 4383      64437265 
 4383      61746553 
 4383      74617469 
ARM GAS  /tmp/ccDEgPij.s 			page 82


 4383      6300
 4384              	.LASF47:
 4385 04ac 705F6D73 		.ascii	"p_msg\000"
 4385      6700
 4386              	.LASF2:
 4387 04b2 5F5F696E 		.ascii	"__int8_t\000"
 4387      74385F74 
 4387      00
 4388              	.LASF23:
 4389 04bb 746D6F64 		.ascii	"tmode_t\000"
 4389      655F7400 
 4390              	.LASF171:
 4391 04c3 63684D42 		.ascii	"chMBFetchS\000"
 4391      46657463 
 4391      685300
 4392              	.LASF147:
 4393 04ce 7379735F 		.ascii	"sys_mbox_trypost\000"
 4393      6D626F78 
 4393      5F747279 
 4393      706F7374 
 4393      00
 4394              	.LASF172:
 4395 04df 63684D42 		.ascii	"chMBFetch\000"
 4395      46657463 
 4395      6800
 4396              	.LASF18:
 4397 04e9 75696E74 		.ascii	"uint16_t\000"
 4397      31365F74 
 4397      00
 4398              	.LASF56:
 4399 04f2 696E7463 		.ascii	"intctx\000"
 4399      747800
 4400              	.LASF100:
 4401 04f9 7531365F 		.ascii	"u16_t\000"
 4401      7400
 4402              	.LASF140:
 4403 04ff 74696D65 		.ascii	"timeout\000"
 4403      6F757400 
 4404              	.LASF114:
 4405 0507 6C656E65 		.ascii	"lenerr\000"
 4405      727200
 4406              	.LASF50:
 4407 050e 705F7265 		.ascii	"p_realprio\000"
 4407      616C7072 
 4407      696F00
 4408              	.LASF101:
 4409 0519 7533325F 		.ascii	"u32_t\000"
 4409      7400
 4410              	.LASF6:
 4411 051f 73686F72 		.ascii	"short int\000"
 4411      7420696E 
 4411      7400
 4412              	.LASF84:
 4413 0529 6D656D6F 		.ascii	"memory_heap\000"
 4413      72795F68 
 4413      65617000 
 4414              	.LASF77:
ARM GAS  /tmp/ccDEgPij.s 			page 83


 4415 0535 6D625F77 		.ascii	"mb_wrptr\000"
 4415      72707472 
 4415      00
 4416              	.LASF48:
 4417 053e 705F6570 		.ascii	"p_epending\000"
 4417      656E6469 
 4417      6E6700
 4418              	.LASF72:
 4419 0549 6D5F7175 		.ascii	"m_queue\000"
 4419      65756500 
 4420              	.LASF10:
 4421 0551 6C6F6E67 		.ascii	"long int\000"
 4421      20696E74 
 4421      00
 4422              	.LASF116:
 4423 055a 72746572 		.ascii	"rterr\000"
 4423      7200
 4424              	.LASF121:
 4425 0560 61766169 		.ascii	"avail\000"
 4425      6C00
 4426              	.LASF33:
 4427 0566 705F6E65 		.ascii	"p_next\000"
 4427      787400
 4428              	.LASF21:
 4429 056d 75696E74 		.ascii	"uint64_t\000"
 4429      36345F74 
 4429      00
 4430              	.LASF36:
 4431 0576 705F6374 		.ascii	"p_ctx\000"
 4431      7800
 4432              	.LASF127:
 4433 057c 6D626F78 		.ascii	"mbox\000"
 4433      00
 4434              	.LASF139:
 4435 0581 7379735F 		.ascii	"sys_arch_sem_wait\000"
 4435      61726368 
 4435      5F73656D 
 4435      5F776169 
 4435      7400
 4436              	.LASF119:
 4437 0593 63616368 		.ascii	"cachehit\000"
 4437      65686974 
 4437      00
 4438              	.LASF60:
 4439 059c 56697274 		.ascii	"VirtualTimer\000"
 4439      75616C54 
 4439      696D6572 
 4439      00
 4440              	.LASF4:
 4441 05a9 5F5F7569 		.ascii	"__uint8_t\000"
 4441      6E74385F 
 4441      7400
 4442              	.LASF68:
 4443 05b3 53656D61 		.ascii	"Semaphore\000"
 4443      70686F72 
 4443      6500
 4444              	.LASF82:
ARM GAS  /tmp/ccDEgPij.s 			page 84


 4445 05bd 6D656D67 		.ascii	"memgetfunc_t\000"
 4445      65746675 
 4445      6E635F74 
 4445      00
 4446              	.LASF153:
 4447 05ca 6E616D65 		.ascii	"name\000"
 4447      00
 4448              	.LASF168:
 4449 05cf 63684D42 		.ascii	"chMBInit\000"
 4449      496E6974 
 4449      00
 4450              	.LASF164:
 4451 05d8 63685365 		.ascii	"chSemSignal\000"
 4451      6D536967 
 4451      6E616C00 
 4452              	.LASF157:
 4453 05e4 7379735F 		.ascii	"sys_arch_protect\000"
 4453      61726368 
 4453      5F70726F 
 4453      74656374 
 4453      00
 4454              	.LASF135:
 4455 05f5 7379735F 		.ascii	"sys_sem_free\000"
 4455      73656D5F 
 4455      66726565 
 4455      00
 4456              	.LASF133:
 4457 0602 6D656D70 		.ascii	"memp\000"
 4457      00
 4458              	.LASF34:
 4459 0607 705F7072 		.ascii	"p_prev\000"
 4459      657600
 4460              	.LASF58:
 4461 060e 73697A65 		.ascii	"sizetype\000"
 4461      74797065 
 4461      00
 4462              	.LASF25:
 4463 0617 74726566 		.ascii	"trefs_t\000"
 4463      735F7400 
 4464              	.LASF12:
 4465 061f 6C6F6E67 		.ascii	"long unsigned int\000"
 4465      20756E73 
 4465      69676E65 
 4465      6420696E 
 4465      7400
 4466              	.LASF175:
 4467 0631 474E5520 		.ascii	"GNU C 4.8.2 -mcpu=cortex-m4 -mno-thumb-interwork -m"
 4467      4320342E 
 4467      382E3220 
 4467      2D6D6370 
 4467      753D636F 
 4468 0664 7468756D 		.ascii	"thumb -ggdb -O2 -std=gnu99 -fomit-frame-pointer -fa"
 4468      62202D67 
 4468      67646220 
 4468      2D4F3220 
 4468      2D737464 
 4469 0697 6C69676E 		.ascii	"lign-functions=16 -ffunction-sections -fdata-sectio"
ARM GAS  /tmp/ccDEgPij.s 			page 85


 4469      2D66756E 
 4469      6374696F 
 4469      6E733D31 
 4469      36202D66 
 4470 06ca 6E73202D 		.ascii	"ns -fno-common\000"
 4470      666E6F2D 
 4470      636F6D6D 
 4470      6F6E00
 4471              	.LASF75:
 4472 06d9 6D625F62 		.ascii	"mb_buffer\000"
 4472      75666665 
 4472      7200
 4473              	.LASF19:
 4474 06e3 696E7433 		.ascii	"int32_t\000"
 4474      325F7400 
 4475              	.LASF154:
 4476 06eb 74687265 		.ascii	"thread\000"
 4476      616400
 4477              	.LASF117:
 4478 06f2 70726F74 		.ascii	"proterr\000"
 4478      65727200 
 4479              	.LASF146:
 4480 06fa 7379735F 		.ascii	"sys_mbox_post\000"
 4480      6D626F78 
 4480      5F706F73 
 4480      7400
 4481              	.LASF125:
 4482 0708 73746174 		.ascii	"stats_sys\000"
 4482      735F7379 
 4482      7300
 4483              	.LASF5:
 4484 0712 756E7369 		.ascii	"unsigned char\000"
 4484      676E6564 
 4484      20636861 
 4484      7200
 4485              	.LASF11:
 4486 0720 5F5F7569 		.ascii	"__uint32_t\000"
 4486      6E743332 
 4486      5F7400
 4487              	.LASF42:
 4488 072b 705F7265 		.ascii	"p_refs\000"
 4488      667300
 4489              	.LASF129:
 4490 0732 6C696E6B 		.ascii	"link\000"
 4490      00
 4491              	.LASF170:
 4492 0737 63684D42 		.ascii	"chMBPost\000"
 4492      506F7374 
 4492      00
 4493              	.LASF43:
 4494 0740 705F7072 		.ascii	"p_preempt\000"
 4494      65656D70 
 4494      7400
 4495              	.LASF112:
 4496 074a 64726F70 		.ascii	"drop\000"
 4496      00
 4497              	.LASF61:
ARM GAS  /tmp/ccDEgPij.s 			page 86


 4498 074f 76745F6E 		.ascii	"vt_next\000"
 4498      65787400 
 4499              	.LASF142:
 4500 0757 7379735F 		.ascii	"sys_sem_valid\000"
 4500      73656D5F 
 4500      76616C69 
 4500      6400
 4501              	.LASF144:
 4502 0765 7379735F 		.ascii	"sys_mbox_new\000"
 4502      6D626F78 
 4502      5F6E6577 
 4502      00
 4503              	.LASF111:
 4504 0772 72656376 		.ascii	"recv\000"
 4504      00
 4505              	.LASF74:
 4506 0777 6D5F6E65 		.ascii	"m_next\000"
 4506      787400
 4507              	.LASF3:
 4508 077e 7369676E 		.ascii	"signed char\000"
 4508      65642063 
 4508      68617200 
 4509              	.LASF8:
 4510 078a 73686F72 		.ascii	"short unsigned int\000"
 4510      7420756E 
 4510      7369676E 
 4510      65642069 
 4510      6E7400
 4511              	.LASF55:
 4512 079d 73746B61 		.ascii	"stkalign_t\000"
 4512      6C69676E 
 4512      5F7400
 4513              	.LASF83:
 4514 07a8 4D656D6F 		.ascii	"MemoryHeap\000"
 4514      72794865 
 4514      617000
 4515              	.LASF110:
 4516 07b3 786D6974 		.ascii	"xmit\000"
 4516      00
 4517              	.LASF64:
 4518 07b8 76745F66 		.ascii	"vt_func\000"
 4518      756E6300 
 4519              	.LASF62:
 4520 07c0 76745F70 		.ascii	"vt_prev\000"
 4520      72657600 
 4521              	.LASF90:
 4522 07c8 616C6967 		.ascii	"align\000"
 4522      6E00
 4523              	.LASF180:
 4524 07ce 7379735F 		.ascii	"sys_now\000"
 4524      6E6F7700 
 4525              	.LASF93:
 4526 07d6 65786974 		.ascii	"exitcode\000"
 4526      636F6465 
 4526      00
 4527              	.LASF132:
 4528 07df 69636D70 		.ascii	"icmp\000"
ARM GAS  /tmp/ccDEgPij.s 			page 87


 4528      00
 4529              		.ident	"GCC: (4.8.2-14ubuntu1+6) 4.8.2"
ARM GAS  /tmp/ccDEgPij.s 			page 88


DEFINED SYMBOLS
                            *ABS*:0000000000000000 sys_arch.c
     /tmp/ccDEgPij.s:19     .text.sys_init:0000000000000000 $t
     /tmp/ccDEgPij.s:25     .text.sys_init:0000000000000000 sys_init
     /tmp/ccDEgPij.s:38     .text.sys_sem_new:0000000000000000 $t
     /tmp/ccDEgPij.s:44     .text.sys_sem_new:0000000000000000 sys_sem_new
     /tmp/ccDEgPij.s:110    .text.sys_sem_free:0000000000000000 $t
     /tmp/ccDEgPij.s:116    .text.sys_sem_free:0000000000000000 sys_sem_free
     /tmp/ccDEgPij.s:151    .text.sys_sem_signal:0000000000000000 $t
     /tmp/ccDEgPij.s:157    .text.sys_sem_signal:0000000000000000 sys_sem_signal
     /tmp/ccDEgPij.s:174    .text.sys_sem_signal_S:0000000000000000 $t
     /tmp/ccDEgPij.s:180    .text.sys_sem_signal_S:0000000000000000 sys_sem_signal_S
     /tmp/ccDEgPij.s:205    .text.sys_arch_sem_wait:0000000000000000 $t
     /tmp/ccDEgPij.s:211    .text.sys_arch_sem_wait:0000000000000000 sys_arch_sem_wait
     /tmp/ccDEgPij.s:287    .text.sys_sem_valid:0000000000000000 $t
     /tmp/ccDEgPij.s:293    .text.sys_sem_valid:0000000000000000 sys_sem_valid
     /tmp/ccDEgPij.s:313    .text.sys_sem_set_invalid:0000000000000000 $t
     /tmp/ccDEgPij.s:319    .text.sys_sem_set_invalid:0000000000000000 sys_sem_set_invalid
     /tmp/ccDEgPij.s:335    .text.sys_mbox_new:0000000000000000 $t
     /tmp/ccDEgPij.s:341    .text.sys_mbox_new:0000000000000000 sys_mbox_new
     /tmp/ccDEgPij.s:405    .text.sys_mbox_free:0000000000000000 $t
     /tmp/ccDEgPij.s:411    .text.sys_mbox_free:0000000000000000 sys_mbox_free
     /tmp/ccDEgPij.s:462    .text.sys_mbox_post:0000000000000000 $t
     /tmp/ccDEgPij.s:468    .text.sys_mbox_post:0000000000000000 sys_mbox_post
     /tmp/ccDEgPij.s:486    .text.sys_mbox_trypost:0000000000000000 $t
     /tmp/ccDEgPij.s:492    .text.sys_mbox_trypost:0000000000000000 sys_mbox_trypost
     /tmp/ccDEgPij.s:533    .text.sys_arch_mbox_fetch:0000000000000000 $t
     /tmp/ccDEgPij.s:539    .text.sys_arch_mbox_fetch:0000000000000000 sys_arch_mbox_fetch
     /tmp/ccDEgPij.s:615    .text.sys_arch_mbox_tryfetch:0000000000000000 $t
     /tmp/ccDEgPij.s:621    .text.sys_arch_mbox_tryfetch:0000000000000000 sys_arch_mbox_tryfetch
     /tmp/ccDEgPij.s:648    .text.sys_mbox_valid:0000000000000000 $t
     /tmp/ccDEgPij.s:654    .text.sys_mbox_valid:0000000000000000 sys_mbox_valid
     /tmp/ccDEgPij.s:674    .text.sys_mbox_set_invalid:0000000000000000 $t
     /tmp/ccDEgPij.s:680    .text.sys_mbox_set_invalid:0000000000000000 sys_mbox_set_invalid
     /tmp/ccDEgPij.s:696    .text.sys_thread_new:0000000000000000 $t
     /tmp/ccDEgPij.s:702    .text.sys_thread_new:0000000000000000 sys_thread_new
     /tmp/ccDEgPij.s:755    .text.sys_arch_protect:0000000000000000 $t
     /tmp/ccDEgPij.s:761    .text.sys_arch_protect:0000000000000000 sys_arch_protect
     /tmp/ccDEgPij.s:783    .text.sys_arch_unprotect:0000000000000000 $t
     /tmp/ccDEgPij.s:789    .text.sys_arch_unprotect:0000000000000000 sys_arch_unprotect
     /tmp/ccDEgPij.s:810    .text.sys_now:0000000000000000 $t
     /tmp/ccDEgPij.s:816    .text.sys_now:0000000000000000 sys_now
                     .debug_frame:0000000000000010 $d

UNDEFINED SYMBOLS
chHeapAlloc
chSemInit
lwip_stats
chHeapFree
chSemSignal
chSemSignalI
chSchRescheduleS
vtlist
chSemWaitTimeoutS
chMBInit
chMBReset
chMBPost
ARM GAS  /tmp/ccDEgPij.s 			page 89


chMBFetchS
chMBFetch
chCoreAlloc
chThdCreateStatic
