ARM GAS  /tmp/ccnlRhI2.s 			page 1


   1              		.syntax unified
   2              		.cpu cortex-m4
   3              		.fpu softvfp
   4              		.eabi_attribute 20, 1
   5              		.eabi_attribute 21, 1
   6              		.eabi_attribute 23, 3
   7              		.eabi_attribute 24, 1
   8              		.eabi_attribute 25, 1
   9              		.eabi_attribute 26, 1
  10              		.eabi_attribute 30, 2
  11              		.eabi_attribute 34, 1
  12              		.eabi_attribute 18, 4
  13              		.thumb
  14              		.file	"tcp_in.c"
  15              		.text
  16              	.Ltext0:
  17              		.cfi_sections	.debug_frame
  18              		.section	.text.tcp_oos_insert_segment,"ax",%progbits
  19              		.align	2
  20              		.p2align 4,,15
  21              		.thumb
  22              		.thumb_func
  23              		.type	tcp_oos_insert_segment, %function
  24              	tcp_oos_insert_segment:
  25              	.LFB11:
  26              		.file 1 "../../ext/lwip/src/core/tcp_in.c"
  27              		.loc 1 801 0
  28              		.cfi_startproc
  29              		@ args = 0, pretend = 0, frame = 0
  30              		@ frame_needed = 0, uses_anonymous_args = 0
  31              	.LVL0:
  32              		.loc 1 804 0
  33 0000 C368     		ldr	r3, [r0, #12]
  34              		.loc 1 801 0
  35 0002 2DE9F041 		push	{r4, r5, r6, r7, r8, lr}
  36              		.cfi_def_cfa_offset 24
  37              		.cfi_offset 4, -24
  38              		.cfi_offset 5, -20
  39              		.cfi_offset 6, -16
  40              		.cfi_offset 7, -12
  41              		.cfi_offset 8, -8
  42              		.cfi_offset 14, -4
  43              		.loc 1 801 0
  44 0006 0646     		mov	r6, r0
  45              		.loc 1 804 0
  46 0008 9889     		ldrh	r0, [r3, #12]	@ unaligned
  47              	.LVL1:
  48              		.loc 1 801 0
  49 000a 0D46     		mov	r5, r1
  50              		.loc 1 804 0
  51 000c FFF7FEFF 		bl	lwip_ntohs
  52              	.LVL2:
  53 0010 C207     		lsls	r2, r0, #31
  54 0012 47D4     		bmi	.L2
  55              		.loc 1 812 0 discriminator 1
  56 0014 002D     		cmp	r5, #0
  57 0016 35D0     		beq	.L19
ARM GAS  /tmp/ccnlRhI2.s 			page 2


  58              		.loc 1 813 0
  59 0018 EB68     		ldr	r3, [r5, #12]
  60 001a 3189     		ldrh	r1, [r6, #8]
  61 001c 5A68     		ldr	r2, [r3, #4]	@ unaligned
  62 001e 2889     		ldrh	r0, [r5, #8]
  63 0020 40F20007 		movw	r7, #:lower16:.LANCHOR0
  64 0024 C0F20007 		movt	r7, #:upper16:.LANCHOR0
  65 0028 8A1A     		subs	r2, r1, r2
  66 002a 3968     		ldr	r1, [r7]
  67 002c 0A44     		add	r2, r2, r1
  68 002e 101A     		subs	r0, r2, r0
  69              		.loc 1 812 0
  70 0030 0028     		cmp	r0, #0
  71 0032 BCBF     		itt	lt
  72 0034 5B68     		ldrlt	r3, [r3, #4]	@ unaligned
  73 0036 2C46     		movlt	r4, r5
  74 0038 10DA     		bge	.L9
  75 003a 28E0     		b	.L6
  76              	.L7:
  77              	.LVL3:
  78              		.loc 1 820 0
  79 003c 2C68     		ldr	r4, [r5]
  80              	.LVL4:
  81              		.loc 1 821 0
  82 003e 2846     		mov	r0, r5
  83 0040 FFF7FEFF 		bl	tcp_seg_free
  84              	.LVL5:
  85              		.loc 1 812 0
  86 0044 F4B1     		cbz	r4, .L19
  87              	.L21:
  88              		.loc 1 813 0 discriminator 2
  89 0046 E368     		ldr	r3, [r4, #12]
  90 0048 3089     		ldrh	r0, [r6, #8]
  91 004a 5A68     		ldr	r2, [r3, #4]	@ unaligned
  92 004c 3968     		ldr	r1, [r7]
  93 004e 2589     		ldrh	r5, [r4, #8]
  94              	.LVL6:
  95 0050 821A     		subs	r2, r0, r2
  96 0052 0A44     		add	r2, r2, r1
  97 0054 551B     		subs	r5, r2, r5
  98              		.loc 1 812 0 discriminator 2
  99 0056 002D     		cmp	r5, #0
 100 0058 18DB     		blt	.L11
 101              		.loc 1 812 0 is_stmt 0
 102 005a 2546     		mov	r5, r4
 103              	.LVL7:
 104              	.L9:
 105              		.loc 1 816 0 is_stmt 1
 106 005c 9889     		ldrh	r0, [r3, #12]	@ unaligned
 107 005e FFF7FEFF 		bl	lwip_ntohs
 108              	.LVL8:
 109 0062 C307     		lsls	r3, r0, #31
 110 0064 EAD5     		bpl	.L7
 111              		.loc 1 817 0
 112 0066 F468     		ldr	r4, [r6, #12]
 113 0068 0120     		movs	r0, #1
 114 006a B4F80C80 		ldrh	r8, [r4, #12]	@ unaligned
ARM GAS  /tmp/ccnlRhI2.s 			page 3


 115 006e FFF7FEFF 		bl	lwip_htons
 116              	.LVL9:
 117 0072 40EA0800 		orr	r0, r0, r8
 118 0076 A081     		strh	r0, [r4, #12]	@ unaligned
 119              	.LVL10:
 120              		.loc 1 820 0
 121 0078 2C68     		ldr	r4, [r5]
 122              	.LVL11:
 123              		.loc 1 821 0
 124 007a 2846     		mov	r0, r5
 125 007c FFF7FEFF 		bl	tcp_seg_free
 126              	.LVL12:
 127              		.loc 1 812 0
 128 0080 002C     		cmp	r4, #0
 129 0082 E0D1     		bne	.L21
 130              	.LVL13:
 131              	.L19:
 132              		.loc 1 807 0
 133 0084 0024     		movs	r4, #0
 134              	.LVL14:
 135              	.L4:
 136              		.loc 1 830 0
 137 0086 3460     		str	r4, [r6]
 138 0088 BDE8F081 		pop	{r4, r5, r6, r7, r8, pc}
 139              	.LVL15:
 140              	.L11:
 141              		.loc 1 813 0
 142 008c 5B68     		ldr	r3, [r3, #4]	@ unaligned
 143              	.LVL16:
 144              	.L6:
 145              		.loc 1 823 0
 146 008e 002A     		cmp	r2, #0
 147 0090 F9DD     		ble	.L4
 148              		.loc 1 826 0
 149 0092 591A     		subs	r1, r3, r1
 150 0094 89B2     		uxth	r1, r1
 151 0096 3181     		strh	r1, [r6, #8]	@ movhi
 152              		.loc 1 827 0
 153 0098 7068     		ldr	r0, [r6, #4]
 154 009a FFF7FEFF 		bl	pbuf_realloc
 155              	.LVL17:
 156              		.loc 1 830 0
 157 009e 3460     		str	r4, [r6]
 158 00a0 BDE8F081 		pop	{r4, r5, r6, r7, r8, pc}
 159              	.LVL18:
 160              	.L2:
 161              		.loc 1 806 0
 162 00a4 2846     		mov	r0, r5
 163 00a6 FFF7FEFF 		bl	tcp_segs_free
 164              	.LVL19:
 165 00aa EBE7     		b	.L19
 166              		.cfi_endproc
 167              	.LFE11:
 168              		.size	tcp_oos_insert_segment, .-tcp_oos_insert_segment
 169              		.section	.text.tcp_receive,"ax",%progbits
 170              		.align	2
 171              		.p2align 4,,15
ARM GAS  /tmp/ccnlRhI2.s 			page 4


 172              		.thumb
 173              		.thumb_func
 174              		.type	tcp_receive, %function
 175              	tcp_receive:
 176              	.LFB12:
 177              		.loc 1 848 0
 178              		.cfi_startproc
 179              		@ args = 0, pretend = 0, frame = 8
 180              		@ frame_needed = 0, uses_anonymous_args = 0
 181              	.LVL20:
 182 0000 2DE9F04F 		push	{r4, r5, r6, r7, r8, r9, r10, fp, lr}
 183              		.cfi_def_cfa_offset 36
 184              		.cfi_offset 4, -36
 185              		.cfi_offset 5, -32
 186              		.cfi_offset 6, -28
 187              		.cfi_offset 7, -24
 188              		.cfi_offset 8, -20
 189              		.cfi_offset 9, -16
 190              		.cfi_offset 10, -12
 191              		.cfi_offset 11, -8
 192              		.cfi_offset 14, -4
 193              		.loc 1 864 0
 194 0004 037E     		ldrb	r3, [r0, #24]	@ zero_extendqisi2
 195 0006 032B     		cmp	r3, #3
 196              		.loc 1 848 0
 197 0008 83B0     		sub	sp, sp, #12
 198              		.cfi_def_cfa_offset 48
 199              		.loc 1 848 0
 200 000a 0446     		mov	r4, r0
 201              		.loc 1 864 0
 202 000c 40F20681 		bls	.L212
 203              	.LVL21:
 204              	.L23:
 205              		.loc 1 866 0
 206 0010 40F20003 		movw	r3, #:lower16:.LANCHOR1
 207 0014 C0F20003 		movt	r3, #:upper16:.LANCHOR1
 208              		.loc 1 870 0
 209 0018 40F20008 		movw	r8, #:lower16:.LANCHOR0
 210              		.loc 1 866 0
 211 001c 1B78     		ldrb	r3, [r3]	@ zero_extendqisi2
 212 001e DD06     		lsls	r5, r3, #27
 213 0020 1FD4     		bmi	.L24
 214 0022 40F20009 		movw	r9, #:lower16:.LANCHOR4
 215 0026 C0F20008 		movt	r8, #:upper16:.LANCHOR0
 216 002a C0F20009 		movt	r9, #:upper16:.LANCHOR4
 217              	.LVL22:
 218              	.L25:
 219              		.loc 1 1120 0
 220 002e B9F80030 		ldrh	r3, [r9]
 221 0032 1BB1     		cbz	r3, .L70
 222              		.loc 1 1120 0 is_stmt 0 discriminator 1
 223 0034 227E     		ldrb	r2, [r4, #24]	@ zero_extendqisi2
 224 0036 062A     		cmp	r2, #6
 225 0038 40F2B780 		bls	.L213
 226              	.L70:
 227              		.loc 1 1527 0 is_stmt 1
 228 003c D8F80020 		ldr	r2, [r8]
ARM GAS  /tmp/ccnlRhI2.s 			page 5


 229 0040 A36A     		ldr	r3, [r4, #40]
 230 0042 D11A     		subs	r1, r2, r3
 231 0044 0029     		cmp	r1, #0
 232 0046 05DB     		blt	.L134
 233              		.loc 1 1527 0 is_stmt 0 discriminator 1
 234 0048 0132     		adds	r2, r2, #1
 235 004a A18D     		ldrh	r1, [r4, #44]
 236 004c D31A     		subs	r3, r2, r3
 237 004e 5B1A     		subs	r3, r3, r1
 238 0050 002B     		cmp	r3, #0
 239 0052 03DD     		ble	.L22
 240              	.L134:
 241              		.loc 1 1528 0 is_stmt 1
 242 0054 A37F     		ldrb	r3, [r4, #30]	@ zero_extendqisi2
 243 0056 43F00203 		orr	r3, r3, #2
 244 005a A377     		strb	r3, [r4, #30]
 245              	.LVL23:
 246              	.L22:
 247              		.loc 1 1531 0
 248 005c 03B0     		add	sp, sp, #12
 249              		@ sp needed
 250 005e BDE8F08F 		pop	{r4, r5, r6, r7, r8, r9, r10, fp, pc}
 251              	.LVL24:
 252              	.L24:
 253              		.loc 1 870 0
 254 0062 C0F20008 		movt	r8, #:upper16:.LANCHOR0
 255 0066 636D     		ldr	r3, [r4, #84]
 256 0068 D8F80020 		ldr	r2, [r8]
 257              		.loc 1 867 0
 258 006c B4F86050 		ldrh	r5, [r4, #96]
 259 0070 A16D     		ldr	r1, [r4, #88]
 260              	.LVL25:
 261              		.loc 1 870 0
 262 0072 981A     		subs	r0, r3, r2
 263 0074 40F20006 		movw	r6, #:lower16:.LANCHOR3
 264 0078 0028     		cmp	r0, #0
 265 007a C0F20006 		movt	r6, #:upper16:.LANCHOR3
 266 007e C0F2D480 		blt	.L30
 267              		.loc 1 870 0 is_stmt 0 discriminator 1
 268 0082 9342     		cmp	r3, r2
 269              		.loc 1 871 0 is_stmt 1 discriminator 1
 270 0084 3368     		ldr	r3, [r6]
 271              		.loc 1 870 0 discriminator 1
 272 0086 00F0CC80 		beq	.L28
 273              	.L29:
 274              		.loc 1 871 0 discriminator 1
 275 008a 9942     		cmp	r1, r3
 276 008c 00F0AA81 		beq	.L214
 277              	.L31:
 278              		.loc 1 924 0
 279 0090 A06C     		ldr	r0, [r4, #72]
 280 0092 1A1A     		subs	r2, r3, r0
 281 0094 002A     		cmp	r2, #0
 282 0096 40F38881 		ble	.L215
 283              		.loc 1 957 0
 284 009a 216D     		ldr	r1, [r4, #80]
 285              	.LVL26:
ARM GAS  /tmp/ccnlRhI2.s 			page 6


 286 009c 591A     		subs	r1, r3, r1
 287 009e 0029     		cmp	r1, #0
 288 00a0 40F3AB81 		ble	.L216
 289              		.loc 1 1046 0
 290 00a4 0023     		movs	r3, #0
 291 00a6 40F20009 		movw	r9, #:lower16:.LANCHOR4
 292 00aa A4F86430 		strh	r3, [r4, #100]	@ movhi
 293 00ae C0F20009 		movt	r9, #:upper16:.LANCHOR4
 294              	.LVL27:
 295              	.L55:
 296              		.loc 1 1056 0 discriminator 1
 297 00b2 40F20007 		movw	r7, #:lower16:.LANCHOR3
 298 00b6 E36E     		ldr	r3, [r4, #108]
 299 00b8 C0F20007 		movt	r7, #:upper16:.LANCHOR3
 300              	.L39:
 301              		.loc 1 1055 0 discriminator 1
 302 00bc 002B     		cmp	r3, #0
 303 00be 42D0     		beq	.L67
 304              	.L64:
 305              		.loc 1 1056 0 discriminator 2
 306 00c0 DB68     		ldr	r3, [r3, #12]
 307 00c2 3568     		ldr	r5, [r6]
 308 00c4 5868     		ldr	r0, [r3, #4]	@ unaligned
 309 00c6 FFF7FEFF 		bl	lwip_ntohl
 310              	.LVL28:
 311 00ca E26E     		ldr	r2, [r4, #108]
 312 00cc D368     		ldr	r3, [r2, #12]
 313 00ce B2F808A0 		ldrh	r10, [r2, #8]
 314 00d2 8346     		mov	fp, r0
 315 00d4 9889     		ldrh	r0, [r3, #12]	@ unaligned
 316 00d6 FFF7FEFF 		bl	lwip_ntohs
 317              	.LVL29:
 318 00da 10F00300 		ands	r0, r0, #3
 319 00de 18BF     		it	ne
 320 00e0 0120     		movne	r0, #1
 321 00e2 CBEB0505 		rsb	r5, fp, r5
 322 00e6 0AEB0003 		add	r3, r10, r0
 323 00ea EB1A     		subs	r3, r5, r3
 324              		.loc 1 1055 0 discriminator 2
 325 00ec 002B     		cmp	r3, #0
 326 00ee 2ADB     		blt	.L67
 327              		.loc 1 1056 0
 328 00f0 3A68     		ldr	r2, [r7]
 329 00f2 236D     		ldr	r3, [r4, #80]
 330 00f4 D31A     		subs	r3, r2, r3
 331 00f6 002B     		cmp	r3, #0
 332 00f8 25DC     		bgt	.L67
 333              		.loc 1 1062 0
 334 00fa E56E     		ldr	r5, [r4, #108]
 335              	.LVL30:
 336              		.loc 1 1063 0
 337 00fc 2B68     		ldr	r3, [r5]
 338 00fe E366     		str	r3, [r4, #108]
 339              		.loc 1 1065 0
 340 0100 002B     		cmp	r3, #0
 341 0102 00F08180 		beq	.L217
 342              	.L56:
ARM GAS  /tmp/ccnlRhI2.s 			page 7


 343              		.loc 1 1070 0
 344 0106 6868     		ldr	r0, [r5, #4]
 345 0108 B4F868A0 		ldrh	r10, [r4, #104]
 346 010c FFF7FEFF 		bl	pbuf_clen
 347              	.LVL31:
 348 0110 8245     		cmp	r10, r0
 349 0112 76D3     		bcc	.L218
 350              	.L57:
 351              		.loc 1 1072 0
 352 0114 B4F86430 		ldrh	r3, [r4, #100]
 353 0118 002B     		cmp	r3, #0
 354 011a 65D1     		bne	.L219
 355              	.L59:
 356              		.loc 1 1075 0
 357 011c 6868     		ldr	r0, [r5, #4]
 358 011e B4F868A0 		ldrh	r10, [r4, #104]
 359 0122 FFF7FEFF 		bl	pbuf_clen
 360              	.LVL32:
 361 0126 C0EB0A00 		rsb	r0, r0, r10
 362 012a A4F86800 		strh	r0, [r4, #104]	@ movhi
 363              		.loc 1 1076 0
 364 012e 2846     		mov	r0, r5
 365 0130 FFF7FEFF 		bl	tcp_seg_free
 366              	.LVL33:
 367              		.loc 1 1078 0
 368 0134 B4F86830 		ldrh	r3, [r4, #104]
 369 0138 13B1     		cbz	r3, .L204
 370              		.loc 1 1079 0
 371 013a 236F     		ldr	r3, [r4, #112]
 372 013c 002B     		cmp	r3, #0
 373 013e 66D0     		beq	.L220
 374              	.L204:
 375 0140 E36E     		ldr	r3, [r4, #108]
 376              		.loc 1 1055 0 discriminator 1
 377 0142 002B     		cmp	r3, #0
 378 0144 BCD1     		bne	.L64
 379              	.LVL34:
 380              	.L67:
 381              		.loc 1 1091 0
 382 0146 A36B     		ldr	r3, [r4, #56]
 383 0148 002B     		cmp	r3, #0
 384 014a 3FF470AF 		beq	.L25
 385              		.loc 1 1091 0 is_stmt 0 discriminator 1
 386 014e 3168     		ldr	r1, [r6]
 387 0150 E26B     		ldr	r2, [r4, #60]
 388 0152 521A     		subs	r2, r2, r1
 389 0154 002A     		cmp	r2, #0
 390 0156 BFF66AAF 		bge	.L25
 391              	.LVL35:
 392              		.loc 1 1094 0 is_stmt 1
 393 015a 40F20002 		movw	r2, #:lower16:tcp_ticks
 394 015e C0F20002 		movt	r2, #:upper16:tcp_ticks
 395              		.loc 1 1100 0
 396 0162 B4F84010 		ldrh	r1, [r4, #64]
 397              		.loc 1 1094 0
 398 0166 1068     		ldr	r0, [r2]
 399              		.loc 1 1100 0
ARM GAS  /tmp/ccnlRhI2.s 			page 8


 400 0168 41F3CC02 		sbfx	r2, r1, #3, #13
 401              		.loc 1 1094 0
 402 016c C31A     		subs	r3, r0, r3
 403              	.LVL36:
 404              		.loc 1 1100 0
 405 016e 9A1A     		subs	r2, r3, r2
 406 0170 92B2     		uxth	r2, r2
 407 0172 93B2     		uxth	r3, r2
 408              	.LVL37:
 409              		.loc 1 1102 0
 410 0174 1804     		lsls	r0, r3, #16
 411              		.loc 1 1103 0
 412 0176 48BF     		it	mi
 413 0178 5342     		rsbmi	r3, r2, #0
 414              		.loc 1 1101 0
 415 017a 1144     		add	r1, r1, r2
 416              		.loc 1 1105 0
 417 017c B4F84220 		ldrh	r2, [r4, #66]
 418              	.LVL38:
 419 0180 42F38D00 		sbfx	r0, r2, #2, #14
 420 0184 C0EB0202 		rsb	r2, r0, r2
 421              		.loc 1 1103 0
 422 0188 48BF     		it	mi
 423 018a 9BB2     		uxthmi	r3, r3
 424              	.LVL39:
 425              		.loc 1 1101 0
 426 018c 89B2     		uxth	r1, r1
 427              		.loc 1 1106 0
 428 018e 1344     		add	r3, r3, r2
 429 0190 9BB2     		uxth	r3, r3
 430              		.loc 1 1101 0
 431 0192 A4F84010 		strh	r1, [r4, #64]	@ movhi
 432              		.loc 1 1107 0
 433 0196 41F3CC01 		sbfx	r1, r1, #3, #13
 434 019a 1944     		add	r1, r1, r3
 435              		.loc 1 1112 0
 436 019c 0022     		movs	r2, #0
 437              		.loc 1 1107 0
 438 019e A4F84410 		strh	r1, [r4, #68]	@ movhi
 439              		.loc 1 1106 0
 440 01a2 A4F84230 		strh	r3, [r4, #66]	@ movhi
 441              		.loc 1 1112 0
 442 01a6 A263     		str	r2, [r4, #56]
 443 01a8 41E7     		b	.L25
 444              	.L213:
 445              		.loc 1 1151 0
 446 01aa A26A     		ldr	r2, [r4, #40]
 447 01ac D8F80010 		ldr	r1, [r8]
 448 01b0 C1EB020A 		rsb	r10, r1, r2
 449 01b4 BAF1010F 		cmp	r10, #1
 450 01b8 05D4     		bmi	.L71
 451              		.loc 1 1151 0 is_stmt 0 discriminator 1
 452 01ba 501C     		adds	r0, r2, #1
 453 01bc 401A     		subs	r0, r0, r1
 454 01be C31A     		subs	r3, r0, r3
 455 01c0 002B     		cmp	r3, #0
 456 01c2 40F3A381 		ble	.L221
ARM GAS  /tmp/ccnlRhI2.s 			page 9


 457              	.L71:
 458              		.loc 1 1202 0 is_stmt 1
 459 01c6 8B1A     		subs	r3, r1, r2
 460 01c8 002B     		cmp	r3, #0
 461 01ca C0F28880 		blt	.L222
 462              	.L81:
 463              		.loc 1 1214 0 discriminator 1
 464 01ce A38D     		ldrh	r3, [r4, #44]
 465 01d0 C3F10103 		rsb	r3, r3, #1
 466 01d4 0B44     		add	r3, r3, r1
 467 01d6 9B1A     		subs	r3, r3, r2
 468 01d8 002B     		cmp	r3, #0
 469 01da 45DD     		ble	.L223
 470              	.L82:
 471              		.loc 1 1520 0
 472 01dc 2046     		mov	r0, r4
 473              		.loc 1 1531 0
 474 01de 03B0     		add	sp, sp, #12
 475              		@ sp needed
 476 01e0 BDE8F04F 		pop	{r4, r5, r6, r7, r8, r9, r10, fp, lr}
 477              	.LVL40:
 478              		.loc 1 1520 0
 479 01e4 FFF7FEBF 		b	tcp_send_empty_ack
 480              	.LVL41:
 481              	.L219:
 482              		.loc 1 1072 0 discriminator 1
 483 01e8 EB68     		ldr	r3, [r5, #12]
 484 01ea 9889     		ldrh	r0, [r3, #12]	@ unaligned
 485 01ec FFF7FEFF 		bl	lwip_ntohs
 486              	.LVL42:
 487 01f0 C307     		lsls	r3, r0, #31
 488              		.loc 1 1073 0 discriminator 1
 489 01f2 42BF     		ittt	mi
 490 01f4 B4F86430 		ldrhmi	r3, [r4, #100]
 491 01f8 03F1FF33 		addmi	r3, r3, #-1
 492 01fc A4F86430 		strhmi	r3, [r4, #100]	@ movhi
 493 0200 8CE7     		b	.L59
 494              	.L218:
 495              		.loc 1 1070 0 discriminator 1
 496 0202 FFF7FEFF 		bl	port_halt
 497              	.LVL43:
 498 0206 85E7     		b	.L57
 499              	.L217:
 500              		.loc 1 1066 0
 501 0208 A4F86A30 		strh	r3, [r4, #106]	@ movhi
 502 020c 7BE7     		b	.L56
 503              	.L220:
 504              		.loc 1 1079 0 discriminator 1
 505 020e E36E     		ldr	r3, [r4, #108]
 506 0210 002B     		cmp	r3, #0
 507 0212 7FF453AF 		bne	.L39
 508 0216 FFF7FEFF 		bl	port_halt
 509              	.LVL44:
 510 021a 91E7     		b	.L204
 511              	.LVL45:
 512              	.L212:
 513              		.loc 1 864 0 discriminator 1
ARM GAS  /tmp/ccnlRhI2.s 			page 10


 514 021c FFF7FEFF 		bl	port_halt
 515              	.LVL46:
 516 0220 F6E6     		b	.L23
 517              	.LVL47:
 518              	.L28:
 519              		.loc 1 871 0
 520 0222 C81A     		subs	r0, r1, r3
 521 0224 0028     		cmp	r0, #0
 522 0226 BFF630AF 		bge	.L29
 523              	.L30:
 524 022a 40F20000 		movw	r0, #:lower16:.LANCHOR2
 525 022e C0F20000 		movt	r0, #:upper16:.LANCHOR2
 526 0232 3368     		ldr	r3, [r6]
 527 0234 0068     		ldr	r0, [r0]
 528 0236 C089     		ldrh	r0, [r0, #14]	@ unaligned
 529              	.L27:
 530              		.loc 1 876 0
 531 0238 B4F86270 		ldrh	r7, [r4, #98]
 532              		.loc 1 879 0
 533 023c 6265     		str	r2, [r4, #84]
 534              		.loc 1 876 0
 535 023e 8742     		cmp	r7, r0
 536              		.loc 1 873 0
 537 0240 A4F86000 		strh	r0, [r4, #96]	@ movhi
 538              		.loc 1 877 0
 539 0244 38BF     		it	cc
 540 0246 A4F86200 		strhcc	r0, [r4, #98]	@ movhi
 541              		.loc 1 880 0
 542 024a A365     		str	r3, [r4, #88]
 543              		.loc 1 882 0
 544 024c 94F89520 		ldrb	r2, [r4, #149]	@ zero_extendqisi2
 545              		.loc 1 881 0
 546 0250 0028     		cmp	r0, #0
 547 0252 40F0C080 		bne	.L33
 548              		.loc 1 882 0
 549 0256 002A     		cmp	r2, #0
 550 0258 7FF41AAF 		bne	.L31
 551              		.loc 1 885 0
 552 025c 0122     		movs	r2, #1
 553              		.loc 1 884 0
 554 025e 84F89400 		strb	r0, [r4, #148]
 555              		.loc 1 885 0
 556 0262 84F89520 		strb	r2, [r4, #149]
 557 0266 13E7     		b	.L31
 558              	.LVL48:
 559              	.L223:
 560              		.loc 1 1216 0
 561 0268 9142     		cmp	r1, r2
 562 026a 00F0B481 		beq	.L224
 563              		.loc 1 1369 0
 564 026e 2046     		mov	r0, r4
 565 0270 FFF7FEFF 		bl	tcp_send_empty_ack
 566              	.LVL49:
 567              		.loc 1 1372 0
 568 0274 656F     		ldr	r5, [r4, #116]
 569 0276 002D     		cmp	r5, #0
 570 0278 00F09683 		beq	.L225
ARM GAS  /tmp/ccnlRhI2.s 			page 11


 571 027c D8F80000 		ldr	r0, [r8]
 572 0280 0026     		movs	r6, #0
 573              		.loc 1 1431 0
 574 0282 00F1FF3C 		add	ip, r0, #-1
 575 0286 471C     		adds	r7, r0, #1
 576 0288 0DE0     		b	.L131
 577              	.LVL50:
 578              	.L127:
 579 028a F268     		ldr	r2, [r6, #12]
 580 028c 5268     		ldr	r2, [r2, #4]	@ unaligned
 581 028e C2EB0C02 		rsb	r2, r2, ip
 582 0292 002A     		cmp	r2, #0
 583 0294 03DB     		blt	.L128
 584              		.loc 1 1431 0 is_stmt 0 discriminator 1
 585 0296 BAF1000F 		cmp	r10, #0
 586 029a 40F3D582 		ble	.L226
 587              	.L128:
 588              		.loc 1 1453 0 is_stmt 1
 589 029e 2A68     		ldr	r2, [r5]
 590 02a0 12B3     		cbz	r2, .L130
 591 02a2 2E46     		mov	r6, r5
 592              	.LVL51:
 593 02a4 1546     		mov	r5, r2
 594              	.LVL52:
 595              	.L131:
 596              		.loc 1 1389 0
 597 02a6 E968     		ldr	r1, [r5, #12]
 598 02a8 4B68     		ldr	r3, [r1, #4]	@ unaligned
 599 02aa 8342     		cmp	r3, r0
 600              		.loc 1 1431 0
 601 02ac C3EB070A 		rsb	r10, r3, r7
 602              		.loc 1 1389 0
 603 02b0 00F0A982 		beq	.L227
 604              		.loc 1 1415 0
 605 02b4 002E     		cmp	r6, #0
 606 02b6 E8D1     		bne	.L127
 607              		.loc 1 1416 0
 608 02b8 C21A     		subs	r2, r0, r3
 609 02ba 002A     		cmp	r2, #0
 610 02bc EFDA     		bge	.L128
 611              		.loc 1 1421 0
 612 02be 40F20000 		movw	r0, #:lower16:.LANCHOR5
 613 02c2 C0F20000 		movt	r0, #:upper16:.LANCHOR5
 614 02c6 FFF7FEFF 		bl	tcp_seg_copy
 615              	.LVL53:
 616              		.loc 1 1422 0
 617 02ca 0028     		cmp	r0, #0
 618 02cc 3FF4C6AE 		beq	.L22
 619              		.loc 1 1423 0
 620 02d0 6067     		str	r0, [r4, #116]
 621              	.LVL54:
 622              	.L207:
 623              		.loc 1 1424 0
 624 02d2 2946     		mov	r1, r5
 625              		.loc 1 1531 0
 626 02d4 03B0     		add	sp, sp, #12
 627              		@ sp needed
ARM GAS  /tmp/ccnlRhI2.s 			page 12


 628 02d6 BDE8F04F 		pop	{r4, r5, r6, r7, r8, r9, r10, fp, lr}
 629              	.LVL55:
 630              		.loc 1 1424 0
 631 02da FFF7FEBF 		b	tcp_oos_insert_segment
 632              	.LVL56:
 633              	.L222:
 634              		.loc 1 1207 0
 635 02de A37F     		ldrb	r3, [r4, #30]	@ zero_extendqisi2
 636 02e0 43F00203 		orr	r3, r3, #2
 637 02e4 A377     		strb	r3, [r4, #30]
 638 02e6 79E7     		b	.L82
 639              	.LVL57:
 640              	.L130:
 641              		.loc 1 1454 0 discriminator 1
 642 02e8 C31A     		subs	r3, r0, r3
 643              		.loc 1 1453 0 discriminator 1
 644 02ea 002B     		cmp	r3, #0
 645 02ec 7FF7B6AE 		ble	.L22
 646              		.loc 1 1455 0
 647 02f0 8889     		ldrh	r0, [r1, #12]	@ unaligned
 648 02f2 FFF7FEFF 		bl	lwip_ntohs
 649              	.LVL58:
 650 02f6 C007     		lsls	r0, r0, #31
 651 02f8 3FF5B0AE 		bmi	.L22
 652              		.loc 1 1459 0
 653 02fc 40F20000 		movw	r0, #:lower16:.LANCHOR5
 654 0300 C0F20000 		movt	r0, #:upper16:.LANCHOR5
 655 0304 FFF7FEFF 		bl	tcp_seg_copy
 656              	.LVL59:
 657 0308 2860     		str	r0, [r5]
 658              		.loc 1 1460 0
 659 030a 0028     		cmp	r0, #0
 660 030c 3FF4A6AE 		beq	.L22
 661              		.loc 1 1461 0
 662 0310 EA68     		ldr	r2, [r5, #12]
 663 0312 D8F80030 		ldr	r3, [r8]
 664 0316 2989     		ldrh	r1, [r5, #8]
 665 0318 5268     		ldr	r2, [r2, #4]	@ unaligned
 666 031a C91A     		subs	r1, r1, r3
 667 031c 1144     		add	r1, r1, r2
 668 031e 40F20006 		movw	r6, #:lower16:.LANCHOR0
 669              	.LVL60:
 670 0322 0029     		cmp	r1, #0
 671 0324 C0F20006 		movt	r6, #:upper16:.LANCHOR0
 672 0328 06DD     		ble	.L132
 673              		.loc 1 1463 0
 674 032a 9B1A     		subs	r3, r3, r2
 675 032c 99B2     		uxth	r1, r3
 676 032e 2981     		strh	r1, [r5, #8]	@ movhi
 677              		.loc 1 1464 0
 678 0330 6868     		ldr	r0, [r5, #4]
 679 0332 FFF7FEFF 		bl	pbuf_realloc
 680              	.LVL61:
 681 0336 3368     		ldr	r3, [r6]
 682              	.L132:
 683              		.loc 1 1467 0
 684 0338 B9F80000 		ldrh	r0, [r9]
ARM GAS  /tmp/ccnlRhI2.s 			page 13


 685 033c A18D     		ldrh	r1, [r4, #44]
 686 033e A26A     		ldr	r2, [r4, #40]
 687 0340 0344     		add	r3, r3, r0
 688 0342 0A44     		add	r2, r2, r1
 689 0344 9342     		cmp	r3, r2
 690 0346 7FF689AE 		bls	.L22
 691              		.loc 1 1472 0
 692 034a 2B68     		ldr	r3, [r5]
 693 034c DB68     		ldr	r3, [r3, #12]
 694 034e 9889     		ldrh	r0, [r3, #12]	@ unaligned
 695 0350 FFF7FEFF 		bl	lwip_ntohs
 696              	.LVL62:
 697 0354 C107     		lsls	r1, r0, #31
 698 0356 00F14C83 		bmi	.L228
 699              	.L133:
 700              		.loc 1 1478 0
 701 035a A08D     		ldrh	r0, [r4, #44]
 702 035c A16A     		ldr	r1, [r4, #40]
 703 035e D8F80020 		ldr	r2, [r8]
 704 0362 2B68     		ldr	r3, [r5]
 705 0364 0144     		add	r1, r1, r0
 706 0366 8A1A     		subs	r2, r1, r2
 707 0368 91B2     		uxth	r1, r2
 708 036a 1981     		strh	r1, [r3, #8]	@ movhi
 709              		.loc 1 1479 0
 710 036c 5868     		ldr	r0, [r3, #4]
 711 036e FFF7FEFF 		bl	pbuf_realloc
 712              	.LVL63:
 713              		.loc 1 1480 0
 714 0372 2B68     		ldr	r3, [r5]
 715 0374 DA68     		ldr	r2, [r3, #12]
 716 0376 1D89     		ldrh	r5, [r3, #8]
 717              	.LVL64:
 718 0378 9089     		ldrh	r0, [r2, #12]	@ unaligned
 719 037a FFF7FEFF 		bl	lwip_ntohs
 720              	.LVL65:
 721 037e 10F00300 		ands	r0, r0, #3
 722 0382 18BF     		it	ne
 723 0384 0120     		movne	r0, #1
 724 0386 2B18     		adds	r3, r5, r0
 725              		.loc 1 1481 0
 726 0388 D8F80010 		ldr	r1, [r8]
 727 038c A68D     		ldrh	r6, [r4, #44]
 728 038e A26A     		ldr	r2, [r4, #40]
 729              		.loc 1 1480 0
 730 0390 9BB2     		uxth	r3, r3
 731              		.loc 1 1481 0
 732 0392 1944     		add	r1, r1, r3
 733 0394 3244     		add	r2, r2, r6
 734 0396 9142     		cmp	r1, r2
 735              		.loc 1 1480 0
 736 0398 A9F80030 		strh	r3, [r9]	@ movhi
 737              		.loc 1 1481 0
 738 039c 3FF45EAE 		beq	.L22
 739              		.loc 1 1531 0 discriminator 1
 740 03a0 03B0     		add	sp, sp, #12
 741              		@ sp needed
ARM GAS  /tmp/ccnlRhI2.s 			page 14


 742 03a2 BDE8F04F 		pop	{r4, r5, r6, r7, r8, r9, r10, fp, lr}
 743              	.LVL66:
 744              		.loc 1 1481 0 discriminator 1
 745 03a6 FFF7FEBF 		b	port_halt
 746              	.LVL67:
 747              	.L215:
 748              		.loc 1 927 0
 749 03aa 40F20009 		movw	r9, #:lower16:.LANCHOR4
 750 03ae C0F20009 		movt	r9, #:upper16:.LANCHOR4
 751              		.loc 1 925 0
 752 03b2 0027     		movs	r7, #0
 753              		.loc 1 927 0
 754 03b4 B9F80020 		ldrh	r2, [r9]
 755              		.loc 1 925 0
 756 03b8 A4F86470 		strh	r7, [r4, #100]	@ movhi
 757              		.loc 1 927 0
 758 03bc 3AB9     		cbnz	r2, .L35
 759              		.loc 1 929 0
 760 03be B4F86070 		ldrh	r7, [r4, #96]
 761 03c2 A26D     		ldr	r2, [r4, #88]
 762              		.loc 1 867 0
 763 03c4 2944     		add	r1, r1, r5
 764              	.LVL68:
 765              		.loc 1 929 0
 766 03c6 3A44     		add	r2, r2, r7
 767 03c8 8A42     		cmp	r2, r1
 768 03ca 00F0E080 		beq	.L229
 769              	.L35:
 770              		.loc 1 955 0
 771 03ce 0023     		movs	r3, #0
 772 03d0 84F84730 		strb	r3, [r4, #71]
 773 03d4 6DE6     		b	.L55
 774              	.LVL69:
 775              	.L33:
 776              		.loc 1 887 0
 777 03d6 002A     		cmp	r2, #0
 778 03d8 3FF45AAE 		beq	.L31
 779              		.loc 1 889 0
 780 03dc 0022     		movs	r2, #0
 781 03de 84F89520 		strb	r2, [r4, #149]
 782 03e2 55E6     		b	.L31
 783              	.L214:
 784              		.loc 1 872 0
 785 03e4 40F20003 		movw	r3, #:lower16:.LANCHOR2
 786 03e8 C0F20003 		movt	r3, #:upper16:.LANCHOR2
 787 03ec 1B68     		ldr	r3, [r3]
 788 03ee D889     		ldrh	r0, [r3, #14]	@ unaligned
 789 03f0 8542     		cmp	r5, r0
 790 03f2 0B46     		mov	r3, r1
 791 03f4 BFF44CAE 		bcs	.L31
 792 03f8 1EE7     		b	.L27
 793              	.LVL70:
 794              	.L216:
 795              		.loc 1 963 0
 796 03fa A17F     		ldrb	r1, [r4, #30]	@ zero_extendqisi2
 797              		.loc 1 977 0
 798 03fc B4F86650 		ldrh	r5, [r4, #102]
ARM GAS  /tmp/ccnlRhI2.s 			page 15


 799              		.loc 1 972 0
 800 0400 B4F94070 		ldrsh	r7, [r4, #64]
 801              		.loc 1 981 0
 802 0404 A364     		str	r3, [r4, #72]
 803              		.loc 1 963 0
 804 0406 4807     		lsls	r0, r1, #29
 805              		.loc 1 965 0
 806 0408 41BF     		itttt	mi
 807 040a B4F84E00 		ldrhmi	r0, [r4, #78]
 808              		.loc 1 964 0
 809 040e 21F00401 		bicmi	r1, r1, #4
 810 0412 A177     		strbmi	r1, [r4, #30]
 811              		.loc 1 965 0
 812 0414 A4F84C00 		strhmi	r0, [r4, #76]	@ movhi
 813              		.loc 1 985 0
 814 0418 217E     		ldrb	r1, [r4, #24]	@ zero_extendqisi2
 815              		.loc 1 972 0
 816 041a B4F84200 		ldrh	r0, [r4, #66]
 817              		.loc 1 975 0
 818 041e 92B2     		uxth	r2, r2
 819              		.loc 1 969 0
 820 0420 0023     		movs	r3, #0
 821              		.loc 1 977 0
 822 0422 1544     		add	r5, r5, r2
 823              		.loc 1 972 0
 824 0424 00EBE700 		add	r0, r0, r7, asr #3
 825              		.loc 1 985 0
 826 0428 0329     		cmp	r1, #3
 827              		.loc 1 975 0
 828 042a A4F86420 		strh	r2, [r4, #100]	@ movhi
 829              		.loc 1 977 0
 830 042e A4F86650 		strh	r5, [r4, #102]	@ movhi
 831              		.loc 1 972 0
 832 0432 A4F84400 		strh	r0, [r4, #68]	@ movhi
 833              		.loc 1 969 0
 834 0436 84F84630 		strb	r3, [r4, #70]
 835              		.loc 1 980 0
 836 043a 84F84730 		strb	r3, [r4, #71]
 837              		.loc 1 985 0
 838 043e 0FD9     		bls	.L203
 839              		.loc 1 986 0
 840 0440 B4F84C30 		ldrh	r3, [r4, #76]
 841 0444 B4F84E20 		ldrh	r2, [r4, #78]
 842 0448 9A42     		cmp	r2, r3
 843              		.loc 1 987 0
 844 044a E28E     		ldrh	r2, [r4, #54]
 845              	.LBB2:
 846              		.loc 1 992 0
 847 044c 9CBF     		itt	ls
 848 044e 5243     		mulls	r2, r2, r2
 849 0450 92FBF3F2 		sdivls	r2, r2, r3
 850 0454 1A44     		add	r2, r2, r3
 851 0456 92B2     		uxth	r2, r2
 852              	.LVL71:
 853              		.loc 1 993 0
 854 0458 9342     		cmp	r3, r2
 855              		.loc 1 994 0
ARM GAS  /tmp/ccnlRhI2.s 			page 16


 856 045a 38BF     		it	cc
 857 045c A4F84C20 		strhcc	r2, [r4, #76]	@ movhi
 858              	.LVL72:
 859              	.L203:
 860 0460 236F     		ldr	r3, [r4, #112]
 861              	.L44:
 862              	.LBE2:
 863              		.loc 1 1008 0 discriminator 1
 864 0462 002B     		cmp	r3, #0
 865 0464 38D0     		beq	.L54
 866              		.loc 1 1009 0 discriminator 2
 867 0466 DB68     		ldr	r3, [r3, #12]
 868 0468 5868     		ldr	r0, [r3, #4]	@ unaligned
 869 046a FFF7FEFF 		bl	lwip_ntohl
 870              	.LVL73:
 871 046e 236F     		ldr	r3, [r4, #112]
 872 0470 DA68     		ldr	r2, [r3, #12]
 873 0472 1F89     		ldrh	r7, [r3, #8]
 874 0474 0546     		mov	r5, r0
 875 0476 9089     		ldrh	r0, [r2, #12]	@ unaligned
 876 0478 FFF7FEFF 		bl	lwip_ntohs
 877              	.LVL74:
 878 047c 3268     		ldr	r2, [r6]
 879 047e 10F00300 		ands	r0, r0, #3
 880 0482 18BF     		it	ne
 881 0484 0120     		movne	r0, #1
 882 0486 3B18     		adds	r3, r7, r0
 883 0488 AA1A     		subs	r2, r5, r2
 884 048a 1344     		add	r3, r3, r2
 885              		.loc 1 1008 0 discriminator 2
 886 048c 002B     		cmp	r3, #0
 887 048e 00F39C80 		bgt	.L230
 888              		.loc 1 1016 0
 889 0492 256F     		ldr	r5, [r4, #112]
 890              	.LVL75:
 891              		.loc 1 1020 0
 892 0494 B4F86870 		ldrh	r7, [r4, #104]
 893              		.loc 1 1017 0
 894 0498 2B68     		ldr	r3, [r5]
 895              		.loc 1 1020 0
 896 049a 6868     		ldr	r0, [r5, #4]
 897              		.loc 1 1017 0
 898 049c 2367     		str	r3, [r4, #112]
 899              		.loc 1 1020 0
 900 049e FFF7FEFF 		bl	pbuf_clen
 901              	.LVL76:
 902 04a2 8742     		cmp	r7, r0
 903 04a4 2FD3     		bcc	.L231
 904              	.L45:
 905              		.loc 1 1022 0
 906 04a6 B4F86430 		ldrh	r3, [r4, #100]
 907 04aa FBB9     		cbnz	r3, .L232
 908              	.L47:
 909              		.loc 1 1026 0
 910 04ac 6868     		ldr	r0, [r5, #4]
 911 04ae B4F86870 		ldrh	r7, [r4, #104]
 912 04b2 FFF7FEFF 		bl	pbuf_clen
ARM GAS  /tmp/ccnlRhI2.s 			page 17


 913              	.LVL77:
 914 04b6 381A     		subs	r0, r7, r0
 915 04b8 A4F86800 		strh	r0, [r4, #104]	@ movhi
 916              		.loc 1 1027 0
 917 04bc 2846     		mov	r0, r5
 918 04be FFF7FEFF 		bl	tcp_seg_free
 919              	.LVL78:
 920              		.loc 1 1030 0
 921 04c2 B4F86830 		ldrh	r3, [r4, #104]
 922 04c6 002B     		cmp	r3, #0
 923 04c8 CAD0     		beq	.L203
 924              		.loc 1 1031 0
 925 04ca 236F     		ldr	r3, [r4, #112]
 926 04cc 002B     		cmp	r3, #0
 927 04ce C8D1     		bne	.L44
 928              		.loc 1 1031 0 is_stmt 0 discriminator 1
 929 04d0 E36E     		ldr	r3, [r4, #108]
 930 04d2 002B     		cmp	r3, #0
 931 04d4 00F02182 		beq	.L233
 932              	.LVL79:
 933              	.L54:
 934              		.loc 1 1039 0 is_stmt 1
 935 04d8 4FF6FF73 		movw	r3, #65535
 936 04dc A386     		strh	r3, [r4, #52]	@ movhi
 937              	.L52:
 938              		.loc 1 1043 0
 939 04de 0023     		movs	r3, #0
 940 04e0 40F20009 		movw	r9, #:lower16:.LANCHOR4
 941 04e4 E377     		strb	r3, [r4, #31]
 942 04e6 C0F20009 		movt	r9, #:upper16:.LANCHOR4
 943 04ea E2E5     		b	.L55
 944              	.LVL80:
 945              	.L232:
 946              		.loc 1 1022 0 discriminator 1
 947 04ec EB68     		ldr	r3, [r5, #12]
 948 04ee 9889     		ldrh	r0, [r3, #12]	@ unaligned
 949 04f0 FFF7FEFF 		bl	lwip_ntohs
 950              	.LVL81:
 951 04f4 C207     		lsls	r2, r0, #31
 952              		.loc 1 1023 0 discriminator 1
 953 04f6 42BF     		ittt	mi
 954 04f8 B4F86430 		ldrhmi	r3, [r4, #100]
 955 04fc 03F1FF33 		addmi	r3, r3, #-1
 956 0500 A4F86430 		strhmi	r3, [r4, #100]	@ movhi
 957 0504 D2E7     		b	.L47
 958              	.L231:
 959              		.loc 1 1020 0 discriminator 1
 960 0506 FFF7FEFF 		bl	port_halt
 961              	.LVL82:
 962 050a CCE7     		b	.L45
 963              	.LVL83:
 964              	.L221:
 965              		.loc 1 1173 0
 966 050c 40F20007 		movw	r7, #:lower16:.LANCHOR5
 967 0510 C0F20007 		movt	r7, #:upper16:.LANCHOR5
 968              		.loc 1 1172 0
 969 0514 5646     		mov	r6, r10
ARM GAS  /tmp/ccnlRhI2.s 			page 18


 970              	.LVL84:
 971              		.loc 1 1173 0
 972 0516 7D68     		ldr	r5, [r7, #4]
 973              	.LVL85:
 974              		.loc 1 1174 0
 975 0518 002D     		cmp	r5, #0
 976 051a 00F00182 		beq	.L234
 977              	.L72:
 978              		.loc 1 1175 0
 979 051e 47F6FE73 		movw	r3, #32766
 980 0522 9A45     		cmp	r10, r3
 981 0524 00F38D81 		bgt	.L235
 982              	.L73:
 983              		.loc 1 1176 0
 984 0528 7868     		ldr	r0, [r7, #4]
 985 052a 4389     		ldrh	r3, [r0, #10]
 986 052c 40F2000B 		movw	fp, #:lower16:.LANCHOR5
 987 0530 9A45     		cmp	r10, r3
 988 0532 C0F2000B 		movt	fp, #:upper16:.LANCHOR5
 989 0536 40F37981 		ble	.L74
 990              		.loc 1 1177 0
 991 053a 0389     		ldrh	r3, [r0, #8]
 992 053c 9A45     		cmp	r10, r3
 993 053e D8BF     		it	le
 994 0540 1A46     		movle	r2, r3
 995 0542 00F3A281 		bgt	.L236
 996              	.L75:
 997              		.loc 1 1179 0
 998 0546 6B89     		ldrh	r3, [r5, #10]
 999              		.loc 1 1178 0
 1000 0548 CAEB0202 		rsb	r2, r10, r2
 1001              		.loc 1 1179 0
 1002 054c 9A45     		cmp	r10, r3
 1003              		.loc 1 1178 0
 1004 054e 92B2     		uxth	r2, r2
 1005              	.LVL86:
 1006              		.loc 1 1179 0
 1007 0550 07DD     		ble	.L76
 1008              		.loc 1 1185 0
 1009 0552 0021     		movs	r1, #0
 1010              	.L77:
 1011 0554 6981     		strh	r1, [r5, #10]	@ movhi
 1012              		.loc 1 1184 0
 1013 0556 2A81     		strh	r2, [r5, #8]	@ movhi
 1014              		.loc 1 1186 0
 1015 0558 2D68     		ldr	r5, [r5]
 1016              	.LVL87:
 1017              		.loc 1 1180 0
 1018 055a F61A     		subs	r6, r6, r3
 1019              	.LVL88:
 1020              		.loc 1 1179 0
 1021 055c 6B89     		ldrh	r3, [r5, #10]
 1022 055e B342     		cmp	r3, r6
 1023 0560 F8DB     		blt	.L77
 1024              	.L76:
 1025              		.loc 1 1188 0
 1026 0562 7142     		negs	r1, r6
ARM GAS  /tmp/ccnlRhI2.s 			page 19


 1027 0564 09B2     		sxth	r1, r1
 1028 0566 2846     		mov	r0, r5
 1029 0568 FFF7FEFF 		bl	pbuf_header
 1030              	.LVL89:
 1031 056c 0028     		cmp	r0, #0
 1032 056e 40F06581 		bne	.L78
 1033              	.L79:
 1034              		.loc 1 1198 0
 1035 0572 3A89     		ldrh	r2, [r7, #8]
 1036 0574 D8F80010 		ldr	r1, [r8]
 1037 0578 A36A     		ldr	r3, [r4, #40]
 1038              		.loc 1 1199 0
 1039 057a F868     		ldr	r0, [r7, #12]
 1040 057c C8F80030 		str	r3, [r8]
 1041              		.loc 1 1198 0
 1042 0580 1144     		add	r1, r1, r2
 1043 0582 C91A     		subs	r1, r1, r3
 1044 0584 3981     		strh	r1, [r7, #8]	@ movhi
 1045 0586 1A46     		mov	r2, r3
 1046 0588 1946     		mov	r1, r3
 1047              		.loc 1 1199 0
 1048 058a 4360     		str	r3, [r0, #4]	@ unaligned
 1049 058c 1FE6     		b	.L81
 1050              	.LVL90:
 1051              	.L229:
 1052              		.loc 1 931 0
 1053 058e B4F93420 		ldrsh	r2, [r4, #52]
 1054 0592 002A     		cmp	r2, #0
 1055 0594 FFF61BAF 		blt	.L35
 1056              		.loc 1 933 0
 1057 0598 9842     		cmp	r0, r3
 1058 059a 7FF418AF 		bne	.L35
 1059              	.LVL91:
 1060              		.loc 1 935 0
 1061 059e 94F84730 		ldrb	r3, [r4, #71]	@ zero_extendqisi2
 1062 05a2 5A1C     		adds	r2, r3, #1
 1063 05a4 D2B2     		uxtb	r2, r2
 1064 05a6 9342     		cmp	r3, r2
 1065              		.loc 1 936 0
 1066 05a8 3CBF     		itt	cc
 1067 05aa 1346     		movcc	r3, r2
 1068 05ac 84F84720 		strbcc	r2, [r4, #71]
 1069              		.loc 1 938 0
 1070 05b0 032B     		cmp	r3, #3
 1071 05b2 40F20282 		bls	.L37
 1072              		.loc 1 941 0
 1073 05b6 B4F84C20 		ldrh	r2, [r4, #76]
 1074 05ba E38E     		ldrh	r3, [r4, #54]
 1075 05bc 1344     		add	r3, r3, r2
 1076 05be 9BB2     		uxth	r3, r3
 1077 05c0 9A42     		cmp	r2, r3
 1078              		.loc 1 942 0
 1079 05c2 38BF     		it	cc
 1080 05c4 A4F84C30 		strhcc	r3, [r4, #76]	@ movhi
 1081 05c8 73E5     		b	.L55
 1082              	.LVL92:
 1083              	.L230:
ARM GAS  /tmp/ccnlRhI2.s 			page 20


 1084              		.loc 1 1038 0
 1085 05ca 236F     		ldr	r3, [r4, #112]
 1086 05cc 002B     		cmp	r3, #0
 1087 05ce 83D0     		beq	.L54
 1088              		.loc 1 1041 0
 1089 05d0 0023     		movs	r3, #0
 1090 05d2 A386     		strh	r3, [r4, #52]	@ movhi
 1091 05d4 83E7     		b	.L52
 1092              	.LVL93:
 1093              	.L224:
 1094              		.loc 1 1220 0
 1095 05d6 40F20007 		movw	r7, #:lower16:.LANCHOR5
 1096 05da C0F20007 		movt	r7, #:upper16:.LANCHOR5
 1097 05de FB68     		ldr	r3, [r7, #12]
 1098 05e0 3D89     		ldrh	r5, [r7, #8]
 1099 05e2 9889     		ldrh	r0, [r3, #12]	@ unaligned
 1100 05e4 FFF7FEFF 		bl	lwip_ntohs
 1101              	.LVL94:
 1102 05e8 10F00300 		ands	r0, r0, #3
 1103 05ec 18BF     		it	ne
 1104 05ee 0120     		movne	r0, #1
 1105 05f0 2B18     		adds	r3, r5, r0
 1106              		.loc 1 1222 0
 1107 05f2 A28D     		ldrh	r2, [r4, #44]
 1108              		.loc 1 1220 0
 1109 05f4 9BB2     		uxth	r3, r3
 1110              		.loc 1 1222 0
 1111 05f6 9A42     		cmp	r2, r3
 1112              		.loc 1 1220 0
 1113 05f8 A9F80030 		strh	r3, [r9]	@ movhi
 1114              		.loc 1 1222 0
 1115 05fc C0F05181 		bcc	.L237
 1116              	.L85:
 1117              		.loc 1 1246 0
 1118 0600 636F     		ldr	r3, [r4, #116]
 1119 0602 002B     		cmp	r3, #0
 1120 0604 5BD0     		beq	.L206
 1121              		.loc 1 1247 0
 1122 0606 FB68     		ldr	r3, [r7, #12]
 1123 0608 9889     		ldrh	r0, [r3, #12]	@ unaligned
 1124 060a FFF7FEFF 		bl	lwip_ntohs
 1125              	.LVL95:
 1126 060e C507     		lsls	r5, r0, #31
 1127 0610 52D4     		bmi	.L211
 1128              		.loc 1 1259 0
 1129 0612 666F     		ldr	r6, [r4, #116]
 1130              	.LVL96:
 1131              		.loc 1 1262 0
 1132 0614 002E     		cmp	r6, #0
 1133 0616 00F07881 		beq	.L96
 1134              		.loc 1 1263 0
 1135 061a F368     		ldr	r3, [r6, #12]
 1136 061c B9F80020 		ldrh	r2, [r9]
 1137 0620 5968     		ldr	r1, [r3, #4]	@ unaligned
 1138 0622 D8F80000 		ldr	r0, [r8]
 1139 0626 3589     		ldrh	r5, [r6, #8]
 1140 0628 511A     		subs	r1, r2, r1
ARM GAS  /tmp/ccnlRhI2.s 			page 21


 1141 062a 0144     		add	r1, r1, r0
 1142 062c 4D1B     		subs	r5, r1, r5
 1143              		.loc 1 1262 0
 1144 062e 002D     		cmp	r5, #0
 1145 0630 C0F2DA81 		blt	.L140
 1146              		.loc 1 1267 0
 1147 0634 40F2000A 		movw	r10, #:lower16:.LANCHOR5
 1148 0638 C0F2000A 		movt	r10, #:upper16:.LANCHOR5
 1149 063c 14E0     		b	.L101
 1150              	.L99:
 1151              	.LVL97:
 1152              		.loc 1 1272 0
 1153 063e 3568     		ldr	r5, [r6]
 1154              	.LVL98:
 1155              		.loc 1 1273 0
 1156 0640 3046     		mov	r0, r6
 1157 0642 FFF7FEFF 		bl	tcp_seg_free
 1158              	.LVL99:
 1159              		.loc 1 1262 0
 1160 0646 002D     		cmp	r5, #0
 1161 0648 00F05F81 		beq	.L96
 1162              		.loc 1 1263 0 discriminator 2
 1163 064c EB68     		ldr	r3, [r5, #12]
 1164 064e B9F80020 		ldrh	r2, [r9]
 1165 0652 5968     		ldr	r1, [r3, #4]	@ unaligned
 1166 0654 D8F80000 		ldr	r0, [r8]
 1167 0658 2E89     		ldrh	r6, [r5, #8]
 1168              	.LVL100:
 1169 065a 511A     		subs	r1, r2, r1
 1170 065c 0144     		add	r1, r1, r0
 1171 065e 8E1B     		subs	r6, r1, r6
 1172              		.loc 1 1262 0 discriminator 2
 1173 0660 002E     		cmp	r6, #0
 1174 0662 C0F26081 		blt	.L141
 1175              		.loc 1 1262 0 is_stmt 0
 1176 0666 2E46     		mov	r6, r5
 1177              	.LVL101:
 1178              	.L101:
 1179              		.loc 1 1266 0 is_stmt 1
 1180 0668 9889     		ldrh	r0, [r3, #12]	@ unaligned
 1181 066a FFF7FEFF 		bl	lwip_ntohs
 1182              	.LVL102:
 1183 066e C007     		lsls	r0, r0, #31
 1184 0670 E5D5     		bpl	.L99
 1185              		.loc 1 1267 0 discriminator 1
 1186 0672 FB68     		ldr	r3, [r7, #12]
 1187 0674 9889     		ldrh	r0, [r3, #12]	@ unaligned
 1188 0676 FFF7FEFF 		bl	lwip_ntohs
 1189              	.LVL103:
 1190              		.loc 1 1266 0 discriminator 1
 1191 067a 8107     		lsls	r1, r0, #30
 1192 067c DFD4     		bmi	.L99
 1193              		.loc 1 1268 0
 1194 067e DAF80C50 		ldr	r5, [r10, #12]
 1195 0682 AB89     		ldrh	r3, [r5, #12]	@ unaligned
 1196 0684 0120     		movs	r0, #1
 1197 0686 0193     		str	r3, [sp, #4]
ARM GAS  /tmp/ccnlRhI2.s 			page 22


 1198 0688 FFF7FEFF 		bl	lwip_htons
 1199              	.LVL104:
 1200 068c 019B     		ldr	r3, [sp, #4]
 1201              		.loc 1 1269 0
 1202 068e DAF80C20 		ldr	r2, [r10, #12]
 1203 0692 BAF808B0 		ldrh	fp, [r10, #8]
 1204              		.loc 1 1268 0
 1205 0696 1843     		orrs	r0, r0, r3
 1206 0698 A881     		strh	r0, [r5, #12]	@ unaligned
 1207              		.loc 1 1269 0
 1208 069a 9089     		ldrh	r0, [r2, #12]	@ unaligned
 1209 069c FFF7FEFF 		bl	lwip_ntohs
 1210              	.LVL105:
 1211 06a0 10F00300 		ands	r0, r0, #3
 1212 06a4 18BF     		it	ne
 1213 06a6 0120     		movne	r0, #1
 1214 06a8 5844     		add	r0, r0, fp
 1215 06aa A9F80000 		strh	r0, [r9]	@ movhi
 1216 06ae C6E7     		b	.L99
 1217              	.LVL106:
 1218              	.L95:
 1219              	.LBB3:
 1220              		.loc 1 1255 0
 1221 06b0 0368     		ldr	r3, [r0]
 1222 06b2 6367     		str	r3, [r4, #116]
 1223              		.loc 1 1256 0
 1224 06b4 FFF7FEFF 		bl	tcp_seg_free
 1225              	.LVL107:
 1226              	.L211:
 1227              	.LBE3:
 1228              		.loc 1 1253 0
 1229 06b8 606F     		ldr	r0, [r4, #116]
 1230 06ba 0028     		cmp	r0, #0
 1231 06bc F8D1     		bne	.L95
 1232              	.L206:
 1233 06be B9F80030 		ldrh	r3, [r9]
 1234 06c2 D8F80020 		ldr	r2, [r8]
 1235 06c6 1A44     		add	r2, r2, r3
 1236              	.L91:
 1237              		.loc 1 1298 0
 1238 06c8 A18D     		ldrh	r1, [r4, #44]
 1239              		.loc 1 1295 0
 1240 06ca A262     		str	r2, [r4, #40]
 1241              		.loc 1 1298 0
 1242 06cc 9942     		cmp	r1, r3
 1243 06ce C0F0E280 		bcc	.L238
 1244              	.L105:
 1245              		.loc 1 1299 0
 1246 06d2 CB1A     		subs	r3, r1, r3
 1247 06d4 A385     		strh	r3, [r4, #44]	@ movhi
 1248              		.loc 1 1301 0
 1249 06d6 2046     		mov	r0, r4
 1250 06d8 FFF7FEFF 		bl	tcp_update_rcv_ann_wnd
 1251              	.LVL108:
 1252              		.loc 1 1312 0
 1253 06dc 7A68     		ldr	r2, [r7, #4]
 1254 06de 1189     		ldrh	r1, [r2, #8]
ARM GAS  /tmp/ccnlRhI2.s 			page 23


 1255 06e0 40F20003 		movw	r3, #:lower16:.LANCHOR5
 1256 06e4 C0F20003 		movt	r3, #:upper16:.LANCHOR5
 1257 06e8 31B1     		cbz	r1, .L106
 1258              		.loc 1 1313 0
 1259 06ea 40F20001 		movw	r1, #:lower16:.LANCHOR6
 1260 06ee C0F20001 		movt	r1, #:upper16:.LANCHOR6
 1261              		.loc 1 1317 0
 1262 06f2 0020     		movs	r0, #0
 1263              		.loc 1 1313 0
 1264 06f4 0A60     		str	r2, [r1]
 1265              		.loc 1 1317 0
 1266 06f6 5860     		str	r0, [r3, #4]
 1267              	.L106:
 1268              		.loc 1 1319 0
 1269 06f8 FB68     		ldr	r3, [r7, #12]
 1270 06fa 9889     		ldrh	r0, [r3, #12]	@ unaligned
 1271 06fc FFF7FEFF 		bl	lwip_ntohs
 1272              	.LVL109:
 1273 0700 C307     		lsls	r3, r0, #31
 1274              		.loc 1 1321 0
 1275 0702 44BF     		itt	mi
 1276 0704 40F20003 		movwmi	r3, #:lower16:.LANCHOR7
 1277 0708 C0F20003 		movtmi	r3, #:upper16:.LANCHOR7
 1278              		.loc 1 1327 0
 1279 070c 656F     		ldr	r5, [r4, #116]
 1280              		.loc 1 1321 0
 1281 070e 42BF     		ittt	mi
 1282 0710 1A78     		ldrbmi	r2, [r3]	@ zero_extendqisi2
 1283 0712 42F02002 		orrmi	r2, r2, #32
 1284 0716 1A70     		strbmi	r2, [r3]
 1285              		.loc 1 1327 0
 1286 0718 002D     		cmp	r5, #0
 1287 071a 6BD0     		beq	.L111
 1288              		.loc 1 1328 0
 1289 071c EA68     		ldr	r2, [r5, #12]
 1290              		.loc 1 1327 0
 1291 071e A36A     		ldr	r3, [r4, #40]
 1292              		.loc 1 1328 0
 1293 0720 5668     		ldr	r6, [r2, #4]	@ unaligned
 1294              		.loc 1 1327 0
 1295 0722 9E42     		cmp	r6, r3
 1296 0724 66D1     		bne	.L111
 1297              		.loc 1 1343 0
 1298 0726 40F20009 		movw	r9, #:lower16:.LANCHOR6
 1299              		.loc 1 1352 0
 1300 072a 40F20007 		movw	r7, #:lower16:.LANCHOR7
 1301              		.loc 1 1343 0
 1302 072e C0F20009 		movt	r9, #:upper16:.LANCHOR6
 1303              		.loc 1 1352 0
 1304 0732 C0F20007 		movt	r7, #:upper16:.LANCHOR7
 1305 0736 38E0     		b	.L119
 1306              	.LVL110:
 1307              	.L112:
 1308              		.loc 1 1336 0
 1309 0738 EB68     		ldr	r3, [r5, #12]
 1310 073a B4F82CB0 		ldrh	fp, [r4, #44]
 1311 073e 9889     		ldrh	r0, [r3, #12]	@ unaligned
ARM GAS  /tmp/ccnlRhI2.s 			page 24


 1312 0740 2E89     		ldrh	r6, [r5, #8]
 1313 0742 FFF7FEFF 		bl	lwip_ntohs
 1314              	.LVL111:
 1315 0746 10F00300 		ands	r0, r0, #3
 1316 074a 18BF     		it	ne
 1317 074c 0120     		movne	r0, #1
 1318 074e C6EB0B02 		rsb	r2, r6, fp
 1319 0752 101A     		subs	r0, r2, r0
 1320 0754 A085     		strh	r0, [r4, #44]	@ movhi
 1321              		.loc 1 1338 0
 1322 0756 2046     		mov	r0, r4
 1323 0758 FFF7FEFF 		bl	tcp_update_rcv_ann_wnd
 1324              	.LVL112:
 1325              		.loc 1 1340 0
 1326 075c 6968     		ldr	r1, [r5, #4]
 1327 075e 0B89     		ldrh	r3, [r1, #8]
 1328 0760 3BB1     		cbz	r3, .L113
 1329              		.loc 1 1343 0
 1330 0762 D9F80000 		ldr	r0, [r9]
 1331 0766 0028     		cmp	r0, #0
 1332 0768 41D0     		beq	.L114
 1333              		.loc 1 1344 0
 1334 076a FFF7FEFF 		bl	pbuf_cat
 1335              	.LVL113:
 1336              	.L115:
 1337              		.loc 1 1348 0
 1338 076e 0023     		movs	r3, #0
 1339 0770 6B60     		str	r3, [r5, #4]
 1340              	.L113:
 1341              		.loc 1 1350 0
 1342 0772 EB68     		ldr	r3, [r5, #12]
 1343 0774 9889     		ldrh	r0, [r3, #12]	@ unaligned
 1344 0776 FFF7FEFF 		bl	lwip_ntohs
 1345              	.LVL114:
 1346 077a C607     		lsls	r6, r0, #31
 1347 077c 09D5     		bpl	.L117
 1348              		.loc 1 1353 0
 1349 077e 237E     		ldrb	r3, [r4, #24]	@ zero_extendqisi2
 1350              		.loc 1 1352 0
 1351 0780 3A78     		ldrb	r2, [r7]	@ zero_extendqisi2
 1352              		.loc 1 1353 0
 1353 0782 042B     		cmp	r3, #4
 1354              		.loc 1 1352 0
 1355 0784 42F02002 		orr	r2, r2, #32
 1356              		.loc 1 1354 0
 1357 0788 08BF     		it	eq
 1358 078a 0723     		moveq	r3, #7
 1359              		.loc 1 1352 0
 1360 078c 3A70     		strb	r2, [r7]
 1361              		.loc 1 1354 0
 1362 078e 08BF     		it	eq
 1363 0790 2376     		strbeq	r3, [r4, #24]
 1364              	.L117:
 1365              		.loc 1 1358 0
 1366 0792 2B68     		ldr	r3, [r5]
 1367              		.loc 1 1359 0
 1368 0794 2846     		mov	r0, r5
ARM GAS  /tmp/ccnlRhI2.s 			page 25


 1369              		.loc 1 1358 0
 1370 0796 6367     		str	r3, [r4, #116]
 1371              		.loc 1 1359 0
 1372 0798 FFF7FEFF 		bl	tcp_seg_free
 1373              	.LVL115:
 1374              		.loc 1 1327 0
 1375 079c 656F     		ldr	r5, [r4, #116]
 1376              	.LVL116:
 1377 079e 4DB3     		cbz	r5, .L111
 1378              		.loc 1 1328 0 discriminator 2
 1379 07a0 EA68     		ldr	r2, [r5, #12]
 1380              		.loc 1 1327 0 discriminator 2
 1381 07a2 A36A     		ldr	r3, [r4, #40]
 1382              		.loc 1 1328 0 discriminator 2
 1383 07a4 5668     		ldr	r6, [r2, #4]	@ unaligned
 1384              		.loc 1 1327 0 discriminator 2
 1385 07a6 9E42     		cmp	r6, r3
 1386 07a8 24D1     		bne	.L111
 1387              	.L119:
 1388              	.LVL117:
 1389              		.loc 1 1333 0
 1390 07aa 9089     		ldrh	r0, [r2, #12]	@ unaligned
 1391 07ac B5F808A0 		ldrh	r10, [r5, #8]
 1392              		.loc 1 1331 0
 1393 07b0 C8F80060 		str	r6, [r8]
 1394              		.loc 1 1333 0
 1395 07b4 FFF7FEFF 		bl	lwip_ntohs
 1396              	.LVL118:
 1397 07b8 10F00300 		ands	r0, r0, #3
 1398 07bc 18BF     		it	ne
 1399 07be 0120     		movne	r0, #1
 1400 07c0 0AEB0001 		add	r1, r10, r0
 1401              		.loc 1 1334 0
 1402 07c4 EB68     		ldr	r3, [r5, #12]
 1403 07c6 B5F808A0 		ldrh	r10, [r5, #8]
 1404 07ca 9889     		ldrh	r0, [r3, #12]	@ unaligned
 1405 07cc B4F82CB0 		ldrh	fp, [r4, #44]
 1406              		.loc 1 1333 0
 1407 07d0 0E44     		add	r6, r6, r1
 1408 07d2 A662     		str	r6, [r4, #40]
 1409              		.loc 1 1334 0
 1410 07d4 FFF7FEFF 		bl	lwip_ntohs
 1411              	.LVL119:
 1412 07d8 10F00300 		ands	r0, r0, #3
 1413 07dc 18BF     		it	ne
 1414 07de 0120     		movne	r0, #1
 1415 07e0 0AEB0003 		add	r3, r10, r0
 1416 07e4 9B45     		cmp	fp, r3
 1417 07e6 A7DA     		bge	.L112
 1418              		.loc 1 1334 0 is_stmt 0 discriminator 1
 1419 07e8 FFF7FEFF 		bl	port_halt
 1420              	.LVL120:
 1421 07ec A4E7     		b	.L112
 1422              	.L114:
 1423              		.loc 1 1346 0 is_stmt 1
 1424 07ee C9F80010 		str	r1, [r9]
 1425 07f2 BCE7     		b	.L115
ARM GAS  /tmp/ccnlRhI2.s 			page 26


 1426              	.LVL121:
 1427              	.L111:
 1428              		.loc 1 1365 0
 1429 07f4 A37F     		ldrb	r3, [r4, #30]	@ zero_extendqisi2
 1430 07f6 DF07     		lsls	r7, r3, #31
 1431 07f8 42D5     		bpl	.L239
 1432              		.loc 1 1365 0 is_stmt 0 discriminator 1
 1433 07fa 23F00103 		bic	r3, r3, #1
 1434 07fe 43F00203 		orr	r3, r3, #2
 1435 0802 A377     		strb	r3, [r4, #30]
 1436 0804 2AE4     		b	.L22
 1437              	.LVL122:
 1438              	.L227:
 1439              		.loc 1 1394 0 is_stmt 1
 1440 0806 40F20000 		movw	r0, #:lower16:.LANCHOR5
 1441 080a C0F20000 		movt	r0, #:upper16:.LANCHOR5
 1442 080e 2B89     		ldrh	r3, [r5, #8]
 1443 0810 0289     		ldrh	r2, [r0, #8]
 1444 0812 9A42     		cmp	r2, r3
 1445 0814 7FF622AC 		bls	.L22
 1446              		.loc 1 1398 0
 1447 0818 FFF7FEFF 		bl	tcp_seg_copy
 1448              	.LVL123:
 1449              		.loc 1 1399 0
 1450 081c 0028     		cmp	r0, #0
 1451 081e 3FF41DAC 		beq	.L22
 1452              		.loc 1 1400 0
 1453 0822 002E     		cmp	r6, #0
 1454 0824 00F0DE80 		beq	.L125
 1455              		.loc 1 1401 0
 1456 0828 3060     		str	r0, [r6]
 1457 082a 52E5     		b	.L207
 1458              	.LVL124:
 1459              	.L74:
 1460              		.loc 1 1193 0
 1461 082c CAF10001 		rsb	r1, r10, #0
 1462 0830 09B2     		sxth	r1, r1
 1463 0832 FFF7FEFF 		bl	pbuf_header
 1464              	.LVL125:
 1465 0836 0028     		cmp	r0, #0
 1466 0838 3FF49BAE 		beq	.L79
 1467              	.L78:
 1468              		.loc 1 1190 0 discriminator 1
 1469 083c FFF7FEFF 		bl	port_halt
 1470              	.LVL126:
 1471 0840 97E6     		b	.L79
 1472              	.L235:
 1473              		.loc 1 1175 0 discriminator 1
 1474 0842 FFF7FEFF 		bl	port_halt
 1475              	.LVL127:
 1476 0846 6FE6     		b	.L73
 1477              	.LVL128:
 1478              	.L226:
 1479              		.loc 1 1437 0
 1480 0848 40F20000 		movw	r0, #:lower16:.LANCHOR5
 1481 084c C0F20000 		movt	r0, #:upper16:.LANCHOR5
 1482 0850 FFF7FEFF 		bl	tcp_seg_copy
ARM GAS  /tmp/ccnlRhI2.s 			page 27


 1483              	.LVL129:
 1484              		.loc 1 1438 0
 1485 0854 0446     		mov	r4, r0
 1486              	.LVL130:
 1487 0856 0028     		cmp	r0, #0
 1488 0858 3FF400AC 		beq	.L22
 1489              		.loc 1 1439 0
 1490 085c F368     		ldr	r3, [r6, #12]
 1491 085e D8F80020 		ldr	r2, [r8]
 1492 0862 3189     		ldrh	r1, [r6, #8]
 1493 0864 5B68     		ldr	r3, [r3, #4]	@ unaligned
 1494 0866 891A     		subs	r1, r1, r2
 1495 0868 1944     		add	r1, r1, r3
 1496 086a 0029     		cmp	r1, #0
 1497 086c 05DD     		ble	.L129
 1498              		.loc 1 1441 0
 1499 086e D31A     		subs	r3, r2, r3
 1500 0870 99B2     		uxth	r1, r3
 1501 0872 3181     		strh	r1, [r6, #8]	@ movhi
 1502              		.loc 1 1442 0
 1503 0874 7068     		ldr	r0, [r6, #4]
 1504              	.LVL131:
 1505 0876 FFF7FEFF 		bl	pbuf_realloc
 1506              	.LVL132:
 1507              	.L129:
 1508              		.loc 1 1444 0
 1509 087a 3460     		str	r4, [r6]
 1510              		.loc 1 1445 0
 1511 087c 2046     		mov	r0, r4
 1512 087e 28E5     		b	.L207
 1513              	.LVL133:
 1514              	.L239:
 1515              		.loc 1 1365 0 discriminator 2
 1516 0880 43F00103 		orr	r3, r3, #1
 1517 0884 A377     		strb	r3, [r4, #30]
 1518 0886 FFF7E9BB 		b	.L22
 1519              	.LVL134:
 1520              	.L236:
 1521              		.loc 1 1177 0 discriminator 1
 1522 088a FFF7FEFF 		bl	port_halt
 1523              	.LVL135:
 1524 088e DBF80430 		ldr	r3, [fp, #4]
 1525 0892 1A89     		ldrh	r2, [r3, #8]
 1526 0894 57E6     		b	.L75
 1527              	.LVL136:
 1528              	.L238:
 1529              		.loc 1 1298 0 discriminator 1
 1530 0896 FFF7FEFF 		bl	port_halt
 1531              	.LVL137:
 1532 089a B9F80030 		ldrh	r3, [r9]
 1533 089e A18D     		ldrh	r1, [r4, #44]
 1534 08a0 17E7     		b	.L105
 1535              	.L237:
 1536              		.loc 1 1227 0
 1537 08a2 FB68     		ldr	r3, [r7, #12]
 1538 08a4 9889     		ldrh	r0, [r3, #12]	@ unaligned
 1539 08a6 FFF7FEFF 		bl	lwip_ntohs
ARM GAS  /tmp/ccnlRhI2.s 			page 28


 1540              	.LVL138:
 1541 08aa C307     		lsls	r3, r0, #31
 1542 08ac 00F18C80 		bmi	.L240
 1543              	.L86:
 1544              		.loc 1 1234 0
 1545 08b0 FB68     		ldr	r3, [r7, #12]
 1546              		.loc 1 1233 0
 1547 08b2 A28D     		ldrh	r2, [r4, #44]
 1548              		.loc 1 1234 0
 1549 08b4 9889     		ldrh	r0, [r3, #12]	@ unaligned
 1550              		.loc 1 1233 0
 1551 08b6 3A81     		strh	r2, [r7, #8]	@ movhi
 1552 08b8 40F20005 		movw	r5, #:lower16:.LANCHOR5
 1553              		.loc 1 1234 0
 1554 08bc FFF7FEFF 		bl	lwip_ntohs
 1555              	.LVL139:
 1556              		.loc 1 1233 0
 1557 08c0 C0F20005 		movt	r5, #:upper16:.LANCHOR5
 1558              		.loc 1 1234 0
 1559 08c4 8607     		lsls	r6, r0, #30
 1560              		.loc 1 1235 0
 1561 08c6 2989     		ldrh	r1, [r5, #8]
 1562              		.loc 1 1237 0
 1563 08c8 7868     		ldr	r0, [r7, #4]
 1564              		.loc 1 1235 0
 1565 08ca 42BF     		ittt	mi
 1566 08cc 01F1FF31 		addmi	r1, r1, #-1
 1567 08d0 89B2     		uxthmi	r1, r1
 1568 08d2 2981     		strhmi	r1, [r5, #8]	@ movhi
 1569              		.loc 1 1237 0
 1570 08d4 FFF7FEFF 		bl	pbuf_realloc
 1571              	.LVL140:
 1572              		.loc 1 1238 0
 1573 08d8 FB68     		ldr	r3, [r7, #12]
 1574 08da 3D89     		ldrh	r5, [r7, #8]
 1575 08dc 9889     		ldrh	r0, [r3, #12]	@ unaligned
 1576 08de FFF7FEFF 		bl	lwip_ntohs
 1577              	.LVL141:
 1578 08e2 10F00300 		ands	r0, r0, #3
 1579 08e6 18BF     		it	ne
 1580 08e8 0120     		movne	r0, #1
 1581 08ea 2B18     		adds	r3, r5, r0
 1582              		.loc 1 1239 0
 1583 08ec D8F80010 		ldr	r1, [r8]
 1584 08f0 A68D     		ldrh	r6, [r4, #44]
 1585 08f2 A26A     		ldr	r2, [r4, #40]
 1586              		.loc 1 1238 0
 1587 08f4 9BB2     		uxth	r3, r3
 1588              		.loc 1 1239 0
 1589 08f6 1944     		add	r1, r1, r3
 1590 08f8 3244     		add	r2, r2, r6
 1591 08fa 9142     		cmp	r1, r2
 1592              		.loc 1 1238 0
 1593 08fc A9F80030 		strh	r3, [r9]	@ movhi
 1594              		.loc 1 1239 0
 1595 0900 3FF47EAE 		beq	.L85
 1596              		.loc 1 1239 0 is_stmt 0 discriminator 1
ARM GAS  /tmp/ccnlRhI2.s 			page 29


 1597 0904 FFF7FEFF 		bl	port_halt
 1598              	.LVL142:
 1599 0908 7AE6     		b	.L85
 1600              	.L96:
 1601 090a B9F80030 		ldrh	r3, [r9]
 1602 090e D8F80020 		ldr	r2, [r8]
 1603              		.loc 1 1283 0 is_stmt 1
 1604 0912 0025     		movs	r5, #0
 1605 0914 1A44     		add	r2, r2, r3
 1606              	.L104:
 1607              		.loc 1 1290 0
 1608 0916 6567     		str	r5, [r4, #116]
 1609 0918 D6E6     		b	.L91
 1610              	.LVL143:
 1611              	.L233:
 1612              		.loc 1 1031 0 discriminator 1
 1613 091a FFF7FEFF 		bl	port_halt
 1614              	.LVL144:
 1615 091e 9FE5     		b	.L203
 1616              	.LVL145:
 1617              	.L234:
 1618              		.loc 1 1174 0 discriminator 1
 1619 0920 FFF7FEFF 		bl	port_halt
 1620              	.LVL146:
 1621 0924 FBE5     		b	.L72
 1622              	.LVL147:
 1623              	.L141:
 1624              		.loc 1 1263 0
 1625 0926 D3F804E0 		ldr	lr, [r3, #4]	@ unaligned
 1626 092a 1346     		mov	r3, r2
 1627              	.L97:
 1628              		.loc 1 1277 0
 1629 092c 0029     		cmp	r1, #0
 1630 092e D8BF     		it	le
 1631 0930 1218     		addle	r2, r2, r0
 1632 0932 F0DD     		ble	.L104
 1633              		.loc 1 1282 0
 1634 0934 FB68     		ldr	r3, [r7, #12]
 1635              		.loc 1 1281 0
 1636 0936 C0EB0E0E 		rsb	lr, r0, lr
 1637 093a 40F20006 		movw	r6, #:lower16:.LANCHOR5
 1638              		.loc 1 1282 0
 1639 093e 9889     		ldrh	r0, [r3, #12]	@ unaligned
 1640              		.loc 1 1281 0
 1641 0940 A7F808E0 		strh	lr, [r7, #8]	@ movhi
 1642 0944 C0F20006 		movt	r6, #:upper16:.LANCHOR5
 1643              		.loc 1 1282 0
 1644 0948 FFF7FEFF 		bl	lwip_ntohs
 1645              	.LVL148:
 1646              		.loc 1 1283 0
 1647 094c 3189     		ldrh	r1, [r6, #8]
 1648              		.loc 1 1282 0
 1649 094e 8207     		lsls	r2, r0, #30
 1650              		.loc 1 1283 0
 1651 0950 44BF     		itt	mi
 1652 0952 01F1FF31 		addmi	r1, r1, #-1
 1653 0956 89B2     		uxthmi	r1, r1
ARM GAS  /tmp/ccnlRhI2.s 			page 30


 1654              		.loc 1 1285 0
 1655 0958 7868     		ldr	r0, [r7, #4]
 1656              		.loc 1 1283 0
 1657 095a 48BF     		it	mi
 1658 095c 3181     		strhmi	r1, [r6, #8]	@ movhi
 1659              		.loc 1 1285 0
 1660 095e FFF7FEFF 		bl	pbuf_realloc
 1661              	.LVL149:
 1662              		.loc 1 1286 0
 1663 0962 FB68     		ldr	r3, [r7, #12]
 1664 0964 3E89     		ldrh	r6, [r7, #8]
 1665 0966 9889     		ldrh	r0, [r3, #12]	@ unaligned
 1666 0968 FFF7FEFF 		bl	lwip_ntohs
 1667              	.LVL150:
 1668              		.loc 1 1287 0
 1669 096c EB68     		ldr	r3, [r5, #12]
 1670 096e D8F80020 		ldr	r2, [r8]
 1671 0972 5968     		ldr	r1, [r3, #4]	@ unaligned
 1672              		.loc 1 1286 0
 1673 0974 10F00300 		ands	r0, r0, #3
 1674 0978 18BF     		it	ne
 1675 097a 0120     		movne	r0, #1
 1676 097c 3318     		adds	r3, r6, r0
 1677 097e 9BB2     		uxth	r3, r3
 1678              		.loc 1 1287 0
 1679 0980 1A44     		add	r2, r2, r3
 1680              		.loc 1 1286 0
 1681 0982 40F2000A 		movw	r10, #:lower16:.LANCHOR4
 1682              		.loc 1 1287 0
 1683 0986 40F20006 		movw	r6, #:lower16:.LANCHOR0
 1684 098a 8A42     		cmp	r2, r1
 1685              		.loc 1 1286 0
 1686 098c A9F80030 		strh	r3, [r9]	@ movhi
 1687 0990 C0F2000A 		movt	r10, #:upper16:.LANCHOR4
 1688              		.loc 1 1287 0
 1689 0994 C0F20006 		movt	r6, #:upper16:.LANCHOR0
 1690 0998 BDD0     		beq	.L104
 1691              		.loc 1 1287 0 is_stmt 0 discriminator 1
 1692 099a FFF7FEFF 		bl	port_halt
 1693              	.LVL151:
 1694 099e BAF80030 		ldrh	r3, [r10]
 1695 09a2 3268     		ldr	r2, [r6]
 1696 09a4 1A44     		add	r2, r2, r3
 1697 09a6 B6E7     		b	.L104
 1698              	.LVL152:
 1699              	.L225:
 1700              		.loc 1 1373 0 is_stmt 1
 1701 09a8 40F20000 		movw	r0, #:lower16:.LANCHOR5
 1702 09ac C0F20000 		movt	r0, #:upper16:.LANCHOR5
 1703 09b0 FFF7FEFF 		bl	tcp_seg_copy
 1704              	.LVL153:
 1705 09b4 6067     		str	r0, [r4, #116]
 1706 09b6 FFF751BB 		b	.L22
 1707              	.LVL154:
 1708              	.L37:
 1709              		.loc 1 944 0
 1710 09ba 7FF47AAB 		bne	.L55
ARM GAS  /tmp/ccnlRhI2.s 			page 31


 1711              		.loc 1 946 0
 1712 09be 2046     		mov	r0, r4
 1713 09c0 FFF7FEFF 		bl	tcp_rexmit_fast
 1714              	.LVL155:
 1715 09c4 FFF775BB 		b	.L55
 1716              	.LVL156:
 1717              	.L240:
 1718              		.loc 1 1230 0
 1719 09c8 FD68     		ldr	r5, [r7, #12]
 1720 09ca AE89     		ldrh	r6, [r5, #12]	@ unaligned
 1721 09cc 3046     		mov	r0, r6
 1722 09ce FFF7FEFF 		bl	lwip_ntohs
 1723              	.LVL157:
 1724 09d2 00F03E00 		and	r0, r0, #62
 1725 09d6 FFF7FEFF 		bl	lwip_htons
 1726              	.LVL158:
 1727 09da 26F47C56 		bic	r6, r6, #16128
 1728 09de 3043     		orrs	r0, r0, r6
 1729 09e0 A881     		strh	r0, [r5, #12]	@ unaligned
 1730 09e2 65E7     		b	.L86
 1731              	.LVL159:
 1732              	.L125:
 1733              		.loc 1 1403 0
 1734 09e4 6067     		str	r0, [r4, #116]
 1735 09e6 74E4     		b	.L207
 1736              	.LVL160:
 1737              	.L140:
 1738              		.loc 1 1262 0
 1739 09e8 D3F804E0 		ldr	lr, [r3, #4]	@ unaligned
 1740 09ec 3546     		mov	r5, r6
 1741 09ee 1346     		mov	r3, r2
 1742 09f0 9CE7     		b	.L97
 1743              	.LVL161:
 1744              	.L228:
 1745              		.loc 1 1475 0
 1746 09f2 2B68     		ldr	r3, [r5]
 1747 09f4 DE68     		ldr	r6, [r3, #12]
 1748 09f6 B789     		ldrh	r7, [r6, #12]	@ unaligned
 1749 09f8 3846     		mov	r0, r7
 1750 09fa FFF7FEFF 		bl	lwip_ntohs
 1751              	.LVL162:
 1752 09fe 00F03E00 		and	r0, r0, #62
 1753 0a02 FFF7FEFF 		bl	lwip_htons
 1754              	.LVL163:
 1755 0a06 27F47C57 		bic	r7, r7, #16128
 1756 0a0a 3843     		orrs	r0, r0, r7
 1757 0a0c B081     		strh	r0, [r6, #12]	@ unaligned
 1758 0a0e A4E4     		b	.L133
 1759              		.cfi_endproc
 1760              	.LFE12:
 1761              		.size	tcp_receive, .-tcp_receive
 1762              		.section	.text.tcp_parseopt.isra.0,"ax",%progbits
 1763              		.align	2
 1764              		.p2align 4,,15
 1765              		.thumb
 1766              		.thumb_func
 1767              		.type	tcp_parseopt.isra.0, %function
ARM GAS  /tmp/ccnlRhI2.s 			page 32


 1768              	tcp_parseopt.isra.0:
 1769              	.LFB14:
 1770              		.loc 1 1542 0
 1771              		.cfi_startproc
 1772              		@ args = 0, pretend = 0, frame = 0
 1773              		@ frame_needed = 0, uses_anonymous_args = 0
 1774              	.LVL164:
 1775 0000 70B5     		push	{r4, r5, r6, lr}
 1776              		.cfi_def_cfa_offset 16
 1777              		.cfi_offset 4, -16
 1778              		.cfi_offset 5, -12
 1779              		.cfi_offset 6, -8
 1780              		.cfi_offset 14, -4
 1781              		.loc 1 1551 0
 1782 0002 40F20004 		movw	r4, #:lower16:.LANCHOR2
 1783 0006 C0F20004 		movt	r4, #:upper16:.LANCHOR2
 1784              		.loc 1 1542 0
 1785 000a 0646     		mov	r6, r0
 1786              		.loc 1 1551 0
 1787 000c 2568     		ldr	r5, [r4]
 1788              	.LVL165:
 1789              		.loc 1 1554 0
 1790 000e A889     		ldrh	r0, [r5, #12]	@ unaligned
 1791 0010 FFF7FEFF 		bl	lwip_ntohs
 1792              	.LVL166:
 1793 0014 C0F30F30 		ubfx	r0, r0, #12, #16
 1794 0018 0528     		cmp	r0, #5
 1795 001a 00D8     		bhi	.L260
 1796              	.L241:
 1797 001c 70BD     		pop	{r4, r5, r6, pc}
 1798              	.LVL167:
 1799              	.L260:
 1800              		.loc 1 1555 0
 1801 001e 2368     		ldr	r3, [r4]
 1802 0020 9889     		ldrh	r0, [r3, #12]	@ unaligned
 1803 0022 FFF7FEFF 		bl	lwip_ntohs
 1804              	.LVL168:
 1805 0026 000B     		lsrs	r0, r0, #12
 1806 0028 441F     		subs	r4, r0, #5
 1807 002a A400     		lsls	r4, r4, #2
 1808 002c A4B2     		uxth	r4, r4
 1809              	.LVL169:
 1810              		.loc 1 1556 0
 1811 002e 002C     		cmp	r4, #0
 1812 0030 F4D0     		beq	.L241
 1813              		.loc 1 1551 0
 1814 0032 05F11401 		add	r1, r5, #20
 1815              		.loc 1 1556 0
 1816 0036 0023     		movs	r3, #0
 1817              	.LVL170:
 1818              		.loc 1 1558 0
 1819 0038 CA5C     		ldrb	r2, [r1, r3]	@ zero_extendqisi2
 1820 003a 012A     		cmp	r2, #1
 1821 003c 1CD0     		beq	.L246
 1822              	.LVL171:
 1823              	.L262:
 1824 003e EDD3     		bcc	.L241
ARM GAS  /tmp/ccnlRhI2.s 			page 33


 1825 0040 022A     		cmp	r2, #2
 1826 0042 1CD1     		bne	.L261
 1827              		.loc 1 1570 0
 1828 0044 CA18     		adds	r2, r1, r3
 1829 0046 5078     		ldrb	r0, [r2, #1]	@ zero_extendqisi2
 1830 0048 0428     		cmp	r0, #4
 1831 004a E7D1     		bne	.L241
 1832 004c D81C     		adds	r0, r3, #3
 1833 004e A042     		cmp	r0, r4
 1834 0050 E4DA     		bge	.L241
 1835              		.loc 1 1576 0
 1836 0052 9078     		ldrb	r0, [r2, #2]	@ zero_extendqisi2
 1837 0054 D278     		ldrb	r2, [r2, #3]	@ zero_extendqisi2
 1838 0056 42EA0022 		orr	r2, r2, r0, lsl #8
 1839              	.LVL172:
 1840              		.loc 1 1578 0
 1841 005a 501E     		subs	r0, r2, #1
 1842 005c 80B2     		uxth	r0, r0
 1843              		.loc 1 1580 0
 1844 005e 0433     		adds	r3, r3, #4
 1845              		.loc 1 1578 0
 1846 0060 B0F5067F 		cmp	r0, #536
 1847 0064 28BF     		it	cs
 1848 0066 4FF40672 		movcs	r2, #536
 1849              	.LVL173:
 1850              		.loc 1 1580 0
 1851 006a 9BB2     		uxth	r3, r3
 1852              	.LVL174:
 1853              		.loc 1 1578 0
 1854 006c 3280     		strh	r2, [r6]	@ movhi
 1855              	.LVL175:
 1856              	.L248:
 1857              		.loc 1 1556 0
 1858 006e 9C42     		cmp	r4, r3
 1859 0070 D4D9     		bls	.L241
 1860              	.LVL176:
 1861              		.loc 1 1558 0
 1862 0072 CA5C     		ldrb	r2, [r1, r3]	@ zero_extendqisi2
 1863 0074 012A     		cmp	r2, #1
 1864 0076 E2D1     		bne	.L262
 1865              	.LVL177:
 1866              	.L246:
 1867              		.loc 1 1565 0
 1868 0078 0133     		adds	r3, r3, #1
 1869 007a 9BB2     		uxth	r3, r3
 1870              	.LVL178:
 1871 007c F7E7     		b	.L248
 1872              	.LVL179:
 1873              	.L261:
 1874              		.loc 1 1605 0
 1875 007e CA18     		adds	r2, r1, r3
 1876 0080 5278     		ldrb	r2, [r2, #1]	@ zero_extendqisi2
 1877 0082 002A     		cmp	r2, #0
 1878 0084 CAD0     		beq	.L241
 1879              		.loc 1 1613 0
 1880 0086 1344     		add	r3, r3, r2
 1881 0088 9BB2     		uxth	r3, r3
ARM GAS  /tmp/ccnlRhI2.s 			page 34


 1882              	.LVL180:
 1883 008a F0E7     		b	.L248
 1884              		.cfi_endproc
 1885              	.LFE14:
 1886              		.size	tcp_parseopt.isra.0, .-tcp_parseopt.isra.0
 1887 008c AFF30080 		.section	.text.tcp_input,"ax",%progbits
 1888              		.align	2
 1889              		.p2align 4,,15
 1890              		.global	tcp_input
 1891              		.thumb
 1892              		.thumb_func
 1893              		.type	tcp_input, %function
 1894              	tcp_input:
 1895              	.LFB7:
 1896              		.loc 1 93 0
 1897              		.cfi_startproc
 1898              		@ args = 0, pretend = 0, frame = 16
 1899              		@ frame_needed = 0, uses_anonymous_args = 0
 1900              	.LVL181:
 1901 0000 2DE9F04F 		push	{r4, r5, r6, r7, r8, r9, r10, fp, lr}
 1902              		.cfi_def_cfa_offset 36
 1903              		.cfi_offset 4, -36
 1904              		.cfi_offset 5, -32
 1905              		.cfi_offset 6, -28
 1906              		.cfi_offset 7, -24
 1907              		.cfi_offset 8, -20
 1908              		.cfi_offset 9, -16
 1909              		.cfi_offset 10, -12
 1910              		.cfi_offset 11, -8
 1911              		.cfi_offset 14, -4
 1912              		.loc 1 105 0
 1913 0004 40F20004 		movw	r4, #:lower16:lwip_stats
 1914 0008 C0F20004 		movt	r4, #:upper16:lwip_stats
 1915              		.loc 1 108 0
 1916 000c 4268     		ldr	r2, [r0, #4]
 1917              		.loc 1 105 0
 1918 000e B4F89230 		ldrh	r3, [r4, #146]
 1919 0012 0133     		adds	r3, r3, #1
 1920 0014 A4F89230 		strh	r3, [r4, #146]	@ movhi
 1921              		.loc 1 109 0
 1922 0018 1778     		ldrb	r7, [r2]	@ zero_extendqisi2
 1923              		.loc 1 108 0
 1924 001a 40F20003 		movw	r3, #:lower16:.LANCHOR8
 1925              		.loc 1 109 0
 1926 001e 07F00F07 		and	r7, r7, #15
 1927 0022 40F20005 		movw	r5, #:lower16:.LANCHOR2
 1928              		.loc 1 116 0
 1929 0026 4FEA870E 		lsl	lr, r7, #2
 1930              		.loc 1 108 0
 1931 002a C0F20003 		movt	r3, #:upper16:.LANCHOR8
 1932              		.loc 1 109 0
 1933 002e C0F20005 		movt	r5, #:upper16:.LANCHOR2
 1934              		.loc 1 93 0
 1935 0032 87B0     		sub	sp, sp, #28
 1936              		.cfi_def_cfa_offset 64
 1937              		.loc 1 93 0
 1938 0034 8846     		mov	r8, r1
ARM GAS  /tmp/ccnlRhI2.s 			page 35


 1939              		.loc 1 109 0
 1940 0036 02EB8707 		add	r7, r2, r7, lsl #2
 1941              		.loc 1 116 0
 1942 003a CEF10001 		rsb	r1, lr, #0
 1943              	.LVL182:
 1944              		.loc 1 93 0
 1945 003e 0646     		mov	r6, r0
 1946              		.loc 1 108 0
 1947 0040 1A60     		str	r2, [r3]
 1948              		.loc 1 109 0
 1949 0042 2F60     		str	r7, [r5]
 1950              		.loc 1 116 0
 1951 0044 FFF7FEFF 		bl	pbuf_header
 1952              	.LVL183:
 1953 0048 10B9     		cbnz	r0, .L493
 1954              		.loc 1 116 0 is_stmt 0 discriminator 1
 1955 004a 3389     		ldrh	r3, [r6, #8]
 1956 004c 132B     		cmp	r3, #19
 1957 004e 0FD8     		bhi	.L265
 1958              	.L493:
 1959              		.loc 1 151 0 is_stmt 1
 1960 0050 B4F89A30 		ldrh	r3, [r4, #154]
 1961 0054 0133     		adds	r3, r3, #1
 1962 0056 A4F89A30 		strh	r3, [r4, #154]	@ movhi
 1963              	.L266:
 1964              		.loc 1 422 0
 1965 005a B4F89630 		ldrh	r3, [r4, #150]
 1966 005e 0133     		adds	r3, r3, #1
 1967              		.loc 1 424 0
 1968 0060 3046     		mov	r0, r6
 1969              		.loc 1 422 0
 1970 0062 A4F89630 		strh	r3, [r4, #150]	@ movhi
 1971              	.LVL184:
 1972              	.L495:
 1973              		.loc 1 425 0
 1974 0066 07B0     		add	sp, sp, #28
 1975              		@ sp needed
 1976 0068 BDE8F04F 		pop	{r4, r5, r6, r7, r8, r9, r10, fp, lr}
 1977              		.loc 1 424 0
 1978 006c FFF7FEBF 		b	pbuf_free
 1979              	.LVL185:
 1980              	.L265:
 1981              		.loc 1 124 0
 1982 0070 40F20007 		movw	r7, #:lower16:current_iphdr_dest
 1983 0074 C0F20007 		movt	r7, #:upper16:current_iphdr_dest
 1984 0078 4146     		mov	r1, r8
 1985 007a 3868     		ldr	r0, [r7]
 1986 007c FFF7FEFF 		bl	ip4_addr_isbroadcast
 1987              	.LVL186:
 1988 0080 B0B9     		cbnz	r0, .L267
 1989              		.loc 1 125 0 discriminator 1
 1990 0082 3B68     		ldr	r3, [r7]
 1991 0084 03F0F003 		and	r3, r3, #240
 1992              		.loc 1 124 0 discriminator 1
 1993 0088 E02B     		cmp	r3, #224
 1994 008a 11D0     		beq	.L267
 1995              		.loc 1 132 0
ARM GAS  /tmp/ccnlRhI2.s 			page 36


 1996 008c 3389     		ldrh	r3, [r6, #8]
 1997 008e 40F20001 		movw	r1, #:lower16:current_iphdr_src
 1998 0092 0093     		str	r3, [sp]
 1999 0094 C0F20001 		movt	r1, #:upper16:current_iphdr_src
 2000 0098 3046     		mov	r0, r6
 2001 009a 3A46     		mov	r2, r7
 2002 009c 0623     		movs	r3, #6
 2003 009e FFF7FEFF 		bl	inet_chksum_pseudo
 2004              	.LVL187:
 2005 00a2 58B1     		cbz	r0, .L269
 2006              		.loc 1 140 0
 2007 00a4 B4F89830 		ldrh	r3, [r4, #152]
 2008 00a8 0133     		adds	r3, r3, #1
 2009 00aa A4F89830 		strh	r3, [r4, #152]	@ movhi
 2010              		.loc 1 141 0
 2011 00ae D4E7     		b	.L266
 2012              	.L267:
 2013              		.loc 1 126 0
 2014 00b0 B4F8A030 		ldrh	r3, [r4, #160]
 2015 00b4 0133     		adds	r3, r3, #1
 2016 00b6 A4F8A030 		strh	r3, [r4, #160]	@ movhi
 2017              		.loc 1 127 0
 2018 00ba CEE7     		b	.L266
 2019              	.L269:
 2020              		.loc 1 147 0
 2021 00bc 2B68     		ldr	r3, [r5]
 2022 00be 9889     		ldrh	r0, [r3, #12]	@ unaligned
 2023 00c0 FFF7FEFF 		bl	lwip_ntohs
 2024              	.LVL188:
 2025 00c4 000B     		lsrs	r0, r0, #12
 2026              	.LVL189:
 2027              		.loc 1 148 0
 2028 00c6 C0EB8030 		rsb	r0, r0, r0, lsl #14
 2029 00ca 8100     		lsls	r1, r0, #2
 2030 00cc 09B2     		sxth	r1, r1
 2031 00ce 3046     		mov	r0, r6
 2032 00d0 FFF7FEFF 		bl	pbuf_header
 2033              	.LVL190:
 2034 00d4 8146     		mov	r9, r0
 2035 00d6 0028     		cmp	r0, #0
 2036 00d8 BAD1     		bne	.L493
 2037              		.loc 1 156 0
 2038 00da D5F80080 		ldr	r8, [r5]
 2039              	.LVL191:
 2040 00de B8F80000 		ldrh	r0, [r8]	@ unaligned
 2041 00e2 FFF7FEFF 		bl	lwip_ntohs
 2042              	.LVL192:
 2043              		.loc 1 157 0
 2044 00e6 D5F800A0 		ldr	r10, [r5]
 2045              		.loc 1 156 0
 2046 00ea A8F80000 		strh	r0, [r8]	@ unaligned
 2047              		.loc 1 157 0
 2048 00ee BAF80200 		ldrh	r0, [r10, #2]	@ unaligned
 2049 00f2 FFF7FEFF 		bl	lwip_ntohs
 2050              	.LVL193:
 2051              		.loc 1 158 0
 2052 00f6 D5F80080 		ldr	r8, [r5]
ARM GAS  /tmp/ccnlRhI2.s 			page 37


 2053              		.loc 1 157 0
 2054 00fa AAF80200 		strh	r0, [r10, #2]	@ unaligned
 2055              		.loc 1 158 0
 2056 00fe D8F80400 		ldr	r0, [r8, #4]	@ unaligned
 2057 0102 FFF7FEFF 		bl	lwip_ntohl
 2058              	.LVL194:
 2059              		.loc 1 159 0
 2060 0106 D5F800B0 		ldr	fp, [r5]
 2061              		.loc 1 158 0
 2062 010a C8F80400 		str	r0, [r8, #4]	@ unaligned
 2063 010e 40F20001 		movw	r1, #:lower16:.LANCHOR0
 2064 0112 C0F20001 		movt	r1, #:upper16:.LANCHOR0
 2065 0116 0346     		mov	r3, r0
 2066              		.loc 1 159 0
 2067 0118 DBF80800 		ldr	r0, [fp, #8]	@ unaligned
 2068              		.loc 1 158 0
 2069 011c 0B60     		str	r3, [r1]
 2070 011e 0391     		str	r1, [sp, #12]
 2071              		.loc 1 159 0
 2072 0120 FFF7FEFF 		bl	lwip_ntohl
 2073              	.LVL195:
 2074 0124 40F2000A 		movw	r10, #:lower16:.LANCHOR3
 2075              		.loc 1 160 0
 2076 0128 D5F80080 		ldr	r8, [r5]
 2077              		.loc 1 159 0
 2078 012c CBF80800 		str	r0, [fp, #8]	@ unaligned
 2079 0130 C0F2000A 		movt	r10, #:upper16:.LANCHOR3
 2080 0134 0346     		mov	r3, r0
 2081              		.loc 1 160 0
 2082 0136 B8F80E00 		ldrh	r0, [r8, #14]	@ unaligned
 2083              		.loc 1 159 0
 2084 013a CAF80030 		str	r3, [r10]
 2085              		.loc 1 160 0
 2086 013e FFF7FEFF 		bl	lwip_ntohs
 2087              	.LVL196:
 2088              		.loc 1 162 0
 2089 0142 2B68     		ldr	r3, [r5]
 2090              		.loc 1 160 0
 2091 0144 A8F80E00 		strh	r0, [r8, #14]	@ unaligned
 2092              		.loc 1 162 0
 2093 0148 9889     		ldrh	r0, [r3, #12]	@ unaligned
 2094 014a FFF7FEFF 		bl	lwip_ntohs
 2095              	.LVL197:
 2096              		.loc 1 170 0
 2097 014e 40F20002 		movw	r2, #:lower16:tcp_active_pcbs
 2098 0152 C0F20002 		movt	r2, #:upper16:tcp_active_pcbs
 2099 0156 0592     		str	r2, [sp, #20]
 2100 0158 0599     		ldr	r1, [sp, #20]
 2101              		.loc 1 163 0
 2102 015a 3289     		ldrh	r2, [r6, #8]
 2103              		.loc 1 170 0
 2104 015c D1F80080 		ldr	r8, [r1]
 2105              		.loc 1 162 0
 2106 0160 C0B2     		uxtb	r0, r0
 2107              		.loc 1 163 0
 2108 0162 40F20001 		movw	r1, #:lower16:.LANCHOR4
 2109 0166 10F00303 		ands	r3, r0, #3
ARM GAS  /tmp/ccnlRhI2.s 			page 38


 2110 016a C0F20001 		movt	r1, #:upper16:.LANCHOR4
 2111 016e 0491     		str	r1, [sp, #16]
 2112 0170 18BF     		it	ne
 2113 0172 0123     		movne	r3, #1
 2114              		.loc 1 162 0
 2115 0174 40F20001 		movw	r1, #:lower16:.LANCHOR1
 2116 0178 C0F20001 		movt	r1, #:upper16:.LANCHOR1
 2117              		.loc 1 163 0
 2118 017c 1344     		add	r3, r3, r2
 2119 017e 049A     		ldr	r2, [sp, #16]
 2120              		.loc 1 162 0
 2121 0180 0291     		str	r1, [sp, #8]
 2122 0182 00F03F00 		and	r0, r0, #63
 2123              		.loc 1 163 0
 2124 0186 1380     		strh	r3, [r2]	@ movhi
 2125              	.LVL198:
 2126              		.loc 1 162 0
 2127 0188 0870     		strb	r0, [r1]
 2128              		.loc 1 170 0
 2129 018a B8F1000F 		cmp	r8, #0
 2130 018e 00F09A80 		beq	.L271
 2131              		.loc 1 176 0
 2132 0192 40F2000B 		movw	fp, #:lower16:current_iphdr_src
 2133 0196 C0F2000B 		movt	fp, #:upper16:current_iphdr_src
 2134 019a 12E0     		b	.L279
 2135              	.LVL199:
 2136              	.L272:
 2137              		.loc 1 172 0
 2138 019c 0A2B     		cmp	r3, #10
 2139 019e 00F08D80 		beq	.L499
 2140              	.L273:
 2141              		.loc 1 173 0
 2142 01a2 012B     		cmp	r3, #1
 2143 01a4 00F08780 		beq	.L500
 2144              	.L274:
 2145              		.loc 1 174 0
 2146 01a8 2B68     		ldr	r3, [r5]
 2147 01aa B8F81C10 		ldrh	r1, [r8, #28]
 2148 01ae 1A88     		ldrh	r2, [r3]	@ unaligned
 2149 01b0 9142     		cmp	r1, r2
 2150 01b2 0FD0     		beq	.L501
 2151              	.L275:
 2152              	.LVL200:
 2153              		.loc 1 170 0
 2154 01b4 D8F80C30 		ldr	r3, [r8, #12]
 2155              	.LVL201:
 2156 01b8 002B     		cmp	r3, #0
 2157 01ba 00F08480 		beq	.L271
 2158 01be C146     		mov	r9, r8
 2159 01c0 9846     		mov	r8, r3
 2160              	.LVL202:
 2161              	.L279:
 2162              		.loc 1 171 0
 2163 01c2 98F81830 		ldrb	r3, [r8, #24]	@ zero_extendqisi2
 2164 01c6 002B     		cmp	r3, #0
 2165 01c8 E8D1     		bne	.L272
 2166              		.loc 1 171 0 is_stmt 0 discriminator 1
ARM GAS  /tmp/ccnlRhI2.s 			page 39


 2167 01ca FFF7FEFF 		bl	port_halt
 2168              	.LVL203:
 2169 01ce 98F81830 		ldrb	r3, [r8, #24]	@ zero_extendqisi2
 2170 01d2 E3E7     		b	.L272
 2171              	.L501:
 2172              		.loc 1 174 0 is_stmt 1 discriminator 1
 2173 01d4 5B88     		ldrh	r3, [r3, #2]	@ unaligned
 2174 01d6 B8F81A20 		ldrh	r2, [r8, #26]
 2175 01da 9A42     		cmp	r2, r3
 2176 01dc EAD1     		bne	.L275
 2177              		.loc 1 175 0
 2178 01de D8F80420 		ldr	r2, [r8, #4]
 2179 01e2 DBF80030 		ldr	r3, [fp]
 2180 01e6 9A42     		cmp	r2, r3
 2181 01e8 E4D1     		bne	.L275
 2182              		.loc 1 176 0
 2183 01ea D8F80020 		ldr	r2, [r8]
 2184 01ee 3B68     		ldr	r3, [r7]
 2185 01f0 9A42     		cmp	r2, r3
 2186 01f2 DFD1     		bne	.L275
 2187              		.loc 1 182 0
 2188 01f4 D8F80C30 		ldr	r3, [r8, #12]
 2189 01f8 4345     		cmp	r3, r8
 2190 01fa 00F06383 		beq	.L502
 2191              	.L276:
 2192              		.loc 1 183 0
 2193 01fe B9F1000F 		cmp	r9, #0
 2194 0202 08D0     		beq	.L277
 2195              		.loc 1 185 0
 2196 0204 0599     		ldr	r1, [sp, #20]
 2197              		.loc 1 184 0
 2198 0206 C9F80C30 		str	r3, [r9, #12]
 2199              		.loc 1 185 0
 2200 020a 0A68     		ldr	r2, [r1]
 2201              		.loc 1 186 0
 2202 020c C1F80080 		str	r8, [r1]
 2203              		.loc 1 185 0
 2204 0210 C8F80C20 		str	r2, [r8, #12]
 2205 0214 1346     		mov	r3, r2
 2206              	.L277:
 2207              		.loc 1 188 0
 2208 0216 4345     		cmp	r3, r8
 2209 0218 00F06383 		beq	.L503
 2210              	.L278:
 2211              		.loc 1 280 0
 2212 021c 40F2000B 		movw	fp, #:lower16:.LANCHOR5
 2213 0220 C0F2000B 		movt	fp, #:upper16:.LANCHOR5
 2214              		.loc 1 281 0
 2215 0224 3289     		ldrh	r2, [r6, #8]
 2216              		.loc 1 288 0
 2217 0226 0299     		ldr	r1, [sp, #8]
 2218              		.loc 1 283 0
 2219 0228 2B68     		ldr	r3, [r5]
 2220              		.loc 1 281 0
 2221 022a ABF80820 		strh	r2, [fp, #8]	@ movhi
 2222              		.loc 1 285 0
 2223 022e 40F20009 		movw	r9, #:lower16:.LANCHOR6
ARM GAS  /tmp/ccnlRhI2.s 			page 40


 2224              		.loc 1 286 0
 2225 0232 40F20007 		movw	r7, #:lower16:.LANCHOR7
 2226              		.loc 1 288 0
 2227 0236 0A78     		ldrb	r2, [r1]	@ zero_extendqisi2
 2228              		.loc 1 283 0
 2229 0238 CBF80C30 		str	r3, [fp, #12]
 2230              		.loc 1 285 0
 2231 023c C0F20009 		movt	r9, #:upper16:.LANCHOR6
 2232              		.loc 1 286 0
 2233 0240 C0F20007 		movt	r7, #:upper16:.LANCHOR7
 2234              		.loc 1 280 0
 2235 0244 0023     		movs	r3, #0
 2236              		.loc 1 288 0
 2237 0246 1007     		lsls	r0, r2, #28
 2238              		.loc 1 282 0
 2239 0248 CBF80460 		str	r6, [fp, #4]
 2240              		.loc 1 280 0
 2241 024c CBF80030 		str	r3, [fp]
 2242              		.loc 1 285 0
 2243 0250 C9F80030 		str	r3, [r9]
 2244              		.loc 1 286 0
 2245 0254 3B70     		strb	r3, [r7]
 2246              		.loc 1 288 0
 2247 0256 03D5     		bpl	.L370
 2248              		.loc 1 289 0
 2249 0258 737B     		ldrb	r3, [r6, #13]	@ zero_extendqisi2
 2250 025a 43F00103 		orr	r3, r3, #1
 2251 025e 7373     		strb	r3, [r6, #13]
 2252              	.L370:
 2253              		.loc 1 293 0
 2254 0260 D8F87830 		ldr	r3, [r8, #120]
 2255 0264 002B     		cmp	r3, #0
 2256 0266 7ED0     		beq	.L295
 2257              		.loc 1 294 0
 2258 0268 4046     		mov	r0, r8
 2259 026a FFF7FEFF 		bl	tcp_process_refused_data
 2260              	.LVL204:
 2261 026e 0A30     		adds	r0, r0, #10
 2262 0270 07D0     		beq	.L296
 2263              		.loc 1 294 0 is_stmt 0 discriminator 1
 2264 0272 D8F87830 		ldr	r3, [r8, #120]
 2265 0276 002B     		cmp	r3, #0
 2266 0278 75D0     		beq	.L295
 2267              		.loc 1 295 0 is_stmt 1
 2268 027a 0499     		ldr	r1, [sp, #16]
 2269 027c 0B88     		ldrh	r3, [r1]
 2270 027e 002B     		cmp	r3, #0
 2271 0280 71D0     		beq	.L295
 2272              	.L296:
 2273              		.loc 1 298 0
 2274 0282 B4F89630 		ldrh	r3, [r4, #150]
 2275 0286 40F20006 		movw	r6, #:lower16:.LANCHOR9
 2276              	.LVL205:
 2277 028a 0133     		adds	r3, r3, #1
 2278 028c A4F89630 		strh	r3, [r4, #150]	@ movhi
 2279 0290 C0F20006 		movt	r6, #:upper16:.LANCHOR9
 2280              	.L297:
ARM GAS  /tmp/ccnlRhI2.s 			page 41


 2281              		.loc 1 398 0
 2282 0294 DBF80400 		ldr	r0, [fp, #4]
 2283              		.loc 1 394 0
 2284 0298 0025     		movs	r5, #0
 2285              		.loc 1 398 0
 2286 029a 40F20004 		movw	r4, #:lower16:.LANCHOR5
 2287              		.loc 1 394 0
 2288 029e 3560     		str	r5, [r6]
 2289              		.loc 1 395 0
 2290 02a0 C9F80050 		str	r5, [r9]
 2291              		.loc 1 398 0
 2292 02a4 C0F20004 		movt	r4, #:upper16:.LANCHOR5
 2293 02a8 10B1     		cbz	r0, .L263
 2294              		.loc 1 400 0
 2295 02aa FFF7FEFF 		bl	pbuf_free
 2296              	.LVL206:
 2297              		.loc 1 401 0
 2298 02ae 6560     		str	r5, [r4, #4]
 2299              	.L263:
 2300              		.loc 1 425 0
 2301 02b0 07B0     		add	sp, sp, #28
 2302              		@ sp needed
 2303 02b2 BDE8F08F 		pop	{r4, r5, r6, r7, r8, r9, r10, fp, pc}
 2304              	.LVL207:
 2305              	.L500:
 2306              		.loc 1 173 0 discriminator 1
 2307 02b6 FFF7FEFF 		bl	port_halt
 2308              	.LVL208:
 2309 02ba 75E7     		b	.L274
 2310              	.L499:
 2311              		.loc 1 172 0 discriminator 1
 2312 02bc FFF7FEFF 		bl	port_halt
 2313              	.LVL209:
 2314 02c0 98F81830 		ldrb	r3, [r8, #24]	@ zero_extendqisi2
 2315 02c4 6DE7     		b	.L273
 2316              	.LVL210:
 2317              	.L271:
 2318              		.loc 1 197 0
 2319 02c6 40F20003 		movw	r3, #:lower16:tcp_tw_pcbs
 2320 02ca C0F20003 		movt	r3, #:upper16:tcp_tw_pcbs
 2321 02ce D3F80080 		ldr	r8, [r3]
 2322              	.LVL211:
 2323 02d2 B8F1000F 		cmp	r8, #0
 2324 02d6 00F09B80 		beq	.L367
 2325 02da 2346     		mov	r3, r4
 2326              		.loc 1 201 0
 2327 02dc 40F20009 		movw	r9, #:lower16:current_iphdr_src
 2328 02e0 4446     		mov	r4, r8
 2329 02e2 C0F20009 		movt	r9, #:upper16:current_iphdr_src
 2330 02e6 9846     		mov	r8, r3
 2331              	.LVL212:
 2332 02e8 03E0     		b	.L368
 2333              	.L281:
 2334              		.loc 1 197 0
 2335 02ea E468     		ldr	r4, [r4, #12]
 2336              	.LVL213:
 2337 02ec 002C     		cmp	r4, #0
ARM GAS  /tmp/ccnlRhI2.s 			page 42


 2338 02ee 00F08E80 		beq	.L504
 2339              	.L368:
 2340              		.loc 1 198 0
 2341 02f2 237E     		ldrb	r3, [r4, #24]	@ zero_extendqisi2
 2342 02f4 0A2B     		cmp	r3, #10
 2343 02f6 01D0     		beq	.L280
 2344              		.loc 1 198 0 is_stmt 0 discriminator 1
 2345 02f8 FFF7FEFF 		bl	port_halt
 2346              	.LVL214:
 2347              	.L280:
 2348              		.loc 1 199 0 is_stmt 1
 2349 02fc 2B68     		ldr	r3, [r5]
 2350 02fe A28B     		ldrh	r2, [r4, #28]
 2351 0300 1888     		ldrh	r0, [r3]	@ unaligned
 2352 0302 9042     		cmp	r0, r2
 2353 0304 F1D1     		bne	.L281
 2354              		.loc 1 199 0 is_stmt 0 discriminator 1
 2355 0306 B3F802C0 		ldrh	ip, [r3, #2]	@ unaligned
 2356              		.loc 1 200 0 is_stmt 1 discriminator 1
 2357 030a 638B     		ldrh	r3, [r4, #26]
 2358              		.loc 1 199 0 discriminator 1
 2359 030c 9C45     		cmp	ip, r3
 2360 030e ECD1     		bne	.L281
 2361              		.loc 1 200 0
 2362 0310 6268     		ldr	r2, [r4, #4]
 2363 0312 D9F80030 		ldr	r3, [r9]
 2364 0316 9A42     		cmp	r2, r3
 2365 0318 E7D1     		bne	.L281
 2366              		.loc 1 201 0
 2367 031a 2268     		ldr	r2, [r4]
 2368 031c 3B68     		ldr	r3, [r7]
 2369 031e 9A42     		cmp	r2, r3
 2370 0320 E3D1     		bne	.L281
 2371              	.LBB11:
 2372              	.LBB12:
 2373              		.loc 1 536 0
 2374 0322 029A     		ldr	r2, [sp, #8]
 2375 0324 1378     		ldrb	r3, [r2]	@ zero_extendqisi2
 2376 0326 5D07     		lsls	r5, r3, #29
 2377 0328 A046     		mov	r8, r4
 2378              	.LVL215:
 2379 032a 1AD4     		bmi	.L283
 2380              	.LVL216:
 2381              		.loc 1 540 0
 2382 032c 9C07     		lsls	r4, r3, #30
 2383              	.LVL217:
 2384 032e 40F1CE82 		bpl	.L284
 2385              		.loc 1 543 0
 2386 0332 039B     		ldr	r3, [sp, #12]
 2387 0334 1968     		ldr	r1, [r3]
 2388 0336 D8F82830 		ldr	r3, [r8, #40]
 2389 033a CB1A     		subs	r3, r1, r3
 2390 033c 05D4     		bmi	.L285
 2391 033e B8F82C20 		ldrh	r2, [r8, #44]
 2392 0342 9B1A     		subs	r3, r3, r2
 2393 0344 002B     		cmp	r3, #0
 2394 0346 40F3CF82 		ble	.L505
ARM GAS  /tmp/ccnlRhI2.s 			page 43


 2395              	.L285:
 2396              		.loc 1 555 0
 2397 034a 049C     		ldr	r4, [sp, #16]
 2398 034c 2388     		ldrh	r3, [r4]
 2399 034e 43B1     		cbz	r3, .L283
 2400              		.loc 1 557 0
 2401 0350 98F81E30 		ldrb	r3, [r8, #30]	@ zero_extendqisi2
 2402 0354 43F00203 		orr	r3, r3, #2
 2403 0358 88F81E30 		strb	r3, [r8, #30]
 2404              		.loc 1 558 0
 2405 035c 4046     		mov	r0, r8
 2406 035e FFF7FEFF 		bl	tcp_output
 2407              	.LVL218:
 2408              	.L283:
 2409              	.LBE12:
 2410              	.LBE11:
 2411              		.loc 1 208 0
 2412 0362 3046     		mov	r0, r6
 2413 0364 7FE6     		b	.L495
 2414              	.LVL219:
 2415              	.L295:
 2416              	.LBB15:
 2417              	.LBB16:
 2418              		.loc 1 584 0
 2419 0366 029A     		ldr	r2, [sp, #8]
 2420              	.LBE16:
 2421              	.LBE15:
 2422              		.loc 1 303 0
 2423 0368 40F20006 		movw	r6, #:lower16:.LANCHOR9
 2424              	.LVL220:
 2425              	.LBB27:
 2426              	.LBB19:
 2427              		.loc 1 584 0
 2428 036c 1378     		ldrb	r3, [r2]	@ zero_extendqisi2
 2429              	.LBE19:
 2430              	.LBE27:
 2431              		.loc 1 303 0
 2432 036e C0F20006 		movt	r6, #:upper16:.LANCHOR9
 2433              	.LBB28:
 2434              	.LBB20:
 2435              		.loc 1 584 0
 2436 0372 5807     		lsls	r0, r3, #29
 2437              	.LBE20:
 2438              	.LBE28:
 2439              		.loc 1 303 0
 2440 0374 C6F80080 		str	r8, [r6]
 2441              	.LVL221:
 2442              	.LBB29:
 2443              	.LBB21:
 2444              		.loc 1 584 0
 2445 0378 27D5     		bpl	.L298
 2446              	.LVL222:
 2447              		.loc 1 586 0
 2448 037a 98F81820 		ldrb	r2, [r8, #24]	@ zero_extendqisi2
 2449 037e 022A     		cmp	r2, #2
 2450 0380 00F01182 		beq	.L506
 2451              		.loc 1 591 0
ARM GAS  /tmp/ccnlRhI2.s 			page 44


 2452 0384 039B     		ldr	r3, [sp, #12]
 2453 0386 1968     		ldr	r1, [r3]
 2454 0388 D8F82830 		ldr	r3, [r8, #40]
 2455 038c CB1A     		subs	r3, r1, r3
 2456 038e 05D4     		bmi	.L303
 2457 0390 B8F82C00 		ldrh	r0, [r8, #44]
 2458 0394 1B1A     		subs	r3, r3, r0
 2459 0396 002B     		cmp	r3, #0
 2460 0398 40F38083 		ble	.L507
 2461              	.LVL223:
 2462              	.L303:
 2463              	.LBE21:
 2464              	.LBE29:
 2465              		.loc 1 308 0
 2466 039c 3B78     		ldrb	r3, [r7]	@ zero_extendqisi2
 2467 039e 1A07     		lsls	r2, r3, #28
 2468 03a0 24D5     		bpl	.L508
 2469              		.loc 1 313 0
 2470 03a2 D8F88C30 		ldr	r3, [r8, #140]
 2471 03a6 23B1     		cbz	r3, .L350
 2472              		.loc 1 313 0 is_stmt 0 discriminator 1
 2473 03a8 D8F81000 		ldr	r0, [r8, #16]
 2474 03ac 6FF00A01 		mvn	r1, #10
 2475 03b0 9847     		blx	r3
 2476              	.LVL224:
 2477              	.L350:
 2478              		.loc 1 325 0 is_stmt 1
 2479 03b2 40F20000 		movw	r0, #:lower16:tcp_active_pcbs
 2480 03b6 4146     		mov	r1, r8
 2481 03b8 C0F20000 		movt	r0, #:upper16:tcp_active_pcbs
 2482 03bc FFF7FEFF 		bl	tcp_pcb_remove
 2483              	.LVL225:
 2484              		.loc 1 326 0
 2485 03c0 4146     		mov	r1, r8
 2486 03c2 0220     		movs	r0, #2
 2487 03c4 FFF7FEFF 		bl	memp_free
 2488              	.LVL226:
 2489 03c8 64E7     		b	.L297
 2490              	.LVL227:
 2491              	.L298:
 2492              	.LBB30:
 2493              	.LBB22:
 2494              		.loc 1 612 0
 2495 03ca 9907     		lsls	r1, r3, #30
 2496 03cc 40F1C280 		bpl	.L304
 2497 03d0 98F81830 		ldrb	r3, [r8, #24]	@ zero_extendqisi2
 2498 03d4 023B     		subs	r3, r3, #2
 2499 03d6 DBB2     		uxtb	r3, r3
 2500 03d8 012B     		cmp	r3, #1
 2501 03da 40F2BB80 		bls	.L304
 2502              	.LVL228:
 2503              	.L321:
 2504              		.loc 1 674 0
 2505 03de 98F81E30 		ldrb	r3, [r8, #30]	@ zero_extendqisi2
 2506 03e2 43F00203 		orr	r3, r3, #2
 2507 03e6 88F81E30 		strb	r3, [r8, #30]
 2508 03ea D7E7     		b	.L303
ARM GAS  /tmp/ccnlRhI2.s 			page 45


 2509              	.LVL229:
 2510              	.L508:
 2511              	.LBE22:
 2512              	.LBE30:
 2513              		.loc 1 316 0
 2514 03ec DB06     		lsls	r3, r3, #27
 2515 03ee 40F1EC81 		bpl	.L349
 2516              		.loc 1 319 0
 2517 03f2 98F81E30 		ldrb	r3, [r8, #30]	@ zero_extendqisi2
 2518 03f6 DD06     		lsls	r5, r3, #27
 2519 03f8 DBD4     		bmi	.L350
 2520              		.loc 1 323 0
 2521 03fa D8F88C30 		ldr	r3, [r8, #140]
 2522 03fe 002B     		cmp	r3, #0
 2523 0400 D7D0     		beq	.L350
 2524              		.loc 1 323 0 is_stmt 0 discriminator 1
 2525 0402 D8F81000 		ldr	r0, [r8, #16]
 2526 0406 6FF00B01 		mvn	r1, #11
 2527 040a 9847     		blx	r3
 2528              	.LVL230:
 2529 040c D1E7     		b	.L350
 2530              	.LVL231:
 2531              	.L504:
 2532 040e 4446     		mov	r4, r8
 2533              	.LVL232:
 2534              	.L367:
 2535              		.loc 1 216 0 is_stmt 1
 2536 0410 40F20000 		movw	r0, #:lower16:tcp_listen_pcbs
 2537 0414 C0F20000 		movt	r0, #:upper16:tcp_listen_pcbs
 2538 0418 D0F80080 		ldr	r8, [r0]
 2539              	.LVL233:
 2540 041c B8F1000F 		cmp	r8, #0
 2541 0420 00F09481 		beq	.L288
 2542 0424 D5F800B0 		ldr	fp, [r5]
 2543              		.loc 1 228 0
 2544 0428 D7F800C0 		ldr	ip, [r7]
 2545 042c BBF80220 		ldrh	r2, [fp, #2]	@ unaligned
 2546 0430 C146     		mov	r9, r8
 2547              		.loc 1 215 0
 2548 0432 0021     		movs	r1, #0
 2549 0434 06E0     		b	.L291
 2550              	.LVL234:
 2551              	.L289:
 2552              		.loc 1 216 0
 2553 0436 D9F80C30 		ldr	r3, [r9, #12]
 2554              	.LVL235:
 2555 043a 002B     		cmp	r3, #0
 2556 043c 00F08681 		beq	.L288
 2557 0440 4946     		mov	r1, r9
 2558 0442 9946     		mov	r9, r3
 2559              	.LVL236:
 2560              	.L291:
 2561              		.loc 1 217 0
 2562 0444 B9F81A30 		ldrh	r3, [r9, #26]
 2563 0448 9342     		cmp	r3, r2
 2564 044a F4D1     		bne	.L289
 2565              		.loc 1 228 0
ARM GAS  /tmp/ccnlRhI2.s 			page 46


 2566 044c D9F80030 		ldr	r3, [r9]
 2567 0450 6345     		cmp	r3, ip
 2568 0452 01D0     		beq	.L290
 2569              		.loc 1 229 0 discriminator 1
 2570 0454 002B     		cmp	r3, #0
 2571 0456 EED1     		bne	.L289
 2572              	.L290:
 2573              		.loc 1 249 0
 2574 0458 31B1     		cbz	r1, .L372
 2575              		.loc 1 250 0
 2576 045a D9F80C30 		ldr	r3, [r9, #12]
 2577              		.loc 1 254 0
 2578 045e C0F80090 		str	r9, [r0]
 2579              		.loc 1 250 0
 2580 0462 CB60     		str	r3, [r1, #12]
 2581              		.loc 1 252 0
 2582 0464 C9F80C80 		str	r8, [r9, #12]
 2583              	.L372:
 2584              	.LVL237:
 2585              	.LBB31:
 2586              	.LBB32:
 2587              		.loc 1 445 0
 2588 0468 0299     		ldr	r1, [sp, #8]
 2589 046a 0B78     		ldrb	r3, [r1]	@ zero_extendqisi2
 2590 046c 5907     		lsls	r1, r3, #29
 2591 046e 3FF578AF 		bmi	.L283
 2592              		.loc 1 452 0
 2593 0472 03F01001 		and	r1, r3, #16
 2594 0476 01F0FF08 		and	r8, r1, #255
 2595 047a 0029     		cmp	r1, #0
 2596 047c 40F05282 		bne	.L509
 2597              		.loc 1 458 0
 2598 0480 9B07     		lsls	r3, r3, #30
 2599 0482 7FF56EAF 		bpl	.L283
 2600              		.loc 1 466 0
 2601 0486 99F81900 		ldrb	r0, [r9, #25]	@ zero_extendqisi2
 2602 048a FFF7FEFF 		bl	tcp_alloc
 2603              	.LVL238:
 2604              		.loc 1 470 0
 2605 048e 8246     		mov	r10, r0
 2606 0490 0028     		cmp	r0, #0
 2607 0492 00F04182 		beq	.L510
 2608              		.loc 1 484 0
 2609 0496 0399     		ldr	r1, [sp, #12]
 2610              		.loc 1 482 0
 2611 0498 2B68     		ldr	r3, [r5]
 2612              		.loc 1 484 0
 2613 049a 0C68     		ldr	r4, [r1]
 2614              		.loc 1 479 0
 2615 049c 3968     		ldr	r1, [r7]
 2616              		.loc 1 482 0
 2617 049e 93F801C0 		ldrb	ip, [r3, #1]	@ zero_extendqisi2
 2618 04a2 93F800E0 		ldrb	lr, [r3]	@ zero_extendqisi2
 2619              		.loc 1 486 0
 2620 04a6 D889     		ldrh	r0, [r3, #14]	@ unaligned
 2621              	.LVL239:
 2622              		.loc 1 490 0
ARM GAS  /tmp/ccnlRhI2.s 			page 47


 2623 04a8 D9F81020 		ldr	r2, [r9, #16]
 2624              		.loc 1 492 0
 2625 04ac D9F81430 		ldr	r3, [r9, #20]
 2626              		.loc 1 480 0
 2627 04b0 B9F81A50 		ldrh	r5, [r9, #26]
 2628              		.loc 1 479 0
 2629 04b4 CAF80010 		str	r1, [r10]
 2630              		.loc 1 481 0
 2631 04b8 40F20001 		movw	r1, #:lower16:current_iphdr_src
 2632 04bc C0F20001 		movt	r1, #:upper16:current_iphdr_src
 2633              		.loc 1 482 0
 2634 04c0 4EEA0C2E 		orr	lr, lr, ip, lsl #8
 2635              		.loc 1 481 0
 2636 04c4 0968     		ldr	r1, [r1]
 2637              		.loc 1 482 0
 2638 04c6 AAF81CE0 		strh	lr, [r10, #28]	@ movhi
 2639              		.loc 1 484 0
 2640 04ca 671C     		adds	r7, r4, #1
 2641              		.loc 1 483 0
 2642 04cc 4FF0030E 		mov	lr, #3
 2643              		.loc 1 489 0
 2644 04d0 013C     		subs	r4, r4, #1
 2645              		.loc 1 481 0
 2646 04d2 CAF80410 		str	r1, [r10, #4]
 2647              		.loc 1 483 0
 2648 04d6 8AF818E0 		strb	lr, [r10, #24]
 2649              		.loc 1 486 0
 2650 04da AAF86000 		strh	r0, [r10, #96]	@ movhi
 2651              		.loc 1 487 0
 2652 04de AAF86200 		strh	r0, [r10, #98]	@ movhi
 2653              		.loc 1 488 0
 2654 04e2 AAF84E00 		strh	r0, [r10, #78]	@ movhi
 2655              		.loc 1 489 0
 2656 04e6 CAF85440 		str	r4, [r10, #84]
 2657              		.loc 1 492 0
 2658 04ea CAF81430 		str	r3, [r10, #20]
 2659              		.loc 1 498 0
 2660 04ee 059C     		ldr	r4, [sp, #20]
 2661              		.loc 1 480 0
 2662 04f0 AAF81A50 		strh	r5, [r10, #26]	@ movhi
 2663              		.loc 1 484 0
 2664 04f4 CAF82870 		str	r7, [r10, #40]
 2665              		.loc 1 485 0
 2666 04f8 CAF83070 		str	r7, [r10, #48]
 2667              		.loc 1 490 0
 2668 04fc CAF81020 		str	r2, [r10, #16]
 2669              		.loc 1 495 0
 2670 0500 99F80820 		ldrb	r2, [r9, #8]	@ zero_extendqisi2
 2671              		.loc 1 498 0
 2672 0504 2368     		ldr	r3, [r4]
 2673 0506 C4F800A0 		str	r10, [r4]
 2674              		.loc 1 495 0
 2675 050a 22F07302 		bic	r2, r2, #115
 2676 050e 8AF80820 		strb	r2, [r10, #8]
 2677              		.loc 1 498 0
 2678 0512 CAF80C30 		str	r3, [r10, #12]
 2679 0516 FFF7FEFF 		bl	tcp_timer_needed
ARM GAS  /tmp/ccnlRhI2.s 			page 48


 2680              	.LVL240:
 2681 051a 40F20003 		movw	r3, #:lower16:tcp_active_pcbs_changed
 2682 051e C0F20003 		movt	r3, #:upper16:tcp_active_pcbs_changed
 2683 0522 0122     		movs	r2, #1
 2684              		.loc 1 501 0
 2685 0524 0AF13600 		add	r0, r10, #54
 2686              		.loc 1 498 0
 2687 0528 1A70     		strb	r2, [r3]
 2688              		.loc 1 501 0
 2689 052a FFF7FEFF 		bl	tcp_parseopt.isra.0
 2690              	.LVL241:
 2691              		.loc 1 503 0
 2692 052e 0AF10401 		add	r1, r10, #4
 2693 0532 BAF83600 		ldrh	r0, [r10, #54]
 2694 0536 FFF7FEFF 		bl	tcp_eff_send_mss
 2695              	.LVL242:
 2696              		.loc 1 509 0
 2697 053a 1221     		movs	r1, #18
 2698              		.loc 1 503 0
 2699 053c AAF83600 		strh	r0, [r10, #54]	@ movhi
 2700              		.loc 1 509 0
 2701 0540 5046     		mov	r0, r10
 2702 0542 FFF7FEFF 		bl	tcp_enqueue_flags
 2703              	.LVL243:
 2704              		.loc 1 510 0
 2705 0546 0028     		cmp	r0, #0
 2706 0548 40F0E181 		bne	.L511
 2707              		.loc 1 514 0
 2708 054c 5046     		mov	r0, r10
 2709              	.LVL244:
 2710 054e FFF7FEFF 		bl	tcp_output
 2711              	.LVL245:
 2712 0552 06E7     		b	.L283
 2713              	.LVL246:
 2714              	.L304:
 2715              	.LBE32:
 2716              	.LBE31:
 2717              	.LBB34:
 2718              	.LBB23:
 2719              		.loc 1 618 0
 2720 0554 98F81E30 		ldrb	r3, [r8, #30]	@ zero_extendqisi2
 2721 0558 DA06     		lsls	r2, r3, #27
 2722              		.loc 1 620 0
 2723 055a 5CBF     		itt	pl
 2724 055c 40F20003 		movwpl	r3, #:lower16:tcp_ticks
 2725 0560 C0F20003 		movtpl	r3, #:upper16:tcp_ticks
 2726              		.loc 1 624 0
 2727 0564 08F13600 		add	r0, r8, #54
 2728              		.loc 1 620 0
 2729 0568 5CBF     		itt	pl
 2730 056a 1B68     		ldrpl	r3, [r3]
 2731 056c C8F82430 		strpl	r3, [r8, #36]
 2732              		.loc 1 622 0
 2733 0570 0023     		movs	r3, #0
 2734 0572 88F89630 		strb	r3, [r8, #150]
 2735              		.loc 1 624 0
 2736 0576 FFF7FEFF 		bl	tcp_parseopt.isra.0
ARM GAS  /tmp/ccnlRhI2.s 			page 49


 2737              	.LVL247:
 2738              		.loc 1 627 0
 2739 057a 98F81830 		ldrb	r3, [r8, #24]	@ zero_extendqisi2
 2740 057e 023B     		subs	r3, r3, #2
 2741 0580 072B     		cmp	r3, #7
 2742 0582 3FF60BAF 		bhi	.L303
 2743 0586 DFE803F0 		tbb	[pc, r3]
 2744              	.L307:
 2745 058a 86       		.byte	(.L306-.L307)/2
 2746 058b BA       		.byte	(.L308-.L307)/2
 2747 058c A9       		.byte	(.L309-.L307)/2
 2748 058d 6A       		.byte	(.L310-.L307)/2
 2749 058e 42       		.byte	(.L311-.L307)/2
 2750 058f A9       		.byte	(.L309-.L307)/2
 2751 0590 18       		.byte	(.L312-.L307)/2
 2752 0591 04       		.byte	(.L313-.L307)/2
 2753              		.align	1
 2754              	.L313:
 2755              		.loc 1 780 0
 2756 0592 4046     		mov	r0, r8
 2757 0594 FFF7FEFF 		bl	tcp_receive
 2758              	.LVL248:
 2759              		.loc 1 781 0
 2760 0598 029C     		ldr	r4, [sp, #8]
 2761 059a 2378     		ldrb	r3, [r4]	@ zero_extendqisi2
 2762 059c DA06     		lsls	r2, r3, #27
 2763 059e 7FF5FDAE 		bpl	.L303
 2764 05a2 DAF80020 		ldr	r2, [r10]
 2765 05a6 D8F85030 		ldr	r3, [r8, #80]
 2766 05aa 9342     		cmp	r3, r2
 2767 05ac 7FF4F6AE 		bne	.L303
 2768              		.loc 1 784 0
 2769 05b0 3B78     		ldrb	r3, [r7]	@ zero_extendqisi2
 2770 05b2 43F01003 		orr	r3, r3, #16
 2771 05b6 3B70     		strb	r3, [r7]
 2772 05b8 F0E6     		b	.L303
 2773              	.L312:
 2774              		.loc 1 770 0
 2775 05ba 4046     		mov	r0, r8
 2776 05bc FFF7FEFF 		bl	tcp_receive
 2777              	.LVL249:
 2778              		.loc 1 771 0
 2779 05c0 029C     		ldr	r4, [sp, #8]
 2780 05c2 2378     		ldrb	r3, [r4]	@ zero_extendqisi2
 2781 05c4 D906     		lsls	r1, r3, #27
 2782 05c6 7FF5E9AE 		bpl	.L303
 2783 05ca DAF80020 		ldr	r2, [r10]
 2784 05ce D8F85030 		ldr	r3, [r8, #80]
 2785 05d2 9342     		cmp	r3, r2
 2786 05d4 7FF4E2AE 		bne	.L303
 2787              		.loc 1 773 0
 2788 05d8 4046     		mov	r0, r8
 2789 05da FFF7FEFF 		bl	tcp_pcb_purge
 2790              	.LVL250:
 2791              		.loc 1 774 0
 2792 05de 059A     		ldr	r2, [sp, #20]
 2793 05e0 1168     		ldr	r1, [r2]
ARM GAS  /tmp/ccnlRhI2.s 			page 50


 2794 05e2 40F20003 		movw	r3, #:lower16:tcp_active_pcbs
 2795 05e6 4145     		cmp	r1, r8
 2796 05e8 C0F20003 		movt	r3, #:upper16:tcp_active_pcbs
 2797 05ec 00F05281 		beq	.L498
 2798 05f0 40F20003 		movw	r3, #:lower16:tcp_tmp_pcb
 2799 05f4 C0F20003 		movt	r3, #:upper16:tcp_tmp_pcb
 2800 05f8 0A46     		mov	r2, r1
 2801 05fa 1960     		str	r1, [r3]
 2802              	.L345:
 2803 05fc 002A     		cmp	r2, #0
 2804 05fe 00F08682 		beq	.L496
 2805 0602 D168     		ldr	r1, [r2, #12]
 2806 0604 4145     		cmp	r1, r8
 2807 0606 00F07D82 		beq	.L497
 2808 060a 0A46     		mov	r2, r1
 2809 060c F6E7     		b	.L345
 2810              	.L311:
 2811              		.loc 1 759 0
 2812 060e 4046     		mov	r0, r8
 2813 0610 FFF7FEFF 		bl	tcp_receive
 2814              	.LVL251:
 2815              		.loc 1 760 0
 2816 0614 3B78     		ldrb	r3, [r7]	@ zero_extendqisi2
 2817 0616 9806     		lsls	r0, r3, #26
 2818 0618 7FF5C0AE 		bpl	.L303
 2819              		.loc 1 762 0
 2820 061c 98F81E30 		ldrb	r3, [r8, #30]	@ zero_extendqisi2
 2821 0620 43F00203 		orr	r3, r3, #2
 2822 0624 88F81E30 		strb	r3, [r8, #30]
 2823              		.loc 1 763 0
 2824 0628 4046     		mov	r0, r8
 2825 062a FFF7FEFF 		bl	tcp_pcb_purge
 2826              	.LVL252:
 2827              		.loc 1 764 0
 2828 062e 059A     		ldr	r2, [sp, #20]
 2829 0630 1168     		ldr	r1, [r2]
 2830 0632 40F20003 		movw	r3, #:lower16:tcp_active_pcbs
 2831 0636 4145     		cmp	r1, r8
 2832 0638 C0F20003 		movt	r3, #:upper16:tcp_active_pcbs
 2833 063c 00F02A81 		beq	.L498
 2834 0640 40F20003 		movw	r3, #:lower16:tcp_tmp_pcb
 2835 0644 C0F20003 		movt	r3, #:upper16:tcp_tmp_pcb
 2836 0648 0A46     		mov	r2, r1
 2837 064a 1960     		str	r1, [r3]
 2838              	.L340:
 2839 064c 002A     		cmp	r2, #0
 2840 064e 00F05E82 		beq	.L496
 2841 0652 D168     		ldr	r1, [r2, #12]
 2842 0654 4145     		cmp	r1, r8
 2843 0656 00F05582 		beq	.L497
 2844 065a 0A46     		mov	r2, r1
 2845 065c F6E7     		b	.L340
 2846              	.L310:
 2847              		.loc 1 740 0
 2848 065e 4046     		mov	r0, r8
 2849 0660 FFF7FEFF 		bl	tcp_receive
 2850              	.LVL253:
ARM GAS  /tmp/ccnlRhI2.s 			page 51


 2851              		.loc 1 741 0
 2852 0664 3B78     		ldrb	r3, [r7]	@ zero_extendqisi2
 2853 0666 9B06     		lsls	r3, r3, #26
 2854 0668 40F11E82 		bpl	.L331
 2855              		.loc 1 742 0
 2856 066c 029A     		ldr	r2, [sp, #8]
 2857 066e 1378     		ldrb	r3, [r2]	@ zero_extendqisi2
 2858 0670 DD06     		lsls	r5, r3, #27
 2859 0672 06D5     		bpl	.L332
 2860 0674 DAF80020 		ldr	r2, [r10]
 2861 0678 D8F85030 		ldr	r3, [r8, #80]
 2862 067c 9342     		cmp	r3, r2
 2863 067e 00F02382 		beq	.L512
 2864              	.L332:
 2865              		.loc 1 751 0
 2866 0682 98F81E20 		ldrb	r2, [r8, #30]	@ zero_extendqisi2
 2867              		.loc 1 752 0
 2868 0686 0823     		movs	r3, #8
 2869              		.loc 1 751 0
 2870 0688 42F00202 		orr	r2, r2, #2
 2871 068c 88F81E20 		strb	r2, [r8, #30]
 2872              		.loc 1 752 0
 2873 0690 88F81830 		strb	r3, [r8, #24]
 2874 0694 82E6     		b	.L303
 2875              	.L306:
 2876              		.loc 1 632 0
 2877 0696 0299     		ldr	r1, [sp, #8]
 2878 0698 0B78     		ldrb	r3, [r1]	@ zero_extendqisi2
 2879 069a 03F01203 		and	r3, r3, #18
 2880 069e 122B     		cmp	r3, #18
 2881 06a0 00F05681 		beq	.L513
 2882              	.L314:
 2883              		.loc 1 677 0
 2884 06a4 029C     		ldr	r4, [sp, #8]
 2885 06a6 2378     		ldrb	r3, [r4]	@ zero_extendqisi2
 2886 06a8 DB06     		lsls	r3, r3, #27
 2887 06aa 7FF577AE 		bpl	.L303
 2888              		.loc 1 680 0
 2889 06ae 2B68     		ldr	r3, [r5]
 2890              		.loc 1 679 0
 2891 06b0 0499     		ldr	r1, [sp, #16]
 2892 06b2 5A88     		ldrh	r2, [r3, #2]	@ unaligned
 2893 06b4 0398     		ldr	r0, [sp, #12]
 2894 06b6 0C88     		ldrh	r4, [r1]
 2895 06b8 0168     		ldr	r1, [r0]
 2896 06ba 0092     		str	r2, [sp]
 2897 06bc 1B88     		ldrh	r3, [r3]	@ unaligned
 2898 06be DAF80000 		ldr	r0, [r10]
 2899 06c2 0193     		str	r3, [sp, #4]
 2900 06c4 40F20002 		movw	r2, #:lower16:current_iphdr_dest
 2901 06c8 40F20003 		movw	r3, #:lower16:current_iphdr_src
 2902 06cc 2144     		add	r1, r1, r4
 2903 06ce C0F20002 		movt	r2, #:upper16:current_iphdr_dest
 2904 06d2 C0F20003 		movt	r3, #:upper16:current_iphdr_src
 2905 06d6 FFF7FEFF 		bl	tcp_rst
 2906              	.LVL254:
 2907 06da 5FE6     		b	.L303
ARM GAS  /tmp/ccnlRhI2.s 			page 52


 2908              	.L309:
 2909              		.loc 1 733 0
 2910 06dc 4046     		mov	r0, r8
 2911 06de FFF7FEFF 		bl	tcp_receive
 2912              	.LVL255:
 2913              		.loc 1 734 0
 2914 06e2 3B78     		ldrb	r3, [r7]	@ zero_extendqisi2
 2915 06e4 9A06     		lsls	r2, r3, #26
 2916 06e6 7FF559AE 		bpl	.L303
 2917              	.LVL256:
 2918              	.L494:
 2919              		.loc 1 735 0
 2920 06ea 98F81E20 		ldrb	r2, [r8, #30]	@ zero_extendqisi2
 2921              		.loc 1 736 0
 2922 06ee 0723     		movs	r3, #7
 2923              		.loc 1 735 0
 2924 06f0 42F00202 		orr	r2, r2, #2
 2925 06f4 88F81E20 		strb	r2, [r8, #30]
 2926              		.loc 1 736 0
 2927 06f8 88F81830 		strb	r3, [r8, #24]
 2928 06fc 4EE6     		b	.L303
 2929              	.LVL257:
 2930              	.L308:
 2931              		.loc 1 684 0
 2932 06fe 0299     		ldr	r1, [sp, #8]
 2933 0700 0B78     		ldrb	r3, [r1]	@ zero_extendqisi2
 2934 0702 DC06     		lsls	r4, r3, #27
 2935 0704 40F1BB81 		bpl	.L322
 2936              		.loc 1 686 0
 2937 0708 D8F84830 		ldr	r3, [r8, #72]
 2938 070c DAF80000 		ldr	r0, [r10]
 2939 0710 DB43     		mvns	r3, r3
 2940 0712 C342     		cmn	r3, r0
 2941 0714 05D4     		bmi	.L323
 2942 0716 D8F85030 		ldr	r3, [r8, #80]
 2943 071a C31A     		subs	r3, r0, r3
 2944 071c 002B     		cmp	r3, #0
 2945 071e 40F37A81 		ble	.L514
 2946              	.L323:
 2947              		.loc 1 723 0
 2948 0722 2B68     		ldr	r3, [r5]
 2949              		.loc 1 722 0
 2950 0724 049A     		ldr	r2, [sp, #16]
 2951 0726 039C     		ldr	r4, [sp, #12]
 2952 0728 1588     		ldrh	r5, [r2]
 2953 072a 5A88     		ldrh	r2, [r3, #2]	@ unaligned
 2954 072c 2168     		ldr	r1, [r4]
 2955 072e 0092     		str	r2, [sp]
 2956 0730 1C88     		ldrh	r4, [r3]	@ unaligned
 2957 0732 40F20002 		movw	r2, #:lower16:current_iphdr_dest
 2958 0736 40F20003 		movw	r3, #:lower16:current_iphdr_src
 2959 073a 2944     		add	r1, r1, r5
 2960 073c 0194     		str	r4, [sp, #4]
 2961 073e C0F20002 		movt	r2, #:upper16:current_iphdr_dest
 2962 0742 C0F20003 		movt	r3, #:upper16:current_iphdr_src
 2963 0746 FFF7FEFF 		bl	tcp_rst
 2964              	.LVL258:
ARM GAS  /tmp/ccnlRhI2.s 			page 53


 2965 074a 27E6     		b	.L303
 2966              	.LVL259:
 2967              	.L288:
 2968              	.LBE23:
 2969              	.LBE34:
 2970              		.loc 1 408 0
 2971 074c 2B68     		ldr	r3, [r5]
 2972 074e 9889     		ldrh	r0, [r3, #12]	@ unaligned
 2973 0750 FFF7FEFF 		bl	lwip_ntohs
 2974              	.LVL260:
 2975 0754 40F20005 		movw	r5, #:lower16:.LANCHOR2
 2976 0758 4107     		lsls	r1, r0, #29
 2977 075a C0F20005 		movt	r5, #:upper16:.LANCHOR2
 2978 075e 3FF500AE 		bmi	.L283
 2979              		.loc 1 413 0
 2980 0762 2B68     		ldr	r3, [r5]
 2981              		.loc 1 411 0
 2982 0764 0499     		ldr	r1, [sp, #16]
 2983 0766 5A88     		ldrh	r2, [r3, #2]	@ unaligned
 2984 0768 0398     		ldr	r0, [sp, #12]
 2985 076a B1F800E0 		ldrh	lr, [r1]
 2986 076e 0168     		ldr	r1, [r0]
 2987 0770 0092     		str	r2, [sp]
 2988 0772 1B88     		ldrh	r3, [r3]	@ unaligned
 2989              		.loc 1 409 0
 2990 0774 B4F8A070 		ldrh	r7, [r4, #160]
 2991              		.loc 1 410 0
 2992 0778 B4F89650 		ldrh	r5, [r4, #150]
 2993              		.loc 1 411 0
 2994 077c DAF80000 		ldr	r0, [r10]
 2995 0780 0193     		str	r3, [sp, #4]
 2996              		.loc 1 409 0
 2997 0782 0137     		adds	r7, r7, #1
 2998              		.loc 1 410 0
 2999 0784 0135     		adds	r5, r5, #1
 3000              		.loc 1 411 0
 3001 0786 40F20002 		movw	r2, #:lower16:current_iphdr_dest
 3002 078a 40F20003 		movw	r3, #:lower16:current_iphdr_src
 3003 078e 7144     		add	r1, r1, lr
 3004 0790 C0F20002 		movt	r2, #:upper16:current_iphdr_dest
 3005 0794 C0F20003 		movt	r3, #:upper16:current_iphdr_src
 3006              		.loc 1 409 0
 3007 0798 A4F8A070 		strh	r7, [r4, #160]	@ movhi
 3008              		.loc 1 410 0
 3009 079c A4F89650 		strh	r5, [r4, #150]	@ movhi
 3010              		.loc 1 411 0
 3011 07a0 FFF7FEFF 		bl	tcp_rst
 3012              	.LVL261:
 3013 07a4 DDE5     		b	.L283
 3014              	.LVL262:
 3015              	.L506:
 3016              	.LBB35:
 3017              	.LBB24:
 3018              		.loc 1 587 0
 3019 07a6 DAF80020 		ldr	r2, [r10]
 3020 07aa D8F85030 		ldr	r3, [r8, #80]
 3021 07ae 9342     		cmp	r3, r2
ARM GAS  /tmp/ccnlRhI2.s 			page 54


 3022 07b0 7FF4F4AD 		bne	.L303
 3023              	.LVL263:
 3024              	.L300:
 3025              		.loc 1 600 0
 3026 07b4 3A78     		ldrb	r2, [r7]	@ zero_extendqisi2
 3027              		.loc 1 601 0
 3028 07b6 98F81E30 		ldrb	r3, [r8, #30]	@ zero_extendqisi2
 3029              		.loc 1 600 0
 3030 07ba 42F00802 		orr	r2, r2, #8
 3031              		.loc 1 601 0
 3032 07be 23F00103 		bic	r3, r3, #1
 3033              		.loc 1 600 0
 3034 07c2 3A70     		strb	r2, [r7]
 3035              		.loc 1 601 0
 3036 07c4 88F81E30 		strb	r3, [r8, #30]
 3037 07c8 E8E5     		b	.L303
 3038              	.LVL264:
 3039              	.L349:
 3040              	.LBE24:
 3041              	.LBE35:
 3042              		.loc 1 332 0
 3043 07ca B8F86420 		ldrh	r2, [r8, #100]
 3044 07ce 4AB1     		cbz	r2, .L354
 3045              		.loc 1 333 0
 3046 07d0 D8F87C30 		ldr	r3, [r8, #124]
 3047 07d4 33B1     		cbz	r3, .L354
 3048              		.loc 1 333 0 is_stmt 0 discriminator 1
 3049 07d6 D8F81000 		ldr	r0, [r8, #16]
 3050 07da 4146     		mov	r1, r8
 3051 07dc 9847     		blx	r3
 3052              	.LVL265:
 3053              		.loc 1 334 0 is_stmt 1 discriminator 1
 3054 07de 0A30     		adds	r0, r0, #10
 3055              	.LVL266:
 3056 07e0 3FF458AD 		beq	.L297
 3057              	.L354:
 3058              		.loc 1 339 0
 3059 07e4 D9F80030 		ldr	r3, [r9]
 3060 07e8 FBB1     		cbz	r3, .L355
 3061              		.loc 1 340 0
 3062 07ea D8F87830 		ldr	r3, [r8, #120]
 3063 07ee 0BB1     		cbz	r3, .L356
 3064              		.loc 1 340 0 is_stmt 0 discriminator 1
 3065 07f0 FFF7FEFF 		bl	port_halt
 3066              	.LVL267:
 3067              	.L356:
 3068              		.loc 1 341 0 is_stmt 1
 3069 07f4 98F81E20 		ldrb	r2, [r8, #30]	@ zero_extendqisi2
 3070 07f8 02F01002 		and	r2, r2, #16
 3071 07fc 02F0FF03 		and	r3, r2, #255
 3072 0800 002A     		cmp	r2, #0
 3073 0802 3FD1     		bne	.L515
 3074              		.loc 1 350 0
 3075 0804 D8F88040 		ldr	r4, [r8, #128]
 3076 0808 002C     		cmp	r4, #0
 3077 080a 33D0     		beq	.L358
 3078              		.loc 1 350 0 is_stmt 0 discriminator 1
ARM GAS  /tmp/ccnlRhI2.s 			page 55


 3079 080c D8F81000 		ldr	r0, [r8, #16]
 3080 0810 D9F80020 		ldr	r2, [r9]
 3081 0814 4146     		mov	r1, r8
 3082 0816 A047     		blx	r4
 3083              	.LVL268:
 3084              	.L359:
 3085              		.loc 1 351 0 is_stmt 1
 3086 0818 43B2     		sxtb	r3, r0
 3087 081a 0A33     		adds	r3, r3, #10
 3088 081c 3FF43AAD 		beq	.L297
 3089              		.loc 1 356 0
 3090 0820 18B1     		cbz	r0, .L355
 3091              		.loc 1 357 0
 3092 0822 D9F80030 		ldr	r3, [r9]
 3093 0826 C8F87830 		str	r3, [r8, #120]
 3094              	.LVL269:
 3095              	.L355:
 3096              		.loc 1 364 0
 3097 082a 3B78     		ldrb	r3, [r7]	@ zero_extendqisi2
 3098 082c 9C06     		lsls	r4, r3, #26
 3099 082e 06D5     		bpl	.L362
 3100              		.loc 1 365 0
 3101 0830 D8F87830 		ldr	r3, [r8, #120]
 3102 0834 4BB1     		cbz	r3, .L363
 3103              		.loc 1 367 0
 3104 0836 5A7B     		ldrb	r2, [r3, #13]	@ zero_extendqisi2
 3105 0838 42F02002 		orr	r2, r2, #32
 3106 083c 5A73     		strb	r2, [r3, #13]
 3107              	.L362:
 3108              		.loc 1 381 0
 3109 083e 0023     		movs	r3, #0
 3110              		.loc 1 383 0
 3111 0840 4046     		mov	r0, r8
 3112              		.loc 1 381 0
 3113 0842 3360     		str	r3, [r6]
 3114              		.loc 1 383 0
 3115 0844 FFF7FEFF 		bl	tcp_output
 3116              	.LVL270:
 3117 0848 24E5     		b	.L297
 3118              	.L363:
 3119              		.loc 1 371 0
 3120 084a B8F82C30 		ldrh	r3, [r8, #44]
 3121              		.loc 1 374 0
 3122 084e D8F88040 		ldr	r4, [r8, #128]
 3123              		.loc 1 371 0
 3124 0852 B3F5066F 		cmp	r3, #2144
 3125              		.loc 1 372 0
 3126 0856 1CBF     		itt	ne
 3127 0858 0133     		addne	r3, r3, #1
 3128 085a A8F82C30 		strhne	r3, [r8, #44]	@ movhi
 3129              		.loc 1 374 0
 3130 085e 002C     		cmp	r4, #0
 3131 0860 EDD0     		beq	.L362
 3132              		.loc 1 374 0 is_stmt 0 discriminator 1
 3133 0862 0022     		movs	r2, #0
 3134 0864 1346     		mov	r3, r2
 3135 0866 D8F81000 		ldr	r0, [r8, #16]
ARM GAS  /tmp/ccnlRhI2.s 			page 56


 3136 086a 4146     		mov	r1, r8
 3137 086c A047     		blx	r4
 3138              	.LVL271:
 3139              		.loc 1 375 0 is_stmt 1 discriminator 1
 3140 086e 0A30     		adds	r0, r0, #10
 3141              	.LVL272:
 3142 0870 E5D1     		bne	.L362
 3143 0872 0FE5     		b	.L297
 3144              	.L358:
 3145              		.loc 1 350 0 discriminator 2
 3146 0874 2046     		mov	r0, r4
 3147 0876 2346     		mov	r3, r4
 3148 0878 4146     		mov	r1, r8
 3149 087a D9F80020 		ldr	r2, [r9]
 3150 087e FFF7FEFF 		bl	tcp_recv_null
 3151              	.LVL273:
 3152 0882 C9E7     		b	.L359
 3153              	.LVL274:
 3154              	.L515:
 3155              		.loc 1 344 0
 3156 0884 D9F80000 		ldr	r0, [r9]
 3157 0888 FFF7FEFF 		bl	pbuf_free
 3158              	.LVL275:
 3159              	.L492:
 3160              		.loc 1 345 0
 3161 088c 4046     		mov	r0, r8
 3162 088e FFF7FEFF 		bl	tcp_abort
 3163              	.LVL276:
 3164              		.loc 1 346 0
 3165 0892 FFE4     		b	.L297
 3166              	.LVL277:
 3167              	.L498:
 3168              	.LBB36:
 3169              	.LBB25:
 3170              		.loc 1 774 0
 3171 0894 D8F80C20 		ldr	r2, [r8, #12]
 3172 0898 1A60     		str	r2, [r3]
 3173              	.L344:
 3174              		.loc 1 776 0
 3175 089a 40F20003 		movw	r3, #:lower16:tcp_tw_pcbs
 3176 089e C0F20003 		movt	r3, #:upper16:tcp_tw_pcbs
 3177              		.loc 1 774 0
 3178 08a2 40F20002 		movw	r2, #:lower16:tcp_active_pcbs_changed
 3179              		.loc 1 776 0
 3180 08a6 1968     		ldr	r1, [r3]
 3181 08a8 C3F80080 		str	r8, [r3]
 3182              		.loc 1 774 0
 3183 08ac C0F20002 		movt	r2, #:upper16:tcp_active_pcbs_changed
 3184              		.loc 1 775 0
 3185 08b0 0A20     		movs	r0, #10
 3186              		.loc 1 774 0
 3187 08b2 0123     		movs	r3, #1
 3188              		.loc 1 776 0
 3189 08b4 C8F80C10 		str	r1, [r8, #12]
 3190              		.loc 1 775 0
 3191 08b8 88F81800 		strb	r0, [r8, #24]
 3192              		.loc 1 774 0
ARM GAS  /tmp/ccnlRhI2.s 			page 57


 3193 08bc 1370     		strb	r3, [r2]
 3194              		.loc 1 776 0
 3195 08be FFF7FEFF 		bl	tcp_timer_needed
 3196              	.LVL278:
 3197 08c2 6BE5     		b	.L303
 3198              	.LVL279:
 3199              	.L502:
 3200              	.LBE25:
 3201              	.LBE36:
 3202              		.loc 1 182 0 discriminator 1
 3203 08c4 FFF7FEFF 		bl	port_halt
 3204              	.LVL280:
 3205 08c8 D8F80C30 		ldr	r3, [r8, #12]
 3206 08cc 97E4     		b	.L276
 3207              	.LVL281:
 3208              	.L284:
 3209              	.LBB37:
 3210              	.LBB13:
 3211              		.loc 1 549 0
 3212 08ce D807     		lsls	r0, r3, #31
 3213              		.loc 1 552 0
 3214 08d0 41BF     		itttt	mi
 3215 08d2 40F20003 		movwmi	r3, #:lower16:tcp_ticks
 3216 08d6 C0F20003 		movtmi	r3, #:upper16:tcp_ticks
 3217 08da 1B68     		ldrmi	r3, [r3]
 3218 08dc C8F82430 		strmi	r3, [r8, #36]
 3219 08e0 33E5     		b	.L285
 3220              	.LVL282:
 3221              	.L503:
 3222              	.LBE13:
 3223              	.LBE37:
 3224              		.loc 1 188 0 discriminator 1
 3225 08e2 FFF7FEFF 		bl	port_halt
 3226              	.LVL283:
 3227 08e6 99E4     		b	.L278
 3228              	.LVL284:
 3229              	.L505:
 3230              	.LBB38:
 3231              	.LBB14:
 3232              		.loc 1 545 0
 3233 08e8 049A     		ldr	r2, [sp, #16]
 3234 08ea 1488     		ldrh	r4, [r2]
 3235 08ec CDF800C0 		str	ip, [sp]
 3236 08f0 0190     		str	r0, [sp, #4]
 3237 08f2 40F20002 		movw	r2, #:lower16:current_iphdr_dest
 3238 08f6 40F20003 		movw	r3, #:lower16:current_iphdr_src
 3239 08fa 2144     		add	r1, r1, r4
 3240 08fc DAF80000 		ldr	r0, [r10]
 3241 0900 C0F20002 		movt	r2, #:upper16:current_iphdr_dest
 3242 0904 C0F20003 		movt	r3, #:upper16:current_iphdr_src
 3243 0908 FFF7FEFF 		bl	tcp_rst
 3244              	.LVL285:
 3245 090c 29E5     		b	.L283
 3246              	.LVL286:
 3247              	.L511:
 3248              	.LBE14:
 3249              	.LBE38:
ARM GAS  /tmp/ccnlRhI2.s 			page 58


 3250              	.LBB39:
 3251              	.LBB33:
 3252              		.loc 1 511 0
 3253 090e 5046     		mov	r0, r10
 3254              	.LVL287:
 3255 0910 4146     		mov	r1, r8
 3256 0912 FFF7FEFF 		bl	tcp_abandon
 3257              	.LVL288:
 3258 0916 24E5     		b	.L283
 3259              	.LVL289:
 3260              	.L510:
 3261              		.loc 1 472 0
 3262 0918 B4F89C30 		ldrh	r3, [r4, #156]
 3263 091c 0133     		adds	r3, r3, #1
 3264 091e A4F89C30 		strh	r3, [r4, #156]	@ movhi
 3265 0922 1EE5     		b	.L283
 3266              	.LVL290:
 3267              	.L509:
 3268              		.loc 1 456 0
 3269 0924 0092     		str	r2, [sp]
 3270 0926 039C     		ldr	r4, [sp, #12]
 3271 0928 049A     		ldr	r2, [sp, #16]
 3272 092a BBF80030 		ldrh	r3, [fp]	@ unaligned
 3273 092e 1088     		ldrh	r0, [r2]
 3274 0930 2168     		ldr	r1, [r4]
 3275 0932 0193     		str	r3, [sp, #4]
 3276 0934 40F20002 		movw	r2, #:lower16:current_iphdr_dest
 3277 0938 40F20003 		movw	r3, #:lower16:current_iphdr_src
 3278 093c 0144     		add	r1, r1, r0
 3279 093e C0F20002 		movt	r2, #:upper16:current_iphdr_dest
 3280 0942 DAF80000 		ldr	r0, [r10]
 3281 0946 C0F20003 		movt	r3, #:upper16:current_iphdr_src
 3282 094a FFF7FEFF 		bl	tcp_rst
 3283              	.LVL291:
 3284 094e 08E5     		b	.L283
 3285              	.LVL292:
 3286              	.L513:
 3287              	.LBE33:
 3288              	.LBE39:
 3289              	.LBB40:
 3290              	.LBB26:
 3291              		.loc 1 633 0
 3292 0950 D8F87030 		ldr	r3, [r8, #112]
 3293 0954 DB68     		ldr	r3, [r3, #12]
 3294 0956 5868     		ldr	r0, [r3, #4]	@ unaligned
 3295 0958 FFF7FEFF 		bl	lwip_ntohl
 3296              	.LVL293:
 3297 095c DAF80030 		ldr	r3, [r10]
 3298 0960 0130     		adds	r0, r0, #1
 3299 0962 9842     		cmp	r0, r3
 3300 0964 7FF49EAE 		bne	.L314
 3301              		.loc 1 635 0
 3302 0968 039A     		ldr	r2, [sp, #12]
 3303              		.loc 1 638 0
 3304 096a 2B68     		ldr	r3, [r5]
 3305              		.loc 1 635 0
 3306 096c 1168     		ldr	r1, [r2]
ARM GAS  /tmp/ccnlRhI2.s 			page 59


 3307              		.loc 1 634 0
 3308 096e B8F86640 		ldrh	r4, [r8, #102]
 3309              		.loc 1 638 0
 3310 0972 DA89     		ldrh	r2, [r3, #14]	@ unaligned
 3311              		.loc 1 637 0
 3312 0974 C8F84800 		str	r0, [r8, #72]
 3313              		.loc 1 635 0
 3314 0978 4B1C     		adds	r3, r1, #1
 3315              		.loc 1 641 0
 3316 097a 0420     		movs	r0, #4
 3317              		.loc 1 640 0
 3318 097c 0139     		subs	r1, r1, #1
 3319              		.loc 1 634 0
 3320 097e 0134     		adds	r4, r4, #1
 3321              		.loc 1 638 0
 3322 0980 A8F86020 		strh	r2, [r8, #96]	@ movhi
 3323              		.loc 1 639 0
 3324 0984 A8F86220 		strh	r2, [r8, #98]	@ movhi
 3325              		.loc 1 635 0
 3326 0988 C8F82830 		str	r3, [r8, #40]
 3327              		.loc 1 636 0
 3328 098c C8F83030 		str	r3, [r8, #48]
 3329              		.loc 1 640 0
 3330 0990 C8F85410 		str	r1, [r8, #84]
 3331              		.loc 1 641 0
 3332 0994 88F81800 		strb	r0, [r8, #24]
 3333              		.loc 1 634 0
 3334 0998 A8F86640 		strh	r4, [r8, #102]	@ movhi
 3335              		.loc 1 644 0
 3336 099c B8F83600 		ldrh	r0, [r8, #54]
 3337 09a0 08F10401 		add	r1, r8, #4
 3338 09a4 FFF7FEFF 		bl	tcp_eff_send_mss
 3339              	.LVL294:
 3340              		.loc 1 651 0
 3341 09a8 B8F84C30 		ldrh	r3, [r8, #76]
 3342              		.loc 1 644 0
 3343 09ac A8F83600 		strh	r0, [r8, #54]	@ movhi
 3344              		.loc 1 651 0
 3345 09b0 012B     		cmp	r3, #1
 3346              		.loc 1 649 0
 3347 09b2 4FF00A02 		mov	r2, #10
 3348 09b6 02FB00F2 		mul	r2, r2, r0
 3349              		.loc 1 652 0
 3350 09ba B8F86830 		ldrh	r3, [r8, #104]
 3351              		.loc 1 649 0
 3352 09be A8F84E20 		strh	r2, [r8, #78]	@ movhi
 3353              		.loc 1 651 0
 3354 09c2 04BF     		itt	eq
 3355 09c4 4000     		lsleq	r0, r0, #1
 3356 09c6 80B2     		uxtheq	r0, r0
 3357 09c8 A8F84C00 		strh	r0, [r8, #76]	@ movhi
 3358              		.loc 1 652 0
 3359 09cc 0BB9     		cbnz	r3, .L316
 3360 09ce FFF7FEFF 		bl	port_halt
 3361              	.LVL295:
 3362              	.L316:
 3363              		.loc 1 655 0
ARM GAS  /tmp/ccnlRhI2.s 			page 60


 3364 09d2 D8F87000 		ldr	r0, [r8, #112]
 3365              	.LVL296:
 3366              		.loc 1 653 0
 3367 09d6 B8F86820 		ldrh	r2, [r8, #104]
 3368              		.loc 1 656 0
 3369 09da 0368     		ldr	r3, [r0]
 3370              		.loc 1 653 0
 3371 09dc 013A     		subs	r2, r2, #1
 3372              		.loc 1 656 0
 3373 09de C8F87030 		str	r3, [r8, #112]
 3374              		.loc 1 653 0
 3375 09e2 A8F86820 		strh	r2, [r8, #104]	@ movhi
 3376              		.loc 1 657 0
 3377 09e6 FFF7FEFF 		bl	tcp_seg_free
 3378              	.LVL297:
 3379              		.loc 1 661 0
 3380 09ea D8F87030 		ldr	r3, [r8, #112]
 3381 09ee 13B3     		cbz	r3, .L516
 3382              		.loc 1 664 0
 3383 09f0 0023     		movs	r3, #0
 3384 09f2 A8F83430 		strh	r3, [r8, #52]	@ movhi
 3385              		.loc 1 665 0
 3386 09f6 88F84630 		strb	r3, [r8, #70]
 3387              	.L318:
 3388              		.loc 1 670 0
 3389 09fa D8F88430 		ldr	r3, [r8, #132]
 3390 09fe 002B     		cmp	r3, #0
 3391 0a00 3FF4EDAC 		beq	.L321
 3392 0a04 D8F81000 		ldr	r0, [r8, #16]
 3393 0a08 4146     		mov	r1, r8
 3394 0a0a 0022     		movs	r2, #0
 3395 0a0c 9847     		blx	r3
 3396              	.LVL298:
 3397              		.loc 1 671 0
 3398 0a0e 0A30     		adds	r0, r0, #10
 3399              	.LVL299:
 3400 0a10 7FF4E5AC 		bne	.L321
 3401 0a14 3EE4     		b	.L297
 3402              	.LVL300:
 3403              	.L514:
 3404              	.LBB17:
 3405              		.loc 1 691 0
 3406 0a16 D8F81430 		ldr	r3, [r8, #20]
 3407              		.loc 1 688 0
 3408 0a1a 0422     		movs	r2, #4
 3409 0a1c 88F81820 		strb	r2, [r8, #24]
 3410              		.loc 1 691 0
 3411 0a20 33B3     		cbz	r3, .L517
 3412              	.L324:
 3413              		.loc 1 694 0
 3414 0a22 D8F81000 		ldr	r0, [r8, #16]
 3415 0a26 4146     		mov	r1, r8
 3416 0a28 0022     		movs	r2, #0
 3417 0a2a 9847     		blx	r3
 3418              	.LVL301:
 3419              		.loc 1 695 0
 3420 0a2c 40B1     		cbz	r0, .L326
ARM GAS  /tmp/ccnlRhI2.s 			page 61


 3421              		.loc 1 699 0
 3422 0a2e 0A30     		adds	r0, r0, #10
 3423              	.LVL302:
 3424 0a30 7FF42CAF 		bne	.L492
 3425 0a34 2EE4     		b	.L297
 3426              	.LVL303:
 3427              	.L516:
 3428              	.LBE17:
 3429              		.loc 1 662 0
 3430 0a36 4FF6FF73 		movw	r3, #65535
 3431 0a3a A8F83430 		strh	r3, [r8, #52]	@ movhi
 3432 0a3e DCE7     		b	.L318
 3433              	.LVL304:
 3434              	.L326:
 3435              	.LBB18:
 3436              		.loc 1 707 0
 3437 0a40 4046     		mov	r0, r8
 3438              	.LVL305:
 3439              		.loc 1 704 0
 3440 0a42 B8F84C40 		ldrh	r4, [r8, #76]
 3441              	.LVL306:
 3442              		.loc 1 707 0
 3443 0a46 FFF7FEFF 		bl	tcp_receive
 3444              	.LVL307:
 3445              		.loc 1 710 0
 3446 0a4a B8F86430 		ldrh	r3, [r8, #100]
 3447 0a4e 13B1     		cbz	r3, .L328
 3448              		.loc 1 711 0
 3449 0a50 013B     		subs	r3, r3, #1
 3450 0a52 A8F86430 		strh	r3, [r8, #100]	@ movhi
 3451              	.L328:
 3452              		.loc 1 714 0
 3453 0a56 B8F83630 		ldrh	r3, [r8, #54]
 3454              		.loc 1 716 0
 3455 0a5a 3A78     		ldrb	r2, [r7]	@ zero_extendqisi2
 3456              		.loc 1 714 0
 3457 0a5c 012C     		cmp	r4, #1
 3458 0a5e 04BF     		itt	eq
 3459 0a60 5B00     		lsleq	r3, r3, #1
 3460 0a62 9BB2     		uxtheq	r3, r3
 3461              		.loc 1 716 0
 3462 0a64 9006     		lsls	r0, r2, #26
 3463              		.loc 1 714 0
 3464 0a66 A8F84C30 		strh	r3, [r8, #76]	@ movhi
 3465              		.loc 1 716 0
 3466 0a6a 7FF597AC 		bpl	.L303
 3467 0a6e 3CE6     		b	.L494
 3468              	.LVL308:
 3469              	.L517:
 3470              		.loc 1 691 0
 3471 0a70 FFF7FEFF 		bl	port_halt
 3472              	.LVL309:
 3473              		.loc 1 694 0
 3474 0a74 D8F81430 		ldr	r3, [r8, #20]
 3475 0a78 002B     		cmp	r3, #0
 3476 0a7a D2D1     		bne	.L324
 3477 0a7c 06E7     		b	.L492
ARM GAS  /tmp/ccnlRhI2.s 			page 62


 3478              	.L322:
 3479              	.LBE18:
 3480              		.loc 1 725 0
 3481 0a7e 9907     		lsls	r1, r3, #30
 3482 0a80 7FF58CAC 		bpl	.L303
 3483 0a84 0399     		ldr	r1, [sp, #12]
 3484 0a86 D8F82830 		ldr	r3, [r8, #40]
 3485 0a8a 0A68     		ldr	r2, [r1]
 3486 0a8c 013B     		subs	r3, r3, #1
 3487 0a8e 9342     		cmp	r3, r2
 3488 0a90 7FF484AC 		bne	.L303
 3489              		.loc 1 727 0
 3490 0a94 4046     		mov	r0, r8
 3491 0a96 FFF7FEFF 		bl	tcp_rexmit
 3492              	.LVL310:
 3493 0a9a 7FE4     		b	.L303
 3494              	.L507:
 3495              	.LVL311:
 3496              		.loc 1 599 0
 3497 0a9c 002A     		cmp	r2, #0
 3498 0a9e 7FF489AE 		bne	.L300
 3499 0aa2 FFF7FEFF 		bl	port_halt
 3500              	.LVL312:
 3501 0aa6 85E6     		b	.L300
 3502              	.LVL313:
 3503              	.L331:
 3504              		.loc 1 754 0
 3505 0aa8 029C     		ldr	r4, [sp, #8]
 3506 0aaa 2378     		ldrb	r3, [r4]	@ zero_extendqisi2
 3507 0aac DC06     		lsls	r4, r3, #27
 3508 0aae 7FF575AC 		bpl	.L303
 3509 0ab2 DAF80020 		ldr	r2, [r10]
 3510 0ab6 D8F85030 		ldr	r3, [r8, #80]
 3511 0aba 9342     		cmp	r3, r2
 3512 0abc 7FF46EAC 		bne	.L303
 3513              		.loc 1 755 0
 3514 0ac0 0623     		movs	r3, #6
 3515 0ac2 88F81830 		strb	r3, [r8, #24]
 3516 0ac6 69E4     		b	.L303
 3517              	.L512:
 3518              		.loc 1 745 0
 3519 0ac8 98F81E30 		ldrb	r3, [r8, #30]	@ zero_extendqisi2
 3520 0acc 43F00203 		orr	r3, r3, #2
 3521 0ad0 88F81E30 		strb	r3, [r8, #30]
 3522              		.loc 1 746 0
 3523 0ad4 4046     		mov	r0, r8
 3524 0ad6 FFF7FEFF 		bl	tcp_pcb_purge
 3525              	.LVL314:
 3526              		.loc 1 747 0
 3527 0ada 059B     		ldr	r3, [sp, #20]
 3528 0adc 1968     		ldr	r1, [r3]
 3529 0ade 40F20003 		movw	r3, #:lower16:tcp_active_pcbs
 3530 0ae2 4145     		cmp	r1, r8
 3531 0ae4 C0F20003 		movt	r3, #:upper16:tcp_active_pcbs
 3532 0ae8 3FF4D4AE 		beq	.L498
 3533 0aec 40F20003 		movw	r3, #:lower16:tcp_tmp_pcb
 3534 0af0 C0F20003 		movt	r3, #:upper16:tcp_tmp_pcb
ARM GAS  /tmp/ccnlRhI2.s 			page 63


 3535 0af4 0A46     		mov	r2, r1
 3536 0af6 1960     		str	r1, [r3]
 3537              	.L335:
 3538 0af8 4AB1     		cbz	r2, .L496
 3539 0afa D168     		ldr	r1, [r2, #12]
 3540 0afc 4145     		cmp	r1, r8
 3541 0afe 01D0     		beq	.L497
 3542 0b00 0A46     		mov	r2, r1
 3543 0b02 F9E7     		b	.L335
 3544              	.L497:
 3545              		.loc 1 774 0
 3546 0b04 D8F80C10 		ldr	r1, [r8, #12]
 3547 0b08 1A60     		str	r2, [r3]
 3548 0b0a D160     		str	r1, [r2, #12]
 3549 0b0c C5E6     		b	.L344
 3550              	.L496:
 3551 0b0e 1A60     		str	r2, [r3]
 3552 0b10 C3E6     		b	.L344
 3553              	.LBE26:
 3554              	.LBE40:
 3555              		.cfi_endproc
 3556              	.LFE7:
 3557              		.size	tcp_input, .-tcp_input
 3558              		.global	tcp_input_pcb
 3559 0b12 00BFAFF3 		.section	.bss.seqno,"aw",%nobits
 3559      0080AFF3 
 3559      0080AFF3 
 3559      0080
 3560              		.align	2
 3561              		.set	.LANCHOR0,. + 0
 3562              		.type	seqno, %object
 3563              		.size	seqno, 4
 3564              	seqno:
 3565 0000 00000000 		.space	4
 3566              		.section	.bss.iphdr,"aw",%nobits
 3567              		.align	2
 3568              		.set	.LANCHOR8,. + 0
 3569              		.type	iphdr, %object
 3570              		.size	iphdr, 4
 3571              	iphdr:
 3572 0000 00000000 		.space	4
 3573              		.section	.bss.tcplen,"aw",%nobits
 3574              		.align	1
 3575              		.set	.LANCHOR4,. + 0
 3576              		.type	tcplen, %object
 3577              		.size	tcplen, 2
 3578              	tcplen:
 3579 0000 0000     		.space	2
 3580              		.section	.bss.ackno,"aw",%nobits
 3581              		.align	2
 3582              		.set	.LANCHOR3,. + 0
 3583              		.type	ackno, %object
 3584              		.size	ackno, 4
 3585              	ackno:
 3586 0000 00000000 		.space	4
 3587              		.section	.bss.flags,"aw",%nobits
 3588              		.set	.LANCHOR1,. + 0
ARM GAS  /tmp/ccnlRhI2.s 			page 64


 3589              		.type	flags, %object
 3590              		.size	flags, 1
 3591              	flags:
 3592 0000 00       		.space	1
 3593              		.section	.bss.recv_flags,"aw",%nobits
 3594              		.set	.LANCHOR7,. + 0
 3595              		.type	recv_flags, %object
 3596              		.size	recv_flags, 1
 3597              	recv_flags:
 3598 0000 00       		.space	1
 3599              		.section	.bss.tcphdr,"aw",%nobits
 3600              		.align	2
 3601              		.set	.LANCHOR2,. + 0
 3602              		.type	tcphdr, %object
 3603              		.size	tcphdr, 4
 3604              	tcphdr:
 3605 0000 00000000 		.space	4
 3606              		.section	.bss.recv_data,"aw",%nobits
 3607              		.align	2
 3608              		.set	.LANCHOR6,. + 0
 3609              		.type	recv_data, %object
 3610              		.size	recv_data, 4
 3611              	recv_data:
 3612 0000 00000000 		.space	4
 3613              		.section	.bss.inseg,"aw",%nobits
 3614              		.align	2
 3615              		.set	.LANCHOR5,. + 0
 3616              		.type	inseg, %object
 3617              		.size	inseg, 16
 3618              	inseg:
 3619 0000 00000000 		.space	16
 3619      00000000 
 3619      00000000 
 3619      00000000 
 3620              		.section	.bss.tcp_input_pcb,"aw",%nobits
 3621              		.align	2
 3622              		.set	.LANCHOR9,. + 0
 3623              		.type	tcp_input_pcb, %object
 3624              		.size	tcp_input_pcb, 4
 3625              	tcp_input_pcb:
 3626 0000 00000000 		.space	4
 3627              		.text
 3628              	.Letext0:
 3629              		.file 2 "/usr/include/newlib/machine/_default_types.h"
 3630              		.file 3 "/usr/include/newlib/stdint.h"
 3631              		.file 4 "../../os/various/lwip_bindings/arch/cc.h"
 3632              		.file 5 "../../ext/lwip/src/include/lwip/mem.h"
 3633              		.file 6 "../../ext/lwip/src/include/lwip/err.h"
 3634              		.file 7 "../../ext/lwip/src/include/lwip/pbuf.h"
 3635              		.file 8 "../../ext/lwip/src/include/ipv4/lwip/ip_addr.h"
 3636              		.file 9 "../../ext/lwip/src/include/lwip/netif.h"
 3637              		.file 10 "../../ext/lwip/src/include/ipv4/lwip/ip.h"
 3638              		.file 11 "../../ext/lwip/src/include/lwip/tcp.h"
 3639              		.file 12 "../../ext/lwip/src/include/lwip/tcp_impl.h"
 3640              		.file 13 "../../ext/lwip/src/include/lwip/memp.h"
 3641              		.file 14 "../../ext/lwip/src/include/lwip/stats.h"
 3642              		.file 15 "../../ext/lwip/src/include/lwip/def.h"
ARM GAS  /tmp/ccnlRhI2.s 			page 65


 3643              		.file 16 "../../os/ports/GCC/ARMCMx/chcore_v7m.h"
 3644              		.file 17 "../../ext/lwip/src/include/ipv4/lwip/inet_chksum.h"
 3645              		.section	.debug_info,"",%progbits
 3646              	.Ldebug_info0:
 3647 0000 121B0000 		.4byte	0x1b12
 3648 0004 0400     		.2byte	0x4
 3649 0006 00000000 		.4byte	.Ldebug_abbrev0
 3650 000a 04       		.byte	0x4
 3651 000b 01       		.uleb128 0x1
 3652 000c 6A080000 		.4byte	.LASF247
 3653 0010 01       		.byte	0x1
 3654 0011 09070000 		.4byte	.LASF248
 3655 0015 39000000 		.4byte	.LASF249
 3656 0019 A0000000 		.4byte	.Ldebug_ranges0+0xa0
 3657 001d 00000000 		.4byte	0
 3658 0021 00000000 		.4byte	.Ldebug_line0
 3659 0025 02       		.uleb128 0x2
 3660 0026 04       		.byte	0x4
 3661 0027 05       		.byte	0x5
 3662 0028 696E7400 		.ascii	"int\000"
 3663 002c 03       		.uleb128 0x3
 3664 002d 04       		.byte	0x4
 3665 002e 07       		.byte	0x7
 3666 002f DE000000 		.4byte	.LASF0
 3667 0033 04       		.uleb128 0x4
 3668 0034 23060000 		.4byte	.LASF2
 3669 0038 02       		.byte	0x2
 3670 0039 1B       		.byte	0x1b
 3671 003a 3E000000 		.4byte	0x3e
 3672 003e 03       		.uleb128 0x3
 3673 003f 01       		.byte	0x1
 3674 0040 06       		.byte	0x6
 3675 0041 3B0A0000 		.4byte	.LASF1
 3676 0045 04       		.uleb128 0x4
 3677 0046 B4070000 		.4byte	.LASF3
 3678 004a 02       		.byte	0x2
 3679 004b 1C       		.byte	0x1c
 3680 004c 50000000 		.4byte	0x50
 3681 0050 03       		.uleb128 0x3
 3682 0051 01       		.byte	0x1
 3683 0052 08       		.byte	0x8
 3684 0053 79090000 		.4byte	.LASF4
 3685 0057 04       		.uleb128 0x4
 3686 0058 9A050000 		.4byte	.LASF5
 3687 005c 02       		.byte	0x2
 3688 005d 25       		.byte	0x25
 3689 005e 62000000 		.4byte	0x62
 3690 0062 03       		.uleb128 0x3
 3691 0063 02       		.byte	0x2
 3692 0064 05       		.byte	0x5
 3693 0065 B4060000 		.4byte	.LASF6
 3694 0069 04       		.uleb128 0x4
 3695 006a D4020000 		.4byte	.LASF7
 3696 006e 02       		.byte	0x2
 3697 006f 26       		.byte	0x26
 3698 0070 74000000 		.4byte	0x74
 3699 0074 03       		.uleb128 0x3
ARM GAS  /tmp/ccnlRhI2.s 			page 66


 3700 0075 02       		.byte	0x2
 3701 0076 07       		.byte	0x7
 3702 0077 4F0A0000 		.4byte	.LASF8
 3703 007b 04       		.uleb128 0x4
 3704 007c 12010000 		.4byte	.LASF9
 3705 0080 02       		.byte	0x2
 3706 0081 37       		.byte	0x37
 3707 0082 86000000 		.4byte	0x86
 3708 0086 03       		.uleb128 0x3
 3709 0087 04       		.byte	0x4
 3710 0088 05       		.byte	0x5
 3711 0089 C3060000 		.4byte	.LASF10
 3712 008d 04       		.uleb128 0x4
 3713 008e 87090000 		.4byte	.LASF11
 3714 0092 02       		.byte	0x2
 3715 0093 38       		.byte	0x38
 3716 0094 98000000 		.4byte	0x98
 3717 0098 03       		.uleb128 0x3
 3718 0099 04       		.byte	0x4
 3719 009a 07       		.byte	0x7
 3720 009b 58080000 		.4byte	.LASF12
 3721 009f 03       		.uleb128 0x3
 3722 00a0 08       		.byte	0x8
 3723 00a1 05       		.byte	0x5
 3724 00a2 42050000 		.4byte	.LASF13
 3725 00a6 03       		.uleb128 0x3
 3726 00a7 08       		.byte	0x8
 3727 00a8 07       		.byte	0x7
 3728 00a9 AB020000 		.4byte	.LASF14
 3729 00ad 04       		.uleb128 0x4
 3730 00ae 2E020000 		.4byte	.LASF15
 3731 00b2 03       		.byte	0x3
 3732 00b3 29       		.byte	0x29
 3733 00b4 33000000 		.4byte	0x33
 3734 00b8 04       		.uleb128 0x4
 3735 00b9 B2040000 		.4byte	.LASF16
 3736 00bd 03       		.byte	0x3
 3737 00be 2A       		.byte	0x2a
 3738 00bf 45000000 		.4byte	0x45
 3739 00c3 04       		.uleb128 0x4
 3740 00c4 8D020000 		.4byte	.LASF17
 3741 00c8 03       		.byte	0x3
 3742 00c9 35       		.byte	0x35
 3743 00ca 57000000 		.4byte	0x57
 3744 00ce 04       		.uleb128 0x4
 3745 00cf 60060000 		.4byte	.LASF18
 3746 00d3 03       		.byte	0x3
 3747 00d4 36       		.byte	0x36
 3748 00d5 69000000 		.4byte	0x69
 3749 00d9 04       		.uleb128 0x4
 3750 00da 33090000 		.4byte	.LASF19
 3751 00de 03       		.byte	0x3
 3752 00df 41       		.byte	0x41
 3753 00e0 7B000000 		.4byte	0x7b
 3754 00e4 04       		.uleb128 0x4
 3755 00e5 25020000 		.4byte	.LASF20
 3756 00e9 03       		.byte	0x3
ARM GAS  /tmp/ccnlRhI2.s 			page 67


 3757 00ea 42       		.byte	0x42
 3758 00eb 8D000000 		.4byte	0x8d
 3759 00ef 03       		.uleb128 0x3
 3760 00f0 01       		.byte	0x1
 3761 00f1 02       		.byte	0x2
 3762 00f2 92030000 		.4byte	.LASF21
 3763 00f6 05       		.uleb128 0x5
 3764 00f7 04       		.byte	0x4
 3765 00f8 03       		.uleb128 0x3
 3766 00f9 04       		.byte	0x4
 3767 00fa 07       		.byte	0x7
 3768 00fb 4F080000 		.4byte	.LASF22
 3769 00ff 03       		.uleb128 0x3
 3770 0100 01       		.byte	0x1
 3771 0101 08       		.byte	0x8
 3772 0102 4B040000 		.4byte	.LASF23
 3773 0106 04       		.uleb128 0x4
 3774 0107 95050000 		.4byte	.LASF24
 3775 010b 04       		.byte	0x4
 3776 010c 38       		.byte	0x38
 3777 010d B8000000 		.4byte	0xb8
 3778 0111 04       		.uleb128 0x4
 3779 0112 CB030000 		.4byte	.LASF25
 3780 0116 04       		.byte	0x4
 3781 0117 39       		.byte	0x39
 3782 0118 AD000000 		.4byte	0xad
 3783 011c 04       		.uleb128 0x4
 3784 011d 2C010000 		.4byte	.LASF26
 3785 0121 04       		.byte	0x4
 3786 0122 3A       		.byte	0x3a
 3787 0123 CE000000 		.4byte	0xce
 3788 0127 04       		.uleb128 0x4
 3789 0128 2D090000 		.4byte	.LASF27
 3790 012c 04       		.byte	0x4
 3791 012d 3B       		.byte	0x3b
 3792 012e C3000000 		.4byte	0xc3
 3793 0132 04       		.uleb128 0x4
 3794 0133 AE060000 		.4byte	.LASF28
 3795 0137 04       		.byte	0x4
 3796 0138 3C       		.byte	0x3c
 3797 0139 E4000000 		.4byte	0xe4
 3798 013d 04       		.uleb128 0x4
 3799 013e D0030000 		.4byte	.LASF29
 3800 0142 04       		.byte	0x4
 3801 0143 3D       		.byte	0x3d
 3802 0144 D9000000 		.4byte	0xd9
 3803 0148 04       		.uleb128 0x4
 3804 0149 69040000 		.4byte	.LASF30
 3805 014d 05       		.byte	0x5
 3806 014e 4C       		.byte	0x4c
 3807 014f 1C010000 		.4byte	0x11c
 3808 0153 04       		.uleb128 0x4
 3809 0154 01010000 		.4byte	.LASF31
 3810 0158 06       		.byte	0x6
 3811 0159 2F       		.byte	0x2f
 3812 015a 11010000 		.4byte	0x111
 3813 015e 06       		.uleb128 0x6
ARM GAS  /tmp/ccnlRhI2.s 			page 68


 3814 015f B1090000 		.4byte	.LASF37
 3815 0163 10       		.byte	0x10
 3816 0164 07       		.byte	0x7
 3817 0165 4F       		.byte	0x4f
 3818 0166 BF010000 		.4byte	0x1bf
 3819 016a 07       		.uleb128 0x7
 3820 016b FC000000 		.4byte	.LASF32
 3821 016f 07       		.byte	0x7
 3822 0170 51       		.byte	0x51
 3823 0171 BF010000 		.4byte	0x1bf
 3824 0175 00       		.byte	0
 3825 0176 07       		.uleb128 0x7
 3826 0177 5C030000 		.4byte	.LASF33
 3827 017b 07       		.byte	0x7
 3828 017c 54       		.byte	0x54
 3829 017d F6000000 		.4byte	0xf6
 3830 0181 04       		.byte	0x4
 3831 0182 07       		.uleb128 0x7
 3832 0183 54030000 		.4byte	.LASF34
 3833 0187 07       		.byte	0x7
 3834 0188 5D       		.byte	0x5d
 3835 0189 1C010000 		.4byte	0x11c
 3836 018d 08       		.byte	0x8
 3837 018e 08       		.uleb128 0x8
 3838 018f 6C656E00 		.ascii	"len\000"
 3839 0193 07       		.byte	0x7
 3840 0194 60       		.byte	0x60
 3841 0195 1C010000 		.4byte	0x11c
 3842 0199 0A       		.byte	0xa
 3843 019a 07       		.uleb128 0x7
 3844 019b 6A090000 		.4byte	.LASF35
 3845 019f 07       		.byte	0x7
 3846 01a0 63       		.byte	0x63
 3847 01a1 06010000 		.4byte	0x106
 3848 01a5 0C       		.byte	0xc
 3849 01a6 07       		.uleb128 0x7
 3850 01a7 CE000000 		.4byte	.LASF36
 3851 01ab 07       		.byte	0x7
 3852 01ac 66       		.byte	0x66
 3853 01ad 06010000 		.4byte	0x106
 3854 01b1 0D       		.byte	0xd
 3855 01b2 08       		.uleb128 0x8
 3856 01b3 72656600 		.ascii	"ref\000"
 3857 01b7 07       		.byte	0x7
 3858 01b8 6D       		.byte	0x6d
 3859 01b9 1C010000 		.4byte	0x11c
 3860 01bd 0E       		.byte	0xe
 3861 01be 00       		.byte	0
 3862 01bf 09       		.uleb128 0x9
 3863 01c0 04       		.byte	0x4
 3864 01c1 5E010000 		.4byte	0x15e
 3865 01c5 06       		.uleb128 0x6
 3866 01c6 190B0000 		.4byte	.LASF38
 3867 01ca 04       		.byte	0x4
 3868 01cb 08       		.byte	0x8
 3869 01cc 2C       		.byte	0x2c
 3870 01cd DE010000 		.4byte	0x1de
ARM GAS  /tmp/ccnlRhI2.s 			page 69


 3871 01d1 07       		.uleb128 0x7
 3872 01d2 F0090000 		.4byte	.LASF39
 3873 01d6 08       		.byte	0x8
 3874 01d7 2D       		.byte	0x2d
 3875 01d8 32010000 		.4byte	0x132
 3876 01dc 00       		.byte	0
 3877 01dd 00       		.byte	0
 3878 01de 06       		.uleb128 0x6
 3879 01df 8C040000 		.4byte	.LASF40
 3880 01e3 04       		.byte	0x4
 3881 01e4 08       		.byte	0x8
 3882 01e5 36       		.byte	0x36
 3883 01e6 F7010000 		.4byte	0x1f7
 3884 01ea 07       		.uleb128 0x7
 3885 01eb F0090000 		.4byte	.LASF39
 3886 01ef 08       		.byte	0x8
 3887 01f0 37       		.byte	0x37
 3888 01f1 32010000 		.4byte	0x132
 3889 01f5 00       		.byte	0
 3890 01f6 00       		.byte	0
 3891 01f7 04       		.uleb128 0x4
 3892 01f8 BD0A0000 		.4byte	.LASF41
 3893 01fc 08       		.byte	0x8
 3894 01fd 40       		.byte	0x40
 3895 01fe C5010000 		.4byte	0x1c5
 3896 0202 04       		.uleb128 0x4
 3897 0203 B6090000 		.4byte	.LASF42
 3898 0207 08       		.byte	0x8
 3899 0208 41       		.byte	0x41
 3900 0209 DE010000 		.4byte	0x1de
 3901 020d 09       		.uleb128 0x9
 3902 020e 04       		.byte	0x4
 3903 020f 13020000 		.4byte	0x213
 3904 0213 06       		.uleb128 0x6
 3905 0214 000A0000 		.4byte	.LASF43
 3906 0218 30       		.byte	0x30
 3907 0219 09       		.byte	0x9
 3908 021a 88       		.byte	0x88
 3909 021b C7020000 		.4byte	0x2c7
 3910 021f 07       		.uleb128 0x7
 3911 0220 FC000000 		.4byte	.LASF32
 3912 0224 09       		.byte	0x9
 3913 0225 8A       		.byte	0x8a
 3914 0226 0D020000 		.4byte	0x20d
 3915 022a 00       		.byte	0
 3916 022b 07       		.uleb128 0x7
 3917 022c 190B0000 		.4byte	.LASF38
 3918 0230 09       		.byte	0x9
 3919 0231 8D       		.byte	0x8d
 3920 0232 F7010000 		.4byte	0x1f7
 3921 0236 04       		.byte	0x4
 3922 0237 07       		.uleb128 0x7
 3923 0238 3A050000 		.4byte	.LASF44
 3924 023c 09       		.byte	0x9
 3925 023d 8E       		.byte	0x8e
 3926 023e F7010000 		.4byte	0x1f7
 3927 0242 08       		.byte	0x8
ARM GAS  /tmp/ccnlRhI2.s 			page 70


 3928 0243 08       		.uleb128 0x8
 3929 0244 677700   		.ascii	"gw\000"
 3930 0247 09       		.byte	0x9
 3931 0248 8F       		.byte	0x8f
 3932 0249 F7010000 		.4byte	0x1f7
 3933 024d 0C       		.byte	0xc
 3934 024e 07       		.uleb128 0x7
 3935 024f 5C090000 		.4byte	.LASF45
 3936 0253 09       		.byte	0x9
 3937 0254 93       		.byte	0x93
 3938 0255 C7020000 		.4byte	0x2c7
 3939 0259 10       		.byte	0x10
 3940 025a 07       		.uleb128 0x7
 3941 025b 79030000 		.4byte	.LASF46
 3942 025f 09       		.byte	0x9
 3943 0260 97       		.byte	0x97
 3944 0261 EC020000 		.4byte	0x2ec
 3945 0265 14       		.byte	0x14
 3946 0266 07       		.uleb128 0x7
 3947 0267 07010000 		.4byte	.LASF47
 3948 026b 09       		.byte	0x9
 3949 026c 9B       		.byte	0x9b
 3950 026d 1C030000 		.4byte	0x31c
 3951 0271 18       		.byte	0x18
 3952 0272 07       		.uleb128 0x7
 3953 0273 FA090000 		.4byte	.LASF48
 3954 0277 09       		.byte	0x9
 3955 0278 AC       		.byte	0xac
 3956 0279 F6000000 		.4byte	0xf6
 3957 027d 1C       		.byte	0x1c
 3958 027e 08       		.uleb128 0x8
 3959 027f 6D747500 		.ascii	"mtu\000"
 3960 0283 09       		.byte	0x9
 3961 0284 BA       		.byte	0xba
 3962 0285 1C010000 		.4byte	0x11c
 3963 0289 20       		.byte	0x20
 3964 028a 07       		.uleb128 0x7
 3965 028b ED020000 		.4byte	.LASF49
 3966 028f 09       		.byte	0x9
 3967 0290 BC       		.byte	0xbc
 3968 0291 06010000 		.4byte	0x106
 3969 0295 22       		.byte	0x22
 3970 0296 07       		.uleb128 0x7
 3971 0297 95020000 		.4byte	.LASF50
 3972 029b 09       		.byte	0x9
 3973 029c BE       		.byte	0xbe
 3974 029d 41030000 		.4byte	0x341
 3975 02a1 23       		.byte	0x23
 3976 02a2 07       		.uleb128 0x7
 3977 02a3 CE000000 		.4byte	.LASF36
 3978 02a7 09       		.byte	0x9
 3979 02a8 C0       		.byte	0xc0
 3980 02a9 06010000 		.4byte	0x106
 3981 02ad 29       		.byte	0x29
 3982 02ae 07       		.uleb128 0x7
 3983 02af DD070000 		.4byte	.LASF51
 3984 02b3 09       		.byte	0x9
ARM GAS  /tmp/ccnlRhI2.s 			page 71


 3985 02b4 C2       		.byte	0xc2
 3986 02b5 51030000 		.4byte	0x351
 3987 02b9 2A       		.byte	0x2a
 3988 02ba 08       		.uleb128 0x8
 3989 02bb 6E756D00 		.ascii	"num\000"
 3990 02bf 09       		.byte	0x9
 3991 02c0 C4       		.byte	0xc4
 3992 02c1 06010000 		.4byte	0x106
 3993 02c5 2C       		.byte	0x2c
 3994 02c6 00       		.byte	0
 3995 02c7 04       		.uleb128 0x4
 3996 02c8 0A020000 		.4byte	.LASF52
 3997 02cc 09       		.byte	0x9
 3998 02cd 6D       		.byte	0x6d
 3999 02ce D2020000 		.4byte	0x2d2
 4000 02d2 09       		.uleb128 0x9
 4001 02d3 04       		.byte	0x4
 4002 02d4 D8020000 		.4byte	0x2d8
 4003 02d8 0A       		.uleb128 0xa
 4004 02d9 53010000 		.4byte	0x153
 4005 02dd EC020000 		.4byte	0x2ec
 4006 02e1 0B       		.uleb128 0xb
 4007 02e2 BF010000 		.4byte	0x1bf
 4008 02e6 0B       		.uleb128 0xb
 4009 02e7 0D020000 		.4byte	0x20d
 4010 02eb 00       		.byte	0
 4011 02ec 04       		.uleb128 0x4
 4012 02ed 7B010000 		.4byte	.LASF53
 4013 02f1 09       		.byte	0x9
 4014 02f2 76       		.byte	0x76
 4015 02f3 F7020000 		.4byte	0x2f7
 4016 02f7 09       		.uleb128 0x9
 4017 02f8 04       		.byte	0x4
 4018 02f9 FD020000 		.4byte	0x2fd
 4019 02fd 0A       		.uleb128 0xa
 4020 02fe 53010000 		.4byte	0x153
 4021 0302 16030000 		.4byte	0x316
 4022 0306 0B       		.uleb128 0xb
 4023 0307 0D020000 		.4byte	0x20d
 4024 030b 0B       		.uleb128 0xb
 4025 030c BF010000 		.4byte	0x1bf
 4026 0310 0B       		.uleb128 0xb
 4027 0311 16030000 		.4byte	0x316
 4028 0315 00       		.byte	0
 4029 0316 09       		.uleb128 0x9
 4030 0317 04       		.byte	0x4
 4031 0318 F7010000 		.4byte	0x1f7
 4032 031c 04       		.uleb128 0x4
 4033 031d E2070000 		.4byte	.LASF54
 4034 0321 09       		.byte	0x9
 4035 0322 7E       		.byte	0x7e
 4036 0323 27030000 		.4byte	0x327
 4037 0327 09       		.uleb128 0x9
 4038 0328 04       		.byte	0x4
 4039 0329 2D030000 		.4byte	0x32d
 4040 032d 0A       		.uleb128 0xa
 4041 032e 53010000 		.4byte	0x153
ARM GAS  /tmp/ccnlRhI2.s 			page 72


 4042 0332 41030000 		.4byte	0x341
 4043 0336 0B       		.uleb128 0xb
 4044 0337 0D020000 		.4byte	0x20d
 4045 033b 0B       		.uleb128 0xb
 4046 033c BF010000 		.4byte	0x1bf
 4047 0340 00       		.byte	0
 4048 0341 0C       		.uleb128 0xc
 4049 0342 06010000 		.4byte	0x106
 4050 0346 51030000 		.4byte	0x351
 4051 034a 0D       		.uleb128 0xd
 4052 034b F8000000 		.4byte	0xf8
 4053 034f 05       		.byte	0x5
 4054 0350 00       		.byte	0
 4055 0351 0C       		.uleb128 0xc
 4056 0352 FF000000 		.4byte	0xff
 4057 0356 61030000 		.4byte	0x361
 4058 035a 0D       		.uleb128 0xd
 4059 035b F8000000 		.4byte	0xf8
 4060 035f 01       		.byte	0x1
 4061 0360 00       		.byte	0
 4062 0361 06       		.uleb128 0x6
 4063 0362 CA070000 		.4byte	.LASF55
 4064 0366 14       		.byte	0x14
 4065 0367 0A       		.byte	0xa
 4066 0368 74       		.byte	0x74
 4067 0369 E6030000 		.4byte	0x3e6
 4068 036d 07       		.uleb128 0x7
 4069 036e A4050000 		.4byte	.LASF56
 4070 0372 0A       		.byte	0xa
 4071 0373 76       		.byte	0x76
 4072 0374 06010000 		.4byte	0x106
 4073 0378 00       		.byte	0
 4074 0379 07       		.uleb128 0x7
 4075 037a 4A080000 		.4byte	.LASF57
 4076 037e 0A       		.byte	0xa
 4077 037f 78       		.byte	0x78
 4078 0380 06010000 		.4byte	0x106
 4079 0384 01       		.byte	0x1
 4080 0385 07       		.uleb128 0x7
 4081 0386 B80A0000 		.4byte	.LASF58
 4082 038a 0A       		.byte	0xa
 4083 038b 7A       		.byte	0x7a
 4084 038c 1C010000 		.4byte	0x11c
 4085 0390 02       		.byte	0x2
 4086 0391 08       		.uleb128 0x8
 4087 0392 5F696400 		.ascii	"_id\000"
 4088 0396 0A       		.byte	0xa
 4089 0397 7C       		.byte	0x7c
 4090 0398 1C010000 		.4byte	0x11c
 4091 039c 04       		.byte	0x4
 4092 039d 07       		.uleb128 0x7
 4093 039e F8020000 		.4byte	.LASF59
 4094 03a2 0A       		.byte	0xa
 4095 03a3 7E       		.byte	0x7e
 4096 03a4 1C010000 		.4byte	0x11c
 4097 03a8 06       		.byte	0x6
 4098 03a9 07       		.uleb128 0x7
ARM GAS  /tmp/ccnlRhI2.s 			page 73


 4099 03aa 32010000 		.4byte	.LASF60
 4100 03ae 0A       		.byte	0xa
 4101 03af 84       		.byte	0x84
 4102 03b0 06010000 		.4byte	0x106
 4103 03b4 08       		.byte	0x8
 4104 03b5 07       		.uleb128 0x7
 4105 03b6 D7040000 		.4byte	.LASF61
 4106 03ba 0A       		.byte	0xa
 4107 03bb 86       		.byte	0x86
 4108 03bc 06010000 		.4byte	0x106
 4109 03c0 09       		.byte	0x9
 4110 03c1 07       		.uleb128 0x7
 4111 03c2 DF020000 		.4byte	.LASF62
 4112 03c6 0A       		.byte	0xa
 4113 03c7 88       		.byte	0x88
 4114 03c8 1C010000 		.4byte	0x11c
 4115 03cc 0A       		.byte	0xa
 4116 03cd 08       		.uleb128 0x8
 4117 03ce 73726300 		.ascii	"src\000"
 4118 03d2 0A       		.byte	0xa
 4119 03d3 8A       		.byte	0x8a
 4120 03d4 02020000 		.4byte	0x202
 4121 03d8 0C       		.byte	0xc
 4122 03d9 07       		.uleb128 0x7
 4123 03da 0B0B0000 		.4byte	.LASF63
 4124 03de 0A       		.byte	0xa
 4125 03df 8B       		.byte	0x8b
 4126 03e0 02020000 		.4byte	0x202
 4127 03e4 10       		.byte	0x10
 4128 03e5 00       		.byte	0
 4129 03e6 04       		.uleb128 0x4
 4130 03e7 C0000000 		.4byte	.LASF64
 4131 03eb 0B       		.byte	0xb
 4132 03ec 3C       		.byte	0x3c
 4133 03ed F1030000 		.4byte	0x3f1
 4134 03f1 09       		.uleb128 0x9
 4135 03f2 04       		.byte	0x4
 4136 03f3 F7030000 		.4byte	0x3f7
 4137 03f7 0A       		.uleb128 0xa
 4138 03f8 53010000 		.4byte	0x153
 4139 03fc 10040000 		.4byte	0x410
 4140 0400 0B       		.uleb128 0xb
 4141 0401 F6000000 		.4byte	0xf6
 4142 0405 0B       		.uleb128 0xb
 4143 0406 10040000 		.4byte	0x410
 4144 040a 0B       		.uleb128 0xb
 4145 040b 53010000 		.4byte	0x153
 4146 040f 00       		.byte	0
 4147 0410 09       		.uleb128 0x9
 4148 0411 04       		.byte	0x4
 4149 0412 16040000 		.4byte	0x416
 4150 0416 06       		.uleb128 0x6
 4151 0417 470A0000 		.4byte	.LASF65
 4152 041b 98       		.byte	0x98
 4153 041c 0B       		.byte	0xb
 4154 041d A8       		.byte	0xa8
 4155 041e C8060000 		.4byte	0x6c8
ARM GAS  /tmp/ccnlRhI2.s 			page 74


 4156 0422 07       		.uleb128 0x7
 4157 0423 7C070000 		.4byte	.LASF66
 4158 0427 0B       		.byte	0xb
 4159 0428 AA       		.byte	0xaa
 4160 0429 F7010000 		.4byte	0x1f7
 4161 042d 00       		.byte	0
 4162 042e 07       		.uleb128 0x7
 4163 042f 860A0000 		.4byte	.LASF67
 4164 0433 0B       		.byte	0xb
 4165 0434 AA       		.byte	0xaa
 4166 0435 F7010000 		.4byte	0x1f7
 4167 0439 04       		.byte	0x4
 4168 043a 07       		.uleb128 0x7
 4169 043b 2E000000 		.4byte	.LASF68
 4170 043f 0B       		.byte	0xb
 4171 0440 AA       		.byte	0xaa
 4172 0441 06010000 		.4byte	0x106
 4173 0445 08       		.byte	0x8
 4174 0446 08       		.uleb128 0x8
 4175 0447 746F7300 		.ascii	"tos\000"
 4176 044b 0B       		.byte	0xb
 4177 044c AA       		.byte	0xaa
 4178 044d 06010000 		.4byte	0x106
 4179 0451 09       		.byte	0x9
 4180 0452 08       		.uleb128 0x8
 4181 0453 74746C00 		.ascii	"ttl\000"
 4182 0457 0B       		.byte	0xb
 4183 0458 AA       		.byte	0xaa
 4184 0459 06010000 		.4byte	0x106
 4185 045d 0A       		.byte	0xa
 4186 045e 07       		.uleb128 0x7
 4187 045f FC000000 		.4byte	.LASF32
 4188 0463 0B       		.byte	0xb
 4189 0464 AC       		.byte	0xac
 4190 0465 10040000 		.4byte	0x410
 4191 0469 0C       		.byte	0xc
 4192 046a 07       		.uleb128 0x7
 4193 046b D2090000 		.4byte	.LASF69
 4194 046f 0B       		.byte	0xb
 4195 0470 AC       		.byte	0xac
 4196 0471 F6000000 		.4byte	0xf6
 4197 0475 10       		.byte	0x10
 4198 0476 07       		.uleb128 0x7
 4199 0477 35040000 		.4byte	.LASF70
 4200 047b 0B       		.byte	0xb
 4201 047c AC       		.byte	0xac
 4202 047d E6030000 		.4byte	0x3e6
 4203 0481 14       		.byte	0x14
 4204 0482 07       		.uleb128 0x7
 4205 0483 FA090000 		.4byte	.LASF48
 4206 0487 0B       		.byte	0xb
 4207 0488 AC       		.byte	0xac
 4208 0489 72070000 		.4byte	0x772
 4209 048d 18       		.byte	0x18
 4210 048e 07       		.uleb128 0x7
 4211 048f 30040000 		.4byte	.LASF71
 4212 0493 0B       		.byte	0xb
ARM GAS  /tmp/ccnlRhI2.s 			page 75


 4213 0494 AC       		.byte	0xac
 4214 0495 06010000 		.4byte	0x106
 4215 0499 19       		.byte	0x19
 4216 049a 07       		.uleb128 0x7
 4217 049b 6C020000 		.4byte	.LASF72
 4218 049f 0B       		.byte	0xb
 4219 04a0 AC       		.byte	0xac
 4220 04a1 1C010000 		.4byte	0x11c
 4221 04a5 1A       		.byte	0x1a
 4222 04a6 07       		.uleb128 0x7
 4223 04a7 CA050000 		.4byte	.LASF73
 4224 04ab 0B       		.byte	0xb
 4225 04ac AF       		.byte	0xaf
 4226 04ad 1C010000 		.4byte	0x11c
 4227 04b1 1C       		.byte	0x1c
 4228 04b2 07       		.uleb128 0x7
 4229 04b3 CE000000 		.4byte	.LASF36
 4230 04b7 0B       		.byte	0xb
 4231 04b8 B1       		.byte	0xb1
 4232 04b9 06010000 		.4byte	0x106
 4233 04bd 1E       		.byte	0x1e
 4234 04be 07       		.uleb128 0x7
 4235 04bf B8000000 		.4byte	.LASF74
 4236 04c3 0B       		.byte	0xb
 4237 04c4 BF       		.byte	0xbf
 4238 04c5 06010000 		.4byte	0x106
 4239 04c9 1F       		.byte	0x1f
 4240 04ca 07       		.uleb128 0x7
 4241 04cb 16080000 		.4byte	.LASF75
 4242 04cf 0B       		.byte	0xb
 4243 04d0 BF       		.byte	0xbf
 4244 04d1 06010000 		.4byte	0x106
 4245 04d5 20       		.byte	0x20
 4246 04d6 07       		.uleb128 0x7
 4247 04d7 64070000 		.4byte	.LASF76
 4248 04db 0B       		.byte	0xb
 4249 04dc C0       		.byte	0xc0
 4250 04dd 06010000 		.4byte	0x106
 4251 04e1 21       		.byte	0x21
 4252 04e2 08       		.uleb128 0x8
 4253 04e3 746D7200 		.ascii	"tmr\000"
 4254 04e7 0B       		.byte	0xb
 4255 04e8 C1       		.byte	0xc1
 4256 04e9 32010000 		.4byte	0x132
 4257 04ed 24       		.byte	0x24
 4258 04ee 07       		.uleb128 0x7
 4259 04ef 06030000 		.4byte	.LASF77
 4260 04f3 0B       		.byte	0xb
 4261 04f4 C4       		.byte	0xc4
 4262 04f5 32010000 		.4byte	0x132
 4263 04f9 28       		.byte	0x28
 4264 04fa 07       		.uleb128 0x7
 4265 04fb FA060000 		.4byte	.LASF78
 4266 04ff 0B       		.byte	0xb
 4267 0500 C5       		.byte	0xc5
 4268 0501 1C010000 		.4byte	0x11c
 4269 0505 2C       		.byte	0x2c
ARM GAS  /tmp/ccnlRhI2.s 			page 76


 4270 0506 07       		.uleb128 0x7
 4271 0507 E6050000 		.4byte	.LASF79
 4272 050b 0B       		.byte	0xb
 4273 050c C6       		.byte	0xc6
 4274 050d 1C010000 		.4byte	0x11c
 4275 0511 2E       		.byte	0x2e
 4276 0512 07       		.uleb128 0x7
 4277 0513 4C010000 		.4byte	.LASF80
 4278 0517 0B       		.byte	0xb
 4279 0518 C7       		.byte	0xc7
 4280 0519 32010000 		.4byte	0x132
 4281 051d 30       		.byte	0x30
 4282 051e 07       		.uleb128 0x7
 4283 051f E7020000 		.4byte	.LASF81
 4284 0523 0B       		.byte	0xb
 4285 0524 CA       		.byte	0xca
 4286 0525 27010000 		.4byte	0x127
 4287 0529 34       		.byte	0x34
 4288 052a 08       		.uleb128 0x8
 4289 052b 6D737300 		.ascii	"mss\000"
 4290 052f 0B       		.byte	0xb
 4291 0530 CC       		.byte	0xcc
 4292 0531 1C010000 		.4byte	0x11c
 4293 0535 36       		.byte	0x36
 4294 0536 07       		.uleb128 0x7
 4295 0537 02070000 		.4byte	.LASF82
 4296 053b 0B       		.byte	0xb
 4297 053c CF       		.byte	0xcf
 4298 053d 32010000 		.4byte	0x132
 4299 0541 38       		.byte	0x38
 4300 0542 07       		.uleb128 0x7
 4301 0543 07040000 		.4byte	.LASF83
 4302 0547 0B       		.byte	0xb
 4303 0548 D0       		.byte	0xd0
 4304 0549 32010000 		.4byte	0x132
 4305 054d 3C       		.byte	0x3c
 4306 054e 08       		.uleb128 0x8
 4307 054f 736100   		.ascii	"sa\000"
 4308 0552 0B       		.byte	0xb
 4309 0553 D1       		.byte	0xd1
 4310 0554 27010000 		.4byte	0x127
 4311 0558 40       		.byte	0x40
 4312 0559 08       		.uleb128 0x8
 4313 055a 737600   		.ascii	"sv\000"
 4314 055d 0B       		.byte	0xb
 4315 055e D1       		.byte	0xd1
 4316 055f 27010000 		.4byte	0x127
 4317 0563 42       		.byte	0x42
 4318 0564 08       		.uleb128 0x8
 4319 0565 72746F00 		.ascii	"rto\000"
 4320 0569 0B       		.byte	0xb
 4321 056a D3       		.byte	0xd3
 4322 056b 27010000 		.4byte	0x127
 4323 056f 44       		.byte	0x44
 4324 0570 07       		.uleb128 0x7
 4325 0571 060B0000 		.4byte	.LASF84
 4326 0575 0B       		.byte	0xb
ARM GAS  /tmp/ccnlRhI2.s 			page 77


 4327 0576 D4       		.byte	0xd4
 4328 0577 06010000 		.4byte	0x106
 4329 057b 46       		.byte	0x46
 4330 057c 07       		.uleb128 0x7
 4331 057d 1D040000 		.4byte	.LASF85
 4332 0581 0B       		.byte	0xb
 4333 0582 D7       		.byte	0xd7
 4334 0583 06010000 		.4byte	0x106
 4335 0587 47       		.byte	0x47
 4336 0588 07       		.uleb128 0x7
 4337 0589 BA030000 		.4byte	.LASF86
 4338 058d 0B       		.byte	0xb
 4339 058e D8       		.byte	0xd8
 4340 058f 32010000 		.4byte	0x132
 4341 0593 48       		.byte	0x48
 4342 0594 07       		.uleb128 0x7
 4343 0595 35020000 		.4byte	.LASF87
 4344 0599 0B       		.byte	0xb
 4345 059a DB       		.byte	0xdb
 4346 059b 1C010000 		.4byte	0x11c
 4347 059f 4C       		.byte	0x4c
 4348 05a0 07       		.uleb128 0x7
 4349 05a1 05080000 		.4byte	.LASF88
 4350 05a5 0B       		.byte	0xb
 4351 05a6 DC       		.byte	0xdc
 4352 05a7 1C010000 		.4byte	0x11c
 4353 05ab 4E       		.byte	0x4e
 4354 05ac 07       		.uleb128 0x7
 4355 05ad AC070000 		.4byte	.LASF89
 4356 05b1 0B       		.byte	0xb
 4357 05b2 DF       		.byte	0xdf
 4358 05b3 32010000 		.4byte	0x132
 4359 05b7 50       		.byte	0x50
 4360 05b8 07       		.uleb128 0x7
 4361 05b9 BA040000 		.4byte	.LASF90
 4362 05bd 0B       		.byte	0xb
 4363 05be E0       		.byte	0xe0
 4364 05bf 32010000 		.4byte	0x132
 4365 05c3 54       		.byte	0x54
 4366 05c4 07       		.uleb128 0x7
 4367 05c5 C2040000 		.4byte	.LASF91
 4368 05c9 0B       		.byte	0xb
 4369 05ca E0       		.byte	0xe0
 4370 05cb 32010000 		.4byte	0x132
 4371 05cf 58       		.byte	0x58
 4372 05d0 07       		.uleb128 0x7
 4373 05d1 18050000 		.4byte	.LASF92
 4374 05d5 0B       		.byte	0xb
 4375 05d6 E2       		.byte	0xe2
 4376 05d7 32010000 		.4byte	0x132
 4377 05db 5C       		.byte	0x5c
 4378 05dc 07       		.uleb128 0x7
 4379 05dd 6E060000 		.4byte	.LASF93
 4380 05e1 0B       		.byte	0xb
 4381 05e2 E3       		.byte	0xe3
 4382 05e3 1C010000 		.4byte	0x11c
 4383 05e7 60       		.byte	0x60
ARM GAS  /tmp/ccnlRhI2.s 			page 78


 4384 05e8 07       		.uleb128 0x7
 4385 05e9 D1070000 		.4byte	.LASF94
 4386 05ed 0B       		.byte	0xb
 4387 05ee E4       		.byte	0xe4
 4388 05ef 1C010000 		.4byte	0x11c
 4389 05f3 62       		.byte	0x62
 4390 05f4 07       		.uleb128 0x7
 4391 05f5 00030000 		.4byte	.LASF95
 4392 05f9 0B       		.byte	0xb
 4393 05fa E6       		.byte	0xe6
 4394 05fb 1C010000 		.4byte	0x11c
 4395 05ff 64       		.byte	0x64
 4396 0600 07       		.uleb128 0x7
 4397 0601 0E080000 		.4byte	.LASF96
 4398 0605 0B       		.byte	0xb
 4399 0606 E8       		.byte	0xe8
 4400 0607 1C010000 		.4byte	0x11c
 4401 060b 66       		.byte	0x66
 4402 060c 07       		.uleb128 0x7
 4403 060d 060A0000 		.4byte	.LASF97
 4404 0611 0B       		.byte	0xb
 4405 0612 EA       		.byte	0xea
 4406 0613 1C010000 		.4byte	0x11c
 4407 0617 68       		.byte	0x68
 4408 0618 07       		.uleb128 0x7
 4409 0619 8A070000 		.4byte	.LASF98
 4410 061d 0B       		.byte	0xb
 4411 061e EE       		.byte	0xee
 4412 061f 1C010000 		.4byte	0x11c
 4413 0623 6A       		.byte	0x6a
 4414 0624 07       		.uleb128 0x7
 4415 0625 F3060000 		.4byte	.LASF99
 4416 0629 0B       		.byte	0xb
 4417 062a F2       		.byte	0xf2
 4418 062b 0E080000 		.4byte	0x80e
 4419 062f 6C       		.byte	0x6c
 4420 0630 07       		.uleb128 0x7
 4421 0631 28030000 		.4byte	.LASF100
 4422 0635 0B       		.byte	0xb
 4423 0636 F3       		.byte	0xf3
 4424 0637 0E080000 		.4byte	0x80e
 4425 063b 70       		.byte	0x70
 4426 063c 07       		.uleb128 0x7
 4427 063d 96060000 		.4byte	.LASF101
 4428 0641 0B       		.byte	0xb
 4429 0642 F5       		.byte	0xf5
 4430 0643 0E080000 		.4byte	0x80e
 4431 0647 74       		.byte	0x74
 4432 0648 07       		.uleb128 0x7
 4433 0649 47090000 		.4byte	.LASF102
 4434 064d 0B       		.byte	0xb
 4435 064e F8       		.byte	0xf8
 4436 064f BF010000 		.4byte	0x1bf
 4437 0653 78       		.byte	0x78
 4438 0654 07       		.uleb128 0x7
 4439 0655 AD040000 		.4byte	.LASF103
 4440 0659 0B       		.byte	0xb
ARM GAS  /tmp/ccnlRhI2.s 			page 79


 4441 065a FC       		.byte	0xfc
 4442 065b F7060000 		.4byte	0x6f7
 4443 065f 7C       		.byte	0x7c
 4444 0660 07       		.uleb128 0x7
 4445 0661 2F0A0000 		.4byte	.LASF104
 4446 0665 0B       		.byte	0xb
 4447 0666 FE       		.byte	0xfe
 4448 0667 C8060000 		.4byte	0x6c8
 4449 066b 80       		.byte	0x80
 4450 066c 0E       		.uleb128 0xe
 4451 066d 80030000 		.4byte	.LASF105
 4452 0671 0B       		.byte	0xb
 4453 0672 0001     		.2byte	0x100
 4454 0674 67070000 		.4byte	0x767
 4455 0678 84       		.byte	0x84
 4456 0679 0E       		.uleb128 0xe
 4457 067a 46040000 		.4byte	.LASF106
 4458 067e 0B       		.byte	0xb
 4459 067f 0201     		.2byte	0x102
 4460 0681 21070000 		.4byte	0x721
 4461 0685 88       		.byte	0x88
 4462 0686 0E       		.uleb128 0xe
 4463 0687 69060000 		.4byte	.LASF107
 4464 068b 0B       		.byte	0xb
 4465 068c 0401     		.2byte	0x104
 4466 068e 46070000 		.4byte	0x746
 4467 0692 8C       		.byte	0x8c
 4468 0693 0E       		.uleb128 0xe
 4469 0694 C2090000 		.4byte	.LASF108
 4470 0698 0B       		.byte	0xb
 4471 0699 0D01     		.2byte	0x10d
 4472 069b 32010000 		.4byte	0x132
 4473 069f 90       		.byte	0x90
 4474 06a0 0E       		.uleb128 0xe
 4475 06a1 670A0000 		.4byte	.LASF109
 4476 06a5 0B       		.byte	0xb
 4477 06a6 1401     		.2byte	0x114
 4478 06a8 06010000 		.4byte	0x106
 4479 06ac 94       		.byte	0x94
 4480 06ad 0E       		.uleb128 0xe
 4481 06ae 73050000 		.4byte	.LASF110
 4482 06b2 0B       		.byte	0xb
 4483 06b3 1601     		.2byte	0x116
 4484 06b5 06010000 		.4byte	0x106
 4485 06b9 95       		.byte	0x95
 4486 06ba 0E       		.uleb128 0xe
 4487 06bb 96010000 		.4byte	.LASF111
 4488 06bf 0B       		.byte	0xb
 4489 06c0 1901     		.2byte	0x119
 4490 06c2 06010000 		.4byte	0x106
 4491 06c6 96       		.byte	0x96
 4492 06c7 00       		.byte	0
 4493 06c8 04       		.uleb128 0x4
 4494 06c9 0D060000 		.4byte	.LASF112
 4495 06cd 0B       		.byte	0xb
 4496 06ce 48       		.byte	0x48
 4497 06cf D3060000 		.4byte	0x6d3
ARM GAS  /tmp/ccnlRhI2.s 			page 80


 4498 06d3 09       		.uleb128 0x9
 4499 06d4 04       		.byte	0x4
 4500 06d5 D9060000 		.4byte	0x6d9
 4501 06d9 0A       		.uleb128 0xa
 4502 06da 53010000 		.4byte	0x153
 4503 06de F7060000 		.4byte	0x6f7
 4504 06e2 0B       		.uleb128 0xb
 4505 06e3 F6000000 		.4byte	0xf6
 4506 06e7 0B       		.uleb128 0xb
 4507 06e8 10040000 		.4byte	0x410
 4508 06ec 0B       		.uleb128 0xb
 4509 06ed BF010000 		.4byte	0x1bf
 4510 06f1 0B       		.uleb128 0xb
 4511 06f2 53010000 		.4byte	0x153
 4512 06f6 00       		.byte	0
 4513 06f7 04       		.uleb128 0x4
 4514 06f8 D5010000 		.4byte	.LASF113
 4515 06fc 0B       		.byte	0xb
 4516 06fd 56       		.byte	0x56
 4517 06fe 02070000 		.4byte	0x702
 4518 0702 09       		.uleb128 0x9
 4519 0703 04       		.byte	0x4
 4520 0704 08070000 		.4byte	0x708
 4521 0708 0A       		.uleb128 0xa
 4522 0709 53010000 		.4byte	0x153
 4523 070d 21070000 		.4byte	0x721
 4524 0711 0B       		.uleb128 0xb
 4525 0712 F6000000 		.4byte	0xf6
 4526 0716 0B       		.uleb128 0xb
 4527 0717 10040000 		.4byte	0x410
 4528 071b 0B       		.uleb128 0xb
 4529 071c 1C010000 		.4byte	0x11c
 4530 0720 00       		.byte	0
 4531 0721 04       		.uleb128 0x4
 4532 0722 43060000 		.4byte	.LASF114
 4533 0726 0B       		.byte	0xb
 4534 0727 62       		.byte	0x62
 4535 0728 2C070000 		.4byte	0x72c
 4536 072c 09       		.uleb128 0x9
 4537 072d 04       		.byte	0x4
 4538 072e 32070000 		.4byte	0x732
 4539 0732 0A       		.uleb128 0xa
 4540 0733 53010000 		.4byte	0x153
 4541 0737 46070000 		.4byte	0x746
 4542 073b 0B       		.uleb128 0xb
 4543 073c F6000000 		.4byte	0xf6
 4544 0740 0B       		.uleb128 0xb
 4545 0741 10040000 		.4byte	0x410
 4546 0745 00       		.byte	0
 4547 0746 04       		.uleb128 0x4
 4548 0747 DE040000 		.4byte	.LASF115
 4549 074b 0B       		.byte	0xb
 4550 074c 6E       		.byte	0x6e
 4551 074d 51070000 		.4byte	0x751
 4552 0751 09       		.uleb128 0x9
 4553 0752 04       		.byte	0x4
 4554 0753 57070000 		.4byte	0x757
ARM GAS  /tmp/ccnlRhI2.s 			page 81


 4555 0757 0F       		.uleb128 0xf
 4556 0758 67070000 		.4byte	0x767
 4557 075c 0B       		.uleb128 0xb
 4558 075d F6000000 		.4byte	0xf6
 4559 0761 0B       		.uleb128 0xb
 4560 0762 53010000 		.4byte	0x153
 4561 0766 00       		.byte	0
 4562 0767 04       		.uleb128 0x4
 4563 0768 EB000000 		.4byte	.LASF116
 4564 076c 0B       		.byte	0xb
 4565 076d 7C       		.byte	0x7c
 4566 076e F1030000 		.4byte	0x3f1
 4567 0772 10       		.uleb128 0x10
 4568 0773 D50A0000 		.4byte	.LASF250
 4569 0777 01       		.byte	0x1
 4570 0778 0B       		.byte	0xb
 4571 0779 7E       		.byte	0x7e
 4572 077a C1070000 		.4byte	0x7c1
 4573 077e 11       		.uleb128 0x11
 4574 077f A7060000 		.4byte	.LASF117
 4575 0783 00       		.sleb128 0
 4576 0784 11       		.uleb128 0x11
 4577 0785 E9090000 		.4byte	.LASF118
 4578 0789 01       		.sleb128 1
 4579 078a 11       		.uleb128 0x11
 4580 078b 9A070000 		.4byte	.LASF119
 4581 078f 02       		.sleb128 2
 4582 0790 11       		.uleb128 0x11
 4583 0791 100B0000 		.4byte	.LASF120
 4584 0795 03       		.sleb128 3
 4585 0796 11       		.uleb128 0x11
 4586 0797 BE070000 		.4byte	.LASF121
 4587 079b 04       		.sleb128 4
 4588 079c 11       		.uleb128 0x11
 4589 079d 30030000 		.4byte	.LASF122
 4590 07a1 05       		.sleb128 5
 4591 07a2 11       		.uleb128 0x11
 4592 07a3 92090000 		.4byte	.LASF123
 4593 07a7 06       		.sleb128 6
 4594 07a8 11       		.uleb128 0x11
 4595 07a9 9B040000 		.4byte	.LASF124
 4596 07ad 07       		.sleb128 7
 4597 07ae 11       		.uleb128 0x11
 4598 07af B2030000 		.4byte	.LASF125
 4599 07b3 08       		.sleb128 8
 4600 07b4 11       		.uleb128 0x11
 4601 07b5 4B030000 		.4byte	.LASF126
 4602 07b9 09       		.sleb128 9
 4603 07ba 11       		.uleb128 0x11
 4604 07bb D4000000 		.4byte	.LASF127
 4605 07bf 0A       		.sleb128 10
 4606 07c0 00       		.byte	0
 4607 07c1 12       		.uleb128 0x12
 4608 07c2 A3020000 		.4byte	.LASF128
 4609 07c6 10       		.byte	0x10
 4610 07c7 0C       		.byte	0xc
 4611 07c8 1501     		.2byte	0x115
ARM GAS  /tmp/ccnlRhI2.s 			page 82


 4612 07ca 0E080000 		.4byte	0x80e
 4613 07ce 0E       		.uleb128 0xe
 4614 07cf FC000000 		.4byte	.LASF32
 4615 07d3 0C       		.byte	0xc
 4616 07d4 1601     		.2byte	0x116
 4617 07d6 0E080000 		.4byte	0x80e
 4618 07da 00       		.byte	0
 4619 07db 13       		.uleb128 0x13
 4620 07dc 7000     		.ascii	"p\000"
 4621 07de 0C       		.byte	0xc
 4622 07df 1701     		.2byte	0x117
 4623 07e1 BF010000 		.4byte	0x1bf
 4624 07e5 04       		.byte	0x4
 4625 07e6 13       		.uleb128 0x13
 4626 07e7 6C656E00 		.ascii	"len\000"
 4627 07eb 0C       		.byte	0xc
 4628 07ec 1801     		.2byte	0x118
 4629 07ee 1C010000 		.4byte	0x11c
 4630 07f2 08       		.byte	0x8
 4631 07f3 0E       		.uleb128 0xe
 4632 07f4 CE000000 		.4byte	.LASF36
 4633 07f8 0C       		.byte	0xc
 4634 07f9 2201     		.2byte	0x122
 4635 07fb 06010000 		.4byte	0x106
 4636 07ff 0A       		.byte	0xa
 4637 0800 0E       		.uleb128 0xe
 4638 0801 26090000 		.4byte	.LASF129
 4639 0805 0C       		.byte	0xc
 4640 0806 2701     		.2byte	0x127
 4641 0808 24090000 		.4byte	0x924
 4642 080c 0C       		.byte	0xc
 4643 080d 00       		.byte	0
 4644 080e 09       		.uleb128 0x9
 4645 080f 04       		.byte	0x4
 4646 0810 C1070000 		.4byte	0x7c1
 4647 0814 12       		.uleb128 0x12
 4648 0815 50050000 		.4byte	.LASF130
 4649 0819 1C       		.byte	0x1c
 4650 081a 0B       		.byte	0xb
 4651 081b 1C01     		.2byte	0x11c
 4652 081d B1080000 		.4byte	0x8b1
 4653 0821 0E       		.uleb128 0xe
 4654 0822 7C070000 		.4byte	.LASF66
 4655 0826 0B       		.byte	0xb
 4656 0827 1E01     		.2byte	0x11e
 4657 0829 F7010000 		.4byte	0x1f7
 4658 082d 00       		.byte	0
 4659 082e 0E       		.uleb128 0xe
 4660 082f 860A0000 		.4byte	.LASF67
 4661 0833 0B       		.byte	0xb
 4662 0834 1E01     		.2byte	0x11e
 4663 0836 F7010000 		.4byte	0x1f7
 4664 083a 04       		.byte	0x4
 4665 083b 0E       		.uleb128 0xe
 4666 083c 2E000000 		.4byte	.LASF68
 4667 0840 0B       		.byte	0xb
 4668 0841 1E01     		.2byte	0x11e
ARM GAS  /tmp/ccnlRhI2.s 			page 83


 4669 0843 06010000 		.4byte	0x106
 4670 0847 08       		.byte	0x8
 4671 0848 13       		.uleb128 0x13
 4672 0849 746F7300 		.ascii	"tos\000"
 4673 084d 0B       		.byte	0xb
 4674 084e 1E01     		.2byte	0x11e
 4675 0850 06010000 		.4byte	0x106
 4676 0854 09       		.byte	0x9
 4677 0855 13       		.uleb128 0x13
 4678 0856 74746C00 		.ascii	"ttl\000"
 4679 085a 0B       		.byte	0xb
 4680 085b 1E01     		.2byte	0x11e
 4681 085d 06010000 		.4byte	0x106
 4682 0861 0A       		.byte	0xa
 4683 0862 0E       		.uleb128 0xe
 4684 0863 FC000000 		.4byte	.LASF32
 4685 0867 0B       		.byte	0xb
 4686 0868 2001     		.2byte	0x120
 4687 086a B1080000 		.4byte	0x8b1
 4688 086e 0C       		.byte	0xc
 4689 086f 0E       		.uleb128 0xe
 4690 0870 D2090000 		.4byte	.LASF69
 4691 0874 0B       		.byte	0xb
 4692 0875 2001     		.2byte	0x120
 4693 0877 F6000000 		.4byte	0xf6
 4694 087b 10       		.byte	0x10
 4695 087c 0E       		.uleb128 0xe
 4696 087d 35040000 		.4byte	.LASF70
 4697 0881 0B       		.byte	0xb
 4698 0882 2001     		.2byte	0x120
 4699 0884 E6030000 		.4byte	0x3e6
 4700 0888 14       		.byte	0x14
 4701 0889 0E       		.uleb128 0xe
 4702 088a FA090000 		.4byte	.LASF48
 4703 088e 0B       		.byte	0xb
 4704 088f 2001     		.2byte	0x120
 4705 0891 72070000 		.4byte	0x772
 4706 0895 18       		.byte	0x18
 4707 0896 0E       		.uleb128 0xe
 4708 0897 30040000 		.4byte	.LASF71
 4709 089b 0B       		.byte	0xb
 4710 089c 2001     		.2byte	0x120
 4711 089e 06010000 		.4byte	0x106
 4712 08a2 19       		.byte	0x19
 4713 08a3 0E       		.uleb128 0xe
 4714 08a4 6C020000 		.4byte	.LASF72
 4715 08a8 0B       		.byte	0xb
 4716 08a9 2001     		.2byte	0x120
 4717 08ab 1C010000 		.4byte	0x11c
 4718 08af 1A       		.byte	0x1a
 4719 08b0 00       		.byte	0
 4720 08b1 09       		.uleb128 0x9
 4721 08b2 04       		.byte	0x4
 4722 08b3 14080000 		.4byte	0x814
 4723 08b7 06       		.uleb128 0x6
 4724 08b8 62090000 		.4byte	.LASF131
 4725 08bc 14       		.byte	0x14
ARM GAS  /tmp/ccnlRhI2.s 			page 84


 4726 08bd 0C       		.byte	0xc
 4727 08be 9F       		.byte	0x9f
 4728 08bf 24090000 		.4byte	0x924
 4729 08c3 08       		.uleb128 0x8
 4730 08c4 73726300 		.ascii	"src\000"
 4731 08c8 0C       		.byte	0xc
 4732 08c9 A0       		.byte	0xa0
 4733 08ca 1C010000 		.4byte	0x11c
 4734 08ce 00       		.byte	0
 4735 08cf 07       		.uleb128 0x7
 4736 08d0 0B0B0000 		.4byte	.LASF63
 4737 08d4 0C       		.byte	0xc
 4738 08d5 A1       		.byte	0xa1
 4739 08d6 1C010000 		.4byte	0x11c
 4740 08da 02       		.byte	0x2
 4741 08db 07       		.uleb128 0x7
 4742 08dc 04020000 		.4byte	.LASF132
 4743 08e0 0C       		.byte	0xc
 4744 08e1 A2       		.byte	0xa2
 4745 08e2 32010000 		.4byte	0x132
 4746 08e6 04       		.byte	0x4
 4747 08e7 07       		.uleb128 0x7
 4748 08e8 5F050000 		.4byte	.LASF133
 4749 08ec 0C       		.byte	0xc
 4750 08ed A3       		.byte	0xa3
 4751 08ee 32010000 		.4byte	0x132
 4752 08f2 08       		.byte	0x8
 4753 08f3 07       		.uleb128 0x7
 4754 08f4 30080000 		.4byte	.LASF134
 4755 08f8 0C       		.byte	0xc
 4756 08f9 A4       		.byte	0xa4
 4757 08fa 1C010000 		.4byte	0x11c
 4758 08fe 0C       		.byte	0xc
 4759 08ff 08       		.uleb128 0x8
 4760 0900 776E6400 		.ascii	"wnd\000"
 4761 0904 0C       		.byte	0xc
 4762 0905 A5       		.byte	0xa5
 4763 0906 1C010000 		.4byte	0x11c
 4764 090a 0E       		.byte	0xe
 4765 090b 07       		.uleb128 0x7
 4766 090c 130A0000 		.4byte	.LASF135
 4767 0910 0C       		.byte	0xc
 4768 0911 A6       		.byte	0xa6
 4769 0912 1C010000 		.4byte	0x11c
 4770 0916 10       		.byte	0x10
 4771 0917 07       		.uleb128 0x7
 4772 0918 9A000000 		.4byte	.LASF136
 4773 091c 0C       		.byte	0xc
 4774 091d A7       		.byte	0xa7
 4775 091e 1C010000 		.4byte	0x11c
 4776 0922 12       		.byte	0x12
 4777 0923 00       		.byte	0
 4778 0924 09       		.uleb128 0x9
 4779 0925 04       		.byte	0x4
 4780 0926 B7080000 		.4byte	0x8b7
 4781 092a 14       		.uleb128 0x14
 4782 092b FC040000 		.4byte	.LASF251
ARM GAS  /tmp/ccnlRhI2.s 			page 85


 4783 092f 04       		.byte	0x4
 4784 0930 0C       		.byte	0xc
 4785 0931 3701     		.2byte	0x137
 4786 0933 50090000 		.4byte	0x950
 4787 0937 15       		.uleb128 0x15
 4788 0938 00000000 		.4byte	.LASF137
 4789 093c 0C       		.byte	0xc
 4790 093d 3801     		.2byte	0x138
 4791 093f B1080000 		.4byte	0x8b1
 4792 0943 15       		.uleb128 0x15
 4793 0944 210B0000 		.4byte	.LASF138
 4794 0948 0C       		.byte	0xc
 4795 0949 3901     		.2byte	0x139
 4796 094b 10040000 		.4byte	0x410
 4797 094f 00       		.byte	0
 4798 0950 16       		.uleb128 0x16
 4799 0951 01       		.byte	0x1
 4800 0952 0D       		.byte	0xd
 4801 0953 2B       		.byte	0x2b
 4802 0954 B3090000 		.4byte	0x9b3
 4803 0958 11       		.uleb128 0x11
 4804 0959 23080000 		.4byte	.LASF139
 4805 095d 00       		.sleb128 0
 4806 095e 11       		.uleb128 0x11
 4807 095f 6F070000 		.4byte	.LASF140
 4808 0963 01       		.sleb128 1
 4809 0964 11       		.uleb128 0x11
 4810 0965 83050000 		.4byte	.LASF141
 4811 0969 02       		.sleb128 2
 4812 096a 11       		.uleb128 0x11
 4813 096b 0C000000 		.4byte	.LASF142
 4814 096f 03       		.sleb128 3
 4815 0970 11       		.uleb128 0x11
 4816 0971 A4090000 		.4byte	.LASF143
 4817 0975 04       		.sleb128 4
 4818 0976 11       		.uleb128 0x11
 4819 0977 FE050000 		.4byte	.LASF144
 4820 097b 05       		.sleb128 5
 4821 097c 11       		.uleb128 0x11
 4822 097d F6070000 		.4byte	.LASF145
 4823 0981 06       		.sleb128 6
 4824 0982 11       		.uleb128 0x11
 4825 0983 2E050000 		.4byte	.LASF146
 4826 0987 07       		.sleb128 7
 4827 0988 11       		.uleb128 0x11
 4828 0989 D6030000 		.4byte	.LASF147
 4829 098d 08       		.sleb128 8
 4830 098e 11       		.uleb128 0x11
 4831 098f 52020000 		.4byte	.LASF148
 4832 0993 09       		.sleb128 9
 4833 0994 11       		.uleb128 0x11
 4834 0995 0E030000 		.4byte	.LASF149
 4835 0999 0A       		.sleb128 10
 4836 099a 11       		.uleb128 0x11
 4837 099b 53070000 		.4byte	.LASF150
 4838 099f 0B       		.sleb128 11
 4839 09a0 11       		.uleb128 0x11
ARM GAS  /tmp/ccnlRhI2.s 			page 86


 4840 09a1 3C040000 		.4byte	.LASF151
 4841 09a5 0C       		.sleb128 12
 4842 09a6 11       		.uleb128 0x11
 4843 09a7 A4010000 		.4byte	.LASF152
 4844 09ab 0D       		.sleb128 13
 4845 09ac 11       		.uleb128 0x11
 4846 09ad C2030000 		.4byte	.LASF153
 4847 09b1 0E       		.sleb128 14
 4848 09b2 00       		.byte	0
 4849 09b3 04       		.uleb128 0x4
 4850 09b4 E80A0000 		.4byte	.LASF154
 4851 09b8 0D       		.byte	0xd
 4852 09b9 2F       		.byte	0x2f
 4853 09ba 50090000 		.4byte	0x950
 4854 09be 06       		.uleb128 0x6
 4855 09bf 74040000 		.4byte	.LASF155
 4856 09c3 18       		.byte	0x18
 4857 09c4 0E       		.byte	0xe
 4858 09c5 3A       		.byte	0x3a
 4859 09c6 5A0A0000 		.4byte	0xa5a
 4860 09ca 07       		.uleb128 0x7
 4861 09cb 620A0000 		.4byte	.LASF156
 4862 09cf 0E       		.byte	0xe
 4863 09d0 3B       		.byte	0x3b
 4864 09d1 1C010000 		.4byte	0x11c
 4865 09d5 00       		.byte	0
 4866 09d6 07       		.uleb128 0x7
 4867 09d7 2F0A0000 		.4byte	.LASF104
 4868 09db 0E       		.byte	0xe
 4869 09dc 3C       		.byte	0x3c
 4870 09dd 1C010000 		.4byte	0x11c
 4871 09e1 02       		.byte	0x2
 4872 09e2 08       		.uleb128 0x8
 4873 09e3 667700   		.ascii	"fw\000"
 4874 09e6 0E       		.byte	0xe
 4875 09e7 3D       		.byte	0x3d
 4876 09e8 1C010000 		.4byte	0x11c
 4877 09ec 04       		.byte	0x4
 4878 09ed 07       		.uleb128 0x7
 4879 09ee F5090000 		.4byte	.LASF157
 4880 09f2 0E       		.byte	0xe
 4881 09f3 3E       		.byte	0x3e
 4882 09f4 1C010000 		.4byte	0x11c
 4883 09f8 06       		.byte	0x6
 4884 09f9 07       		.uleb128 0x7
 4885 09fa F2050000 		.4byte	.LASF158
 4886 09fe 0E       		.byte	0xe
 4887 09ff 3F       		.byte	0x3f
 4888 0a00 1C010000 		.4byte	0x11c
 4889 0a04 08       		.byte	0x8
 4890 0a05 07       		.uleb128 0x7
 4891 0a06 43080000 		.4byte	.LASF159
 4892 0a0a 0E       		.byte	0xe
 4893 0a0b 40       		.byte	0x40
 4894 0a0c 1C010000 		.4byte	0x11c
 4895 0a10 0A       		.byte	0xa
 4896 0a11 07       		.uleb128 0x7
ARM GAS  /tmp/ccnlRhI2.s 			page 87


 4897 0a12 9D090000 		.4byte	.LASF160
 4898 0a16 0E       		.byte	0xe
 4899 0a17 41       		.byte	0x41
 4900 0a18 1C010000 		.4byte	0x11c
 4901 0a1c 0C       		.byte	0xc
 4902 0a1d 07       		.uleb128 0x7
 4903 0a1e DF060000 		.4byte	.LASF161
 4904 0a22 0E       		.byte	0xe
 4905 0a23 42       		.byte	0x42
 4906 0a24 1C010000 		.4byte	0x11c
 4907 0a28 0E       		.byte	0xe
 4908 0a29 07       		.uleb128 0x7
 4909 0a2a 54090000 		.4byte	.LASF162
 4910 0a2e 0E       		.byte	0xe
 4911 0a2f 43       		.byte	0x43
 4912 0a30 1C010000 		.4byte	0x11c
 4913 0a34 10       		.byte	0x10
 4914 0a35 07       		.uleb128 0x7
 4915 0a36 65020000 		.4byte	.LASF163
 4916 0a3a 0E       		.byte	0xe
 4917 0a3b 44       		.byte	0x44
 4918 0a3c 1C010000 		.4byte	0x11c
 4919 0a40 12       		.byte	0x12
 4920 0a41 08       		.uleb128 0x8
 4921 0a42 65727200 		.ascii	"err\000"
 4922 0a46 0E       		.byte	0xe
 4923 0a47 45       		.byte	0x45
 4924 0a48 1C010000 		.4byte	0x11c
 4925 0a4c 14       		.byte	0x14
 4926 0a4d 07       		.uleb128 0x7
 4927 0a4e A3070000 		.4byte	.LASF164
 4928 0a52 0E       		.byte	0xe
 4929 0a53 46       		.byte	0x46
 4930 0a54 1C010000 		.4byte	0x11c
 4931 0a58 16       		.byte	0x16
 4932 0a59 00       		.byte	0
 4933 0a5a 06       		.uleb128 0x6
 4934 0a5b 5F010000 		.4byte	.LASF165
 4935 0a5f 0A       		.byte	0xa
 4936 0a60 0E       		.byte	0xe
 4937 0a61 5A       		.byte	0x5a
 4938 0a62 A30A0000 		.4byte	0xaa3
 4939 0a66 07       		.uleb128 0x7
 4940 0a67 E5060000 		.4byte	.LASF166
 4941 0a6b 0E       		.byte	0xe
 4942 0a6c 5E       		.byte	0x5e
 4943 0a6d 48010000 		.4byte	0x148
 4944 0a71 00       		.byte	0
 4945 0a72 07       		.uleb128 0x7
 4946 0a73 23030000 		.4byte	.LASF167
 4947 0a77 0E       		.byte	0xe
 4948 0a78 5F       		.byte	0x5f
 4949 0a79 48010000 		.4byte	0x148
 4950 0a7d 02       		.byte	0x2
 4951 0a7e 08       		.uleb128 0x8
 4952 0a7f 6D617800 		.ascii	"max\000"
 4953 0a83 0E       		.byte	0xe
ARM GAS  /tmp/ccnlRhI2.s 			page 88


 4954 0a84 60       		.byte	0x60
 4955 0a85 48010000 		.4byte	0x148
 4956 0a89 04       		.byte	0x4
 4957 0a8a 08       		.uleb128 0x8
 4958 0a8b 65727200 		.ascii	"err\000"
 4959 0a8f 0E       		.byte	0xe
 4960 0a90 61       		.byte	0x61
 4961 0a91 1C010000 		.4byte	0x11c
 4962 0a95 06       		.byte	0x6
 4963 0a96 07       		.uleb128 0x7
 4964 0a97 85020000 		.4byte	.LASF168
 4965 0a9b 0E       		.byte	0xe
 4966 0a9c 62       		.byte	0x62
 4967 0a9d 1C010000 		.4byte	0x11c
 4968 0aa1 08       		.byte	0x8
 4969 0aa2 00       		.byte	0
 4970 0aa3 06       		.uleb128 0x6
 4971 0aa4 F6010000 		.4byte	.LASF169
 4972 0aa8 06       		.byte	0x6
 4973 0aa9 0E       		.byte	0xe
 4974 0aaa 65       		.byte	0x65
 4975 0aab D40A0000 		.4byte	0xad4
 4976 0aaf 07       		.uleb128 0x7
 4977 0ab0 23030000 		.4byte	.LASF167
 4978 0ab4 0E       		.byte	0xe
 4979 0ab5 66       		.byte	0x66
 4980 0ab6 1C010000 		.4byte	0x11c
 4981 0aba 00       		.byte	0
 4982 0abb 08       		.uleb128 0x8
 4983 0abc 6D617800 		.ascii	"max\000"
 4984 0ac0 0E       		.byte	0xe
 4985 0ac1 67       		.byte	0x67
 4986 0ac2 1C010000 		.4byte	0x11c
 4987 0ac6 02       		.byte	0x2
 4988 0ac7 08       		.uleb128 0x8
 4989 0ac8 65727200 		.ascii	"err\000"
 4990 0acc 0E       		.byte	0xe
 4991 0acd 68       		.byte	0x68
 4992 0ace 1C010000 		.4byte	0x11c
 4993 0ad2 04       		.byte	0x4
 4994 0ad3 00       		.byte	0
 4995 0ad4 06       		.uleb128 0x6
 4996 0ad5 6F090000 		.4byte	.LASF170
 4997 0ad9 12       		.byte	0x12
 4998 0ada 0E       		.byte	0xe
 4999 0adb 6B       		.byte	0x6b
 5000 0adc 050B0000 		.4byte	0xb05
 5001 0ae0 08       		.uleb128 0x8
 5002 0ae1 73656D00 		.ascii	"sem\000"
 5003 0ae5 0E       		.byte	0xe
 5004 0ae6 6C       		.byte	0x6c
 5005 0ae7 A30A0000 		.4byte	0xaa3
 5006 0aeb 00       		.byte	0
 5007 0aec 07       		.uleb128 0x7
 5008 0aed 77020000 		.4byte	.LASF171
 5009 0af1 0E       		.byte	0xe
 5010 0af2 6D       		.byte	0x6d
ARM GAS  /tmp/ccnlRhI2.s 			page 89


 5011 0af3 A30A0000 		.4byte	0xaa3
 5012 0af7 06       		.byte	0x6
 5013 0af8 07       		.uleb128 0x7
 5014 0af9 85070000 		.4byte	.LASF172
 5015 0afd 0E       		.byte	0xe
 5016 0afe 6E       		.byte	0x6e
 5017 0aff A30A0000 		.4byte	0xaa3
 5018 0b03 0C       		.byte	0xc
 5019 0b04 00       		.byte	0
 5020 0b05 17       		.uleb128 0x17
 5021 0b06 3B030000 		.4byte	.LASF173
 5022 0b0a 5001     		.2byte	0x150
 5023 0b0c 0E       		.byte	0xe
 5024 0b0d 71       		.byte	0x71
 5025 0b0e 8B0B0000 		.4byte	0xb8b
 5026 0b12 07       		.uleb128 0x7
 5027 0b13 02040000 		.4byte	.LASF174
 5028 0b17 0E       		.byte	0xe
 5029 0b18 73       		.byte	0x73
 5030 0b19 BE090000 		.4byte	0x9be
 5031 0b1d 00       		.byte	0
 5032 0b1e 07       		.uleb128 0x7
 5033 0b1f 9C020000 		.4byte	.LASF175
 5034 0b23 0E       		.byte	0xe
 5035 0b24 76       		.byte	0x76
 5036 0b25 BE090000 		.4byte	0x9be
 5037 0b29 18       		.byte	0x18
 5038 0b2a 07       		.uleb128 0x7
 5039 0b2b 7D020000 		.4byte	.LASF176
 5040 0b2f 0E       		.byte	0xe
 5041 0b30 79       		.byte	0x79
 5042 0b31 BE090000 		.4byte	0x9be
 5043 0b35 30       		.byte	0x30
 5044 0b36 08       		.uleb128 0x8
 5045 0b37 697000   		.ascii	"ip\000"
 5046 0b3a 0E       		.byte	0xe
 5047 0b3b 7C       		.byte	0x7c
 5048 0b3c BE090000 		.4byte	0x9be
 5049 0b40 48       		.byte	0x48
 5050 0b41 07       		.uleb128 0x7
 5051 0b42 BE060000 		.4byte	.LASF177
 5052 0b46 0E       		.byte	0xe
 5053 0b47 7F       		.byte	0x7f
 5054 0b48 BE090000 		.4byte	0x9be
 5055 0b4c 60       		.byte	0x60
 5056 0b4d 08       		.uleb128 0x8
 5057 0b4e 75647000 		.ascii	"udp\000"
 5058 0b52 0E       		.byte	0xe
 5059 0b53 85       		.byte	0x85
 5060 0b54 BE090000 		.4byte	0x9be
 5061 0b58 78       		.byte	0x78
 5062 0b59 08       		.uleb128 0x8
 5063 0b5a 74637000 		.ascii	"tcp\000"
 5064 0b5e 0E       		.byte	0xe
 5065 0b5f 88       		.byte	0x88
 5066 0b60 BE090000 		.4byte	0x9be
 5067 0b64 90       		.byte	0x90
ARM GAS  /tmp/ccnlRhI2.s 			page 90


 5068 0b65 08       		.uleb128 0x8
 5069 0b66 6D656D00 		.ascii	"mem\000"
 5070 0b6a 0E       		.byte	0xe
 5071 0b6b 8B       		.byte	0x8b
 5072 0b6c 5A0A0000 		.4byte	0xa5a
 5073 0b70 A8       		.byte	0xa8
 5074 0b71 07       		.uleb128 0x7
 5075 0b72 90050000 		.4byte	.LASF178
 5076 0b76 0E       		.byte	0xe
 5077 0b77 8E       		.byte	0x8e
 5078 0b78 8B0B0000 		.4byte	0xb8b
 5079 0b7c B2       		.byte	0xb2
 5080 0b7d 18       		.uleb128 0x18
 5081 0b7e 73797300 		.ascii	"sys\000"
 5082 0b82 0E       		.byte	0xe
 5083 0b83 91       		.byte	0x91
 5084 0b84 D40A0000 		.4byte	0xad4
 5085 0b88 3E01     		.2byte	0x13e
 5086 0b8a 00       		.byte	0
 5087 0b8b 0C       		.uleb128 0xc
 5088 0b8c 5A0A0000 		.4byte	0xa5a
 5089 0b90 9B0B0000 		.4byte	0xb9b
 5090 0b94 0D       		.uleb128 0xd
 5091 0b95 F8000000 		.4byte	0xf8
 5092 0b99 0D       		.byte	0xd
 5093 0b9a 00       		.byte	0
 5094 0b9b 19       		.uleb128 0x19
 5095 0b9c F90A0000 		.4byte	.LASF252
 5096 0ba0 01       		.byte	0x1
 5097 0ba1 0606     		.2byte	0x606
 5098 0ba3 01       		.byte	0x1
 5099 0ba4 EF0B0000 		.4byte	0xbef
 5100 0ba8 1A       		.uleb128 0x1a
 5101 0ba9 70636200 		.ascii	"pcb\000"
 5102 0bad 01       		.byte	0x1
 5103 0bae 0606     		.2byte	0x606
 5104 0bb0 10040000 		.4byte	0x410
 5105 0bb4 1B       		.uleb128 0x1b
 5106 0bb5 6300     		.ascii	"c\000"
 5107 0bb7 01       		.byte	0x1
 5108 0bb8 0806     		.2byte	0x608
 5109 0bba 1C010000 		.4byte	0x11c
 5110 0bbe 1C       		.uleb128 0x1c
 5111 0bbf CC090000 		.4byte	.LASF179
 5112 0bc3 01       		.byte	0x1
 5113 0bc4 0806     		.2byte	0x608
 5114 0bc6 1C010000 		.4byte	0x11c
 5115 0bca 1B       		.uleb128 0x1b
 5116 0bcb 6D737300 		.ascii	"mss\000"
 5117 0bcf 01       		.byte	0x1
 5118 0bd0 0906     		.2byte	0x609
 5119 0bd2 1C010000 		.4byte	0x11c
 5120 0bd6 1C       		.uleb128 0x1c
 5121 0bd7 3D070000 		.4byte	.LASF180
 5122 0bdb 01       		.byte	0x1
 5123 0bdc 0A06     		.2byte	0x60a
 5124 0bde EF0B0000 		.4byte	0xbef
ARM GAS  /tmp/ccnlRhI2.s 			page 91


 5125 0be2 1B       		.uleb128 0x1b
 5126 0be3 6F707400 		.ascii	"opt\000"
 5127 0be7 01       		.byte	0x1
 5128 0be8 0A06     		.2byte	0x60a
 5129 0bea 06010000 		.4byte	0x106
 5130 0bee 00       		.byte	0
 5131 0bef 09       		.uleb128 0x9
 5132 0bf0 04       		.byte	0x4
 5133 0bf1 06010000 		.4byte	0x106
 5134 0bf5 1D       		.uleb128 0x1d
 5135 0bf6 BE010000 		.4byte	.LASF182
 5136 0bfa 01       		.byte	0x1
 5137 0bfb 2003     		.2byte	0x320
 5138 0bfd 00000000 		.4byte	.LFB11
 5139 0c01 AC000000 		.4byte	.LFE11-.LFB11
 5140 0c05 01       		.uleb128 0x1
 5141 0c06 9C       		.byte	0x9c
 5142 0c07 A20C0000 		.4byte	0xca2
 5143 0c0b 1E       		.uleb128 0x1e
 5144 0c0c 20000000 		.4byte	.LASF181
 5145 0c10 01       		.byte	0x1
 5146 0c11 2003     		.2byte	0x320
 5147 0c13 0E080000 		.4byte	0x80e
 5148 0c17 00000000 		.4byte	.LLST0
 5149 0c1b 1E       		.uleb128 0x1e
 5150 0c1c FC000000 		.4byte	.LASF32
 5151 0c20 01       		.byte	0x1
 5152 0c21 2003     		.2byte	0x320
 5153 0c23 0E080000 		.4byte	0x80e
 5154 0c27 1E000000 		.4byte	.LLST1
 5155 0c2b 1F       		.uleb128 0x1f
 5156 0c2c 80000000 		.4byte	.LASF184
 5157 0c30 01       		.byte	0x1
 5158 0c31 2203     		.2byte	0x322
 5159 0c33 0E080000 		.4byte	0x80e
 5160 0c37 8A000000 		.4byte	.LLST2
 5161 0c3b 20       		.uleb128 0x20
 5162 0c3c 10000000 		.4byte	.LVL2
 5163 0c40 53180000 		.4byte	0x1853
 5164 0c44 21       		.uleb128 0x21
 5165 0c45 44000000 		.4byte	.LVL5
 5166 0c49 68180000 		.4byte	0x1868
 5167 0c4d 580C0000 		.4byte	0xc58
 5168 0c51 22       		.uleb128 0x22
 5169 0c52 01       		.uleb128 0x1
 5170 0c53 50       		.byte	0x50
 5171 0c54 02       		.uleb128 0x2
 5172 0c55 75       		.byte	0x75
 5173 0c56 00       		.sleb128 0
 5174 0c57 00       		.byte	0
 5175 0c58 20       		.uleb128 0x20
 5176 0c59 62000000 		.4byte	.LVL8
 5177 0c5d 53180000 		.4byte	0x1853
 5178 0c61 21       		.uleb128 0x21
 5179 0c62 72000000 		.4byte	.LVL9
 5180 0c66 7A180000 		.4byte	0x187a
 5181 0c6a 740C0000 		.4byte	0xc74
ARM GAS  /tmp/ccnlRhI2.s 			page 92


 5182 0c6e 22       		.uleb128 0x22
 5183 0c6f 01       		.uleb128 0x1
 5184 0c70 50       		.byte	0x50
 5185 0c71 01       		.uleb128 0x1
 5186 0c72 31       		.byte	0x31
 5187 0c73 00       		.byte	0
 5188 0c74 21       		.uleb128 0x21
 5189 0c75 80000000 		.4byte	.LVL12
 5190 0c79 68180000 		.4byte	0x1868
 5191 0c7d 880C0000 		.4byte	0xc88
 5192 0c81 22       		.uleb128 0x22
 5193 0c82 01       		.uleb128 0x1
 5194 0c83 50       		.byte	0x50
 5195 0c84 02       		.uleb128 0x2
 5196 0c85 75       		.byte	0x75
 5197 0c86 00       		.sleb128 0
 5198 0c87 00       		.byte	0
 5199 0c88 20       		.uleb128 0x20
 5200 0c89 9E000000 		.4byte	.LVL17
 5201 0c8d 8F180000 		.4byte	0x188f
 5202 0c91 23       		.uleb128 0x23
 5203 0c92 AA000000 		.4byte	.LVL19
 5204 0c96 A5180000 		.4byte	0x18a5
 5205 0c9a 22       		.uleb128 0x22
 5206 0c9b 01       		.uleb128 0x1
 5207 0c9c 50       		.byte	0x50
 5208 0c9d 02       		.uleb128 0x2
 5209 0c9e 75       		.byte	0x75
 5210 0c9f 00       		.sleb128 0
 5211 0ca0 00       		.byte	0
 5212 0ca1 00       		.byte	0
 5213 0ca2 1D       		.uleb128 0x1d
 5214 0ca3 3B090000 		.4byte	.LASF183
 5215 0ca7 01       		.byte	0x1
 5216 0ca8 4F03     		.2byte	0x34f
 5217 0caa 00000000 		.4byte	.LFB12
 5218 0cae 100A0000 		.4byte	.LFE12-.LFB12
 5219 0cb2 01       		.uleb128 0x1
 5220 0cb3 9C       		.byte	0x9c
 5221 0cb4 F8100000 		.4byte	0x10f8
 5222 0cb8 24       		.uleb128 0x24
 5223 0cb9 70636200 		.ascii	"pcb\000"
 5224 0cbd 01       		.byte	0x1
 5225 0cbe 4F03     		.2byte	0x34f
 5226 0cc0 10040000 		.4byte	0x410
 5227 0cc4 A8000000 		.4byte	.LLST3
 5228 0cc8 1F       		.uleb128 0x1f
 5229 0cc9 FC000000 		.4byte	.LASF32
 5230 0ccd 01       		.byte	0x1
 5231 0cce 5103     		.2byte	0x351
 5232 0cd0 0E080000 		.4byte	0x80e
 5233 0cd4 64010000 		.4byte	.LLST4
 5234 0cd8 1F       		.uleb128 0x1f
 5235 0cd9 27010000 		.4byte	.LASF185
 5236 0cdd 01       		.byte	0x1
 5237 0cde 5303     		.2byte	0x353
 5238 0ce0 0E080000 		.4byte	0x80e
ARM GAS  /tmp/ccnlRhI2.s 			page 93


 5239 0ce4 27020000 		.4byte	.LLST5
 5240 0ce8 1F       		.uleb128 0x1f
 5241 0ce9 20000000 		.4byte	.LASF181
 5242 0ced 01       		.byte	0x1
 5243 0cee 5303     		.2byte	0x353
 5244 0cf0 0E080000 		.4byte	0x80e
 5245 0cf4 7C020000 		.4byte	.LLST6
 5246 0cf8 25       		.uleb128 0x25
 5247 0cf9 7000     		.ascii	"p\000"
 5248 0cfb 01       		.byte	0x1
 5249 0cfc 5503     		.2byte	0x355
 5250 0cfe BF010000 		.4byte	0x1bf
 5251 0d02 D1020000 		.4byte	.LLST7
 5252 0d06 25       		.uleb128 0x25
 5253 0d07 6F666600 		.ascii	"off\000"
 5254 0d0b 01       		.byte	0x1
 5255 0d0c 5603     		.2byte	0x356
 5256 0d0e 3D010000 		.4byte	0x13d
 5257 0d12 10030000 		.4byte	.LLST8
 5258 0d16 25       		.uleb128 0x25
 5259 0d17 6D00     		.ascii	"m\000"
 5260 0d19 01       		.byte	0x1
 5261 0d1a 5703     		.2byte	0x357
 5262 0d1c 27010000 		.4byte	0x127
 5263 0d20 44030000 		.4byte	.LLST9
 5264 0d24 1F       		.uleb128 0x1f
 5265 0d25 AA050000 		.4byte	.LASF186
 5266 0d29 01       		.byte	0x1
 5267 0d2a 5803     		.2byte	0x358
 5268 0d2c 32010000 		.4byte	0x132
 5269 0d30 57030000 		.4byte	.LLST10
 5270 0d34 1F       		.uleb128 0x1f
 5271 0d35 19020000 		.4byte	.LASF187
 5272 0d39 01       		.byte	0x1
 5273 0d3a 5903     		.2byte	0x359
 5274 0d3c 1C010000 		.4byte	0x11c
 5275 0d40 AF030000 		.4byte	.LLST11
 5276 0d44 1F       		.uleb128 0x1f
 5277 0d45 88000000 		.4byte	.LASF188
 5278 0d49 01       		.byte	0x1
 5279 0d4a 5A03     		.2byte	0x35a
 5280 0d4c 25000000 		.4byte	0x25
 5281 0d50 C2030000 		.4byte	.LLST12
 5282 0d54 26       		.uleb128 0x26
 5283 0d55 4C040000 		.4byte	.LBB2
 5284 0d59 16000000 		.4byte	.LBE2-.LBB2
 5285 0d5d 720D0000 		.4byte	0xd72
 5286 0d61 1F       		.uleb128 0x1f
 5287 0d62 42030000 		.4byte	.LASF189
 5288 0d66 01       		.byte	0x1
 5289 0d67 E003     		.2byte	0x3e0
 5290 0d69 1C010000 		.4byte	0x11c
 5291 0d6d 36040000 		.4byte	.LLST13
 5292 0d71 00       		.byte	0
 5293 0d72 26       		.uleb128 0x26
 5294 0d73 B0060000 		.4byte	.LBB3
 5295 0d77 08000000 		.4byte	.LBE3-.LBB3
ARM GAS  /tmp/ccnlRhI2.s 			page 94


 5296 0d7b 990D0000 		.4byte	0xd99
 5297 0d7f 1F       		.uleb128 0x1f
 5298 0d80 42010000 		.4byte	.LASF190
 5299 0d84 01       		.byte	0x1
 5300 0d85 E604     		.2byte	0x4e6
 5301 0d87 0E080000 		.4byte	0x80e
 5302 0d8b 49040000 		.4byte	.LLST14
 5303 0d8f 20       		.uleb128 0x20
 5304 0d90 B8060000 		.4byte	.LVL107
 5305 0d94 68180000 		.4byte	0x1868
 5306 0d98 00       		.byte	0
 5307 0d99 20       		.uleb128 0x20
 5308 0d9a CA000000 		.4byte	.LVL28
 5309 0d9e B7180000 		.4byte	0x18b7
 5310 0da2 20       		.uleb128 0x20
 5311 0da3 DA000000 		.4byte	.LVL29
 5312 0da7 53180000 		.4byte	0x1853
 5313 0dab 20       		.uleb128 0x20
 5314 0dac 10010000 		.4byte	.LVL31
 5315 0db0 CC180000 		.4byte	0x18cc
 5316 0db4 20       		.uleb128 0x20
 5317 0db5 26010000 		.4byte	.LVL32
 5318 0db9 CC180000 		.4byte	0x18cc
 5319 0dbd 21       		.uleb128 0x21
 5320 0dbe 34010000 		.4byte	.LVL33
 5321 0dc2 68180000 		.4byte	0x1868
 5322 0dc6 D10D0000 		.4byte	0xdd1
 5323 0dca 22       		.uleb128 0x22
 5324 0dcb 01       		.uleb128 0x1
 5325 0dcc 50       		.byte	0x50
 5326 0dcd 02       		.uleb128 0x2
 5327 0dce 75       		.byte	0x75
 5328 0dcf 00       		.sleb128 0
 5329 0dd0 00       		.byte	0
 5330 0dd1 27       		.uleb128 0x27
 5331 0dd2 E8010000 		.4byte	.LVL41
 5332 0dd6 E1180000 		.4byte	0x18e1
 5333 0dda E60D0000 		.4byte	0xde6
 5334 0dde 22       		.uleb128 0x22
 5335 0ddf 01       		.uleb128 0x1
 5336 0de0 50       		.byte	0x50
 5337 0de1 03       		.uleb128 0x3
 5338 0de2 F3       		.byte	0xf3
 5339 0de3 01       		.uleb128 0x1
 5340 0de4 50       		.byte	0x50
 5341 0de5 00       		.byte	0
 5342 0de6 20       		.uleb128 0x20
 5343 0de7 F0010000 		.4byte	.LVL42
 5344 0deb 53180000 		.4byte	0x1853
 5345 0def 20       		.uleb128 0x20
 5346 0df0 06020000 		.4byte	.LVL43
 5347 0df4 F6180000 		.4byte	0x18f6
 5348 0df8 20       		.uleb128 0x20
 5349 0df9 1A020000 		.4byte	.LVL44
 5350 0dfd F6180000 		.4byte	0x18f6
 5351 0e01 20       		.uleb128 0x20
 5352 0e02 20020000 		.4byte	.LVL46
ARM GAS  /tmp/ccnlRhI2.s 			page 95


 5353 0e06 F6180000 		.4byte	0x18f6
 5354 0e0a 21       		.uleb128 0x21
 5355 0e0b 74020000 		.4byte	.LVL49
 5356 0e0f E1180000 		.4byte	0x18e1
 5357 0e13 1E0E0000 		.4byte	0xe1e
 5358 0e17 22       		.uleb128 0x22
 5359 0e18 01       		.uleb128 0x1
 5360 0e19 50       		.byte	0x50
 5361 0e1a 02       		.uleb128 0x2
 5362 0e1b 74       		.byte	0x74
 5363 0e1c 00       		.sleb128 0
 5364 0e1d 00       		.byte	0
 5365 0e1e 21       		.uleb128 0x21
 5366 0e1f CA020000 		.4byte	.LVL53
 5367 0e23 FE180000 		.4byte	0x18fe
 5368 0e27 350E0000 		.4byte	0xe35
 5369 0e2b 22       		.uleb128 0x22
 5370 0e2c 01       		.uleb128 0x1
 5371 0e2d 50       		.byte	0x50
 5372 0e2e 05       		.uleb128 0x5
 5373 0e2f 03       		.byte	0x3
 5374 0e30 00000000 		.4byte	.LANCHOR5
 5375 0e34 00       		.byte	0
 5376 0e35 28       		.uleb128 0x28
 5377 0e36 DE020000 		.4byte	.LVL56
 5378 0e3a F50B0000 		.4byte	0xbf5
 5379 0e3e 20       		.uleb128 0x20
 5380 0e3f F6020000 		.4byte	.LVL58
 5381 0e43 53180000 		.4byte	0x1853
 5382 0e47 21       		.uleb128 0x21
 5383 0e48 08030000 		.4byte	.LVL59
 5384 0e4c FE180000 		.4byte	0x18fe
 5385 0e50 5E0E0000 		.4byte	0xe5e
 5386 0e54 22       		.uleb128 0x22
 5387 0e55 01       		.uleb128 0x1
 5388 0e56 50       		.byte	0x50
 5389 0e57 05       		.uleb128 0x5
 5390 0e58 03       		.byte	0x3
 5391 0e59 00000000 		.4byte	.LANCHOR5
 5392 0e5d 00       		.byte	0
 5393 0e5e 20       		.uleb128 0x20
 5394 0e5f 36030000 		.4byte	.LVL61
 5395 0e63 8F180000 		.4byte	0x188f
 5396 0e67 20       		.uleb128 0x20
 5397 0e68 54030000 		.4byte	.LVL62
 5398 0e6c 53180000 		.4byte	0x1853
 5399 0e70 20       		.uleb128 0x20
 5400 0e71 72030000 		.4byte	.LVL63
 5401 0e75 8F180000 		.4byte	0x188f
 5402 0e79 20       		.uleb128 0x20
 5403 0e7a 7E030000 		.4byte	.LVL65
 5404 0e7e 53180000 		.4byte	0x1853
 5405 0e82 28       		.uleb128 0x28
 5406 0e83 AA030000 		.4byte	.LVL67
 5407 0e87 F6180000 		.4byte	0x18f6
 5408 0e8b 20       		.uleb128 0x20
 5409 0e8c 6E040000 		.4byte	.LVL73
ARM GAS  /tmp/ccnlRhI2.s 			page 96


 5410 0e90 B7180000 		.4byte	0x18b7
 5411 0e94 20       		.uleb128 0x20
 5412 0e95 7C040000 		.4byte	.LVL74
 5413 0e99 53180000 		.4byte	0x1853
 5414 0e9d 20       		.uleb128 0x20
 5415 0e9e A2040000 		.4byte	.LVL76
 5416 0ea2 CC180000 		.4byte	0x18cc
 5417 0ea6 20       		.uleb128 0x20
 5418 0ea7 B6040000 		.4byte	.LVL77
 5419 0eab CC180000 		.4byte	0x18cc
 5420 0eaf 21       		.uleb128 0x21
 5421 0eb0 C2040000 		.4byte	.LVL78
 5422 0eb4 68180000 		.4byte	0x1868
 5423 0eb8 C30E0000 		.4byte	0xec3
 5424 0ebc 22       		.uleb128 0x22
 5425 0ebd 01       		.uleb128 0x1
 5426 0ebe 50       		.byte	0x50
 5427 0ebf 02       		.uleb128 0x2
 5428 0ec0 75       		.byte	0x75
 5429 0ec1 00       		.sleb128 0
 5430 0ec2 00       		.byte	0
 5431 0ec3 20       		.uleb128 0x20
 5432 0ec4 F4040000 		.4byte	.LVL81
 5433 0ec8 53180000 		.4byte	0x1853
 5434 0ecc 20       		.uleb128 0x20
 5435 0ecd 0A050000 		.4byte	.LVL82
 5436 0ed1 F6180000 		.4byte	0x18f6
 5437 0ed5 21       		.uleb128 0x21
 5438 0ed6 6C050000 		.4byte	.LVL89
 5439 0eda 14190000 		.4byte	0x1914
 5440 0ede F00E0000 		.4byte	0xef0
 5441 0ee2 22       		.uleb128 0x22
 5442 0ee3 01       		.uleb128 0x1
 5443 0ee4 51       		.byte	0x51
 5444 0ee5 03       		.uleb128 0x3
 5445 0ee6 76       		.byte	0x76
 5446 0ee7 00       		.sleb128 0
 5447 0ee8 1F       		.byte	0x1f
 5448 0ee9 22       		.uleb128 0x22
 5449 0eea 01       		.uleb128 0x1
 5450 0eeb 50       		.byte	0x50
 5451 0eec 02       		.uleb128 0x2
 5452 0eed 75       		.byte	0x75
 5453 0eee 00       		.sleb128 0
 5454 0eef 00       		.byte	0
 5455 0ef0 20       		.uleb128 0x20
 5456 0ef1 E8050000 		.4byte	.LVL94
 5457 0ef5 53180000 		.4byte	0x1853
 5458 0ef9 20       		.uleb128 0x20
 5459 0efa 0E060000 		.4byte	.LVL95
 5460 0efe 53180000 		.4byte	0x1853
 5461 0f02 21       		.uleb128 0x21
 5462 0f03 46060000 		.4byte	.LVL99
 5463 0f07 68180000 		.4byte	0x1868
 5464 0f0b 160F0000 		.4byte	0xf16
 5465 0f0f 22       		.uleb128 0x22
 5466 0f10 01       		.uleb128 0x1
ARM GAS  /tmp/ccnlRhI2.s 			page 97


 5467 0f11 50       		.byte	0x50
 5468 0f12 02       		.uleb128 0x2
 5469 0f13 76       		.byte	0x76
 5470 0f14 00       		.sleb128 0
 5471 0f15 00       		.byte	0
 5472 0f16 20       		.uleb128 0x20
 5473 0f17 6E060000 		.4byte	.LVL102
 5474 0f1b 53180000 		.4byte	0x1853
 5475 0f1f 20       		.uleb128 0x20
 5476 0f20 7A060000 		.4byte	.LVL103
 5477 0f24 53180000 		.4byte	0x1853
 5478 0f28 21       		.uleb128 0x21
 5479 0f29 8C060000 		.4byte	.LVL104
 5480 0f2d 7A180000 		.4byte	0x187a
 5481 0f31 3B0F0000 		.4byte	0xf3b
 5482 0f35 22       		.uleb128 0x22
 5483 0f36 01       		.uleb128 0x1
 5484 0f37 50       		.byte	0x50
 5485 0f38 01       		.uleb128 0x1
 5486 0f39 31       		.byte	0x31
 5487 0f3a 00       		.byte	0
 5488 0f3b 20       		.uleb128 0x20
 5489 0f3c A0060000 		.4byte	.LVL105
 5490 0f40 53180000 		.4byte	0x1853
 5491 0f44 21       		.uleb128 0x21
 5492 0f45 DC060000 		.4byte	.LVL108
 5493 0f49 2E190000 		.4byte	0x192e
 5494 0f4d 580F0000 		.4byte	0xf58
 5495 0f51 22       		.uleb128 0x22
 5496 0f52 01       		.uleb128 0x1
 5497 0f53 50       		.byte	0x50
 5498 0f54 02       		.uleb128 0x2
 5499 0f55 74       		.byte	0x74
 5500 0f56 00       		.sleb128 0
 5501 0f57 00       		.byte	0
 5502 0f58 20       		.uleb128 0x20
 5503 0f59 00070000 		.4byte	.LVL109
 5504 0f5d 53180000 		.4byte	0x1853
 5505 0f61 20       		.uleb128 0x20
 5506 0f62 46070000 		.4byte	.LVL111
 5507 0f66 53180000 		.4byte	0x1853
 5508 0f6a 21       		.uleb128 0x21
 5509 0f6b 5C070000 		.4byte	.LVL112
 5510 0f6f 2E190000 		.4byte	0x192e
 5511 0f73 7E0F0000 		.4byte	0xf7e
 5512 0f77 22       		.uleb128 0x22
 5513 0f78 01       		.uleb128 0x1
 5514 0f79 50       		.byte	0x50
 5515 0f7a 02       		.uleb128 0x2
 5516 0f7b 74       		.byte	0x74
 5517 0f7c 00       		.sleb128 0
 5518 0f7d 00       		.byte	0
 5519 0f7e 20       		.uleb128 0x20
 5520 0f7f 6E070000 		.4byte	.LVL113
 5521 0f83 43190000 		.4byte	0x1943
 5522 0f87 20       		.uleb128 0x20
 5523 0f88 7A070000 		.4byte	.LVL114
ARM GAS  /tmp/ccnlRhI2.s 			page 98


 5524 0f8c 53180000 		.4byte	0x1853
 5525 0f90 21       		.uleb128 0x21
 5526 0f91 9C070000 		.4byte	.LVL115
 5527 0f95 68180000 		.4byte	0x1868
 5528 0f99 A40F0000 		.4byte	0xfa4
 5529 0f9d 22       		.uleb128 0x22
 5530 0f9e 01       		.uleb128 0x1
 5531 0f9f 50       		.byte	0x50
 5532 0fa0 02       		.uleb128 0x2
 5533 0fa1 75       		.byte	0x75
 5534 0fa2 00       		.sleb128 0
 5535 0fa3 00       		.byte	0
 5536 0fa4 20       		.uleb128 0x20
 5537 0fa5 B8070000 		.4byte	.LVL118
 5538 0fa9 53180000 		.4byte	0x1853
 5539 0fad 20       		.uleb128 0x20
 5540 0fae D8070000 		.4byte	.LVL119
 5541 0fb2 53180000 		.4byte	0x1853
 5542 0fb6 20       		.uleb128 0x20
 5543 0fb7 EC070000 		.4byte	.LVL120
 5544 0fbb F6180000 		.4byte	0x18f6
 5545 0fbf 21       		.uleb128 0x21
 5546 0fc0 1C080000 		.4byte	.LVL123
 5547 0fc4 FE180000 		.4byte	0x18fe
 5548 0fc8 D60F0000 		.4byte	0xfd6
 5549 0fcc 22       		.uleb128 0x22
 5550 0fcd 01       		.uleb128 0x1
 5551 0fce 50       		.byte	0x50
 5552 0fcf 05       		.uleb128 0x5
 5553 0fd0 03       		.byte	0x3
 5554 0fd1 00000000 		.4byte	.LANCHOR5
 5555 0fd5 00       		.byte	0
 5556 0fd6 21       		.uleb128 0x21
 5557 0fd7 36080000 		.4byte	.LVL125
 5558 0fdb 14190000 		.4byte	0x1914
 5559 0fdf EB0F0000 		.4byte	0xfeb
 5560 0fe3 22       		.uleb128 0x22
 5561 0fe4 01       		.uleb128 0x1
 5562 0fe5 51       		.byte	0x51
 5563 0fe6 03       		.uleb128 0x3
 5564 0fe7 76       		.byte	0x76
 5565 0fe8 00       		.sleb128 0
 5566 0fe9 1F       		.byte	0x1f
 5567 0fea 00       		.byte	0
 5568 0feb 20       		.uleb128 0x20
 5569 0fec 40080000 		.4byte	.LVL126
 5570 0ff0 F6180000 		.4byte	0x18f6
 5571 0ff4 20       		.uleb128 0x20
 5572 0ff5 46080000 		.4byte	.LVL127
 5573 0ff9 F6180000 		.4byte	0x18f6
 5574 0ffd 21       		.uleb128 0x21
 5575 0ffe 54080000 		.4byte	.LVL129
 5576 1002 FE180000 		.4byte	0x18fe
 5577 1006 14100000 		.4byte	0x1014
 5578 100a 22       		.uleb128 0x22
 5579 100b 01       		.uleb128 0x1
 5580 100c 50       		.byte	0x50
ARM GAS  /tmp/ccnlRhI2.s 			page 99


 5581 100d 05       		.uleb128 0x5
 5582 100e 03       		.byte	0x3
 5583 100f 00000000 		.4byte	.LANCHOR5
 5584 1013 00       		.byte	0
 5585 1014 20       		.uleb128 0x20
 5586 1015 7A080000 		.4byte	.LVL132
 5587 1019 8F180000 		.4byte	0x188f
 5588 101d 20       		.uleb128 0x20
 5589 101e 8E080000 		.4byte	.LVL135
 5590 1022 F6180000 		.4byte	0x18f6
 5591 1026 20       		.uleb128 0x20
 5592 1027 9A080000 		.4byte	.LVL137
 5593 102b F6180000 		.4byte	0x18f6
 5594 102f 20       		.uleb128 0x20
 5595 1030 AA080000 		.4byte	.LVL138
 5596 1034 53180000 		.4byte	0x1853
 5597 1038 20       		.uleb128 0x20
 5598 1039 C0080000 		.4byte	.LVL139
 5599 103d 53180000 		.4byte	0x1853
 5600 1041 20       		.uleb128 0x20
 5601 1042 D8080000 		.4byte	.LVL140
 5602 1046 8F180000 		.4byte	0x188f
 5603 104a 20       		.uleb128 0x20
 5604 104b E2080000 		.4byte	.LVL141
 5605 104f 53180000 		.4byte	0x1853
 5606 1053 20       		.uleb128 0x20
 5607 1054 08090000 		.4byte	.LVL142
 5608 1058 F6180000 		.4byte	0x18f6
 5609 105c 20       		.uleb128 0x20
 5610 105d 1E090000 		.4byte	.LVL144
 5611 1061 F6180000 		.4byte	0x18f6
 5612 1065 20       		.uleb128 0x20
 5613 1066 24090000 		.4byte	.LVL146
 5614 106a F6180000 		.4byte	0x18f6
 5615 106e 20       		.uleb128 0x20
 5616 106f 4C090000 		.4byte	.LVL148
 5617 1073 53180000 		.4byte	0x1853
 5618 1077 20       		.uleb128 0x20
 5619 1078 62090000 		.4byte	.LVL149
 5620 107c 8F180000 		.4byte	0x188f
 5621 1080 20       		.uleb128 0x20
 5622 1081 6C090000 		.4byte	.LVL150
 5623 1085 53180000 		.4byte	0x1853
 5624 1089 20       		.uleb128 0x20
 5625 108a 9E090000 		.4byte	.LVL151
 5626 108e F6180000 		.4byte	0x18f6
 5627 1092 21       		.uleb128 0x21
 5628 1093 B4090000 		.4byte	.LVL153
 5629 1097 FE180000 		.4byte	0x18fe
 5630 109b A9100000 		.4byte	0x10a9
 5631 109f 22       		.uleb128 0x22
 5632 10a0 01       		.uleb128 0x1
 5633 10a1 50       		.byte	0x50
 5634 10a2 05       		.uleb128 0x5
 5635 10a3 03       		.byte	0x3
 5636 10a4 00000000 		.4byte	.LANCHOR5
 5637 10a8 00       		.byte	0
ARM GAS  /tmp/ccnlRhI2.s 			page 100


 5638 10a9 21       		.uleb128 0x21
 5639 10aa C4090000 		.4byte	.LVL155
 5640 10ae 59190000 		.4byte	0x1959
 5641 10b2 BD100000 		.4byte	0x10bd
 5642 10b6 22       		.uleb128 0x22
 5643 10b7 01       		.uleb128 0x1
 5644 10b8 50       		.byte	0x50
 5645 10b9 02       		.uleb128 0x2
 5646 10ba 74       		.byte	0x74
 5647 10bb 00       		.sleb128 0
 5648 10bc 00       		.byte	0
 5649 10bd 21       		.uleb128 0x21
 5650 10be D2090000 		.4byte	.LVL157
 5651 10c2 53180000 		.4byte	0x1853
 5652 10c6 D1100000 		.4byte	0x10d1
 5653 10ca 22       		.uleb128 0x22
 5654 10cb 01       		.uleb128 0x1
 5655 10cc 50       		.byte	0x50
 5656 10cd 02       		.uleb128 0x2
 5657 10ce 76       		.byte	0x76
 5658 10cf 00       		.sleb128 0
 5659 10d0 00       		.byte	0
 5660 10d1 20       		.uleb128 0x20
 5661 10d2 DA090000 		.4byte	.LVL158
 5662 10d6 7A180000 		.4byte	0x187a
 5663 10da 21       		.uleb128 0x21
 5664 10db FE090000 		.4byte	.LVL162
 5665 10df 53180000 		.4byte	0x1853
 5666 10e3 EE100000 		.4byte	0x10ee
 5667 10e7 22       		.uleb128 0x22
 5668 10e8 01       		.uleb128 0x1
 5669 10e9 50       		.byte	0x50
 5670 10ea 02       		.uleb128 0x2
 5671 10eb 77       		.byte	0x77
 5672 10ec 00       		.sleb128 0
 5673 10ed 00       		.byte	0
 5674 10ee 20       		.uleb128 0x20
 5675 10ef 060A0000 		.4byte	.LVL163
 5676 10f3 7A180000 		.4byte	0x187a
 5677 10f7 00       		.byte	0
 5678 10f8 29       		.uleb128 0x29
 5679 10f9 9B0B0000 		.4byte	0xb9b
 5680 10fd 00000000 		.4byte	.LFB14
 5681 1101 8C000000 		.4byte	.LFE14-.LFB14
 5682 1105 01       		.uleb128 0x1
 5683 1106 9C       		.byte	0x9c
 5684 1107 55110000 		.4byte	0x1155
 5685 110b 2A       		.uleb128 0x2a
 5686 110c A80B0000 		.4byte	0xba8
 5687 1110 06       		.uleb128 0x6
 5688 1111 FA       		.byte	0xfa
 5689 1112 A80B0000 		.4byte	0xba8
 5690 1116 9F       		.byte	0x9f
 5691 1117 2B       		.uleb128 0x2b
 5692 1118 B40B0000 		.4byte	0xbb4
 5693 111c 5C040000 		.4byte	.LLST15
 5694 1120 2C       		.uleb128 0x2c
ARM GAS  /tmp/ccnlRhI2.s 			page 101


 5695 1121 BE0B0000 		.4byte	0xbbe
 5696 1125 01       		.uleb128 0x1
 5697 1126 54       		.byte	0x54
 5698 1127 2B       		.uleb128 0x2b
 5699 1128 CA0B0000 		.4byte	0xbca
 5700 112c 9C040000 		.4byte	.LLST16
 5701 1130 2C       		.uleb128 0x2c
 5702 1131 D60B0000 		.4byte	0xbd6
 5703 1135 03       		.uleb128 0x3
 5704 1136 75       		.byte	0x75
 5705 1137 14       		.sleb128 20
 5706 1138 9F       		.byte	0x9f
 5707 1139 2B       		.uleb128 0x2b
 5708 113a E20B0000 		.4byte	0xbe2
 5709 113e D5040000 		.4byte	.LLST17
 5710 1142 20       		.uleb128 0x20
 5711 1143 14000000 		.4byte	.LVL166
 5712 1147 53180000 		.4byte	0x1853
 5713 114b 20       		.uleb128 0x20
 5714 114c 26000000 		.4byte	.LVL168
 5715 1150 53180000 		.4byte	0x1853
 5716 1154 00       		.byte	0
 5717 1155 2D       		.uleb128 0x2d
 5718 1156 E9040000 		.4byte	.LASF191
 5719 115a 01       		.byte	0x1
 5720 115b 1102     		.2byte	0x211
 5721 115d 53010000 		.4byte	0x153
 5722 1161 01       		.byte	0x1
 5723 1162 73110000 		.4byte	0x1173
 5724 1166 1A       		.uleb128 0x1a
 5725 1167 70636200 		.ascii	"pcb\000"
 5726 116b 01       		.byte	0x1
 5727 116c 1102     		.2byte	0x211
 5728 116e 10040000 		.4byte	0x410
 5729 1172 00       		.byte	0
 5730 1173 2D       		.uleb128 0x2d
 5731 1174 42070000 		.4byte	.LASF192
 5732 1178 01       		.byte	0x1
 5733 1179 B801     		.2byte	0x1b8
 5734 117b 53010000 		.4byte	0x153
 5735 117f 01       		.byte	0x1
 5736 1180 A8110000 		.4byte	0x11a8
 5737 1184 1A       		.uleb128 0x1a
 5738 1185 70636200 		.ascii	"pcb\000"
 5739 1189 01       		.byte	0x1
 5740 118a B801     		.2byte	0x1b8
 5741 118c B1080000 		.4byte	0x8b1
 5742 1190 1C       		.uleb128 0x1c
 5743 1191 95000000 		.4byte	.LASF193
 5744 1195 01       		.byte	0x1
 5745 1196 BA01     		.2byte	0x1ba
 5746 1198 10040000 		.4byte	0x410
 5747 119c 1B       		.uleb128 0x1b
 5748 119d 726300   		.ascii	"rc\000"
 5749 11a0 01       		.byte	0x1
 5750 11a1 BB01     		.2byte	0x1bb
 5751 11a3 53010000 		.4byte	0x153
ARM GAS  /tmp/ccnlRhI2.s 			page 102


 5752 11a7 00       		.byte	0
 5753 11a8 2D       		.uleb128 0x2d
 5754 11a9 80040000 		.4byte	.LASF194
 5755 11ad 01       		.byte	0x1
 5756 11ae 3F02     		.2byte	0x23f
 5757 11b0 53010000 		.4byte	0x153
 5758 11b4 01       		.byte	0x1
 5759 11b5 F8110000 		.4byte	0x11f8
 5760 11b9 1A       		.uleb128 0x1a
 5761 11ba 70636200 		.ascii	"pcb\000"
 5762 11be 01       		.byte	0x1
 5763 11bf 3F02     		.2byte	0x23f
 5764 11c1 10040000 		.4byte	0x410
 5765 11c5 1C       		.uleb128 0x1c
 5766 11c6 F9050000 		.4byte	.LASF195
 5767 11ca 01       		.byte	0x1
 5768 11cb 4102     		.2byte	0x241
 5769 11cd 0E080000 		.4byte	0x80e
 5770 11d1 1C       		.uleb128 0x1c
 5771 11d2 6E030000 		.4byte	.LASF196
 5772 11d6 01       		.byte	0x1
 5773 11d7 4202     		.2byte	0x242
 5774 11d9 06010000 		.4byte	0x106
 5775 11dd 1B       		.uleb128 0x1b
 5776 11de 65727200 		.ascii	"err\000"
 5777 11e2 01       		.byte	0x1
 5778 11e3 4302     		.2byte	0x243
 5779 11e5 53010000 		.4byte	0x153
 5780 11e9 2E       		.uleb128 0x2e
 5781 11ea 1C       		.uleb128 0x1c
 5782 11eb 25000000 		.4byte	.LASF197
 5783 11ef 01       		.byte	0x1
 5784 11f0 AF02     		.2byte	0x2af
 5785 11f2 1C010000 		.4byte	0x11c
 5786 11f6 00       		.byte	0
 5787 11f7 00       		.byte	0
 5788 11f8 2F       		.uleb128 0x2f
 5789 11f9 64030000 		.4byte	.LASF253
 5790 11fd 01       		.byte	0x1
 5791 11fe 5C       		.byte	0x5c
 5792 11ff 00000000 		.4byte	.LFB7
 5793 1203 120B0000 		.4byte	.LFE7-.LFB7
 5794 1207 01       		.uleb128 0x1
 5795 1208 9C       		.byte	0x9c
 5796 1209 3A170000 		.4byte	0x173a
 5797 120d 30       		.uleb128 0x30
 5798 120e 7000     		.ascii	"p\000"
 5799 1210 01       		.byte	0x1
 5800 1211 5C       		.byte	0x5c
 5801 1212 BF010000 		.4byte	0x1bf
 5802 1216 FB040000 		.4byte	.LLST18
 5803 121a 30       		.uleb128 0x30
 5804 121b 696E7000 		.ascii	"inp\000"
 5805 121f 01       		.byte	0x1
 5806 1220 5C       		.byte	0x5c
 5807 1221 0D020000 		.4byte	0x20d
 5808 1225 AF050000 		.4byte	.LLST19
ARM GAS  /tmp/ccnlRhI2.s 			page 103


 5809 1229 31       		.uleb128 0x31
 5810 122a 70636200 		.ascii	"pcb\000"
 5811 122e 01       		.byte	0x1
 5812 122f 5E       		.byte	0x5e
 5813 1230 10040000 		.4byte	0x410
 5814 1234 F4050000 		.4byte	.LLST20
 5815 1238 32       		.uleb128 0x32
 5816 1239 27010000 		.4byte	.LASF185
 5817 123d 01       		.byte	0x1
 5818 123e 5E       		.byte	0x5e
 5819 123f 10040000 		.4byte	0x410
 5820 1243 81060000 		.4byte	.LLST21
 5821 1247 32       		.uleb128 0x32
 5822 1248 1A0A0000 		.4byte	.LASF198
 5823 124c 01       		.byte	0x1
 5824 124d 5F       		.byte	0x5f
 5825 124e B1080000 		.4byte	0x8b1
 5826 1252 C2060000 		.4byte	.LLST22
 5827 1256 32       		.uleb128 0x32
 5828 1257 340A0000 		.4byte	.LASF199
 5829 125b 01       		.byte	0x1
 5830 125c 64       		.byte	0x64
 5831 125d 06010000 		.4byte	0x106
 5832 1261 01070000 		.4byte	.LLST23
 5833 1265 31       		.uleb128 0x31
 5834 1266 65727200 		.ascii	"err\000"
 5835 126a 01       		.byte	0x1
 5836 126b 65       		.byte	0x65
 5837 126c 53010000 		.4byte	0x153
 5838 1270 18070000 		.4byte	.LLST24
 5839 1274 33       		.uleb128 0x33
 5840 1275 8A030000 		.4byte	.LASF200
 5841 1279 01       		.byte	0x1
 5842 127a A501     		.2byte	0x1a5
 5843 127c 5A000000 		.4byte	.L266
 5844 1280 33       		.uleb128 0x33
 5845 1281 EB060000 		.4byte	.LASF201
 5846 1285 01       		.byte	0x1
 5847 1286 8901     		.2byte	0x189
 5848 1288 94020000 		.4byte	.L297
 5849 128c 34       		.uleb128 0x34
 5850 128d 55110000 		.4byte	0x1155
 5851 1291 22030000 		.4byte	.LBB11
 5852 1295 00000000 		.4byte	.Ldebug_ranges0+0
 5853 1299 01       		.byte	0x1
 5854 129a CF       		.byte	0xcf
 5855 129b C6120000 		.4byte	0x12c6
 5856 129f 35       		.uleb128 0x35
 5857 12a0 66110000 		.4byte	0x1166
 5858 12a4 58070000 		.4byte	.LLST25
 5859 12a8 21       		.uleb128 0x21
 5860 12a9 62030000 		.4byte	.LVL218
 5861 12ad 6A190000 		.4byte	0x196a
 5862 12b1 BC120000 		.4byte	0x12bc
 5863 12b5 22       		.uleb128 0x22
 5864 12b6 01       		.uleb128 0x1
 5865 12b7 50       		.byte	0x50
ARM GAS  /tmp/ccnlRhI2.s 			page 104


 5866 12b8 02       		.uleb128 0x2
 5867 12b9 78       		.byte	0x78
 5868 12ba 00       		.sleb128 0
 5869 12bb 00       		.byte	0
 5870 12bc 20       		.uleb128 0x20
 5871 12bd 0C090000 		.4byte	.LVL285
 5872 12c1 80190000 		.4byte	0x1980
 5873 12c5 00       		.byte	0
 5874 12c6 36       		.uleb128 0x36
 5875 12c7 A8110000 		.4byte	0x11a8
 5876 12cb 66030000 		.4byte	.LBB15
 5877 12cf 20000000 		.4byte	.Ldebug_ranges0+0x20
 5878 12d3 01       		.byte	0x1
 5879 12d4 3001     		.2byte	0x130
 5880 12d6 82140000 		.4byte	0x1482
 5881 12da 35       		.uleb128 0x35
 5882 12db B9110000 		.4byte	0x11b9
 5883 12df 97070000 		.4byte	.LLST26
 5884 12e3 37       		.uleb128 0x37
 5885 12e4 20000000 		.4byte	.Ldebug_ranges0+0x20
 5886 12e8 2B       		.uleb128 0x2b
 5887 12e9 C5110000 		.4byte	0x11c5
 5888 12ed DA070000 		.4byte	.LLST27
 5889 12f1 2B       		.uleb128 0x2b
 5890 12f2 D1110000 		.4byte	0x11d1
 5891 12f6 ED070000 		.4byte	.LLST28
 5892 12fa 2B       		.uleb128 0x2b
 5893 12fb DD110000 		.4byte	0x11dd
 5894 12ff 55080000 		.4byte	.LLST29
 5895 1303 38       		.uleb128 0x38
 5896 1304 70000000 		.4byte	.Ldebug_ranges0+0x70
 5897 1308 48130000 		.4byte	0x1348
 5898 130c 2B       		.uleb128 0x2b
 5899 130d EA110000 		.4byte	0x11ea
 5900 1311 03090000 		.4byte	.LLST30
 5901 1315 39       		.uleb128 0x39
 5902 1316 2C0A0000 		.4byte	.LVL301
 5903 131a 2A130000 		.4byte	0x132a
 5904 131e 22       		.uleb128 0x22
 5905 131f 01       		.uleb128 0x1
 5906 1320 52       		.byte	0x52
 5907 1321 01       		.uleb128 0x1
 5908 1322 30       		.byte	0x30
 5909 1323 22       		.uleb128 0x22
 5910 1324 01       		.uleb128 0x1
 5911 1325 51       		.byte	0x51
 5912 1326 02       		.uleb128 0x2
 5913 1327 78       		.byte	0x78
 5914 1328 00       		.sleb128 0
 5915 1329 00       		.byte	0
 5916 132a 21       		.uleb128 0x21
 5917 132b 4A0A0000 		.4byte	.LVL307
 5918 132f A20C0000 		.4byte	0xca2
 5919 1333 3E130000 		.4byte	0x133e
 5920 1337 22       		.uleb128 0x22
 5921 1338 01       		.uleb128 0x1
 5922 1339 50       		.byte	0x50
ARM GAS  /tmp/ccnlRhI2.s 			page 105


 5923 133a 02       		.uleb128 0x2
 5924 133b 78       		.byte	0x78
 5925 133c 00       		.sleb128 0
 5926 133d 00       		.byte	0
 5927 133e 20       		.uleb128 0x20
 5928 133f 740A0000 		.4byte	.LVL309
 5929 1343 F6180000 		.4byte	0x18f6
 5930 1347 00       		.byte	0
 5931 1348 21       		.uleb128 0x21
 5932 1349 7A050000 		.4byte	.LVL247
 5933 134d F8100000 		.4byte	0x10f8
 5934 1351 5C130000 		.4byte	0x135c
 5935 1355 22       		.uleb128 0x22
 5936 1356 01       		.uleb128 0x1
 5937 1357 50       		.byte	0x50
 5938 1358 02       		.uleb128 0x2
 5939 1359 78       		.byte	0x78
 5940 135a 36       		.sleb128 54
 5941 135b 00       		.byte	0
 5942 135c 21       		.uleb128 0x21
 5943 135d 98050000 		.4byte	.LVL248
 5944 1361 A20C0000 		.4byte	0xca2
 5945 1365 70130000 		.4byte	0x1370
 5946 1369 22       		.uleb128 0x22
 5947 136a 01       		.uleb128 0x1
 5948 136b 50       		.byte	0x50
 5949 136c 02       		.uleb128 0x2
 5950 136d 78       		.byte	0x78
 5951 136e 00       		.sleb128 0
 5952 136f 00       		.byte	0
 5953 1370 21       		.uleb128 0x21
 5954 1371 C0050000 		.4byte	.LVL249
 5955 1375 A20C0000 		.4byte	0xca2
 5956 1379 84130000 		.4byte	0x1384
 5957 137d 22       		.uleb128 0x22
 5958 137e 01       		.uleb128 0x1
 5959 137f 50       		.byte	0x50
 5960 1380 02       		.uleb128 0x2
 5961 1381 78       		.byte	0x78
 5962 1382 00       		.sleb128 0
 5963 1383 00       		.byte	0
 5964 1384 21       		.uleb128 0x21
 5965 1385 DE050000 		.4byte	.LVL250
 5966 1389 AB190000 		.4byte	0x19ab
 5967 138d 98130000 		.4byte	0x1398
 5968 1391 22       		.uleb128 0x22
 5969 1392 01       		.uleb128 0x1
 5970 1393 50       		.byte	0x50
 5971 1394 02       		.uleb128 0x2
 5972 1395 78       		.byte	0x78
 5973 1396 00       		.sleb128 0
 5974 1397 00       		.byte	0
 5975 1398 21       		.uleb128 0x21
 5976 1399 14060000 		.4byte	.LVL251
 5977 139d A20C0000 		.4byte	0xca2
 5978 13a1 AC130000 		.4byte	0x13ac
 5979 13a5 22       		.uleb128 0x22
ARM GAS  /tmp/ccnlRhI2.s 			page 106


 5980 13a6 01       		.uleb128 0x1
 5981 13a7 50       		.byte	0x50
 5982 13a8 02       		.uleb128 0x2
 5983 13a9 78       		.byte	0x78
 5984 13aa 00       		.sleb128 0
 5985 13ab 00       		.byte	0
 5986 13ac 21       		.uleb128 0x21
 5987 13ad 2E060000 		.4byte	.LVL252
 5988 13b1 AB190000 		.4byte	0x19ab
 5989 13b5 C0130000 		.4byte	0x13c0
 5990 13b9 22       		.uleb128 0x22
 5991 13ba 01       		.uleb128 0x1
 5992 13bb 50       		.byte	0x50
 5993 13bc 02       		.uleb128 0x2
 5994 13bd 78       		.byte	0x78
 5995 13be 00       		.sleb128 0
 5996 13bf 00       		.byte	0
 5997 13c0 21       		.uleb128 0x21
 5998 13c1 64060000 		.4byte	.LVL253
 5999 13c5 A20C0000 		.4byte	0xca2
 6000 13c9 D4130000 		.4byte	0x13d4
 6001 13cd 22       		.uleb128 0x22
 6002 13ce 01       		.uleb128 0x1
 6003 13cf 50       		.byte	0x50
 6004 13d0 02       		.uleb128 0x2
 6005 13d1 78       		.byte	0x78
 6006 13d2 00       		.sleb128 0
 6007 13d3 00       		.byte	0
 6008 13d4 20       		.uleb128 0x20
 6009 13d5 DA060000 		.4byte	.LVL254
 6010 13d9 80190000 		.4byte	0x1980
 6011 13dd 21       		.uleb128 0x21
 6012 13de E2060000 		.4byte	.LVL255
 6013 13e2 A20C0000 		.4byte	0xca2
 6014 13e6 F1130000 		.4byte	0x13f1
 6015 13ea 22       		.uleb128 0x22
 6016 13eb 01       		.uleb128 0x1
 6017 13ec 50       		.byte	0x50
 6018 13ed 02       		.uleb128 0x2
 6019 13ee 78       		.byte	0x78
 6020 13ef 00       		.sleb128 0
 6021 13f0 00       		.byte	0
 6022 13f1 21       		.uleb128 0x21
 6023 13f2 4A070000 		.4byte	.LVL258
 6024 13f6 80190000 		.4byte	0x1980
 6025 13fa 06140000 		.4byte	0x1406
 6026 13fe 22       		.uleb128 0x22
 6027 13ff 02       		.uleb128 0x2
 6028 1400 7D       		.byte	0x7d
 6029 1401 04       		.sleb128 4
 6030 1402 02       		.uleb128 0x2
 6031 1403 74       		.byte	0x74
 6032 1404 00       		.sleb128 0
 6033 1405 00       		.byte	0
 6034 1406 20       		.uleb128 0x20
 6035 1407 C2080000 		.4byte	.LVL278
 6036 140b BD190000 		.4byte	0x19bd
ARM GAS  /tmp/ccnlRhI2.s 			page 107


 6037 140f 20       		.uleb128 0x20
 6038 1410 5C090000 		.4byte	.LVL293
 6039 1414 B7180000 		.4byte	0x18b7
 6040 1418 21       		.uleb128 0x21
 6041 1419 A8090000 		.4byte	.LVL294
 6042 141d C5190000 		.4byte	0x19c5
 6043 1421 2C140000 		.4byte	0x142c
 6044 1425 22       		.uleb128 0x22
 6045 1426 01       		.uleb128 0x1
 6046 1427 51       		.byte	0x51
 6047 1428 02       		.uleb128 0x2
 6048 1429 78       		.byte	0x78
 6049 142a 04       		.sleb128 4
 6050 142b 00       		.byte	0
 6051 142c 20       		.uleb128 0x20
 6052 142d D2090000 		.4byte	.LVL295
 6053 1431 F6180000 		.4byte	0x18f6
 6054 1435 20       		.uleb128 0x20
 6055 1436 EA090000 		.4byte	.LVL297
 6056 143a 68180000 		.4byte	0x1868
 6057 143e 39       		.uleb128 0x39
 6058 143f 0E0A0000 		.4byte	.LVL298
 6059 1443 53140000 		.4byte	0x1453
 6060 1447 22       		.uleb128 0x22
 6061 1448 01       		.uleb128 0x1
 6062 1449 52       		.byte	0x52
 6063 144a 01       		.uleb128 0x1
 6064 144b 30       		.byte	0x30
 6065 144c 22       		.uleb128 0x22
 6066 144d 01       		.uleb128 0x1
 6067 144e 51       		.byte	0x51
 6068 144f 02       		.uleb128 0x2
 6069 1450 78       		.byte	0x78
 6070 1451 00       		.sleb128 0
 6071 1452 00       		.byte	0
 6072 1453 21       		.uleb128 0x21
 6073 1454 9A0A0000 		.4byte	.LVL310
 6074 1458 E0190000 		.4byte	0x19e0
 6075 145c 67140000 		.4byte	0x1467
 6076 1460 22       		.uleb128 0x22
 6077 1461 01       		.uleb128 0x1
 6078 1462 50       		.byte	0x50
 6079 1463 02       		.uleb128 0x2
 6080 1464 78       		.byte	0x78
 6081 1465 00       		.sleb128 0
 6082 1466 00       		.byte	0
 6083 1467 20       		.uleb128 0x20
 6084 1468 A60A0000 		.4byte	.LVL312
 6085 146c F6180000 		.4byte	0x18f6
 6086 1470 23       		.uleb128 0x23
 6087 1471 DA0A0000 		.4byte	.LVL314
 6088 1475 AB190000 		.4byte	0x19ab
 6089 1479 22       		.uleb128 0x22
 6090 147a 01       		.uleb128 0x1
 6091 147b 50       		.byte	0x50
 6092 147c 02       		.uleb128 0x2
 6093 147d 78       		.byte	0x78
ARM GAS  /tmp/ccnlRhI2.s 			page 108


 6094 147e 00       		.sleb128 0
 6095 147f 00       		.byte	0
 6096 1480 00       		.byte	0
 6097 1481 00       		.byte	0
 6098 1482 36       		.uleb128 0x36
 6099 1483 73110000 		.4byte	0x1173
 6100 1487 68040000 		.4byte	.LBB31
 6101 148b 88000000 		.4byte	.Ldebug_ranges0+0x88
 6102 148f 01       		.byte	0x1
 6103 1490 0201     		.2byte	0x102
 6104 1492 4A150000 		.4byte	0x154a
 6105 1496 35       		.uleb128 0x35
 6106 1497 84110000 		.4byte	0x1184
 6107 149b 23090000 		.4byte	.LLST31
 6108 149f 37       		.uleb128 0x37
 6109 14a0 88000000 		.4byte	.Ldebug_ranges0+0x88
 6110 14a4 2B       		.uleb128 0x2b
 6111 14a5 90110000 		.4byte	0x1190
 6112 14a9 41090000 		.4byte	.LLST32
 6113 14ad 2B       		.uleb128 0x2b
 6114 14ae 9C110000 		.4byte	0x119c
 6115 14b2 75090000 		.4byte	.LLST33
 6116 14b6 20       		.uleb128 0x20
 6117 14b7 8E040000 		.4byte	.LVL238
 6118 14bb F1190000 		.4byte	0x19f1
 6119 14bf 20       		.uleb128 0x20
 6120 14c0 1A050000 		.4byte	.LVL240
 6121 14c4 BD190000 		.4byte	0x19bd
 6122 14c8 21       		.uleb128 0x21
 6123 14c9 2E050000 		.4byte	.LVL241
 6124 14cd F8100000 		.4byte	0x10f8
 6125 14d1 E4140000 		.4byte	0x14e4
 6126 14d5 22       		.uleb128 0x22
 6127 14d6 01       		.uleb128 0x1
 6128 14d7 50       		.byte	0x50
 6129 14d8 02       		.uleb128 0x2
 6130 14d9 7A       		.byte	0x7a
 6131 14da 36       		.sleb128 54
 6132 14db 3A       		.uleb128 0x3a
 6133 14dc A80B0000 		.4byte	0xba8
 6134 14e0 02       		.uleb128 0x2
 6135 14e1 7A       		.byte	0x7a
 6136 14e2 00       		.sleb128 0
 6137 14e3 00       		.byte	0
 6138 14e4 21       		.uleb128 0x21
 6139 14e5 3A050000 		.4byte	.LVL242
 6140 14e9 C5190000 		.4byte	0x19c5
 6141 14ed F8140000 		.4byte	0x14f8
 6142 14f1 22       		.uleb128 0x22
 6143 14f2 01       		.uleb128 0x1
 6144 14f3 51       		.byte	0x51
 6145 14f4 02       		.uleb128 0x2
 6146 14f5 7A       		.byte	0x7a
 6147 14f6 04       		.sleb128 4
 6148 14f7 00       		.byte	0
 6149 14f8 21       		.uleb128 0x21
 6150 14f9 46050000 		.4byte	.LVL243
ARM GAS  /tmp/ccnlRhI2.s 			page 109


 6151 14fd 061A0000 		.4byte	0x1a06
 6152 1501 11150000 		.4byte	0x1511
 6153 1505 22       		.uleb128 0x22
 6154 1506 01       		.uleb128 0x1
 6155 1507 51       		.byte	0x51
 6156 1508 01       		.uleb128 0x1
 6157 1509 42       		.byte	0x42
 6158 150a 22       		.uleb128 0x22
 6159 150b 01       		.uleb128 0x1
 6160 150c 50       		.byte	0x50
 6161 150d 02       		.uleb128 0x2
 6162 150e 7A       		.byte	0x7a
 6163 150f 00       		.sleb128 0
 6164 1510 00       		.byte	0
 6165 1511 21       		.uleb128 0x21
 6166 1512 52050000 		.4byte	.LVL245
 6167 1516 6A190000 		.4byte	0x196a
 6168 151a 25150000 		.4byte	0x1525
 6169 151e 22       		.uleb128 0x22
 6170 151f 01       		.uleb128 0x1
 6171 1520 50       		.byte	0x50
 6172 1521 02       		.uleb128 0x2
 6173 1522 7A       		.byte	0x7a
 6174 1523 00       		.sleb128 0
 6175 1524 00       		.byte	0
 6176 1525 21       		.uleb128 0x21
 6177 1526 16090000 		.4byte	.LVL288
 6178 152a 211A0000 		.4byte	0x1a21
 6179 152e 3F150000 		.4byte	0x153f
 6180 1532 22       		.uleb128 0x22
 6181 1533 01       		.uleb128 0x1
 6182 1534 51       		.byte	0x51
 6183 1535 02       		.uleb128 0x2
 6184 1536 78       		.byte	0x78
 6185 1537 00       		.sleb128 0
 6186 1538 22       		.uleb128 0x22
 6187 1539 01       		.uleb128 0x1
 6188 153a 50       		.byte	0x50
 6189 153b 02       		.uleb128 0x2
 6190 153c 7A       		.byte	0x7a
 6191 153d 00       		.sleb128 0
 6192 153e 00       		.byte	0
 6193 153f 20       		.uleb128 0x20
 6194 1540 4E090000 		.4byte	.LVL291
 6195 1544 80190000 		.4byte	0x1980
 6196 1548 00       		.byte	0
 6197 1549 00       		.byte	0
 6198 154a 21       		.uleb128 0x21
 6199 154b 48000000 		.4byte	.LVL183
 6200 154f 14190000 		.4byte	0x1914
 6201 1553 5E150000 		.4byte	0x155e
 6202 1557 22       		.uleb128 0x22
 6203 1558 01       		.uleb128 0x1
 6204 1559 50       		.byte	0x50
 6205 155a 02       		.uleb128 0x2
 6206 155b 76       		.byte	0x76
 6207 155c 00       		.sleb128 0
ARM GAS  /tmp/ccnlRhI2.s 			page 110


 6208 155d 00       		.byte	0
 6209 155e 28       		.uleb128 0x28
 6210 155f 70000000 		.4byte	.LVL185
 6211 1563 371A0000 		.4byte	0x1a37
 6212 1567 21       		.uleb128 0x21
 6213 1568 80000000 		.4byte	.LVL186
 6214 156c 4C1A0000 		.4byte	0x1a4c
 6215 1570 7B150000 		.4byte	0x157b
 6216 1574 22       		.uleb128 0x22
 6217 1575 01       		.uleb128 0x1
 6218 1576 51       		.byte	0x51
 6219 1577 02       		.uleb128 0x2
 6220 1578 78       		.byte	0x78
 6221 1579 00       		.sleb128 0
 6222 157a 00       		.byte	0
 6223 157b 21       		.uleb128 0x21
 6224 157c A2000000 		.4byte	.LVL187
 6225 1580 711A0000 		.4byte	0x1a71
 6226 1584 9A150000 		.4byte	0x159a
 6227 1588 22       		.uleb128 0x22
 6228 1589 01       		.uleb128 0x1
 6229 158a 53       		.byte	0x53
 6230 158b 01       		.uleb128 0x1
 6231 158c 36       		.byte	0x36
 6232 158d 22       		.uleb128 0x22
 6233 158e 01       		.uleb128 0x1
 6234 158f 52       		.byte	0x52
 6235 1590 02       		.uleb128 0x2
 6236 1591 77       		.byte	0x77
 6237 1592 00       		.sleb128 0
 6238 1593 22       		.uleb128 0x22
 6239 1594 01       		.uleb128 0x1
 6240 1595 50       		.byte	0x50
 6241 1596 02       		.uleb128 0x2
 6242 1597 76       		.byte	0x76
 6243 1598 00       		.sleb128 0
 6244 1599 00       		.byte	0
 6245 159a 20       		.uleb128 0x20
 6246 159b C4000000 		.4byte	.LVL188
 6247 159f 53180000 		.4byte	0x1853
 6248 15a3 21       		.uleb128 0x21
 6249 15a4 D4000000 		.4byte	.LVL190
 6250 15a8 14190000 		.4byte	0x1914
 6251 15ac B7150000 		.4byte	0x15b7
 6252 15b0 22       		.uleb128 0x22
 6253 15b1 01       		.uleb128 0x1
 6254 15b2 50       		.byte	0x50
 6255 15b3 02       		.uleb128 0x2
 6256 15b4 76       		.byte	0x76
 6257 15b5 00       		.sleb128 0
 6258 15b6 00       		.byte	0
 6259 15b7 20       		.uleb128 0x20
 6260 15b8 E6000000 		.4byte	.LVL192
 6261 15bc 53180000 		.4byte	0x1853
 6262 15c0 20       		.uleb128 0x20
 6263 15c1 F6000000 		.4byte	.LVL193
 6264 15c5 53180000 		.4byte	0x1853
ARM GAS  /tmp/ccnlRhI2.s 			page 111


 6265 15c9 20       		.uleb128 0x20
 6266 15ca 06010000 		.4byte	.LVL194
 6267 15ce B7180000 		.4byte	0x18b7
 6268 15d2 20       		.uleb128 0x20
 6269 15d3 24010000 		.4byte	.LVL195
 6270 15d7 B7180000 		.4byte	0x18b7
 6271 15db 20       		.uleb128 0x20
 6272 15dc 42010000 		.4byte	.LVL196
 6273 15e0 53180000 		.4byte	0x1853
 6274 15e4 20       		.uleb128 0x20
 6275 15e5 4E010000 		.4byte	.LVL197
 6276 15e9 53180000 		.4byte	0x1853
 6277 15ed 20       		.uleb128 0x20
 6278 15ee CE010000 		.4byte	.LVL203
 6279 15f2 F6180000 		.4byte	0x18f6
 6280 15f6 21       		.uleb128 0x21
 6281 15f7 6E020000 		.4byte	.LVL204
 6282 15fb 9A1A0000 		.4byte	0x1a9a
 6283 15ff 0A160000 		.4byte	0x160a
 6284 1603 22       		.uleb128 0x22
 6285 1604 01       		.uleb128 0x1
 6286 1605 50       		.byte	0x50
 6287 1606 02       		.uleb128 0x2
 6288 1607 78       		.byte	0x78
 6289 1608 00       		.sleb128 0
 6290 1609 00       		.byte	0
 6291 160a 20       		.uleb128 0x20
 6292 160b AE020000 		.4byte	.LVL206
 6293 160f 371A0000 		.4byte	0x1a37
 6294 1613 20       		.uleb128 0x20
 6295 1614 BA020000 		.4byte	.LVL208
 6296 1618 F6180000 		.4byte	0x18f6
 6297 161c 20       		.uleb128 0x20
 6298 161d C0020000 		.4byte	.LVL209
 6299 1621 F6180000 		.4byte	0x18f6
 6300 1625 20       		.uleb128 0x20
 6301 1626 FC020000 		.4byte	.LVL214
 6302 162a F6180000 		.4byte	0x18f6
 6303 162e 39       		.uleb128 0x39
 6304 162f B2030000 		.4byte	.LVL224
 6305 1633 3E160000 		.4byte	0x163e
 6306 1637 22       		.uleb128 0x22
 6307 1638 01       		.uleb128 0x1
 6308 1639 51       		.byte	0x51
 6309 163a 02       		.uleb128 0x2
 6310 163b 09       		.byte	0x9
 6311 163c F5       		.byte	0xf5
 6312 163d 00       		.byte	0
 6313 163e 21       		.uleb128 0x21
 6314 163f C0030000 		.4byte	.LVL225
 6315 1643 AF1A0000 		.4byte	0x1aaf
 6316 1647 52160000 		.4byte	0x1652
 6317 164b 22       		.uleb128 0x22
 6318 164c 01       		.uleb128 0x1
 6319 164d 51       		.byte	0x51
 6320 164e 02       		.uleb128 0x2
 6321 164f 78       		.byte	0x78
ARM GAS  /tmp/ccnlRhI2.s 			page 112


 6322 1650 00       		.sleb128 0
 6323 1651 00       		.byte	0
 6324 1652 21       		.uleb128 0x21
 6325 1653 C8030000 		.4byte	.LVL226
 6326 1657 CC1A0000 		.4byte	0x1acc
 6327 165b 6B160000 		.4byte	0x166b
 6328 165f 22       		.uleb128 0x22
 6329 1660 01       		.uleb128 0x1
 6330 1661 51       		.byte	0x51
 6331 1662 02       		.uleb128 0x2
 6332 1663 78       		.byte	0x78
 6333 1664 00       		.sleb128 0
 6334 1665 22       		.uleb128 0x22
 6335 1666 01       		.uleb128 0x1
 6336 1667 50       		.byte	0x50
 6337 1668 01       		.uleb128 0x1
 6338 1669 32       		.byte	0x32
 6339 166a 00       		.byte	0
 6340 166b 39       		.uleb128 0x39
 6341 166c 0C040000 		.4byte	.LVL230
 6342 1670 7B160000 		.4byte	0x167b
 6343 1674 22       		.uleb128 0x22
 6344 1675 01       		.uleb128 0x1
 6345 1676 51       		.byte	0x51
 6346 1677 02       		.uleb128 0x2
 6347 1678 09       		.byte	0x9
 6348 1679 F4       		.byte	0xf4
 6349 167a 00       		.byte	0
 6350 167b 20       		.uleb128 0x20
 6351 167c 54070000 		.4byte	.LVL260
 6352 1680 53180000 		.4byte	0x1853
 6353 1684 20       		.uleb128 0x20
 6354 1685 A4070000 		.4byte	.LVL261
 6355 1689 80190000 		.4byte	0x1980
 6356 168d 39       		.uleb128 0x39
 6357 168e DE070000 		.4byte	.LVL265
 6358 1692 9D160000 		.4byte	0x169d
 6359 1696 22       		.uleb128 0x22
 6360 1697 01       		.uleb128 0x1
 6361 1698 51       		.byte	0x51
 6362 1699 02       		.uleb128 0x2
 6363 169a 78       		.byte	0x78
 6364 169b 00       		.sleb128 0
 6365 169c 00       		.byte	0
 6366 169d 20       		.uleb128 0x20
 6367 169e F4070000 		.4byte	.LVL267
 6368 16a2 F6180000 		.4byte	0x18f6
 6369 16a6 3B       		.uleb128 0x3b
 6370 16a7 18080000 		.4byte	.LVL268
 6371 16ab 02       		.uleb128 0x2
 6372 16ac 74       		.byte	0x74
 6373 16ad 00       		.sleb128 0
 6374 16ae B9160000 		.4byte	0x16b9
 6375 16b2 22       		.uleb128 0x22
 6376 16b3 01       		.uleb128 0x1
 6377 16b4 51       		.byte	0x51
 6378 16b5 02       		.uleb128 0x2
ARM GAS  /tmp/ccnlRhI2.s 			page 113


 6379 16b6 78       		.byte	0x78
 6380 16b7 00       		.sleb128 0
 6381 16b8 00       		.byte	0
 6382 16b9 21       		.uleb128 0x21
 6383 16ba 48080000 		.4byte	.LVL270
 6384 16be 6A190000 		.4byte	0x196a
 6385 16c2 CD160000 		.4byte	0x16cd
 6386 16c6 22       		.uleb128 0x22
 6387 16c7 01       		.uleb128 0x1
 6388 16c8 50       		.byte	0x50
 6389 16c9 02       		.uleb128 0x2
 6390 16ca 78       		.byte	0x78
 6391 16cb 00       		.sleb128 0
 6392 16cc 00       		.byte	0
 6393 16cd 3B       		.uleb128 0x3b
 6394 16ce 6E080000 		.4byte	.LVL271
 6395 16d2 02       		.uleb128 0x2
 6396 16d3 74       		.byte	0x74
 6397 16d4 00       		.sleb128 0
 6398 16d5 EA160000 		.4byte	0x16ea
 6399 16d9 22       		.uleb128 0x22
 6400 16da 01       		.uleb128 0x1
 6401 16db 53       		.byte	0x53
 6402 16dc 01       		.uleb128 0x1
 6403 16dd 30       		.byte	0x30
 6404 16de 22       		.uleb128 0x22
 6405 16df 01       		.uleb128 0x1
 6406 16e0 52       		.byte	0x52
 6407 16e1 01       		.uleb128 0x1
 6408 16e2 30       		.byte	0x30
 6409 16e3 22       		.uleb128 0x22
 6410 16e4 01       		.uleb128 0x1
 6411 16e5 51       		.byte	0x51
 6412 16e6 02       		.uleb128 0x2
 6413 16e7 78       		.byte	0x78
 6414 16e8 00       		.sleb128 0
 6415 16e9 00       		.byte	0
 6416 16ea 21       		.uleb128 0x21
 6417 16eb 82080000 		.4byte	.LVL273
 6418 16ef E21A0000 		.4byte	0x1ae2
 6419 16f3 0A170000 		.4byte	0x170a
 6420 16f7 22       		.uleb128 0x22
 6421 16f8 01       		.uleb128 0x1
 6422 16f9 53       		.byte	0x53
 6423 16fa 02       		.uleb128 0x2
 6424 16fb 74       		.byte	0x74
 6425 16fc 00       		.sleb128 0
 6426 16fd 22       		.uleb128 0x22
 6427 16fe 01       		.uleb128 0x1
 6428 16ff 51       		.byte	0x51
 6429 1700 02       		.uleb128 0x2
 6430 1701 78       		.byte	0x78
 6431 1702 00       		.sleb128 0
 6432 1703 22       		.uleb128 0x22
 6433 1704 01       		.uleb128 0x1
 6434 1705 50       		.byte	0x50
 6435 1706 02       		.uleb128 0x2
ARM GAS  /tmp/ccnlRhI2.s 			page 114


 6436 1707 74       		.byte	0x74
 6437 1708 00       		.sleb128 0
 6438 1709 00       		.byte	0
 6439 170a 20       		.uleb128 0x20
 6440 170b 8C080000 		.4byte	.LVL275
 6441 170f 371A0000 		.4byte	0x1a37
 6442 1713 21       		.uleb128 0x21
 6443 1714 92080000 		.4byte	.LVL276
 6444 1718 071B0000 		.4byte	0x1b07
 6445 171c 27170000 		.4byte	0x1727
 6446 1720 22       		.uleb128 0x22
 6447 1721 01       		.uleb128 0x1
 6448 1722 50       		.byte	0x50
 6449 1723 02       		.uleb128 0x2
 6450 1724 78       		.byte	0x78
 6451 1725 00       		.sleb128 0
 6452 1726 00       		.byte	0
 6453 1727 20       		.uleb128 0x20
 6454 1728 C8080000 		.4byte	.LVL280
 6455 172c F6180000 		.4byte	0x18f6
 6456 1730 20       		.uleb128 0x20
 6457 1731 E6080000 		.4byte	.LVL283
 6458 1735 F6180000 		.4byte	0x18f6
 6459 1739 00       		.byte	0
 6460 173a 3C       		.uleb128 0x3c
 6461 173b E1010000 		.4byte	.LASF202
 6462 173f 01       		.byte	0x1
 6463 1740 3E       		.byte	0x3e
 6464 1741 C1070000 		.4byte	0x7c1
 6465 1745 05       		.uleb128 0x5
 6466 1746 03       		.byte	0x3
 6467 1747 00000000 		.4byte	inseg
 6468 174b 3C       		.uleb128 0x3c
 6469 174c 26090000 		.4byte	.LASF129
 6470 1750 01       		.byte	0x1
 6471 1751 3F       		.byte	0x3f
 6472 1752 24090000 		.4byte	0x924
 6473 1756 05       		.uleb128 0x5
 6474 1757 03       		.byte	0x3
 6475 1758 00000000 		.4byte	tcphdr
 6476 175c 3C       		.uleb128 0x3c
 6477 175d 1F0A0000 		.4byte	.LASF203
 6478 1761 01       		.byte	0x1
 6479 1762 40       		.byte	0x40
 6480 1763 6D170000 		.4byte	0x176d
 6481 1767 05       		.uleb128 0x5
 6482 1768 03       		.byte	0x3
 6483 1769 00000000 		.4byte	iphdr
 6484 176d 09       		.uleb128 0x9
 6485 176e 04       		.byte	0x4
 6486 176f 61030000 		.4byte	0x361
 6487 1773 3C       		.uleb128 0x3c
 6488 1774 04020000 		.4byte	.LASF132
 6489 1778 01       		.byte	0x1
 6490 1779 41       		.byte	0x41
 6491 177a 32010000 		.4byte	0x132
 6492 177e 05       		.uleb128 0x5
ARM GAS  /tmp/ccnlRhI2.s 			page 115


 6493 177f 03       		.byte	0x3
 6494 1780 00000000 		.4byte	seqno
 6495 1784 3C       		.uleb128 0x3c
 6496 1785 5F050000 		.4byte	.LASF133
 6497 1789 01       		.byte	0x1
 6498 178a 41       		.byte	0x41
 6499 178b 32010000 		.4byte	0x132
 6500 178f 05       		.uleb128 0x5
 6501 1790 03       		.byte	0x3
 6502 1791 00000000 		.4byte	ackno
 6503 1795 3C       		.uleb128 0x3c
 6504 1796 CE000000 		.4byte	.LASF36
 6505 179a 01       		.byte	0x1
 6506 179b 42       		.byte	0x42
 6507 179c 06010000 		.4byte	0x106
 6508 17a0 05       		.uleb128 0x5
 6509 17a1 03       		.byte	0x3
 6510 17a2 00000000 		.4byte	flags
 6511 17a6 3C       		.uleb128 0x3c
 6512 17a7 A6040000 		.4byte	.LASF204
 6513 17ab 01       		.byte	0x1
 6514 17ac 43       		.byte	0x43
 6515 17ad 1C010000 		.4byte	0x11c
 6516 17b1 05       		.uleb128 0x5
 6517 17b2 03       		.byte	0x3
 6518 17b3 00000000 		.4byte	tcplen
 6519 17b7 3C       		.uleb128 0x3c
 6520 17b8 8B060000 		.4byte	.LASF205
 6521 17bc 01       		.byte	0x1
 6522 17bd 45       		.byte	0x45
 6523 17be 06010000 		.4byte	0x106
 6524 17c2 05       		.uleb128 0x5
 6525 17c3 03       		.byte	0x3
 6526 17c4 00000000 		.4byte	recv_flags
 6527 17c8 3C       		.uleb128 0x3c
 6528 17c9 1C090000 		.4byte	.LASF206
 6529 17cd 01       		.byte	0x1
 6530 17ce 46       		.byte	0x46
 6531 17cf BF010000 		.4byte	0x1bf
 6532 17d3 05       		.uleb128 0x5
 6533 17d4 03       		.byte	0x3
 6534 17d5 00000000 		.4byte	recv_data
 6535 17d9 3D       		.uleb128 0x3d
 6536 17da C2020000 		.4byte	.LASF207
 6537 17de 0A       		.byte	0xa
 6538 17df AA       		.byte	0xaa
 6539 17e0 F7010000 		.4byte	0x1f7
 6540 17e4 3D       		.uleb128 0x3d
 6541 17e5 730A0000 		.4byte	.LASF208
 6542 17e9 0A       		.byte	0xa
 6543 17ea AC       		.byte	0xac
 6544 17eb F7010000 		.4byte	0x1f7
 6545 17ef 3E       		.uleb128 0x3e
 6546 17f0 65050000 		.4byte	.LASF209
 6547 17f4 01       		.byte	0x1
 6548 17f5 48       		.byte	0x48
 6549 17f6 10040000 		.4byte	0x410
ARM GAS  /tmp/ccnlRhI2.s 			page 116


 6550 17fa 05       		.uleb128 0x5
 6551 17fb 03       		.byte	0x3
 6552 17fc 00000000 		.4byte	tcp_input_pcb
 6553 1800 3F       		.uleb128 0x3f
 6554 1801 12090000 		.4byte	.LASF210
 6555 1805 0C       		.byte	0xc
 6556 1806 3301     		.2byte	0x133
 6557 1808 32010000 		.4byte	0x132
 6558 180c 3F       		.uleb128 0x3f
 6559 180d 3A020000 		.4byte	.LASF211
 6560 1811 0C       		.byte	0xc
 6561 1812 3401     		.2byte	0x134
 6562 1814 06010000 		.4byte	0x106
 6563 1818 3F       		.uleb128 0x3f
 6564 1819 D6050000 		.4byte	.LASF212
 6565 181d 0C       		.byte	0xc
 6566 181e 3C01     		.2byte	0x13c
 6567 1820 2A090000 		.4byte	0x92a
 6568 1824 3F       		.uleb128 0x3f
 6569 1825 0D040000 		.4byte	.LASF213
 6570 1829 0C       		.byte	0xc
 6571 182a 3D01     		.2byte	0x13d
 6572 182c 10040000 		.4byte	0x410
 6573 1830 3F       		.uleb128 0x3f
 6574 1831 900A0000 		.4byte	.LASF214
 6575 1835 0C       		.byte	0xc
 6576 1836 4001     		.2byte	0x140
 6577 1838 10040000 		.4byte	0x410
 6578 183c 3F       		.uleb128 0x3f
 6579 183d 98030000 		.4byte	.LASF215
 6580 1841 0C       		.byte	0xc
 6581 1842 4201     		.2byte	0x142
 6582 1844 10040000 		.4byte	0x410
 6583 1848 3D       		.uleb128 0x3d
 6584 1849 B3010000 		.4byte	.LASF216
 6585 184d 0E       		.byte	0xe
 6586 184e 95       		.byte	0x95
 6587 184f 050B0000 		.4byte	0xb05
 6588 1853 40       		.uleb128 0x40
 6589 1854 9C060000 		.4byte	.LASF217
 6590 1858 0F       		.byte	0xf
 6591 1859 64       		.byte	0x64
 6592 185a 1C010000 		.4byte	0x11c
 6593 185e 68180000 		.4byte	0x1868
 6594 1862 0B       		.uleb128 0xb
 6595 1863 1C010000 		.4byte	0x11c
 6596 1867 00       		.byte	0
 6597 1868 41       		.uleb128 0x41
 6598 1869 76060000 		.4byte	.LASF219
 6599 186d 0C       		.byte	0xc
 6600 186e A401     		.2byte	0x1a4
 6601 1870 7A180000 		.4byte	0x187a
 6602 1874 0B       		.uleb128 0xb
 6603 1875 0E080000 		.4byte	0x80e
 6604 1879 00       		.byte	0
 6605 187a 40       		.uleb128 0x40
 6606 187b 8B010000 		.4byte	.LASF218
ARM GAS  /tmp/ccnlRhI2.s 			page 117


 6607 187f 0F       		.byte	0xf
 6608 1880 63       		.byte	0x63
 6609 1881 1C010000 		.4byte	0x11c
 6610 1885 8F180000 		.4byte	0x188f
 6611 1889 0B       		.uleb128 0xb
 6612 188a 1C010000 		.4byte	0x11c
 6613 188e 00       		.byte	0
 6614 188f 42       		.uleb128 0x42
 6615 1890 5C040000 		.4byte	.LASF220
 6616 1894 07       		.byte	0x7
 6617 1895 98       		.byte	0x98
 6618 1896 A5180000 		.4byte	0x18a5
 6619 189a 0B       		.uleb128 0xb
 6620 189b BF010000 		.4byte	0x1bf
 6621 189f 0B       		.uleb128 0xb
 6622 18a0 1C010000 		.4byte	0x11c
 6623 18a4 00       		.byte	0
 6624 18a5 41       		.uleb128 0x41
 6625 18a6 C70A0000 		.4byte	.LASF221
 6626 18aa 0C       		.byte	0xc
 6627 18ab A301     		.2byte	0x1a3
 6628 18ad B7180000 		.4byte	0x18b7
 6629 18b1 0B       		.uleb128 0xb
 6630 18b2 0E080000 		.4byte	0x80e
 6631 18b6 00       		.byte	0
 6632 18b7 40       		.uleb128 0x40
 6633 18b8 37010000 		.4byte	.LASF222
 6634 18bc 0F       		.byte	0xf
 6635 18bd 66       		.byte	0x66
 6636 18be 32010000 		.4byte	0x132
 6637 18c2 CC180000 		.4byte	0x18cc
 6638 18c6 0B       		.uleb128 0xb
 6639 18c7 32010000 		.4byte	0x132
 6640 18cb 00       		.byte	0
 6641 18cc 40       		.uleb128 0x40
 6642 18cd E3030000 		.4byte	.LASF223
 6643 18d1 07       		.byte	0x7
 6644 18d2 9C       		.byte	0x9c
 6645 18d3 06010000 		.4byte	0x106
 6646 18d7 E1180000 		.4byte	0x18e1
 6647 18db 0B       		.uleb128 0xb
 6648 18dc BF010000 		.4byte	0x1bf
 6649 18e0 00       		.byte	0
 6650 18e1 40       		.uleb128 0x40
 6651 18e2 2A070000 		.4byte	.LASF224
 6652 18e6 0C       		.byte	0xc
 6653 18e7 44       		.byte	0x44
 6654 18e8 53010000 		.4byte	0x153
 6655 18ec F6180000 		.4byte	0x18f6
 6656 18f0 0B       		.uleb128 0xb
 6657 18f1 10040000 		.4byte	0x410
 6658 18f5 00       		.byte	0
 6659 18f6 43       		.uleb128 0x43
 6660 18f7 DF090000 		.4byte	.LASF233
 6661 18fb 10       		.byte	0x10
 6662 18fc 0102     		.2byte	0x201
 6663 18fe 44       		.uleb128 0x44
ARM GAS  /tmp/ccnlRhI2.s 			page 118


 6664 18ff CA040000 		.4byte	.LASF225
 6665 1903 0C       		.byte	0xc
 6666 1904 A501     		.2byte	0x1a5
 6667 1906 0E080000 		.4byte	0x80e
 6668 190a 14190000 		.4byte	0x1914
 6669 190e 0B       		.uleb128 0xb
 6670 190f 0E080000 		.4byte	0x80e
 6671 1913 00       		.byte	0
 6672 1914 40       		.uleb128 0x40
 6673 1915 50040000 		.4byte	.LASF226
 6674 1919 07       		.byte	0x7
 6675 191a 99       		.byte	0x99
 6676 191b 06010000 		.4byte	0x106
 6677 191f 2E190000 		.4byte	0x192e
 6678 1923 0B       		.uleb128 0xb
 6679 1924 BF010000 		.4byte	0x1bf
 6680 1928 0B       		.uleb128 0xb
 6681 1929 27010000 		.4byte	0x127
 6682 192d 00       		.byte	0
 6683 192e 40       		.uleb128 0x40
 6684 192f 2C060000 		.4byte	.LASF227
 6685 1933 0C       		.byte	0xc
 6686 1934 48       		.byte	0x48
 6687 1935 32010000 		.4byte	0x132
 6688 1939 43190000 		.4byte	0x1943
 6689 193d 0B       		.uleb128 0xb
 6690 193e 10040000 		.4byte	0x410
 6691 1942 00       		.byte	0
 6692 1943 42       		.uleb128 0x42
 6693 1944 DF0A0000 		.4byte	.LASF228
 6694 1948 07       		.byte	0x7
 6695 1949 9D       		.byte	0x9d
 6696 194a 59190000 		.4byte	0x1959
 6697 194e 0B       		.uleb128 0xb
 6698 194f BF010000 		.4byte	0x1bf
 6699 1953 0B       		.uleb128 0xb
 6700 1954 BF010000 		.4byte	0x1bf
 6701 1958 00       		.byte	0
 6702 1959 42       		.uleb128 0x42
 6703 195a A80A0000 		.4byte	.LASF229
 6704 195e 0C       		.byte	0xc
 6705 195f 47       		.byte	0x47
 6706 1960 6A190000 		.4byte	0x196a
 6707 1964 0B       		.uleb128 0xb
 6708 1965 10040000 		.4byte	0x410
 6709 1969 00       		.byte	0
 6710 196a 44       		.uleb128 0x44
 6711 196b 25040000 		.4byte	.LASF230
 6712 196f 0B       		.byte	0xb
 6713 1970 6F01     		.2byte	0x16f
 6714 1972 53010000 		.4byte	0x153
 6715 1976 80190000 		.4byte	0x1980
 6716 197a 0B       		.uleb128 0xb
 6717 197b 10040000 		.4byte	0x410
 6718 197f 00       		.byte	0
 6719 1980 41       		.uleb128 0x41
 6720 1981 83060000 		.4byte	.LASF231
ARM GAS  /tmp/ccnlRhI2.s 			page 119


 6721 1985 0C       		.byte	0xc
 6722 1986 BC01     		.2byte	0x1bc
 6723 1988 AB190000 		.4byte	0x19ab
 6724 198c 0B       		.uleb128 0xb
 6725 198d 32010000 		.4byte	0x132
 6726 1991 0B       		.uleb128 0xb
 6727 1992 32010000 		.4byte	0x132
 6728 1996 0B       		.uleb128 0xb
 6729 1997 16030000 		.4byte	0x316
 6730 199b 0B       		.uleb128 0xb
 6731 199c 16030000 		.4byte	0x316
 6732 19a0 0B       		.uleb128 0xb
 6733 19a1 1C010000 		.4byte	0x11c
 6734 19a5 0B       		.uleb128 0xb
 6735 19a6 1C010000 		.4byte	0x11c
 6736 19aa 00       		.byte	0
 6737 19ab 41       		.uleb128 0x41
 6738 19ac A4030000 		.4byte	.LASF232
 6739 19b0 0C       		.byte	0xc
 6740 19b1 A001     		.2byte	0x1a0
 6741 19b3 BD190000 		.4byte	0x19bd
 6742 19b7 0B       		.uleb128 0xb
 6743 19b8 10040000 		.4byte	0x410
 6744 19bc 00       		.byte	0
 6745 19bd 43       		.uleb128 0x43
 6746 19be B9050000 		.4byte	.LASF234
 6747 19c2 0C       		.byte	0xc
 6748 19c3 DD01     		.2byte	0x1dd
 6749 19c5 44       		.uleb128 0x44
 6750 19c6 4F060000 		.4byte	.LASF235
 6751 19ca 0C       		.byte	0xc
 6752 19cb C601     		.2byte	0x1c6
 6753 19cd 1C010000 		.4byte	0x11c
 6754 19d1 E0190000 		.4byte	0x19e0
 6755 19d5 0B       		.uleb128 0xb
 6756 19d6 1C010000 		.4byte	0x11c
 6757 19da 0B       		.uleb128 0xb
 6758 19db 16030000 		.4byte	0x316
 6759 19df 00       		.byte	0
 6760 19e0 42       		.uleb128 0x42
 6761 19e1 1C010000 		.4byte	.LASF236
 6762 19e5 0C       		.byte	0xc
 6763 19e6 45       		.byte	0x45
 6764 19e7 F1190000 		.4byte	0x19f1
 6765 19eb 0B       		.uleb128 0xb
 6766 19ec 10040000 		.4byte	0x410
 6767 19f0 00       		.byte	0
 6768 19f1 40       		.uleb128 0x40
 6769 19f2 EF0A0000 		.4byte	.LASF237
 6770 19f6 0C       		.byte	0xc
 6771 19f7 42       		.byte	0x42
 6772 19f8 10040000 		.4byte	0x410
 6773 19fc 061A0000 		.4byte	0x1a06
 6774 1a00 0B       		.uleb128 0xb
 6775 1a01 06010000 		.4byte	0x106
 6776 1a05 00       		.byte	0
 6777 1a06 44       		.uleb128 0x44
ARM GAS  /tmp/ccnlRhI2.s 			page 120


 6778 1a07 69010000 		.4byte	.LASF238
 6779 1a0b 0C       		.byte	0xc
 6780 1a0c B801     		.2byte	0x1b8
 6781 1a0e 53010000 		.4byte	0x153
 6782 1a12 211A0000 		.4byte	0x1a21
 6783 1a16 0B       		.uleb128 0xb
 6784 1a17 10040000 		.4byte	0x410
 6785 1a1b 0B       		.uleb128 0xb
 6786 1a1c 06010000 		.4byte	0x106
 6787 1a20 00       		.byte	0
 6788 1a21 42       		.uleb128 0x42
 6789 1a22 9C0A0000 		.4byte	.LASF239
 6790 1a26 0C       		.byte	0xc
 6791 1a27 43       		.byte	0x43
 6792 1a28 371A0000 		.4byte	0x1a37
 6793 1a2c 0B       		.uleb128 0xb
 6794 1a2d 10040000 		.4byte	0x410
 6795 1a31 0B       		.uleb128 0xb
 6796 1a32 25000000 		.4byte	0x25
 6797 1a36 00       		.byte	0
 6798 1a37 40       		.uleb128 0x40
 6799 1a38 0E050000 		.4byte	.LASF240
 6800 1a3c 07       		.byte	0x7
 6801 1a3d 9B       		.byte	0x9b
 6802 1a3e 06010000 		.4byte	0x106
 6803 1a42 4C1A0000 		.4byte	0x1a4c
 6804 1a46 0B       		.uleb128 0xb
 6805 1a47 BF010000 		.4byte	0x1bf
 6806 1a4b 00       		.byte	0
 6807 1a4c 40       		.uleb128 0x40
 6808 1a4d ED030000 		.4byte	.LASF241
 6809 1a51 08       		.byte	0x8
 6810 1a52 CB       		.byte	0xcb
 6811 1a53 06010000 		.4byte	0x106
 6812 1a57 661A0000 		.4byte	0x1a66
 6813 1a5b 0B       		.uleb128 0xb
 6814 1a5c 32010000 		.4byte	0x132
 6815 1a60 0B       		.uleb128 0xb
 6816 1a61 661A0000 		.4byte	0x1a66
 6817 1a65 00       		.byte	0
 6818 1a66 09       		.uleb128 0x9
 6819 1a67 04       		.byte	0x4
 6820 1a68 6C1A0000 		.4byte	0x1a6c
 6821 1a6c 45       		.uleb128 0x45
 6822 1a6d 13020000 		.4byte	0x213
 6823 1a71 40       		.uleb128 0x40
 6824 1a72 CC060000 		.4byte	.LASF242
 6825 1a76 11       		.byte	0x11
 6826 1a77 4B       		.byte	0x4b
 6827 1a78 1C010000 		.4byte	0x11c
 6828 1a7c 9A1A0000 		.4byte	0x1a9a
 6829 1a80 0B       		.uleb128 0xb
 6830 1a81 BF010000 		.4byte	0x1bf
 6831 1a85 0B       		.uleb128 0xb
 6832 1a86 16030000 		.4byte	0x316
 6833 1a8a 0B       		.uleb128 0xb
 6834 1a8b 16030000 		.4byte	0x316
ARM GAS  /tmp/ccnlRhI2.s 			page 121


 6835 1a8f 0B       		.uleb128 0xb
 6836 1a90 06010000 		.4byte	0x106
 6837 1a94 0B       		.uleb128 0xb
 6838 1a95 1C010000 		.4byte	0x11c
 6839 1a99 00       		.byte	0
 6840 1a9a 40       		.uleb128 0x40
 6841 1a9b 9F000000 		.4byte	.LASF243
 6842 1a9f 0C       		.byte	0xc
 6843 1aa0 49       		.byte	0x49
 6844 1aa1 53010000 		.4byte	0x153
 6845 1aa5 AF1A0000 		.4byte	0x1aaf
 6846 1aa9 0B       		.uleb128 0xb
 6847 1aaa 10040000 		.4byte	0x410
 6848 1aae 00       		.byte	0
 6849 1aaf 41       		.uleb128 0x41
 6850 1ab0 E7010000 		.4byte	.LASF244
 6851 1ab4 0C       		.byte	0xc
 6852 1ab5 A101     		.2byte	0x1a1
 6853 1ab7 C61A0000 		.4byte	0x1ac6
 6854 1abb 0B       		.uleb128 0xb
 6855 1abc C61A0000 		.4byte	0x1ac6
 6856 1ac0 0B       		.uleb128 0xb
 6857 1ac1 10040000 		.4byte	0x410
 6858 1ac5 00       		.byte	0
 6859 1ac6 09       		.uleb128 0x9
 6860 1ac7 04       		.byte	0x4
 6861 1ac8 10040000 		.4byte	0x410
 6862 1acc 42       		.uleb128 0x42
 6863 1acd 250A0000 		.4byte	.LASF245
 6864 1ad1 0D       		.byte	0xd
 6865 1ad2 6C       		.byte	0x6c
 6866 1ad3 E21A0000 		.4byte	0x1ae2
 6867 1ad7 0B       		.uleb128 0xb
 6868 1ad8 B3090000 		.4byte	0x9b3
 6869 1adc 0B       		.uleb128 0xb
 6870 1add F6000000 		.4byte	0xf6
 6871 1ae1 00       		.byte	0
 6872 1ae2 44       		.uleb128 0x44
 6873 1ae3 20050000 		.4byte	.LASF246
 6874 1ae7 0C       		.byte	0xc
 6875 1ae8 CA01     		.2byte	0x1ca
 6876 1aea 53010000 		.4byte	0x153
 6877 1aee 071B0000 		.4byte	0x1b07
 6878 1af2 0B       		.uleb128 0xb
 6879 1af3 F6000000 		.4byte	0xf6
 6880 1af7 0B       		.uleb128 0xb
 6881 1af8 10040000 		.4byte	0x410
 6882 1afc 0B       		.uleb128 0xb
 6883 1afd BF010000 		.4byte	0x1bf
 6884 1b01 0B       		.uleb128 0xb
 6885 1b02 53010000 		.4byte	0x153
 6886 1b06 00       		.byte	0
 6887 1b07 46       		.uleb128 0x46
 6888 1b08 19060000 		.4byte	.LASF254
 6889 1b0c 0B       		.byte	0xb
 6890 1b0d 5E01     		.2byte	0x15e
 6891 1b0f 0B       		.uleb128 0xb
ARM GAS  /tmp/ccnlRhI2.s 			page 122


 6892 1b10 10040000 		.4byte	0x410
 6893 1b14 00       		.byte	0
 6894 1b15 00       		.byte	0
 6895              		.section	.debug_abbrev,"",%progbits
 6896              	.Ldebug_abbrev0:
 6897 0000 01       		.uleb128 0x1
 6898 0001 11       		.uleb128 0x11
 6899 0002 01       		.byte	0x1
 6900 0003 25       		.uleb128 0x25
 6901 0004 0E       		.uleb128 0xe
 6902 0005 13       		.uleb128 0x13
 6903 0006 0B       		.uleb128 0xb
 6904 0007 03       		.uleb128 0x3
 6905 0008 0E       		.uleb128 0xe
 6906 0009 1B       		.uleb128 0x1b
 6907 000a 0E       		.uleb128 0xe
 6908 000b 55       		.uleb128 0x55
 6909 000c 17       		.uleb128 0x17
 6910 000d 11       		.uleb128 0x11
 6911 000e 01       		.uleb128 0x1
 6912 000f 10       		.uleb128 0x10
 6913 0010 17       		.uleb128 0x17
 6914 0011 00       		.byte	0
 6915 0012 00       		.byte	0
 6916 0013 02       		.uleb128 0x2
 6917 0014 24       		.uleb128 0x24
 6918 0015 00       		.byte	0
 6919 0016 0B       		.uleb128 0xb
 6920 0017 0B       		.uleb128 0xb
 6921 0018 3E       		.uleb128 0x3e
 6922 0019 0B       		.uleb128 0xb
 6923 001a 03       		.uleb128 0x3
 6924 001b 08       		.uleb128 0x8
 6925 001c 00       		.byte	0
 6926 001d 00       		.byte	0
 6927 001e 03       		.uleb128 0x3
 6928 001f 24       		.uleb128 0x24
 6929 0020 00       		.byte	0
 6930 0021 0B       		.uleb128 0xb
 6931 0022 0B       		.uleb128 0xb
 6932 0023 3E       		.uleb128 0x3e
 6933 0024 0B       		.uleb128 0xb
 6934 0025 03       		.uleb128 0x3
 6935 0026 0E       		.uleb128 0xe
 6936 0027 00       		.byte	0
 6937 0028 00       		.byte	0
 6938 0029 04       		.uleb128 0x4
 6939 002a 16       		.uleb128 0x16
 6940 002b 00       		.byte	0
 6941 002c 03       		.uleb128 0x3
 6942 002d 0E       		.uleb128 0xe
 6943 002e 3A       		.uleb128 0x3a
 6944 002f 0B       		.uleb128 0xb
 6945 0030 3B       		.uleb128 0x3b
 6946 0031 0B       		.uleb128 0xb
 6947 0032 49       		.uleb128 0x49
 6948 0033 13       		.uleb128 0x13
ARM GAS  /tmp/ccnlRhI2.s 			page 123


 6949 0034 00       		.byte	0
 6950 0035 00       		.byte	0
 6951 0036 05       		.uleb128 0x5
 6952 0037 0F       		.uleb128 0xf
 6953 0038 00       		.byte	0
 6954 0039 0B       		.uleb128 0xb
 6955 003a 0B       		.uleb128 0xb
 6956 003b 00       		.byte	0
 6957 003c 00       		.byte	0
 6958 003d 06       		.uleb128 0x6
 6959 003e 13       		.uleb128 0x13
 6960 003f 01       		.byte	0x1
 6961 0040 03       		.uleb128 0x3
 6962 0041 0E       		.uleb128 0xe
 6963 0042 0B       		.uleb128 0xb
 6964 0043 0B       		.uleb128 0xb
 6965 0044 3A       		.uleb128 0x3a
 6966 0045 0B       		.uleb128 0xb
 6967 0046 3B       		.uleb128 0x3b
 6968 0047 0B       		.uleb128 0xb
 6969 0048 01       		.uleb128 0x1
 6970 0049 13       		.uleb128 0x13
 6971 004a 00       		.byte	0
 6972 004b 00       		.byte	0
 6973 004c 07       		.uleb128 0x7
 6974 004d 0D       		.uleb128 0xd
 6975 004e 00       		.byte	0
 6976 004f 03       		.uleb128 0x3
 6977 0050 0E       		.uleb128 0xe
 6978 0051 3A       		.uleb128 0x3a
 6979 0052 0B       		.uleb128 0xb
 6980 0053 3B       		.uleb128 0x3b
 6981 0054 0B       		.uleb128 0xb
 6982 0055 49       		.uleb128 0x49
 6983 0056 13       		.uleb128 0x13
 6984 0057 38       		.uleb128 0x38
 6985 0058 0B       		.uleb128 0xb
 6986 0059 00       		.byte	0
 6987 005a 00       		.byte	0
 6988 005b 08       		.uleb128 0x8
 6989 005c 0D       		.uleb128 0xd
 6990 005d 00       		.byte	0
 6991 005e 03       		.uleb128 0x3
 6992 005f 08       		.uleb128 0x8
 6993 0060 3A       		.uleb128 0x3a
 6994 0061 0B       		.uleb128 0xb
 6995 0062 3B       		.uleb128 0x3b
 6996 0063 0B       		.uleb128 0xb
 6997 0064 49       		.uleb128 0x49
 6998 0065 13       		.uleb128 0x13
 6999 0066 38       		.uleb128 0x38
 7000 0067 0B       		.uleb128 0xb
 7001 0068 00       		.byte	0
 7002 0069 00       		.byte	0
 7003 006a 09       		.uleb128 0x9
 7004 006b 0F       		.uleb128 0xf
 7005 006c 00       		.byte	0
ARM GAS  /tmp/ccnlRhI2.s 			page 124


 7006 006d 0B       		.uleb128 0xb
 7007 006e 0B       		.uleb128 0xb
 7008 006f 49       		.uleb128 0x49
 7009 0070 13       		.uleb128 0x13
 7010 0071 00       		.byte	0
 7011 0072 00       		.byte	0
 7012 0073 0A       		.uleb128 0xa
 7013 0074 15       		.uleb128 0x15
 7014 0075 01       		.byte	0x1
 7015 0076 27       		.uleb128 0x27
 7016 0077 19       		.uleb128 0x19
 7017 0078 49       		.uleb128 0x49
 7018 0079 13       		.uleb128 0x13
 7019 007a 01       		.uleb128 0x1
 7020 007b 13       		.uleb128 0x13
 7021 007c 00       		.byte	0
 7022 007d 00       		.byte	0
 7023 007e 0B       		.uleb128 0xb
 7024 007f 05       		.uleb128 0x5
 7025 0080 00       		.byte	0
 7026 0081 49       		.uleb128 0x49
 7027 0082 13       		.uleb128 0x13
 7028 0083 00       		.byte	0
 7029 0084 00       		.byte	0
 7030 0085 0C       		.uleb128 0xc
 7031 0086 01       		.uleb128 0x1
 7032 0087 01       		.byte	0x1
 7033 0088 49       		.uleb128 0x49
 7034 0089 13       		.uleb128 0x13
 7035 008a 01       		.uleb128 0x1
 7036 008b 13       		.uleb128 0x13
 7037 008c 00       		.byte	0
 7038 008d 00       		.byte	0
 7039 008e 0D       		.uleb128 0xd
 7040 008f 21       		.uleb128 0x21
 7041 0090 00       		.byte	0
 7042 0091 49       		.uleb128 0x49
 7043 0092 13       		.uleb128 0x13
 7044 0093 2F       		.uleb128 0x2f
 7045 0094 0B       		.uleb128 0xb
 7046 0095 00       		.byte	0
 7047 0096 00       		.byte	0
 7048 0097 0E       		.uleb128 0xe
 7049 0098 0D       		.uleb128 0xd
 7050 0099 00       		.byte	0
 7051 009a 03       		.uleb128 0x3
 7052 009b 0E       		.uleb128 0xe
 7053 009c 3A       		.uleb128 0x3a
 7054 009d 0B       		.uleb128 0xb
 7055 009e 3B       		.uleb128 0x3b
 7056 009f 05       		.uleb128 0x5
 7057 00a0 49       		.uleb128 0x49
 7058 00a1 13       		.uleb128 0x13
 7059 00a2 38       		.uleb128 0x38
 7060 00a3 0B       		.uleb128 0xb
 7061 00a4 00       		.byte	0
 7062 00a5 00       		.byte	0
ARM GAS  /tmp/ccnlRhI2.s 			page 125


 7063 00a6 0F       		.uleb128 0xf
 7064 00a7 15       		.uleb128 0x15
 7065 00a8 01       		.byte	0x1
 7066 00a9 27       		.uleb128 0x27
 7067 00aa 19       		.uleb128 0x19
 7068 00ab 01       		.uleb128 0x1
 7069 00ac 13       		.uleb128 0x13
 7070 00ad 00       		.byte	0
 7071 00ae 00       		.byte	0
 7072 00af 10       		.uleb128 0x10
 7073 00b0 04       		.uleb128 0x4
 7074 00b1 01       		.byte	0x1
 7075 00b2 03       		.uleb128 0x3
 7076 00b3 0E       		.uleb128 0xe
 7077 00b4 0B       		.uleb128 0xb
 7078 00b5 0B       		.uleb128 0xb
 7079 00b6 3A       		.uleb128 0x3a
 7080 00b7 0B       		.uleb128 0xb
 7081 00b8 3B       		.uleb128 0x3b
 7082 00b9 0B       		.uleb128 0xb
 7083 00ba 01       		.uleb128 0x1
 7084 00bb 13       		.uleb128 0x13
 7085 00bc 00       		.byte	0
 7086 00bd 00       		.byte	0
 7087 00be 11       		.uleb128 0x11
 7088 00bf 28       		.uleb128 0x28
 7089 00c0 00       		.byte	0
 7090 00c1 03       		.uleb128 0x3
 7091 00c2 0E       		.uleb128 0xe
 7092 00c3 1C       		.uleb128 0x1c
 7093 00c4 0D       		.uleb128 0xd
 7094 00c5 00       		.byte	0
 7095 00c6 00       		.byte	0
 7096 00c7 12       		.uleb128 0x12
 7097 00c8 13       		.uleb128 0x13
 7098 00c9 01       		.byte	0x1
 7099 00ca 03       		.uleb128 0x3
 7100 00cb 0E       		.uleb128 0xe
 7101 00cc 0B       		.uleb128 0xb
 7102 00cd 0B       		.uleb128 0xb
 7103 00ce 3A       		.uleb128 0x3a
 7104 00cf 0B       		.uleb128 0xb
 7105 00d0 3B       		.uleb128 0x3b
 7106 00d1 05       		.uleb128 0x5
 7107 00d2 01       		.uleb128 0x1
 7108 00d3 13       		.uleb128 0x13
 7109 00d4 00       		.byte	0
 7110 00d5 00       		.byte	0
 7111 00d6 13       		.uleb128 0x13
 7112 00d7 0D       		.uleb128 0xd
 7113 00d8 00       		.byte	0
 7114 00d9 03       		.uleb128 0x3
 7115 00da 08       		.uleb128 0x8
 7116 00db 3A       		.uleb128 0x3a
 7117 00dc 0B       		.uleb128 0xb
 7118 00dd 3B       		.uleb128 0x3b
 7119 00de 05       		.uleb128 0x5
ARM GAS  /tmp/ccnlRhI2.s 			page 126


 7120 00df 49       		.uleb128 0x49
 7121 00e0 13       		.uleb128 0x13
 7122 00e1 38       		.uleb128 0x38
 7123 00e2 0B       		.uleb128 0xb
 7124 00e3 00       		.byte	0
 7125 00e4 00       		.byte	0
 7126 00e5 14       		.uleb128 0x14
 7127 00e6 17       		.uleb128 0x17
 7128 00e7 01       		.byte	0x1
 7129 00e8 03       		.uleb128 0x3
 7130 00e9 0E       		.uleb128 0xe
 7131 00ea 0B       		.uleb128 0xb
 7132 00eb 0B       		.uleb128 0xb
 7133 00ec 3A       		.uleb128 0x3a
 7134 00ed 0B       		.uleb128 0xb
 7135 00ee 3B       		.uleb128 0x3b
 7136 00ef 05       		.uleb128 0x5
 7137 00f0 01       		.uleb128 0x1
 7138 00f1 13       		.uleb128 0x13
 7139 00f2 00       		.byte	0
 7140 00f3 00       		.byte	0
 7141 00f4 15       		.uleb128 0x15
 7142 00f5 0D       		.uleb128 0xd
 7143 00f6 00       		.byte	0
 7144 00f7 03       		.uleb128 0x3
 7145 00f8 0E       		.uleb128 0xe
 7146 00f9 3A       		.uleb128 0x3a
 7147 00fa 0B       		.uleb128 0xb
 7148 00fb 3B       		.uleb128 0x3b
 7149 00fc 05       		.uleb128 0x5
 7150 00fd 49       		.uleb128 0x49
 7151 00fe 13       		.uleb128 0x13
 7152 00ff 00       		.byte	0
 7153 0100 00       		.byte	0
 7154 0101 16       		.uleb128 0x16
 7155 0102 04       		.uleb128 0x4
 7156 0103 01       		.byte	0x1
 7157 0104 0B       		.uleb128 0xb
 7158 0105 0B       		.uleb128 0xb
 7159 0106 3A       		.uleb128 0x3a
 7160 0107 0B       		.uleb128 0xb
 7161 0108 3B       		.uleb128 0x3b
 7162 0109 0B       		.uleb128 0xb
 7163 010a 01       		.uleb128 0x1
 7164 010b 13       		.uleb128 0x13
 7165 010c 00       		.byte	0
 7166 010d 00       		.byte	0
 7167 010e 17       		.uleb128 0x17
 7168 010f 13       		.uleb128 0x13
 7169 0110 01       		.byte	0x1
 7170 0111 03       		.uleb128 0x3
 7171 0112 0E       		.uleb128 0xe
 7172 0113 0B       		.uleb128 0xb
 7173 0114 05       		.uleb128 0x5
 7174 0115 3A       		.uleb128 0x3a
 7175 0116 0B       		.uleb128 0xb
 7176 0117 3B       		.uleb128 0x3b
ARM GAS  /tmp/ccnlRhI2.s 			page 127


 7177 0118 0B       		.uleb128 0xb
 7178 0119 01       		.uleb128 0x1
 7179 011a 13       		.uleb128 0x13
 7180 011b 00       		.byte	0
 7181 011c 00       		.byte	0
 7182 011d 18       		.uleb128 0x18
 7183 011e 0D       		.uleb128 0xd
 7184 011f 00       		.byte	0
 7185 0120 03       		.uleb128 0x3
 7186 0121 08       		.uleb128 0x8
 7187 0122 3A       		.uleb128 0x3a
 7188 0123 0B       		.uleb128 0xb
 7189 0124 3B       		.uleb128 0x3b
 7190 0125 0B       		.uleb128 0xb
 7191 0126 49       		.uleb128 0x49
 7192 0127 13       		.uleb128 0x13
 7193 0128 38       		.uleb128 0x38
 7194 0129 05       		.uleb128 0x5
 7195 012a 00       		.byte	0
 7196 012b 00       		.byte	0
 7197 012c 19       		.uleb128 0x19
 7198 012d 2E       		.uleb128 0x2e
 7199 012e 01       		.byte	0x1
 7200 012f 03       		.uleb128 0x3
 7201 0130 0E       		.uleb128 0xe
 7202 0131 3A       		.uleb128 0x3a
 7203 0132 0B       		.uleb128 0xb
 7204 0133 3B       		.uleb128 0x3b
 7205 0134 05       		.uleb128 0x5
 7206 0135 27       		.uleb128 0x27
 7207 0136 19       		.uleb128 0x19
 7208 0137 20       		.uleb128 0x20
 7209 0138 0B       		.uleb128 0xb
 7210 0139 01       		.uleb128 0x1
 7211 013a 13       		.uleb128 0x13
 7212 013b 00       		.byte	0
 7213 013c 00       		.byte	0
 7214 013d 1A       		.uleb128 0x1a
 7215 013e 05       		.uleb128 0x5
 7216 013f 00       		.byte	0
 7217 0140 03       		.uleb128 0x3
 7218 0141 08       		.uleb128 0x8
 7219 0142 3A       		.uleb128 0x3a
 7220 0143 0B       		.uleb128 0xb
 7221 0144 3B       		.uleb128 0x3b
 7222 0145 05       		.uleb128 0x5
 7223 0146 49       		.uleb128 0x49
 7224 0147 13       		.uleb128 0x13
 7225 0148 00       		.byte	0
 7226 0149 00       		.byte	0
 7227 014a 1B       		.uleb128 0x1b
 7228 014b 34       		.uleb128 0x34
 7229 014c 00       		.byte	0
 7230 014d 03       		.uleb128 0x3
 7231 014e 08       		.uleb128 0x8
 7232 014f 3A       		.uleb128 0x3a
 7233 0150 0B       		.uleb128 0xb
ARM GAS  /tmp/ccnlRhI2.s 			page 128


 7234 0151 3B       		.uleb128 0x3b
 7235 0152 05       		.uleb128 0x5
 7236 0153 49       		.uleb128 0x49
 7237 0154 13       		.uleb128 0x13
 7238 0155 00       		.byte	0
 7239 0156 00       		.byte	0
 7240 0157 1C       		.uleb128 0x1c
 7241 0158 34       		.uleb128 0x34
 7242 0159 00       		.byte	0
 7243 015a 03       		.uleb128 0x3
 7244 015b 0E       		.uleb128 0xe
 7245 015c 3A       		.uleb128 0x3a
 7246 015d 0B       		.uleb128 0xb
 7247 015e 3B       		.uleb128 0x3b
 7248 015f 05       		.uleb128 0x5
 7249 0160 49       		.uleb128 0x49
 7250 0161 13       		.uleb128 0x13
 7251 0162 00       		.byte	0
 7252 0163 00       		.byte	0
 7253 0164 1D       		.uleb128 0x1d
 7254 0165 2E       		.uleb128 0x2e
 7255 0166 01       		.byte	0x1
 7256 0167 03       		.uleb128 0x3
 7257 0168 0E       		.uleb128 0xe
 7258 0169 3A       		.uleb128 0x3a
 7259 016a 0B       		.uleb128 0xb
 7260 016b 3B       		.uleb128 0x3b
 7261 016c 05       		.uleb128 0x5
 7262 016d 27       		.uleb128 0x27
 7263 016e 19       		.uleb128 0x19
 7264 016f 11       		.uleb128 0x11
 7265 0170 01       		.uleb128 0x1
 7266 0171 12       		.uleb128 0x12
 7267 0172 06       		.uleb128 0x6
 7268 0173 40       		.uleb128 0x40
 7269 0174 18       		.uleb128 0x18
 7270 0175 9742     		.uleb128 0x2117
 7271 0177 19       		.uleb128 0x19
 7272 0178 01       		.uleb128 0x1
 7273 0179 13       		.uleb128 0x13
 7274 017a 00       		.byte	0
 7275 017b 00       		.byte	0
 7276 017c 1E       		.uleb128 0x1e
 7277 017d 05       		.uleb128 0x5
 7278 017e 00       		.byte	0
 7279 017f 03       		.uleb128 0x3
 7280 0180 0E       		.uleb128 0xe
 7281 0181 3A       		.uleb128 0x3a
 7282 0182 0B       		.uleb128 0xb
 7283 0183 3B       		.uleb128 0x3b
 7284 0184 05       		.uleb128 0x5
 7285 0185 49       		.uleb128 0x49
 7286 0186 13       		.uleb128 0x13
 7287 0187 02       		.uleb128 0x2
 7288 0188 17       		.uleb128 0x17
 7289 0189 00       		.byte	0
 7290 018a 00       		.byte	0
ARM GAS  /tmp/ccnlRhI2.s 			page 129


 7291 018b 1F       		.uleb128 0x1f
 7292 018c 34       		.uleb128 0x34
 7293 018d 00       		.byte	0
 7294 018e 03       		.uleb128 0x3
 7295 018f 0E       		.uleb128 0xe
 7296 0190 3A       		.uleb128 0x3a
 7297 0191 0B       		.uleb128 0xb
 7298 0192 3B       		.uleb128 0x3b
 7299 0193 05       		.uleb128 0x5
 7300 0194 49       		.uleb128 0x49
 7301 0195 13       		.uleb128 0x13
 7302 0196 02       		.uleb128 0x2
 7303 0197 17       		.uleb128 0x17
 7304 0198 00       		.byte	0
 7305 0199 00       		.byte	0
 7306 019a 20       		.uleb128 0x20
 7307 019b 898201   		.uleb128 0x4109
 7308 019e 00       		.byte	0
 7309 019f 11       		.uleb128 0x11
 7310 01a0 01       		.uleb128 0x1
 7311 01a1 31       		.uleb128 0x31
 7312 01a2 13       		.uleb128 0x13
 7313 01a3 00       		.byte	0
 7314 01a4 00       		.byte	0
 7315 01a5 21       		.uleb128 0x21
 7316 01a6 898201   		.uleb128 0x4109
 7317 01a9 01       		.byte	0x1
 7318 01aa 11       		.uleb128 0x11
 7319 01ab 01       		.uleb128 0x1
 7320 01ac 31       		.uleb128 0x31
 7321 01ad 13       		.uleb128 0x13
 7322 01ae 01       		.uleb128 0x1
 7323 01af 13       		.uleb128 0x13
 7324 01b0 00       		.byte	0
 7325 01b1 00       		.byte	0
 7326 01b2 22       		.uleb128 0x22
 7327 01b3 8A8201   		.uleb128 0x410a
 7328 01b6 00       		.byte	0
 7329 01b7 02       		.uleb128 0x2
 7330 01b8 18       		.uleb128 0x18
 7331 01b9 9142     		.uleb128 0x2111
 7332 01bb 18       		.uleb128 0x18
 7333 01bc 00       		.byte	0
 7334 01bd 00       		.byte	0
 7335 01be 23       		.uleb128 0x23
 7336 01bf 898201   		.uleb128 0x4109
 7337 01c2 01       		.byte	0x1
 7338 01c3 11       		.uleb128 0x11
 7339 01c4 01       		.uleb128 0x1
 7340 01c5 31       		.uleb128 0x31
 7341 01c6 13       		.uleb128 0x13
 7342 01c7 00       		.byte	0
 7343 01c8 00       		.byte	0
 7344 01c9 24       		.uleb128 0x24
 7345 01ca 05       		.uleb128 0x5
 7346 01cb 00       		.byte	0
 7347 01cc 03       		.uleb128 0x3
ARM GAS  /tmp/ccnlRhI2.s 			page 130


 7348 01cd 08       		.uleb128 0x8
 7349 01ce 3A       		.uleb128 0x3a
 7350 01cf 0B       		.uleb128 0xb
 7351 01d0 3B       		.uleb128 0x3b
 7352 01d1 05       		.uleb128 0x5
 7353 01d2 49       		.uleb128 0x49
 7354 01d3 13       		.uleb128 0x13
 7355 01d4 02       		.uleb128 0x2
 7356 01d5 17       		.uleb128 0x17
 7357 01d6 00       		.byte	0
 7358 01d7 00       		.byte	0
 7359 01d8 25       		.uleb128 0x25
 7360 01d9 34       		.uleb128 0x34
 7361 01da 00       		.byte	0
 7362 01db 03       		.uleb128 0x3
 7363 01dc 08       		.uleb128 0x8
 7364 01dd 3A       		.uleb128 0x3a
 7365 01de 0B       		.uleb128 0xb
 7366 01df 3B       		.uleb128 0x3b
 7367 01e0 05       		.uleb128 0x5
 7368 01e1 49       		.uleb128 0x49
 7369 01e2 13       		.uleb128 0x13
 7370 01e3 02       		.uleb128 0x2
 7371 01e4 17       		.uleb128 0x17
 7372 01e5 00       		.byte	0
 7373 01e6 00       		.byte	0
 7374 01e7 26       		.uleb128 0x26
 7375 01e8 0B       		.uleb128 0xb
 7376 01e9 01       		.byte	0x1
 7377 01ea 11       		.uleb128 0x11
 7378 01eb 01       		.uleb128 0x1
 7379 01ec 12       		.uleb128 0x12
 7380 01ed 06       		.uleb128 0x6
 7381 01ee 01       		.uleb128 0x1
 7382 01ef 13       		.uleb128 0x13
 7383 01f0 00       		.byte	0
 7384 01f1 00       		.byte	0
 7385 01f2 27       		.uleb128 0x27
 7386 01f3 898201   		.uleb128 0x4109
 7387 01f6 01       		.byte	0x1
 7388 01f7 11       		.uleb128 0x11
 7389 01f8 01       		.uleb128 0x1
 7390 01f9 9542     		.uleb128 0x2115
 7391 01fb 19       		.uleb128 0x19
 7392 01fc 31       		.uleb128 0x31
 7393 01fd 13       		.uleb128 0x13
 7394 01fe 01       		.uleb128 0x1
 7395 01ff 13       		.uleb128 0x13
 7396 0200 00       		.byte	0
 7397 0201 00       		.byte	0
 7398 0202 28       		.uleb128 0x28
 7399 0203 898201   		.uleb128 0x4109
 7400 0206 00       		.byte	0
 7401 0207 11       		.uleb128 0x11
 7402 0208 01       		.uleb128 0x1
 7403 0209 9542     		.uleb128 0x2115
 7404 020b 19       		.uleb128 0x19
ARM GAS  /tmp/ccnlRhI2.s 			page 131


 7405 020c 31       		.uleb128 0x31
 7406 020d 13       		.uleb128 0x13
 7407 020e 00       		.byte	0
 7408 020f 00       		.byte	0
 7409 0210 29       		.uleb128 0x29
 7410 0211 2E       		.uleb128 0x2e
 7411 0212 01       		.byte	0x1
 7412 0213 31       		.uleb128 0x31
 7413 0214 13       		.uleb128 0x13
 7414 0215 11       		.uleb128 0x11
 7415 0216 01       		.uleb128 0x1
 7416 0217 12       		.uleb128 0x12
 7417 0218 06       		.uleb128 0x6
 7418 0219 40       		.uleb128 0x40
 7419 021a 18       		.uleb128 0x18
 7420 021b 9742     		.uleb128 0x2117
 7421 021d 19       		.uleb128 0x19
 7422 021e 01       		.uleb128 0x1
 7423 021f 13       		.uleb128 0x13
 7424 0220 00       		.byte	0
 7425 0221 00       		.byte	0
 7426 0222 2A       		.uleb128 0x2a
 7427 0223 05       		.uleb128 0x5
 7428 0224 00       		.byte	0
 7429 0225 31       		.uleb128 0x31
 7430 0226 13       		.uleb128 0x13
 7431 0227 02       		.uleb128 0x2
 7432 0228 18       		.uleb128 0x18
 7433 0229 00       		.byte	0
 7434 022a 00       		.byte	0
 7435 022b 2B       		.uleb128 0x2b
 7436 022c 34       		.uleb128 0x34
 7437 022d 00       		.byte	0
 7438 022e 31       		.uleb128 0x31
 7439 022f 13       		.uleb128 0x13
 7440 0230 02       		.uleb128 0x2
 7441 0231 17       		.uleb128 0x17
 7442 0232 00       		.byte	0
 7443 0233 00       		.byte	0
 7444 0234 2C       		.uleb128 0x2c
 7445 0235 34       		.uleb128 0x34
 7446 0236 00       		.byte	0
 7447 0237 31       		.uleb128 0x31
 7448 0238 13       		.uleb128 0x13
 7449 0239 02       		.uleb128 0x2
 7450 023a 18       		.uleb128 0x18
 7451 023b 00       		.byte	0
 7452 023c 00       		.byte	0
 7453 023d 2D       		.uleb128 0x2d
 7454 023e 2E       		.uleb128 0x2e
 7455 023f 01       		.byte	0x1
 7456 0240 03       		.uleb128 0x3
 7457 0241 0E       		.uleb128 0xe
 7458 0242 3A       		.uleb128 0x3a
 7459 0243 0B       		.uleb128 0xb
 7460 0244 3B       		.uleb128 0x3b
 7461 0245 05       		.uleb128 0x5
ARM GAS  /tmp/ccnlRhI2.s 			page 132


 7462 0246 27       		.uleb128 0x27
 7463 0247 19       		.uleb128 0x19
 7464 0248 49       		.uleb128 0x49
 7465 0249 13       		.uleb128 0x13
 7466 024a 20       		.uleb128 0x20
 7467 024b 0B       		.uleb128 0xb
 7468 024c 01       		.uleb128 0x1
 7469 024d 13       		.uleb128 0x13
 7470 024e 00       		.byte	0
 7471 024f 00       		.byte	0
 7472 0250 2E       		.uleb128 0x2e
 7473 0251 0B       		.uleb128 0xb
 7474 0252 01       		.byte	0x1
 7475 0253 00       		.byte	0
 7476 0254 00       		.byte	0
 7477 0255 2F       		.uleb128 0x2f
 7478 0256 2E       		.uleb128 0x2e
 7479 0257 01       		.byte	0x1
 7480 0258 3F       		.uleb128 0x3f
 7481 0259 19       		.uleb128 0x19
 7482 025a 03       		.uleb128 0x3
 7483 025b 0E       		.uleb128 0xe
 7484 025c 3A       		.uleb128 0x3a
 7485 025d 0B       		.uleb128 0xb
 7486 025e 3B       		.uleb128 0x3b
 7487 025f 0B       		.uleb128 0xb
 7488 0260 27       		.uleb128 0x27
 7489 0261 19       		.uleb128 0x19
 7490 0262 11       		.uleb128 0x11
 7491 0263 01       		.uleb128 0x1
 7492 0264 12       		.uleb128 0x12
 7493 0265 06       		.uleb128 0x6
 7494 0266 40       		.uleb128 0x40
 7495 0267 18       		.uleb128 0x18
 7496 0268 9742     		.uleb128 0x2117
 7497 026a 19       		.uleb128 0x19
 7498 026b 01       		.uleb128 0x1
 7499 026c 13       		.uleb128 0x13
 7500 026d 00       		.byte	0
 7501 026e 00       		.byte	0
 7502 026f 30       		.uleb128 0x30
 7503 0270 05       		.uleb128 0x5
 7504 0271 00       		.byte	0
 7505 0272 03       		.uleb128 0x3
 7506 0273 08       		.uleb128 0x8
 7507 0274 3A       		.uleb128 0x3a
 7508 0275 0B       		.uleb128 0xb
 7509 0276 3B       		.uleb128 0x3b
 7510 0277 0B       		.uleb128 0xb
 7511 0278 49       		.uleb128 0x49
 7512 0279 13       		.uleb128 0x13
 7513 027a 02       		.uleb128 0x2
 7514 027b 17       		.uleb128 0x17
 7515 027c 00       		.byte	0
 7516 027d 00       		.byte	0
 7517 027e 31       		.uleb128 0x31
 7518 027f 34       		.uleb128 0x34
ARM GAS  /tmp/ccnlRhI2.s 			page 133


 7519 0280 00       		.byte	0
 7520 0281 03       		.uleb128 0x3
 7521 0282 08       		.uleb128 0x8
 7522 0283 3A       		.uleb128 0x3a
 7523 0284 0B       		.uleb128 0xb
 7524 0285 3B       		.uleb128 0x3b
 7525 0286 0B       		.uleb128 0xb
 7526 0287 49       		.uleb128 0x49
 7527 0288 13       		.uleb128 0x13
 7528 0289 02       		.uleb128 0x2
 7529 028a 17       		.uleb128 0x17
 7530 028b 00       		.byte	0
 7531 028c 00       		.byte	0
 7532 028d 32       		.uleb128 0x32
 7533 028e 34       		.uleb128 0x34
 7534 028f 00       		.byte	0
 7535 0290 03       		.uleb128 0x3
 7536 0291 0E       		.uleb128 0xe
 7537 0292 3A       		.uleb128 0x3a
 7538 0293 0B       		.uleb128 0xb
 7539 0294 3B       		.uleb128 0x3b
 7540 0295 0B       		.uleb128 0xb
 7541 0296 49       		.uleb128 0x49
 7542 0297 13       		.uleb128 0x13
 7543 0298 02       		.uleb128 0x2
 7544 0299 17       		.uleb128 0x17
 7545 029a 00       		.byte	0
 7546 029b 00       		.byte	0
 7547 029c 33       		.uleb128 0x33
 7548 029d 0A       		.uleb128 0xa
 7549 029e 00       		.byte	0
 7550 029f 03       		.uleb128 0x3
 7551 02a0 0E       		.uleb128 0xe
 7552 02a1 3A       		.uleb128 0x3a
 7553 02a2 0B       		.uleb128 0xb
 7554 02a3 3B       		.uleb128 0x3b
 7555 02a4 05       		.uleb128 0x5
 7556 02a5 11       		.uleb128 0x11
 7557 02a6 01       		.uleb128 0x1
 7558 02a7 00       		.byte	0
 7559 02a8 00       		.byte	0
 7560 02a9 34       		.uleb128 0x34
 7561 02aa 1D       		.uleb128 0x1d
 7562 02ab 01       		.byte	0x1
 7563 02ac 31       		.uleb128 0x31
 7564 02ad 13       		.uleb128 0x13
 7565 02ae 52       		.uleb128 0x52
 7566 02af 01       		.uleb128 0x1
 7567 02b0 55       		.uleb128 0x55
 7568 02b1 17       		.uleb128 0x17
 7569 02b2 58       		.uleb128 0x58
 7570 02b3 0B       		.uleb128 0xb
 7571 02b4 59       		.uleb128 0x59
 7572 02b5 0B       		.uleb128 0xb
 7573 02b6 01       		.uleb128 0x1
 7574 02b7 13       		.uleb128 0x13
 7575 02b8 00       		.byte	0
ARM GAS  /tmp/ccnlRhI2.s 			page 134


 7576 02b9 00       		.byte	0
 7577 02ba 35       		.uleb128 0x35
 7578 02bb 05       		.uleb128 0x5
 7579 02bc 00       		.byte	0
 7580 02bd 31       		.uleb128 0x31
 7581 02be 13       		.uleb128 0x13
 7582 02bf 02       		.uleb128 0x2
 7583 02c0 17       		.uleb128 0x17
 7584 02c1 00       		.byte	0
 7585 02c2 00       		.byte	0
 7586 02c3 36       		.uleb128 0x36
 7587 02c4 1D       		.uleb128 0x1d
 7588 02c5 01       		.byte	0x1
 7589 02c6 31       		.uleb128 0x31
 7590 02c7 13       		.uleb128 0x13
 7591 02c8 52       		.uleb128 0x52
 7592 02c9 01       		.uleb128 0x1
 7593 02ca 55       		.uleb128 0x55
 7594 02cb 17       		.uleb128 0x17
 7595 02cc 58       		.uleb128 0x58
 7596 02cd 0B       		.uleb128 0xb
 7597 02ce 59       		.uleb128 0x59
 7598 02cf 05       		.uleb128 0x5
 7599 02d0 01       		.uleb128 0x1
 7600 02d1 13       		.uleb128 0x13
 7601 02d2 00       		.byte	0
 7602 02d3 00       		.byte	0
 7603 02d4 37       		.uleb128 0x37
 7604 02d5 0B       		.uleb128 0xb
 7605 02d6 01       		.byte	0x1
 7606 02d7 55       		.uleb128 0x55
 7607 02d8 17       		.uleb128 0x17
 7608 02d9 00       		.byte	0
 7609 02da 00       		.byte	0
 7610 02db 38       		.uleb128 0x38
 7611 02dc 0B       		.uleb128 0xb
 7612 02dd 01       		.byte	0x1
 7613 02de 55       		.uleb128 0x55
 7614 02df 17       		.uleb128 0x17
 7615 02e0 01       		.uleb128 0x1
 7616 02e1 13       		.uleb128 0x13
 7617 02e2 00       		.byte	0
 7618 02e3 00       		.byte	0
 7619 02e4 39       		.uleb128 0x39
 7620 02e5 898201   		.uleb128 0x4109
 7621 02e8 01       		.byte	0x1
 7622 02e9 11       		.uleb128 0x11
 7623 02ea 01       		.uleb128 0x1
 7624 02eb 01       		.uleb128 0x1
 7625 02ec 13       		.uleb128 0x13
 7626 02ed 00       		.byte	0
 7627 02ee 00       		.byte	0
 7628 02ef 3A       		.uleb128 0x3a
 7629 02f0 8A8201   		.uleb128 0x410a
 7630 02f3 00       		.byte	0
 7631 02f4 31       		.uleb128 0x31
 7632 02f5 13       		.uleb128 0x13
ARM GAS  /tmp/ccnlRhI2.s 			page 135


 7633 02f6 9142     		.uleb128 0x2111
 7634 02f8 18       		.uleb128 0x18
 7635 02f9 00       		.byte	0
 7636 02fa 00       		.byte	0
 7637 02fb 3B       		.uleb128 0x3b
 7638 02fc 898201   		.uleb128 0x4109
 7639 02ff 01       		.byte	0x1
 7640 0300 11       		.uleb128 0x11
 7641 0301 01       		.uleb128 0x1
 7642 0302 9342     		.uleb128 0x2113
 7643 0304 18       		.uleb128 0x18
 7644 0305 01       		.uleb128 0x1
 7645 0306 13       		.uleb128 0x13
 7646 0307 00       		.byte	0
 7647 0308 00       		.byte	0
 7648 0309 3C       		.uleb128 0x3c
 7649 030a 34       		.uleb128 0x34
 7650 030b 00       		.byte	0
 7651 030c 03       		.uleb128 0x3
 7652 030d 0E       		.uleb128 0xe
 7653 030e 3A       		.uleb128 0x3a
 7654 030f 0B       		.uleb128 0xb
 7655 0310 3B       		.uleb128 0x3b
 7656 0311 0B       		.uleb128 0xb
 7657 0312 49       		.uleb128 0x49
 7658 0313 13       		.uleb128 0x13
 7659 0314 02       		.uleb128 0x2
 7660 0315 18       		.uleb128 0x18
 7661 0316 00       		.byte	0
 7662 0317 00       		.byte	0
 7663 0318 3D       		.uleb128 0x3d
 7664 0319 34       		.uleb128 0x34
 7665 031a 00       		.byte	0
 7666 031b 03       		.uleb128 0x3
 7667 031c 0E       		.uleb128 0xe
 7668 031d 3A       		.uleb128 0x3a
 7669 031e 0B       		.uleb128 0xb
 7670 031f 3B       		.uleb128 0x3b
 7671 0320 0B       		.uleb128 0xb
 7672 0321 49       		.uleb128 0x49
 7673 0322 13       		.uleb128 0x13
 7674 0323 3F       		.uleb128 0x3f
 7675 0324 19       		.uleb128 0x19
 7676 0325 3C       		.uleb128 0x3c
 7677 0326 19       		.uleb128 0x19
 7678 0327 00       		.byte	0
 7679 0328 00       		.byte	0
 7680 0329 3E       		.uleb128 0x3e
 7681 032a 34       		.uleb128 0x34
 7682 032b 00       		.byte	0
 7683 032c 03       		.uleb128 0x3
 7684 032d 0E       		.uleb128 0xe
 7685 032e 3A       		.uleb128 0x3a
 7686 032f 0B       		.uleb128 0xb
 7687 0330 3B       		.uleb128 0x3b
 7688 0331 0B       		.uleb128 0xb
 7689 0332 49       		.uleb128 0x49
ARM GAS  /tmp/ccnlRhI2.s 			page 136


 7690 0333 13       		.uleb128 0x13
 7691 0334 3F       		.uleb128 0x3f
 7692 0335 19       		.uleb128 0x19
 7693 0336 02       		.uleb128 0x2
 7694 0337 18       		.uleb128 0x18
 7695 0338 00       		.byte	0
 7696 0339 00       		.byte	0
 7697 033a 3F       		.uleb128 0x3f
 7698 033b 34       		.uleb128 0x34
 7699 033c 00       		.byte	0
 7700 033d 03       		.uleb128 0x3
 7701 033e 0E       		.uleb128 0xe
 7702 033f 3A       		.uleb128 0x3a
 7703 0340 0B       		.uleb128 0xb
 7704 0341 3B       		.uleb128 0x3b
 7705 0342 05       		.uleb128 0x5
 7706 0343 49       		.uleb128 0x49
 7707 0344 13       		.uleb128 0x13
 7708 0345 3F       		.uleb128 0x3f
 7709 0346 19       		.uleb128 0x19
 7710 0347 3C       		.uleb128 0x3c
 7711 0348 19       		.uleb128 0x19
 7712 0349 00       		.byte	0
 7713 034a 00       		.byte	0
 7714 034b 40       		.uleb128 0x40
 7715 034c 2E       		.uleb128 0x2e
 7716 034d 01       		.byte	0x1
 7717 034e 3F       		.uleb128 0x3f
 7718 034f 19       		.uleb128 0x19
 7719 0350 03       		.uleb128 0x3
 7720 0351 0E       		.uleb128 0xe
 7721 0352 3A       		.uleb128 0x3a
 7722 0353 0B       		.uleb128 0xb
 7723 0354 3B       		.uleb128 0x3b
 7724 0355 0B       		.uleb128 0xb
 7725 0356 27       		.uleb128 0x27
 7726 0357 19       		.uleb128 0x19
 7727 0358 49       		.uleb128 0x49
 7728 0359 13       		.uleb128 0x13
 7729 035a 3C       		.uleb128 0x3c
 7730 035b 19       		.uleb128 0x19
 7731 035c 01       		.uleb128 0x1
 7732 035d 13       		.uleb128 0x13
 7733 035e 00       		.byte	0
 7734 035f 00       		.byte	0
 7735 0360 41       		.uleb128 0x41
 7736 0361 2E       		.uleb128 0x2e
 7737 0362 01       		.byte	0x1
 7738 0363 3F       		.uleb128 0x3f
 7739 0364 19       		.uleb128 0x19
 7740 0365 03       		.uleb128 0x3
 7741 0366 0E       		.uleb128 0xe
 7742 0367 3A       		.uleb128 0x3a
 7743 0368 0B       		.uleb128 0xb
 7744 0369 3B       		.uleb128 0x3b
 7745 036a 05       		.uleb128 0x5
 7746 036b 27       		.uleb128 0x27
ARM GAS  /tmp/ccnlRhI2.s 			page 137


 7747 036c 19       		.uleb128 0x19
 7748 036d 3C       		.uleb128 0x3c
 7749 036e 19       		.uleb128 0x19
 7750 036f 01       		.uleb128 0x1
 7751 0370 13       		.uleb128 0x13
 7752 0371 00       		.byte	0
 7753 0372 00       		.byte	0
 7754 0373 42       		.uleb128 0x42
 7755 0374 2E       		.uleb128 0x2e
 7756 0375 01       		.byte	0x1
 7757 0376 3F       		.uleb128 0x3f
 7758 0377 19       		.uleb128 0x19
 7759 0378 03       		.uleb128 0x3
 7760 0379 0E       		.uleb128 0xe
 7761 037a 3A       		.uleb128 0x3a
 7762 037b 0B       		.uleb128 0xb
 7763 037c 3B       		.uleb128 0x3b
 7764 037d 0B       		.uleb128 0xb
 7765 037e 27       		.uleb128 0x27
 7766 037f 19       		.uleb128 0x19
 7767 0380 3C       		.uleb128 0x3c
 7768 0381 19       		.uleb128 0x19
 7769 0382 01       		.uleb128 0x1
 7770 0383 13       		.uleb128 0x13
 7771 0384 00       		.byte	0
 7772 0385 00       		.byte	0
 7773 0386 43       		.uleb128 0x43
 7774 0387 2E       		.uleb128 0x2e
 7775 0388 00       		.byte	0
 7776 0389 3F       		.uleb128 0x3f
 7777 038a 19       		.uleb128 0x19
 7778 038b 03       		.uleb128 0x3
 7779 038c 0E       		.uleb128 0xe
 7780 038d 3A       		.uleb128 0x3a
 7781 038e 0B       		.uleb128 0xb
 7782 038f 3B       		.uleb128 0x3b
 7783 0390 05       		.uleb128 0x5
 7784 0391 27       		.uleb128 0x27
 7785 0392 19       		.uleb128 0x19
 7786 0393 3C       		.uleb128 0x3c
 7787 0394 19       		.uleb128 0x19
 7788 0395 00       		.byte	0
 7789 0396 00       		.byte	0
 7790 0397 44       		.uleb128 0x44
 7791 0398 2E       		.uleb128 0x2e
 7792 0399 01       		.byte	0x1
 7793 039a 3F       		.uleb128 0x3f
 7794 039b 19       		.uleb128 0x19
 7795 039c 03       		.uleb128 0x3
 7796 039d 0E       		.uleb128 0xe
 7797 039e 3A       		.uleb128 0x3a
 7798 039f 0B       		.uleb128 0xb
 7799 03a0 3B       		.uleb128 0x3b
 7800 03a1 05       		.uleb128 0x5
 7801 03a2 27       		.uleb128 0x27
 7802 03a3 19       		.uleb128 0x19
 7803 03a4 49       		.uleb128 0x49
ARM GAS  /tmp/ccnlRhI2.s 			page 138


 7804 03a5 13       		.uleb128 0x13
 7805 03a6 3C       		.uleb128 0x3c
 7806 03a7 19       		.uleb128 0x19
 7807 03a8 01       		.uleb128 0x1
 7808 03a9 13       		.uleb128 0x13
 7809 03aa 00       		.byte	0
 7810 03ab 00       		.byte	0
 7811 03ac 45       		.uleb128 0x45
 7812 03ad 26       		.uleb128 0x26
 7813 03ae 00       		.byte	0
 7814 03af 49       		.uleb128 0x49
 7815 03b0 13       		.uleb128 0x13
 7816 03b1 00       		.byte	0
 7817 03b2 00       		.byte	0
 7818 03b3 46       		.uleb128 0x46
 7819 03b4 2E       		.uleb128 0x2e
 7820 03b5 01       		.byte	0x1
 7821 03b6 3F       		.uleb128 0x3f
 7822 03b7 19       		.uleb128 0x19
 7823 03b8 03       		.uleb128 0x3
 7824 03b9 0E       		.uleb128 0xe
 7825 03ba 3A       		.uleb128 0x3a
 7826 03bb 0B       		.uleb128 0xb
 7827 03bc 3B       		.uleb128 0x3b
 7828 03bd 05       		.uleb128 0x5
 7829 03be 27       		.uleb128 0x27
 7830 03bf 19       		.uleb128 0x19
 7831 03c0 3C       		.uleb128 0x3c
 7832 03c1 19       		.uleb128 0x19
 7833 03c2 00       		.byte	0
 7834 03c3 00       		.byte	0
 7835 03c4 00       		.byte	0
 7836              		.section	.debug_loc,"",%progbits
 7837              	.Ldebug_loc0:
 7838              	.LLST0:
 7839 0000 00000000 		.4byte	.LVL0
 7840 0004 0A000000 		.4byte	.LVL1
 7841 0008 0100     		.2byte	0x1
 7842 000a 50       		.byte	0x50
 7843 000b 0A000000 		.4byte	.LVL1
 7844 000f AC000000 		.4byte	.LFE11
 7845 0013 0100     		.2byte	0x1
 7846 0015 56       		.byte	0x56
 7847 0016 00000000 		.4byte	0
 7848 001a 00000000 		.4byte	0
 7849              	.LLST1:
 7850 001e 00000000 		.4byte	.LVL0
 7851 0022 0F000000 		.4byte	.LVL2-1
 7852 0026 0100     		.2byte	0x1
 7853 0028 51       		.byte	0x51
 7854 0029 0F000000 		.4byte	.LVL2-1
 7855 002d 3E000000 		.4byte	.LVL4
 7856 0031 0100     		.2byte	0x1
 7857 0033 55       		.byte	0x55
 7858 0034 3E000000 		.4byte	.LVL4
 7859 0038 5C000000 		.4byte	.LVL7
 7860 003c 0100     		.2byte	0x1
ARM GAS  /tmp/ccnlRhI2.s 			page 139


 7861 003e 54       		.byte	0x54
 7862 003f 5C000000 		.4byte	.LVL7
 7863 0043 7A000000 		.4byte	.LVL11
 7864 0047 0100     		.2byte	0x1
 7865 0049 55       		.byte	0x55
 7866 004a 7A000000 		.4byte	.LVL11
 7867 004e 84000000 		.4byte	.LVL13
 7868 0052 0100     		.2byte	0x1
 7869 0054 54       		.byte	0x54
 7870 0055 84000000 		.4byte	.LVL13
 7871 0059 86000000 		.4byte	.LVL14
 7872 005d 0200     		.2byte	0x2
 7873 005f 30       		.byte	0x30
 7874 0060 9F       		.byte	0x9f
 7875 0061 86000000 		.4byte	.LVL14
 7876 0065 8E000000 		.4byte	.LVL16
 7877 0069 0100     		.2byte	0x1
 7878 006b 54       		.byte	0x54
 7879 006c 9E000000 		.4byte	.LVL17
 7880 0070 A4000000 		.4byte	.LVL18
 7881 0074 0100     		.2byte	0x1
 7882 0076 54       		.byte	0x54
 7883 0077 A4000000 		.4byte	.LVL18
 7884 007b AC000000 		.4byte	.LFE11
 7885 007f 0100     		.2byte	0x1
 7886 0081 55       		.byte	0x55
 7887 0082 00000000 		.4byte	0
 7888 0086 00000000 		.4byte	0
 7889              	.LLST2:
 7890 008a 3C000000 		.4byte	.LVL3
 7891 008e 50000000 		.4byte	.LVL6
 7892 0092 0100     		.2byte	0x1
 7893 0094 55       		.byte	0x55
 7894 0095 78000000 		.4byte	.LVL10
 7895 0099 84000000 		.4byte	.LVL13
 7896 009d 0100     		.2byte	0x1
 7897 009f 55       		.byte	0x55
 7898 00a0 00000000 		.4byte	0
 7899 00a4 00000000 		.4byte	0
 7900              	.LLST3:
 7901 00a8 00000000 		.4byte	.LVL20
 7902 00ac 10000000 		.4byte	.LVL21
 7903 00b0 0100     		.2byte	0x1
 7904 00b2 50       		.byte	0x50
 7905 00b3 10000000 		.4byte	.LVL21
 7906 00b7 5C000000 		.4byte	.LVL23
 7907 00bb 0100     		.2byte	0x1
 7908 00bd 54       		.byte	0x54
 7909 00be 5C000000 		.4byte	.LVL23
 7910 00c2 62000000 		.4byte	.LVL24
 7911 00c6 0400     		.2byte	0x4
 7912 00c8 F3       		.byte	0xf3
 7913 00c9 01       		.uleb128 0x1
 7914 00ca 50       		.byte	0x50
 7915 00cb 9F       		.byte	0x9f
 7916 00cc 62000000 		.4byte	.LVL24
 7917 00d0 E4010000 		.4byte	.LVL40
ARM GAS  /tmp/ccnlRhI2.s 			page 140


 7918 00d4 0100     		.2byte	0x1
 7919 00d6 54       		.byte	0x54
 7920 00d7 E4010000 		.4byte	.LVL40
 7921 00db E7010000 		.4byte	.LVL41-1
 7922 00df 0100     		.2byte	0x1
 7923 00e1 50       		.byte	0x50
 7924 00e2 E7010000 		.4byte	.LVL41-1
 7925 00e6 E8010000 		.4byte	.LVL41
 7926 00ea 0400     		.2byte	0x4
 7927 00ec F3       		.byte	0xf3
 7928 00ed 01       		.uleb128 0x1
 7929 00ee 50       		.byte	0x50
 7930 00ef 9F       		.byte	0x9f
 7931 00f0 E8010000 		.4byte	.LVL41
 7932 00f4 1C020000 		.4byte	.LVL45
 7933 00f8 0100     		.2byte	0x1
 7934 00fa 54       		.byte	0x54
 7935 00fb 1C020000 		.4byte	.LVL45
 7936 00ff 1F020000 		.4byte	.LVL46-1
 7937 0103 0100     		.2byte	0x1
 7938 0105 50       		.byte	0x50
 7939 0106 1F020000 		.4byte	.LVL46-1
 7940 010a D2020000 		.4byte	.LVL54
 7941 010e 0100     		.2byte	0x1
 7942 0110 54       		.byte	0x54
 7943 0111 D2020000 		.4byte	.LVL54
 7944 0115 DE020000 		.4byte	.LVL56
 7945 0119 0400     		.2byte	0x4
 7946 011b F3       		.byte	0xf3
 7947 011c 01       		.uleb128 0x1
 7948 011d 50       		.byte	0x50
 7949 011e 9F       		.byte	0x9f
 7950 011f DE020000 		.4byte	.LVL56
 7951 0123 A6030000 		.4byte	.LVL66
 7952 0127 0100     		.2byte	0x1
 7953 0129 54       		.byte	0x54
 7954 012a A6030000 		.4byte	.LVL66
 7955 012e AA030000 		.4byte	.LVL67
 7956 0132 0400     		.2byte	0x4
 7957 0134 F3       		.byte	0xf3
 7958 0135 01       		.uleb128 0x1
 7959 0136 50       		.byte	0x50
 7960 0137 9F       		.byte	0x9f
 7961 0138 AA030000 		.4byte	.LVL67
 7962 013c 56080000 		.4byte	.LVL130
 7963 0140 0100     		.2byte	0x1
 7964 0142 54       		.byte	0x54
 7965 0143 56080000 		.4byte	.LVL130
 7966 0147 80080000 		.4byte	.LVL133
 7967 014b 0400     		.2byte	0x4
 7968 014d F3       		.byte	0xf3
 7969 014e 01       		.uleb128 0x1
 7970 014f 50       		.byte	0x50
 7971 0150 9F       		.byte	0x9f
 7972 0151 80080000 		.4byte	.LVL133
 7973 0155 100A0000 		.4byte	.LFE12
 7974 0159 0100     		.2byte	0x1
ARM GAS  /tmp/ccnlRhI2.s 			page 141


 7975 015b 54       		.byte	0x54
 7976 015c 00000000 		.4byte	0
 7977 0160 00000000 		.4byte	0
 7978              	.LLST4:
 7979 0164 FC000000 		.4byte	.LVL30
 7980 0168 46010000 		.4byte	.LVL34
 7981 016c 0100     		.2byte	0x1
 7982 016e 55       		.byte	0x55
 7983 016f E8010000 		.4byte	.LVL41
 7984 0173 1C020000 		.4byte	.LVL45
 7985 0177 0100     		.2byte	0x1
 7986 0179 55       		.byte	0x55
 7987 017a 8A020000 		.4byte	.LVL50
 7988 017e DA020000 		.4byte	.LVL55
 7989 0182 0100     		.2byte	0x1
 7990 0184 55       		.byte	0x55
 7991 0185 DA020000 		.4byte	.LVL55
 7992 0189 DD020000 		.4byte	.LVL56-1
 7993 018d 0100     		.2byte	0x1
 7994 018f 51       		.byte	0x51
 7995 0190 E8020000 		.4byte	.LVL57
 7996 0194 78030000 		.4byte	.LVL64
 7997 0198 0100     		.2byte	0x1
 7998 019a 55       		.byte	0x55
 7999 019b 94040000 		.4byte	.LVL75
 8000 019f D8040000 		.4byte	.LVL79
 8001 01a3 0100     		.2byte	0x1
 8002 01a5 55       		.byte	0x55
 8003 01a6 EC040000 		.4byte	.LVL80
 8004 01aa 0C050000 		.4byte	.LVL83
 8005 01ae 0100     		.2byte	0x1
 8006 01b0 55       		.byte	0x55
 8007 01b1 14060000 		.4byte	.LVL96
 8008 01b5 40060000 		.4byte	.LVL98
 8009 01b9 0100     		.2byte	0x1
 8010 01bb 56       		.byte	0x56
 8011 01bc 40060000 		.4byte	.LVL98
 8012 01c0 68060000 		.4byte	.LVL101
 8013 01c4 0100     		.2byte	0x1
 8014 01c6 55       		.byte	0x55
 8015 01c7 68060000 		.4byte	.LVL101
 8016 01cb B0060000 		.4byte	.LVL106
 8017 01cf 0100     		.2byte	0x1
 8018 01d1 56       		.byte	0x56
 8019 01d2 06080000 		.4byte	.LVL122
 8020 01d6 2C080000 		.4byte	.LVL124
 8021 01da 0100     		.2byte	0x1
 8022 01dc 55       		.byte	0x55
 8023 01dd 48080000 		.4byte	.LVL128
 8024 01e1 80080000 		.4byte	.LVL133
 8025 01e5 0100     		.2byte	0x1
 8026 01e7 55       		.byte	0x55
 8027 01e8 1A090000 		.4byte	.LVL143
 8028 01ec 20090000 		.4byte	.LVL145
 8029 01f0 0100     		.2byte	0x1
 8030 01f2 55       		.byte	0x55
 8031 01f3 26090000 		.4byte	.LVL147
ARM GAS  /tmp/ccnlRhI2.s 			page 142


 8032 01f7 A8090000 		.4byte	.LVL152
 8033 01fb 0100     		.2byte	0x1
 8034 01fd 55       		.byte	0x55
 8035 01fe E4090000 		.4byte	.LVL159
 8036 0202 E8090000 		.4byte	.LVL160
 8037 0206 0100     		.2byte	0x1
 8038 0208 55       		.byte	0x55
 8039 0209 E8090000 		.4byte	.LVL160
 8040 020d F2090000 		.4byte	.LVL161
 8041 0211 0100     		.2byte	0x1
 8042 0213 56       		.byte	0x56
 8043 0214 F2090000 		.4byte	.LVL161
 8044 0218 100A0000 		.4byte	.LFE12
 8045 021c 0100     		.2byte	0x1
 8046 021e 55       		.byte	0x55
 8047 021f 00000000 		.4byte	0
 8048 0223 00000000 		.4byte	0
 8049              	.LLST5:
 8050 0227 8A020000 		.4byte	.LVL50
 8051 022b A4020000 		.4byte	.LVL51
 8052 022f 0100     		.2byte	0x1
 8053 0231 56       		.byte	0x56
 8054 0232 A6020000 		.4byte	.LVL52
 8055 0236 DA020000 		.4byte	.LVL55
 8056 023a 0100     		.2byte	0x1
 8057 023c 56       		.byte	0x56
 8058 023d E8020000 		.4byte	.LVL57
 8059 0241 22030000 		.4byte	.LVL60
 8060 0245 0100     		.2byte	0x1
 8061 0247 56       		.byte	0x56
 8062 0248 3E060000 		.4byte	.LVL97
 8063 024c 5A060000 		.4byte	.LVL100
 8064 0250 0100     		.2byte	0x1
 8065 0252 56       		.byte	0x56
 8066 0253 06080000 		.4byte	.LVL122
 8067 0257 2C080000 		.4byte	.LVL124
 8068 025b 0100     		.2byte	0x1
 8069 025d 56       		.byte	0x56
 8070 025e 48080000 		.4byte	.LVL128
 8071 0262 80080000 		.4byte	.LVL133
 8072 0266 0100     		.2byte	0x1
 8073 0268 56       		.byte	0x56
 8074 0269 E4090000 		.4byte	.LVL159
 8075 026d E8090000 		.4byte	.LVL160
 8076 0271 0100     		.2byte	0x1
 8077 0273 56       		.byte	0x56
 8078 0274 00000000 		.4byte	0
 8079 0278 00000000 		.4byte	0
 8080              	.LLST6:
 8081 027c CA020000 		.4byte	.LVL53
 8082 0280 DD020000 		.4byte	.LVL56-1
 8083 0284 0100     		.2byte	0x1
 8084 0286 50       		.byte	0x50
 8085 0287 38070000 		.4byte	.LVL110
 8086 028b 9E070000 		.4byte	.LVL116
 8087 028f 0100     		.2byte	0x1
 8088 0291 55       		.byte	0x55
ARM GAS  /tmp/ccnlRhI2.s 			page 143


 8089 0292 AA070000 		.4byte	.LVL117
 8090 0296 F4070000 		.4byte	.LVL121
 8091 029a 0100     		.2byte	0x1
 8092 029c 55       		.byte	0x55
 8093 029d 1C080000 		.4byte	.LVL123
 8094 02a1 2C080000 		.4byte	.LVL124
 8095 02a5 0100     		.2byte	0x1
 8096 02a7 50       		.byte	0x50
 8097 02a8 54080000 		.4byte	.LVL129
 8098 02ac 76080000 		.4byte	.LVL131
 8099 02b0 0100     		.2byte	0x1
 8100 02b2 50       		.byte	0x50
 8101 02b3 76080000 		.4byte	.LVL131
 8102 02b7 80080000 		.4byte	.LVL133
 8103 02bb 0100     		.2byte	0x1
 8104 02bd 54       		.byte	0x54
 8105 02be E4090000 		.4byte	.LVL159
 8106 02c2 E8090000 		.4byte	.LVL160
 8107 02c6 0100     		.2byte	0x1
 8108 02c8 50       		.byte	0x50
 8109 02c9 00000000 		.4byte	0
 8110 02cd 00000000 		.4byte	0
 8111              	.LLST7:
 8112 02d1 18050000 		.4byte	.LVL85
 8113 02d5 5A050000 		.4byte	.LVL87
 8114 02d9 0100     		.2byte	0x1
 8115 02db 55       		.byte	0x55
 8116 02dc 5C050000 		.4byte	.LVL88
 8117 02e0 8E050000 		.4byte	.LVL90
 8118 02e4 0100     		.2byte	0x1
 8119 02e6 55       		.byte	0x55
 8120 02e7 2C080000 		.4byte	.LVL124
 8121 02eb 48080000 		.4byte	.LVL128
 8122 02ef 0100     		.2byte	0x1
 8123 02f1 55       		.byte	0x55
 8124 02f2 8A080000 		.4byte	.LVL134
 8125 02f6 96080000 		.4byte	.LVL136
 8126 02fa 0100     		.2byte	0x1
 8127 02fc 55       		.byte	0x55
 8128 02fd 20090000 		.4byte	.LVL145
 8129 0301 26090000 		.4byte	.LVL147
 8130 0305 0100     		.2byte	0x1
 8131 0307 55       		.byte	0x55
 8132 0308 00000000 		.4byte	0
 8133 030c 00000000 		.4byte	0
 8134              	.LLST8:
 8135 0310 16050000 		.4byte	.LVL84
 8136 0314 8E050000 		.4byte	.LVL90
 8137 0318 0100     		.2byte	0x1
 8138 031a 56       		.byte	0x56
 8139 031b 2C080000 		.4byte	.LVL124
 8140 031f 48080000 		.4byte	.LVL128
 8141 0323 0100     		.2byte	0x1
 8142 0325 56       		.byte	0x56
 8143 0326 8A080000 		.4byte	.LVL134
 8144 032a 96080000 		.4byte	.LVL136
 8145 032e 0100     		.2byte	0x1
ARM GAS  /tmp/ccnlRhI2.s 			page 144


 8146 0330 56       		.byte	0x56
 8147 0331 20090000 		.4byte	.LVL145
 8148 0335 26090000 		.4byte	.LVL147
 8149 0339 0100     		.2byte	0x1
 8150 033b 56       		.byte	0x56
 8151 033c 00000000 		.4byte	0
 8152 0340 00000000 		.4byte	0
 8153              	.LLST9:
 8154 0344 74010000 		.4byte	.LVL37
 8155 0348 80010000 		.4byte	.LVL38
 8156 034c 0100     		.2byte	0x1
 8157 034e 52       		.byte	0x52
 8158 034f 00000000 		.4byte	0
 8159 0353 00000000 		.4byte	0
 8160              	.LLST10:
 8161 0357 72000000 		.4byte	.LVL25
 8162 035b 9C000000 		.4byte	.LVL26
 8163 035f 0A00     		.2byte	0xa
 8164 0361 75       		.byte	0x75
 8165 0362 00       		.sleb128 0
 8166 0363 0A       		.byte	0xa
 8167 0364 FFFF     		.2byte	0xffff
 8168 0366 1A       		.byte	0x1a
 8169 0367 71       		.byte	0x71
 8170 0368 00       		.sleb128 0
 8171 0369 22       		.byte	0x22
 8172 036a 9F       		.byte	0x9f
 8173 036b 22020000 		.4byte	.LVL47
 8174 036f 68020000 		.4byte	.LVL48
 8175 0373 0A00     		.2byte	0xa
 8176 0375 75       		.byte	0x75
 8177 0376 00       		.sleb128 0
 8178 0377 0A       		.byte	0xa
 8179 0378 FFFF     		.2byte	0xffff
 8180 037a 1A       		.byte	0x1a
 8181 037b 71       		.byte	0x71
 8182 037c 00       		.sleb128 0
 8183 037d 22       		.byte	0x22
 8184 037e 9F       		.byte	0x9f
 8185 037f AA030000 		.4byte	.LVL67
 8186 0383 C6030000 		.4byte	.LVL68
 8187 0387 0A00     		.2byte	0xa
 8188 0389 75       		.byte	0x75
 8189 038a 00       		.sleb128 0
 8190 038b 0A       		.byte	0xa
 8191 038c FFFF     		.2byte	0xffff
 8192 038e 1A       		.byte	0x1a
 8193 038f 71       		.byte	0x71
 8194 0390 00       		.sleb128 0
 8195 0391 22       		.byte	0x22
 8196 0392 9F       		.byte	0x9f
 8197 0393 D6030000 		.4byte	.LVL69
 8198 0397 FA030000 		.4byte	.LVL70
 8199 039b 0A00     		.2byte	0xa
 8200 039d 75       		.byte	0x75
 8201 039e 00       		.sleb128 0
 8202 039f 0A       		.byte	0xa
ARM GAS  /tmp/ccnlRhI2.s 			page 145


 8203 03a0 FFFF     		.2byte	0xffff
 8204 03a2 1A       		.byte	0x1a
 8205 03a3 71       		.byte	0x71
 8206 03a4 00       		.sleb128 0
 8207 03a5 22       		.byte	0x22
 8208 03a6 9F       		.byte	0x9f
 8209 03a7 00000000 		.4byte	0
 8210 03ab 00000000 		.4byte	0
 8211              	.LLST11:
 8212 03af 50050000 		.4byte	.LVL86
 8213 03b3 6B050000 		.4byte	.LVL89-1
 8214 03b7 0100     		.2byte	0x1
 8215 03b9 52       		.byte	0x52
 8216 03ba 00000000 		.4byte	0
 8217 03be 00000000 		.4byte	0
 8218              	.LLST12:
 8219 03c2 00000000 		.4byte	.LVL20
 8220 03c6 2E000000 		.4byte	.LVL22
 8221 03ca 0200     		.2byte	0x2
 8222 03cc 30       		.byte	0x30
 8223 03cd 9F       		.byte	0x9f
 8224 03ce 62000000 		.4byte	.LVL24
 8225 03d2 B2000000 		.4byte	.LVL27
 8226 03d6 0200     		.2byte	0x2
 8227 03d8 30       		.byte	0x30
 8228 03d9 9F       		.byte	0x9f
 8229 03da 1C020000 		.4byte	.LVL45
 8230 03de 68020000 		.4byte	.LVL48
 8231 03e2 0200     		.2byte	0x2
 8232 03e4 30       		.byte	0x30
 8233 03e5 9F       		.byte	0x9f
 8234 03e6 AA030000 		.4byte	.LVL67
 8235 03ea 0C050000 		.4byte	.LVL83
 8236 03ee 0200     		.2byte	0x2
 8237 03f0 30       		.byte	0x30
 8238 03f1 9F       		.byte	0x9f
 8239 03f2 8E050000 		.4byte	.LVL90
 8240 03f6 9E050000 		.4byte	.LVL91
 8241 03fa 0200     		.2byte	0x2
 8242 03fc 30       		.byte	0x30
 8243 03fd 9F       		.byte	0x9f
 8244 03fe 9E050000 		.4byte	.LVL91
 8245 0402 CA050000 		.4byte	.LVL92
 8246 0406 0200     		.2byte	0x2
 8247 0408 31       		.byte	0x31
 8248 0409 9F       		.byte	0x9f
 8249 040a CA050000 		.4byte	.LVL92
 8250 040e D6050000 		.4byte	.LVL93
 8251 0412 0200     		.2byte	0x2
 8252 0414 30       		.byte	0x30
 8253 0415 9F       		.byte	0x9f
 8254 0416 1A090000 		.4byte	.LVL143
 8255 041a 20090000 		.4byte	.LVL145
 8256 041e 0200     		.2byte	0x2
 8257 0420 30       		.byte	0x30
 8258 0421 9F       		.byte	0x9f
 8259 0422 BA090000 		.4byte	.LVL154
ARM GAS  /tmp/ccnlRhI2.s 			page 146


 8260 0426 C8090000 		.4byte	.LVL156
 8261 042a 0200     		.2byte	0x2
 8262 042c 31       		.byte	0x31
 8263 042d 9F       		.byte	0x9f
 8264 042e 00000000 		.4byte	0
 8265 0432 00000000 		.4byte	0
 8266              	.LLST13:
 8267 0436 58040000 		.4byte	.LVL71
 8268 043a 60040000 		.4byte	.LVL72
 8269 043e 0100     		.2byte	0x1
 8270 0440 52       		.byte	0x52
 8271 0441 00000000 		.4byte	0
 8272 0445 00000000 		.4byte	0
 8273              	.LLST14:
 8274 0449 B0060000 		.4byte	.LVL106
 8275 044d B7060000 		.4byte	.LVL107-1
 8276 0451 0100     		.2byte	0x1
 8277 0453 50       		.byte	0x50
 8278 0454 00000000 		.4byte	0
 8279 0458 00000000 		.4byte	0
 8280              	.LLST15:
 8281 045c 2E000000 		.4byte	.LVL169
 8282 0460 38000000 		.4byte	.LVL170
 8283 0464 0200     		.2byte	0x2
 8284 0466 30       		.byte	0x30
 8285 0467 9F       		.byte	0x9f
 8286 0468 38000000 		.4byte	.LVL170
 8287 046c 3E000000 		.4byte	.LVL171
 8288 0470 0100     		.2byte	0x1
 8289 0472 53       		.byte	0x53
 8290 0473 6C000000 		.4byte	.LVL174
 8291 0477 78000000 		.4byte	.LVL177
 8292 047b 0100     		.2byte	0x1
 8293 047d 53       		.byte	0x53
 8294 047e 7C000000 		.4byte	.LVL178
 8295 0482 7E000000 		.4byte	.LVL179
 8296 0486 0100     		.2byte	0x1
 8297 0488 53       		.byte	0x53
 8298 0489 8A000000 		.4byte	.LVL180
 8299 048d 8C000000 		.4byte	.LFE14
 8300 0491 0100     		.2byte	0x1
 8301 0493 53       		.byte	0x53
 8302 0494 00000000 		.4byte	0
 8303 0498 00000000 		.4byte	0
 8304              	.LLST16:
 8305 049c 5A000000 		.4byte	.LVL172
 8306 04a0 6A000000 		.4byte	.LVL173
 8307 04a4 0100     		.2byte	0x1
 8308 04a6 52       		.byte	0x52
 8309 04a7 6A000000 		.4byte	.LVL173
 8310 04ab 6C000000 		.4byte	.LVL174
 8311 04af 1C00     		.2byte	0x1c
 8312 04b1 71       		.byte	0x71
 8313 04b2 00       		.sleb128 0
 8314 04b3 73       		.byte	0x73
 8315 04b4 00       		.sleb128 0
 8316 04b5 22       		.byte	0x22
ARM GAS  /tmp/ccnlRhI2.s 			page 147


 8317 04b6 32       		.byte	0x32
 8318 04b7 1C       		.byte	0x1c
 8319 04b8 94       		.byte	0x94
 8320 04b9 01       		.byte	0x1
 8321 04ba 08       		.byte	0x8
 8322 04bb FF       		.byte	0xff
 8323 04bc 1A       		.byte	0x1a
 8324 04bd 38       		.byte	0x38
 8325 04be 24       		.byte	0x24
 8326 04bf 71       		.byte	0x71
 8327 04c0 00       		.sleb128 0
 8328 04c1 73       		.byte	0x73
 8329 04c2 00       		.sleb128 0
 8330 04c3 22       		.byte	0x22
 8331 04c4 31       		.byte	0x31
 8332 04c5 1C       		.byte	0x1c
 8333 04c6 94       		.byte	0x94
 8334 04c7 01       		.byte	0x1
 8335 04c8 08       		.byte	0x8
 8336 04c9 FF       		.byte	0xff
 8337 04ca 1A       		.byte	0x1a
 8338 04cb 21       		.byte	0x21
 8339 04cc 9F       		.byte	0x9f
 8340 04cd 00000000 		.4byte	0
 8341 04d1 00000000 		.4byte	0
 8342              	.LLST17:
 8343 04d5 38000000 		.4byte	.LVL170
 8344 04d9 3E000000 		.4byte	.LVL171
 8345 04dd 0500     		.2byte	0x5
 8346 04df 71       		.byte	0x71
 8347 04e0 00       		.sleb128 0
 8348 04e1 73       		.byte	0x73
 8349 04e2 00       		.sleb128 0
 8350 04e3 22       		.byte	0x22
 8351 04e4 72000000 		.4byte	.LVL176
 8352 04e8 78000000 		.4byte	.LVL177
 8353 04ec 0500     		.2byte	0x5
 8354 04ee 71       		.byte	0x71
 8355 04ef 00       		.sleb128 0
 8356 04f0 73       		.byte	0x73
 8357 04f1 00       		.sleb128 0
 8358 04f2 22       		.byte	0x22
 8359 04f3 00000000 		.4byte	0
 8360 04f7 00000000 		.4byte	0
 8361              	.LLST18:
 8362 04fb 00000000 		.4byte	.LVL181
 8363 04ff 47000000 		.4byte	.LVL183-1
 8364 0503 0100     		.2byte	0x1
 8365 0505 50       		.byte	0x50
 8366 0506 47000000 		.4byte	.LVL183-1
 8367 050a 66000000 		.4byte	.LVL184
 8368 050e 0100     		.2byte	0x1
 8369 0510 56       		.byte	0x56
 8370 0511 66000000 		.4byte	.LVL184
 8371 0515 6F000000 		.4byte	.LVL185-1
 8372 0519 0100     		.2byte	0x1
 8373 051b 50       		.byte	0x50
ARM GAS  /tmp/ccnlRhI2.s 			page 148


 8374 051c 6F000000 		.4byte	.LVL185-1
 8375 0520 70000000 		.4byte	.LVL185
 8376 0524 0400     		.2byte	0x4
 8377 0526 F3       		.byte	0xf3
 8378 0527 01       		.uleb128 0x1
 8379 0528 50       		.byte	0x50
 8380 0529 9F       		.byte	0x9f
 8381 052a 70000000 		.4byte	.LVL185
 8382 052e 8A020000 		.4byte	.LVL205
 8383 0532 0100     		.2byte	0x1
 8384 0534 56       		.byte	0x56
 8385 0535 8A020000 		.4byte	.LVL205
 8386 0539 B6020000 		.4byte	.LVL207
 8387 053d 0400     		.2byte	0x4
 8388 053f F3       		.byte	0xf3
 8389 0540 01       		.uleb128 0x1
 8390 0541 50       		.byte	0x50
 8391 0542 9F       		.byte	0x9f
 8392 0543 B6020000 		.4byte	.LVL207
 8393 0547 6C030000 		.4byte	.LVL220
 8394 054b 0100     		.2byte	0x1
 8395 054d 56       		.byte	0x56
 8396 054e 6C030000 		.4byte	.LVL220
 8397 0552 0E040000 		.4byte	.LVL231
 8398 0556 0400     		.2byte	0x4
 8399 0558 F3       		.byte	0xf3
 8400 0559 01       		.uleb128 0x1
 8401 055a 50       		.byte	0x50
 8402 055b 9F       		.byte	0x9f
 8403 055c 0E040000 		.4byte	.LVL231
 8404 0560 54050000 		.4byte	.LVL246
 8405 0564 0100     		.2byte	0x1
 8406 0566 56       		.byte	0x56
 8407 0567 54050000 		.4byte	.LVL246
 8408 056b 4C070000 		.4byte	.LVL259
 8409 056f 0400     		.2byte	0x4
 8410 0571 F3       		.byte	0xf3
 8411 0572 01       		.uleb128 0x1
 8412 0573 50       		.byte	0x50
 8413 0574 9F       		.byte	0x9f
 8414 0575 4C070000 		.4byte	.LVL259
 8415 0579 A6070000 		.4byte	.LVL262
 8416 057d 0100     		.2byte	0x1
 8417 057f 56       		.byte	0x56
 8418 0580 A6070000 		.4byte	.LVL262
 8419 0584 C4080000 		.4byte	.LVL279
 8420 0588 0400     		.2byte	0x4
 8421 058a F3       		.byte	0xf3
 8422 058b 01       		.uleb128 0x1
 8423 058c 50       		.byte	0x50
 8424 058d 9F       		.byte	0x9f
 8425 058e C4080000 		.4byte	.LVL279
 8426 0592 50090000 		.4byte	.LVL292
 8427 0596 0100     		.2byte	0x1
 8428 0598 56       		.byte	0x56
 8429 0599 50090000 		.4byte	.LVL292
 8430 059d 120B0000 		.4byte	.LFE7
ARM GAS  /tmp/ccnlRhI2.s 			page 149


 8431 05a1 0400     		.2byte	0x4
 8432 05a3 F3       		.byte	0xf3
 8433 05a4 01       		.uleb128 0x1
 8434 05a5 50       		.byte	0x50
 8435 05a6 9F       		.byte	0x9f
 8436 05a7 00000000 		.4byte	0
 8437 05ab 00000000 		.4byte	0
 8438              	.LLST19:
 8439 05af 00000000 		.4byte	.LVL181
 8440 05b3 3E000000 		.4byte	.LVL182
 8441 05b7 0100     		.2byte	0x1
 8442 05b9 51       		.byte	0x51
 8443 05ba 3E000000 		.4byte	.LVL182
 8444 05be 66000000 		.4byte	.LVL184
 8445 05c2 0100     		.2byte	0x1
 8446 05c4 58       		.byte	0x58
 8447 05c5 66000000 		.4byte	.LVL184
 8448 05c9 70000000 		.4byte	.LVL185
 8449 05cd 0400     		.2byte	0x4
 8450 05cf F3       		.byte	0xf3
 8451 05d0 01       		.uleb128 0x1
 8452 05d1 51       		.byte	0x51
 8453 05d2 9F       		.byte	0x9f
 8454 05d3 70000000 		.4byte	.LVL185
 8455 05d7 DE000000 		.4byte	.LVL191
 8456 05db 0100     		.2byte	0x1
 8457 05dd 58       		.byte	0x58
 8458 05de DE000000 		.4byte	.LVL191
 8459 05e2 120B0000 		.4byte	.LFE7
 8460 05e6 0400     		.2byte	0x4
 8461 05e8 F3       		.byte	0xf3
 8462 05e9 01       		.uleb128 0x1
 8463 05ea 51       		.byte	0x51
 8464 05eb 9F       		.byte	0x9f
 8465 05ec 00000000 		.4byte	0
 8466 05f0 00000000 		.4byte	0
 8467              	.LLST20:
 8468 05f4 88010000 		.4byte	.LVL198
 8469 05f8 B8010000 		.4byte	.LVL201
 8470 05fc 0100     		.2byte	0x1
 8471 05fe 58       		.byte	0x58
 8472 05ff B8010000 		.4byte	.LVL201
 8473 0603 C2010000 		.4byte	.LVL202
 8474 0607 0100     		.2byte	0x1
 8475 0609 53       		.byte	0x53
 8476 060a C2010000 		.4byte	.LVL202
 8477 060e C6020000 		.4byte	.LVL210
 8478 0612 0100     		.2byte	0x1
 8479 0614 58       		.byte	0x58
 8480 0615 D2020000 		.4byte	.LVL211
 8481 0619 E8020000 		.4byte	.LVL212
 8482 061d 0100     		.2byte	0x1
 8483 061f 58       		.byte	0x58
 8484 0620 E8020000 		.4byte	.LVL212
 8485 0624 2E030000 		.4byte	.LVL217
 8486 0628 0100     		.2byte	0x1
 8487 062a 54       		.byte	0x54
ARM GAS  /tmp/ccnlRhI2.s 			page 150


 8488 062b 2E030000 		.4byte	.LVL217
 8489 062f 62030000 		.4byte	.LVL218
 8490 0633 0100     		.2byte	0x1
 8491 0635 58       		.byte	0x58
 8492 0636 66030000 		.4byte	.LVL219
 8493 063a 0E040000 		.4byte	.LVL231
 8494 063e 0100     		.2byte	0x1
 8495 0640 58       		.byte	0x58
 8496 0641 0E040000 		.4byte	.LVL231
 8497 0645 10040000 		.4byte	.LVL232
 8498 0649 0100     		.2byte	0x1
 8499 064b 54       		.byte	0x54
 8500 064c 54050000 		.4byte	.LVL246
 8501 0650 4C070000 		.4byte	.LVL259
 8502 0654 0100     		.2byte	0x1
 8503 0656 58       		.byte	0x58
 8504 0657 4C070000 		.4byte	.LVL259
 8505 065b A6070000 		.4byte	.LVL262
 8506 065f 0200     		.2byte	0x2
 8507 0661 30       		.byte	0x30
 8508 0662 9F       		.byte	0x9f
 8509 0663 A6070000 		.4byte	.LVL262
 8510 0667 0E090000 		.4byte	.LVL286
 8511 066b 0100     		.2byte	0x1
 8512 066d 58       		.byte	0x58
 8513 066e 50090000 		.4byte	.LVL292
 8514 0672 120B0000 		.4byte	.LFE7
 8515 0676 0100     		.2byte	0x1
 8516 0678 58       		.byte	0x58
 8517 0679 00000000 		.4byte	0
 8518 067d 00000000 		.4byte	0
 8519              	.LLST21:
 8520 0681 88010000 		.4byte	.LVL198
 8521 0685 9C010000 		.4byte	.LVL199
 8522 0689 0200     		.2byte	0x2
 8523 068b 30       		.byte	0x30
 8524 068c 9F       		.byte	0x9f
 8525 068d B4010000 		.4byte	.LVL200
 8526 0691 C2010000 		.4byte	.LVL202
 8527 0695 0100     		.2byte	0x1
 8528 0697 58       		.byte	0x58
 8529 0698 10040000 		.4byte	.LVL232
 8530 069c 36040000 		.4byte	.LVL234
 8531 06a0 0200     		.2byte	0x2
 8532 06a2 30       		.byte	0x30
 8533 06a3 9F       		.byte	0x9f
 8534 06a4 36040000 		.4byte	.LVL234
 8535 06a8 54050000 		.4byte	.LVL246
 8536 06ac 0100     		.2byte	0x1
 8537 06ae 59       		.byte	0x59
 8538 06af 0E090000 		.4byte	.LVL286
 8539 06b3 50090000 		.4byte	.LVL292
 8540 06b7 0100     		.2byte	0x1
 8541 06b9 59       		.byte	0x59
 8542 06ba 00000000 		.4byte	0
 8543 06be 00000000 		.4byte	0
 8544              	.LLST22:
ARM GAS  /tmp/ccnlRhI2.s 			page 151


 8545 06c2 1C040000 		.4byte	.LVL233
 8546 06c6 36040000 		.4byte	.LVL234
 8547 06ca 0100     		.2byte	0x1
 8548 06cc 58       		.byte	0x58
 8549 06cd 36040000 		.4byte	.LVL234
 8550 06d1 3A040000 		.4byte	.LVL235
 8551 06d5 0100     		.2byte	0x1
 8552 06d7 59       		.byte	0x59
 8553 06d8 3A040000 		.4byte	.LVL235
 8554 06dc 44040000 		.4byte	.LVL236
 8555 06e0 0100     		.2byte	0x1
 8556 06e2 53       		.byte	0x53
 8557 06e3 44040000 		.4byte	.LVL236
 8558 06e7 54050000 		.4byte	.LVL246
 8559 06eb 0100     		.2byte	0x1
 8560 06ed 59       		.byte	0x59
 8561 06ee 0E090000 		.4byte	.LVL286
 8562 06f2 50090000 		.4byte	.LVL292
 8563 06f6 0100     		.2byte	0x1
 8564 06f8 59       		.byte	0x59
 8565 06f9 00000000 		.4byte	0
 8566 06fd 00000000 		.4byte	0
 8567              	.LLST23:
 8568 0701 C4000000 		.4byte	.LVL188
 8569 0705 C6000000 		.4byte	.LVL189
 8570 0709 0500     		.2byte	0x5
 8571 070b 70       		.byte	0x70
 8572 070c 00       		.sleb128 0
 8573 070d 3C       		.byte	0x3c
 8574 070e 25       		.byte	0x25
 8575 070f 9F       		.byte	0x9f
 8576 0710 00000000 		.4byte	0
 8577 0714 00000000 		.4byte	0
 8578              	.LLST24:
 8579 0718 CA070000 		.4byte	.LVL264
 8580 071c DE070000 		.4byte	.LVL265
 8581 0720 0200     		.2byte	0x2
 8582 0722 30       		.byte	0x30
 8583 0723 9F       		.byte	0x9f
 8584 0724 DE070000 		.4byte	.LVL265
 8585 0728 E0070000 		.4byte	.LVL266
 8586 072c 0100     		.2byte	0x1
 8587 072e 50       		.byte	0x50
 8588 072f 18080000 		.4byte	.LVL268
 8589 0733 2A080000 		.4byte	.LVL269
 8590 0737 0100     		.2byte	0x1
 8591 0739 50       		.byte	0x50
 8592 073a 6E080000 		.4byte	.LVL271
 8593 073e 70080000 		.4byte	.LVL272
 8594 0742 0100     		.2byte	0x1
 8595 0744 50       		.byte	0x50
 8596 0745 82080000 		.4byte	.LVL273
 8597 0749 84080000 		.4byte	.LVL274
 8598 074d 0100     		.2byte	0x1
 8599 074f 50       		.byte	0x50
 8600 0750 00000000 		.4byte	0
 8601 0754 00000000 		.4byte	0
ARM GAS  /tmp/ccnlRhI2.s 			page 152


 8602              	.LLST25:
 8603 0758 2A030000 		.4byte	.LVL215
 8604 075c 2C030000 		.4byte	.LVL216
 8605 0760 0100     		.2byte	0x1
 8606 0762 58       		.byte	0x58
 8607 0763 2C030000 		.4byte	.LVL216
 8608 0767 2E030000 		.4byte	.LVL217
 8609 076b 0100     		.2byte	0x1
 8610 076d 54       		.byte	0x54
 8611 076e 2E030000 		.4byte	.LVL217
 8612 0772 62030000 		.4byte	.LVL218
 8613 0776 0100     		.2byte	0x1
 8614 0778 58       		.byte	0x58
 8615 0779 CE080000 		.4byte	.LVL281
 8616 077d E2080000 		.4byte	.LVL282
 8617 0781 0100     		.2byte	0x1
 8618 0783 58       		.byte	0x58
 8619 0784 E8080000 		.4byte	.LVL284
 8620 0788 0E090000 		.4byte	.LVL286
 8621 078c 0100     		.2byte	0x1
 8622 078e 58       		.byte	0x58
 8623 078f 00000000 		.4byte	0
 8624 0793 00000000 		.4byte	0
 8625              	.LLST26:
 8626 0797 78030000 		.4byte	.LVL221
 8627 079b 7A030000 		.4byte	.LVL222
 8628 079f 0500     		.2byte	0x5
 8629 07a1 03       		.byte	0x3
 8630 07a2 00000000 		.4byte	tcp_input_pcb
 8631 07a6 7A030000 		.4byte	.LVL222
 8632 07aa 0E040000 		.4byte	.LVL231
 8633 07ae 0100     		.2byte	0x1
 8634 07b0 58       		.byte	0x58
 8635 07b1 54050000 		.4byte	.LVL246
 8636 07b5 4C070000 		.4byte	.LVL259
 8637 07b9 0100     		.2byte	0x1
 8638 07bb 58       		.byte	0x58
 8639 07bc A6070000 		.4byte	.LVL262
 8640 07c0 C4080000 		.4byte	.LVL279
 8641 07c4 0100     		.2byte	0x1
 8642 07c6 58       		.byte	0x58
 8643 07c7 50090000 		.4byte	.LVL292
 8644 07cb 120B0000 		.4byte	.LFE7
 8645 07cf 0100     		.2byte	0x1
 8646 07d1 58       		.byte	0x58
 8647 07d2 00000000 		.4byte	0
 8648 07d6 00000000 		.4byte	0
 8649              	.LLST27:
 8650 07da D6090000 		.4byte	.LVL296
 8651 07de E9090000 		.4byte	.LVL297-1
 8652 07e2 0100     		.2byte	0x1
 8653 07e4 50       		.byte	0x50
 8654 07e5 00000000 		.4byte	0
 8655 07e9 00000000 		.4byte	0
 8656              	.LLST28:
 8657 07ed 78030000 		.4byte	.LVL221
 8658 07f1 9C030000 		.4byte	.LVL223
ARM GAS  /tmp/ccnlRhI2.s 			page 153


 8659 07f5 0200     		.2byte	0x2
 8660 07f7 30       		.byte	0x30
 8661 07f8 9F       		.byte	0x9f
 8662 07f9 CA030000 		.4byte	.LVL227
 8663 07fd EC030000 		.4byte	.LVL229
 8664 0801 0200     		.2byte	0x2
 8665 0803 30       		.byte	0x30
 8666 0804 9F       		.byte	0x9f
 8667 0805 54050000 		.4byte	.LVL246
 8668 0809 4C070000 		.4byte	.LVL259
 8669 080d 0200     		.2byte	0x2
 8670 080f 30       		.byte	0x30
 8671 0810 9F       		.byte	0x9f
 8672 0811 A6070000 		.4byte	.LVL262
 8673 0815 B4070000 		.4byte	.LVL263
 8674 0819 0200     		.2byte	0x2
 8675 081b 30       		.byte	0x30
 8676 081c 9F       		.byte	0x9f
 8677 081d 94080000 		.4byte	.LVL277
 8678 0821 C4080000 		.4byte	.LVL279
 8679 0825 0200     		.2byte	0x2
 8680 0827 30       		.byte	0x30
 8681 0828 9F       		.byte	0x9f
 8682 0829 50090000 		.4byte	.LVL292
 8683 082d 9C0A0000 		.4byte	.LVL311
 8684 0831 0200     		.2byte	0x2
 8685 0833 30       		.byte	0x30
 8686 0834 9F       		.byte	0x9f
 8687 0835 9C0A0000 		.4byte	.LVL311
 8688 0839 A80A0000 		.4byte	.LVL313
 8689 083d 0200     		.2byte	0x2
 8690 083f 31       		.byte	0x31
 8691 0840 9F       		.byte	0x9f
 8692 0841 A80A0000 		.4byte	.LVL313
 8693 0845 120B0000 		.4byte	.LFE7
 8694 0849 0200     		.2byte	0x2
 8695 084b 30       		.byte	0x30
 8696 084c 9F       		.byte	0x9f
 8697 084d 00000000 		.4byte	0
 8698 0851 00000000 		.4byte	0
 8699              	.LLST29:
 8700 0855 78030000 		.4byte	.LVL221
 8701 0859 9C030000 		.4byte	.LVL223
 8702 085d 0200     		.2byte	0x2
 8703 085f 30       		.byte	0x30
 8704 0860 9F       		.byte	0x9f
 8705 0861 CA030000 		.4byte	.LVL227
 8706 0865 DE030000 		.4byte	.LVL228
 8707 0869 0200     		.2byte	0x2
 8708 086b 30       		.byte	0x30
 8709 086c 9F       		.byte	0x9f
 8710 086d 54050000 		.4byte	.LVL246
 8711 0871 EA060000 		.4byte	.LVL256
 8712 0875 0200     		.2byte	0x2
 8713 0877 30       		.byte	0x30
 8714 0878 9F       		.byte	0x9f
 8715 0879 FE060000 		.4byte	.LVL257
ARM GAS  /tmp/ccnlRhI2.s 			page 154


 8716 087d 4C070000 		.4byte	.LVL259
 8717 0881 0200     		.2byte	0x2
 8718 0883 30       		.byte	0x30
 8719 0884 9F       		.byte	0x9f
 8720 0885 A6070000 		.4byte	.LVL262
 8721 0889 CA070000 		.4byte	.LVL264
 8722 088d 0200     		.2byte	0x2
 8723 088f 30       		.byte	0x30
 8724 0890 9F       		.byte	0x9f
 8725 0891 94080000 		.4byte	.LVL277
 8726 0895 C4080000 		.4byte	.LVL279
 8727 0899 0200     		.2byte	0x2
 8728 089b 30       		.byte	0x30
 8729 089c 9F       		.byte	0x9f
 8730 089d 50090000 		.4byte	.LVL292
 8731 08a1 0E0A0000 		.4byte	.LVL298
 8732 08a5 0200     		.2byte	0x2
 8733 08a7 30       		.byte	0x30
 8734 08a8 9F       		.byte	0x9f
 8735 08a9 0E0A0000 		.4byte	.LVL298
 8736 08ad 100A0000 		.4byte	.LVL299
 8737 08b1 0100     		.2byte	0x1
 8738 08b3 50       		.byte	0x50
 8739 08b4 160A0000 		.4byte	.LVL300
 8740 08b8 2C0A0000 		.4byte	.LVL301
 8741 08bc 0200     		.2byte	0x2
 8742 08be 30       		.byte	0x30
 8743 08bf 9F       		.byte	0x9f
 8744 08c0 2C0A0000 		.4byte	.LVL301
 8745 08c4 300A0000 		.4byte	.LVL302
 8746 08c8 0100     		.2byte	0x1
 8747 08ca 50       		.byte	0x50
 8748 08cb 300A0000 		.4byte	.LVL302
 8749 08cf 360A0000 		.4byte	.LVL303
 8750 08d3 0300     		.2byte	0x3
 8751 08d5 70       		.byte	0x70
 8752 08d6 76       		.sleb128 -10
 8753 08d7 9F       		.byte	0x9f
 8754 08d8 360A0000 		.4byte	.LVL303
 8755 08dc 400A0000 		.4byte	.LVL304
 8756 08e0 0200     		.2byte	0x2
 8757 08e2 30       		.byte	0x30
 8758 08e3 9F       		.byte	0x9f
 8759 08e4 400A0000 		.4byte	.LVL304
 8760 08e8 420A0000 		.4byte	.LVL305
 8761 08ec 0100     		.2byte	0x1
 8762 08ee 50       		.byte	0x50
 8763 08ef 700A0000 		.4byte	.LVL308
 8764 08f3 120B0000 		.4byte	.LFE7
 8765 08f7 0200     		.2byte	0x2
 8766 08f9 30       		.byte	0x30
 8767 08fa 9F       		.byte	0x9f
 8768 08fb 00000000 		.4byte	0
 8769 08ff 00000000 		.4byte	0
 8770              	.LLST30:
 8771 0903 460A0000 		.4byte	.LVL306
 8772 0907 490A0000 		.4byte	.LVL307-1
ARM GAS  /tmp/ccnlRhI2.s 			page 155


 8773 090b 0300     		.2byte	0x3
 8774 090d 70       		.byte	0x70
 8775 090e CC00     		.sleb128 76
 8776 0910 490A0000 		.4byte	.LVL307-1
 8777 0914 700A0000 		.4byte	.LVL308
 8778 0918 0100     		.2byte	0x1
 8779 091a 54       		.byte	0x54
 8780 091b 00000000 		.4byte	0
 8781 091f 00000000 		.4byte	0
 8782              	.LLST31:
 8783 0923 68040000 		.4byte	.LVL237
 8784 0927 54050000 		.4byte	.LVL246
 8785 092b 0100     		.2byte	0x1
 8786 092d 59       		.byte	0x59
 8787 092e 0E090000 		.4byte	.LVL286
 8788 0932 50090000 		.4byte	.LVL292
 8789 0936 0100     		.2byte	0x1
 8790 0938 59       		.byte	0x59
 8791 0939 00000000 		.4byte	0
 8792 093d 00000000 		.4byte	0
 8793              	.LLST32:
 8794 0941 8E040000 		.4byte	.LVL238
 8795 0945 A8040000 		.4byte	.LVL239
 8796 0949 0100     		.2byte	0x1
 8797 094b 50       		.byte	0x50
 8798 094c A8040000 		.4byte	.LVL239
 8799 0950 54050000 		.4byte	.LVL246
 8800 0954 0100     		.2byte	0x1
 8801 0956 5A       		.byte	0x5a
 8802 0957 0E090000 		.4byte	.LVL286
 8803 095b 18090000 		.4byte	.LVL289
 8804 095f 0100     		.2byte	0x1
 8805 0961 5A       		.byte	0x5a
 8806 0962 18090000 		.4byte	.LVL289
 8807 0966 24090000 		.4byte	.LVL290
 8808 096a 0100     		.2byte	0x1
 8809 096c 50       		.byte	0x50
 8810 096d 00000000 		.4byte	0
 8811 0971 00000000 		.4byte	0
 8812              	.LLST33:
 8813 0975 46050000 		.4byte	.LVL243
 8814 0979 4E050000 		.4byte	.LVL244
 8815 097d 0100     		.2byte	0x1
 8816 097f 50       		.byte	0x50
 8817 0980 0E090000 		.4byte	.LVL286
 8818 0984 10090000 		.4byte	.LVL287
 8819 0988 0100     		.2byte	0x1
 8820 098a 50       		.byte	0x50
 8821 098b 00000000 		.4byte	0
 8822 098f 00000000 		.4byte	0
 8823              		.section	.debug_aranges,"",%progbits
 8824 0000 34000000 		.4byte	0x34
 8825 0004 0200     		.2byte	0x2
 8826 0006 00000000 		.4byte	.Ldebug_info0
 8827 000a 04       		.byte	0x4
 8828 000b 00       		.byte	0
 8829 000c 0000     		.2byte	0
ARM GAS  /tmp/ccnlRhI2.s 			page 156


 8830 000e 0000     		.2byte	0
 8831 0010 00000000 		.4byte	.LFB11
 8832 0014 AC000000 		.4byte	.LFE11-.LFB11
 8833 0018 00000000 		.4byte	.LFB12
 8834 001c 100A0000 		.4byte	.LFE12-.LFB12
 8835 0020 00000000 		.4byte	.LFB14
 8836 0024 8C000000 		.4byte	.LFE14-.LFB14
 8837 0028 00000000 		.4byte	.LFB7
 8838 002c 120B0000 		.4byte	.LFE7-.LFB7
 8839 0030 00000000 		.4byte	0
 8840 0034 00000000 		.4byte	0
 8841              		.section	.debug_ranges,"",%progbits
 8842              	.Ldebug_ranges0:
 8843 0000 22030000 		.4byte	.LBB11
 8844 0004 62030000 		.4byte	.LBE11
 8845 0008 CE080000 		.4byte	.LBB37
 8846 000c E2080000 		.4byte	.LBE37
 8847 0010 E8080000 		.4byte	.LBB38
 8848 0014 0E090000 		.4byte	.LBE38
 8849 0018 00000000 		.4byte	0
 8850 001c 00000000 		.4byte	0
 8851 0020 66030000 		.4byte	.LBB15
 8852 0024 68030000 		.4byte	.LBE15
 8853 0028 6C030000 		.4byte	.LBB27
 8854 002c 6E030000 		.4byte	.LBE27
 8855 0030 72030000 		.4byte	.LBB28
 8856 0034 74030000 		.4byte	.LBE28
 8857 0038 78030000 		.4byte	.LBB29
 8858 003c 9C030000 		.4byte	.LBE29
 8859 0040 CA030000 		.4byte	.LBB30
 8860 0044 EC030000 		.4byte	.LBE30
 8861 0048 54050000 		.4byte	.LBB34
 8862 004c 4C070000 		.4byte	.LBE34
 8863 0050 A6070000 		.4byte	.LBB35
 8864 0054 CA070000 		.4byte	.LBE35
 8865 0058 94080000 		.4byte	.LBB36
 8866 005c C4080000 		.4byte	.LBE36
 8867 0060 50090000 		.4byte	.LBB40
 8868 0064 120B0000 		.4byte	.LBE40
 8869 0068 00000000 		.4byte	0
 8870 006c 00000000 		.4byte	0
 8871 0070 160A0000 		.4byte	.LBB17
 8872 0074 360A0000 		.4byte	.LBE17
 8873 0078 400A0000 		.4byte	.LBB18
 8874 007c 7E0A0000 		.4byte	.LBE18
 8875 0080 00000000 		.4byte	0
 8876 0084 00000000 		.4byte	0
 8877 0088 68040000 		.4byte	.LBB31
 8878 008c 54050000 		.4byte	.LBE31
 8879 0090 0E090000 		.4byte	.LBB39
 8880 0094 50090000 		.4byte	.LBE39
 8881 0098 00000000 		.4byte	0
 8882 009c 00000000 		.4byte	0
 8883 00a0 00000000 		.4byte	.LFB11
 8884 00a4 AC000000 		.4byte	.LFE11
 8885 00a8 00000000 		.4byte	.LFB12
 8886 00ac 100A0000 		.4byte	.LFE12
ARM GAS  /tmp/ccnlRhI2.s 			page 157


 8887 00b0 00000000 		.4byte	.LFB14
 8888 00b4 8C000000 		.4byte	.LFE14
 8889 00b8 00000000 		.4byte	.LFB7
 8890 00bc 120B0000 		.4byte	.LFE7
 8891 00c0 00000000 		.4byte	0
 8892 00c4 00000000 		.4byte	0
 8893              		.section	.debug_line,"",%progbits
 8894              	.Ldebug_line0:
 8895 0000 4B080000 		.section	.debug_str,"MS",%progbits,1
 8895      0200A401 
 8895      00000201 
 8895      FB0E0D00 
 8895      01010101 
 8896              	.LASF137:
 8897 0000 6C697374 		.ascii	"listen_pcbs\000"
 8897      656E5F70 
 8897      63627300 
 8898              	.LASF142:
 8899 000c 4D454D50 		.ascii	"MEMP_TCP_PCB_LISTEN\000"
 8899      5F544350 
 8899      5F504342 
 8899      5F4C4953 
 8899      54454E00 
 8900              	.LASF181:
 8901 0020 63736567 		.ascii	"cseg\000"
 8901      00
 8902              	.LASF197:
 8903 0025 6F6C645F 		.ascii	"old_cwnd\000"
 8903      63776E64 
 8903      00
 8904              	.LASF68:
 8905 002e 736F5F6F 		.ascii	"so_options\000"
 8905      7074696F 
 8905      6E7300
 8906              	.LASF249:
 8907 0039 2F686F6D 		.ascii	"/home/caroline/Documents/PAF/ChibiOS_2.6.4/demos/AR"
 8907      652F6361 
 8907      726F6C69 
 8907      6E652F44 
 8907      6F63756D 
 8908 006c 4D434D34 		.ascii	"MCM4-STM32F407-LWIP\000"
 8908      2D53544D 
 8908      33324634 
 8908      30372D4C 
 8908      57495000 
 8909              	.LASF184:
 8910 0080 6F6C645F 		.ascii	"old_seg\000"
 8910      73656700 
 8911              	.LASF188:
 8912 0088 666F756E 		.ascii	"found_dupack\000"
 8912      645F6475 
 8912      7061636B 
 8912      00
 8913              	.LASF193:
 8914 0095 6E706362 		.ascii	"npcb\000"
 8914      00
 8915              	.LASF136:
ARM GAS  /tmp/ccnlRhI2.s 			page 158


 8916 009a 75726770 		.ascii	"urgp\000"
 8916      00
 8917              	.LASF243:
 8918 009f 7463705F 		.ascii	"tcp_process_refused_data\000"
 8918      70726F63 
 8918      6573735F 
 8918      72656675 
 8918      7365645F 
 8919              	.LASF74:
 8920 00b8 706F6C6C 		.ascii	"polltmr\000"
 8920      746D7200 
 8921              	.LASF64:
 8922 00c0 7463705F 		.ascii	"tcp_accept_fn\000"
 8922      61636365 
 8922      70745F66 
 8922      6E00
 8923              	.LASF36:
 8924 00ce 666C6167 		.ascii	"flags\000"
 8924      7300
 8925              	.LASF127:
 8926 00d4 54494D45 		.ascii	"TIME_WAIT\000"
 8926      5F574149 
 8926      5400
 8927              	.LASF0:
 8928 00de 756E7369 		.ascii	"unsigned int\000"
 8928      676E6564 
 8928      20696E74 
 8928      00
 8929              	.LASF116:
 8930 00eb 7463705F 		.ascii	"tcp_connected_fn\000"
 8930      636F6E6E 
 8930      65637465 
 8930      645F666E 
 8930      00
 8931              	.LASF32:
 8932 00fc 6E657874 		.ascii	"next\000"
 8932      00
 8933              	.LASF31:
 8934 0101 6572725F 		.ascii	"err_t\000"
 8934      7400
 8935              	.LASF47:
 8936 0107 6C696E6B 		.ascii	"linkoutput\000"
 8936      6F757470 
 8936      757400
 8937              	.LASF9:
 8938 0112 5F5F696E 		.ascii	"__int32_t\000"
 8938      7433325F 
 8938      7400
 8939              	.LASF236:
 8940 011c 7463705F 		.ascii	"tcp_rexmit\000"
 8940      7265786D 
 8940      697400
 8941              	.LASF185:
 8942 0127 70726576 		.ascii	"prev\000"
 8942      00
 8943              	.LASF26:
 8944 012c 7531365F 		.ascii	"u16_t\000"
ARM GAS  /tmp/ccnlRhI2.s 			page 159


 8944      7400
 8945              	.LASF60:
 8946 0132 5F74746C 		.ascii	"_ttl\000"
 8946      00
 8947              	.LASF222:
 8948 0137 6C776970 		.ascii	"lwip_ntohl\000"
 8948      5F6E746F 
 8948      686C00
 8949              	.LASF190:
 8950 0142 6F6C645F 		.ascii	"old_ooseq\000"
 8950      6F6F7365 
 8950      7100
 8951              	.LASF80:
 8952 014c 7263765F 		.ascii	"rcv_ann_right_edge\000"
 8952      616E6E5F 
 8952      72696768 
 8952      745F6564 
 8952      676500
 8953              	.LASF165:
 8954 015f 73746174 		.ascii	"stats_mem\000"
 8954      735F6D65 
 8954      6D00
 8955              	.LASF238:
 8956 0169 7463705F 		.ascii	"tcp_enqueue_flags\000"
 8956      656E7175 
 8956      6575655F 
 8956      666C6167 
 8956      7300
 8957              	.LASF53:
 8958 017b 6E657469 		.ascii	"netif_output_fn\000"
 8958      665F6F75 
 8958      74707574 
 8958      5F666E00 
 8959              	.LASF218:
 8960 018b 6C776970 		.ascii	"lwip_htons\000"
 8960      5F68746F 
 8960      6E7300
 8961              	.LASF111:
 8962 0196 6B656570 		.ascii	"keep_cnt_sent\000"
 8962      5F636E74 
 8962      5F73656E 
 8962      7400
 8963              	.LASF152:
 8964 01a4 4D454D50 		.ascii	"MEMP_PBUF_POOL\000"
 8964      5F504255 
 8964      465F504F 
 8964      4F4C00
 8965              	.LASF216:
 8966 01b3 6C776970 		.ascii	"lwip_stats\000"
 8966      5F737461 
 8966      747300
 8967              	.LASF182:
 8968 01be 7463705F 		.ascii	"tcp_oos_insert_segment\000"
 8968      6F6F735F 
 8968      696E7365 
 8968      72745F73 
 8968      65676D65 
ARM GAS  /tmp/ccnlRhI2.s 			page 160


 8969              	.LASF113:
 8970 01d5 7463705F 		.ascii	"tcp_sent_fn\000"
 8970      73656E74 
 8970      5F666E00 
 8971              	.LASF202:
 8972 01e1 696E7365 		.ascii	"inseg\000"
 8972      6700
 8973              	.LASF244:
 8974 01e7 7463705F 		.ascii	"tcp_pcb_remove\000"
 8974      7063625F 
 8974      72656D6F 
 8974      766500
 8975              	.LASF169:
 8976 01f6 73746174 		.ascii	"stats_syselem\000"
 8976      735F7379 
 8976      73656C65 
 8976      6D00
 8977              	.LASF132:
 8978 0204 7365716E 		.ascii	"seqno\000"
 8978      6F00
 8979              	.LASF52:
 8980 020a 6E657469 		.ascii	"netif_input_fn\000"
 8980      665F696E 
 8980      7075745F 
 8980      666E00
 8981              	.LASF187:
 8982 0219 6E65775F 		.ascii	"new_tot_len\000"
 8982      746F745F 
 8982      6C656E00 
 8983              	.LASF20:
 8984 0225 75696E74 		.ascii	"uint32_t\000"
 8984      33325F74 
 8984      00
 8985              	.LASF15:
 8986 022e 696E7438 		.ascii	"int8_t\000"
 8986      5F7400
 8987              	.LASF87:
 8988 0235 63776E64 		.ascii	"cwnd\000"
 8988      00
 8989              	.LASF211:
 8990 023a 7463705F 		.ascii	"tcp_active_pcbs_changed\000"
 8990      61637469 
 8990      76655F70 
 8990      6362735F 
 8990      6368616E 
 8991              	.LASF148:
 8992 0252 4D454D50 		.ascii	"MEMP_TCPIP_MSG_API\000"
 8992      5F544350 
 8992      49505F4D 
 8992      53475F41 
 8992      504900
 8993              	.LASF163:
 8994 0265 6F707465 		.ascii	"opterr\000"
 8994      727200
 8995              	.LASF72:
 8996 026c 6C6F6361 		.ascii	"local_port\000"
 8996      6C5F706F 
ARM GAS  /tmp/ccnlRhI2.s 			page 161


 8996      727400
 8997              	.LASF171:
 8998 0277 6D757465 		.ascii	"mutex\000"
 8998      7800
 8999              	.LASF176:
 9000 027d 69705F66 		.ascii	"ip_frag\000"
 9000      72616700 
 9001              	.LASF168:
 9002 0285 696C6C65 		.ascii	"illegal\000"
 9002      67616C00 
 9003              	.LASF17:
 9004 028d 696E7431 		.ascii	"int16_t\000"
 9004      365F7400 
 9005              	.LASF50:
 9006 0295 68776164 		.ascii	"hwaddr\000"
 9006      647200
 9007              	.LASF175:
 9008 029c 65746861 		.ascii	"etharp\000"
 9008      727000
 9009              	.LASF128:
 9010 02a3 7463705F 		.ascii	"tcp_seg\000"
 9010      73656700 
 9011              	.LASF14:
 9012 02ab 6C6F6E67 		.ascii	"long long unsigned int\000"
 9012      206C6F6E 
 9012      6720756E 
 9012      7369676E 
 9012      65642069 
 9013              	.LASF207:
 9014 02c2 63757272 		.ascii	"current_iphdr_src\000"
 9014      656E745F 
 9014      69706864 
 9014      725F7372 
 9014      6300
 9015              	.LASF7:
 9016 02d4 5F5F7569 		.ascii	"__uint16_t\000"
 9016      6E743136 
 9016      5F7400
 9017              	.LASF62:
 9018 02df 5F63686B 		.ascii	"_chksum\000"
 9018      73756D00 
 9019              	.LASF81:
 9020 02e7 7274696D 		.ascii	"rtime\000"
 9020      6500
 9021              	.LASF49:
 9022 02ed 68776164 		.ascii	"hwaddr_len\000"
 9022      64725F6C 
 9022      656E00
 9023              	.LASF59:
 9024 02f8 5F6F6666 		.ascii	"_offset\000"
 9024      73657400 
 9025              	.LASF95:
 9026 0300 61636B65 		.ascii	"acked\000"
 9026      6400
 9027              	.LASF77:
 9028 0306 7263765F 		.ascii	"rcv_nxt\000"
 9028      6E787400 
ARM GAS  /tmp/ccnlRhI2.s 			page 162


 9029              	.LASF149:
 9030 030e 4D454D50 		.ascii	"MEMP_TCPIP_MSG_INPKT\000"
 9030      5F544350 
 9030      49505F4D 
 9030      53475F49 
 9030      4E504B54 
 9031              	.LASF167:
 9032 0323 75736564 		.ascii	"used\000"
 9032      00
 9033              	.LASF100:
 9034 0328 756E6163 		.ascii	"unacked\000"
 9034      6B656400 
 9035              	.LASF122:
 9036 0330 46494E5F 		.ascii	"FIN_WAIT_1\000"
 9036      57414954 
 9036      5F3100
 9037              	.LASF173:
 9038 033b 73746174 		.ascii	"stats_\000"
 9038      735F00
 9039              	.LASF189:
 9040 0342 6E65775F 		.ascii	"new_cwnd\000"
 9040      63776E64 
 9040      00
 9041              	.LASF126:
 9042 034b 4C415354 		.ascii	"LAST_ACK\000"
 9042      5F41434B 
 9042      00
 9043              	.LASF34:
 9044 0354 746F745F 		.ascii	"tot_len\000"
 9044      6C656E00 
 9045              	.LASF33:
 9046 035c 7061796C 		.ascii	"payload\000"
 9046      6F616400 
 9047              	.LASF253:
 9048 0364 7463705F 		.ascii	"tcp_input\000"
 9048      696E7075 
 9048      7400
 9049              	.LASF196:
 9050 036e 61636365 		.ascii	"acceptable\000"
 9050      70746162 
 9050      6C6500
 9051              	.LASF46:
 9052 0379 6F757470 		.ascii	"output\000"
 9052      757400
 9053              	.LASF105:
 9054 0380 636F6E6E 		.ascii	"connected\000"
 9054      65637465 
 9054      6400
 9055              	.LASF200:
 9056 038a 64726F70 		.ascii	"dropped\000"
 9056      70656400 
 9057              	.LASF21:
 9058 0392 5F426F6F 		.ascii	"_Bool\000"
 9058      6C00
 9059              	.LASF215:
 9060 0398 7463705F 		.ascii	"tcp_tmp_pcb\000"
 9060      746D705F 
ARM GAS  /tmp/ccnlRhI2.s 			page 163


 9060      70636200 
 9061              	.LASF232:
 9062 03a4 7463705F 		.ascii	"tcp_pcb_purge\000"
 9062      7063625F 
 9062      70757267 
 9062      6500
 9063              	.LASF125:
 9064 03b2 434C4F53 		.ascii	"CLOSING\000"
 9064      494E4700 
 9065              	.LASF86:
 9066 03ba 6C617374 		.ascii	"lastack\000"
 9066      61636B00 
 9067              	.LASF153:
 9068 03c2 4D454D50 		.ascii	"MEMP_MAX\000"
 9068      5F4D4158 
 9068      00
 9069              	.LASF25:
 9070 03cb 73385F74 		.ascii	"s8_t\000"
 9070      00
 9071              	.LASF29:
 9072 03d0 7333325F 		.ascii	"s32_t\000"
 9072      7400
 9073              	.LASF147:
 9074 03d6 4D454D50 		.ascii	"MEMP_NETCONN\000"
 9074      5F4E4554 
 9074      434F4E4E 
 9074      00
 9075              	.LASF223:
 9076 03e3 70627566 		.ascii	"pbuf_clen\000"
 9076      5F636C65 
 9076      6E00
 9077              	.LASF241:
 9078 03ed 6970345F 		.ascii	"ip4_addr_isbroadcast\000"
 9078      61646472 
 9078      5F697362 
 9078      726F6164 
 9078      63617374 
 9079              	.LASF174:
 9080 0402 6C696E6B 		.ascii	"link\000"
 9080      00
 9081              	.LASF83:
 9082 0407 72747365 		.ascii	"rtseq\000"
 9082      7100
 9083              	.LASF213:
 9084 040d 7463705F 		.ascii	"tcp_active_pcbs\000"
 9084      61637469 
 9084      76655F70 
 9084      63627300 
 9085              	.LASF85:
 9086 041d 64757061 		.ascii	"dupacks\000"
 9086      636B7300 
 9087              	.LASF230:
 9088 0425 7463705F 		.ascii	"tcp_output\000"
 9088      6F757470 
 9088      757400
 9089              	.LASF71:
 9090 0430 7072696F 		.ascii	"prio\000"
ARM GAS  /tmp/ccnlRhI2.s 			page 164


 9090      00
 9091              	.LASF70:
 9092 0435 61636365 		.ascii	"accept\000"
 9092      707400
 9093              	.LASF151:
 9094 043c 4D454D50 		.ascii	"MEMP_PBUF\000"
 9094      5F504255 
 9094      4600
 9095              	.LASF106:
 9096 0446 706F6C6C 		.ascii	"poll\000"
 9096      00
 9097              	.LASF23:
 9098 044b 63686172 		.ascii	"char\000"
 9098      00
 9099              	.LASF226:
 9100 0450 70627566 		.ascii	"pbuf_header\000"
 9100      5F686561 
 9100      64657200 
 9101              	.LASF220:
 9102 045c 70627566 		.ascii	"pbuf_realloc\000"
 9102      5F726561 
 9102      6C6C6F63 
 9102      00
 9103              	.LASF30:
 9104 0469 6D656D5F 		.ascii	"mem_size_t\000"
 9104      73697A65 
 9104      5F7400
 9105              	.LASF155:
 9106 0474 73746174 		.ascii	"stats_proto\000"
 9106      735F7072 
 9106      6F746F00 
 9107              	.LASF194:
 9108 0480 7463705F 		.ascii	"tcp_process\000"
 9108      70726F63 
 9108      65737300 
 9109              	.LASF40:
 9110 048c 69705F61 		.ascii	"ip_addr_packed\000"
 9110      6464725F 
 9110      7061636B 
 9110      656400
 9111              	.LASF124:
 9112 049b 434C4F53 		.ascii	"CLOSE_WAIT\000"
 9112      455F5741 
 9112      495400
 9113              	.LASF204:
 9114 04a6 7463706C 		.ascii	"tcplen\000"
 9114      656E00
 9115              	.LASF103:
 9116 04ad 73656E74 		.ascii	"sent\000"
 9116      00
 9117              	.LASF16:
 9118 04b2 75696E74 		.ascii	"uint8_t\000"
 9118      385F7400 
 9119              	.LASF90:
 9120 04ba 736E645F 		.ascii	"snd_wl1\000"
 9120      776C3100 
 9121              	.LASF91:
ARM GAS  /tmp/ccnlRhI2.s 			page 165


 9122 04c2 736E645F 		.ascii	"snd_wl2\000"
 9122      776C3200 
 9123              	.LASF225:
 9124 04ca 7463705F 		.ascii	"tcp_seg_copy\000"
 9124      7365675F 
 9124      636F7079 
 9124      00
 9125              	.LASF61:
 9126 04d7 5F70726F 		.ascii	"_proto\000"
 9126      746F00
 9127              	.LASF115:
 9128 04de 7463705F 		.ascii	"tcp_err_fn\000"
 9128      6572725F 
 9128      666E00
 9129              	.LASF191:
 9130 04e9 7463705F 		.ascii	"tcp_timewait_input\000"
 9130      74696D65 
 9130      77616974 
 9130      5F696E70 
 9130      757400
 9131              	.LASF251:
 9132 04fc 7463705F 		.ascii	"tcp_listen_pcbs_t\000"
 9132      6C697374 
 9132      656E5F70 
 9132      6362735F 
 9132      7400
 9133              	.LASF240:
 9134 050e 70627566 		.ascii	"pbuf_free\000"
 9134      5F667265 
 9134      6500
 9135              	.LASF92:
 9136 0518 736E645F 		.ascii	"snd_lbb\000"
 9136      6C626200 
 9137              	.LASF246:
 9138 0520 7463705F 		.ascii	"tcp_recv_null\000"
 9138      72656376 
 9138      5F6E756C 
 9138      6C00
 9139              	.LASF146:
 9140 052e 4D454D50 		.ascii	"MEMP_NETBUF\000"
 9140      5F4E4554 
 9140      42554600 
 9141              	.LASF44:
 9142 053a 6E65746D 		.ascii	"netmask\000"
 9142      61736B00 
 9143              	.LASF13:
 9144 0542 6C6F6E67 		.ascii	"long long int\000"
 9144      206C6F6E 
 9144      6720696E 
 9144      7400
 9145              	.LASF130:
 9146 0550 7463705F 		.ascii	"tcp_pcb_listen\000"
 9146      7063625F 
 9146      6C697374 
 9146      656E00
 9147              	.LASF133:
 9148 055f 61636B6E 		.ascii	"ackno\000"
ARM GAS  /tmp/ccnlRhI2.s 			page 166


 9148      6F00
 9149              	.LASF209:
 9150 0565 7463705F 		.ascii	"tcp_input_pcb\000"
 9150      696E7075 
 9150      745F7063 
 9150      6200
 9151              	.LASF110:
 9152 0573 70657273 		.ascii	"persist_backoff\000"
 9152      6973745F 
 9152      6261636B 
 9152      6F666600 
 9153              	.LASF141:
 9154 0583 4D454D50 		.ascii	"MEMP_TCP_PCB\000"
 9154      5F544350 
 9154      5F504342 
 9154      00
 9155              	.LASF178:
 9156 0590 6D656D70 		.ascii	"memp\000"
 9156      00
 9157              	.LASF24:
 9158 0595 75385F74 		.ascii	"u8_t\000"
 9158      00
 9159              	.LASF5:
 9160 059a 5F5F696E 		.ascii	"__int16_t\000"
 9160      7431365F 
 9160      7400
 9161              	.LASF56:
 9162 05a4 5F765F68 		.ascii	"_v_hl\000"
 9162      6C00
 9163              	.LASF186:
 9164 05aa 72696768 		.ascii	"right_wnd_edge\000"
 9164      745F776E 
 9164      645F6564 
 9164      676500
 9165              	.LASF234:
 9166 05b9 7463705F 		.ascii	"tcp_timer_needed\000"
 9166      74696D65 
 9166      725F6E65 
 9166      65646564 
 9166      00
 9167              	.LASF73:
 9168 05ca 72656D6F 		.ascii	"remote_port\000"
 9168      74655F70 
 9168      6F727400 
 9169              	.LASF212:
 9170 05d6 7463705F 		.ascii	"tcp_listen_pcbs\000"
 9170      6C697374 
 9170      656E5F70 
 9170      63627300 
 9171              	.LASF79:
 9172 05e6 7263765F 		.ascii	"rcv_ann_wnd\000"
 9172      616E6E5F 
 9172      776E6400 
 9173              	.LASF158:
 9174 05f2 63686B65 		.ascii	"chkerr\000"
 9174      727200
 9175              	.LASF195:
ARM GAS  /tmp/ccnlRhI2.s 			page 167


 9176 05f9 72736567 		.ascii	"rseg\000"
 9176      00
 9177              	.LASF144:
 9178 05fe 4D454D50 		.ascii	"MEMP_REASSDATA\000"
 9178      5F524541 
 9178      53534441 
 9178      544100
 9179              	.LASF112:
 9180 060d 7463705F 		.ascii	"tcp_recv_fn\000"
 9180      72656376 
 9180      5F666E00 
 9181              	.LASF254:
 9182 0619 7463705F 		.ascii	"tcp_abort\000"
 9182      61626F72 
 9182      7400
 9183              	.LASF2:
 9184 0623 5F5F696E 		.ascii	"__int8_t\000"
 9184      74385F74 
 9184      00
 9185              	.LASF227:
 9186 062c 7463705F 		.ascii	"tcp_update_rcv_ann_wnd\000"
 9186      75706461 
 9186      74655F72 
 9186      63765F61 
 9186      6E6E5F77 
 9187              	.LASF114:
 9188 0643 7463705F 		.ascii	"tcp_poll_fn\000"
 9188      706F6C6C 
 9188      5F666E00 
 9189              	.LASF235:
 9190 064f 7463705F 		.ascii	"tcp_eff_send_mss\000"
 9190      6566665F 
 9190      73656E64 
 9190      5F6D7373 
 9190      00
 9191              	.LASF18:
 9192 0660 75696E74 		.ascii	"uint16_t\000"
 9192      31365F74 
 9192      00
 9193              	.LASF107:
 9194 0669 65727266 		.ascii	"errf\000"
 9194      00
 9195              	.LASF93:
 9196 066e 736E645F 		.ascii	"snd_wnd\000"
 9196      776E6400 
 9197              	.LASF219:
 9198 0676 7463705F 		.ascii	"tcp_seg_free\000"
 9198      7365675F 
 9198      66726565 
 9198      00
 9199              	.LASF231:
 9200 0683 7463705F 		.ascii	"tcp_rst\000"
 9200      72737400 
 9201              	.LASF205:
 9202 068b 72656376 		.ascii	"recv_flags\000"
 9202      5F666C61 
 9202      677300
ARM GAS  /tmp/ccnlRhI2.s 			page 168


 9203              	.LASF101:
 9204 0696 6F6F7365 		.ascii	"ooseq\000"
 9204      7100
 9205              	.LASF217:
 9206 069c 6C776970 		.ascii	"lwip_ntohs\000"
 9206      5F6E746F 
 9206      687300
 9207              	.LASF117:
 9208 06a7 434C4F53 		.ascii	"CLOSED\000"
 9208      454400
 9209              	.LASF28:
 9210 06ae 7533325F 		.ascii	"u32_t\000"
 9210      7400
 9211              	.LASF6:
 9212 06b4 73686F72 		.ascii	"short int\000"
 9212      7420696E 
 9212      7400
 9213              	.LASF177:
 9214 06be 69636D70 		.ascii	"icmp\000"
 9214      00
 9215              	.LASF10:
 9216 06c3 6C6F6E67 		.ascii	"long int\000"
 9216      20696E74 
 9216      00
 9217              	.LASF242:
 9218 06cc 696E6574 		.ascii	"inet_chksum_pseudo\000"
 9218      5F63686B 
 9218      73756D5F 
 9218      70736575 
 9218      646F00
 9219              	.LASF161:
 9220 06df 72746572 		.ascii	"rterr\000"
 9220      7200
 9221              	.LASF166:
 9222 06e5 61766169 		.ascii	"avail\000"
 9222      6C00
 9223              	.LASF201:
 9224 06eb 61626F72 		.ascii	"aborted\000"
 9224      74656400 
 9225              	.LASF99:
 9226 06f3 756E7365 		.ascii	"unsent\000"
 9226      6E7400
 9227              	.LASF78:
 9228 06fa 7263765F 		.ascii	"rcv_wnd\000"
 9228      776E6400 
 9229              	.LASF82:
 9230 0702 72747465 		.ascii	"rttest\000"
 9230      737400
 9231              	.LASF248:
 9232 0709 2E2E2F2E 		.ascii	"../../ext/lwip/src/core/tcp_in.c\000"
 9232      2E2F6578 
 9232      742F6C77 
 9232      69702F73 
 9232      72632F63 
 9233              	.LASF224:
 9234 072a 7463705F 		.ascii	"tcp_send_empty_ack\000"
 9234      73656E64 
ARM GAS  /tmp/ccnlRhI2.s 			page 169


 9234      5F656D70 
 9234      74795F61 
 9234      636B00
 9235              	.LASF180:
 9236 073d 6F707473 		.ascii	"opts\000"
 9236      00
 9237              	.LASF192:
 9238 0742 7463705F 		.ascii	"tcp_listen_input\000"
 9238      6C697374 
 9238      656E5F69 
 9238      6E707574 
 9238      00
 9239              	.LASF150:
 9240 0753 4D454D50 		.ascii	"MEMP_SYS_TIMEOUT\000"
 9240      5F535953 
 9240      5F54494D 
 9240      454F5554 
 9240      00
 9241              	.LASF76:
 9242 0764 6C617374 		.ascii	"last_timer\000"
 9242      5F74696D 
 9242      657200
 9243              	.LASF140:
 9244 076f 4D454D50 		.ascii	"MEMP_UDP_PCB\000"
 9244      5F554450 
 9244      5F504342 
 9244      00
 9245              	.LASF66:
 9246 077c 6C6F6361 		.ascii	"local_ip\000"
 9246      6C5F6970 
 9246      00
 9247              	.LASF172:
 9248 0785 6D626F78 		.ascii	"mbox\000"
 9248      00
 9249              	.LASF98:
 9250 078a 756E7365 		.ascii	"unsent_oversize\000"
 9250      6E745F6F 
 9250      76657273 
 9250      697A6500 
 9251              	.LASF119:
 9252 079a 53594E5F 		.ascii	"SYN_SENT\000"
 9252      53454E54 
 9252      00
 9253              	.LASF164:
 9254 07a3 63616368 		.ascii	"cachehit\000"
 9254      65686974 
 9254      00
 9255              	.LASF89:
 9256 07ac 736E645F 		.ascii	"snd_nxt\000"
 9256      6E787400 
 9257              	.LASF3:
 9258 07b4 5F5F7569 		.ascii	"__uint8_t\000"
 9258      6E74385F 
 9258      7400
 9259              	.LASF121:
 9260 07be 45535441 		.ascii	"ESTABLISHED\000"
 9260      424C4953 
ARM GAS  /tmp/ccnlRhI2.s 			page 170


 9260      48454400 
 9261              	.LASF55:
 9262 07ca 69705F68 		.ascii	"ip_hdr\000"
 9262      647200
 9263              	.LASF94:
 9264 07d1 736E645F 		.ascii	"snd_wnd_max\000"
 9264      776E645F 
 9264      6D617800 
 9265              	.LASF51:
 9266 07dd 6E616D65 		.ascii	"name\000"
 9266      00
 9267              	.LASF54:
 9268 07e2 6E657469 		.ascii	"netif_linkoutput_fn\000"
 9268      665F6C69 
 9268      6E6B6F75 
 9268      74707574 
 9268      5F666E00 
 9269              	.LASF145:
 9270 07f6 4D454D50 		.ascii	"MEMP_FRAG_PBUF\000"
 9270      5F465241 
 9270      475F5042 
 9270      554600
 9271              	.LASF88:
 9272 0805 73737468 		.ascii	"ssthresh\000"
 9272      72657368 
 9272      00
 9273              	.LASF96:
 9274 080e 736E645F 		.ascii	"snd_buf\000"
 9274      62756600 
 9275              	.LASF75:
 9276 0816 706F6C6C 		.ascii	"pollinterval\000"
 9276      696E7465 
 9276      7276616C 
 9276      00
 9277              	.LASF139:
 9278 0823 4D454D50 		.ascii	"MEMP_RAW_PCB\000"
 9278      5F524157 
 9278      5F504342 
 9278      00
 9279              	.LASF134:
 9280 0830 5F686472 		.ascii	"_hdrlen_rsvd_flags\000"
 9280      6C656E5F 
 9280      72737664 
 9280      5F666C61 
 9280      677300
 9281              	.LASF159:
 9282 0843 6C656E65 		.ascii	"lenerr\000"
 9282      727200
 9283              	.LASF57:
 9284 084a 5F746F73 		.ascii	"_tos\000"
 9284      00
 9285              	.LASF22:
 9286 084f 73697A65 		.ascii	"sizetype\000"
 9286      74797065 
 9286      00
 9287              	.LASF12:
 9288 0858 6C6F6E67 		.ascii	"long unsigned int\000"
ARM GAS  /tmp/ccnlRhI2.s 			page 171


 9288      20756E73 
 9288      69676E65 
 9288      6420696E 
 9288      7400
 9289              	.LASF247:
 9290 086a 474E5520 		.ascii	"GNU C 4.8.2 -mcpu=cortex-m4 -mno-thumb-interwork -m"
 9290      4320342E 
 9290      382E3220 
 9290      2D6D6370 
 9290      753D636F 
 9291 089d 7468756D 		.ascii	"thumb -ggdb -O2 -std=gnu99 -fomit-frame-pointer -fa"
 9291      62202D67 
 9291      67646220 
 9291      2D4F3220 
 9291      2D737464 
 9292 08d0 6C69676E 		.ascii	"lign-functions=16 -ffunction-sections -fdata-sectio"
 9292      2D66756E 
 9292      6374696F 
 9292      6E733D31 
 9292      36202D66 
 9293 0903 6E73202D 		.ascii	"ns -fno-common\000"
 9293      666E6F2D 
 9293      636F6D6D 
 9293      6F6E00
 9294              	.LASF210:
 9295 0912 7463705F 		.ascii	"tcp_ticks\000"
 9295      7469636B 
 9295      7300
 9296              	.LASF206:
 9297 091c 72656376 		.ascii	"recv_data\000"
 9297      5F646174 
 9297      6100
 9298              	.LASF129:
 9299 0926 74637068 		.ascii	"tcphdr\000"
 9299      647200
 9300              	.LASF27:
 9301 092d 7331365F 		.ascii	"s16_t\000"
 9301      7400
 9302              	.LASF19:
 9303 0933 696E7433 		.ascii	"int32_t\000"
 9303      325F7400 
 9304              	.LASF183:
 9305 093b 7463705F 		.ascii	"tcp_receive\000"
 9305      72656365 
 9305      69766500 
 9306              	.LASF102:
 9307 0947 72656675 		.ascii	"refused_data\000"
 9307      7365645F 
 9307      64617461 
 9307      00
 9308              	.LASF162:
 9309 0954 70726F74 		.ascii	"proterr\000"
 9309      65727200 
 9310              	.LASF45:
 9311 095c 696E7075 		.ascii	"input\000"
 9311      7400
 9312              	.LASF131:
ARM GAS  /tmp/ccnlRhI2.s 			page 172


 9313 0962 7463705F 		.ascii	"tcp_hdr\000"
 9313      68647200 
 9314              	.LASF35:
 9315 096a 74797065 		.ascii	"type\000"
 9315      00
 9316              	.LASF170:
 9317 096f 73746174 		.ascii	"stats_sys\000"
 9317      735F7379 
 9317      7300
 9318              	.LASF4:
 9319 0979 756E7369 		.ascii	"unsigned char\000"
 9319      676E6564 
 9319      20636861 
 9319      7200
 9320              	.LASF11:
 9321 0987 5F5F7569 		.ascii	"__uint32_t\000"
 9321      6E743332 
 9321      5F7400
 9322              	.LASF123:
 9323 0992 46494E5F 		.ascii	"FIN_WAIT_2\000"
 9323      57414954 
 9323      5F3200
 9324              	.LASF160:
 9325 099d 6D656D65 		.ascii	"memerr\000"
 9325      727200
 9326              	.LASF143:
 9327 09a4 4D454D50 		.ascii	"MEMP_TCP_SEG\000"
 9327      5F544350 
 9327      5F534547 
 9327      00
 9328              	.LASF37:
 9329 09b1 70627566 		.ascii	"pbuf\000"
 9329      00
 9330              	.LASF42:
 9331 09b6 69705F61 		.ascii	"ip_addr_p_t\000"
 9331      6464725F 
 9331      705F7400 
 9332              	.LASF108:
 9333 09c2 6B656570 		.ascii	"keep_idle\000"
 9333      5F69646C 
 9333      6500
 9334              	.LASF179:
 9335 09cc 6D61785F 		.ascii	"max_c\000"
 9335      6300
 9336              	.LASF69:
 9337 09d2 63616C6C 		.ascii	"callback_arg\000"
 9337      6261636B 
 9337      5F617267 
 9337      00
 9338              	.LASF233:
 9339 09df 706F7274 		.ascii	"port_halt\000"
 9339      5F68616C 
 9339      7400
 9340              	.LASF118:
 9341 09e9 4C495354 		.ascii	"LISTEN\000"
 9341      454E00
 9342              	.LASF39:
ARM GAS  /tmp/ccnlRhI2.s 			page 173


 9343 09f0 61646472 		.ascii	"addr\000"
 9343      00
 9344              	.LASF157:
 9345 09f5 64726F70 		.ascii	"drop\000"
 9345      00
 9346              	.LASF48:
 9347 09fa 73746174 		.ascii	"state\000"
 9347      6500
 9348              	.LASF43:
 9349 0a00 6E657469 		.ascii	"netif\000"
 9349      6600
 9350              	.LASF97:
 9351 0a06 736E645F 		.ascii	"snd_queuelen\000"
 9351      71756575 
 9351      656C656E 
 9351      00
 9352              	.LASF135:
 9353 0a13 63686B73 		.ascii	"chksum\000"
 9353      756D00
 9354              	.LASF198:
 9355 0a1a 6C706362 		.ascii	"lpcb\000"
 9355      00
 9356              	.LASF203:
 9357 0a1f 69706864 		.ascii	"iphdr\000"
 9357      7200
 9358              	.LASF245:
 9359 0a25 6D656D70 		.ascii	"memp_free\000"
 9359      5F667265 
 9359      6500
 9360              	.LASF104:
 9361 0a2f 72656376 		.ascii	"recv\000"
 9361      00
 9362              	.LASF199:
 9363 0a34 6864726C 		.ascii	"hdrlen\000"
 9363      656E00
 9364              	.LASF1:
 9365 0a3b 7369676E 		.ascii	"signed char\000"
 9365      65642063 
 9365      68617200 
 9366              	.LASF65:
 9367 0a47 7463705F 		.ascii	"tcp_pcb\000"
 9367      70636200 
 9368              	.LASF8:
 9369 0a4f 73686F72 		.ascii	"short unsigned int\000"
 9369      7420756E 
 9369      7369676E 
 9369      65642069 
 9369      6E7400
 9370              	.LASF156:
 9371 0a62 786D6974 		.ascii	"xmit\000"
 9371      00
 9372              	.LASF109:
 9373 0a67 70657273 		.ascii	"persist_cnt\000"
 9373      6973745F 
 9373      636E7400 
 9374              	.LASF208:
 9375 0a73 63757272 		.ascii	"current_iphdr_dest\000"
ARM GAS  /tmp/ccnlRhI2.s 			page 174


 9375      656E745F 
 9375      69706864 
 9375      725F6465 
 9375      737400
 9376              	.LASF67:
 9377 0a86 72656D6F 		.ascii	"remote_ip\000"
 9377      74655F69 
 9377      7000
 9378              	.LASF214:
 9379 0a90 7463705F 		.ascii	"tcp_tw_pcbs\000"
 9379      74775F70 
 9379      63627300 
 9380              	.LASF239:
 9381 0a9c 7463705F 		.ascii	"tcp_abandon\000"
 9381      6162616E 
 9381      646F6E00 
 9382              	.LASF229:
 9383 0aa8 7463705F 		.ascii	"tcp_rexmit_fast\000"
 9383      7265786D 
 9383      69745F66 
 9383      61737400 
 9384              	.LASF58:
 9385 0ab8 5F6C656E 		.ascii	"_len\000"
 9385      00
 9386              	.LASF41:
 9387 0abd 69705F61 		.ascii	"ip_addr_t\000"
 9387      6464725F 
 9387      7400
 9388              	.LASF221:
 9389 0ac7 7463705F 		.ascii	"tcp_segs_free\000"
 9389      73656773 
 9389      5F667265 
 9389      6500
 9390              	.LASF250:
 9391 0ad5 7463705F 		.ascii	"tcp_state\000"
 9391      73746174 
 9391      6500
 9392              	.LASF228:
 9393 0adf 70627566 		.ascii	"pbuf_cat\000"
 9393      5F636174 
 9393      00
 9394              	.LASF154:
 9395 0ae8 6D656D70 		.ascii	"memp_t\000"
 9395      5F7400
 9396              	.LASF237:
 9397 0aef 7463705F 		.ascii	"tcp_alloc\000"
 9397      616C6C6F 
 9397      6300
 9398              	.LASF252:
 9399 0af9 7463705F 		.ascii	"tcp_parseopt\000"
 9399      70617273 
 9399      656F7074 
 9399      00
 9400              	.LASF84:
 9401 0b06 6E727478 		.ascii	"nrtx\000"
 9401      00
 9402              	.LASF63:
ARM GAS  /tmp/ccnlRhI2.s 			page 175


 9403 0b0b 64657374 		.ascii	"dest\000"
 9403      00
 9404              	.LASF120:
 9405 0b10 53594E5F 		.ascii	"SYN_RCVD\000"
 9405      52435644 
 9405      00
 9406              	.LASF38:
 9407 0b19 69705F61 		.ascii	"ip_addr\000"
 9407      64647200 
 9408              	.LASF138:
 9409 0b21 70636273 		.ascii	"pcbs\000"
 9409      00
 9410              		.ident	"GCC: (4.8.2-14ubuntu1+6) 4.8.2"
ARM GAS  /tmp/ccnlRhI2.s 			page 176


DEFINED SYMBOLS
                            *ABS*:0000000000000000 tcp_in.c
     /tmp/ccnlRhI2.s:19     .text.tcp_oos_insert_segment:0000000000000000 $t
     /tmp/ccnlRhI2.s:24     .text.tcp_oos_insert_segment:0000000000000000 tcp_oos_insert_segment
     /tmp/ccnlRhI2.s:3561   .bss.seqno:0000000000000000 .LANCHOR0
     /tmp/ccnlRhI2.s:170    .text.tcp_receive:0000000000000000 $t
     /tmp/ccnlRhI2.s:175    .text.tcp_receive:0000000000000000 tcp_receive
     /tmp/ccnlRhI2.s:3588   .bss.flags:0000000000000000 .LANCHOR1
     /tmp/ccnlRhI2.s:3575   .bss.tcplen:0000000000000000 .LANCHOR4
     /tmp/ccnlRhI2.s:3582   .bss.ackno:0000000000000000 .LANCHOR3
     /tmp/ccnlRhI2.s:3601   .bss.tcphdr:0000000000000000 .LANCHOR2
     /tmp/ccnlRhI2.s:3615   .bss.inseg:0000000000000000 .LANCHOR5
     /tmp/ccnlRhI2.s:3608   .bss.recv_data:0000000000000000 .LANCHOR6
     /tmp/ccnlRhI2.s:3594   .bss.recv_flags:0000000000000000 .LANCHOR7
     /tmp/ccnlRhI2.s:1763   .text.tcp_parseopt.isra.0:0000000000000000 $t
     /tmp/ccnlRhI2.s:1768   .text.tcp_parseopt.isra.0:0000000000000000 tcp_parseopt.isra.0
     /tmp/ccnlRhI2.s:1888   .text.tcp_input:0000000000000000 $t
     /tmp/ccnlRhI2.s:1894   .text.tcp_input:0000000000000000 tcp_input
     /tmp/ccnlRhI2.s:3568   .bss.iphdr:0000000000000000 .LANCHOR8
     /tmp/ccnlRhI2.s:3622   .bss.tcp_input_pcb:0000000000000000 .LANCHOR9
     /tmp/ccnlRhI2.s:2745   .text.tcp_input:000000000000058a $d
     /tmp/ccnlRhI2.s:2753   .text.tcp_input:0000000000000592 $t
     /tmp/ccnlRhI2.s:3625   .bss.tcp_input_pcb:0000000000000000 tcp_input_pcb
     /tmp/ccnlRhI2.s:3560   .bss.seqno:0000000000000000 $d
     /tmp/ccnlRhI2.s:3564   .bss.seqno:0000000000000000 seqno
     /tmp/ccnlRhI2.s:3567   .bss.iphdr:0000000000000000 $d
     /tmp/ccnlRhI2.s:3571   .bss.iphdr:0000000000000000 iphdr
     /tmp/ccnlRhI2.s:3574   .bss.tcplen:0000000000000000 $d
     /tmp/ccnlRhI2.s:3578   .bss.tcplen:0000000000000000 tcplen
     /tmp/ccnlRhI2.s:3581   .bss.ackno:0000000000000000 $d
     /tmp/ccnlRhI2.s:3585   .bss.ackno:0000000000000000 ackno
     /tmp/ccnlRhI2.s:3591   .bss.flags:0000000000000000 flags
     /tmp/ccnlRhI2.s:3592   .bss.flags:0000000000000000 $d
     /tmp/ccnlRhI2.s:3597   .bss.recv_flags:0000000000000000 recv_flags
     /tmp/ccnlRhI2.s:3598   .bss.recv_flags:0000000000000000 $d
     /tmp/ccnlRhI2.s:3600   .bss.tcphdr:0000000000000000 $d
     /tmp/ccnlRhI2.s:3604   .bss.tcphdr:0000000000000000 tcphdr
     /tmp/ccnlRhI2.s:3607   .bss.recv_data:0000000000000000 $d
     /tmp/ccnlRhI2.s:3611   .bss.recv_data:0000000000000000 recv_data
     /tmp/ccnlRhI2.s:3614   .bss.inseg:0000000000000000 $d
     /tmp/ccnlRhI2.s:3618   .bss.inseg:0000000000000000 inseg
     /tmp/ccnlRhI2.s:3621   .bss.tcp_input_pcb:0000000000000000 $d
                     .debug_frame:0000000000000010 $d

UNDEFINED SYMBOLS
lwip_ntohs
tcp_seg_free
lwip_htons
pbuf_realloc
tcp_segs_free
lwip_ntohl
pbuf_clen
tcp_ticks
tcp_send_empty_ack
port_halt
tcp_seg_copy
pbuf_header
ARM GAS  /tmp/ccnlRhI2.s 			page 177


tcp_update_rcv_ann_wnd
pbuf_cat
tcp_rexmit_fast
lwip_stats
pbuf_free
current_iphdr_dest
ip4_addr_isbroadcast
current_iphdr_src
inet_chksum_pseudo
tcp_active_pcbs
tcp_process_refused_data
tcp_tw_pcbs
tcp_output
tcp_pcb_remove
memp_free
tcp_listen_pcbs
tcp_alloc
tcp_timer_needed
tcp_active_pcbs_changed
tcp_eff_send_mss
tcp_enqueue_flags
tcp_pcb_purge
tcp_tmp_pcb
tcp_rst
tcp_recv_null
tcp_abort
tcp_abandon
tcp_rexmit
