ARM GAS  /tmp/ccnlRhI2.s 			page 1


   1              		.syntax unified
   2              		.cpu cortex-m4
   3              		.fpu softvfp
   4              		.eabi_attribute 20, 1
   5              		.eabi_attribute 21, 1
   6              		.eabi_attribute 23, 3
   7              		.eabi_attribute 24, 1
   8              		.eabi_attribute 25, 1
   9              		.eabi_attribute 26, 1
  10              		.eabi_attribute 30, 2
  11              		.eabi_attribute 34, 1
  12              		.eabi_attribute 18, 4
  13              		.thumb
  14              		.file	"tcp_in.c"
  15              		.text
  16              	.Ltext0:
  17              		.cfi_sections	.debug_frame
  18              		.section	.text.tcp_oos_insert_segment,"ax",%progbits
  19              		.align	2
  20              		.p2align 4,,15
  21              		.thumb
  22              		.thumb_func
  23              		.type	tcp_oos_insert_segment, %function
  24              	tcp_oos_insert_segment:
  25              	.LFB11:
  26              		.file 1 "../../ext/lwip/src/core/tcp_in.c"
  27              		.loc 1 801 0
  28              		.cfi_startproc
  29              		@ args = 0, pretend = 0, frame = 0
  30              		@ frame_needed = 0, uses_anonymous_args = 0
  31              	.LVL0:
  32              		.loc 1 804 0
  33 0000 C368     		ldr	r3, [r0, #12]
  34              		.loc 1 801 0
  35 0002 2DE9F041 		push	{r4, r5, r6, r7, r8, lr}
  36              		.cfi_def_cfa_offset 24
  37              		.cfi_offset 4, -24
  38              		.cfi_offset 5, -20
  39              		.cfi_offset 6, -16
  40              		.cfi_offset 7, -12
  41              		.cfi_offset 8, -8
  42              		.cfi_offset 14, -4
  43              		.loc 1 801 0
  44 0006 0646     		mov	r6, r0
  45              		.loc 1 804 0
  46 0008 9889     		ldrh	r0, [r3, #12]	@ unaligned
  47              	.LVL1:
  48              		.loc 1 801 0
  49 000a 0D46     		mov	r5, r1
  50              		.loc 1 804 0
  51 000c FFF7FEFF 		bl	lwip_ntohs
  52              	.LVL2:
  53 0010 C207     		lsls	r2, r0, #31
  54 0012 47D4     		bmi	.L2
  55              		.loc 1 812 0 discriminator 1
  56 0014 002D     		cmp	r5, #0
  57 0016 35D0     		beq	.L19
ARM GAS  /tmp/ccnlRhI2.s 			page 2


  58              		.loc 1 813 0
  59 0018 EB68     		ldr	r3, [r5, #12]
  60 001a 3189     		ldrh	r1, [r6, #8]
  61 001c 5A68     		ldr	r2, [r3, #4]	@ unaligned
  62 001e 2889     		ldrh	r0, [r5, #8]
  63 0020 40F20007 		movw	r7, #:lower16:.LANCHOR0
  64 0024 C0F20007 		movt	r7, #:upper16:.LANCHOR0
  65 0028 8A1A     		subs	r2, r1, r2
  66 002a 3968     		ldr	r1, [r7]
  67 002c 0A44     		add	r2, r2, r1
  68 002e 101A     		subs	r0, r2, r0
  69              		.loc 1 812 0
  70 0030 0028     		cmp	r0, #0
  71 0032 BCBF     		itt	lt
  72 0034 5B68     		ldrlt	r3, [r3, #4]	@ unaligned
  73 0036 2C46     		movlt	r4, r5
  74 0038 10DA     		bge	.L9
  75 003a 28E0     		b	.L6
  76              	.L7:
  77              	.LVL3:
  78              		.loc 1 820 0
  79 003c 2C68     		ldr	r4, [r5]
  80              	.LVL4:
  81              		.loc 1 821 0
  82 003e 2846     		mov	r0, r5
  83 0040 FFF7FEFF 		bl	tcp_seg_free
  84              	.LVL5:
  85              		.loc 1 812 0
  86 0044 F4B1     		cbz	r4, .L19
  87              	.L21:
  88              		.loc 1 813 0 discriminator 2
  89 0046 E368     		ldr	r3, [r4, #12]
  90 0048 3089     		ldrh	r0, [r6, #8]
  91 004a 5A68     		ldr	r2, [r3, #4]	@ unaligned
  92 004c 3968     		ldr	r1, [r7]
  93 004e 2589     		ldrh	r5, [r4, #8]
  94              	.LVL6:
  95 0050 821A     		subs	r2, r0, r2
  96 0052 0A44     		add	r2, r2, r1
  97 0054 551B     		subs	r5, r2, r5
  98              		.loc 1 812 0 discriminator 2
  99 0056 002D     		cmp	r5, #0
 100 0058 18DB     		blt	.L11
 101              		.loc 1 812 0 is_stmt 0
 102 005a 2546     		mov	r5, r4
 103              	.LVL7:
 104              	.L9:
 105              		.loc 1 816 0 is_stmt 1
 106 005c 9889     		ldrh	r0, [r3, #12]	@ unaligned
 107 005e FFF7FEFF 		bl	lwip_ntohs
 108              	.LVL8:
 109 0062 C307     		lsls	r3, r0, #31
 110 0064 EAD5     		bpl	.L7
 111              		.loc 1 817 0
 112 0066 F468     		ldr	r4, [r6, #12]
 113 0068 0120     		movs	r0, #1
 114 006a B4F80C80 		ldrh	r8, [r4, #12]	@ unaligned
ARM GAS  /tmp/ccnlRhI2.s 			page 3


 115 006e FFF7FEFF 		bl	lwip_htons
 116              	.LVL9:
 117 0072 40EA0800 		orr	r0, r0, r8
 118 0076 A081     		strh	r0, [r4, #12]	@ unaligned
 119              	.LVL10:
 120              		.loc 1 820 0
 121 0078 2C68     		ldr	r4, [r5]
 122              	.LVL11:
 123              		.loc 1 821 0
 124 007a 2846     		mov	r0, r5
 125 007c FFF7FEFF 		bl	tcp_seg_free
 126              	.LVL12:
 127              		.loc 1 812 0
 128 0080 002C     		cmp	r4, #0
 129 0082 E0D1     		bne	.L21
 130              	.LVL13:
 131              	.L19:
 132              		.loc 1 807 0
 133 0084 0024     		movs	r4, #0
 134              	.LVL14:
 135              	.L4:
 136              		.loc 1 830 0
 137 0086 3460     		str	r4, [r6]
 138 0088 BDE8F081 		pop	{r4, r5, r6, r7, r8, pc}
 139              	.LVL15:
 140              	.L11:
 141              		.loc 1 813 0
 142 008c 5B68     		ldr	r3, [r3, #4]	@ unaligned
 143              	.LVL16:
 144              	.L6:
 145              		.loc 1 823 0
 146 008e 002A     		cmp	r2, #0
 147 0090 F9DD     		ble	.L4
 148              		.loc 1 826 0
 149 0092 591A     		subs	r1, r3, r1
 150 0094 89B2     		uxth	r1, r1
 151 0096 3181     		strh	r1, [r6, #8]	@ movhi
 152              		.loc 1 827 0
 153 0098 7068     		ldr	r0, [r6, #4]
 154 009a FFF7FEFF 		bl	pbuf_realloc
 155              	.LVL17:
 156              		.loc 1 830 0
 157 009e 3460     		str	r4, [r6]
 158 00a0 BDE8F081 		pop	{r4, r5, r6, r7, r8, pc}
 159              	.LVL18:
 160              	.L2:
 161              		.loc 1 806 0
 162 00a4 2846     		mov	r0, r5
 163 00a6 FFF7FEFF 		bl	tcp_segs_free
 164              	.LVL19:
 165 00aa EBE7     		b	.L19
 166              		.cfi_endproc
 167              	.LFE11:
 168              		.size	tcp_oos_insert_segment, .-tcp_oos_insert_segment
 169              		.section	.text.tcp_receive,"ax",%progbits
 170              		.align	2
 171              		.p2align 4,,15
ARM GAS  /tmp/ccnlRhI2.s 			page 4


 172              		.thumb
 173              		.thumb_func
 174              		.type	tcp_receive, %function
 175              	tcp_receive:
 176              	.LFB12:
 177              		.loc 1 848 0
 178              		.cfi_startproc
 179              		@ args = 0, pretend = 0, frame = 8
 180              		@ frame_needed = 0, uses_anonymous_args = 0
 181              	.LVL20:
 182 0000 2DE9F04F 		push	{r4, r5, r6, r7, r8, r9, r10, fp, lr}
 183              		.cfi_def_cfa_offset 36
 184              		.cfi_offset 4, -36
 185              		.cfi_offset 5, -32
 186              		.cfi_offset 6, -28
 187              		.cfi_offset 7, -24
 188              		.cfi_offset 8, -20
 189              		.cfi_offset 9, -16
 190              		.cfi_offset 10, -12
 191              		.cfi_offset 11, -8
 192              		.cfi_offset 14, -4
 193              		.loc 1 864 0
 194 0004 037E     		ldrb	r3, [r0, #24]	@ zero_extendqisi2
 195 0006 032B     		cmp	r3, #3
 196              		.loc 1 848 0
 197 0008 83B0     		sub	sp, sp, #12
 198              		.cfi_def_cfa_offset 48
 199              		.loc 1 848 0
 200 000a 0446     		mov	r4, r0
 201              		.loc 1 864 0
 202 000c 40F20681 		bls	.L212
 203              	.LVL21:
 204              	.L23:
 205              		.loc 1 866 0
 206 0010 40F20003 		movw	r3, #:lower16:.LANCHOR1
 207 0014 C0F20003 		movt	r3, #:upper16:.LANCHOR1
 208              		.loc 1 870 0
 209 0018 40F20008 		movw	r8, #:lower16:.LANCHOR0
 210              		.loc 1 866 0
 211 001c 1B78     		ldrb	r3, [r3]	@ zero_extendqisi2
 212 001e DD06     		lsls	r5, r3, #27
 213 0020 1FD4     		bmi	.L24
 214 0022 40F20009 		movw	r9, #:lower16:.LANCHOR4
 215 0026 C0F20008 		movt	r8, #:upper16:.LANCHOR0
 216 002a C0F20009 		movt	r9, #:upper16:.LANCHOR4
 217              	.LVL22:
 218              	.L25:
 219              		.loc 1 1120 0
 220 002e B9F80030 		ldrh	r3, [r9]
 221 0032 1BB1     		cbz	r3, .L70
 222              		.loc 1 1120 0 is_stmt 0 discriminator 1
 223 0034 227E     		ldrb	r2, [r4, #24]	@ zero_extendqisi2
 224 0036 062A     		cmp	r2, #6
 225 0038 40F2B780 		bls	.L213
 226              	.L70:
 227              		.loc 1 1527 0 is_stmt 1
 228 003c D8F80020 		ldr	r2, [r8]
ARM GAS  /tmp/ccnlRhI2.s 			page 5


 229 0040 A36A     		ldr	r3, [r4, #40]
 230 0042 D11A     		subs	r1, r2, r3
 231 0044 0029     		cmp	r1, #0
 232 0046 05DB     		blt	.L134
 233              		.loc 1 1527 0 is_stmt 0 discriminator 1
 234 0048 0132     		adds	r2, r2, #1
 235 004a A18D     		ldrh	r1, [r4, #44]
 236 004c D31A     		subs	r3, r2, r3
 237 004e 5B1A     		subs	r3, r3, r1
 238 0050 002B     		cmp	r3, #0
 239 0052 03DD     		ble	.L22
 240              	.L134:
 241              		.loc 1 1528 0 is_stmt 1
 242 0054 A37F     		ldrb	r3, [r4, #30]	@ zero_extendqisi2
 243 0056 43F00203 		orr	r3, r3, #2
 244 005a A377     		strb	r3, [r4, #30]
 245              	.LVL23:
 246              	.L22:
 247              		.loc 1 1531 0
 248 005c 03B0     		add	sp, sp, #12
 249              		@ sp needed
 250 005e BDE8F08F 		pop	{r4, r5, r6, r7, r8, r9, r10, fp, pc}
 251              	.LVL24:
 252              	.L24:
 253              		.loc 1 870 0
 254 0062 C0F20008 		movt	r8, #:upper16:.LANCHOR0
 255 0066 636D     		ldr	r3, [r4, #84]
 256 0068 D8F80020 		ldr	r2, [r8]
 257              		.loc 1 867 0
 258 006c B4F86050 		ldrh	r5, [r4, #96]
 259 0070 A16D     		ldr	r1, [r4, #88]
 260              	.LVL25:
 261              		.loc 1 870 0
 262 0072 981A     		subs	r0, r3, r2
 263 0074 40F20006 		movw	r6, #:lower16:.LANCHOR3
 264 0078 0028     		cmp	r0, #0
 265 007a C0F20006 		movt	r6, #:upper16:.LANCHOR3
 266 007e C0F2D480 		blt	.L30
 267              		.loc 1 870 0 is_stmt 0 discriminator 1
 268 0082 9342     		cmp	r3, r2
 269              		.loc 1 871 0 is_stmt 1 discriminator 1
 270 0084 3368     		ldr	r3, [r6]
 271              		.loc 1 870 0 discriminator 1
 272 0086 00F0CC80 		beq	.L28
 273              	.L29:
 274              		.loc 1 871 0 discriminator 1
 275 008a 9942     		cmp	r1, r3
 276 008c 00F0AA81 		beq	.L214
 277              	.L31:
 278              		.loc 1 924 0
 279 0090 A06C     		ldr	r0, [r4, #72]
 280 0092 1A1A     		subs	r2, r3, r0
 281 0094 002A     		cmp	r2, #0
 282 0096 40F38881 		ble	.L215
 283              		.loc 1 957 0
 284 009a 216D     		ldr	r1, [r4, #80]
 285              	.LVL26:
ARM GAS  /tmp/ccnlRhI2.s 			page 6


 286 009c 591A     		subs	r1, r3, r1
 287 009e 0029     		cmp	r1, #0
 288 00a0 40F3AB81 		ble	.L216
 289              		.loc 1 1046 0
 290 00a4 0023     		movs	r3, #0
 291 00a6 40F20009 		movw	r9, #:lower16:.LANCHOR4
 292 00aa A4F86430 		strh	r3, [r4, #100]	@ movhi
 293 00ae C0F20009 		movt	r9, #:upper16:.LANCHOR4
 294              	.LVL27:
 295              	.L55:
 296              		.loc 1 1056 0 discriminator 1
 297 00b2 40F20007 		movw	r7, #:lower16:.LANCHOR3
 298 00b6 E36E     		ldr	r3, [r4, #108]
 299 00b8 C0F20007 		movt	r7, #:upper16:.LANCHOR3
 300              	.L39:
 301              		.loc 1 1055 0 discriminator 1
 302 00bc 002B     		cmp	r3, #0
 303 00be 42D0     		beq	.L67
 304              	.L64:
 305              		.loc 1 1056 0 discriminator 2
 306 00c0 DB68     		ldr	r3, [r3, #12]
 307 00c2 3568     		ldr	r5, [r6]
 308 00c4 5868     		ldr	r0, [r3, #4]	@ unaligned
 309 00c6 FFF7FEFF 		bl	lwip_ntohl
 310              	.LVL28:
 311 00ca E26E     		ldr	r2, [r4, #108]
 312 00cc D368     		ldr	r3, [r2, #12]
 313 00ce B2F808A0 		ldrh	r10, [r2, #8]
 314 00d2 8346     		mov	fp, r0
 315 00d4 9889     		ldrh	r0, [r3, #12]	@ unaligned
 316 00d6 FFF7FEFF 		bl	lwip_ntohs
 317              	.LVL29:
 318 00da 10F00300 		ands	r0, r0, #3
 319 00de 18BF     		it	ne
 320 00e0 0120     		movne	r0, #1
 321 00e2 CBEB0505 		rsb	r5, fp, r5
 322 00e6 0AEB0003 		add	r3, r10, r0
 323 00ea EB1A     		subs	r3, r5, r3
 324              		.loc 1 1055 0 discriminator 2
 325 00ec 002B     		cmp	r3, #0
 326 00ee 2ADB     		blt	.L67
 327              		.loc 1 1056 0
 328 00f0 3A68     		ldr	r2, [r7]
 329 00f2 236D     		ldr	r3, [r4, #80]
 330 00f4 D31A     		subs	r3, r2, r3
 331 00f6 002B     		cmp	r3, #0
 332 00f8 25DC     		bgt	.L67
 333              		.loc 1 1062 0
 334 00fa E56E     		ldr	r5, [r4, #108]
 335              	.LVL30:
 336              		.loc 1 1063 0
 337 00fc 2B68     		ldr	r3, [r5]
 338 00fe E366     		str	r3, [r4, #108]
 339              		.loc 1 1065 0
 340 0100 002B     		cmp	r3, #0
 341 0102 00F08180 		beq	.L217
 342              	.L56:
ARM GAS  /tmp/ccnlRhI2.s 			page 7


 343              		.loc 1 1070 0
 344 0106 6868     		ldr	r0, [r5, #4]
 345 0108 B4F868A0 		ldrh	r10, [r4, #104]
 346 010c FFF7FEFF 		bl	pbuf_clen
 347              	.LVL31:
 348 0110 8245     		cmp	r10, r0
 349 0112 76D3     		bcc	.L218
 350              	.L57:
 351              		.loc 1 1072 0
 352 0114 B4F86430 		ldrh	r3, [r4, #100]
 353 0118 002B     		cmp	r3, #0
 354 011a 65D1     		bne	.L219
 355              	.L59:
 356              		.loc 1 1075 0
 357 011c 6868     		ldr	r0, [r5, #4]
 358 011e B4F868A0 		ldrh	r10, [r4, #104]
 359 0122 FFF7FEFF 		bl	pbuf_clen
 360              	.LVL32:
 361 0126 C0EB0A00 		rsb	r0, r0, r10
 362 012a A4F86800 		strh	r0, [r4, #104]	@ movhi
 363              		.loc 1 1076 0
 364 012e 2846     		mov	r0, r5
 365 0130 FFF7FEFF 		bl	tcp_seg_free
 366              	.LVL33:
 367              		.loc 1 1078 0
 368 0134 B4F86830 		ldrh	r3, [r4, #104]
 369 0138 13B1     		cbz	r3, .L204
 370              		.loc 1 1079 0
 371 013a 236F     		ldr	r3, [r4, #112]
 372 013c 002B     		cmp	r3, #0
 373 013e 66D0     		beq	.L220
 374              	.L204:
 375 0140 E36E     		ldr	r3, [r4, #108]
 376              		.loc 1 1055 0 discriminator 1
 377 0142 002B     		cmp	r3, #0
 378 0144 BCD1     		bne	.L64
 379              	.LVL34:
 380              	.L67:
 381              		.loc 1 1091 0
 382 0146 A36B     		ldr	r3, [r4, #56]
 383 0148 002B     		cmp	r3, #0
 384 014a 3FF470AF 		beq	.L25
 385              		.loc 1 1091 0 is_stmt 0 discriminator 1
 386 014e 3168     		ldr	r1, [r6]
 387 0150 E26B     		ldr	r2, [r4, #60]
 388 0152 521A     		subs	r2, r2, r1
 389 0154 002A     		cmp	r2, #0
 390 0156 BFF66AAF 		bge	.L25
 391              	.LVL35:
 392              		.loc 1 1094 0 is_stmt 1
 393 015a 40F20002 		movw	r2, #:lower16:tcp_ticks
 394 015e C0F20002 		movt	r2, #:upper16:tcp_ticks
 395              		.loc 1 1100 0
 396 0162 B4F84010 		ldrh	r1, [r4, #64]
 397              		.loc 1 1094 0
 398 0166 1068     		ldr	r0, [r2]
 399              		.loc 1 1100 0
ARM GAS  /tmp/ccnlRhI2.s 			page 8


 400 0168 41F3CC02 		sbfx	r2, r1, #3, #13
 401              		.loc 1 1094 0
 402 016c C31A     		subs	r3, r0, r3
 403              	.LVL36:
 404              		.loc 1 1100 0
 405 016e 9A1A     		subs	r2, r3, r2
 406 0170 92B2     		uxth	r2, r2
 407 0172 93B2     		uxth	r3, r2
 408              	.LVL37:
 409              		.loc 1 1102 0
 410 0174 1804     		lsls	r0, r3, #16
 411              		.loc 1 1103 0
 412 0176 48BF     		it	mi
 413 0178 5342     		rsbmi	r3, r2, #0
 414              		.loc 1 1101 0
 415 017a 1144     		add	r1, r1, r2
 416              		.loc 1 1105 0
 417 017c B4F84220 		ldrh	r2, [r4, #66]
 418              	.LVL38:
 419 0180 42F38D00 		sbfx	r0, r2, #2, #14
 420 0184 C0EB0202 		rsb	r2, r0, r2
 421              		.loc 1 1103 0
 422 0188 48BF     		it	mi
 423 018a 9BB2     		uxthmi	r3, r3
 424              	.LVL39:
 425              		.loc 1 1101 0
 426 018c 89B2     		uxth	r1, r1
 427              		.loc 1 1106 0
 428 018e 1344     		add	r3, r3, r2
 429 0190 9BB2     		uxth	r3, r3
 430              		.loc 1 1101 0
 431 0192 A4F84010 		strh	r1, [r4, #64]	@ movhi
 432              		.loc 1 1107 0
 433 0196 41F3CC01 		sbfx	r1, r1, #3, #13
 434 019a 1944     		add	r1, r1, r3
 435              		.loc 1 1112 0
 436 019c 0022     		movs	r2, #0
 437              		.loc 1 1107 0
 438 019e A4F84410 		strh	r1, [r4, #68]	@ movhi
 439              		.loc 1 1106 0
 440 01a2 A4F84230 		strh	r3, [r4, #66]	@ movhi
 441              		.loc 1 1112 0
 442 01a6 A263     		str	r2, [r4, #56]
 443 01a8 41E7     		b	.L25
 444              	.L213:
 445              		.loc 1 1151 0
 446 01aa A26A     		ldr	r2, [r4, #40]
 447 01ac D8F80010 		ldr	r1, [r8]
 448 01b0 C1EB020A 		rsb	r10, r1, r2
 449 01b4 BAF1010F 		cmp	r10, #1
 450 01b8 05D4     		bmi	.L71
 451              		.loc 1 1151 0 is_stmt 0 discriminator 1
 452 01ba 501C     		adds	r0, r2, #1
 453 01bc 401A     		subs	r0, r0, r1
 454 01be C31A     		subs	r3, r0, r3
 455 01c0 002B     		cmp	r3, #0
 456 01c2 40F3A381 		ble	.L221
ARM GAS  /tmp/ccnlRhI2.s 			page 9


 457              	.L71:
 458              		.loc 1 1202 0 is_stmt 1
 459 01c6 8B1A     		subs	r3, r1, r2
 460 01c8 002B     		cmp	r3, #0
 461 01ca C0F28880 		blt	.L222
 462              	.L81:
 463              		.loc 1 1214 0 discriminator 1
 464 01ce A38D     		ldrh	r3, [r4, #44]
 465 01d0 C3F10103 		rsb	r3, r3, #1
 466 01d4 0B44     		add	r3, r3, r1
 467 01d6 9B1A     		subs	r3, r3, r2
 468 01d8 002B     		cmp	r3, #0
 469 01da 45DD     		ble	.L223
 470              	.L82:
 471              		.loc 1 1520 0
 472 01dc 2046     		mov	r0, r4
 473              		.loc 1 1531 0
 474 01de 03B0     		add	sp, sp, #12
 475              		@ sp needed
 476 01e0 BDE8F04F 		pop	{r4, r5, r6, r7, r8, r9, r10, fp, lr}
 477              	.LVL40:
 478              		.loc 1 1520 0
 479 01e4 FFF7FEBF 		b	tcp_send_empty_ack
 480              	.LVL41:
 481              	.L219:
 482              		.loc 1 1072 0 discriminator 1
 483 01e8 EB68     		ldr	r3, [r5, #12]
 484 01ea 9889     		ldrh	r0, [r3, #12]	@ unaligned
 485 01ec FFF7FEFF 		bl	lwip_ntohs
 486              	.LVL42:
 487 01f0 C307     		lsls	r3, r0, #31
 488              		.loc 1 1073 0 discriminator 1
 489 01f2 42BF     		ittt	mi
 490 01f4 B4F86430 		ldrhmi	r3, [r4, #100]
 491 01f8 03F1FF33 		addmi	r3, r3, #-1
 492 01fc A4F86430 		strhmi	r3, [r4, #100]	@ movhi
 493 0200 8CE7     		b	.L59
 494              	.L218:
 495              		.loc 1 1070 0 discriminator 1
 496 0202 FFF7FEFF 		bl	port_halt
 497              	.LVL43:
 498 0206 85E7     		b	.L57
 499              	.L217:
 500              		.loc 1 1066 0
 501 0208 A4F86A30 		strh	r3, [r4, #106]	@ movhi
 502 020c 7BE7     		b	.L56
 503              	.L220:
 504              		.loc 1 1079 0 discriminator 1
 505 020e E36E     		ldr	r3, [r4, #108]
 506 0210 002B     		cmp	r3, #0
 507 0212 7FF453AF 		bne	.L39
 508 0216 FFF7FEFF 		bl	port_halt
 509              	.LVL44:
 510 021a 91E7     		b	.L204
 511              	.LVL45:
 512              	.L212:
 513              		.loc 1 864 0 discriminator 1
ARM GAS  /tmp/ccnlRhI2.s 			page 10


 514 021c FFF7FEFF 		bl	port_halt
 515              	.LVL46:
 516 0220 F6E6     		b	.L23
 517              	.LVL47:
 518              	.L28:
 519              		.loc 1 871 0
 520 0222 C81A     		subs	r0, r1, r3
 521 0224 0028     		cmp	r0, #0
 522 0226 BFF630AF 		bge	.L29
 523              	.L30:
 524 022a 40F20000 		movw	r0, #:lower16:.LANCHOR2
 525 022e C0F20000 		movt	r0, #:upper16:.LANCHOR2
 526 0232 3368     		ldr	r3, [r6]
 527 0234 0068     		ldr	r0, [r0]
 528 0236 C089     		ldrh	r0, [r0, #14]	@ unaligned
 529              	.L27:
 530              		.loc 1 876 0
 531 0238 B4F86270 		ldrh	r7, [r4, #98]
 532              		.loc 1 879 0
 533 023c 6265     		str	r2, [r4, #84]
 534              		.loc 1 876 0
 535 023e 8742     		cmp	r7, r0
 536              		.loc 1 873 0
 537 0240 A4F86000 		strh	r0, [r4, #96]	@ movhi
 538              		.loc 1 877 0
 539 0244 38BF     		it	cc
 540 0246 A4F86200 		strhcc	r0, [r4, #98]	@ movhi
 541              		.loc 1 880 0
 542 024a A365     		str	r3, [r4, #88]
 543              		.loc 1 882 0
 544 024c 94F89520 		ldrb	r2, [r4, #149]	@ zero_extendqisi2
 545              		.loc 1 881 0
 546 0250 0028     		cmp	r0, #0
 547 0252 40F0C080 		bne	.L33
 548              		.loc 1 882 0
 549 0256 002A     		cmp	r2, #0
 550 0258 7FF41AAF 		bne	.L31
 551              		.loc 1 885 0
 552 025c 0122     		movs	r2, #1
 553              		.loc 1 884 0
 554 025e 84F89400 		strb	r0, [r4, #148]
 555              		.loc 1 885 0
 556 0262 84F89520 		strb	r2, [r4, #149]
 557 0266 13E7     		b	.L31
 558              	.LVL48:
 559              	.L223:
 560              		.loc 1 1216 0
 561 0268 9142     		cmp	r1, r2
 562 026a 00F0B481 		beq	.L224
 563              		.loc 1 1369 0
 564 026e 2046     		mov	r0, r4
 565 0270 FFF7FEFF 		bl	tcp_send_empty_ack
 566              	.LVL49:
 567              		.loc 1 1372 0
 568 0274 656F     		ldr	r5, [r4, #116]
 569 0276 002D     		cmp	r5, #0
 570 0278 00F09683 		beq	.L225
ARM GAS  /tmp/ccnlRhI2.s 			page 11


 571 027c D8F80000 		ldr	r0, [r8]
 572 0280 0026     		movs	r6, #0
 573              		.loc 1 1431 0
 574 0282 00F1FF3C 		add	ip, r0, #-1
 575 0286 471C     		adds	r7, r0, #1
 576 0288 0DE0     		b	.L131
 577              	.LVL50:
 578              	.L127:
 579 028a F268     		ldr	r2, [r6, #12]
 580 028c 5268     		ldr	r2, [r2, #4]	@ unaligned
 581 028e C2EB0C02 		rsb	r2, r2, ip
 582 0292 002A     		cmp	r2, #0
 583 0294 03DB     		blt	.L128
 584              		.loc 1 1431 0 is_stmt 0 discriminator 1
 585 0296 BAF1000F 		cmp	r10, #0
 586 029a 40F3D582 		ble	.L226
 587              	.L128:
 588              		.loc 1 1453 0 is_stmt 1
 589 029e 2A68     		ldr	r2, [r5]
 590 02a0 12B3     		cbz	r2, .L130
 591 02a2 2E46     		mov	r6, r5
 592              	.LVL51:
 593 02a4 1546     		mov	r5, r2
 594              	.LVL52:
 595              	.L131:
 596              		.loc 1 1389 0
 597 02a6 E968     		ldr	r1, [r5, #12]
 598 02a8 4B68     		ldr	r3, [r1, #4]	@ unaligned
 599 02aa 8342     		cmp	r3, r0
 600              		.loc 1 1431 0
 601 02ac C3EB070A 		rsb	r10, r3, r7
 602              		.loc 1 1389 0
 603 02b0 00F0A982 		beq	.L227
 604              		.loc 1 1415 0
 605 02b4 002E     		cmp	r6, #0
 606 02b6 E8D1     		bne	.L127
 607              		.loc 1 1416 0
 608 02b8 C21A     		subs	r2, r0, r3
 609 02ba 002A     		cmp	r2, #0
 610 02bc EFDA     		bge	.L128
 611              		.loc 1 1421 0
 612 02be 40F20000 		movw	r0, #:lower16:.LANCHOR5
 613 02c2 C0F20000 		movt	r0, #:upper16:.LANCHOR5
 614 02c6 FFF7FEFF 		bl	tcp_seg_copy
 615              	.LVL53:
 616              		.loc 1 1422 0
 617 02ca 0028     		cmp	r0, #0
 618 02cc 3FF4C6AE 		beq	.L22
 619              		.loc 1 1423 0
 620 02d0 6067     		str	r0, [r4, #116]
 621              	.LVL54:
 622              	.L207:
 623              		.loc 1 1424 0
 624 02d2 2946     		mov	r1, r5
 625              		.loc 1 1531 0
 626 02d4 03B0     		add	sp, sp, #12
 627              		@ sp needed
ARM GAS  /tmp/ccnlRhI2.s 			page 12


 628 02d6 BDE8F04F 		pop	{r4, r5, r6, r7, r8, r9, r10, fp, lr}
 629              	.LVL55:
 630              		.loc 1 1424 0
 631 02da FFF7FEBF 		b	tcp_oos_insert_segment
 632              	.LVL56:
 633              	.L222:
 634              		.loc 1 1207 0
 635 02de A37F     		ldrb	r3, [r4, #30]	@ zero_extendqisi2
 636 02e0 43F00203 		orr	r3, r3, #2
 637 02e4 A377     		strb	r3, [r4, #30]
 638 02e6 79E7     		b	.L82
 639              	.LVL57:
 640              	.L130:
 641              		.loc 1 1454 0 discriminator 1
 642 02e8 C31A     		subs	r3, r0, r3
 643              		.loc 1 1453 0 discriminator 1
 644 02ea 002B     		cmp	r3, #0
 645 02ec 7FF7B6AE 		ble	.L22
 646              		.loc 1 1455 0
 647 02f0 8889     		ldrh	r0, [r1, #12]	@ unaligned
 648 02f2 FFF7FEFF 		bl	lwip_ntohs
 649              	.LVL58:
 650 02f6 C007     		lsls	r0, r0, #31
 651 02f8 3FF5B0AE 		bmi	.L22
 652              		.loc 1 1459 0
 653 02fc 40F20000 		movw	r0, #:lower16:.LANCHOR5
 654 0300 C0F20000 		movt	r0, #:upper16:.LANCHOR5
 655 0304 FFF7FEFF 		bl	tcp_seg_copy
 656              	.LVL59:
 657 0308 2860     		str	r0, [r5]
 658              		.loc 1 1460 0
 659 030a 0028     		cmp	r0, #0
 660 030c 3FF4A6AE 		beq	.L22
 661              		.loc 1 1461 0
 662 0310 EA68     		ldr	r2, [r5, #12]
 663 0312 D8F80030 		ldr	r3, [r8]
 664 0316 2989     		ldrh	r1, [r5, #8]
 665 0318 5268     		ldr	r2, [r2, #4]	@ unaligned
 666 031a C91A     		subs	r1, r1, r3
 667 031c 1144     		add	r1, r1, r2
 668 031e 40F20006 		movw	r6, #:lower16:.LANCHOR0
 669              	.LVL60:
 670 0322 0029     		cmp	r1, #0
 671 0324 C0F20006 		movt	r6, #:upper16:.LANCHOR0
 672 0328 06DD     		ble	.L132
 673              		.loc 1 1463 0
 674 032a 9B1A     		subs	r3, r3, r2
 675 032c 99B2     		uxth	r1, r3
 676 032e 2981     		strh	r1, [r5, #8]	@ movhi
 677              		.loc 1 1464 0
 678 0330 6868     		ldr	r0, [r5, #4]
 679 0332 FFF7FEFF 		bl	pbuf_realloc
 680              	.LVL61:
 681 0336 3368     		ldr	r3, [r6]
 682              	.L132:
 683              		.loc 1 1467 0
 684 0338 B9F80000 		ldrh	r0, [r9]
ARM GAS  /tmp/ccnlRhI2.s 			page 13


 685 033c A18D     		ldrh	r1, [r4, #44]
 686 033e A26A     		ldr	r2, [r4, #40]
 687 0340 0344     		add	r3, r3, r0
 688 0342 0A44     		add	r2, r2, r1
 689 0344 9342     		cmp	r3, r2
 690 0346 7FF689AE 		bls	.L22
 691              		.loc 1 1472 0
 692 034a 2B68     		ldr	r3, [r5]
 693 034c DB68     		ldr	r3, [r3, #12]
 694 034e 9889     		ldrh	r0, [r3, #12]	@ unaligned
 695 0350 FFF7FEFF 		bl	lwip_ntohs
 696              	.LVL62:
 697 0354 C107     		lsls	r1, r0, #31
 698 0356 00F14C83 		bmi	.L228
 699              	.L133:
 700              		.loc 1 1478 0
 701 035a A08D     		ldrh	r0, [r4, #44]
 702 035c A16A     		ldr	r1, [r4, #40]
 703 035e D8F80020 		ldr	r2, [r8]
 704 0362 2B68     		ldr	r3, [r5]
 705 0364 0144     		add	r1, r1, r0
 706 0366 8A1A     		subs	r2, r1, r2
 707 0368 91B2     		uxth	r1, r2
 708 036a 1981     		strh	r1, [r3, #8]	@ movhi
 709              		.loc 1 1479 0
 710 036c 5868     		ldr	r0, [r3, #4]
 711 036e FFF7FEFF 		bl	pbuf_realloc
 712              	.LVL63:
 713              		.loc 1 1480 0
 714 0372 2B68     		ldr	r3, [r5]
 715 0374 DA68     		ldr	r2, [r3, #12]
 716 0376 1D89     		ldrh	r5, [r3, #8]
 717              	.LVL64:
 718 0378 9089     		ldrh	r0, [r2, #12]	@ unaligned
 719 037a FFF7FEFF 		bl	lwip_ntohs
 720              	.LVL65:
 721 037e 10F00300 		ands	r0, r0, #3
 722 0382 18BF     		it	ne
 723 0384 0120     		movne	r0, #1
 724 0386 2B18     		adds	r3, r5, r0
 725              		.loc 1 1481 0
 726 0388 D8F80010 		ldr	r1, [r8]
 727 038c A68D     		ldrh	r6, [r4, #44]
 728 038e A26A     		ldr	r2, [r4, #40]
 729              		.loc 1 1480 0
 730 0390 9BB2     		uxth	r3, r3
 731              		.loc 1 1481 0
 732 0392 1944     		add	r1, r1, r3
 733 0394 3244     		add	r2, r2, r6
 734 0396 9142     		cmp	r1, r2
 735              		.loc 1 1480 0
 736 0398 A9F80030 		strh	r3, [r9]	@ movhi
 737              		.loc 1 1481 0
 738 039c 3FF45EAE 		beq	.L22
 739              		.loc 1 1531 0 discriminator 1
 740 03a0 03B0     		add	sp, sp, #12
 741              		@ sp needed
ARM GAS  /tmp/ccnlRhI2.s 			page 14


 742 03a2 BDE8F04F 		pop	{r4, r5, r6, r7, r8, r9, r10, fp, lr}
 743              	.LVL66:
 744              		.loc 1 1481 0 discriminator 1
 745 03a6 FFF7FEBF 		b	port_halt
 746              	.LVL67:
 747              	.L215:
 748              		.loc 1 927 0
 749 03aa 40F20009 		movw	r9, #:lower16:.LANCHOR4
 750 03ae C0F20009 		movt	r9, #:upper16:.LANCHOR4
 751              		.loc 1 925 0
 752 03b2 0027     		movs	r7, #0
 753              		.loc 1 927 0
 754 03b4 B9F80020 		ldrh	r2, [r9]
 755              		.loc 1 925 0
 756 03b8 A4F86470 		strh	r7, [r4, #100]	@ movhi
 757              		.loc 1 927 0
 758 03bc 3AB9     		cbnz	r2, .L35
 759              		.loc 1 929 0
 760 03be B4F86070 		ldrh	r7, [r4, #96]
 761 03c2 A26D     		ldr	r2, [r4, #88]
 762              		.loc 1 867 0
 763 03c4 2944     		add	r1, r1, r5
 764              	.LVL68:
 765              		.loc 1 929 0
 766 03c6 3A44     		add	r2, r2, r7
 767 03c8 8A42     		cmp	r2, r1
 768 03ca 00F0E080 		beq	.L229
 769              	.L35:
 770              		.loc 1 955 0
 771 03ce 0023     		movs	r3, #0
 772 03d0 84F84730 		strb	r3, [r4, #71]
 773 03d4 6DE6     		b	.L55
 774              	.LVL69:
 775              	.L33:
 776              		.loc 1 887 0
 777 03d6 002A     		cmp	r2, #0
 778 03d8 3FF45AAE 		beq	.L31
 779              		.loc 1 889 0
 780 03dc 0022     		movs	r2, #0
 781 03de 84F89520 		strb	r2, [r4, #149]
 782 03e2 55E6     		b	.L31
 783              	.L214:
 784              		.loc 1 872 0
 785 03e4 40F20003 		movw	r3, #:lower16:.LANCHOR2
 786 03e8 C0F20003 		movt	r3, #:upper16:.LANCHOR2
 787 03ec 1B68     		ldr	r3, [r3]
 788 03ee D889     		ldrh	r0, [r3, #14]	@ unaligned
 789 03f0 8542     		cmp	r5, r0
 790 03f2 0B46     		mov	r3, r1
 791 03f4 BFF44CAE 		bcs	.L31
 792 03f8 1EE7     		b	.L27
 793              	.LVL70:
 794              	.L216:
 795              		.loc 1 963 0
 796 03fa A17F     		ldrb	r1, [r4, #30]	@ zero_extendqisi2
 797              		.loc 1 977 0
 798 03fc B4F86650 		ldrh	r5, [r4, #102]
ARM GAS  /tmp/ccnlRhI2.s 			page 15


 799              		.loc 1 972 0
 800 0400 B4F94070 		ldrsh	r7, [r4, #64]
 801              		.loc 1 981 0
 802 0404 A364     		str	r3, [r4, #72]
 803              		.loc 1 963 0
 804 0406 4807     		lsls	r0, r1, #29
 805              		.loc 1 965 0
 806 0408 41BF     		itttt	mi
 807 040a B4F84E00 		ldrhmi	r0, [r4, #78]
 808              		.loc 1 964 0
 809 040e 21F00401 		bicmi	r1, r1, #4
 810 0412 A177     		strbmi	r1, [r4, #30]
 811              		.loc 1 965 0
 812 0414 A4F84C00 		strhmi	r0, [r4, #76]	@ movhi
 813              		.loc 1 985 0
 814 0418 217E     		ldrb	r1, [r4, #24]	@ zero_extendqisi2
 815              		.loc 1 972 0
 816 041a B4F84200 		ldrh	r0, [r4, #66]
 817              		.loc 1 975 0
 818 041e 92B2     		uxth	r2, r2
 819              		.loc 1 969 0
 820 0420 0023     		movs	r3, #0
 821              		.loc 1 977 0
 822 0422 1544     		add	r5, r5, r2
 823              		.loc 1 972 0
 824 0424 00EBE700 		add	r0, r0, r7, asr #3
 825              		.loc 1 985 0
 826 0428 0329     		cmp	r1, #3
 827              		.loc 1 975 0
 828 042a A4F86420 		strh	r2, [r4, #100]	@ movhi
 829              		.loc 1 977 0
 830 042e A4F86650 		strh	r5, [r4, #102]	@ movhi
 831              		.loc 1 972 0
 832 0432 A4F84400 		strh	r0, [r4, #68]	@ movhi
 833              		.loc 1 969 0
 834 0436 84F84630 		strb	r3, [r4, #70]
 835              		.loc 1 980 0
 836 043a 84F84730 		strb	r3, [r4, #71]
 837              		.loc 1 985 0
 838 043e 0FD9     		bls	.L203
 839              		.loc 1 986 0
 840 0440 B4F84C30 		ldrh	r3, [r4, #76]
 841 0444 B4F84E20 		ldrh	r2, [r4, #78]
 842 0448 9A42     		cmp	r2, r3
 843              		.loc 1 987 0
 844 044a E28E     		ldrh	r2, [r4, #54]
 845              	.LBB2:
 846              		.loc 1 992 0
 847 044c 9CBF     		itt	ls
 848 044e 5243     		mulls	r2, r2, r2
 849 0450 92FBF3F2 		sdivls	r2, r2, r3
 850 0454 1A44     		add	r2, r2, r3
 851 0456 92B2     		uxth	r2, r2
 852              	.LVL71:
 853              		.loc 1 993 0
 854 0458 9342     		cmp	r3, r2
 855              		.loc 1 994 0
ARM GAS  /tmp/ccnlRhI2.s 			page 16


 856 045a 38BF     		it	cc
 857 045c A4F84C20 		strhcc	r2, [r4, #76]	@ movhi
 858              	.LVL72:
 859              	.L203:
 860 0460 236F     		ldr	r3, [r4, #112]
 861              	.L44:
 862              	.LBE2:
 863              		.loc 1 1008 0 discriminator 1
 864 0462 002B     		cmp	r3, #0
 865 0464 38D0     		beq	.L54
 866              		.loc 1 1009 0 discriminator 2
 867 0466 DB68     		ldr	r3, [r3, #12]
 868 0468 5868     		ldr	r0, [r3, #4]	@ unaligned
 869 046a FFF7FEFF 		bl	lwip_ntohl
 870              	.LVL73:
 871 046e 236F     		ldr	r3, [r4, #112]
 872 0470 DA68     		ldr	r2, [r3, #12]
 873 0472 1F89     		ldrh	r7, [r3, #8]
 874 0474 0546     		mov	r5, r0
 875 0476 9089     		ldrh	r0, [r2, #12]	@ unaligned
 876 0478 FFF7FEFF 		bl	lwip_ntohs
 877              	.LVL74:
 878 047c 3268     		ldr	r2, [r6]
 879 047e 10F00300 		ands	r0, r0, #3
 880 0482 18BF     		it	ne
 881 0484 0120     		movne	r0, #1
 882 0486 3B18     		adds	r3, r7, r0
 883 0488 AA1A     		subs	r2, r5, r2
 884 048a 1344     		add	r3, r3, r2
 885              		.loc 1 1008 0 discriminator 2
 886 048c 002B     		cmp	r3, #0
 887 048e 00F39C80 		bgt	.L230
 888              		.loc 1 1016 0
 889 0492 256F     		ldr	r5, [r4, #112]
 890              	.LVL75:
 891              		.loc 1 1020 0
 892 0494 B4F86870 		ldrh	r7, [r4, #104]
 893              		.loc 1 1017 0
 894 0498 2B68     		ldr	r3, [r5]
 895              		.loc 1 1020 0
 896 049a 6868     		ldr	r0, [r5, #4]
 897              		.loc 1 1017 0
 898 049c 2367     		str	r3, [r4, #112]
 899              		.loc 1 1020 0
 900 049e FFF7FEFF 		bl	pbuf_clen
 901              	.LVL76:
 902 04a2 8742     		cmp	r7, r0
 903 04a4 2FD3     		bcc	.L231
 904              	.L45:
 905              		.loc 1 1022 0
 906 04a6 B4F86430 		ldrh	r3, [r4, #100]
 907 04aa FBB9     		cbnz	r3, .L232
 908              	.L47:
 909              		.loc 1 1026 0
 910 04ac 6868     		ldr	r0, [r5, #4]
 911 04ae B4F86870 		ldrh	r7, [r4, #104]
 912 04b2 FFF7FEFF 		bl	pbuf_clen
ARM GAS  /tmp/ccnlRhI2.s 			page 17


 913              	.LVL77:
 914 04b6 381A     		subs	r0, r7, r0
 915 04b8 A4F86800 		strh	r0, [r4, #104]	@ movhi
 916              		.loc 1 1027 0
 917 04bc 2846     		mov	r0, r5
 918 04be FFF7FEFF 		bl	tcp_seg_free
 919              	.LVL78:
 920              		.loc 1 1030 0
 921 04c2 B4F86830 		ldrh	r3, [r4, #104]
 922 04c6 002B     		cmp	r3, #0
 923 04c8 CAD0     		beq	.L203
 924              		.loc 1 1031 0
 925 04ca 236F     		ldr	r3, [r4, #112]
 926 04cc 002B     		cmp	r3, #0
 927 04ce C8D1     		bne	.L44
 928              		.loc 1 1031 0 is_stmt 0 discriminator 1
 929 04d0 E36E     		ldr	r3, [r4, #108]
 930 04d2 002B     		cmp	r3, #0
 931 04d4 00F02182 		beq	.L233
 932              	.LVL79:
 933              	.L54:
 934              		.loc 1 1039 0 is_stmt 1
 935 04d8 4FF6FF73 		movw	r3, #65535
 936 04dc A386     		strh	r3, [r4, #52]	@ movhi
 937              	.L52:
 938              		.loc 1 1043 0
 939 04de 0023     		movs	r3, #0
 940 04e0 40F20009 		movw	r9, #:lower16:.LANCHOR4
 941 04e4 E377     		strb	r3, [r4, #31]
 942 04e6 C0F20009 		movt	r9, #:upper16:.LANCHOR4
 943 04ea E2E5     		b	.L55
 944              	.LVL80:
 945              	.L232:
 946              		.loc 1 1022 0 discriminator 1
 947 04ec EB68     		ldr	r3, [r5, #12]
 948 04ee 9889     		ldrh	r0, [r3, #12]	@ unaligned
 949 04f0 FFF7FEFF 		bl	lwip_ntohs
 950              	.LVL81:
 951 04f4 C207     		lsls	r2, r0, #31
 952              		.loc 1 1023 0 discriminator 1
 953 04f6 42BF     		ittt	mi
 954 04f8 B4F86430 		ldrhmi	r3, [r4, #100]
 955 04fc 03F1FF33 		addmi	r3, r3, #-1
 956 0500 A4F86430 		strhmi	r3, [r4, #100]	@ movhi
 957 0504 D2E7     		b	.L47
 958              	.L231:
 959              		.loc 1 1020 0 discriminator 1
 960 0506 FFF7FEFF 		bl	port_halt
 961              	.LVL82:
 962 050a CCE7     		b	.L45
 963              	.LVL83:
 964              	.L221:
 965              		.loc 1 1173 0
 966 050c 40F20007 		movw	r7, #:lower16:.LANCHOR5
 967 0510 C0F20007 		movt	r7, #:upper16:.LANCHOR5
 968              		.loc 1 1172 0
 969 0514 5646     		mov	r6, r10
ARM GAS  /tmp/ccnlRhI2.s 			page 18


 970              	.LVL84:
 971              		.loc 1 1173 0
 972 0516 7D68     		ldr	r5, [r7, #4]
 973              	.LVL85:
 974              		.loc 1 1174 0
 975 0518 002D     		cmp	r5, #0
 976 051a 00F00182 		beq	.L234
 977              	.L72:
 978              		.loc 1 1175 0
 979 051e 47F6FE73 		movw	r3, #32766
 980 0522 9A45     		cmp	r10, r3
 981 0524 00F38D81 		bgt	.L235
 982              	.L73:
 983              		.loc 1 1176 0
 984 0528 7868     		ldr	r0, [r7, #4]
 985 052a 4389     		ldrh	r3, [r0, #10]
 986 052c 40F2000B 		movw	fp, #:lower16:.LANCHOR5
 987 0530 9A45     		cmp	r10, r3
 988 0532 C0F2000B 		movt	fp, #:upper16:.LANCHOR5
 989 0536 40F37981 		ble	.L74
 990              		.loc 1 1177 0
 991 053a 0389     		ldrh	r3, [r0, #8]
 992 053c 9A45     		cmp	r10, r3
 993 053e D8BF     		it	le
 994 0540 1A46     		movle	r2, r3
 995 0542 00F3A281 		bgt	.L236
 996              	.L75:
 997              		.loc 1 1179 0
 998 0546 6B89     		ldrh	r3, [r5, #10]
 999              		.loc 1 1178 0
 1000 0548 CAEB0202 		rsb	r2, r10, r2
 1001              		.loc 1 1179 0
 1002 054c 9A45     		cmp	r10, r3
 1003              		.loc 1 1178 0
 1004 054e 92B2     		uxth	r2, r2
 1005              	.LVL86:
 1006              		.loc 1 1179 0
 1007 0550 07DD     		ble	.L76
 1008              		.loc 1 1185 0
 1009 0552 0021     		movs	r1, #0
 1010              	.L77:
 1011 0554 6981     		strh	r1, [r5, #10]	@ movhi
 1012              		.loc 1 1184 0
 1013 0556 2A81     		strh	r2, [r5, #8]	@ movhi
 1014              		.loc 1 1186 0
 1015 0558 2D68     		ldr	r5, [r5]
 1016              	.LVL87:
 1017              		.loc 1 1180 0
 1018 055a F61A     		subs	r6, r6, r3
 1019              	.LVL88:
 1020              		.loc 1 1179 0
 1021 055c 6B89     		ldrh	r3, [r5, #10]
 1022 055e B342     		cmp	r3, r6
 1023 0560 F8DB     		blt	.L77
 1024              	.L76:
 1025              		.loc 1 1188 0
 1026 0562 7142     		negs	r1, r6
ARM GAS  /tmp/ccnlRhI2.s 			page 19


 1027 0564 09B2     		sxth	r1, r1
 1028 0566 2846     		mov	r0, r5
 1029 0568 FFF7FEFF 		bl	pbuf_header
 1030              	.LVL89:
 1031 056c 0028     		cmp	r0, #0
 1032 056e 40F06581 		bne	.L78
 1033              	.L79:
 1034              		.loc 1 1198 0
 1035 0572 3A89     		ldrh	r2, [r7, #8]
 1036 0574 D8F80010 		ldr	r1, [r8]
 1037 0578 A36A     		ldr	r3, [r4, #40]
 1038              		.loc 1 1199 0
 1039 057a F868     		ldr	r0, [r7, #12]
 1040 057c C8F80030 		str	r3, [r8]
 1041              		.loc 1 1198 0
 1042 0580 1144     		add	r1, r1, r2
 1043 0582 C91A     		subs	r1, r1, r3
 1044 0584 3981     		strh	r1, [r7, #8]	@ movhi
 1045 0586 1A46     		mov	r2, r3
 1046 0588 1946     		mov	r1, r3
 1047              		.loc 1 1199 0
 1048 058a 4360     		str	r3, [r0, #4]	@ unaligned
 1049 058c 1FE6     		b	.L81
 1050              	.LVL90:
 1051              	.L229:
 1052              		.loc 1 931 0
 1053 058e B4F93420 		ldrsh	r2, [r4, #52]
 1054 0592 002A     		cmp	r2, #0
 1055 0594 FFF61BAF 		blt	.L35
 1056              		.loc 1 933 0
 1057 0598 9842     		cmp	r0, r3
 1058 059a 7FF418AF 		bne	.L35
 1059              	.LVL91:
 1060              		.loc 1 935 0
 1061 059e 94F84730 		ldrb	r3, [r4, #71]	@ zero_extendqisi2
 1062 05a2 5A1C     		adds	r2, r3, #1
 1063 05a4 D2B2     		uxtb	r2, r2
 1064 05a6 9342     		cmp	r3, r2
 1065              		.loc 1 936 0
 1066 05a8 3CBF     		itt	cc
 1067 05aa 1346     		movcc	r3, r2
 1068 05ac 84F84720 		strbcc	r2, [r4, #71]
 1069              		.loc 1 938 0
 1070 05b0 032B     		cmp	r3, #3
 1071 05b2 40F20282 		bls	.L37
 1072              		.loc 1 941 0
 1073 05b6 B4F84C20 		ldrh	r2, [r4, #76]
 1074 05ba E38E     		ldrh	r3, [r4, #54]
 1075 05bc 1344     		add	r3, r3, r2
 1076 05be 9BB2     		uxth	r3, r3
 1077 05c0 9A42     		cmp	r2, r3
 1078              		.loc 1 942 0
 1079 05c2 38BF     		it	cc
 1080 05c4 A4F84C30 		strhcc	r3, [r4, #76]	@ movhi
 1081 05c8 73E5     		b	.L55
 1082              	.LVL92:
 1083              	.L230:
ARM GAS  /tmp/ccnlRhI2.s 			page 20


 1084              		.loc 1 1038 0
 1085 05ca 236F     		ldr	r3, [r4, #112]
 1086 05cc 002B     		cmp	r3, #0
 1087 05ce 83D0     		beq	.L54
 1088              		.loc 1 1041 0
 1089 05d0 0023     		movs	r3, #0
 1090 05d2 A386     		strh	r3, [r4, #52]	@ movhi
 1091 05d4 83E7     		b	.L52
 1092              	.LVL93:
 1093              	.L224:
 1094              		.loc 1 1220 0
 1095 05d6 40F20007 		movw	r7, #:lower16:.LANCHOR5
 1096 05da C0F20007 		movt	r7, #:upper16:.LANCHOR5
 1097 05de FB68     		ldr	r3, [r7, #12]
 1098 05e0 3D89     		ldrh	r5, [r7, #8]
 1099 05e2 9889     		ldrh	r0, [r3, #12]	@ unaligned
 1100 05e4 FFF7FEFF 		bl	lwip_ntohs
 1101              	.LVL94:
 1102 05e8 10F00300 		ands	r0, r0, #3
 1103 05ec 18BF     		it	ne
 1104 05ee 0120     		movne	r0, #1
 1105 05f0 2B18     		adds	r3, r5, r0
 1106              		.loc 1 1222 0
 1107 05f2 A28D     		ldrh	r2, [r4, #44]
 1108              		.loc 1 1220 0
 1109 05f4 9BB2     		uxth	r3, r3
 1110              		.loc 1 1222 0
 1111 05f6 9A42     		cmp	r2, r3
 1112              		.loc 1 1220 0
 1113 05f8 A9F80030 		strh	r3, [r9]	@ movhi
 1114              		.loc 1 1222 0
 1115 05fc C0F05181 		bcc	.L237
 1116              	.L85:
 1117              		.loc 1 1246 0
 1118 0600 636F     		ldr	r3, [r4, #116]
 1119 0602 002B     		cmp	r3, #0
 1120 0604 5BD0     		beq	.L206
 1121              		.loc 1 1247 0
 1122 0606 FB68     		ldr	r3, [r7, #12]
 1123 0608 9889     		ldrh	r0, [r3, #12]	@ unaligned
 1124 060a FFF7FEFF 		bl	lwip_ntohs
 1125              	.LVL95:
 1126 060e C507     		lsls	r5, r0, #31
 1127 0610 52D4     		bmi	.L211
 1128              		.loc 1 1259 0
 1129 0612 666F     		ldr	r6, [r4, #116]
 1130              	.LVL96:
 1131              		.loc 1 1262 0
 1132 0614 002E     		cmp	r6, #0
 1133 0616 00F07881 		beq	.L96
 1134              		.loc 1 1263 0
 1135 061a F368     		ldr	r3, [r6, #12]
 1136 061c B9F80020 		ldrh	r2, [r9]
 1137 0620 5968     		ldr	r1, [r3, #4]	@ unaligned
 1138 0622 D8F80000 		ldr	r0, [r8]
 1139 0626 3589     		ldrh	r5, [r6, #8]
 1140 0628 511A     		subs	r1, r2, r1
ARM GAS  /tmp/ccnlRhI2.s 			page 21


 1141 062a 0144     		add	r1, r1, r0
 1142 062c 4D1B     		subs	r5, r1, r5
 1143              		.loc 1 1262 0
 1144 062e 002D     		cmp	r5, #0
 1145 0630 C0F2DA81 		blt	.L140
 1146              		.loc 1 1267 0
 1147 0634 40F2000A 		movw	r10, #:lower16:.LANCHOR5
 1148 0638 C0F2000A 		movt	r10, #:upper16:.LANCHOR5
 1149 063c 14E0     		b	.L101
 1150              	.L99:
 1151              	.LVL97:
 1152              		.loc 1 1272 0
 1153 063e 3568     		ldr	r5, [r6]
 1154              	.LVL98:
 1155              		.loc 1 1273 0
 1156 0640 3046     		mov	r0, r6
 1157 0642 FFF7FEFF 		bl	tcp_seg_free
 1158              	.LVL99:
 1159              		.loc 1 1262 0
 1160 0646 002D     		cmp	r5, #0
 1161 0648 00F05F81 		beq	.L96
 1162              		.loc 1 1263 0 discriminator 2
 1163 064c EB68     		ldr	r3, [r5, #12]
 1164 064e B9F80020 		ldrh	r2, [r9]
 1165 0652 5968     		ldr	r1, [r3, #4]	@ unaligned
 1166 0654 D8F80000 		ldr	r0, [r8]
 1167 0658 2E89     		ldrh	r6, [r5, #8]
 1168              	.LVL100:
 1169 065a 511A     		subs	r1, r2, r1
 1170 065c 0144     		add	r1, r1, r0
 1171 065e 8E1B     		subs	r6, r1, r6
 1172              		.loc 1 1262 0 discriminator 2
 1173 0660 002E     		cmp	r6, #0
 1174 0662 C0F26081 		blt	.L141
 1175              		.loc 1 1262 0 is_stmt 0
 1176 0666 2E46     		mov	r6, r5
 1177              	.LVL101:
 1178              	.L101:
 1179              		.loc 1 1266 0 is_stmt 1
 1180 0668 9889     		ldrh	r0, [r3, #12]	@ unaligned
 1181 066a FFF7FEFF 		bl	lwip_ntohs
 1182              	.LVL102:
 1183 066e C007     		lsls	r0, r0, #31
 1184 0670 E5D5     		bpl	.L99
 1185              		.loc 1 1267 0 discriminator 1
 1186 0672 FB68     		ldr	r3, [r7, #12]
 1187 0674 9889     		ldrh	r0, [r3, #12]	@ unaligned
 1188 0676 FFF7FEFF 		bl	lwip_ntohs
 1189              	.LVL103:
 1190              		.loc 1 1266 0 discriminator 1
 1191 067a 8107     		lsls	r1, r0, #30
 1192 067c DFD4     		bmi	.L99
 1193              		.loc 1 1268 0
 1194 067e DAF80C50 		ldr	r5, [r10, #12]
 1195 0682 AB89     		ldrh	r3, [r5, #12]	@ unaligned
 1196 0684 0120     		movs	r0, #1
 1197 0686 0193     		str	r3, [sp, #4]
ARM GAS  /tmp/ccnlRhI2.s 			page 22


 1198 0688 FFF7FEFF 		bl	lwip_htons
 1199              	.LVL104:
 1200 068c 019B     		ldr	r3, [sp, #4]
 1201              		.loc 1 1269 0
 1202 068e DAF80C20 		ldr	r2, [r10, #12]
 1203 0692 BAF808B0 		ldrh	fp, [r10, #8]
 1204              		.loc 1 1268 0
 1205 0696 1843     		orrs	r0, r0, r3
 1206 0698 A881     		strh	r0, [r5, #12]	@ unaligned
 1207              		.loc 1 1269 0
 1208 069a 9089     		ldrh	r0, [r2, #12]	@ unaligned
 1209 069c FFF7FEFF 		bl	lwip_ntohs
 1210              	.LVL105:
 1211 06a0 10F00300 		ands	r0, r0, #3
 1212 06a4 18BF     		it	ne
 1213 06a6 0120     		movne	r0, #1
 1214 06a8 5844     		add	r0, r0, fp
 1215 06aa A9F80000 		strh	r0, [r9]	@ movhi
 1216 06ae C6E7     		b	.L99
 1217              	.LVL106:
 1218              	.L95:
 1219              	.LBB3:
 1220              		.loc 1 1255 0
 1221 06b0 0368     		ldr	r3, [r0]
 1222 06b2 6367     		str	r3, [r4, #116]
 1223              		.loc 1 1256 0
 1224 06b4 FFF7FEFF 		bl	tcp_seg_free
 1225              	.LVL107:
 1226              	.L211:
 1227              	.LBE3:
 1228              		.loc 1 1253 0
 1229 06b8 606F     		ldr	r0, [r4, #116]
 1230 06ba 0028     		cmp	r0, #0
 1231 06bc F8D1     		bne	.L95
 1232              	.L206:
 1233 06be B9F80030 		ldrh	r3, [r9]
 1234 06c2 D8F80020 		ldr	r2, [r8]
 1235 06c6 1A44     		add	r2, r2, r3
 1236              	.L91:
 1237              		.loc 1 1298 0
 1238 06c8 A18D     		ldrh	r1, [r4, #44]
 1239              		.loc 1 1295 0
 1240 06ca A262     		str	r2, [r4, #40]
 1241              		.loc 1 1298 0
 1242 06cc 9942     		cmp	r1, r3
 1243 06ce C0F0E280 		bcc	.L238
 1244              	.L105:
 1245              		.loc 1 1299 0
 1246 06d2 CB1A     		subs	r3, r1, r3
 1247 06d4 A385     		strh	r3, [r4, #44]	@ movhi
 1248              		.loc 1 1301 0
 1249 06d6 2046     		mov	r0, r4
 1250 06d8 FFF7FEFF 		bl	tcp_update_rcv_ann_wnd
 1251              	.LVL108:
 1252              		.loc 1 1312 0
 1253 06dc 7A68     		ldr	r2, [r7, #4]
 1254 06de 1189     		ldrh	r1, [r2, #8]
ARM GAS  /tmp/ccnlRhI2.s 			page 23


 1255 06e0 40F20003 		movw	r3, #:lower16:.LANCHOR5
 1256 06e4 C0F20003 		movt	r3, #:upper16:.LANCHOR5
 1257 06e8 31B1     		cbz	r1, .L106
 1258              		.loc 1 1313 0
 1259 06ea 40F20001 		movw	r1, #:lower16:.LANCHOR6
 1260 06ee C0F20001 		movt	r1, #:upper16:.LANCHOR6
 1261              		.loc 1 1317 0
 1262 06f2 0020     		movs	r0, #0
 1263              		.loc 1 1313 0
 1264 06f4 0A60     		str	r2, [r1]
 1265              		.loc 1 1317 0
 1266 06f6 5860     		str	r0, [r3, #4]
 1267              	.L106:
 1268              		.loc 1 1319 0
 1269 06f8 FB68     		ldr	r3, [r7, #12]
 1270 06fa 9889     		ldrh	r0, [r3, #12]	@ unaligned
 1271 06fc FFF7FEFF 		bl	lwip_ntohs
 1272              	.LVL109:
 1273 0700 C307     		lsls	r3, r0, #31
 1274              		.loc 1 1321 0
 1275 0702 44BF     		itt	mi
 1276 0704 40F20003 		movwmi	r3, #:lower16:.LANCHOR7
 1277 0708 C0F20003 		movtmi	r3, #:upper16:.LANCHOR7
 1278              		.loc 1 1327 0
 1279 070c 656F     		ldr	r5, [r4, #116]
 1280              		.loc 1 1321 0
 1281 070e 42BF     		ittt	mi
 1282 0710 1A78     		ldrbmi	r2, [r3]	@ zero_extendqisi2
 1283 0712 42F02002 		orrmi	r2, r2, #32
 1284 0716 1A70     		strbmi	r2, [r3]
 1285              		.loc 1 1327 0
 1286 0718 002D     		cmp	r5, #0
 1287 071a 6BD0     		beq	.L111
 1288              		.loc 1 1328 0
 1289 071c EA68     		ldr	r2, [r5, #12]
 1290              		.loc 1 1327 0
 1291 071e A36A     		ldr	r3, [r4, #40]
 1292              		.loc 1 1328 0
 1293 0720 5668     		ldr	r6, [r2, #4]	@ unaligned
 1294              		.loc 1 1327 0
 1295 0722 9E42     		cmp	r6, r3
 1296 0724 66D1     		bne	.L111
 1297              		.loc 1 1343 0
 1298 0726 40F20009 		movw	r9, #:lower16:.LANCHOR6
 1299              		.loc 1 1352 0
 1300 072a 40F20007 		movw	r7, #:lower16:.LANCHOR7
 1301              		.loc 1 1343 0
 1302 072e C0F20009 		movt	r9, #:upper16:.LANCHOR6
 1303              		.loc 1 1352 0
 1304 0732 C0F20007 		movt	r7, #:upper16:.LANCHOR7
 1305 0736 38E0     		b	.L119
 1306              	.LVL110:
 1307              	.L112:
 1308              		.loc 1 1336 0
 1309 0738 EB68     		ldr	r3, [r5, #12]
 1310 073a B4F82CB0 		ldrh	fp, [r4, #44]
 1311 073e 9889     		ldrh	r0, [r3, #12]	@ unaligned
ARM GAS  /tmp/ccnlRhI2.s 			page 24


 1312 0740 2E89     		ldrh	r6, [r5, #8]
 1313 0742 FFF7FEFF 		bl	lwip_ntohs
 1314              	.LVL111:
 1315 0746 10F00300 		ands	r0, r0, #3
 1316 074a 18BF     		it	ne
 1317 074c 0120     		movne	r0, #1
 1318 074e C6EB0B02 		rsb	r2, r6, fp
 1319 0752 101A     		subs	r0, r2, r0
 1320 0754 A085     		strh	r0, [r4, #44]	@ movhi
 1321              		.loc 1 1338 0
 1322 0756 2046     		mov	r0, r4
 1323 0758 FFF7FEFF 		bl	tcp_update_rcv_ann_wnd
 1324              	.LVL112:
 1325              		.loc 1 1340 0
 1326 075c 6968     		ldr	r1, [r5, #4]
 1327 075e 0B89     		ldrh	r3, [r1, #8]
 1328 0760 3BB1     		cbz	r3, .L113
 1329              		.loc 1 1343 0
 1330 0762 D9F80000 		ldr	r0, [r9]
 1331 0766 0028     		cmp	r0, #0
 1332 0768 41D0     		beq	.L114
 1333              		.loc 1 1344 0
 1334 076a FFF7FEFF 		bl	pbuf_cat
 1335              	.LVL113:
 1336              	.L115:
 1337              		.loc 1 1348 0
 1338 076e 0023     		movs	r3, #0
 1339 0770 6B60     		str	r3, [r5, #4]
 1340              	.L113:
 1341              		.loc 1 1350 0
 1342 0772 EB68     		ldr	r3, [r5, #12]
 1343 0774 9889     		ldrh	r0, [r3, #12]	@ unaligned
 1344 0776 FFF7FEFF 		bl	lwip_ntohs
 1345              	.LVL114:
 1346 077a C607     		lsls	r6, r0, #31
 1347 077c 09D5     		bpl	.L117
 1348              		.loc 1 1353 0
 1349 077e 237E     		ldrb	r3, [r4, #24]	@ zero_extendqisi2
 1350              		.loc 1 1352 0
 1351 0780 3A78     		ldrb	r2, [r7]	@ zero_extendqisi2
 1352              		.loc 1 1353 0
 1353 0782 042B     		cmp	r3, #4
 1354              		.loc 1 1352 0
 1355 0784 42F02002 		orr	r2, r2, #32
 1356              		.loc 1 1354 0
 1357 0788 08BF     		it	eq
 1358 078a 0723     		moveq	r3, #7
 1359              		.loc 1 1352 0
 1360 078c 3A70     		strb	r2, [r7]
 1361              		.loc 1 1354 0
 1362 078e 08BF     		it	eq
 1363 0790 2376     		strbeq	r3, [r4, #24]
 1364              	.L117:
 1365              		.loc 1 1358 0
 1366 0792 2B68     		ldr	r3, [r5]
 1367              		.loc 1 1359 0
 1368 0794 2846     		mov	r0, r5
ARM GAS  /tmp/ccnlRhI2.s 			page 25


 1369              		.loc 1 1358 0
 1370 0796 6367     		str	r3, [r4, #116]
 1371              		.loc 1 1359 0
 1372 0798 FFF7FEFF 		bl	tcp_seg_free
 1373              	.LVL115:
 1374              		.loc 1 1327 0
 1375 079c 656F     		ldr	r5, [r4, #116]
 1376              	.LVL116:
 1377 079e 4DB3     		cbz	r5, .L111
 1378              		.loc 1 1328 0 discriminator 2
 1379 07a0 EA68     		ldr	r2, [r5, #12]
 1380              		.loc 1 1327 0 discriminator 2
 1381 07a2 A36A     		ldr	r3, [r4, #40]
 1382              		.loc 1 1328 0 discriminator 2
 1383 07a4 5668     		ldr	r6, [r2, #4]	@ unaligned
 1384              		.loc 1 1327 0 discriminator 2
 1385 07a6 9E42     		cmp	r6, r3
 1386 07a8 24D1     		bne	.L111
 1387              	.L119:
 1388              	.LVL117:
 1389              		.loc 1 1333 0
 1390 07aa 9089     		ldrh	r0, [r2, #12]	@ unaligned
 1391 07ac B5F808A0 		ldrh	r10, [r5, #8]
 1392              		.loc 1 1331 0
 1393 07b0 C8F80060 		str	r6, [r8]
 1394              		.loc 1 1333 0
 1395 07b4 FFF7FEFF 		bl	lwip_ntohs
 1396              	.LVL118:
 1397 07b8 10F00300 		ands	r0, r0, #3
 1398 07bc 18BF     		it	ne
 1399 07be 0120     		movne	r0, #1
 1400 07c0 0AEB0001 		add	r1, r10, r0
 1401              		.loc 1 1334 0
 1402 07c4 EB68     		ldr	r3, [r5, #12]
 1403 07c6 B5F808A0 		ldrh	r10, [r5, #8]
 1404 07ca 9889     		ldrh	r0, [r3, #12]	@ unaligned
 1405 07cc B4F82CB0 		ldrh	fp, [r4, #44]
 1406              		.loc 1 1333 0
 1407 07d0 0E44     		add	r6, r6, r1
 1408 07d2 A662     		str	r6, [r4, #40]
 1409              		.loc 1 1334 0
 1410 07d4 FFF7FEFF 		bl	lwip_ntohs
 1411              	.LVL119:
 1412 07d8 10F00300 		ands	r0, r0, #3
 1413 07dc 18BF     		it	ne
 1414 07de 0120     		movne	r0, #1
 1415 07e0 0AEB0003 		add	r3, r10, r0
 1416 07e4 9B45     		cmp	fp, r3
 1417 07e6 A7DA     		bge	.L112
 1418              		.loc 1 1334 0 is_stmt 0 discriminator 1
 1419 07e8 FFF7FEFF 		bl	port_halt
 1420              	.LVL120:
 1421 07ec A4E7     		b	.L112
 1422              	.L114:
 1423              		.loc 1 1346 0 is_stmt 1
 1424 07ee C9F80010 		str	r1, [r9]
 1425 07f2 BCE7     		b	.L115
ARM GAS  /tmp/ccnlRhI2.s 			page 26


 1426              	.LVL121:
 1427              	.L111:
 1428              		.loc 1 1365 0
 1429 07f4 A37F     		ldrb	r3, [r4, #30]	@ zero_extendqisi2
 1430 07f6 DF07     		lsls	r7, r3, #31
 1431 07f8 42D5     		bpl	.L239
 1432              		.loc 1 1365 0 is_stmt 0 discriminator 1
 1433 07fa 23F00103 		bic	r3, r3, #1
 1434 07fe 43F00203 		orr	r3, r3, #2
 1435 0802 A377     		strb	r3, [r4, #30]
 1436 0804 2AE4     		b	.L22
 1437              	.LVL122:
 1438              	.L227:
 1439              		.loc 1 1394 0 is_stmt 1
 1440 0806 40F20000 		movw	r0, #:lower16:.LANCHOR5
 1441 080a C0F20000 		movt	r0, #:upper16:.LANCHOR5
 1442 080e 2B89     		ldrh	r3, [r5, #8]
 1443 0810 0289     		ldrh	r2, [r0, #8]
 1444 0812 9A42     		cmp	r2, r3
 1445 0814 7FF622AC 		bls	.L22
 1446              		.loc 1 1398 0
 1447 0818 FFF7FEFF 		bl	tcp_seg_copy
 1448              	.LVL123:
 1449              		.loc 1 1399 0
 1450 081c 0028     		cmp	r0, #0
 1451 081e 3FF41DAC 		beq	.L22
 1452              		.loc 1 1400 0
 1453 0822 002E     		cmp	r6, #0
 1454 0824 00F0DE80 		beq	.L125
 1455              		.loc 1 1401 0
 1456 0828 3060     		str	r0, [r6]
 1457 082a 52E5     		b	.L207
 1458              	.LVL124:
 1459              	.L74:
 1460              		.loc 1 1193 0
 1461 082c CAF10001 		rsb	r1, r10, #0
 1462 0830 09B2     		sxth	r1, r1
 1463 0832 FFF7FEFF 		bl	pbuf_header
 1464              	.LVL125:
 1465 0836 0028     		cmp	r0, #0
 1466 0838 3FF49BAE 		beq	.L79
 1467              	.L78:
 1468              		.loc 1 1190 0 discriminator 1
 1469 083c FFF7FEFF 		bl	port_halt
 1470              	.LVL126:
 1471 0840 97E6     		b	.L79
 1472              	.L235:
 1473              		.loc 1 1175 0 discriminator 1
 1474 0842 FFF7FEFF 		bl	port_halt
 1475              	.LVL127:
 1476 0846 6FE6     		b	.L73
 1477              	.LVL128:
 1478              	.L226:
 1479              		.loc 1 1437 0
 1480 0848 40F20000 		movw	r0, #:lower16:.LANCHOR5
 1481 084c C0F20000 		movt	r0, #:upper16:.LANCHOR5
 1482 0850 FFF7FEFF 		bl	tcp_seg_copy
ARM GAS  /tmp/ccnlRhI2.s 			page 27


 1483              	.LVL129:
 1484              		.loc 1 1438 0
 1485 0854 0446     		mov	r4, r0
 1486              	.LVL130:
 1487 0856 0028     		cmp	r0, #0
 1488 0858 3FF400AC 		beq	.L22
 1489              		.loc 1 1439 0
 1490 085c F368     		ldr	r3, [r6, #12]
 1491 085e D8F80020 		ldr	r2, [r8]
 1492 0862 3189     		ldrh	r1, [r6, #8]
 1493 0864 5B68     		ldr	r3, [r3, #4]	@ unaligned
 1494 0866 891A     		subs	r1, r1, r2
 1495 0868 1944     		add	r1, r1, r3
 1496 086a 0029     		cmp	r1, #0
 1497 086c 05DD     		ble	.L129
 1498              		.loc 1 1441 0
 1499 086e D31A     		subs	r3, r2, r3
 1500 0870 99B2     		uxth	r1, r3
 1501 0872 3181     		strh	r1, [r6, #8]	@ movhi
 1502              		.loc 1 1442 0
 1503 0874 7068     		ldr	r0, [r6, #4]
 1504              	.LVL131:
 1505 0876 FFF7FEFF 		bl	pbuf_realloc
 1506              	.LVL132:
 1507              	.L129:
 1508              		.loc 1 1444 0
 1509 087a 3460     		str	r4, [r6]
 1510              		.loc 1 1445 0
 1511 087c 2046     		mov	r0, r4
 1512 087e 28E5     		b	.L207
 1513              	.LVL133:
 1514              	.L239:
 1515              		.loc 1 1365 0 discriminator 2
 1516 0880 43F00103 		orr	r3, r3, #1
 1517 0884 A377     		strb	r3, [r4, #30]
 1518 0886 FFF7E9BB 		b	.L22
 1519              	.LVL134:
 1520              	.L236:
 1521              		.loc 1 1177 0 discriminator 1
 1522 088a FFF7FEFF 		bl	port_halt
 1523              	.LVL135:
 1524 088e DBF80430 		ldr	r3, [fp, #4]
 1525 0892 1A89     		ldrh	r2, [r3, #8]
 1526 0894 57E6     		b	.L75
 1527              	.LVL136:
 1528              	.L238:
 1529              		.loc 1 1298 0 discriminator 1
 1530 0896 FFF7FEFF 		bl	port_halt
 1531              	.LVL137:
 1532 089a B9F80030 		ldrh	r3, [r9]
 1533 089e A18D     		ldrh	r1, [r4, #44]
 1534 08a0 17E7     		b	.L105
 1535              	.L237:
 1536              		.loc 1 1227 0
 1537 08a2 FB68     		ldr	r3, [r7, #12]
 1538 08a4 9889     		ldrh	r0, [r3, #12]	@ unaligned
 1539 08a6 FFF7FEFF 		bl	lwip_ntohs
ARM GAS  /tmp/ccnlRhI2.s 			page 28


 1540              	.LVL138:
 1541 08aa C307     		lsls	r3, r0, #31
 1542 08ac 00F18C80 		bmi	.L240
 1543              	.L86:
 1544              		.loc 1 1234 0
 1545 08b0 FB68     		ldr	r3, [r7, #12]
 1546              		.loc 1 1233 0
 1547 08b2 A28D     		ldrh	r2, [r4, #44]
 1548              		.loc 1 1234 0
 1549 08b4 9889     		ldrh	r0, [r3, #12]	@ unaligned
 1550              		.loc 1 1233 0
 1551 08b6 3A81     		strh	r2, [r7, #8]	@ movhi
 1552 08b8 40F20005 		movw	r5, #:lower16:.LANCHOR5
 1553              		.loc 1 1234 0
 1554 08bc FFF7FEFF 		bl	lwip_ntohs
 1555              	.LVL139:
 1556              		.loc 1 1233 0
 1557 08c0 C0F20005 		movt	r5, #:upper16:.LANCHOR5
 1558              		.loc 1 1234 0
 1559 08c4 8607     		lsls	r6, r0, #30
 1560              		.loc 1 1235 0
 1561 08c6 2989     		ldrh	r1, [r5, #8]
 1562              		.loc 1 1237 0
 1563 08c8 7868     		ldr	r0, [r7, #4]
 1564              		.loc 1 1235 0
 1565 08ca 42BF     		ittt	mi
 1566 08cc 01F1FF31 		addmi	r1, r1, #-1
 1567 08d0 89B2     		uxthmi	r1, r1
 1568 08d2 2981     		strhmi	r1, [r5, #8]	@ movhi
 1569              		.loc 1 1237 0
 1570 08d4 FFF7FEFF 		bl	pbuf_realloc
 1571              	.LVL140:
 1572              		.loc 1 1238 0
 1573 08d8 FB68     		ldr	r3, [r7, #12]
 1574 08da 3D89     		ldrh	r5, [r7, #8]
 1575 08dc 9889     		ldrh	r0, [r3, #12]	@ unaligned
 1576 08de FFF7FEFF 		bl	lwip_ntohs
 1577              	.LVL141:
 1578 08e2 10F00300 		ands	r0, r0, #3
 1579 08e6 18BF     		it	ne
 1580 08e8 0120     		movne	r0, #1
 1581 08ea 2B18     		adds	r3, r5, r0
 1582              		.loc 1 1239 0
 1583 08ec D8F80010 		ldr	r1, [r8]
 1584 08f0 A68D     		ldrh	r6, [r4, #44]
 1585 08f2 A26A     		ldr	r2, [r4, #40]
 1586              		.loc 1 1238 0
 1587 08f4 9BB2     		uxth	r3, r3
 1588              		.loc 1 1239 0
 1589 08f6 1944     		add	r1, r1, r3
 1590 08f8 3244     		add	r2, r2, r6
 1591 08fa 9142     		cmp	r1, r2
 1592              		.loc 1 1238 0
 1593 08fc A9F80030 		strh	r3, [r9]	@ movhi
 1594              		.loc 1 1239 0
 1595 0900 3FF47EAE 		beq	.L85
 1596              		.loc 1 1239 0 is_stmt 0 discriminator 1
ARM GAS  /tmp/ccnlRhI2.s 			page 29


 1597 0904 FFF7FEFF 		bl	port_halt
 1598              	.LVL142:
 1599 0908 7AE6     		b	.L85
 1600              	.L96:
 1601 090a B9F80030 		ldrh	r3, [r9]
 1602 090e D8F80020 		ldr	r2, [r8]
 1603              		.loc 1 1283 0 is_stmt 1
 1604 0912 0025     		movs	r5, #0
 1605 0914 1A44     		add	r2, r2, r3
 1606              	.L104:
 1607              		.loc 1 1290 0
 1608 0916 6567     		str	r5, [r4, #116]
 1609 0918 D6E6     		b	.L91
 1610              	.LVL143:
 1611              	.L233:
 1612              		.loc 1 1031 0 discriminator 1
 1613 091a FFF7FEFF 		bl	port_halt
 1614              	.LVL144:
 1615 091e 9FE5     		b	.L203
 1616              	.LVL145:
 1617              	.L234:
 1618              		.loc 1 1174 0 discriminator 1
 1619 0920 FFF7FEFF 		bl	port_halt
 1620              	.LVL146:
 1621 0924 FBE5     		b	.L72
 1622              	.LVL147:
 1623              	.L141:
 1624              		.loc 1 1263 0
 1625 0926 D3F804E0 		ldr	lr, [r3, #4]	@ unaligned
 1626 092a 1346     		mov	r3, r2
 1627              	.L97:
 1628              		.loc 1 1277 0
 1629 092c 0029     		cmp	r1, #0
 1630 092e D8BF     		it	le
 1631 0930 1218     		addle	r2, r2, r0
 1632 0932 F0DD     		ble	.L104
 1633              		.loc 1 1282 0
 1634 0934 FB68     		ldr	r3, [r7, #12]
 1635              		.loc 1 1281 0
 1636 0936 C0EB0E0E 		rsb	lr, r0, lr
 1637 093a 40F20006 		movw	r6, #:lower16:.LANCHOR5
 1638              		.loc 1 1282 0
 1639 093e 9889     		ldrh	r0, [r3, #12]	@ unaligned
 1640              		.loc 1 1281 0
 1641 0940 A7F808E0 		strh	lr, [r7, #8]	@ movhi
 1642 0944 C0F20006 		movt	r6, #:upper16:.LANCHOR5
 1643              		.loc 1 1282 0
 1644 0948 FFF7FEFF 		bl	lwip_ntohs
 1645              	.LVL148:
 1646              		.loc 1 1283 0
 1647 094c 3189     		ldrh	r1, [r6, #8]
 1648              		.loc 1 1282 0
 1649 094e 8207     		lsls	r2, r0, #30
 1650              		.loc 1 1283 0
 1651 0950 44BF     		itt	mi
 1652 0952 01F1FF31 		addmi	r1, r1, #-1
 1653 0956 89B2     		uxthmi	r1, r1
ARM GAS  /tmp/ccnlRhI2.s 			page 30


 1654              		.loc 1 1285 0
 1655 0958 7868     		ldr	r0, [r7, #4]
 1656              		.loc 1 1283 0
 1657 095a 48BF     		it	mi
 1658 095c 3181     		strhmi	r1, [r6, #8]	@ movhi
 1659              		.loc 1 1285 0
 1660 095e FFF7FEFF 		bl	pbuf_realloc
 1661              	.LVL149:
 1662              		.loc 1 1286 0
 1663 0962 FB68     		ldr	r3, [r7, #12]
 1664 0964 3E89     		ldrh	r6, [r7, #8]
 1665 0966 9889     		ldrh	r0, [r3, #12]	@ unaligned
 1666 0968 FFF7FEFF 		bl	lwip_ntohs
 1667              	.LVL150:
 1668              		.loc 1 1287 0
 1669 096c EB68     		ldr	r3, [r5, #12]
 1670 096e D8F80020 		ldr	r2, [r8]
 1671 0972 5968     		ldr	r1, [r3, #4]	@ unaligned
 1672              		.loc 1 1286 0
 1673 0974 10F00300 		ands	r0, r0, #3
 1674 0978 18BF     		it	ne
 1675 097a 0120     		movne	r0, #1
 1676 097c 3318     		adds	r3, r6, r0
 1677 097e 9BB2     		uxth	r3, r3
 1678              		.loc 1 1287 0
 1679 0980 1A44     		add	r2, r2, r3
 1680              		.loc 1 1286 0
 1681 0982 40F2000A 		movw	r10, #:lower16:.LANCHOR4
 1682              		.loc 1 1287 0
 1683 0986 40F20006 		movw	r6, #:lower16:.LANCHOR0
 1684 098a 8A42     		cmp	r2, r1
 1685              		.loc 1 1286 0
 1686 098c A9F80030 		strh	r3, [r9]	@ movhi
 1687 0990 C0F2000A 		movt	r10, #:upper16:.LANCHOR4
 1688              		.loc 1 1287 0
 1689 0994 C0F20006 		movt	r6, #:upper16:.LANCHOR0
 1690 0998 BDD0     		beq	.L104
 1691              		.loc 1 1287 0 is_stmt 0 discriminator 1
 1692 099a FFF7FEFF 		bl	port_halt
 1693              	.LVL151:
 1694 099e BAF80030 		ldrh	r3, [r10]
 1695 09a2 3268     		ldr	r2, [r6]
 1696 09a4 1A44     		add	r2, r2, r3
 1697 09a6 B6E7     		b	.L104
 1698              	.LVL152:
 1699              	.L225:
 1700              		.loc 1 1373 0 is_stmt 1
 1701 09a8 40F20000 		movw	r0, #:lower16:.LANCHOR5
 1702 09ac C0F20000 		movt	r0, #:upper16:.LANCHOR5
 1703 09b0 FFF7FEFF 		bl	tcp_seg_copy
 1704              	.LVL153:
 1705 09b4 6067     		str	r0, [r4, #116]
 1706 09b6 FFF751BB 		b	.L22
 1707              	.LVL154:
 1708              	.L37:
 1709              		.loc 1 944 0
 1710 09ba 7FF47AAB 		bne	.L55
ARM GAS  /tmp/ccnlRhI2.s 			page 31


 1711              		.loc 1 946 0
 1712 09be 2046     		mov	r0, r4
 1713 09c0 FFF7FEFF 		bl	tcp_rexmit_fast
 1714              	.LVL155:
 1715 09c4 FFF775BB 		b	.L55
 1716              	.LVL156:
 1717              	.L240:
 1718              		.loc 1 1230 0
 1719 09c8 FD68     		ldr	r5, [r7, #12]
 1720 09ca AE89     		ldrh	r6, [r5, #12]	@ unaligned
 1721 09cc 3046     		mov	r0, r6
 1722 09ce FFF7FEFF 		bl	lwip_ntohs
 1723              	.LVL157:
 1724 09d2 00F03E00 		and	r0, r0, #62
 1725 09d6 FFF7FEFF 		bl	lwip_htons
 1726              	.LVL158:
 1727 09da 26F47C56 		bic	r6, r6, #16128
 1728 09de 3043     		orrs	r0, r0, r6
 1729 09e0 A881     		strh	r0, [r5, #12]	@ unaligned
 1730 09e2 65E7     		b	.L86
 1731              	.LVL159:
 1732              	.L125:
 1733              		.loc 1 1403 0
 1734 09e4 6067     		str	r0, [r4, #116]
 1735 09e6 74E4     		b	.L207
 1736              	.LVL160:
 1737              	.L140:
 1738              		.loc 1 1262 0
 1739 09e8 D3F804E0 		ldr	lr, [r3, #4]	@ unaligned
 1740 09ec 3546     		mov	r5, r6
 1741 09ee 1346     		mov	r3, r2
 1742 09f0 9CE7     		b	.L97
 1743              	.LVL161:
 1744              	.L228:
 1745              		.loc 1 1475 0
 1746 09f2 2B68     		ldr	r3, [r5]
 1747 09f4 DE68     		ldr	r6, [r3, #12]
 1748 09f6 B789     		ldrh	r7, [r6, #12]	@ unaligned
 1749 09f8 3846     		mov	r0, r7
 1750 09fa FFF7FEFF 		bl	lwip_ntohs
 1751              	.LVL162:
 1752 09fe 00F03E00 		and	r0, r0, #62
 1753 0a02 FFF7FEFF 		bl	lwip_htons
 1754              	.LVL163:
 1755 0a06 27F47C57 		bic	r7, r7, #16128
 1756 0a0a 3843     		orrs	r0, r0, r7
 1757 0a0c B081     		strh	r0, [r6, #12]	@ unaligned
 1758 0a0e A4E4     		b	.L133
 1759              		.cfi_endproc
 1760              	.LFE12:
 1761              		.size	tcp_receive, .-tcp_receive
 1762              		.section	.text.tcp_parseopt.isra.0,"ax",%progbits
 1763              		.align	2
 1764              		.p2align 4,,15
 1765              		.thumb
 1766              		.thumb_func
 1767              		.type	tcp_parseopt.isra.0, %function
ARM GAS  /tmp/ccnlRhI2.s 			page 32


 1768              	tcp_parseopt.isra.0:
 1769              	.LFB14:
 1770              		.loc 1 1542 0
 1771              		.cfi_startproc
 1772              		@ args = 0, pretend = 0, frame = 0
 1773              		@ frame_needed = 0, uses_anonymous_args = 0
 1774              	.LVL164:
 1775 0000 70B5     		push	{r4, r5, r6, lr}
 1776              		.cfi_def_cfa_offset 16
 1777              		.cfi_offset 4, -16
 1778              		.cfi_offset 5, -12
 1779              		.cfi_offset 6, -8
 1780              		.cfi_offset 14, -4
 1781              		.loc 1 1551 0
 1782 0002 40F20004 		movw	r4, #:lower16:.LANCHOR2
 1783 0006 C0F20004 		movt	r4, #:upper16:.LANCHOR2
 1784              		.loc 1 1542 0
 1785 000a 0646     		mov	r6, r0
 1786              		.loc 1 1551 0
 1787 000c 2568     		ldr	r5, [r4]
 1788              	.LVL165:
 1789              		.loc 1 1554 0
 1790 000e A889     		ldrh	r0, [r5, #12]	@ unaligned
 1791 0010 FFF7FEFF 		bl	lwip_ntohs
 1792              	.LVL166:
 1793 0014 C0F30F30 		ubfx	r0, r0, #12, #16
 1794 0018 0528     		cmp	r0, #5
 1795 001a 00D8     		bhi	.L260
 1796              	.L241:
 1797 001c 70BD     		pop	{r4, r5, r6, pc}
 1798              	.LVL167:
 1799              	.L260:
 1800              		.loc 1 1555 0
 1801 001e 2368     		ldr	r3, [r4]
 1802 0020 9889     		ldrh	r0, [r3, #12]	@ unaligned
 1803 0022 FFF7FEFF 		bl	lwip_ntohs
 1804              	.LVL168:
 1805 0026 000B     		lsrs	r0, r0, #12
 1806 0028 441F     		subs	r4, r0, #5
 1807 002a A400     		lsls	r4, r4, #2
 1808 002c A4B2     		uxth	r4, r4
 1809              	.LVL169:
 1810              		.loc 1 1556 0
 1811 002e 002C     		cmp	r4, #0
 1812 0030 F4D0     		beq	.L241
 1813              		.loc 1 1551 0
 1814 0032 05F11401 		add	r1, r5, #20
 1815              		.loc 1 1556 0
 1816 0036 0023     		movs	r3, #0
 1817              	.LVL170:
 1818              		.loc 1 1558 0
 1819 0038 CA5C     		ldrb	r2, [r1, r3]	@ zero_extendqisi2
 1820 003a 012A     		cmp	r2, #1
 1821 003c 1CD0     		beq	.L246
 1822              	.LVL171:
 1823              	.L262:
 1824 003e EDD3     		bcc	.L241
ARM GAS  /tmp/ccnlRhI2.s 			page 33


 1825 0040 022A     		cmp	r2, #2
 1826 0042 1CD1     		bne	.L261
 1827              		.loc 1 1570 0
 1828 0044 CA18     		adds	r2, r1, r3
 1829 0046 5078     		ldrb	r0, [r2, #1]	@ zero_extendqisi2
 1830 0048 0428     		cmp	r0, #4
 1831 004a E7D1     		bne	.L241
 1832 004c D81C     		adds	r0, r3, #3
 1833 004e A042     		cmp	r0, r4
 1834 0050 E4DA     		bge	.L241
 1835              		.loc 1 1576 0
 1836 0052 9078     		ldrb	r0, [r2, #2]	@ zero_extendqisi2
 1837 0054 D278     		ldrb	r2, [r2, #3]	@ zero_extendqisi2
 1838 0056 42EA0022 		orr	r2, r2, r0, lsl #8
 1839              	.LVL172:
 1840              		.loc 1 1578 0
 1841 005a 501E     		subs	r0, r2, #1
 1842 005c 80B2     		uxth	r0, r0
 1843              		.loc 1 1580 0
 1844 005e 0433     		adds	r3, r3, #4
 1845              		.loc 1 1578 0
 1846 0060 B0F5067F 		cmp	r0, #536
 1847 0064 28BF     		it	cs
 1848 0066 4FF40672 		movcs	r2, #536
 1849              	.LVL173:
 1850              		.loc 1 1580 0
 1851 006a 9BB2     		uxth	r3, r3
 1852              	.LVL174:
 1853              		.loc 1 1578 0
 1854 006c 3280     		strh	r2, [r6]	@ movhi
 1855              	.LVL175:
 1856              	.L248:
 1857              		.loc 1 1556 0
 1858 006e 9C42     		cmp	r4, r3
 1859 0070 D4D9     		bls	.L241
 1860              	.LVL176:
 1861              		.loc 1 1558 0
 1862 0072 CA5C     		ldrb	r2, [r1, r3]	@ zero_extendqisi2
 1863 0074 012A     		cmp	r2, #1
 1864 0076 E2D1     		bne	.L262
 1865              	.LVL177:
 1866              	.L246:
 1867              		.loc 1 1565 0
 1868 0078 0133     		adds	r3, r3, #1
 1869 007a 9BB2     		uxth	r3, r3
 1870              	.LVL178:
 1871 007c F7E7     		b	.L248
 1872              	.LVL179:
 1873              	.L261:
 1874              		.loc 1 1605 0
 1875 007e CA18     		adds	r2, r1, r3
 1876 0080 5278     		ldrb	r2, [r2, #1]	@ zero_extendqisi2
 1877 0082 002A     		cmp	r2, #0
 1878 0084 CAD0     		beq	.L241
 1879              		.loc 1 1613 0
 1880 0086 1344     		add	r3, r3, r2
 1881 0088 9BB2     		uxth	r3, r3
ARM GAS  /tmp/ccnlRhI2.s 			page 34


 1882              	.LVL180:
 1883 008a F0E7     		b	.L248
 1884              		.cfi_endproc
 1885              	.LFE14:
 1886              		.size	tcp_parseopt.isra.0, .-tcp_parseopt.isra.0
 1887 008c AFF30080 		.section	.text.tcp_input,"ax",%progbits
 1888              		.align	2
 1889              		.p2align 4,,15
 1890              		.global	tcp_input
 1891              		.thumb
 1892              		.thumb_func
 1893              		.type	tcp_input, %function
 1894              	tcp_input:
 1895              	.LFB7:
 1896              		.loc 1 93 0
 1897              		.cfi_startproc
 1898              		@ args = 0, pretend = 0, frame = 16
 1899              		@ frame_needed = 0, uses_anonymous_args = 0
 1900              	.LVL181:
 1901 0000 2DE9F04F 		push	{r4, r5, r6, r7, r8, r9, r10, fp, lr}
 1902              		.cfi_def_cfa_offset 36
 1903              		.cfi_offset 4, -36
 1904              		.cfi_offset 5, -32
 1905              		.cfi_offset 6, -28
 1906              		.cfi_offset 7, -24
 1907              		.cfi_offset 8, -20
 1908              		.cfi_offset 9, -16
 1909              		.cfi_offset 10, -12
 1910              		.cfi_offset 11, -8
 1911              		.cfi_offset 14, -4
 1912              		.loc 1 105 0
 1913 0004 40F20004 		movw	r4, #:lower16:lwip_stats
 1914 0008 C0F20004 		movt	r4, #:upper16:lwip_stats
 1915              		.loc 1 108 0
 1916 000c 4268     		ldr	r2, [r0, #4]
 1917              		.loc 1 105 0
 1918 000e B4F89230 		ldrh	r3, [r4, #146]
 1919 0012 0133     		adds	r3, r3, #1
 1920 0014 A4F89230 		strh	r3, [r4, #146]	@ movhi
 1921              		.loc 1 109 0
 1922 0018 1778     		ldrb	r7, [r2]	@ zero_extendqisi2
 1923              		.loc 1 108 0
 1924 001a 40F20003 		movw	r3, #:lower16:.LANCHOR8
 1925              		.loc 1 109 0
 1926 001e 07F00F07 		and	r7, r7, #15
 1927 0022 40F20005 		movw	r5, #:lower16:.LANCHOR2
 1928              		.loc 1 116 0
 1929 0026 4FEA870E 		lsl	lr, r7, #2
 1930              		.loc 1 108 0
 1931 002a C0F20003 		movt	r3, #:upper16:.LANCHOR8
 1932              		.loc 1 109 0
 1933 002e C0F20005 		movt	r5, #:upper16:.LANCHOR2
 1934              		.loc 1 93 0
 1935 0032 87B0     		sub	sp, sp, #28
 1936              		.cfi_def_cfa_offset 64
 1937              		.loc 1 93 0
 1938 0034 8846     		mov	r8, r1
ARM GAS  /tmp/ccnlRhI2.s 			page 35


 1939              		.loc 1 109 0
 1940 0036 02EB8707 		add	r7, r2, r7, lsl #2
 1941              		.loc 1 116 0
 1942 003a CEF10001 		rsb	r1, lr, #0
 1943              	.LVL182:
 1944              		.loc 1 93 0
 1945 003e 0646     		mov	r6, r0
 1946              		.loc 1 108 0
 1947 0040 1A60     		str	r2, [r3]
 1948              		.loc 1 109 0
 1949 0042 2F60     		str	r7, [r5]
 1950              		.loc 1 116 0
 1951 0044 FFF7FEFF 		bl	pbuf_header
 1952              	.LVL183:
 1953 0048 10B9     		cbnz	r0, .L493
 1954              		.loc 1 116 0 is_stmt 0 discriminator 1
 1955 004a 3389     		ldrh	r3, [r6, #8]
 1956 004c 132B     		cmp	r3, #19
 1957 004e 0FD8     		bhi	.L265
 1958              	.L493:
 1959              		.loc 1 151 0 is_stmt 1
 1960 0050 B4F89A30 		ldrh	r3, [r4, #154]
 1961 0054 0133     		adds	r3, r3, #1
 1962 0056 A4F89A30 		strh	r3, [r4, #154]	@ movhi
 1963              	.L266:
 1964              		.loc 1 422 0
 1965 005a B4F89630 		ldrh	r3, [r4, #150]
 1966 005e 0133     		adds	r3, r3, #1
 1967              		.loc 1 424 0
 1968 0060 3046     		mov	r0, r6
 1969              		.loc 1 422 0
 1970 0062 A4F89630 		strh	r3, [r4, #150]	@ movhi
 1971              	.LVL184:
 1972              	.L495:
 1973              		.loc 1 425 0
 1974 0066 07B0     		add	sp, sp, #28
 1975              		@ sp needed
 1976 0068 BDE8F04F 		pop	{r4, r5, r6, r7, r8, r9, r10, fp, lr}
 1977              		.loc 1 424 0
 1978 006c FFF7FEBF 		b	pbuf_free
 1979              	.LVL185:
 1980              	.L265:
 1981              		.loc 1 124 0
 1982 0070 40F20007 		movw	r7, #:lower16:current_iphdr_dest
 1983 0074 C0F20007 		movt	r7, #:upper16:current_iphdr_dest
 1984 0078 4146     		mov	r1, r8
 1985 007a 3868     		ldr	r0, [r7]
 1986 007c FFF7FEFF 		bl	ip4_addr_isbroadcast
 1987              	.LVL186:
 1988 0080 B0B9     		cbnz	r0, .L267
 1989              		.loc 1 125 0 discriminator 1
 1990 0082 3B68     		ldr	r3, [r7]
 1991 0084 03F0F003 		and	r3, r3, #240
 1992              		.loc 1 124 0 discriminator 1
 1993 0088 E02B     		cmp	r3, #224
 1994 008a 11D0     		beq	.L267
 1995              		.loc 1 132 0
ARM GAS  /tmp/ccnlRhI2.s 			page 36


 1996 008c 3389     		ldrh	r3, [r6, #8]
 1997 008e 40F20001 		movw	r1, #:lower16:current_iphdr_src
 1998 0092 0093     		str	r3, [sp]
 1999 0094 C0F20001 		movt	r1, #:upper16:current_iphdr_src
 2000 0098 3046     		mov	r0, r6
 2001 009a 3A46     		mov	r2, r7
 2002 009c 0623     		movs	r3, #6
 2003 009e FFF7FEFF 		bl	inet_chksum_pseudo
 2004              	.LVL187:
 2005 00a2 58B1     		cbz	r0, .L269
 2006              		.loc 1 140 0
 2007 00a4 B4F89830 		ldrh	r3, [r4, #152]
 2008 00a8 0133     		adds	r3, r3, #1
 2009 00aa A4F89830 		strh	r3, [r4, #152]	@ movhi
 2010              		.loc 1 141 0
 2011 00ae D4E7     		b	.L266
 2012              	.L267:
 2013              		.loc 1 126 0
 2014 00b0 B4F8A030 		ldrh	r3, [r4, #160]
 2015 00b4 0133     		adds	r3, r3, #1
 2016 00b6 A4F8A030 		strh	r3, [r4, #160]	@ movhi
 2017              		.loc 1 127 0
 2018 00ba CEE7     		b	.L266
 2019              	.L269:
 2020              		.loc 1 147 0
 2021 00bc 2B68     		ldr	r3, [r5]
 2022 00be 9889     		ldrh	r0, [r3, #12]	@ unaligned
 2023 00c0 FFF7FEFF 		bl	lwip_ntohs
 2024              	.LVL188:
 2025 00c4 000B     		lsrs	r0, r0, #12
 2026              	.LVL189:
 2027              		.loc 1 148 0
 2028 00c6 C0EB8030 		rsb	r0, r0, r0, lsl #14
 2029 00ca 8100     		lsls	r1, r0, #2
 2030 00cc 09B2     		sxth	r1, r1
 2031 00ce 3046     		mov	r0, r6
 2032 00d0 FFF7FEFF 		bl	pbuf_header
 2033              	.LVL190:
 2034 00d4 8146     		mov	r9, r0
 2035 00d6 0028     		cmp	r0, #0
 2036 00d8 BAD1     		bne	.L493
 2037              		.loc 1 156 0
 2038 00da D5F80080 		ldr	r8, [r5]
 2039              	.LVL191:
 2040 00de B8F80000 		ldrh	r0, [r8]	@ unaligned
 2041 00e2 FFF7FEFF 		bl	lwip_ntohs
 2042              	.LVL192:
 2043              		.loc 1 157 0
 2044 00e6 D5F800A0 		ldr	r10, [r5]
 2045              		.loc 1 156 0
 2046 00ea A8F80000 		strh	r0, [r8]	@ unaligned
 2047              		.loc 1 157 0
 2048 00ee BAF80200 		ldrh	r0, [r10, #2]	@ unaligned
 2049 00f2 FFF7FEFF 		bl	lwip_ntohs
 2050              	.LVL193:
 2051              		.loc 1 158 0
 2052 00f6 D5F80080 		ldr	r8, [r5]
ARM GAS  /tmp/ccnlRhI2.s 			page 37


 2053              		.loc 1 157 0
 2054 00fa AAF80200 		strh	r0, [r10, #2]	@ unaligned
 2055              		.loc 1 158 0
 2056 00fe D8F80400 		ldr	r0, [r8, #4]	@ unaligned
 2057 0102 FFF7FEFF 		bl	lwip_ntohl
 2058              	.LVL194:
 2059              		.loc 1 159 0
 2060 0106 D5F800B0 		ldr	fp, [r5]
 2061              		.loc 1 158 0
 2062 010a C8F80400 		str	r0, [r8, #4]	@ unaligned
 2063 010e 40F20001 		movw	r1, #:lower16:.LANCHOR0
 2064 0112 C0F20001 		movt	r1, #:upper16:.LANCHOR0
 2065 0116 0346     		mov	r3, r0
 2066              		.loc 1 159 0
 2067 0118 DBF80800 		ldr	r0, [fp, #8]	@ unaligned
 2068              		.loc 1 158 0
 2069 011c 0B60     		str	r3, [r1]
 2070 011e 0391     		str	r1, [sp, #12]
 2071              		.loc 1 159 0
 2072 0120 FFF7FEFF 		bl	lwip_ntohl
 2073              	.LVL195:
 2074 0124 40F2000A 		movw	r10, #:lower16:.LANCHOR3
 2075              		.loc 1 160 0
 2076 0128 D5F80080 		ldr	r8, [r5]
 2077              		.loc 1 159 0
 2078 012c CBF80800 		str	r0, [fp, #8]	@ unaligned
 2079 0130 C0F2000A 		movt	r10, #:upper16:.LANCHOR3
 2080 0134 0346     		mov	r3, r0
 2081              		.loc 1 160 0
 2082 0136 B8F80E00 		ldrh	r0, [r8, #14]	@ unaligned
 2083              		.loc 1 159 0
 2084 013a CAF80030 		str	r3, [r10]
 2085              		.loc 1 160 0
 2086 013e FFF7FEFF 		bl	lwip_ntohs
 2087              	.LVL196:
 2088              		.loc 1 162 0
 2089 0142 2B68     		ldr	r3, [r5]
 2090              		.loc 1 160 0
 2091 0144 A8F80E00 		strh	r0, [r8, #14]	@ unaligned
 2092              		.loc 1 162 0
 2093 0148 9889     		ldrh	r0, [r3, #12]	@ unaligned
 2094 014a FFF7FEFF 		bl	lwip_ntohs
 2095              	.LVL197:
 2096              		.loc 1 170 0
 2097 014e 40F20002 		movw	r2, #:lower16:tcp_active_pcbs
 2098 0152 C0F20002 		movt	r2, #:upper16:tcp_active_pcbs
 2099 0156 0592     		str	r2, [sp, #20]
 2100 0158 0599     		ldr	r1, [sp, #20]
 2101              		.loc 1 163 0
 2102 015a 3289     		ldrh	r2, [r6, #8]
 2103              		.loc 1 170 0
 2104 015c D1F80080 		ldr	r8, [r1]
 2105              		.loc 1 162 0
 2106 0160 C0B2     		uxtb	r0, r0
 2107              		.loc 1 163 0
 2108 0162 40F20001 		movw	r1, #:lower16:.LANCHOR4
 2109 0166 10F00303 		ands	r3, r0, #3
ARM GAS  /tmp/ccnlRhI2.s 			page 38


 2110 016a C0F20001 		movt	r1, #:upper16:.LANCHOR4
 2111 016e 0491     		str	r1, [sp, #16]
 2112 0170 18BF     		it	ne
 2113 0172 0123     		movne	r3, #1
 2114              		.loc 1 162 0
 2115 0174 40F20001 		movw	r1, #:lower16:.LANCHOR1
 2116 0178 C0F20001 		movt	r1, #:upper16:.LANCHOR1
 2117              		.loc 1 163 0
 2118 017c 1344     		add	r3, r3, r2
 2119 017e 049A     		ldr	r2, [sp, #16]
 2120              		.loc 1 162 0
 2121 0180 0291     		str	r1, [sp, #8]
 2122 0182 00F03F00 		and	r0, r0, #63
 2123              		.loc 1 163 0
 2124 0186 1380     		strh	r3, [r2]	@ movhi
 2125              	.LVL198:
 2126              		.loc 1 162 0
 2127 0188 0870     		strb	r0, [r1]
 2128              		.loc 1 170 0
 2129 018a B8F1000F 		cmp	r8, #0
 2130 018e 00F09A80 		beq	.L271
 2131              		.loc 1 176 0
 2132 0192 40F2000B 		movw	fp, #:lower16:current_iphdr_src
 2133 0196 C0F2000B 		movt	fp, #:upper16:current_iphdr_src
 2134 019a 12E0     		b	.L279
 2135              	.LVL199:
 2136              	.L272:
 2137              		.loc 1 172 0
 2138 019c 0A2B     		cmp	r3, #10
 2139 019e 00F08D80 		beq	.L499
 2140              	.L273:
 2141              		.loc 1 173 0
 2142 01a2 012B     		cmp	r3, #1
 2143 01a4 00F08780 		beq	.L500
 2144              	.L274:
 2145              		.loc 1 174 0
 2146 01a8 2B68     		ldr	r3, [r5]
 2147 01aa B8F81C10 		ldrh	r1, [r8, #28]
 2148 01ae 1A88     		ldrh	r2, [r3]	@ unaligned
 2149 01b0 9142     		cmp	r1, r2
 2150 01b2 0FD0     		beq	.L501
 2151              	.L275:
 2152              	.LVL200:
 2153              		.loc 1 170 0
 2154 01b4 D8F80C30 		ldr	r3, [r8, #12]
 2155              	.LVL201:
 2156 01b8 002B     		cmp	r3, #0
 2157 01ba 00F08480 		beq	.L271
 2158 01be C146     		mov	r9, r8
 2159 01c0 9846     		mov	r8, r3
 2160              	.LVL202:
 2161              	.L279:
 2162              		.loc 1 171 0
 2163 01c2 98F81830 		ldrb	r3, [r8, #24]	@ zero_extendqisi2
 2164 01c6 002B     		cmp	r3, #0
 2165 01c8 E8D1     		bne	.L272
 2166              		.loc 1 171 0 is_stmt 0 discriminator 1
ARM GAS  /tmp/ccnlRhI2.s 			page 39


 2167 01ca FFF7FEFF 		bl	port_halt
 2168              	.LVL203:
 2169 01ce 98F81830 		ldrb	r3, [r8, #24]	@ zero_extendqisi2
 2170 01d2 E3E7     		b	.L272
 2171              	.L501:
 2172              		.loc 1 174 0 is_stmt 1 discriminator 1
 2173 01d4 5B88     		ldrh	r3, [r3, #2]	@ unaligned
 2174 01d6 B8F81A20 		ldrh	r2, [r8, #26]
 2175 01da 9A42     		cmp	r2, r3
 2176 01dc EAD1     		bne	.L275
 2177              		.loc 1 175 0
 2178 01de D8F80420 		ldr	r2, [r8, #4]
 2179 01e2 DBF80030 		ldr	r3, [fp]
 2180 01e6 9A42     		cmp	r2, r3
 2181 01e8 E4D1     		bne	.L275
 2182              		.loc 1 176 0
 2183 01ea D8F80020 		ldr	r2, [r8]
 2184 01ee 3B68     		ldr	r3, [r7]
 2185 01f0 9A42     		cmp	r2, r3
 2186 01f2 DFD1     		bne	.L275
 2187              		.loc 1 182 0
 2188 01f4 D8F80C30 		ldr	r3, [r8, #12]
 2189 01f8 4345     		cmp	r3, r8
 2190 01fa 00F06383 		beq	.L502
 2191              	.L276:
 2192              		.loc 1 183 0
 2193 01fe B9F1000F 		cmp	r9, #0
 2194 0202 08D0     		beq	.L277
 2195              		.loc 1 185 0
 2196 0204 0599     		ldr	r1, [sp, #20]
 2197              		.loc 1 184 0
 2198 0206 C9F80C30 		str	r3, [r9, #12]
 2199              		.loc 1 185 0
 2200 020a 0A68     		ldr	r2, [r1]
 2201              		.loc 1 186 0
 2202 020c C1F80080 		str	r8, [r1]
 2203              		.loc 1 185 0
 2204 0210 C8F80C20 		str	r2, [r8, #12]
 2205 0214 1346     		mov	r3, r2
 2206              	.L277:
 2207              		.loc 1 188 0
 2208 0216 4345     		cmp	r3, r8
 2209 0218 00F06383 		beq	.L503
 2210              	.L278:
 2211              		.loc 1 280 0
 2212 021c 40F2000B 		movw	fp, #:lower16:.LANCHOR5
 2213 0220 C0F2000B 		movt	fp, #:upper16:.LANCHOR5
 2214              		.loc 1 281 0
 2215 0224 3289     		ldrh	r2, [r6, #8]
 2216              		.loc 1 288 0
 2217 0226 0299     		ldr	r1, [sp, #8]
 2218              		.loc 1 283 0
 2219 0228 2B68     		ldr	r3, [r5]
 2220              		.loc 1 281 0
 2221 022a ABF80820 		strh	r2, [fp, #8]	@ movhi
 2222              		.loc 1 285 0
 2223 022e 40F20009 		movw	r9, #:lower16:.LANCHOR6
ARM GAS  /tmp/ccnlRhI2.s 			page 40


 2224              		.loc 1 286 0
 2225 0232 40F20007 		movw	r7, #:lower16:.LANCHOR7
 2226              		.loc 1 288 0
 2227 0236 0A78     		ldrb	r2, [r1]	@ zero_extendqisi2
 2228              		.loc 1 283 0
 2229 0238 CBF80C30 		str	r3, [fp, #12]
 2230              		.loc 1 285 0
 2231 023c C0F20009 		movt	r9, #:upper16:.LANCHOR6
 2232              		.loc 1 286 0
 2233 0240 C0F20007 		movt	r7, #:upper16:.LANCHOR7
 2234              		.loc 1 280 0
 2235 0244 0023     		movs	r3, #0
 2236              		.loc 1 288 0
 2237 0246 1007     		lsls	r0, r2, #28
 2238              		.loc 1 282 0
 2239 0248 CBF80460 		str	r6, [fp, #4]
 2240              		.loc 1 280 0
 2241 024c CBF80030 		str	r3, [fp]
 2242              		.loc 1 285 0
 2243 0250 C9F80030 		str	r3, [r9]
 2244              		.loc 1 286 0
 2245 0254 3B70     		strb	r3, [r7]
 2246              		.loc 1 288 0
 2247 0256 03D5     		bpl	.L370
 2248              		.loc 1 289 0
 2249 0258 737B     		ldrb	r3, [r6, #13]	@ zero_extendqisi2
 2250 025a 43F00103 		orr	r3, r3, #1
 2251 025e 7373     		strb	r3, [r6, #13]
 2252              	.L370:
 2253              		.loc 1 293 0
 2254 0260 D8F87830 		ldr	r3, [r8, #120]
 2255 0264 002B     		cmp	r3, #0
 2256 0266 7ED0     		beq	.L295
 2257              		.loc 1 294 0
 2258 0268 4046     		mov	r0, r8
 2259 026a FFF7FEFF 		bl	tcp_process_refused_data
 2260              	.LVL204:
 2261 026e 0A30     		adds	r0, r0, #10
 2262 0270 07D0     		beq	.L296
 2263              		.loc 1 294 0 is_stmt 0 discriminator 1
 2264 0272 D8F87830 		ldr	r3, [r8, #120]
 2265 0276 002B     		cmp	r3, #0
 2266 0278 75D0     		beq	.L295
 2267              		.loc 1 295 0 is_stmt 1
 2268 027a 0499     		ldr	r1, [sp, #16]
 2269 027c 0B88     		ldrh	r3, [r1]
 2270 027e 002B     		cmp	r3, #0
 2271 0280 71D0     		beq	.L295
 2272              	.L296:
 2273              		.loc 1 298 0
 2274 0282 B4F89630 		ldrh	r3, [r4, #150]
 2275 0286 40F20006 		movw	r6, #:lower16:.LANCHOR9
 2276              	.LVL205:
 2277 028a 0133     		adds	r3, r3, #1
 2278 028c A4F89630 		strh	r3, [r4, #150]	@ movhi
 2279 0290 C0F20006 		movt	r6, #:upper16:.LANCHOR9
 2280              	.L297:
ARM GAS  /tmp/ccnlRhI2.s 			page 41


 2281              		.loc 1 398 0
 2282 0294 DBF80400 		ldr	r0, [fp, #4]
 2283              		.loc 1 394 0
 2284 0298 0025     		movs	r5, #0
 2285              		.loc 1 398 0
 2286 029a 40F20004 		movw	r4, #:lower16:.LANCHOR5
 2287              		.loc 1 394 0
 2288 029e 3560     		str	r5, [r6]
 2289              		.loc 1 395 0
 2290 02a0 C9F80050 		str	r5, [r9]
 2291              		.loc 1 398 0
 2292 02a4 C0F20004 		movt	r4, #:upper16:.LANCHOR5
 2293 02a8 10B1     		cbz	r0, .L263
 2294              		.loc 1 400 0
 2295 02aa FFF7FEFF 		bl	pbuf_free
 2296              	.LVL206:
 2297              		.loc 1 401 0
 2298 02ae 6560     		str	r5, [r4, #4]
 2299              	.L263:
 2300              		.loc 1 425 0
 2301 02b0 07B0     		add	sp, sp, #28
 2302              		@ sp needed
 2303 02b2 BDE8F08F 		pop	{r4, r5, r6, r7, r8, r9, r10, fp, pc}
 2304              	.LVL207:
 2305              	.L500:
 2306              		.loc 1 173 0 discriminator 1
 2307 02b6 FFF7FEFF 		bl	port_halt
 2308              	.LVL208:
 2309 02ba 75E7     		b	.L274
 2310              	.L499:
 2311              		.loc 1 172 0 discriminator 1
 2312 02bc FFF7FEFF 		bl	port_halt
 2313              	.LVL209:
 2314 02c0 98F81830 		ldrb	r3, [r8, #24]	@ zero_extendqisi2
 2315 02c4 6DE7     		b	.L273
 2316              	.LVL210:
 2317              	.L271:
 2318              		.loc 1 197 0
 2319 02c6 40F20003 		movw	r3, #:lower16:tcp_tw_pcbs
 2320 02ca C0F20003 		movt	r3, #:upper16:tcp_tw_pcbs
 2321 02ce D3F80080 		ldr	r8, [r3]
 2322              	.LVL211:
 2323 02d2 B8F1000F 		cmp	r8, #0
 2324 02d6 00F09B80 		beq	.L367
 2325 02da 2346     		mov	r3, r4
 2326              		.loc 1 201 0
 2327 02dc 40F20009 		movw	r9, #:lower16:current_iphdr_src
 2328 02e0 4446     		mov	r4, r8
 2329 02e2 C0F20009 		movt	r9, #:upper16:current_iphdr_src
 2330 02e6 9846     		mov	r8, r3
 2331              	.LVL212:
 2332 02e8 03E0     		b	.L368
 2333              	.L281:
 2334              		.loc 1 197 0
 2335 02ea E468     		ldr	r4, [r4, #12]
 2336              	.LVL213:
 2337 02ec 002C     		cmp	r4, #0
ARM GAS  /tmp/ccnlRhI2.s 			page 42


 2338 02ee 00F08E80 		beq	.L504
 2339              	.L368:
 2340              		.loc 1 198 0
 2341 02f2 237E     		ldrb	r3, [r4, #24]	@ zero_extendqisi2
 2342 02f4 0A2B     		cmp	r3, #10
 2343 02f6 01D0     		beq	.L280
 2344              		.loc 1 198 0 is_stmt 0 discriminator 1
 2345 02f8 FFF7FEFF 		bl	port_halt
 2346              	.LVL214:
 2347              	.L280:
 2348              		.loc 1 199 0 is_stmt 1
 2349 02fc 2B68     		ldr	r3, [r5]
 2350 02fe A28B     		ldrh	r2, [r4, #28]
 2351 0300 1888     		ldrh	r0, [r3]	@ unaligned
 2352 0302 9042     		cmp	r0, r2
 2353 0304 F1D1     		bne	.L281
 2354              		.loc 1 199 0 is_stmt 0 discriminator 1
 2355 0306 B3F802C0 		ldrh	ip, [r3, #2]	@ unaligned
 2356              		.loc 1 200 0 is_stmt 1 discriminator 1
 2357 030a 638B     		ldrh	r3, [r4, #26]
 2358              		.loc 1 199 0 discriminator 1
 2359 030c 9C45     		cmp	ip, r3
 2360 030e ECD1     		bne	.L281
 2361              		.loc 1 200 0
 2362 0310 6268     		ldr	r2, [r4, #4]
 2363 0312 D9F80030 		ldr	r3, [r9]
 2364 0316 9A42     		cmp	r2, r3
 2365 0318 E7D1     		bne	.L281
 2366              		.loc 1 201 0
 2367 031a 2268     		ldr	r2, [r4]
 2368 031c 3B68     		ldr	r3, [r7]
 2369 031e 9A42     		cmp	r2, r3
 2370 0320 E3D1     		bne	.L281
 2371              	.LBB11:
 2372              	.LBB12:
 2373              		.loc 1 536 0
 2374 0322 029A     		ldr	r2, [sp, #8]
 2375 0324 1378     		ldrb	r3, [r2]	@ zero_extendqisi2
 2376 0326 5D07     		lsls	r5, r3, #29
 2377 0328 A046     		mov	r8, r4
 2378              	.LVL215:
 2379 032a 1AD4     		bmi	.L283
 2380              	.LVL216:
 2381              		.loc 1 540 0
 2382 032c 9C07     		lsls	r4, r3, #30
 2383              	.LVL217:
 2384 032e 40F1CE82 		bpl	.L284
 2385              		.loc 1 543 0
 2386 0332 039B     		ldr	r3, [sp, #12]
 2387 0334 1968     		ldr	r1, [r3]
 2388 0336 D8F82830 		ldr	r3, [r8, #40]
 2389 033a CB1A     		subs	r3, r1, r3
 2390 033c 05D4     		bmi	.L285
 2391 033e B8F82C20 		ldrh	r2, [r8, #44]
 2392 0342 9B1A     		subs	r3, r3, r2
 2393 0344 002B     		cmp	r3, #0
 2394 0346 40F3CF82 		ble	.L505
ARM GAS  /tmp/ccnlRhI2.s 			page 43


 2395              	.L285:
 2396              		.loc 1 555 0
 2397 034a 049C     		ldr	r4, [sp, #16]
 2398 034c 2388     		ldrh	r3, [r4]
 2399 034e 43B1     		cbz	r3, .L283
 2400              		.loc 1 557 0
 2401 0350 98F81E30 		ldrb	r3, [r8, #30]	@ zero_extendqisi2
 2402 0354 43F00203 		orr	r3, r3, #2
 2403 0358 88F81E30 		strb	r3, [r8, #30]
 2404              		.loc 1 558 0
 2405 035c 4046     		mov	r0, r8
 2406 035e FFF7FEFF 		bl	tcp_output
 2407              	.LVL218:
 2408              	.L283:
 2409              	.LBE12:
 2410              	.LBE11:
 2411              		.loc 1 208 0
 2412 0362 3046     		mov	r0, r6
 2413 0364 7FE6     		b	.L495
 2414              	.LVL219:
 2415              	.L295:
 2416              	.LBB15:
 2417              	.LBB16:
 2418              		.loc 1 584 0
 2419 0366 029A     		ldr	r2, [sp, #8]
 2420              	.LBE16:
 2421              	.LBE15:
 2422              		.loc 1 303 0
 2423 0368 40F20006 		movw	r6, #:lower16:.LANCHOR9
 2424              	.LVL220:
 2425              	.LBB27:
 2426              	.LBB19:
 2427              		.loc 1 584 0
 2428 036c 1378     		ldrb	r3, [r2]	@ zero_extendqisi2
 2429              	.LBE19:
 2430              	.LBE27:
 2431              		.loc 1 303 0
 2432 036e C0F20006 		movt	r6, #:upper16:.LANCHOR9
 2433              	.LBB28:
 2434              	.LBB20:
 2435              		.loc 1 584 0
 2436 0372 5807     		lsls	r0, r3, #29
 2437              	.LBE20:
 2438              	.LBE28:
 2439              		.loc 1 303 0
 2440 0374 C6F80080 		str	r8, [r6]
 2441              	.LVL221:
 2442              	.LBB29:
 2443              	.LBB21:
 2444              		.loc 1 584 0
 2445 0378 27D5     		bpl	.L298
 2446              	.LVL222:
 2447              		.loc 1 586 0
 2448 037a 98F81820 		ldrb	r2, [r8, #24]	@ zero_extendqisi2
 2449 037e 022A     		cmp	r2, #2
 2450 0380 00F01182 		beq	.L506
 2451              		.loc 1 591 0
ARM GAS  /tmp/ccnlRhI2.s 			page 44


 2452 0384 039B     		ldr	r3, [sp, #12]
 2453 0386 1968     		ldr	r1, [r3]
 2454 0388 D8F82830 		ldr	r3, [r8, #40]
 2455 038c CB1A     		subs	r3, r1, r3
 2456 038e 05D4     		bmi	.L303
 2457 0390 B8F82C00 		ldrh	r0, [r8, #44]
 2458 0394 1B1A     		subs	r3, r3, r0
 2459 0396 002B     		cmp	r3, #0
 2460 0398 40F38083 		ble	.L507
 2461              	.LVL223:
 2462              	.L303:
 2463              	.LBE21:
 2464              	.LBE29:
 2465              		.loc 1 308 0
 2466 039c 3B78     		ldrb	r3, [r7]	@ zero_extendqisi2
 2467 039e 1A07     		lsls	r2, r3, #28
 2468 03a0 24D5     		bpl	.L508
 2469              		.loc 1 313 0
 2470 03a2 D8F88C30 		ldr	r3, [r8, #140]
 2471 03a6 23B1     		cbz	r3, .L350
 2472              		.loc 1 313 0 is_stmt 0 discriminator 1
 2473 03a8 D8F81000 		ldr	r0, [r8, #16]
 2474 03ac 6FF00A01 		mvn	r1, #10
 2475 03b0 9847     		blx	r3
 2476              	.LVL224:
 2477              	.L350:
 2478              		.loc 1 325 0 is_stmt 1
 2479 03b2 40F20000 		movw	r0, #:lower16:tcp_active_pcbs
 2480 03b6 4146     		mov	r1, r8
 2481 03b8 C0F20000 		movt	r0, #:upper16:tcp_active_pcbs
 2482 03bc FFF7FEFF 		bl	tcp_pcb_remove
 2483              	.LVL225:
 2484              		.loc 1 326 0
 2485 03c0 4146     		mov	r1, r8
 2486 03c2 0220     		movs	r0, #2
 2487 03c4 FFF7FEFF 		bl	memp_free
 2488              	.LVL226:
 2489 03c8 64E7     		b	.L297
 2490              	.LVL227:
 2491              	.L298:
 2492              	.LBB30:
 2493              	.LBB22:
 2494              		.loc 1 612 0
 2495 03ca 9907     		lsls	r1, r3, #30
 2496 03cc 40F1C280 		bpl	.L304
 2497 03d0 98F81830 		ldrb	r3, [r8, #24]	@ zero_extendqisi2
 2498 03d4 023B     		subs	r3, r3, #2
 2499 03d6 DBB2     		uxtb	r3, r3
 2500 03d8 012B     		cmp	r3, #1
 2501 03da 40F2BB80 		bls	.L304
 2502              	.LVL228:
 2503              	.L321:
 2504              		.loc 1 674 0
 2505 03de 98F81E30 		ldrb	r3, [r8, #30]	@ zero_extendqisi2
 2506 03e2 43F00203 		orr	r3, r3, #2
 2507 03e6 88F81E30 		strb	r3, [r8, #30]
 2508 03ea D7E7     		b	.L303
ARM GAS  /tmp/ccnlRhI2.s 			page 45


 2509              	.LVL229:
 2510              	.L508:
 2511              	.LBE22:
 2512              	.LBE30:
 2513              		.loc 1 316 0
 2514 03ec DB06     		lsls	r3, r3, #27
 2515 03ee 40F1EC81 		bpl	.L349
 2516              		.loc 1 319 0
 2517 03f2 98F81E30 		ldrb	r3, [r8, #30]	@ zero_extendqisi2
 2518 03f6 DD06     		lsls	r5, r3, #27
 2519 03f8 DBD4     		bmi	.L350
 2520              		.loc 1 323 0
 2521 03fa D8F88C30 		ldr	r3, [r8, #140]
 2522 03fe 002B     		cmp	r3, #0
 2523 0400 D7D0     		beq	.L350
 2524              		.loc 1 323 0 is_stmt 0 discriminator 1
 2525 0402 D8F81000 		ldr	r0, [r8, #16]
 2526 0406 6FF00B01 		mvn	r1, #11
 2527 040a 9847     		blx	r3
 2528              	.LVL230:
 2529 040c D1E7     		b	.L350
 2530              	.LVL231:
 2531              	.L504:
 2532 040e 4446     		mov	r4, r8
 2533              	.LVL232:
 2534              	.L367:
 2535              		.loc 1 216 0 is_stmt 1
 2536 0410 40F20000 		movw	r0, #:lower16:tcp_listen_pcbs
 2537 0414 C0F20000 		movt	r0, #:upper16:tcp_listen_pcbs
 2538 0418 D0F80080 		ldr	r8, [r0]
 2539              	.LVL233:
 2540 041c B8F1000F 		cmp	r8, #0
 2541 0420 00F09481 		beq	.L288
 2542 0424 D5F800B0 		ldr	fp, [r5]
 2543              		.loc 1 228 0
 2544 0428 D7F800C0 		ldr	ip, [r7]
 2545 042c BBF80220 		ldrh	r2, [fp, #2]	@ unaligned
 2546 0430 C146     		mov	r9, r8
 2547              		.loc 1 215 0
 2548 0432 0021     		movs	r1, #0
 2549 0434 06E0     		b	.L291
 2550              	.LVL234:
 2551              	.L289:
 2552              		.loc 1 216 0
 2553 0436 D9F80C30 		ldr	r3, [r9, #12]
 2554              	.LVL235:
 2555 043a 002B     		cmp	r3, #0
 2556 043c 00F08681 		beq	.L288
 2557 0440 4946     		mov	r1, r9
 2558 0442 9946     		mov	r9, r3
 2559              	.LVL236:
 2560              	.L291:
 2561              		.loc 1 217 0
 2562 0444 B9F81A30 		ldrh	r3, [r9, #26]
 2563 0448 9342     		cmp	r3, r2
 2564 044a F4D1     		bne	.L289
 2565              		.loc 1 228 0
ARM GAS  /tmp/ccnlRhI2.s 			page 46


 2566 044c D9F80030 		ldr	r3, [r9]
 2567 0450 6345     		cmp	r3, ip
 2568 0452 01D0     		beq	.L290
 2569              		.loc 1 229 0 discriminator 1
 2570 0454 002B     		cmp	r3, #0
 2571 0456 EED1     		bne	.L289
 2572              	.L290:
 2573              		.loc 1 249 0
 2574 0458 31B1     		cbz	r1, .L372
 2575              		.loc 1 250 0
 2576 045a D9F80C30 		ldr	r3, [r9, #12]
 2577              		.loc 1 254 0
 2578 045e C0F80090 		str	r9, [r0]
 2579              		.loc 1 250 0
 2580 0462 CB60     		str	r3, [r1, #12]
 2581              		.loc 1 252 0
 2582 0464 C9F80C80 		str	r8, [r9, #12]
 2583              	.L372:
 2584              	.LVL237:
 2585              	.LBB31:
 2586              	.LBB32:
 2587              		.loc 1 445 0
 2588 0468 0299     		ldr	r1, [sp, #8]
 2589 046a 0B78     		ldrb	r3, [r1]	@ zero_extendqisi2
 2590 046c 5907     		lsls	r1, r3, #29
 2591 046e 3FF578AF 		bmi	.L283
 2592              		.loc 1 452 0
 2593 0472 03F01001 		and	r1, r3, #16
 2594 0476 01F0FF08 		and	r8, r1, #255
 2595 047a 0029     		cmp	r1, #0
 2596 047c 40F05282 		bne	.L509
 2597              		.loc 1 458 0
 2598 0480 9B07     		lsls	r3, r3, #30
 2599 0482 7FF56EAF 		bpl	.L283
 2600              		.loc 1 466 0
 2601 0486 99F81900 		ldrb	r0, [r9, #25]	@ zero_extendqisi2
 2602 048a FFF7FEFF 		bl	tcp_alloc
 2603              	.LVL238:
 2604              		.loc 1 470 0
 2605 048e 8246     		mov	r10, r0
 2606 0490 0028     		cmp	r0, #0
 2607 0492 00F04182 		beq	.L510
 2608              		.loc 1 484 0
 2609 0496 0399     		ldr	r1, [sp, #12]
 2610              		.loc 1 482 0
 2611 0498 2B68     		ldr	r3, [r5]
 2612              		.loc 1 484 0
 2613 049a 0C68     		ldr	r4, [r1]
 2614              		.loc 1 479 0
 2615 049c 3968     		ldr	r1, [r7]
 2616              		.loc 1 482 0
 2617 049e 93F801C0 		ldrb	ip, [r3, #1]	@ zero_extendqisi2
 2618 04a2 93F800E0 		ldrb	lr, [r3]	@ zero_extendqisi2
 2619              		.loc 1 486 0
 2620 04a6 D889     		ldrh	r0, [r3, #14]	@ unaligned
 2621              	.LVL239:
 2622              		.loc 1 490 0
ARM GAS  /tmp/ccnlRhI2.s 			page 47


 2623 04a8 D9F81020 		ldr	r2, [r9, #16]
 2624              		.loc 1 492 0
 2625 04ac D9F81430 		ldr	r3, [r9, #20]
 2626              		.loc 1 480 0
 2627 04b0 B9F81A50 		ldrh	r5, [r9, #26]
 2628              		.loc 1 479 0
 2629 04b4 CAF80010 		str	r1, [r10]
 2630              		.loc 1 481 0
 2631 04b8 40F20001 		movw	r1, #:lower16:current_iphdr_src
 2632 04bc C0F20001 		movt	r1, #:upper16:current_iphdr_src
 2633              		.loc 1 482 0
 2634 04c0 4EEA0C2E 		orr	lr, lr, ip, lsl #8
 2635              		.loc 1 481 0
 2636 04c4 0968     		ldr	r1, [r1]
 2637              		.loc 1 482 0
 2638 04c6 AAF81CE0 		strh	lr, [r10, #28]	@ movhi
 2639              		.loc 1 484 0
 2640 04ca 671C     		adds	r7, r4, #1
 2641              		.loc 1 483 0
 2642 04cc 4FF0030E 		mov	lr, #3
 2643              		.loc 1 489 0
 2644 04d0 013C     		subs	r4, r4, #1
 2645              		.loc 1 481 0
 2646 04d2 CAF80410 		str	r1, [r10, #4]
 2647              		.loc 1 483 0
 2648 04d6 8AF818E0 		strb	lr, [r10, #24]
 2649              		.loc 1 486 0
 2650 04da AAF86000 		strh	r0, [r10, #96]	@ movhi
 2651              		.loc 1 487 0
 2652 04de AAF86200 		strh	r0, [r10, #98]	@ movhi
 2653              		.loc 1 488 0
 2654 04e2 AAF84E00 		strh	r0, [r10, #78]	@ movhi
 2655              		.loc 1 489 0
 2656 04e6 CAF85440 		str	r4, [r10, #84]
 2657              		.loc 1 492 0
 2658 04ea CAF81430 		str	r3, [r10, #20]
 2659              		.loc 1 498 0
 2660 04ee 059C     		ldr	r4, [sp, #20]
 2661              		.loc 1 480 0
 2662 04f0 AAF81A50 		strh	r5, [r10, #26]	@ movhi
 2663              		.loc 1 484 0
 2664 04f4 CAF82870 		str	r7, [r10, #40]
 2665              		.loc 1 485 0
 2666 04f8 CAF83070 		str	r7, [r10, #48]
 2667              		.loc 1 490 0
 2668 04fc CAF81020 		str	r2, [r10, #16]
 2669              		.loc 1 495 0
 2670 0500 99F80820 		ldrb	r2, [r9, #8]	@ zero_extendqisi2
 2671              		.loc 1 498 0
 2672 0504 2368     		ldr	r3, [r4]
 2673 0506 C4F800A0 		str	r10, [r4]
 2674              		.loc 1 495 0
 2675 050a 22F07302 		bic	r2, r2, #115
 2676 050e 8AF80820 		strb	r2, [r10, #8]
 2677              		.loc 1 498 0
 2678 0512 CAF80C30 		str	r3, [r10, #12]
 2679 0516 FFF7FEFF 		bl	tcp_timer_needed
ARM GAS  /tmp/ccnlRhI2.s 			page 48


 2680              	.LVL240:
 2681 051a 40F20003 		movw	r3, #:lower16:tcp_active_pcbs_changed
 2682 051e C0F20003 		movt	r3, #:upper16:tcp_active_pcbs_changed
 2683 0522 0122     		movs	r2, #1
 2684              		.loc 1 501 0
 2685 0524 0AF13600 		add	r0, r10, #54
 2686              		.loc 1 498 0
 2687 0528 1A70     		strb	r2, [r3]
 2688              		.loc 1 501 0
 2689 052a FFF7FEFF 		bl	tcp_parseopt.isra.0
 2690              	.LVL241:
 2691              		.loc 1 503 0
 2692 052e 0AF10401 		add	r1, r10, #4
 2693 0532 BAF83600 		ldrh	r0, [r10, #54]
 2694 0536 FFF7FEFF 		bl	tcp_eff_send_mss
 2695              	.LVL242:
 2696              		.loc 1 509 0
 2697 053a 1221     		movs	r1, #18
 2698              		.loc 1 503 0
 2699 053c AAF83600 		strh	r0, [r10, #54]	@ movhi
 2700              		.loc 1 509 0
 2701 0540 5046     		mov	r0, r10
 2702 0542 FFF7FEFF 		bl	tcp_enqueue_flags
 2703              	.LVL243:
 2704              		.loc 1 510 0
 2705 0546 0028     		cmp	r0, #0
 2706 0548 40F0E181 		bne	.L511
 2707              		.loc 1 514 0
 2708 054c 5046     		mov	r0, r10
 2709              	.LVL244:
 2710 054e FFF7FEFF 		bl	tcp_output
 2711              	.LVL245:
 2712 0552 06E7     		b	.L283
 2713              	.LVL246:
 2714              	.L304:
 2715              	.LBE32:
 2716              	.LBE31:
 2717              	.LBB34:
 2718              	.LBB23:
 2719              		.loc 1 618 0
 2720 0554 98F81E30 		ldrb	r3, [r8, #30]	@ zero_extendqisi2
 2721 0558 DA06     		lsls	r2, r3, #27
 2722              		.loc 1 620 0
 2723 055a 5CBF     		itt	pl
 2724 055c 40F20003 		movwpl	r3, #:lower16:tcp_ticks
 2725 0560 C0F20003 		movtpl	r3, #:upper16:tcp_ticks
 2726              		.loc 1 624 0
 2727 0564 08F13600 		add	r0, r8, #54
 2728              		.loc 1 620 0
 2729 0568 5CBF     		itt	pl
 2730 056a 1B68     		ldrpl	r3, [r3]
 2731 056c C8F82430 		strpl	r3, [r8, #36]
 2732              		.loc 1 622 0
 2733 0570 0023     		movs	r3, #0
 2734 0572 88F89630 		strb	r3, [r8, #150]
 2735              		.loc 1 624 0
 2736 0576 FFF7FEFF 		bl	tcp_parseopt.isra.0
ARM GAS  /tmp/ccnlRhI2.s 			page 49


 2737              	.LVL247:
 2738              		.loc 1 627 0
 2739 057a 98F81830 		ldrb	r3, [r8, #24]	@ zero_extendqisi2
 2740 057e 023B     		subs	r3, r3, #2
 2741 0580 072B     		cmp	r3, #7
 2742 0582 3FF60BAF 		bhi	.L303
 2743 0586 DFE803F0 		tbb	[pc, r3]
 2744              	.L307:
 2745 058a 86       		.byte	(.L306-.L307)/2
 2746 058b BA       		.byte	(.L308-.L307)/2
 2747 058c A9       		.byte	(.L309-.L307)/2
 2748 058d 6A       		.byte	(.L310-.L307)/2
 2749 058e 42       		.byte	(.L311-.L307)/2
 2750 058f A9       		.byte	(.L309-.L307)/2
 2751 0590 18       		.byte	(.L312-.L307)/2
 2752 0591 04       		.byte	(.L313-.L307)/2
 2753              		.align	1
 2754              	.L313:
 2755              		.loc 1 780 0
 2756 0592 4046     		mov	r0, r8
 2757 0594 FFF7FEFF 		bl	tcp_receive
 2758              	.LVL248:
 2759              		.loc 1 781 0
 2760 0598 029C     		ldr	r4, [sp, #8]
 2761 059a 2378     		ldrb	r3, [r4]	@ zero_extendqisi2
 2762 059c DA06     		lsls	r2, r3, #27
 2763 059e 7FF5FDAE 		bpl	.L303
 2764 05a2 DAF80020 		ldr	r2, [r10]
 2765 05a6 D8F85030 		ldr	r3, [r8, #80]
 2766 05aa 9342     		cmp	r3, r2
 2767 05ac 7FF4F6AE 		bne	.L303
 2768              		.loc 1 784 0
 2769 05b0 3B78     		ldrb	r3, [r7]	@ zero_extendqisi2
 2770 05b2 43F01003 		orr	r3, r3, #16
 2771 05b6 3B70     		strb	r3, [r7]
 2772 05b8 F0E6     		b	.L303
 2773              	.L312:
 2774              		.loc 1 770 0
 2775 05ba 4046     		mov	r0, r8
 2776 05bc FFF7FEFF 		bl	tcp_receive
 2777              	.LVL249:
 2778              		.loc 1 771 0
 2779 05c0 029C     		ldr	r4, [sp, #8]
 2780 05c2 2378     		ldrb	r3, [r4]	@ zero_extendqisi2
 2781 05c4 D906     		lsls	r1, r3, #27
 2782 05c6 7FF5E9AE 		bpl	.L303
 2783 05ca DAF80020 		ldr	r2, [r10]
 2784 05ce D8F85030 		ldr	r3, [r8, #80]
 2785 05d2 9342     		cmp	r3, r2
 2786 05d4 7FF4E2AE 		bne	.L303
 2787              		.loc 1 773 0
 2788 05d8 4046     		mov	r0, r8
 2789 05da FFF7FEFF 		bl	tcp_pcb_purge
 2790              	.LVL250:
 2791              		.loc 1 774 0
 2792 05de 059A     		ldr	r2, [sp, #20]
 2793 05e0 1168     		ldr	r1, [r2]
ARM GAS  /tmp/ccnlRhI2.s 			page 50


 2794 05e2 40F20003 		movw	r3, #:lower16:tcp_active_pcbs
 2795 05e6 4145     		cmp	r1, r8
 2796 05e8 C0F20003 		movt	r3, #:upper16:tcp_active_pcbs
 2797 05ec 00F05281 		beq	.L498
 2798 05f0 40F20003 		movw	r3, #:lower16:tcp_tmp_pcb
 2799 05f4 C0F20003 		movt	r3, #:upper16:tcp_tmp_pcb
 2800 05f8 0A46     		mov	r2, r1
 2801 05fa 1960     		str	r1, [r3]
 2802              	.L345:
 2803 05fc 002A     		cmp	r2, #0
 2804 05fe 00F08682 		beq	.L496
 2805 0602 D168     		ldr	r1, [r2, #12]
 2806 0604 4145     		cmp	r1, r8
 2807 0606 00F07D82 		beq	.L497
 2808 060a 0A46     		mov	r2, r1
 2809 060c F6E7     		b	.L345
 2810              	.L311:
 2811              		.loc 1 759 0
 2812 060e 4046     		mov	r0, r8
 2813 0610 FFF7FEFF 		bl	tcp_receive
 2814              	.LVL251:
 2815              		.loc 1 760 0
 2816 0614 3B78     		ldrb	r3, [r7]	@ zero_extendqisi2
 2817 0616 9806     		lsls	r0, r3, #26
 2818 0618 7FF5C0AE 		bpl	.L303
 2819              		.loc 1 762 0
 2820 061c 98F81E30 		ldrb	r3, [r8, #30]	@ zero_extendqisi2
 2821 0620 43F00203 		orr	r3, r3, #2
 2822 0624 88F81E30 		strb	r3, [r8, #30]
 2823              		.loc 1 763 0
 2824 0628 4046     		mov	r0, r8
 2825 062a FFF7FEFF 		bl	tcp_pcb_purge
 2826              	.LVL252:
 2827              		.loc 1 764 0
 2828 062e 059A     		ldr	r2, [sp, #20]
 2829 0630 1168     		ldr	r1, [r2]
 2830 0632 40F20003 		movw	r3, #:lower16:tcp_active_pcbs
 2831 0636 4145     		cmp	r1, r8
 2832 0638 C0F20003 		movt	r3, #:upper16:tcp_active_pcbs
 2833 063c 00F02A81 		beq	.L498
 2834 0640 40F20003 		movw	r3, #:lower16:tcp_tmp_pcb
 2835 0644 C0F20003 		movt	r3, #:upper16:tcp_tmp_pcb
 2836 0648 0A46     		mov	r2, r1
 2837 064a 1960     		str	r1, [r3]
 2838              	.L340:
 2839 064c 002A     		cmp	r2, #0
 2840 064e 00F05E82 		beq	.L496
 2841 0652 D168     		ldr	r1, [r2, #12]
 2842 0654 4145     		cmp	r1, r8
 2843 0656 00F05582 		beq	.L497
 2844 065a 0A46     		mov	r2, r1
 2845 065c F6E7     		b	.L340
 2846              	.L310:
 2847              		.loc 1 740 0
 2848 065e 4046     		mov	r0, r8
 2849 0660 FFF7FEFF 		bl	tcp_receive
 2850              	.LVL253:
ARM GAS  /tmp/ccnlRhI2.s 			page 51


 2851              		.loc 1 741 0
 2852 0664 3B78     		ldrb	r3, [r7]	@ zero_extendqisi2
 2853 0666 9B06     		lsls	r3, r3, #26
 2854 0668 40F11E82 		bpl	.L331
 2855              		.loc 1 742 0
 2856 066c 029A     		ldr	r2, [sp, #8]
 2857 066e 1378     		ldrb	r3, [r2]	@ zero_extendqisi2
 2858 0670 DD06     		lsls	r5, r3, #27
 2859 0672 06D5     		bpl	.L332
 2860 0674 DAF80020 		ldr	r2, [r10]
 2861 0678 D8F85030 		ldr	r3, [r8, #80]
 2862 067c 9342     		cmp	r3, r2
 2863 067e 00F02382 		beq	.L512
 2864              	.L332:
 2865              		.loc 1 751 0
 2866 0682 98F81E20 		ldrb	r2, [r8, #30]	@ zero_extendqisi2
 2867              		.loc 1 752 0
 2868 0686 0823     		movs	r3, #8
 2869              		.loc 1 751 0
 2870 0688 42F00202 		orr	r2, r2, #2
 2871 068c 88F81E20 		strb	r2, [r8, #30]
 2872              		.loc 1 752 0
 2873 0690 88F81830 		strb	r3, [r8, #24]
 2874 0694 82E6     		b	.L303
 2875              	.L306:
 2876              		.loc 1 632 0
 2877 0696 0299     		ldr	r1, [sp, #8]
 2878 0698 0B78     		ldrb	r3, [r1]	@ zero_extendqisi2
 2879 069a 03F01203 		and	r3, r3, #18
 2880 069e 122B     		cmp	r3, #18
 2881 06a0 00F05681 		beq	.L513
 2882              	.L314:
 2883              		.loc 1 677 0
 2884 06a4 029C     		ldr	r4, [sp, #8]
 2885 06a6 2378     		ldrb	r3, [r4]	@ zero_extendqisi2
 2886 06a8 DB06     		lsls	r3, r3, #27
 2887 06aa 7FF577AE 		bpl	.L303
 2888              		.loc 1 680 0
 2889 06ae 2B68     		ldr	r3, [r5]
 2890              		.loc 1 679 0
 2891 06b0 0499     		ldr	r1, [sp, #16]
 2892 06b2 5A88     		ldrh	r2, [r3, #2]	@ unaligned
 2893 06b4 0398     		ldr	r0, [sp, #12]
 2894 06b6 0C88     		ldrh	r4, [r1]
 2895 06b8 0168     		ldr	r1, [r0]
 2896 06ba 0092     		str	r2, [sp]
 2897 06bc 1B88     		ldrh	r3, [r3]	@ unaligned
 2898 06be DAF80000 		ldr	r0, [r10]
 2899 06c2 0193     		str	r3, [sp, #4]
 2900 06c4 40F20002 		movw	r2, #:lower16:current_iphdr_dest
 2901 06c8 40F20003 		movw	r3, #:lower16:current_iphdr_src
 2902 06cc 2144     		add	r1, r1, r4
 2903 06ce C0F20002 		movt	r2, #:upper16:current_iphdr_dest
 2904 06d2 C0F20003 		movt	r3, #:upper16:current_iphdr_src
 2905 06d6 FFF7FEFF 		bl	tcp_rst
 2906              	.LVL254:
 2907 06da 5FE6     		b	.L303
ARM GAS  /tmp/ccnlRhI2.s 			page 52


 2908              	.L309:
 2909              		.loc 1 733 0
 2910 06dc 4046     		mov	r0, r8
 2911 06de FFF7FEFF 		bl	tcp_receive
 2912              	.LVL255:
 2913              		.loc 1 734 0
 2914 06e2 3B78     		ldrb	r3, [r7]	@ zero_extendqisi2
 2915 06e4 9A06     		lsls	r2, r3, #26
 2916 06e6 7FF559AE 		bpl	.L303
 2917              	.LVL256:
 2918              	.L494:
 2919              		.loc 1 735 0
 2920 06ea 98F81E20 		ldrb	r2, [r8, #30]	@ zero_extendqisi2
 2921              		.loc 1 736 0
 2922 06ee 0723     		movs	r3, #7
 2923              		.loc 1 735 0
 2924 06f0 42F00202 		orr	r2, r2, #2
 2925 06f4 88F81E20 		strb	r2, [r8, #30]
 2926              		.loc 1 736 0
 2927 06f8 88F81830 		strb	r3, [r8, #24]
 2928 06fc 4EE6     		b	.L303
 2929              	.LVL257:
 2930              	.L308:
 2931              		.loc 1 684 0
 2932 06fe 0299     		ldr	r1, [sp, #8]
 2933 0700 0B78     		ldrb	r3, [r1]	@ zero_extendqisi2
 2934 0702 DC06     		lsls	r4, r3, #27
 2935 0704 40F1BB81 		bpl	.L322
 2936              		.loc 1 686 0
 2937 0708 D8F84830 		ldr	r3, [r8, #72]
 2938 070c DAF80000 		ldr	r0, [r10]
 2939 0710 DB43     		mvns	r3, r3
 2940 0712 C342     		cmn	r3, r0
 2941 0714 05D4     		bmi	.L323
 2942 0716 D8F85030 		ldr	r3, [r8, #80]
 2943 071a C31A     		subs	r3, r0, r3
 2944 071c 002B     		cmp	r3, #0
 2945 071e 40F37A81 		ble	.L514
 2946              	.L323:
 2947              		.loc 1 723 0
 2948 0722 2B68     		ldr	r3, [r5]
 2949              		.loc 1 722 0
 2950 0724 049A     		ldr	r2, [sp, #16]
 2951 0726 039C     		ldr	r4, [sp, #12]
 2952 0728 1588     		ldrh	r5, [r2]
 2953 072a 5A88     		ldrh	r2, [r3, #2]	@ unaligned
 2954 072c 2168     		ldr	r1, [r4]
 2955 072e 0092     		str	r2, [sp]
 2956 0730 1C88     		ldrh	r4, [r3]	@ unaligned
 2957 0732 40F20002 		movw	r2, #:lower16:current_iphdr_dest
 2958 0736 40F20003 		movw	r3, #:lower16:current_iphdr_src
 2959 073a 2944     		add	r1, r1, r5
 2960 073c 0194     		str	r4, [sp, #4]
 2961 073e C0F20002 		movt	r2, #:upper16:current_iphdr_dest
 2962 0742 C0F20003 		movt	r3, #:upper16:current_iphdr_src
 2963 0746 FFF7FEFF 		bl	tcp_rst
 2964              	.LVL258:
ARM GAS  /tmp/ccnlRhI2.s 			page 53


 2965 074a 27E6     		b	.L303
 2966              	.LVL259:
 2967              	.L288:
 2968              	.LBE23:
 2969              	.LBE34:
 2970              		.loc 1 408 0
 2971 074c 2B68     		ldr	r3, [r5]
 2972 074e 9889     		ldrh	r0, [r3, #12]	@ unaligned
 2973 0750 FFF7FEFF 		bl	lwip_ntohs
 2974              	.LVL260:
 2975 0754 40F20005 		movw	r5, #:lower16:.LANCHOR2
 2976 0758 4107     		lsls	r1, r0, #29
 2977 075a C0F20005 		movt	r5, #:upper16:.LANCHOR2
 2978 075e 3FF500AE 		bmi	.L283
 2979              		.loc 1 413 0
 2980 0762 2B68     		ldr	r3, [r5]
 2981              		.loc 1 411 0
 2982 0764 0499     		ldr	r1, [sp, #16]
 2983 0766 5A88     		ldrh	r2, [r3, #2]	@ unaligned
 2984 0768 0398     		ldr	r0, [sp, #12]
 2985 076a B1F800E0 		ldrh	lr, [r1]
 2986 076e 0168     		ldr	r1, [r0]
 2987 0770 0092     		str	r2, [sp]
 2988 0772 1B88     		ldrh	r3, [r3]	@ unaligned
 2989              		.loc 1 409 0
 2990 0774 B4F8A070 		ldrh	r7, [r4, #160]
 2991              		.loc 1 410 0
 2992 0778 B4F89650 		ldrh	r5, [r4, #150]
 2993              		.loc 1 411 0
 2994 077c DAF80000 		ldr	r0, [r10]
 2995 0780 0193     		str	r3, [sp, #4]
 2996              		.loc 1 409 0
 2997 0782 0137     		adds	r7, r7, #1
 2998              		.loc 1 410 0
 2999 0784 0135     		adds	r5, r5, #1
 3000              		.loc 1 411 0
 3001 0786 40F20002 		movw	r2, #:lower16:current_iphdr_dest
 3002 078a 40F20003 		movw	r3, #:lower16:current_iphdr_src
 3003 078e 7144     		add	r1, r1, lr
 3004 0790 C0F20002 		movt	r2, #:upper16:current_iphdr_dest
 3005 0794 C0F20003 		movt	r3, #:upper16:current_iphdr_src
 3006              		.loc 1 409 0
 3007 0798 A4F8A070 		strh	r7, [r4, #160]	@ movhi
 3008              		.loc 1 410 0
 3009 079c A4F89650 		strh	r5, [r4, #150]	@ movhi
 3010              		.loc 1 411 0
 3011 07a0 FFF7FEFF 		bl	tcp_rst
 3012              	.LVL261:
 3013 07a4 DDE5     		b	.L283
 3014              	.LVL262:
 3015              	.L506:
 3016              	.LBB35:
 3017              	.LBB24:
 3018              		.loc 1 587 0
 3019 07a6 DAF80020 		ldr	r2, [r10]
 3020 07aa D8F85030 		ldr	r3, [r8, #80]
 3021 07ae 9342     		cmp	r3, r2
ARM GAS  /tmp/ccnlRhI2.s 			page 54


 3022 07b0 7FF4F4AD 		bne	.L303
 3023              	.LVL263:
 3024              	.L300:
 3025              		.loc 1 600 0
 3026 07b4 3A78     		ldrb	r2, [r7]	@ zero_extendqisi2
 3027              		.loc 1 601 0
 3028 07b6 98F81E30 		ldrb	r3, [r8, #30]	@ zero_extendqisi2
 3029              		.loc 1 600 0
 3030 07ba 42F00802 		orr	r2, r2, #8
 3031              		.loc 1 601 0
 3032 07be 23F00103 		bic	r3, r3, #1
 3033              		.loc 1 600 0
 3034 07c2 3A70     		strb	r2, [r7]
 3035              		.loc 1 601 0
 3036 07c4 88F81E30 		strb	r3, [r8, #30]
 3037 07c8 E8E5     		b	.L303
 3038              	.LVL264:
 3039              	.L349:
 3040              	.LBE24:
 3041              	.LBE35:
 3042              		.loc 1 332 0
 3043 07ca B8F86420 		ldrh	r2, [r8, #100]
 3044 07ce 4AB1     		cbz	r2, .L354
 3045              		.loc 1 333 0
 3046 07d0 D8F87C30 		ldr	r3, [r8, #124]
 3047 07d4 33B1     		cbz	r3, .L354
 3048              		.loc 1 333 0 is_stmt 0 discriminator 1
 3049 07d6 D8F81000 		ldr	r0, [r8, #16]
 3050 07da 4146     		mov	r1, r8
 3051 07dc 9847     		blx	r3
 3052              	.LVL265:
 3053              		.loc 1 334 0 is_stmt 1 discriminator 1
 3054 07de 0A30     		adds	r0, r0, #10
 3055              	.LVL266:
 3056 07e0 3FF458AD 		beq	.L297
 3057              	.L354:
 3058              		.loc 1 339 0
 3059 07e4 D9F80030 		ldr	r3, [r9]
 3060 07e8 FBB1     		cbz	r3, .L355
 3061              		.loc 1 340 0
 3062 07ea D8F87830 		ldr	r3, [r8, #120]
 3063 07ee 0BB1     		cbz	r3, .L356
 3064              		.loc 1 340 0 is_stmt 0 discriminator 1
 3065 07f0 FFF7FEFF 		bl	port_halt
 3066              	.LVL267:
 3067              	.L356:
 3068              		.loc 1 341 0 is_stmt 1
 3069 07f4 98F81E20 		ldrb	r2, [r8, #30]	@ zero_extendqisi2
 3070 07f8 02F01002 		and	r2, r2, #16
 3071 07fc 02F0FF03 		and	r3, r2, #255
 3072 0800 002A     		cmp	r2, #0
 3073 0802 3FD1     		bne	.L515
 3074              		.loc 1 350 0
 3075 0804 D8F88040 		ldr	r4, [r8, #128]
 3076 0808 002C     		cmp	r4, #0
 3077 080a 33D0     		beq	.L358
 3078              		.loc 1 350 0 is_stmt 0 discriminator 1
ARM GAS  /tmp/ccnlRhI2.s 			page 55


 3079 080c D8F81000 		ldr	r0, [r8, #16]
 3080 0810 D9F80020 		ldr	r2, [r9]
 3081 0814 4146     		mov	r1, r8
 3082 0816 A047     		blx	r4
 3083              	.LVL268:
 3084              	.L359:
 3085              		.loc 1 351 0 is_stmt 1
 3086 0818 43B2     		sxtb	r3, r0
 3087 081a 0A33     		adds	r3, r3, #10
 3088 081c 3FF43AAD 		beq	.L297
 3089              		.loc 1 356 0
 3090 0820 18B1     		cbz	r0, .L355
 3091              		.loc 1 357 0
 3092 0822 D9F80030 		ldr	r3, [r9]
 3093 0826 C8F87830 		str	r3, [r8, #120]
 3094              	.LVL269:
 3095              	.L355:
 3096              		.loc 1 364 0
 3097 082a 3B78     		ldrb	r3, [r7]	@ zero_extendqisi2
 3098 082c 9C06     		lsls	r4, r3, #26
 3099 082e 06D5     		bpl	.L362
 3100              		.loc 1 365 0
 3101 0830 D8F87830 		ldr	r3, [r8, #120]
 3102 0834 4BB1     		cbz	r3, .L363
 3103              		.loc 1 367 0
 3104 0836 5A7B     		ldrb	r2, [r3, #13]	@ zero_extendqisi2
 3105 0838 42F02002 		orr	r2, r2, #32
 3106 083c 5A73     		strb	r2, [r3, #13]
 3107              	.L362:
 3108              		.loc 1 381 0
 3109 083e 0023     		movs	r3, #0
 3110              		.loc 1 383 0
 3111 0840 4046     		mov	r0, r8
 3112              		.loc 1 381 0
 3113 0842 3360     		str	r3, [r6]
 3114              		.loc 1 383 0
 3115 0844 FFF7FEFF 		bl	tcp_output
 3116              	.LVL270:
 3117 0848 24E5     		b	.L297
 3118              	.L363:
 3119              		.loc 1 371 0
 3120 084a B8F82C30 		ldrh	r3, [r8, #44]
 3121              		.loc 1 374 0
 3122 084e D8F88040 		ldr	r4, [r8, #128]
 3123              		.loc 1 371 0
 3124 0852 B3F5066F 		cmp	r3, #2144
 3125              		.loc 1 372 0
 3126 0856 1CBF     		itt	ne
 3127 0858 0133     		addne	r3, r3, #1
 3128 085a A8F82C30 		strhne	r3, [r8, #44]	@ movhi
 3129              		.loc 1 374 0
 3130 085e 002C     		cmp	r4, #0
 3131 0860 EDD0     		beq	.L362
 3132              		.loc 1 374 0 is_stmt 0 discriminator 1
 3133 0862 0022     		movs	r2, #0
 3134 0864 1346     		mov	r3, r2
 3135 0866 D8F81000 		ldr	r0, [r8, #16]
ARM GAS  /tmp/ccnlRhI2.s 			page 56


 3136 086a 4146     		mov	r1, r8
 3137 086c A047     		blx	r4
 3138              	.LVL271:
 3139              		.loc 1 375 0 is_stmt 1 discriminator 1
 3140 086e 0A30     		adds	r0, r0, #10
 3141              	.LVL272:
 3142 0870 E5D1     		bne	.L362
 3143 0872 0FE5     		b	.L297
 3144              	.L358:
 3145              		.loc 1 350 0 discriminator 2
 3146 0874 2046     		mov	r0, r4
 3147 0876 2346     		mov	r3, r4
 3148 0878 4146     		mov	r1, r8
 3149 087a D9F80020 		ldr	r2, [r9]
 3150 087e FFF7FEFF 		bl	tcp_recv_null
 3151              	.LVL273:
 3152 0882 C9E7     		b	.L359
 3153              	.LVL274:
 3154              	.L515:
 3155              		.loc 1 344 0
 3156 0884 D9F80000 		ldr	r0, [r9]
 3157 0888 FFF7FEFF 		bl	pbuf_free
 3158              	.LVL275:
 3159              	.L492:
 3160              		.loc 1 345 0
 3161 088c 4046     		mov	r0, r8
 3162 088e FFF7FEFF 		bl	tcp_abort
 3163              	.LVL276:
 3164              		.loc 1 346 0
 3165 0892 FFE4     		b	.L297
 3166              	.LVL277:
 3167              	.L498:
 3168              	.LBB36:
 3169              	.LBB25:
 3170              		.loc 1 774 0
 3171 0894 D8F80C20 		ldr	r2, [r8, #12]
 3172 0898 1A60     		str	r2, [r3]
 3173              	.L344:
 3174              		.loc 1 776 0
 3175 089a 40F20003 		movw	r3, #:lower16:tcp_tw_pcbs
 3176 089e C0F20003 		movt	r3, #:upper16:tcp_tw_pcbs
 3177              		.loc 1 774 0
 3178 08a2 40F20002 		movw	r2, #:lower16:tcp_active_pcbs_changed
 3179              		.loc 1 776 0
 3180 08a6 1968     		ldr	r1, [r3]
 3181 08a8 C3F80080 		str	r8, [r3]
 3182              		.loc 1 774 0
 3183 08ac C0F20002 		movt	r2, #:upper16:tcp_active_pcbs_changed
 3184              		.loc 1 775 0
 3185 08b0 0A20     		movs	r0, #10
 3186              		.loc 1 774 0
 3187 08b2 0123     		movs	r3, #1
 3188              		.loc 1 776 0
 3189 08b4 C8F80C10 		str	r1, [r8, #12]
 3190              		.loc 1 775 0
 3191 08b8 88F81800 		strb	r0, [r8, #24]
 3192              		.loc 1 774 0
ARM GAS  /tmp/ccnlRhI2.s 			page 57


 3193 08bc 1370     		strb	r3, [r2]
 3194              		.loc 1 776 0
 3195 08be FFF7FEFF 		bl	tcp_timer_needed
 3196              	.LVL278:
 3197 08c2 6BE5     		b	.L303
 3198              	.LVL279:
 3199              	.L502:
 3200              	.LBE25:
 3201              	.LBE36:
 3202              		.loc 1 182 0 discriminator 1
 3203 08c4 FFF7FEFF 		bl	port_halt
 3204              	.LVL280:
 3205 08c8 D8F80C30 		ldr	r3, [r8, #12]
 3206 08cc 97E4     		b	.L276
 3207              	.LVL281:
 3208              	.L284:
 3209              	.LBB37:
 3210              	.LBB13:
 3211              		.loc 1 549 0
 3212 08ce D807     		lsls	r0, r3, #31
 3213              		.loc 1 552 0
 3214 08d0 41BF     		itttt	mi
 3215 08d2 40F20003 		movwmi	r3, #:lower16:tcp_ticks
 3216 08d6 C0F20003 		movtmi	r3, #:upper16:tcp_ticks
 3217 08da 1B68     		ldrmi	r3, [r3]
 3218 08dc C8F82430 		strmi	r3, [r8, #36]
 3219 08e0 33E5     		b	.L285
 3220              	.LVL282:
 3221              	.L503:
 3222              	.LBE13:
 3223              	.LBE37:
 3224              		.loc 1 188 0 discriminator 1
 3225 08e2 FFF7FEFF 		bl	port_halt
 3226              	.LVL283:
 3227 08e6 99E4     		b	.L278
 3228              	.LVL284:
 3229              	.L505:
 3230              	.LBB38:
 3231              	.LBB14:
 3232              		.loc 1 545 0
 3233 08e8 049A     		ldr	r2, [sp, #16]
 3234 08ea 1488     		ldrh	r4, [r2]
 3235 08ec CDF800C0 		str	ip, [sp]
 3236 08f0 0190     		str	r0, [sp, #4]
 3237 08f2 40F20002 		movw	r2, #:lower16:current_iphdr_dest
 3238 08f6 40F20003 		movw	r3, #:lower16:current_iphdr_src
 3239 08fa 2144     		add	r1, r1, r4
 3240 08fc DAF80000 		ldr	r0, [r10]
 3241 0900 C0F20002 		movt	r2, #:upper16:current_iphdr_dest
 3242 0904 C0F20003 		movt	r3, #:upper16:current_iphdr_src
 3243 0908 FFF7FEFF 		bl	tcp_rst
 3244              	.LVL285:
 3245 090c 29E5     		b	.L283
 3246              	.LVL286:
 3247              	.L511:
 3248              	.LBE14:
 3249              	.LBE38:
ARM GAS  /tmp/ccnlRhI2.s 			page 58


 3250              	.LBB39:
 3251              	.LBB33:
 3252              		.loc 1 511 0
 3253 090e 5046     		mov	r0, r10
 3254              	.LVL287:
 3255 0910 4146     		mov	r1, r8
 3256 0912 FFF7FEFF 		bl	tcp_abandon
 3257              	.LVL288:
 3258 0916 24E5     		b	.L283
 3259              	.LVL289:
 3260              	.L510:
 3261              		.loc 1 472 0
 3262 0918 B4F89C30 		ldrh	r3, [r4, #156]
 3263 091c 0133     		adds	r3, r3, #1
 3264 091e A4F89C30 		strh	r3, [r4, #156]	@ movhi
 3265 0922 1EE5     		b	.L283
 3266              	.LVL290:
 3267              	.L509:
 3268              		.loc 1 456 0
 3269 0924 0092     		str	r2, [sp]
 3270 0926 039C     		ldr	r4, [sp, #12]
 3271 0928 049A     		ldr	r2, [sp, #16]
 3272 092a BBF80030 		ldrh	r3, [fp]	@ unaligned
 3273 092e 1088     		ldrh	r0, [r2]
 3274 0930 2168     		ldr	r1, [r4]
 3275 0932 0193     		str	r3, [sp, #4]
 3276 0934 40F20002 		movw	r2, #:lower16:current_iphdr_dest
 3277 0938 40F20003 		movw	r3, #:lower16:current_iphdr_src
 3278 093c 0144     		add	r1, r1, r0
 3279 093e C0F20002 		movt	r2, #:upper16:current_iphdr_dest
 3280 0942 DAF80000 		ldr	r0, [r10]
 3281 0946 C0F20003 		movt	r3, #:upper16:current_iphdr_src
 3282 094a FFF7FEFF 		bl	tcp_rst
 3283              	.LVL291:
 3284 094e 08E5     		b	.L283
 3285              	.LVL292:
 3286              	.L513:
 3287              	.LBE33:
 3288              	.LBE39:
 3289              	.LBB40:
 3290              	.LBB26:
 3291              		.loc 1 633 0
 3292 0950 D8F87030 		ldr	r3, [r8, #112]
 3293 0954 DB68     		ldr	r3, [r3, #12]
 3294 0956 5868     		ldr	r0, [r3, #4]	@ unaligned
 3295 0958 FFF7FEFF 		bl	lwip_ntohl
 3296              	.LVL293:
 3297 095c DAF80030 		ldr	r3, [r10]
 3298 0960 0130     		adds	r0, r0, #1
 3299 0962 9842     		cmp	r0, r3
 3300 0964 7FF49EAE 		bne	.L314
 3301              		.loc 1 635 0
 3302 0968 039A     		ldr	r2, [sp, #12]
 3303              		.loc 1 638 0
 3304 096a 2B68     		ldr	r3, [r5]
 3305              		.loc 1 635 0
 3306 096c 1168     		ldr	r1, [r2]
ARM GAS  /tmp/ccnlRhI2.s 			page 59


 3307              		.loc 1 634 0
 3308 096e B8F86640 		ldrh	r4, [r8, #102]
 3309              		.loc 1 638 0
 3310 0972 DA89     		ldrh	r2, [r3, #14]	@ unaligned
 3311              		.loc 1 637 0
 3312 0974 C8F84800 		str	r0, [r8, #72]
 3313              		.loc 1 635 0
 3314 0978 4B1C     		adds	r3, r1, #1
 3315              		.loc 1 641 0
 3316 097a 0420     		movs	r0, #4
 3317              		.loc 1 640 0
 3318 097c 0139     		subs	r1, r1, #1
 3319              		.loc 1 634 0
 3320 097e 0134     		adds	r4, r4, #1
 3321              		.loc 1 638 0
 3322 0980 A8F86020 		strh	r2, [r8, #96]	@ movhi
 3323              		.loc 1 639 0
 3324 0984 A8F86220 		strh	r2, [r8, #98]	@ movhi
 3325              		.loc 1 635 0
 3326 0988 C8F82830 		str	r3, [r8, #40]
 3327              		.loc 1 636 0
 3328 098c C8F83030 		str	r3, [r8, #48]
 3329              		.loc 1 640 0
 3330 0990 C8F85410 		str	r1, [r8, #84]
 3331              		.loc 1 641 0
 3332 0994 88F81800 		strb	r0, [r8, #24]
 3333              		.loc 1 634 0
 3334 0998 A8F86640 		strh	r4, [r8, #102]	@ movhi
 3335              		.loc 1 644 0
 3336 099c B8F83600 		ldrh	r0, [r8, #54]
 3337 09a0 08F10401 		add	r1, r8, #4
 3338 09a4 FFF7FEFF 		bl	tcp_eff_send_mss
 3339              	.LVL294:
 3340              		.loc 1 651 0
 3341 09a8 B8F84C30 		ldrh	r3, [r8, #76]
 3342              		.loc 1 644 0
 3343 09ac A8F83600 		strh	r0, [r8, #54]	@ movhi
 3344              		.loc 1 651 0
 3345 09b0 012B     		cmp	r3, #1
 3346              		.loc 1 649 0
 3347 09b2 4FF00A02 		mov	r2, #10
 3348 09b6 02FB00F2 		mul	r2, r2, r0
 3349              		.loc 1 652 0
 3350 09ba B8F86830 		ldrh	r3, [r8, #104]
 3351              		.loc 1 649 0
 3352 09be A8F84E20 		strh	r2, [r8, #78]	@ movhi
 3353              		.loc 1 651 0
 3354 09c2 04BF     		itt	eq
 3355 09c4 4000     		lsleq	r0, r0, #1
 3356 09c6 80B2     		uxtheq	r0, r0
 3357 09c8 A8F84C00 		strh	r0, [r8, #76]	@ movhi
 3358              		.loc 1 652 0
 3359 09cc 0BB9     		cbnz	r3, .L316
 3360 09ce FFF7FEFF 		bl	port_halt
 3361              	.LVL295:
 3362              	.L316:
 3363              		.loc 1 655 0
ARM GAS  /tmp/ccnlRhI2.s 			page 60


 3364 09d2 D8F87000 		ldr	r0, [r8, #112]
 3365              	.LVL296:
 3366              		.loc 1 653 0
 3367 09d6 B8F86820 		ldrh	r2, [r8, #104]
 3368              		.loc 1 656 0
 3369 09da 0368     		ldr	r3, [r0]
 3370              		.loc 1 653 0
 3371 09dc 013A     		subs	r2, r2, #1
 3372              		.loc 1 656 0
 3373 09de C8F87030 		str	r3, [r8, #112]
 3374              		.loc 1 653 0
 3375 09e2 A8F86820 		strh	r2, [r8, #104]	@ movhi
 3376              		.loc 1 657 0
 3377 09e6 FFF7FEFF 		bl	tcp_seg_free
 3378              	.LVL297:
 3379              		.loc 1 661 0
 3380 09ea D8F87030 		ldr	r3, [r8, #112]
 3381 09ee 13B3     		cbz	r3, .L516
 3382              		.loc 1 664 0
 3383 09f0 0023     		movs	r3, #0
 3384 09f2 A8F83430 		strh	r3, [r8, #52]	@ movhi
 3385              		.loc 1 665 0
 3386 09f6 88F84630 		strb	r3, [r8, #70]
 3387              	.L318:
 3388              		.loc 1 670 0
 3389 09fa D8F88430 		ldr	r3, [r8, #132]
 3390 09fe 002B     		cmp	r3, #0
 3391 0a00 3FF4EDAC 		beq	.L321
 3392 0a04 D8F81000 		ldr	r0, [r8, #16]
 3393 0a08 4146     		mov	r1, r8
 3394 0a0a 0022     		movs	r2, #0
 3395 0a0c 9847     		blx	r3
 3396              	.LVL298:
 3397              		.loc 1 671 0
 3398 0a0e 0A30     		adds	r0, r0, #10
 3399              	.LVL299:
 3400 0a10 7FF4E5AC 		bne	.L321
 3401 0a14 3EE4     		b	.L297
 3402              	.LVL300:
 3403              	.L514:
 3404              	.LBB17:
 3405              		.loc 1 691 0
 3406 0a16 D8F81430 		ldr	r3, [r8, #20]
 3407              		.loc 1 688 0
 3408 0a1a 0422     		movs	r2, #4
 3409 0a1c 88F81820 		strb	r2, [r8, #24]
 3410              		.loc 1 691 0
 3411 0a20 33B3     		cbz	r3, .L517
 3412              	.L324:
 3413              		.loc 1 694 0
 3414 0a22 D8F81000 		ldr	r0, [r8, #16]
 3415 0a26 4146     		mov	r1, r8
 3416 0a28 0022     		movs	r2, #0
 3417 0a2a 9847     		blx	r3
 3418              	.LVL301:
 3419              		.loc 1 695 0
 3420 0a2c 40B1     		cbz	r0, .L326
ARM GAS  /tmp/ccnlRhI2.s 			page 61


 3421              		.loc 1 699 0
 3422 0a2e 0A30     		adds	r0, r0, #10
 3423              	.LVL302:
 3424 0a30 7FF42CAF 		bne	.L492
 3425 0a34 2EE4     		b	.L297
 3426              	.LVL303:
 3427              	.L516:
 3428              	.LBE17:
 3429              		.loc 1 662 0
 3430 0a36 4FF6FF73 		movw	r3, #65535
 3431 0a3a A8F83430 		strh	r3, [r8, #52]	@ movhi
 3432 0a3e DCE7     		b	.L318
 3433              	.LVL304:
 3434              	.L326:
 3435              	.LBB18:
 3436              		.loc 1 707 0
 3437 0a40 4046     		mov	r0, r8
 3438              	.LVL305:
 3439              		.loc 1 704 0
 3440 0a42 B8F84C40 		ldrh	r4, [r8, #76]
 3441              	.LVL306:
 3442              		.loc 1 707 0
 3443 0a46 FFF7FEFF 		bl	tcp_receive
 3444              	.LVL307:
 3445              		.loc 1 710 0
 3446 0a4a B8F86430 		ldrh	r3, [r8, #100]
 3447 0a4e 13B1     		cbz	r3, .L328
 3448              		.loc 1 711 0
 3449 0a50 013B     		subs	r3, r3, #1
 3450 0a52 A8F86430 		strh	r3, [r8, #100]	@ movhi
 3451              	.L328:
 3452              		.loc 1 714 0
 3453 0a56 B8F83630 		ldrh	r3, [r8, #54]
 3454              		.loc 1 716 0
 3455 0a5a 3A78     		ldrb	r2, [r7]	@ zero_extendqisi2
 3456              		.loc 1 714 0
 3457 0a5c 012C     		cmp	r4, #1
 3458 0a5e 04BF     		itt	eq
 3459 0a60 5B00     		lsleq	r3, r3, #1
 3460 0a62 9BB2     		uxtheq	r3, r3
 3461              		.loc 1 716 0
 3462 0a64 9006     		lsls	r0, r2, #26
 3463              		.loc 1 714 0
 3464 0a66 A8F84C30 		strh	r3, [r8, #76]	@ movhi
 3465              		.loc 1 716 0
 3466 0a6a 7FF597AC 		bpl	.L303
 3467 0a6e 3CE6     		b	.L494
 3468              	.LVL308:
 3469              	.L517:
 3470              		.loc 1 691 0
 3471 0a70 FFF7FEFF 		bl	port_halt
 3472              	.LVL309:
 3473              		.loc 1 694 0
 3474 0a74 D8F81430 		ldr	r3, [r8, #20]
 3475 0a78 002B     		cmp	r3, #0
 3476 0a7a D2D1     		bne	.L324
 3477 0a7c 06E7     		b	.L492
ARM GAS  /tmp/ccnlRhI2.s 			page 62


 3478              	.L322:
 3479              	.LBE18:
 3480              		.loc 1 725 0
 3481 0a7e 9907     		lsls	r1, r3, #30
 3482 0a80 7FF58CAC 		bpl	.L303
 3483 0a84 0399     		ldr	r1, [sp, #12]
 3484 0a86 D8F82830 		ldr	r3, [r8, #40]
 3485 0a8a 0A68     		ldr	r2, [r1]
 3486 0a8c 013B     		subs	r3, r3, #1
 3487 0a8e 9342     		cmp	r3, r2
 3488 0a90 7FF484AC 		bne	.L303
 3489              		.loc 1 727 0
 3490 0a94 4046     		mov	r0, r8
 3491 0a96 FFF7FEFF 		bl	tcp_rexmit
 3492              	.LVL310:
 3493 0a9a 7FE4     		b	.L303
 3494              	.L507:
 3495              	.LVL311:
 3496              		.loc 1 599 0
 3497 0a9c 002A     		cmp	r2, #0
 3498 0a9e 7FF489AE 		bne	.L300
 3499 0aa2 FFF7FEFF 		bl	port_halt
 3500              	.LVL312:
 3501 0aa6 85E6     		b	.L300
 3502              	.LVL313:
 3503              	.L331:
 3504              		.loc 1 754 0
 3505 0aa8 029C     		ldr	r4, [sp, #8]
 3506 0aaa 2378     		ldrb	r3, [r4]	@ zero_extendqisi2
 3507 0aac DC06     		lsls	r4, r3, #27
 3508 0aae 7FF575AC 		bpl	.L303
 3509 0ab2 DAF80020 		ldr	r2, [r10]
 3510 0ab6 D8F85030 		ldr	r3, [r8, #80]
 3511 0aba 9342     		cmp	r3, r2
 3512 0abc 7FF46EAC 		bne	.L303
 3513              		.loc 1 755 0
 3514 0ac0 0623     		movs	r3, #6
 3515 0ac2 88F81830 		strb	r3, [r8, #24]
 3516 0ac6 69E4     		b	.L303
 3517              	.L512:
 3518              		.loc 1 745 0
 3519 0ac8 98F81E30 		ldrb	r3, [r8, #30]	@ zero_extendqisi2
 3520 0acc 43F00203 		orr	r3, r3, #2
 3521 0ad0 88F81E30 		strb	r3, [r8, #30]
 3522              		.loc 1 746 0
 3523 0ad4 4046     		mov	r0, r8
 3524 0ad6 FFF7FEFF 		bl	tcp_pcb_purge
 3525              	.LVL314:
 3526              		.loc 1 747 0
 3527 0ada 059B     		ldr	r3, [sp, #20]
 3528 0adc 1968     		ldr	r1, [r3]
 3529 0ade 40F20003 		movw	r3, #:lower16:tcp_active_pcbs
 3530 0ae2 4145     		cmp	r1, r8
 3531 0ae4 C0F20003 		movt	r3, #:upper16:tcp_active_pcbs
 3532 0ae8 3FF4D4AE 		beq	.L498
 3533 0aec 40F20003 		movw	r3, #:lower16:tcp_tmp_pcb
 3534 0af0 C0F20003 		movt	r3, #:upper16:tcp_tmp_pcb
ARM GAS  /tmp/ccnlRhI2.s 			page 63


 3535 0af4 0A46     		mov	r2, r1
 3536 0af6 1960     		str	r1, [r3]
 3537              	.L335:
 3538 0af8 4AB1     		cbz	r2, .L496
 3539 0afa D168     		ldr	r1, [r2, #12]
 3540 0afc 4145     		cmp	r1, r8
 3541 0afe 01D0     		beq	.L497
 3542 0b00 0A46     		mov	r2, r1
 3543 0b02 F9E7     		b	.L335
 3544              	.L497:
 3545              		.loc 1 774 0
 3546 0b04 D8F80C10 		ldr	r1, [r8, #12]
 3547 0b08 1A60     		str	r2, [r3]
 3548 0b0a D160     		str	r1, [r2, #12]
 3549 0b0c C5E6     		b	.L344
 3550              	.L496:
 3551 0b0e 1A60     		str	r2, [r3]
 3552 0b10 C3E6     		b	.L344
 3553              	.LBE26:
 3554              	.LBE40:
 3555              		.cfi_endproc
 3556              	.LFE7:
 3557              		.size	tcp_input, .-tcp_input
 3558              		.global	tcp_input_pcb
 3559 0b12 00BFAFF3 		.section	.bss.seqno,"aw",%nobits
 3559      0080AFF3 
 3559      0080AFF3 
 3559      0080
 3560              		.align	2
 3561              		.set	.LANCHOR0,. + 0
 3562              		.type	seqno, %object
 3563              		.size	seqno, 4
 3564              	seqno:
 3565 0000 00000000 		.space	4
 3566              		.section	.bss.iphdr,"aw",%nobits
 3567              		.align	2
 3568              		.set	.LANCHOR8,. + 0
 3569              		.type	iphdr, %object
 3570              		.size	iphdr, 4
 3571              	iphdr:
 3572 0000 00000000 		.space	4
 3573              		.section	.bss.tcplen,"aw",%nobits
 3574              		.align	1
 3575              		.set	.LANCHOR4,. + 0
 3576              		.type	tcplen, %object
 3577              		.size	tcplen, 2
 3578              	tcplen:
 3579 0000 0000     		.space	2
 3580              		.section	.bss.ackno,"aw",%nobits
 3581              		.align	2
 3582              		.set	.LANCHOR3,. + 0
 3583              		.type	ackno, %object
 3584              		.size	ackno, 4
 3585              	ackno:
 3586 0000 00000000 		.space	4
 3587              		.section	.bss.flags,"aw",%nobits
 3588              		.set	.LANCHOR1,. + 0
ARM GAS  /tmp/ccnlRhI2.s 			page 64


 3589              		.type	flags, %object
 3590              		.size	flags, 1
 3591              	flags:
 3592 0000 00       		.space	1
 3593              		.section	.bss.recv_flags,"aw",%nobits
 3594              		.set	.LANCHOR7,. + 0
 3595              		.type	recv_flags, %object
 3596              		.size	recv_flags, 1
 3597              	recv_flags:
 3598 0000 00       		.space	1
 3599              		.section	.bss.tcphdr,"aw",%nobits
 3600              		.align	2
 3601              		.set	.LANCHOR2,. + 0
 3602              		.type	tcphdr, %object
 3603              		.size	tcphdr, 4
 3604              	tcphdr:
 3605 0000 00000000 		.space	4
 3606              		.section	.bss.recv_data,"aw",%nobits
 3607              		.align	2
 3608              		.set	.LANCHOR6,. + 0
 3609              		.type	recv_data, %object
 3610              		.size	recv_data, 4
 3611              	recv_data:
 3612 0000 00000000 		.space	4
 3613              		.section	.bss.inseg,"aw",%nobits
 3614              		.align	2
 3615              		.set	.LANCHOR5,. + 0
 3616              		.type	inseg, %object
 3617              		.size	inseg, 16
 3618              	inseg:
 3619 0000 00000000 		.space	16
 3619      00000000 
 3619      00000000 
 3619      00000000 
 3620              		.section	.bss.tcp_input_pcb,"aw",%nobits
 3621              		.align	2
 3622              		.set	.LANCHOR9,. + 0
 3623              		.type	tcp_input_pcb, %object
 3624              		.size	tcp_input_pcb, 4
 3625              	tcp_input_pcb:
 3626 0000 00000000 		.space	4
 3627              		.text
 3628              	.Letext0:
 3629              		.file 2 "/usr/include/newlib/machine/_default_types.h"
 3630              		.file 3 "/usr/include/newlib/stdint.h"
 3631              		.file 4 "../../os/various/lwip_bindings/arch/cc.h"
 3632              		.file 5 "../../ext/lwip/src/include/lwip/mem.h"
 3633              		.file 6 "../../ext/lwip/src/include/lwip/err.h"
 3634              		.file 7 "../../ext/lwip/src/include/lwip/pbuf.h"
 3635              		.file 8 "../../ext/lwip/src/include/ipv4/lwip/ip_addr.h"
 3636              		.file 9 "../../ext/lwip/src/include/lwip/netif.h"
 3637              		.file 10 "../../ext/lwip/src/include/ipv4/lwip/ip.h"
 3638              		.file 11 "../../ext/lwip/src/include/lwip/tcp.h"
 3639              		.file 12 "../../ext/lwip/src/include/lwip/tcp_impl.h"
 3640              		.file 13 "../../ext/lwip/src/include/lwip/memp.h"
 3641              		.file 14 "../../ext/lwip/src/include/lwip/stats.h"
 3642              		.file 15 "../../ext/lwip/src/include/lwip/def.h"
ARM GAS  /tmp/ccnlRhI2.s 			page 65


 3643              		.file 16 "../../os/ports/GCC/ARMCMx/chcore_v7m.h"
 3644              		.file 17 "../../ext/lwip/src/include/ipv4/lwip/inet_chksum.h"