ARM GAS  /tmp/ccAMfTfz.s 			page 1


   1              		.syntax unified
   2              		.cpu cortex-m4
   3              		.fpu softvfp
   4              		.eabi_attribute 20, 1
   5              		.eabi_attribute 21, 1
   6              		.eabi_attribute 23, 3
   7              		.eabi_attribute 24, 1
   8              		.eabi_attribute 25, 1
   9              		.eabi_attribute 26, 1
  10              		.eabi_attribute 30, 2
  11              		.eabi_attribute 34, 1
  12              		.eabi_attribute 18, 4
  13              		.thumb
  14              		.file	"tcp_out.c"
  15              		.text
  16              	.Ltext0:
  17              		.cfi_sections	.debug_frame
  18              		.section	.text.tcp_pbuf_prealloc,"ax",%progbits
  19              		.align	2
  20              		.p2align 4,,15
  21              		.thumb
  22              		.thumb_func
  23              		.type	tcp_pbuf_prealloc, %function
  24              	tcp_pbuf_prealloc:
  25              	.LFB10:
  26              		.file 1 "../../ext/lwip/src/core/tcp_out.c"
  27              		.loc 1 222 0
  28              		.cfi_startproc
  29              		@ args = 12, pretend = 0, frame = 0
  30              		@ frame_needed = 0, uses_anonymous_args = 0
  31              	.LVL0:
  32 0000 70B5     		push	{r4, r5, r6, lr}
  33              		.cfi_def_cfa_offset 16
  34              		.cfi_offset 4, -16
  35              		.cfi_offset 5, -12
  36              		.cfi_offset 6, -8
  37              		.cfi_offset 14, -4
  38              		.loc 1 222 0
  39 0002 0D46     		mov	r5, r1
  40              	.LVL1:
  41              		.loc 1 234 0
  42 0004 9542     		cmp	r5, r2
  43              		.loc 1 222 0
  44 0006 1E46     		mov	r6, r3
  45 0008 9DF81810 		ldrb	r1, [sp, #24]	@ zero_extendqisi2
  46              	.LVL2:
  47 000c 9DF81430 		ldrb	r3, [sp, #20]	@ zero_extendqisi2
  48              	.LVL3:
  49              		.loc 1 234 0
  50 0010 0ED2     		bcs	.L8
  51              		.loc 1 246 0
  52 0012 9C07     		lsls	r4, r3, #30
  53 0014 08D5     		bpl	.L18
  54              	.L3:
  55              		.loc 1 251 0
  56 0016 05F21B21 		addw	r1, r5, #539
  57 001a 21F00301 		bic	r1, r1, #3
ARM GAS  /tmp/ccAMfTfz.s 			page 2


  58 001e 9142     		cmp	r1, r2
  59 0020 B8BF     		it	lt
  60 0022 0A46     		movlt	r2, r1
  61              	.LVL4:
  62 0024 91B2     		uxth	r1, r2
  63              	.LVL5:
  64 0026 04E0     		b	.L2
  65              	.LVL6:
  66              	.L18:
  67              		.loc 1 247 0 discriminator 1
  68 0028 049C     		ldr	r4, [sp, #16]
  69 002a A37F     		ldrb	r3, [r4, #30]	@ zero_extendqisi2
  70              		.loc 1 246 0 discriminator 1
  71 002c 5B06     		lsls	r3, r3, #25
  72 002e 10D5     		bpl	.L19
  73              	.L8:
  74 0030 2946     		mov	r1, r5
  75              	.LVL7:
  76              	.L2:
  77              		.loc 1 255 0
  78 0032 0022     		movs	r2, #0
  79 0034 FFF7FEFF 		bl	pbuf_alloc
  80              	.LVL8:
  81              		.loc 1 256 0
  82 0038 0446     		mov	r4, r0
  83 003a 40B1     		cbz	r0, .L4
  84              		.loc 1 259 0
  85 003c 0368     		ldr	r3, [r0]
  86 003e 0BB1     		cbz	r3, .L5
  87              		.loc 1 259 0 is_stmt 0 discriminator 1
  88 0040 FFF7FEFF 		bl	port_halt
  89              	.LVL9:
  90              	.L5:
  91              		.loc 1 260 0 is_stmt 1
  92 0044 6389     		ldrh	r3, [r4, #10]
  93 0046 5B1B     		subs	r3, r3, r5
  94 0048 3380     		strh	r3, [r6]	@ movhi
  95              		.loc 1 262 0
  96 004a 2581     		strh	r5, [r4, #8]	@ movhi
  97 004c 6581     		strh	r5, [r4, #10]	@ movhi
  98              	.L4:
  99              		.loc 1 264 0
 100 004e 2046     		mov	r0, r4
 101 0050 70BD     		pop	{r4, r5, r6, pc}
 102              	.LVL10:
 103              	.L19:
 104              		.loc 1 247 0
 105 0052 0029     		cmp	r1, #0
 106 0054 DFD0     		beq	.L3
 107              		.loc 1 248 0
 108 0056 E36E     		ldr	r3, [r4, #108]
 109 0058 002B     		cmp	r3, #0
 110 005a DCD1     		bne	.L3
 111              		.loc 1 249 0
 112 005c 236F     		ldr	r3, [r4, #112]
 113 005e 002B     		cmp	r3, #0
 114 0060 D9D1     		bne	.L3
ARM GAS  /tmp/ccAMfTfz.s 			page 3


 115 0062 E5E7     		b	.L8
 116              		.cfi_endproc
 117              	.LFE10:
 118              		.size	tcp_pbuf_prealloc, .-tcp_pbuf_prealloc
 119 0064 AFF30080 		.section	.text.tcp_create_segment.isra.0,"ax",%progbits
 119      AFF30080 
 119      AFF30080 
 120              		.align	2
 121              		.p2align 4,,15
 122              		.thumb
 123              		.thumb_func
 124              		.type	tcp_create_segment.isra.0, %function
 125              	tcp_create_segment.isra.0:
 126              	.LFB23:
 127              		.loc 1 159 0
 128              		.cfi_startproc
 129              		@ args = 8, pretend = 0, frame = 0
 130              		@ frame_needed = 0, uses_anonymous_args = 0
 131              	.LVL11:
 132 0000 2DE9F84F 		push	{r3, r4, r5, r6, r7, r8, r9, r10, fp, lr}
 133              		.cfi_def_cfa_offset 40
 134              		.cfi_offset 3, -40
 135              		.cfi_offset 4, -36
 136              		.cfi_offset 5, -32
 137              		.cfi_offset 6, -28
 138              		.cfi_offset 7, -24
 139              		.cfi_offset 8, -20
 140              		.cfi_offset 9, -16
 141              		.cfi_offset 10, -12
 142              		.cfi_offset 11, -8
 143              		.cfi_offset 14, -4
 144              		.loc 1 159 0
 145 0004 9DF82C50 		ldrb	r5, [sp, #44]	@ zero_extendqisi2
 146              		.loc 1 162 0
 147 0008 15F0010F 		tst	r5, #1
 148 000c 0CBF     		ite	eq
 149 000e 0024     		moveq	r4, #0
 150 0010 0424     		movne	r4, #4
 151              		.loc 1 159 0
 152 0012 8246     		mov	r10, r0
 153              		.loc 1 162 0
 154 0014 15F0020F 		tst	r5, #2
 155              		.loc 1 164 0
 156 0018 4FF00400 		mov	r0, #4
 157              		.loc 1 162 0
 158 001c 0CBF     		ite	eq
 159 001e 0027     		moveq	r7, #0
 160 0020 0C27     		movne	r7, #12
 161              		.loc 1 159 0
 162 0022 8946     		mov	r9, r1
 163 0024 1646     		mov	r6, r2
 164 0026 9846     		mov	r8, r3
 165              		.loc 1 164 0
 166 0028 FFF7FEFF 		bl	memp_malloc
 167              	.LVL12:
 168              		.loc 1 162 0
 169 002c 2744     		add	r7, r7, r4
ARM GAS  /tmp/ccAMfTfz.s 			page 4


 170              	.LVL13:
 171              		.loc 1 164 0
 172 002e 0446     		mov	r4, r0
 173 0030 0028     		cmp	r0, #0
 174 0032 3FD0     		beq	.L28
 175              		.loc 1 169 0
 176 0034 8572     		strb	r5, [r0, #10]
 177              		.loc 1 172 0
 178 0036 3389     		ldrh	r3, [r6, #8]
 179              		.loc 1 171 0
 180 0038 4660     		str	r6, [r0, #4]
 181              		.loc 1 172 0
 182 003a DB1B     		subs	r3, r3, r7
 183              		.loc 1 170 0
 184 003c 4FF0000B 		mov	fp, #0
 185              		.loc 1 172 0
 186 0040 0381     		strh	r3, [r0, #8]	@ movhi
 187              		.loc 1 185 0
 188 0042 1421     		movs	r1, #20
 189 0044 3046     		mov	r0, r6
 190              	.LVL14:
 191              		.loc 1 170 0
 192 0046 C4F800B0 		str	fp, [r4]
 193              		.loc 1 185 0
 194 004a FFF7FEFF 		bl	pbuf_header
 195              	.LVL15:
 196 004e 0546     		mov	r5, r0
 197 0050 08BB     		cbnz	r0, .L29
 198              		.loc 1 191 0
 199 0052 6368     		ldr	r3, [r4, #4]
 200              		.loc 1 192 0
 201 0054 BAF80000 		ldrh	r0, [r10]
 202              		.loc 1 191 0
 203 0058 5E68     		ldr	r6, [r3, #4]
 204              	.LVL16:
 205 005a E660     		str	r6, [r4, #12]
 206              		.loc 1 192 0
 207 005c FFF7FEFF 		bl	lwip_htons
 208              	.LVL17:
 209 0060 3080     		strh	r0, [r6]	@ unaligned
 210              		.loc 1 193 0
 211 0062 B9F80000 		ldrh	r0, [r9]
 212 0066 E668     		ldr	r6, [r4, #12]
 213 0068 FFF7FEFF 		bl	lwip_htons
 214              	.LVL18:
 215 006c 7080     		strh	r0, [r6, #2]	@ unaligned
 216              		.loc 1 194 0
 217 006e 0A98     		ldr	r0, [sp, #40]
 218 0070 E668     		ldr	r6, [r4, #12]
 219 0072 FFF7FEFF 		bl	lwip_htonl
 220              	.LVL19:
 221              		.loc 1 196 0
 222 0076 BF02     		lsls	r7, r7, #10
 223              	.LVL20:
 224 0078 07F5A047 		add	r7, r7, #20480
 225              		.loc 1 194 0
 226 007c 7060     		str	r0, [r6, #4]	@ unaligned
ARM GAS  /tmp/ccAMfTfz.s 			page 5


 227              		.loc 1 196 0
 228 007e 47EA0800 		orr	r0, r7, r8
 229 0082 E668     		ldr	r6, [r4, #12]
 230 0084 FFF7FEFF 		bl	lwip_htons
 231              	.LVL21:
 232              		.loc 1 198 0
 233 0088 E368     		ldr	r3, [r4, #12]
 234              		.loc 1 196 0
 235 008a B081     		strh	r0, [r6, #12]	@ unaligned
 236              		.loc 1 198 0
 237 008c 2046     		mov	r0, r4
 238 008e 9D74     		strb	r5, [r3, #18]
 239 0090 DD74     		strb	r5, [r3, #19]
 240              		.loc 1 200 0
 241 0092 BDE8F88F 		pop	{r3, r4, r5, r6, r7, r8, r9, r10, fp, pc}
 242              	.LVL22:
 243              	.L29:
 244              		.loc 1 187 0
 245 0096 40F20003 		movw	r3, #:lower16:lwip_stats
 246 009a C0F20003 		movt	r3, #:upper16:lwip_stats
 247              		.loc 1 188 0
 248 009e 2046     		mov	r0, r4
 249              		.loc 1 187 0
 250 00a0 B3F8A420 		ldrh	r2, [r3, #164]
 251 00a4 0132     		adds	r2, r2, #1
 252 00a6 A3F8A420 		strh	r2, [r3, #164]	@ movhi
 253              		.loc 1 188 0
 254 00aa FFF7FEFF 		bl	tcp_seg_free
 255              	.LVL23:
 256              		.loc 1 189 0
 257 00ae 5846     		mov	r0, fp
 258 00b0 BDE8F88F 		pop	{r3, r4, r5, r6, r7, r8, r9, r10, fp, pc}
 259              	.LVL24:
 260              	.L28:
 261              		.loc 1 166 0
 262 00b4 3046     		mov	r0, r6
 263              	.LVL25:
 264 00b6 FFF7FEFF 		bl	pbuf_free
 265              	.LVL26:
 266              		.loc 1 167 0
 267 00ba 2046     		mov	r0, r4
 268 00bc BDE8F88F 		pop	{r3, r4, r5, r6, r7, r8, r9, r10, fp, pc}
 269              		.cfi_endproc
 270              	.LFE23:
 271              		.size	tcp_create_segment.isra.0, .-tcp_create_segment.isra.0
 272              		.section	.text.tcp_output_alloc_header.constprop.1,"ax",%progbits
 273              		.align	2
 274              		.p2align 4,,15
 275              		.thumb
 276              		.thumb_func
 277              		.type	tcp_output_alloc_header.constprop.1, %function
 278              	tcp_output_alloc_header.constprop.1:
 279              	.LFB24:
 280              		.loc 1 94 0
 281              		.cfi_startproc
 282              		@ args = 0, pretend = 0, frame = 0
 283              		@ frame_needed = 0, uses_anonymous_args = 0
ARM GAS  /tmp/ccAMfTfz.s 			page 6


 284              	.LVL27:
 285              		.loc 1 98 0
 286 0000 1431     		adds	r1, r1, #20
 287              	.LVL28:
 288              		.loc 1 94 0
 289 0002 F8B5     		push	{r3, r4, r5, r6, r7, lr}
 290              		.cfi_def_cfa_offset 24
 291              		.cfi_offset 3, -24
 292              		.cfi_offset 4, -20
 293              		.cfi_offset 5, -16
 294              		.cfi_offset 6, -12
 295              		.cfi_offset 7, -8
 296              		.cfi_offset 14, -4
 297              		.loc 1 98 0
 298 0004 89B2     		uxth	r1, r1
 299              		.loc 1 94 0
 300 0006 0546     		mov	r5, r0
 301 0008 1746     		mov	r7, r2
 302              		.loc 1 98 0
 303 000a 0120     		movs	r0, #1
 304              	.LVL29:
 305 000c 0022     		movs	r2, #0
 306              	.LVL30:
 307 000e FFF7FEFF 		bl	pbuf_alloc
 308              	.LVL31:
 309              		.loc 1 99 0
 310 0012 0646     		mov	r6, r0
 311 0014 10B3     		cbz	r0, .L31
 312              		.loc 1 100 0
 313 0016 4389     		ldrh	r3, [r0, #10]
 314 0018 132B     		cmp	r3, #19
 315 001a 21DD     		ble	.L36
 316              	.LVL32:
 317              	.L32:
 318              		.loc 1 103 0
 319 001c 688B     		ldrh	r0, [r5, #26]
 320              		.loc 1 102 0
 321 001e 7468     		ldr	r4, [r6, #4]
 322              	.LVL33:
 323              		.loc 1 103 0
 324 0020 FFF7FEFF 		bl	lwip_htons
 325              	.LVL34:
 326 0024 2080     		strh	r0, [r4]	@ unaligned
 327              		.loc 1 104 0
 328 0026 A88B     		ldrh	r0, [r5, #28]
 329 0028 FFF7FEFF 		bl	lwip_htons
 330              	.LVL35:
 331              		.loc 1 105 0
 332 002c 6760     		str	r7, [r4, #4]	@ unaligned
 333              		.loc 1 104 0
 334 002e 6080     		strh	r0, [r4, #2]	@ unaligned
 335              		.loc 1 106 0
 336 0030 A86A     		ldr	r0, [r5, #40]
 337 0032 FFF7FEFF 		bl	lwip_htonl
 338              	.LVL36:
 339 0036 A060     		str	r0, [r4, #8]	@ unaligned
 340              		.loc 1 107 0
ARM GAS  /tmp/ccAMfTfz.s 			page 7


 341 0038 45F21000 		movw	r0, #20496
 342 003c FFF7FEFF 		bl	lwip_htons
 343              	.LVL37:
 344 0040 A081     		strh	r0, [r4, #12]	@ unaligned
 345              		.loc 1 108 0
 346 0042 E88D     		ldrh	r0, [r5, #46]
 347 0044 FFF7FEFF 		bl	lwip_htons
 348              	.LVL38:
 349              		.loc 1 113 0
 350 0048 E98D     		ldrh	r1, [r5, #46]
 351 004a AA6A     		ldr	r2, [r5, #40]
 352              		.loc 1 108 0
 353 004c E081     		strh	r0, [r4, #14]	@ unaligned
 354              		.loc 1 109 0
 355 004e 0023     		movs	r3, #0
 356              		.loc 1 113 0
 357 0050 0A44     		add	r2, r2, r1
 358              		.loc 1 109 0
 359 0052 2374     		strb	r3, [r4, #16]
 360 0054 6374     		strb	r3, [r4, #17]
 361              		.loc 1 110 0
 362 0056 A374     		strb	r3, [r4, #18]
 363 0058 E374     		strb	r3, [r4, #19]
 364              		.loc 1 113 0
 365 005a 2A63     		str	r2, [r5, #48]
 366              	.LVL39:
 367              	.L31:
 368              		.loc 1 116 0
 369 005c 3046     		mov	r0, r6
 370 005e F8BD     		pop	{r3, r4, r5, r6, r7, pc}
 371              	.LVL40:
 372              	.L36:
 373              		.loc 1 100 0
 374 0060 FFF7FEFF 		bl	port_halt
 375              	.LVL41:
 376 0064 DAE7     		b	.L32
 377              		.cfi_endproc
 378              	.LFE24:
 379              		.size	tcp_output_alloc_header.constprop.1, .-tcp_output_alloc_header.constprop.1
 380 0066 00BFAFF3 		.section	.text.tcp_write,"ax",%progbits
 380      0080AFF3 
 380      0080
 381              		.align	2
 382              		.p2align 4,,15
 383              		.global	tcp_write
 384              		.thumb
 385              		.thumb_func
 386              		.type	tcp_write, %function
 387              	tcp_write:
 388              	.LFB12:
 389              		.loc 1 355 0
 390              		.cfi_startproc
 391              		@ args = 0, pretend = 0, frame = 56
 392              		@ frame_needed = 0, uses_anonymous_args = 0
 393              	.LVL42:
 394 0000 2DE9F04F 		push	{r4, r5, r6, r7, r8, r9, r10, fp, lr}
 395              		.cfi_def_cfa_offset 36
ARM GAS  /tmp/ccAMfTfz.s 			page 8


 396              		.cfi_offset 4, -36
 397              		.cfi_offset 5, -32
 398              		.cfi_offset 6, -28
 399              		.cfi_offset 7, -24
 400              		.cfi_offset 8, -20
 401              		.cfi_offset 9, -16
 402              		.cfi_offset 10, -12
 403              		.cfi_offset 11, -8
 404              		.cfi_offset 14, -4
 405              		.loc 1 373 0
 406 0004 B0F86240 		ldrh	r4, [r0, #98]
 407              		.loc 1 355 0
 408 0008 93B0     		sub	sp, sp, #76
 409              		.cfi_def_cfa_offset 112
 410              		.loc 1 355 0
 411 000a 8046     		mov	r8, r0
 412              		.loc 1 373 0
 413 000c C08E     		ldrh	r0, [r0, #54]
 414              	.LVL43:
 415              		.loc 1 382 0
 416 000e 0891     		str	r1, [sp, #32]
 417              		.loc 1 373 0
 418 0010 6408     		lsrs	r4, r4, #1
 419 0012 8442     		cmp	r4, r0
 420 0014 28BF     		it	cs
 421 0016 0446     		movcs	r4, r0
 422              		.loc 1 382 0
 423 0018 0898     		ldr	r0, [sp, #32]
 424              		.loc 1 355 0
 425 001a 0D93     		str	r3, [sp, #52]
 426              		.loc 1 363 0
 427 001c 0021     		movs	r1, #0
 428              	.LVL44:
 429              		.loc 1 355 0
 430 001e 9146     		mov	r9, r2
 431              		.loc 1 373 0
 432 0020 0794     		str	r4, [sp, #28]
 433              		.loc 1 363 0
 434 0022 ADF84610 		strh	r1, [sp, #70]	@ movhi
 435              	.LVL45:
 436              		.loc 1 382 0
 437 0026 0028     		cmp	r0, #0
 438 0028 00F04282 		beq	.L141
 439              	.LVL46:
 440              	.LBB9:
 441              	.LBB10:
 442              		.loc 1 297 0
 443 002c 98F81830 		ldrb	r3, [r8, #24]	@ zero_extendqisi2
 444              	.LVL47:
 445 0030 072B     		cmp	r3, #7
 446 0032 40F0CC80 		bne	.L142
 447              	.LVL48:
 448              	.L40:
 449              		.loc 1 303 0
 450 0036 B9F1000F 		cmp	r9, #0
 451 003a 00F08181 		beq	.L42
 452              		.loc 1 308 0
ARM GAS  /tmp/ccAMfTfz.s 			page 9


 453 003e B8F86630 		ldrh	r3, [r8, #102]
 454 0042 4B45     		cmp	r3, r9
 455 0044 C0F00D82 		bcc	.L143
 456              		.loc 1 320 0
 457 0048 B8F86870 		ldrh	r7, [r8, #104]
 458 004c 072F     		cmp	r7, #7
 459 004e 00F21082 		bhi	.L144
 460              		.loc 1 328 0
 461 0052 D8F87030 		ldr	r3, [r8, #112]
 462              		.loc 1 327 0
 463 0056 002F     		cmp	r7, #0
 464 0058 00F0C480 		beq	.L45
 465              		.loc 1 328 0
 466 005c 002B     		cmp	r3, #0
 467 005e 00F0CC81 		beq	.L145
 468              	.L46:
 469              	.LVL49:
 470              	.LBE10:
 471              	.LBE9:
 472              		.loc 1 422 0
 473 0062 D8F86CB0 		ldr	fp, [r8, #108]
 474 0066 BBF1000F 		cmp	fp, #0
 475 006a 01D1     		bne	.L51
 476 006c C7E0     		b	.L49
 477              	.LVL50:
 478              	.L146:
 479              	.LBB16:
 480              		.loc 1 428 0
 481 006e AB46     		mov	fp, r5
 482              	.LVL51:
 483              	.L51:
 484              		.loc 1 427 0 discriminator 1
 485 0070 DBF80050 		ldr	r5, [fp]
 486 0074 002D     		cmp	r5, #0
 487 0076 FAD1     		bne	.L146
 488              		.loc 1 431 0
 489 0078 9BF80A30 		ldrb	r3, [fp, #10]	@ zero_extendqisi2
 490 007c BBF80860 		ldrh	r6, [fp, #8]
 491 0080 0798     		ldr	r0, [sp, #28]
 492              		.loc 1 447 0
 493 0082 B8F86A20 		ldrh	r2, [r8, #106]
 494              		.loc 1 431 0
 495 0086 13F0010F 		tst	r3, #1
 496 008a 0CBF     		ite	eq
 497 008c 0021     		moveq	r1, #0
 498 008e 0421     		movne	r1, #4
 499 0090 861B     		subs	r6, r0, r6
 500 0092 13F0020F 		tst	r3, #2
 501              		.loc 1 432 0
 502 0096 C1EB0606 		rsb	r6, r1, r6
 503              		.loc 1 431 0
 504 009a 0CBF     		ite	eq
 505 009c 0023     		moveq	r3, #0
 506 009e 0C23     		movne	r3, #12
 507              	.LVL52:
 508              		.loc 1 432 0
 509 00a0 F61A     		subs	r6, r6, r3
ARM GAS  /tmp/ccAMfTfz.s 			page 10


 510 00a2 B6B2     		uxth	r6, r6
 511              	.LVL53:
 512              		.loc 1 448 0
 513 00a4 002A     		cmp	r2, #0
 514 00a6 40F05381 		bne	.L54
 515              		.loc 1 447 0
 516 00aa ADF84650 		strh	r5, [sp, #70]	@ movhi
 517              	.LBE16:
 518              		.loc 1 358 0
 519 00ae 0C95     		str	r5, [sp, #48]
 520              	.LVL54:
 521              	.L55:
 522              	.LBB19:
 523              		.loc 1 467 0
 524 00b0 0C98     		ldr	r0, [sp, #48]
 525 00b2 002E     		cmp	r6, #0
 526 00b4 18BF     		it	ne
 527 00b6 4845     		cmpne	r0, r9
 528 00b8 2CBF     		ite	cs
 529 00ba 0023     		movcs	r3, #0
 530 00bc 0123     		movcc	r3, #1
 531 00be 04D2     		bcs	.L89
 532              		.loc 1 467 0 is_stmt 0 discriminator 1
 533 00c0 BBF80830 		ldrh	r3, [fp, #8]
 534 00c4 002B     		cmp	r3, #0
 535 00c6 40F05981 		bne	.L147
 536              	.L89:
 537 00ca 0C9C     		ldr	r4, [sp, #48]
 538              	.LBE19:
 539              		.loc 1 356 0 is_stmt 1
 540 00cc 0E93     		str	r3, [sp, #56]
 541              	.LVL55:
 542              	.L56:
 543              		.loc 1 522 0 discriminator 1
 544 00ce A145     		cmp	r9, r4
 545 00d0 40F2E881 		bls	.L91
 546 00d4 0D9B     		ldr	r3, [sp, #52]
 547 00d6 CDF83CB0 		str	fp, [sp, #60]
 548              		.loc 1 522 0 is_stmt 0
 549 00da 0022     		movs	r2, #0
 550 00dc 0692     		str	r2, [sp, #24]
 551 00de 9246     		mov	r10, r2
 552 00e0 03F00103 		and	r3, r3, #1
 553 00e4 08F11A00 		add	r0, r8, #26
 554 00e8 08F11C02 		add	r2, r8, #28
 555 00ec 0993     		str	r3, [sp, #36]
 556 00ee 0A90     		str	r0, [sp, #40]
 557 00f0 0B92     		str	r2, [sp, #44]
 558 00f2 42E0     		b	.L71
 559              	.LVL56:
 560              	.L61:
 561              	.LBB20:
 562              	.LBB21:
 563              		.loc 1 550 0 is_stmt 1
 564 00f4 BDF84630 		ldrh	r3, [sp, #70]
 565 00f8 002B     		cmp	r3, #0
 566 00fa 40F08B80 		bne	.L148
ARM GAS  /tmp/ccAMfTfz.s 			page 11


 567              	.L65:
 568              		.loc 1 552 0
 569 00fe 0020     		movs	r0, #0
 570 0100 3146     		mov	r1, r6
 571 0102 0122     		movs	r2, #1
 572 0104 FFF7FEFF 		bl	pbuf_alloc
 573              	.LVL57:
 574 0108 8346     		mov	fp, r0
 575 010a 0028     		cmp	r0, #0
 576 010c 00F0EF80 		beq	.L67
 577              		.loc 1 561 0
 578 0110 089A     		ldr	r2, [sp, #32]
 579              		.loc 1 564 0
 580 0112 0020     		movs	r0, #0
 581              	.LVL58:
 582              		.loc 1 561 0
 583 0114 2244     		add	r2, r2, r4
 584 0116 CBF80420 		str	r2, [fp, #4]
 585              		.loc 1 564 0
 586 011a 0146     		mov	r1, r0
 587 011c 0246     		mov	r2, r0
 588 011e FFF7FEFF 		bl	pbuf_alloc
 589              	.LVL59:
 590 0122 0546     		mov	r5, r0
 591 0124 0028     		cmp	r0, #0
 592 0126 00F0DF80 		beq	.L149
 593              		.loc 1 572 0
 594 012a 5946     		mov	r1, fp
 595 012c FFF7FEFF 		bl	pbuf_cat
 596              	.LVL60:
 597              	.L64:
 598              	.LBE21:
 599              		.loc 1 575 0
 600 0130 2846     		mov	r0, r5
 601 0132 FFF7FEFF 		bl	pbuf_clen
 602              	.LVL61:
 603 0136 3844     		add	r0, r0, r7
 604 0138 87B2     		uxth	r7, r0
 605              	.LVL62:
 606              		.loc 1 580 0
 607 013a 082F     		cmp	r7, #8
 608 013c 00F24381 		bhi	.L150
 609              		.loc 1 586 0
 610 0140 D8F85C30 		ldr	r3, [r8, #92]
 611 0144 0A98     		ldr	r0, [sp, #40]
 612              	.LVL63:
 613 0146 0B99     		ldr	r1, [sp, #44]
 614 0148 0022     		movs	r2, #0
 615 014a 2344     		add	r3, r3, r4
 616 014c 0192     		str	r2, [sp, #4]
 617 014e 0093     		str	r3, [sp]
 618 0150 2A46     		mov	r2, r5
 619 0152 0023     		movs	r3, #0
 620 0154 FFF7FEFF 		bl	tcp_create_segment.isra.0
 621              	.LVL64:
 622 0158 0028     		cmp	r0, #0
 623 015a 00F0C880 		beq	.L67
ARM GAS  /tmp/ccAMfTfz.s 			page 12


 624              		.loc 1 599 0
 625 015e 069B     		ldr	r3, [sp, #24]
 626 0160 002B     		cmp	r3, #0
 627 0162 5AD0     		beq	.L92
 628              		.loc 1 603 0
 629 0164 BAF1000F 		cmp	r10, #0
 630 0168 00F0ED80 		beq	.L151
 631              	.LVL65:
 632              	.L70:
 633              		.loc 1 613 0
 634 016c 3444     		add	r4, r4, r6
 635              	.LVL66:
 636 016e A4B2     		uxth	r4, r4
 637              	.LBE20:
 638              		.loc 1 522 0
 639 0170 A145     		cmp	r9, r4
 640              	.LBB24:
 641              		.loc 1 604 0
 642 0172 CAF80000 		str	r0, [r10]
 643              	.LVL67:
 644              	.LBE24:
 645              		.loc 1 522 0
 646 0176 55D9     		bls	.L137
 647              	.LVL68:
 648              	.L155:
 649 0178 8246     		mov	r10, r0
 650              	.LVL69:
 651              	.L71:
 652              	.LBB25:
 653              		.loc 1 524 0
 654 017a C4EB0906 		rsb	r6, r4, r9
 655              		.loc 1 526 0
 656 017e 079B     		ldr	r3, [sp, #28]
 657              		.loc 1 532 0
 658 0180 0998     		ldr	r0, [sp, #36]
 659              		.loc 1 526 0
 660 0182 B6B2     		uxth	r6, r6
 661 0184 9E42     		cmp	r6, r3
 662 0186 28BF     		it	cs
 663 0188 1E46     		movcs	r6, r3
 664              	.LVL70:
 665              		.loc 1 532 0
 666 018a 0028     		cmp	r0, #0
 667 018c B2D0     		beq	.L61
 668              		.loc 1 535 0
 669 018e 069A     		ldr	r2, [sp, #24]
 670 0190 0D98     		ldr	r0, [sp, #52]
 671 0192 CDF80080 		str	r8, [sp]
 672 0196 D2F10103 		rsbs	r3, r2, #1
 673 019a 38BF     		it	cc
 674 019c 0023     		movcc	r3, #0
 675 019e 0190     		str	r0, [sp, #4]
 676 01a0 0293     		str	r3, [sp, #8]
 677 01a2 0020     		movs	r0, #0
 678 01a4 3146     		mov	r1, r6
 679 01a6 079A     		ldr	r2, [sp, #28]
 680 01a8 0DF14603 		add	r3, sp, #70
ARM GAS  /tmp/ccAMfTfz.s 			page 13


 681 01ac FFF7FEFF 		bl	tcp_pbuf_prealloc
 682              	.LVL71:
 683 01b0 0546     		mov	r5, r0
 684 01b2 0028     		cmp	r0, #0
 685 01b4 00F09B80 		beq	.L67
 686              		.loc 1 539 0
 687 01b8 4389     		ldrh	r3, [r0, #10]
 688 01ba B342     		cmp	r3, r6
 689 01bc C0F09180 		bcc	.L152
 690              	.LVL72:
 691              	.L63:
 692              		.loc 1 541 0
 693 01c0 0899     		ldr	r1, [sp, #32]
 694 01c2 6868     		ldr	r0, [r5, #4]
 695 01c4 2144     		add	r1, r1, r4
 696 01c6 3246     		mov	r2, r6
 697 01c8 FFF7FEFF 		bl	memcpy
 698              	.LVL73:
 699 01cc B0E7     		b	.L64
 700              	.LVL74:
 701              	.L142:
 702              	.LBE25:
 703              	.LBB26:
 704              	.LBB11:
 705              		.loc 1 298 0
 706 01ce 023B     		subs	r3, r3, #2
 707 01d0 DBB2     		uxtb	r3, r3
 708 01d2 022B     		cmp	r3, #2
 709              		.loc 1 302 0
 710 01d4 88BF     		it	hi
 711 01d6 F320     		movhi	r0, #243
 712              	.LVL75:
 713              		.loc 1 298 0
 714 01d8 7FF62DAF 		bls	.L40
 715              	.LVL76:
 716              	.L39:
 717 01dc 40B2     		sxtb	r0, r0
 718              	.LBE11:
 719              	.LBE26:
 720              		.loc 1 709 0
 721 01de 13B0     		add	sp, sp, #76
 722              		@ sp needed
 723 01e0 BDE8F08F 		pop	{r4, r5, r6, r7, r8, r9, r10, fp, pc}
 724              	.LVL77:
 725              	.L45:
 726              	.LBB27:
 727              	.LBB12:
 728              		.loc 1 331 0
 729 01e4 002B     		cmp	r3, #0
 730 01e6 00F0E880 		beq	.L153
 731              	.L48:
 732              		.loc 1 328 0
 733 01ea FFF7FEFF 		bl	port_halt
 734              	.LVL78:
 735              	.LBE12:
 736              	.LBE27:
 737              		.loc 1 422 0
ARM GAS  /tmp/ccAMfTfz.s 			page 14


 738 01ee D8F86CB0 		ldr	fp, [r8, #108]
 739 01f2 B8F86870 		ldrh	r7, [r8, #104]
 740              	.LVL79:
 741 01f6 BBF1000F 		cmp	fp, #0
 742 01fa 7FF439AF 		bne	.L51
 743              	.LVL80:
 744              	.L49:
 745              		.loc 1 511 0
 746 01fe B8F86A30 		ldrh	r3, [r8, #106]
 747 0202 002B     		cmp	r3, #0
 748 0204 40F02081 		bne	.L154
 749              		.loc 1 364 0
 750 0208 0C93     		str	r3, [sp, #48]
 751              		.loc 1 358 0
 752 020a 1C46     		mov	r4, r3
 753              		.loc 1 357 0
 754 020c 1D46     		mov	r5, r3
 755 020e 9B46     		mov	fp, r3
 756              		.loc 1 356 0
 757 0210 0E93     		str	r3, [sp, #56]
 758 0212 5CE7     		b	.L56
 759              	.LVL81:
 760              	.L148:
 761              	.LBB28:
 762              	.LBB22:
 763              		.loc 1 550 0 discriminator 1
 764 0214 FFF7FEFF 		bl	port_halt
 765              	.LVL82:
 766 0218 71E7     		b	.L65
 767              	.LVL83:
 768              	.L92:
 769              	.LBE22:
 770              		.loc 1 613 0
 771 021a 3444     		add	r4, r4, r6
 772              	.LVL84:
 773 021c A4B2     		uxth	r4, r4
 774              	.LBE28:
 775              		.loc 1 522 0
 776 021e A145     		cmp	r9, r4
 777              	.LBB29:
 778 0220 0690     		str	r0, [sp, #24]
 779              	.LVL85:
 780              	.LBE29:
 781 0222 A9D8     		bhi	.L155
 782              	.LVL86:
 783              	.L137:
 784 0224 DDF83CB0 		ldr	fp, [sp, #60]
 785 0228 0546     		mov	r5, r0
 786              	.LVL87:
 787              	.L60:
 788              		.loc 1 626 0
 789 022a 0C9A     		ldr	r2, [sp, #48]
 790 022c F2B1     		cbz	r2, .L72
 791              	.LBB30:
 792              		.loc 1 629 0
 793 022e DBF80440 		ldr	r4, [fp, #4]
 794              	.LVL88:
ARM GAS  /tmp/ccAMfTfz.s 			page 15


 795 0232 0C9E     		ldr	r6, [sp, #48]
 796 0234 0CB9     		cbnz	r4, .L74
 797 0236 13E0     		b	.L76
 798              	.LVL89:
 799              	.L75:
 800              	.LBE30:
 801              		.loc 1 522 0
 802 0238 1C46     		mov	r4, r3
 803              	.L74:
 804              	.LVL90:
 805              	.LBB31:
 806              		.loc 1 630 0
 807 023a 2189     		ldrh	r1, [r4, #8]
 808              		.loc 1 631 0
 809 023c 2368     		ldr	r3, [r4]
 810              		.loc 1 630 0
 811 023e 3144     		add	r1, r1, r6
 812 0240 2181     		strh	r1, [r4, #8]	@ movhi
 813              		.loc 1 631 0
 814 0242 002B     		cmp	r3, #0
 815 0244 F8D1     		bne	.L75
 816              		.loc 1 632 0
 817 0246 6368     		ldr	r3, [r4, #4]
 818 0248 6089     		ldrh	r0, [r4, #10]
 819 024a 0899     		ldr	r1, [sp, #32]
 820 024c 1844     		add	r0, r0, r3
 821 024e 3246     		mov	r2, r6
 822 0250 FFF7FEFF 		bl	memcpy
 823              	.LVL91:
 824              		.loc 1 633 0
 825 0254 6289     		ldrh	r2, [r4, #10]
 826              		.loc 1 629 0
 827 0256 2368     		ldr	r3, [r4]
 828              	.LVL92:
 829              		.loc 1 633 0
 830 0258 3244     		add	r2, r2, r6
 831 025a 6281     		strh	r2, [r4, #10]	@ movhi
 832              		.loc 1 629 0
 833 025c 002B     		cmp	r3, #0
 834 025e EBD1     		bne	.L75
 835              	.LVL93:
 836              	.L76:
 837              		.loc 1 636 0
 838 0260 BBF80830 		ldrh	r3, [fp, #8]
 839 0264 0C98     		ldr	r0, [sp, #48]
 840 0266 0344     		add	r3, r3, r0
 841 0268 ABF80830 		strh	r3, [fp, #8]	@ movhi
 842              	.L72:
 843              	.LBE31:
 844              		.loc 1 643 0
 845 026c BDF84630 		ldrh	r3, [sp, #70]
 846              		.loc 1 649 0
 847 0270 0E9A     		ldr	r2, [sp, #56]
 848              		.loc 1 643 0
 849 0272 A8F86A30 		strh	r3, [r8, #106]	@ movhi
 850              		.loc 1 649 0
 851 0276 002A     		cmp	r2, #0
ARM GAS  /tmp/ccAMfTfz.s 			page 16


 852 0278 00F00C81 		beq	.L77
 853              		.loc 1 650 0
 854 027c BBF1000F 		cmp	fp, #0
 855 0280 00F01381 		beq	.L156
 856              	.L78:
 857              		.loc 1 652 0
 858 0284 DBF80400 		ldr	r0, [fp, #4]
 859 0288 0E99     		ldr	r1, [sp, #56]
 860 028a FFF7FEFF 		bl	pbuf_cat
 861              	.LVL94:
 862              		.loc 1 653 0
 863 028e 0E9B     		ldr	r3, [sp, #56]
 864 0290 1A89     		ldrh	r2, [r3, #8]
 865 0292 BBF80830 		ldrh	r3, [fp, #8]
 866 0296 1344     		add	r3, r3, r2
 867 0298 ABF80830 		strh	r3, [fp, #8]	@ movhi
 868              	.L79:
 869              		.loc 1 670 0
 870 029c 069A     		ldr	r2, [sp, #24]
 871 029e CBF80020 		str	r2, [fp]
 872              	.L80:
 873              		.loc 1 676 0
 874 02a2 D8F85C30 		ldr	r3, [r8, #92]
 875              		.loc 1 677 0
 876 02a6 B8F86620 		ldrh	r2, [r8, #102]
 877              		.loc 1 678 0
 878 02aa A8F86870 		strh	r7, [r8, #104]	@ movhi
 879              		.loc 1 676 0
 880 02ae 4B44     		add	r3, r3, r9
 881              		.loc 1 677 0
 882 02b0 C9EB0209 		rsb	r9, r9, r2
 883              	.LVL95:
 884              		.loc 1 676 0
 885 02b4 C8F85C30 		str	r3, [r8, #92]
 886              		.loc 1 677 0
 887 02b8 A8F86690 		strh	r9, [r8, #102]	@ movhi
 888              		.loc 1 682 0
 889 02bc 27B1     		cbz	r7, .L81
 890              		.loc 1 683 0
 891 02be D8F87030 		ldr	r3, [r8, #112]
 892 02c2 002B     		cmp	r3, #0
 893 02c4 00F0B080 		beq	.L157
 894              	.L81:
 895              		.loc 1 688 0
 896 02c8 4DB1     		cbz	r5, .L95
 897              		.loc 1 688 0 is_stmt 0 discriminator 1
 898 02ca EC68     		ldr	r4, [r5, #12]
 899 02cc 3CB1     		cbz	r4, .L95
 900 02ce 0D98     		ldr	r0, [sp, #52]
 901 02d0 00F00203 		and	r3, r0, #2
 902 02d4 03F0FF05 		and	r5, r3, #255
 903 02d8 002B     		cmp	r3, #0
 904 02da 00F0AD80 		beq	.L158
 905              	.L95:
 906              		.loc 1 692 0 is_stmt 1
 907 02de 0020     		movs	r0, #0
 908 02e0 7CE7     		b	.L39
ARM GAS  /tmp/ccAMfTfz.s 			page 17


 909              	.LVL96:
 910              	.L152:
 911              	.LBB32:
 912              		.loc 1 539 0 discriminator 1
 913 02e2 FFF7FEFF 		bl	port_halt
 914              	.LVL97:
 915 02e6 6BE7     		b	.L63
 916              	.LVL98:
 917              	.L149:
 918              	.LBB23:
 919              		.loc 1 567 0
 920 02e8 5846     		mov	r0, fp
 921              	.LVL99:
 922 02ea FFF7FEFF 		bl	pbuf_free
 923              	.LVL100:
 924              	.L67:
 925              	.LBE23:
 926              	.LBE32:
 927              		.loc 1 694 0
 928 02ee 98F81E20 		ldrb	r2, [r8, #30]	@ zero_extendqisi2
 929              		.loc 1 695 0
 930 02f2 40F20003 		movw	r3, #:lower16:lwip_stats
 931              		.loc 1 694 0
 932 02f6 62F07F02 		orn	r2, r2, #127
 933              		.loc 1 695 0
 934 02fa C0F20003 		movt	r3, #:upper16:lwip_stats
 935              		.loc 1 694 0
 936 02fe 88F81E20 		strb	r2, [r8, #30]
 937              		.loc 1 695 0
 938 0302 B3F89C20 		ldrh	r2, [r3, #156]
 939 0306 0132     		adds	r2, r2, #1
 940 0308 A3F89C20 		strh	r2, [r3, #156]	@ movhi
 941              		.loc 1 697 0
 942 030c 0E9A     		ldr	r2, [sp, #56]
 943 030e 12B1     		cbz	r2, .L82
 944              		.loc 1 698 0
 945 0310 1046     		mov	r0, r2
 946 0312 FFF7FEFF 		bl	pbuf_free
 947              	.LVL101:
 948              	.L82:
 949              		.loc 1 700 0
 950 0316 069B     		ldr	r3, [sp, #24]
 951 0318 13B1     		cbz	r3, .L83
 952              		.loc 1 701 0
 953 031a 1846     		mov	r0, r3
 954 031c FFF7FEFF 		bl	tcp_segs_free
 955              	.LVL102:
 956              	.L83:
 957              		.loc 1 703 0
 958 0320 B8F86830 		ldrh	r3, [r8, #104]
 959 0324 3BB1     		cbz	r3, .L98
 960              		.loc 1 704 0
 961 0326 D8F87030 		ldr	r3, [r8, #112]
 962 032a 23B9     		cbnz	r3, .L98
 963              		.loc 1 704 0 is_stmt 0 discriminator 1
 964 032c D8F86C30 		ldr	r3, [r8, #108]
 965 0330 002B     		cmp	r3, #0
ARM GAS  /tmp/ccAMfTfz.s 			page 18


 966 0332 00F09280 		beq	.L159
 967              	.L98:
 968              		.loc 1 708 0 is_stmt 1
 969 0336 FF20     		movs	r0, #255
 970 0338 40B2     		sxtb	r0, r0
 971              		.loc 1 709 0
 972 033a 13B0     		add	sp, sp, #76
 973              		@ sp needed
 974 033c BDE8F08F 		pop	{r4, r5, r6, r7, r8, r9, r10, fp, pc}
 975              	.LVL103:
 976              	.L42:
 977 0340 B8F86870 		ldrh	r7, [r8, #104]
 978 0344 8DE6     		b	.L46
 979              	.LVL104:
 980              	.L151:
 981              	.LBB33:
 982              		.loc 1 603 0 discriminator 1
 983 0346 0590     		str	r0, [sp, #20]
 984 0348 FFF7FEFF 		bl	port_halt
 985              	.LVL105:
 986 034c 0598     		ldr	r0, [sp, #20]
 987 034e 0DE7     		b	.L70
 988              	.LVL106:
 989              	.L54:
 990              	.LBE33:
 991              	.LBB34:
 992              		.loc 1 451 0
 993 0350 9145     		cmp	r9, r2
 994 0352 34BF     		ite	cc
 995 0354 4B46     		movcc	r3, r9
 996 0356 1346     		movcs	r3, r2
 997              	.LVL107:
 998              		.loc 1 453 0
 999 0358 D21A     		subs	r2, r2, r3
 1000 035a 92B2     		uxth	r2, r2
 1001              		.loc 1 454 0
 1002 035c F61A     		subs	r6, r6, r3
 1003              	.LVL108:
 1004              		.loc 1 457 0
 1005 035e 002A     		cmp	r2, #0
 1006 0360 18BF     		it	ne
 1007 0362 9945     		cmpne	r9, r3
 1008              		.loc 1 451 0
 1009 0364 0C93     		str	r3, [sp, #48]
 1010              	.LVL109:
 1011              		.loc 1 453 0
 1012 0366 ADF84620 		strh	r2, [sp, #70]	@ movhi
 1013              		.loc 1 454 0
 1014 036a B6B2     		uxth	r6, r6
 1015              	.LVL110:
 1016 036c 08BF     		it	eq
 1017 036e 5D46     		moveq	r5, fp
 1018              		.loc 1 457 0
 1019 0370 3FF49EAE 		beq	.L55
 1020              		.loc 1 457 0 is_stmt 0 discriminator 1
 1021 0374 FFF7FEFF 		bl	port_halt
 1022              	.LVL111:
ARM GAS  /tmp/ccAMfTfz.s 			page 19


 1023 0378 5D46     		mov	r5, fp
 1024 037a 99E6     		b	.L55
 1025              	.LVL112:
 1026              	.L147:
 1027              	.LBB17:
 1028              		.loc 1 474 0 is_stmt 1
 1029 037c 0D9A     		ldr	r2, [sp, #52]
 1030              		.loc 1 468 0
 1031 037e C0EB0904 		rsb	r4, r0, r9
 1032 0382 B442     		cmp	r4, r6
 1033 0384 A8BF     		it	ge
 1034 0386 3446     		movge	r4, r6
 1035              		.loc 1 474 0
 1036 0388 D507     		lsls	r5, r2, #31
 1037              		.loc 1 468 0
 1038 038a A4B2     		uxth	r4, r4
 1039              	.LVL113:
 1040              		.loc 1 474 0
 1041 038c 1FD5     		bpl	.L57
 1042              		.loc 1 476 0
 1043 038e 0123     		movs	r3, #1
 1044 0390 0192     		str	r2, [sp, #4]
 1045 0392 0293     		str	r3, [sp, #8]
 1046 0394 CDF80080 		str	r8, [sp]
 1047 0398 3246     		mov	r2, r6
 1048 039a 0320     		movs	r0, #3
 1049 039c 2146     		mov	r1, r4
 1050 039e 0DF14603 		add	r3, sp, #70
 1051 03a2 FFF7FEFF 		bl	tcp_pbuf_prealloc
 1052              	.LVL114:
 1053 03a6 0E90     		str	r0, [sp, #56]
 1054 03a8 70B3     		cbz	r0, .L58
 1055              		.loc 1 485 0
 1056 03aa 0899     		ldr	r1, [sp, #32]
 1057 03ac 0C9B     		ldr	r3, [sp, #48]
 1058 03ae 4068     		ldr	r0, [r0, #4]
 1059              	.LVL115:
 1060 03b0 1944     		add	r1, r1, r3
 1061 03b2 2246     		mov	r2, r4
 1062 03b4 FFF7FEFF 		bl	memcpy
 1063              	.LVL116:
 1064 03b8 15E0     		b	.L59
 1065              	.LVL117:
 1066              	.L153:
 1067              	.LBE17:
 1068              	.LBE34:
 1069              	.LBB35:
 1070              	.LBB13:
 1071              		.loc 1 331 0
 1072 03ba D8F86C30 		ldr	r3, [r8, #108]
 1073 03be 002B     		cmp	r3, #0
 1074 03c0 7FF413AF 		bne	.L48
 1075 03c4 1BE7     		b	.L49
 1076              	.LVL118:
 1077              	.L150:
 1078              	.LBE13:
 1079              	.LBE35:
ARM GAS  /tmp/ccAMfTfz.s 			page 20


 1080              	.LBB36:
 1081              		.loc 1 582 0
 1082 03c6 2846     		mov	r0, r5
 1083              	.LVL119:
 1084 03c8 FFF7FEFF 		bl	pbuf_free
 1085              	.LVL120:
 1086              		.loc 1 583 0
 1087 03cc 8FE7     		b	.L67
 1088              	.LVL121:
 1089              	.L57:
 1090              	.LBE36:
 1091              	.LBB37:
 1092              	.LBB18:
 1093              		.loc 1 491 0
 1094 03ce 0320     		movs	r0, #3
 1095 03d0 2146     		mov	r1, r4
 1096 03d2 0122     		movs	r2, #1
 1097 03d4 FFF7FEFF 		bl	pbuf_alloc
 1098              	.LVL122:
 1099 03d8 0E90     		str	r0, [sp, #56]
 1100 03da A8B1     		cbz	r0, .L58
 1101              		.loc 1 503 0
 1102 03dc 089B     		ldr	r3, [sp, #32]
 1103 03de 0C98     		ldr	r0, [sp, #48]
 1104              	.LVL123:
 1105 03e0 0E9A     		ldr	r2, [sp, #56]
 1106 03e2 0344     		add	r3, r3, r0
 1107 03e4 5360     		str	r3, [r2, #4]
 1108              	.L59:
 1109              		.loc 1 506 0
 1110 03e6 0C9B     		ldr	r3, [sp, #48]
 1111              		.loc 1 507 0
 1112 03e8 0E98     		ldr	r0, [sp, #56]
 1113              		.loc 1 506 0
 1114 03ea 1C44     		add	r4, r4, r3
 1115              	.LVL124:
 1116              		.loc 1 507 0
 1117 03ec FFF7FEFF 		bl	pbuf_clen
 1118              	.LVL125:
 1119 03f0 3844     		add	r0, r0, r7
 1120              		.loc 1 506 0
 1121 03f2 A4B2     		uxth	r4, r4
 1122              	.LVL126:
 1123              		.loc 1 507 0
 1124 03f4 87B2     		uxth	r7, r0
 1125              	.LVL127:
 1126 03f6 5D46     		mov	r5, fp
 1127 03f8 69E6     		b	.L56
 1128              	.LVL128:
 1129              	.L145:
 1130              	.LBE18:
 1131              	.LBE37:
 1132              	.LBB38:
 1133              	.LBB14:
 1134              		.loc 1 328 0
 1135 03fa D8F86CB0 		ldr	fp, [r8, #108]
 1136 03fe BBF1000F 		cmp	fp, #0
ARM GAS  /tmp/ccAMfTfz.s 			page 21


 1137 0402 7FF435AE 		bne	.L51
 1138 0406 F0E6     		b	.L48
 1139              	.LVL129:
 1140              	.L58:
 1141              	.LBE14:
 1142              	.LBE38:
 1143              		.loc 1 694 0
 1144 0408 98F81E20 		ldrb	r2, [r8, #30]	@ zero_extendqisi2
 1145              		.loc 1 695 0
 1146 040c 40F20003 		movw	r3, #:lower16:lwip_stats
 1147              		.loc 1 694 0
 1148 0410 62F07F02 		orn	r2, r2, #127
 1149              		.loc 1 695 0
 1150 0414 C0F20003 		movt	r3, #:upper16:lwip_stats
 1151              		.loc 1 694 0
 1152 0418 88F81E20 		strb	r2, [r8, #30]
 1153              		.loc 1 695 0
 1154 041c B3F89C20 		ldrh	r2, [r3, #156]
 1155 0420 0132     		adds	r2, r2, #1
 1156 0422 A3F89C20 		strh	r2, [r3, #156]	@ movhi
 1157 0426 7BE7     		b	.L83
 1158              	.LVL130:
 1159              	.L157:
 1160              		.loc 1 683 0 discriminator 1
 1161 0428 D8F86C30 		ldr	r3, [r8, #108]
 1162 042c 002B     		cmp	r3, #0
 1163 042e 7FF44BAF 		bne	.L81
 1164 0432 FFF7FEFF 		bl	port_halt
 1165              	.LVL131:
 1166 0436 47E7     		b	.L81
 1167              	.L158:
 1168              		.loc 1 689 0
 1169 0438 0820     		movs	r0, #8
 1170 043a A689     		ldrh	r6, [r4, #12]	@ unaligned
 1171 043c FFF7FEFF 		bl	lwip_htons
 1172              	.LVL132:
 1173 0440 3043     		orrs	r0, r0, r6
 1174 0442 A081     		strh	r0, [r4, #12]	@ unaligned
 1175              		.loc 1 692 0
 1176 0444 2846     		mov	r0, r5
 1177 0446 C9E6     		b	.L39
 1178              	.LVL133:
 1179              	.L154:
 1180              		.loc 1 364 0 discriminator 1
 1181 0448 0020     		movs	r0, #0
 1182 044a 0C90     		str	r0, [sp, #48]
 1183              		.loc 1 511 0 discriminator 1
 1184 044c FFF7FEFF 		bl	port_halt
 1185              	.LVL134:
 1186              		.loc 1 358 0 discriminator 1
 1187 0450 0C9C     		ldr	r4, [sp, #48]
 1188              		.loc 1 357 0 discriminator 1
 1189 0452 2546     		mov	r5, r4
 1190 0454 A346     		mov	fp, r4
 1191              		.loc 1 356 0 discriminator 1
 1192 0456 0E94     		str	r4, [sp, #56]
 1193 0458 39E6     		b	.L56
ARM GAS  /tmp/ccAMfTfz.s 			page 22


 1194              	.LVL135:
 1195              	.L159:
 1196              		.loc 1 704 0 discriminator 1
 1197 045a FFF7FEFF 		bl	port_halt
 1198              	.LVL136:
 1199              		.loc 1 708 0 discriminator 1
 1200 045e FF20     		movs	r0, #255
 1201 0460 BCE6     		b	.L39
 1202              	.LVL137:
 1203              	.L143:
 1204              	.LBB39:
 1205              	.LBB15:
 1206              		.loc 1 311 0
 1207 0462 98F81E30 		ldrb	r3, [r8, #30]	@ zero_extendqisi2
 1208 0466 63F07F03 		orn	r3, r3, #127
 1209 046a 88F81E30 		strb	r3, [r8, #30]
 1210              		.loc 1 312 0
 1211 046e FF20     		movs	r0, #255
 1212 0470 B4E6     		b	.L39
 1213              	.L144:
 1214              		.loc 1 323 0
 1215 0472 40F20003 		movw	r3, #:lower16:lwip_stats
 1216 0476 C0F20003 		movt	r3, #:upper16:lwip_stats
 1217              		.loc 1 325 0
 1218 047a FF20     		movs	r0, #255
 1219              		.loc 1 323 0
 1220 047c B3F89C20 		ldrh	r2, [r3, #156]
 1221              	.LVL138:
 1222 0480 0132     		adds	r2, r2, #1
 1223 0482 A3F89C20 		strh	r2, [r3, #156]	@ movhi
 1224              		.loc 1 324 0
 1225 0486 98F81E30 		ldrb	r3, [r8, #30]	@ zero_extendqisi2
 1226 048a 63F07F03 		orn	r3, r3, #127
 1227 048e 88F81E30 		strb	r3, [r8, #30]
 1228 0492 A3E6     		b	.L39
 1229              	.LVL139:
 1230              	.L77:
 1231              	.LBE15:
 1232              	.LBE39:
 1233              		.loc 1 667 0
 1234 0494 BBF1000F 		cmp	fp, #0
 1235 0498 7FF400AF 		bne	.L79
 1236              		.loc 1 668 0
 1237 049c 0698     		ldr	r0, [sp, #24]
 1238 049e C8F86C00 		str	r0, [r8, #108]
 1239 04a2 FEE6     		b	.L80
 1240              	.LVL140:
 1241              	.L91:
 1242              		.loc 1 522 0
 1243 04a4 0020     		movs	r0, #0
 1244 04a6 0690     		str	r0, [sp, #24]
 1245 04a8 BFE6     		b	.L60
 1246              	.LVL141:
 1247              	.L156:
 1248              		.loc 1 650 0 discriminator 1
 1249 04aa FFF7FEFF 		bl	port_halt
 1250              	.LVL142:
ARM GAS  /tmp/ccAMfTfz.s 			page 23


 1251 04ae E9E6     		b	.L78
 1252              	.LVL143:
 1253              	.L141:
 1254              		.loc 1 382 0 discriminator 1
 1255 04b0 FFF7FEFF 		bl	port_halt
 1256              	.LVL144:
 1257 04b4 F220     		movs	r0, #242
 1258 04b6 91E6     		b	.L39
 1259              		.cfi_endproc
 1260              	.LFE12:
 1261              		.size	tcp_write, .-tcp_write
 1262 04b8 AFF30080 		.section	.text.tcp_enqueue_flags,"ax",%progbits
 1262      AFF30080 
 1263              		.align	2
 1264              		.p2align 4,,15
 1265              		.global	tcp_enqueue_flags
 1266              		.thumb
 1267              		.thumb_func
 1268              		.type	tcp_enqueue_flags, %function
 1269              	tcp_enqueue_flags:
 1270              	.LFB13:
 1271              		.loc 1 723 0
 1272              		.cfi_startproc
 1273              		@ args = 0, pretend = 0, frame = 0
 1274              		@ frame_needed = 0, uses_anonymous_args = 0
 1275              	.LVL145:
 1276 0000 2DE9F043 		push	{r4, r5, r6, r7, r8, r9, lr}
 1277              		.cfi_def_cfa_offset 28
 1278              		.cfi_offset 4, -28
 1279              		.cfi_offset 5, -24
 1280              		.cfi_offset 6, -20
 1281              		.cfi_offset 7, -16
 1282              		.cfi_offset 8, -12
 1283              		.cfi_offset 9, -8
 1284              		.cfi_offset 14, -4
 1285              		.loc 1 731 0
 1286 0004 11F00308 		ands	r8, r1, #3
 1287              		.loc 1 723 0
 1288 0008 83B0     		sub	sp, sp, #12
 1289              		.cfi_def_cfa_offset 40
 1290              		.loc 1 723 0
 1291 000a 0E46     		mov	r6, r1
 1292 000c 0546     		mov	r5, r0
 1293              		.loc 1 731 0
 1294 000e 61D0     		beq	.L194
 1295              	.LVL146:
 1296              	.L161:
 1297              		.loc 1 735 0
 1298 0010 B5F86830 		ldrh	r3, [r5, #104]
 1299 0014 072B     		cmp	r3, #7
 1300 0016 7FD8     		bhi	.L195
 1301              		.loc 1 743 0
 1302 0018 06F00203 		and	r3, r6, #2
 1303 001c 03F0FF09 		and	r9, r3, #255
 1304              		.loc 1 751 0
 1305 0020 4F46     		mov	r7, r9
 1306              		.loc 1 743 0
ARM GAS  /tmp/ccAMfTfz.s 			page 24


 1307 0022 002B     		cmp	r3, #0
 1308 0024 49D1     		bne	.L196
 1309              	.L164:
 1310              	.LVL147:
 1311              		.loc 1 757 0 discriminator 3
 1312 0026 B5F86630 		ldrh	r3, [r5, #102]
 1313 002a 002B     		cmp	r3, #0
 1314 002c 69D0     		beq	.L197
 1315              		.loc 1 764 0
 1316 002e 0020     		movs	r0, #0
 1317 0030 0246     		mov	r2, r0
 1318 0032 3946     		mov	r1, r7
 1319 0034 FFF7FEFF 		bl	pbuf_alloc
 1320              	.LVL148:
 1321 0038 0446     		mov	r4, r0
 1322 003a 0028     		cmp	r0, #0
 1323 003c 7BD0     		beq	.L193
 1324              		.loc 1 769 0
 1325 003e 4389     		ldrh	r3, [r0, #10]
 1326 0040 BB42     		cmp	r3, r7
 1327 0042 4AD3     		bcc	.L198
 1328              	.LVL149:
 1329              	.L167:
 1330              		.loc 1 773 0
 1331 0044 EB6D     		ldr	r3, [r5, #92]
 1332 0046 CDF80490 		str	r9, [sp, #4]
 1333 004a 0093     		str	r3, [sp]
 1334 004c 2246     		mov	r2, r4
 1335 004e 05F11A00 		add	r0, r5, #26
 1336 0052 05F11C01 		add	r1, r5, #28
 1337 0056 3346     		mov	r3, r6
 1338 0058 FFF7FEFF 		bl	tcp_create_segment.isra.0
 1339              	.LVL150:
 1340 005c 0746     		mov	r7, r0
 1341              	.LVL151:
 1342 005e 0028     		cmp	r0, #0
 1343 0060 69D0     		beq	.L193
 1344              		.loc 1 778 0
 1345 0062 C368     		ldr	r3, [r0, #12]
 1346 0064 9B07     		lsls	r3, r3, #30
 1347 0066 42D1     		bne	.L199
 1348              	.LVL152:
 1349              	.L169:
 1350              		.loc 1 779 0
 1351 0068 3B89     		ldrh	r3, [r7, #8]
 1352 006a 002B     		cmp	r3, #0
 1353 006c 38D1     		bne	.L200
 1354              		.loc 1 788 0
 1355 006e EC6E     		ldr	r4, [r5, #108]
 1356              	.LVL153:
 1357 0070 0CB9     		cbnz	r4, .L174
 1358 0072 3AE0     		b	.L201
 1359              	.LVL154:
 1360              	.L202:
 1361              	.LBB40:
 1362              		.loc 1 792 0
 1363 0074 1446     		mov	r4, r2
ARM GAS  /tmp/ccAMfTfz.s 			page 25


 1364              	.LVL155:
 1365              	.L174:
 1366              		.loc 1 792 0 is_stmt 0 discriminator 1
 1367 0076 2268     		ldr	r2, [r4]
 1368 0078 002A     		cmp	r2, #0
 1369 007a FBD1     		bne	.L202
 1370              		.loc 1 793 0 is_stmt 1
 1371 007c 2760     		str	r7, [r4]
 1372              	.LVL156:
 1373              	.L172:
 1374              	.LBE40:
 1375              		.loc 1 797 0
 1376 007e 0023     		movs	r3, #0
 1377 0080 A5F86A30 		strh	r3, [r5, #106]	@ movhi
 1378              		.loc 1 801 0
 1379 0084 B8F1000F 		cmp	r8, #0
 1380 0088 1BD1     		bne	.L203
 1381              	.L175:
 1382              		.loc 1 806 0
 1383 008a F607     		lsls	r6, r6, #31
 1384              		.loc 1 807 0
 1385 008c 48BF     		it	mi
 1386 008e AB7F     		ldrbmi	r3, [r5, #30]	@ zero_extendqisi2
 1387              		.loc 1 811 0
 1388 0090 B5F86840 		ldrh	r4, [r5, #104]
 1389              		.loc 1 807 0
 1390 0094 44BF     		itt	mi
 1391 0096 43F02003 		orrmi	r3, r3, #32
 1392 009a AB77     		strbmi	r3, [r5, #30]
 1393              		.loc 1 811 0
 1394 009c 7868     		ldr	r0, [r7, #4]
 1395 009e FFF7FEFF 		bl	pbuf_clen
 1396              	.LVL157:
 1397 00a2 2044     		add	r0, r0, r4
 1398 00a4 80B2     		uxth	r0, r0
 1399 00a6 A5F86800 		strh	r0, [r5, #104]	@ movhi
 1400              		.loc 1 813 0
 1401 00aa 10B1     		cbz	r0, .L163
 1402              		.loc 1 814 0
 1403 00ac 286F     		ldr	r0, [r5, #112]
 1404 00ae 08B3     		cbz	r0, .L204
 1405              		.loc 1 818 0
 1406 00b0 0020     		movs	r0, #0
 1407              	.LVL158:
 1408              	.L163:
 1409              		.loc 1 819 0
 1410 00b2 40B2     		sxtb	r0, r0
 1411 00b4 03B0     		add	sp, sp, #12
 1412              		@ sp needed
 1413 00b6 BDE8F083 		pop	{r4, r5, r6, r7, r8, r9, pc}
 1414              	.LVL159:
 1415              	.L196:
 1416              		.loc 1 744 0
 1417 00ba 4FF00109 		mov	r9, #1
 1418              		.loc 1 751 0
 1419 00be 0427     		movs	r7, #4
 1420 00c0 B1E7     		b	.L164
ARM GAS  /tmp/ccAMfTfz.s 			page 26


 1421              	.LVL160:
 1422              	.L203:
 1423              		.loc 1 802 0
 1424 00c2 EB6D     		ldr	r3, [r5, #92]
 1425              		.loc 1 804 0
 1426 00c4 B5F86620 		ldrh	r2, [r5, #102]
 1427              		.loc 1 802 0
 1428 00c8 0133     		adds	r3, r3, #1
 1429              		.loc 1 804 0
 1430 00ca 013A     		subs	r2, r2, #1
 1431              		.loc 1 802 0
 1432 00cc EB65     		str	r3, [r5, #92]
 1433              		.loc 1 804 0
 1434 00ce A5F86620 		strh	r2, [r5, #102]	@ movhi
 1435 00d2 DAE7     		b	.L175
 1436              	.LVL161:
 1437              	.L194:
 1438              		.loc 1 731 0 discriminator 1
 1439 00d4 FFF7FEFF 		bl	port_halt
 1440              	.LVL162:
 1441 00d8 9AE7     		b	.L161
 1442              	.LVL163:
 1443              	.L198:
 1444              		.loc 1 769 0 discriminator 1
 1445 00da FFF7FEFF 		bl	port_halt
 1446              	.LVL164:
 1447 00de B1E7     		b	.L167
 1448              	.LVL165:
 1449              	.L200:
 1450              		.loc 1 779 0 discriminator 1
 1451 00e0 FFF7FEFF 		bl	port_halt
 1452              	.LVL166:
 1453              		.loc 1 788 0 discriminator 1
 1454 00e4 EC6E     		ldr	r4, [r5, #108]
 1455              	.LVL167:
 1456 00e6 002C     		cmp	r4, #0
 1457 00e8 C5D1     		bne	.L174
 1458              	.L201:
 1459              		.loc 1 789 0
 1460 00ea EF66     		str	r7, [r5, #108]
 1461 00ec C7E7     		b	.L172
 1462              	.LVL168:
 1463              	.L199:
 1464              		.loc 1 778 0 discriminator 1
 1465 00ee FFF7FEFF 		bl	port_halt
 1466              	.LVL169:
 1467 00f2 B9E7     		b	.L169
 1468              	.LVL170:
 1469              	.L204:
 1470              		.loc 1 814 0 discriminator 1
 1471 00f4 EC6E     		ldr	r4, [r5, #108]
 1472 00f6 002C     		cmp	r4, #0
 1473 00f8 DBD1     		bne	.L163
 1474 00fa FFF7FEFF 		bl	port_halt
 1475              	.LVL171:
 1476              		.loc 1 818 0 discriminator 1
 1477 00fe 2046     		mov	r0, r4
ARM GAS  /tmp/ccAMfTfz.s 			page 27


 1478 0100 D7E7     		b	.L163
 1479              	.LVL172:
 1480              	.L197:
 1481              		.loc 1 759 0
 1482 0102 40F20003 		movw	r3, #:lower16:lwip_stats
 1483 0106 C0F20003 		movt	r3, #:upper16:lwip_stats
 1484              		.loc 1 760 0
 1485 010a FF20     		movs	r0, #255
 1486              		.loc 1 759 0
 1487 010c B3F89C20 		ldrh	r2, [r3, #156]
 1488 0110 0132     		adds	r2, r2, #1
 1489 0112 A3F89C20 		strh	r2, [r3, #156]	@ movhi
 1490              		.loc 1 760 0
 1491 0116 CCE7     		b	.L163
 1492              	.LVL173:
 1493              	.L195:
 1494              		.loc 1 738 0
 1495 0118 40F20003 		movw	r3, #:lower16:lwip_stats
 1496 011c C0F20003 		movt	r3, #:upper16:lwip_stats
 1497              		.loc 1 740 0
 1498 0120 FF20     		movs	r0, #255
 1499              		.loc 1 738 0
 1500 0122 B3F89C20 		ldrh	r2, [r3, #156]
 1501 0126 0132     		adds	r2, r2, #1
 1502 0128 A3F89C20 		strh	r2, [r3, #156]	@ movhi
 1503              		.loc 1 739 0
 1504 012c AB7F     		ldrb	r3, [r5, #30]	@ zero_extendqisi2
 1505 012e 63F07F03 		orn	r3, r3, #127
 1506 0132 AB77     		strb	r3, [r5, #30]
 1507              		.loc 1 740 0
 1508 0134 BDE7     		b	.L163
 1509              	.LVL174:
 1510              	.L193:
 1511              		.loc 1 774 0
 1512 0136 AA7F     		ldrb	r2, [r5, #30]	@ zero_extendqisi2
 1513              		.loc 1 775 0
 1514 0138 40F20003 		movw	r3, #:lower16:lwip_stats
 1515              		.loc 1 774 0
 1516 013c 62F07F02 		orn	r2, r2, #127
 1517              		.loc 1 775 0
 1518 0140 C0F20003 		movt	r3, #:upper16:lwip_stats
 1519              		.loc 1 774 0
 1520 0144 AA77     		strb	r2, [r5, #30]
 1521              		.loc 1 775 0
 1522 0146 B3F89C20 		ldrh	r2, [r3, #156]
 1523 014a 0132     		adds	r2, r2, #1
 1524 014c A3F89C20 		strh	r2, [r3, #156]	@ movhi
 1525              		.loc 1 776 0
 1526 0150 FF20     		movs	r0, #255
 1527 0152 AEE7     		b	.L163
 1528              		.cfi_endproc
 1529              	.LFE13:
 1530              		.size	tcp_enqueue_flags, .-tcp_enqueue_flags
 1531 0154 AFF30080 		.section	.text.tcp_send_fin,"ax",%progbits
 1531      AFF30080 
 1531      AFF30080 
 1532              		.align	2
ARM GAS  /tmp/ccAMfTfz.s 			page 28


 1533              		.p2align 4,,15
 1534              		.global	tcp_send_fin
 1535              		.thumb
 1536              		.thumb_func
 1537              		.type	tcp_send_fin, %function
 1538              	tcp_send_fin:
 1539              	.LFB8:
 1540              		.loc 1 126 0
 1541              		.cfi_startproc
 1542              		@ args = 0, pretend = 0, frame = 0
 1543              		@ frame_needed = 0, uses_anonymous_args = 0
 1544              	.LVL175:
 1545 0000 F8B5     		push	{r3, r4, r5, r6, r7, lr}
 1546              		.cfi_def_cfa_offset 24
 1547              		.cfi_offset 3, -24
 1548              		.cfi_offset 4, -20
 1549              		.cfi_offset 5, -16
 1550              		.cfi_offset 6, -12
 1551              		.cfi_offset 7, -8
 1552              		.cfi_offset 14, -4
 1553              		.loc 1 128 0
 1554 0002 C46E     		ldr	r4, [r0, #108]
 1555              		.loc 1 126 0
 1556 0004 0546     		mov	r5, r0
 1557              		.loc 1 128 0
 1558 0006 0CB9     		cbnz	r4, .L208
 1559 0008 0AE0     		b	.L206
 1560              	.LVL176:
 1561              	.L215:
 1562              	.LBB41:
 1563              		.loc 1 131 0
 1564 000a 1C46     		mov	r4, r3
 1565              	.LVL177:
 1566              	.L208:
 1567              		.loc 1 130 0 discriminator 1
 1568 000c 2368     		ldr	r3, [r4]
 1569 000e 002B     		cmp	r3, #0
 1570 0010 FBD1     		bne	.L215
 1571              		.loc 1 133 0
 1572 0012 E368     		ldr	r3, [r4, #12]
 1573 0014 9889     		ldrh	r0, [r3, #12]	@ unaligned
 1574              	.LVL178:
 1575 0016 FFF7FEFF 		bl	lwip_ntohs
 1576              	.LVL179:
 1577 001a 10F00706 		ands	r6, r0, #7
 1578 001e 05D0     		beq	.L214
 1579              	.LVL180:
 1580              	.L206:
 1581              	.LBE41:
 1582              		.loc 1 141 0
 1583 0020 2846     		mov	r0, r5
 1584 0022 0121     		movs	r1, #1
 1585              		.loc 1 142 0
 1586 0024 BDE8F840 		pop	{r3, r4, r5, r6, r7, lr}
 1587              	.LVL181:
 1588              		.loc 1 141 0
 1589 0028 FFF7FEBF 		b	tcp_enqueue_flags
ARM GAS  /tmp/ccAMfTfz.s 			page 29


 1590              	.LVL182:
 1591              	.L214:
 1592              	.LBB42:
 1593              		.loc 1 135 0
 1594 002c E468     		ldr	r4, [r4, #12]
 1595              	.LVL183:
 1596 002e 0120     		movs	r0, #1
 1597 0030 A789     		ldrh	r7, [r4, #12]	@ unaligned
 1598 0032 FFF7FEFF 		bl	lwip_htons
 1599              	.LVL184:
 1600 0036 3843     		orrs	r0, r0, r7
 1601 0038 A081     		strh	r0, [r4, #12]	@ unaligned
 1602              		.loc 1 136 0
 1603 003a AB7F     		ldrb	r3, [r5, #30]	@ zero_extendqisi2
 1604 003c 43F02003 		orr	r3, r3, #32
 1605 0040 AB77     		strb	r3, [r5, #30]
 1606              	.LBE42:
 1607              		.loc 1 142 0
 1608 0042 3046     		mov	r0, r6
 1609 0044 F8BD     		pop	{r3, r4, r5, r6, r7, pc}
 1610              		.cfi_endproc
 1611              	.LFE8:
 1612              		.size	tcp_send_fin, .-tcp_send_fin
 1613 0046 00BFAFF3 		.section	.text.tcp_send_empty_ack,"ax",%progbits
 1613      0080AFF3 
 1613      0080
 1614              		.align	2
 1615              		.p2align 4,,15
 1616              		.global	tcp_send_empty_ack
 1617              		.thumb
 1618              		.thumb_func
 1619              		.type	tcp_send_empty_ack, %function
 1620              	tcp_send_empty_ack:
 1621              	.LFB14:
 1622              		.loc 1 843 0
 1623              		.cfi_startproc
 1624              		@ args = 0, pretend = 0, frame = 0
 1625              		@ frame_needed = 0, uses_anonymous_args = 0
 1626              	.LVL185:
 1627 0000 F0B5     		push	{r4, r5, r6, r7, lr}
 1628              		.cfi_def_cfa_offset 20
 1629              		.cfi_offset 4, -20
 1630              		.cfi_offset 5, -16
 1631              		.cfi_offset 6, -12
 1632              		.cfi_offset 7, -8
 1633              		.cfi_offset 14, -4
 1634 0002 0446     		mov	r4, r0
 1635 0004 83B0     		sub	sp, sp, #12
 1636              		.cfi_def_cfa_offset 32
 1637              		.loc 1 854 0
 1638 0006 006D     		ldr	r0, [r0, #80]
 1639              	.LVL186:
 1640 0008 FFF7FEFF 		bl	lwip_htonl
 1641              	.LVL187:
 1642 000c 0021     		movs	r1, #0
 1643 000e 0246     		mov	r2, r0
 1644 0010 2046     		mov	r0, r4
ARM GAS  /tmp/ccAMfTfz.s 			page 30


 1645 0012 FFF7FEFF 		bl	tcp_output_alloc_header.constprop.1
 1646              	.LVL188:
 1647              		.loc 1 855 0
 1648 0016 0546     		mov	r5, r0
 1649 0018 F0B1     		cbz	r0, .L218
 1650              		.loc 1 863 0
 1651 001a A37F     		ldrb	r3, [r4, #30]	@ zero_extendqisi2
 1652              		.loc 1 859 0
 1653 001c 4768     		ldr	r7, [r0, #4]
 1654              	.LVL189:
 1655              		.loc 1 863 0
 1656 001e 23F00303 		bic	r3, r3, #3
 1657 0022 A377     		strb	r3, [r4, #30]
 1658              		.loc 1 875 0
 1659 0024 0389     		ldrh	r3, [r0, #8]
 1660 0026 261D     		adds	r6, r4, #4
 1661 0028 0093     		str	r3, [sp]
 1662 002a 3246     		mov	r2, r6
 1663 002c 2146     		mov	r1, r4
 1664 002e 0623     		movs	r3, #6
 1665 0030 FFF7FEFF 		bl	inet_chksum_pseudo
 1666              	.LVL190:
 1667 0034 3882     		strh	r0, [r7, #16]	@ unaligned
 1668              		.loc 1 882 0
 1669 0036 617A     		ldrb	r1, [r4, #9]	@ zero_extendqisi2
 1670 0038 A37A     		ldrb	r3, [r4, #10]	@ zero_extendqisi2
 1671 003a 0091     		str	r1, [sp]
 1672 003c 0620     		movs	r0, #6
 1673 003e 3246     		mov	r2, r6
 1674 0040 2146     		mov	r1, r4
 1675 0042 0190     		str	r0, [sp, #4]
 1676 0044 2846     		mov	r0, r5
 1677 0046 FFF7FEFF 		bl	ip_output
 1678              	.LVL191:
 1679              		.loc 1 885 0
 1680 004a 2846     		mov	r0, r5
 1681 004c FFF7FEFF 		bl	pbuf_free
 1682              	.LVL192:
 1683              		.loc 1 887 0
 1684 0050 0020     		movs	r0, #0
 1685              	.LVL193:
 1686              	.L217:
 1687              		.loc 1 888 0
 1688 0052 40B2     		sxtb	r0, r0
 1689 0054 03B0     		add	sp, sp, #12
 1690              		@ sp needed
 1691 0056 F0BD     		pop	{r4, r5, r6, r7, pc}
 1692              	.LVL194:
 1693              	.L218:
 1694              		.loc 1 857 0
 1695 0058 FE20     		movs	r0, #254
 1696              	.LVL195:
 1697 005a FAE7     		b	.L217
 1698              		.cfi_endproc
 1699              	.LFE14:
 1700              		.size	tcp_send_empty_ack, .-tcp_send_empty_ack
 1701 005c AFF30080 		.section	.text.tcp_output,"ax",%progbits
ARM GAS  /tmp/ccAMfTfz.s 			page 31


 1702              		.align	2
 1703              		.p2align 4,,15
 1704              		.global	tcp_output
 1705              		.thumb
 1706              		.thumb_func
 1707              		.type	tcp_output, %function
 1708              	tcp_output:
 1709              	.LFB15:
 1710              		.loc 1 899 0
 1711              		.cfi_startproc
 1712              		@ args = 0, pretend = 0, frame = 8
 1713              		@ frame_needed = 0, uses_anonymous_args = 0
 1714              	.LVL196:
 1715 0000 2DE9F04F 		push	{r4, r5, r6, r7, r8, r9, r10, fp, lr}
 1716              		.cfi_def_cfa_offset 36
 1717              		.cfi_offset 4, -36
 1718              		.cfi_offset 5, -32
 1719              		.cfi_offset 6, -28
 1720              		.cfi_offset 7, -24
 1721              		.cfi_offset 8, -20
 1722              		.cfi_offset 9, -16
 1723              		.cfi_offset 10, -12
 1724              		.cfi_offset 11, -8
 1725              		.cfi_offset 14, -4
 1726              		.loc 1 907 0
 1727 0004 037E     		ldrb	r3, [r0, #24]	@ zero_extendqisi2
 1728 0006 012B     		cmp	r3, #1
 1729              		.loc 1 899 0
 1730 0008 85B0     		sub	sp, sp, #20
 1731              		.cfi_def_cfa_offset 56
 1732              		.loc 1 899 0
 1733 000a 0446     		mov	r4, r0
 1734              		.loc 1 907 0
 1735 000c 00F06C81 		beq	.L288
 1736              	.LVL197:
 1737              	.L220:
 1738              		.loc 1 914 0
 1739 0010 40F20003 		movw	r3, #:lower16:tcp_input_pcb
 1740 0014 C0F20003 		movt	r3, #:upper16:tcp_input_pcb
 1741 0018 1B68     		ldr	r3, [r3]
 1742 001a A342     		cmp	r3, r4
 1743 001c 00F00D81 		beq	.L276
 1744              		.loc 1 918 0
 1745 0020 B4F860A0 		ldrh	r10, [r4, #96]
 1746 0024 B4F84C20 		ldrh	r2, [r4, #76]
 1747              		.loc 1 928 0
 1748 0028 A37F     		ldrb	r3, [r4, #30]	@ zero_extendqisi2
 1749              		.loc 1 920 0
 1750 002a E56E     		ldr	r5, [r4, #108]
 1751              		.loc 1 918 0
 1752 002c 9245     		cmp	r10, r2
 1753 002e 28BF     		it	cs
 1754 0030 9246     		movcs	r10, r2
 1755              		.loc 1 928 0
 1756 0032 9807     		lsls	r0, r3, #30
 1757              		.loc 1 918 0
 1758 0034 CDF808A0 		str	r10, [sp, #8]
ARM GAS  /tmp/ccAMfTfz.s 			page 32


 1759              	.LVL198:
 1760              		.loc 1 928 0
 1761 0038 00F14081 		bmi	.L289
 1762              	.L222:
 1763              		.loc 1 935 0
 1764 003c 266F     		ldr	r6, [r4, #112]
 1765              	.LVL199:
 1766              		.loc 1 936 0
 1767 003e 0EB9     		cbnz	r6, .L230
 1768 0040 03E0     		b	.L229
 1769              	.L290:
 1770              		.loc 1 937 0
 1771 0042 1E46     		mov	r6, r3
 1772              	.LVL200:
 1773              	.L230:
 1774              		.loc 1 937 0 is_stmt 0 discriminator 1
 1775 0044 3368     		ldr	r3, [r6]
 1776 0046 002B     		cmp	r3, #0
 1777 0048 FBD1     		bne	.L290
 1778              	.L229:
 1779              		.loc 1 962 0 is_stmt 1 discriminator 1
 1780 004a 002D     		cmp	r5, #0
 1781 004c 00F04981 		beq	.L287
 1782              	.LBB47:
 1783              	.LBB48:
 1784              		.loc 1 1106 0
 1785 0050 40F20003 		movw	r3, #:lower16:tcp_ticks
 1786              		.loc 1 1163 0
 1787 0054 40F20009 		movw	r9, #:lower16:lwip_stats
 1788              		.loc 1 1106 0
 1789 0058 C0F20003 		movt	r3, #:upper16:tcp_ticks
 1790              		.loc 1 1163 0
 1791 005c C0F20009 		movt	r9, #:upper16:lwip_stats
 1792              		.loc 1 1106 0
 1793 0060 0393     		str	r3, [sp, #12]
 1794              	.LBB49:
 1795              		.loc 1 1073 0
 1796 0062 04F10408 		add	r8, r4, #4
 1797              	.LBE49:
 1798              		.loc 1 1092 0
 1799 0066 0027     		movs	r7, #0
 1800 0068 B1E0     		b	.L228
 1801              	.LVL201:
 1802              	.L231:
 1803              	.LBE48:
 1804              	.LBE47:
 1805              		.loc 1 973 0
 1806 006a 236F     		ldr	r3, [r4, #112]
 1807 006c 5BB1     		cbz	r3, .L232
 1808              		.loc 1 973 0 is_stmt 0 discriminator 2
 1809 006e A37F     		ldrb	r3, [r4, #30]	@ zero_extendqisi2
 1810 0070 13F0440F 		tst	r3, #68
 1811 0074 07D1     		bne	.L232
 1812              		.loc 1 973 0 discriminator 1
 1813 0076 E26E     		ldr	r2, [r4, #108]
 1814 0078 002A     		cmp	r2, #0
 1815 007a 00F00881 		beq	.L233
ARM GAS  /tmp/ccAMfTfz.s 			page 33


 1816 007e 1168     		ldr	r1, [r2]
 1817 0080 0029     		cmp	r1, #0
 1818 0082 00F0FF80 		beq	.L291
 1819              	.L232:
 1820              		.loc 1 988 0 is_stmt 1
 1821 0086 227E     		ldrb	r2, [r4, #24]	@ zero_extendqisi2
 1822              		.loc 1 986 0
 1823 0088 2B68     		ldr	r3, [r5]
 1824              		.loc 1 988 0
 1825 008a 022A     		cmp	r2, #2
 1826              		.loc 1 986 0
 1827 008c E366     		str	r3, [r4, #108]
 1828              		.loc 1 988 0
 1829 008e 0ED0     		beq	.L235
 1830              		.loc 1 989 0
 1831 0090 D5F80CA0 		ldr	r10, [r5, #12]
 1832 0094 1020     		movs	r0, #16
 1833 0096 BAF80CB0 		ldrh	fp, [r10, #12]	@ unaligned
 1834 009a FFF7FEFF 		bl	lwip_htons
 1835              	.LVL202:
 1836 009e 40EA0B00 		orr	r0, r0, fp
 1837 00a2 AAF80C00 		strh	r0, [r10, #12]	@ unaligned
 1838              		.loc 1 990 0
 1839 00a6 A37F     		ldrb	r3, [r4, #30]	@ zero_extendqisi2
 1840 00a8 23F00303 		bic	r3, r3, #3
 1841 00ac A377     		strb	r3, [r4, #30]
 1842              	.L235:
 1843              	.LVL203:
 1844              	.LBB53:
 1845              	.LBB51:
 1846              		.loc 1 1060 0
 1847 00ae A06A     		ldr	r0, [r4, #40]
 1848 00b0 D5F80CA0 		ldr	r10, [r5, #12]
 1849 00b4 FFF7FEFF 		bl	lwip_htonl
 1850              	.LVL204:
 1851 00b8 CAF80800 		str	r0, [r10, #8]	@ unaligned
 1852              		.loc 1 1063 0
 1853 00bc E08D     		ldrh	r0, [r4, #46]
 1854 00be D5F80CA0 		ldr	r10, [r5, #12]
 1855 00c2 FFF7FEFF 		bl	lwip_htons
 1856              	.LVL205:
 1857              		.loc 1 1065 0
 1858 00c6 E18D     		ldrh	r1, [r4, #46]
 1859 00c8 A26A     		ldr	r2, [r4, #40]
 1860              		.loc 1 1063 0
 1861 00ca AAF80E00 		strh	r0, [r10, #14]	@ unaligned
 1862              		.loc 1 1065 0
 1863 00ce 0A44     		add	r2, r2, r1
 1864 00d0 2263     		str	r2, [r4, #48]
 1865              		.loc 1 1070 0
 1866 00d2 AB7A     		ldrb	r3, [r5, #10]	@ zero_extendqisi2
 1867              		.loc 1 1069 0
 1868 00d4 D5F80CA0 		ldr	r10, [r5, #12]
 1869              	.LVL206:
 1870              		.loc 1 1070 0
 1871 00d8 DA07     		lsls	r2, r3, #31
 1872 00da 00F18D80 		bmi	.L292
ARM GAS  /tmp/ccAMfTfz.s 			page 34


 1873              	.LVL207:
 1874              	.L237:
 1875              		.loc 1 1091 0
 1876 00de B4F93430 		ldrsh	r3, [r4, #52]
 1877 00e2 0133     		adds	r3, r3, #1
 1878              		.loc 1 1097 0
 1879 00e4 2368     		ldr	r3, [r4]
 1880              		.loc 1 1092 0
 1881 00e6 08BF     		it	eq
 1882 00e8 A786     		strheq	r7, [r4, #52]	@ movhi
 1883              		.loc 1 1097 0
 1884 00ea 33B9     		cbnz	r3, .L239
 1885              		.loc 1 1098 0
 1886 00ec 4046     		mov	r0, r8
 1887 00ee FFF7FEFF 		bl	ip_route
 1888              	.LVL208:
 1889              		.loc 1 1099 0
 1890 00f2 0028     		cmp	r0, #0
 1891 00f4 30D0     		beq	.L240
 1892              		.loc 1 1102 0
 1893 00f6 4368     		ldr	r3, [r0, #4]
 1894 00f8 2360     		str	r3, [r4]
 1895              	.LVL209:
 1896              	.L239:
 1897              		.loc 1 1105 0
 1898 00fa A36B     		ldr	r3, [r4, #56]
 1899 00fc 002B     		cmp	r3, #0
 1900 00fe 00F08780 		beq	.L293
 1901              	.L241:
 1902              		.loc 1 1115 0
 1903 0102 6868     		ldr	r0, [r5, #4]
 1904 0104 D5F80CA0 		ldr	r10, [r5, #12]
 1905 0108 4268     		ldr	r2, [r0, #4]
 1906              		.loc 1 1118 0
 1907 010a 0389     		ldrh	r3, [r0, #8]
 1908              		.loc 1 1117 0
 1909 010c 4189     		ldrh	r1, [r0, #10]
 1910              		.loc 1 1120 0
 1911 010e C0F804A0 		str	r10, [r0, #4]
 1912              		.loc 1 1115 0
 1913 0112 C2EB0A02 		rsb	r2, r2, r10
 1914 0116 92B2     		uxth	r2, r2
 1915              	.LVL210:
 1916              		.loc 1 1118 0
 1917 0118 9B1A     		subs	r3, r3, r2
 1918 011a 9BB2     		uxth	r3, r3
 1919              		.loc 1 1117 0
 1920 011c 8A1A     		subs	r2, r1, r2
 1921              	.LVL211:
 1922 011e 4281     		strh	r2, [r0, #10]	@ movhi
 1923              		.loc 1 1118 0
 1924 0120 0381     		strh	r3, [r0, #8]	@ movhi
 1925              		.loc 1 1158 0
 1926 0122 2146     		mov	r1, r4
 1927              		.loc 1 1122 0
 1928 0124 8AF81070 		strb	r7, [r10, #16]
 1929 0128 8AF81170 		strb	r7, [r10, #17]
ARM GAS  /tmp/ccAMfTfz.s 			page 35


 1930              		.loc 1 1158 0
 1931 012c 4246     		mov	r2, r8
 1932 012e 0093     		str	r3, [sp]
 1933 0130 0623     		movs	r3, #6
 1934 0132 FFF7FEFF 		bl	inet_chksum_pseudo
 1935              	.LVL212:
 1936              		.loc 1 1163 0
 1937 0136 B9F89030 		ldrh	r3, [r9, #144]
 1938              		.loc 1 1158 0
 1939 013a AAF81000 		strh	r0, [r10, #16]	@ unaligned
 1940              		.loc 1 1163 0
 1941 013e 0133     		adds	r3, r3, #1
 1942 0140 A9F89030 		strh	r3, [r9, #144]	@ movhi
 1943              		.loc 1 1169 0
 1944 0144 627A     		ldrb	r2, [r4, #9]	@ zero_extendqisi2
 1945 0146 A37A     		ldrb	r3, [r4, #10]	@ zero_extendqisi2
 1946 0148 6868     		ldr	r0, [r5, #4]
 1947 014a 0092     		str	r2, [sp]
 1948 014c 0622     		movs	r2, #6
 1949 014e 0192     		str	r2, [sp, #4]
 1950 0150 2146     		mov	r1, r4
 1951 0152 4246     		mov	r2, r8
 1952 0154 FFF7FEFF 		bl	ip_output
 1953              	.LVL213:
 1954              	.L240:
 1955              	.LBE51:
 1956              	.LBE53:
 1957              		.loc 1 994 0
 1958 0158 EB68     		ldr	r3, [r5, #12]
 1959 015a 5868     		ldr	r0, [r3, #4]	@ unaligned
 1960 015c FFF7FEFF 		bl	lwip_ntohl
 1961              	.LVL214:
 1962 0160 EA68     		ldr	r2, [r5, #12]
 1963 0162 B5F808A0 		ldrh	r10, [r5, #8]
 1964 0166 8346     		mov	fp, r0
 1965 0168 9089     		ldrh	r0, [r2, #12]	@ unaligned
 1966 016a FFF7FEFF 		bl	lwip_ntohs
 1967              	.LVL215:
 1968 016e 10F00300 		ands	r0, r0, #3
 1969 0172 18BF     		it	ne
 1970 0174 0120     		movne	r0, #1
 1971              		.loc 1 995 0
 1972 0176 226D     		ldr	r2, [r4, #80]
 1973              		.loc 1 994 0
 1974 0178 0AEB0003 		add	r3, r10, r0
 1975 017c 5B44     		add	r3, r3, fp
 1976              	.LVL216:
 1977              		.loc 1 995 0
 1978 017e D21A     		subs	r2, r2, r3
 1979 0180 002A     		cmp	r2, #0
 1980              		.loc 1 996 0
 1981 0182 B8BF     		it	lt
 1982 0184 2365     		strlt	r3, [r4, #80]
 1983              		.loc 1 999 0
 1984 0186 EB68     		ldr	r3, [r5, #12]
 1985              	.LVL217:
 1986 0188 B5F808B0 		ldrh	fp, [r5, #8]
ARM GAS  /tmp/ccAMfTfz.s 			page 36


 1987              	.LVL218:
 1988 018c 9889     		ldrh	r0, [r3, #12]	@ unaligned
 1989 018e FFF7FEFF 		bl	lwip_ntohs
 1990              	.LVL219:
 1991 0192 10F00300 		ands	r0, r0, #3
 1992 0196 18BF     		it	ne
 1993 0198 0120     		movne	r0, #1
 1994 019a 5844     		add	r0, r0, fp
 1995 019c 0028     		cmp	r0, #0
 1996 019e 6DD0     		beq	.L243
 1997              		.loc 1 1002 0
 1998 01a0 236F     		ldr	r3, [r4, #112]
 1999              		.loc 1 1000 0
 2000 01a2 2F60     		str	r7, [r5]
 2001              		.loc 1 1002 0
 2002 01a4 002B     		cmp	r3, #0
 2003 01a6 3CD0     		beq	.L294
 2004              		.loc 1 1010 0
 2005 01a8 EB68     		ldr	r3, [r5, #12]
 2006 01aa 5868     		ldr	r0, [r3, #4]	@ unaligned
 2007 01ac FFF7FEFF 		bl	lwip_ntohl
 2008              	.LVL220:
 2009 01b0 F368     		ldr	r3, [r6, #12]
 2010 01b2 8346     		mov	fp, r0
 2011 01b4 5868     		ldr	r0, [r3, #4]	@ unaligned
 2012 01b6 FFF7FEFF 		bl	lwip_ntohl
 2013              	.LVL221:
 2014 01ba C0EB0B00 		rsb	r0, r0, fp
 2015 01be 0028     		cmp	r0, #0
 2016              		.loc 1 1021 0
 2017 01c0 A4BF     		itt	ge
 2018 01c2 3560     		strge	r5, [r6]
 2019              	.LVL222:
 2020 01c4 2E46     		movge	r6, r5
 2021              		.loc 1 1010 0
 2022 01c6 3CDB     		blt	.L295
 2023              	.LVL223:
 2024              	.L245:
 2025              		.loc 1 1029 0
 2026 01c8 E56E     		ldr	r5, [r4, #108]
 2027              	.LVL224:
 2028              		.loc 1 962 0
 2029 01ca 002D     		cmp	r5, #0
 2030 01cc 2ED0     		beq	.L296
 2031              	.LVL225:
 2032              	.L228:
 2033              		.loc 1 963 0 discriminator 2
 2034 01ce EB68     		ldr	r3, [r5, #12]
 2035 01d0 5868     		ldr	r0, [r3, #4]	@ unaligned
 2036 01d2 FFF7FEFF 		bl	lwip_ntohl
 2037              	.LVL226:
 2038 01d6 2A89     		ldrh	r2, [r5, #8]
 2039 01d8 A36C     		ldr	r3, [r4, #72]
 2040 01da D31A     		subs	r3, r2, r3
 2041 01dc 1844     		add	r0, r0, r3
 2042              		.loc 1 962 0 discriminator 2
 2043 01de 029B     		ldr	r3, [sp, #8]
ARM GAS  /tmp/ccAMfTfz.s 			page 37


 2044 01e0 8342     		cmp	r3, r0
 2045 01e2 7ED3     		bcc	.L287
 2046              		.loc 1 964 0
 2047 01e4 EB68     		ldr	r3, [r5, #12]
 2048 01e6 9889     		ldrh	r0, [r3, #12]	@ unaligned
 2049 01e8 FFF7FEFF 		bl	lwip_ntohs
 2050              	.LVL227:
 2051 01ec 4107     		lsls	r1, r0, #29
 2052 01ee 7FF53CAF 		bpl	.L231
 2053              		.loc 1 964 0 is_stmt 0 discriminator 1
 2054 01f2 FFF7FEFF 		bl	port_halt
 2055              	.LVL228:
 2056 01f6 38E7     		b	.L231
 2057              	.LVL229:
 2058              	.L292:
 2059              	.LBB54:
 2060              	.LBB52:
 2061              	.LBB50:
 2062              		.loc 1 1073 0 is_stmt 1
 2063 01f8 4146     		mov	r1, r8
 2064 01fa 4FF40670 		mov	r0, #536
 2065 01fe FFF7FEFF 		bl	tcp_eff_send_mss
 2066              	.LVL230:
 2067              		.loc 1 1077 0
 2068 0202 40F00170 		orr	r0, r0, #33816576
 2069              	.LVL231:
 2070 0206 FFF7FEFF 		bl	lwip_htonl
 2071              	.LVL232:
 2072 020a CAF81400 		str	r0, [r10, #20]
 2073              	.LVL233:
 2074 020e 66E7     		b	.L237
 2075              	.LVL234:
 2076              	.L293:
 2077              	.LBE50:
 2078              		.loc 1 1106 0
 2079 0210 039A     		ldr	r2, [sp, #12]
 2080 0212 1368     		ldr	r3, [r2]
 2081              		.loc 1 1107 0
 2082 0214 EA68     		ldr	r2, [r5, #12]
 2083              		.loc 1 1106 0
 2084 0216 A363     		str	r3, [r4, #56]
 2085              		.loc 1 1107 0
 2086 0218 5068     		ldr	r0, [r2, #4]	@ unaligned
 2087 021a FFF7FEFF 		bl	lwip_ntohl
 2088              	.LVL235:
 2089 021e E063     		str	r0, [r4, #60]
 2090 0220 6FE7     		b	.L241
 2091              	.L294:
 2092              	.LBE52:
 2093              	.LBE54:
 2094              		.loc 1 1003 0
 2095 0222 2567     		str	r5, [r4, #112]
 2096              	.LVL236:
 2097 0224 2E46     		mov	r6, r5
 2098              		.loc 1 1029 0
 2099 0226 E56E     		ldr	r5, [r4, #108]
 2100              	.LVL237:
ARM GAS  /tmp/ccAMfTfz.s 			page 38


 2101              		.loc 1 962 0
 2102 0228 002D     		cmp	r5, #0
 2103 022a D0D1     		bne	.L228
 2104              	.LVL238:
 2105              	.L296:
 2106 022c A37F     		ldrb	r3, [r4, #30]	@ zero_extendqisi2
 2107              	.LVL239:
 2108              	.L251:
 2109              		.loc 1 1034 0
 2110 022e 0022     		movs	r2, #0
 2111              		.loc 1 1038 0
 2112 0230 03F07F03 		and	r3, r3, #127
 2113              		.loc 1 1034 0
 2114 0234 A4F86A20 		strh	r2, [r4, #106]	@ movhi
 2115              		.loc 1 1038 0
 2116 0238 A377     		strb	r3, [r4, #30]
 2117              	.LVL240:
 2118              	.L276:
 2119              		.loc 1 1040 0
 2120 023a 0020     		movs	r0, #0
 2121 023c 05B0     		add	sp, sp, #20
 2122              		@ sp needed
 2123 023e BDE8F08F 		pop	{r4, r5, r6, r7, r8, r9, r10, fp, pc}
 2124              	.LVL241:
 2125              	.L295:
 2126              	.LBB55:
 2127              		.loc 1 1013 0
 2128 0242 236F     		ldr	r3, [r4, #112]
 2129              		.loc 1 1012 0
 2130 0244 04F1700B 		add	fp, r4, #112
 2131              	.LVL242:
 2132              		.loc 1 1013 0
 2133 0248 2BB9     		cbnz	r3, .L248
 2134 024a 13E0     		b	.L247
 2135              	.L249:
 2136              		.loc 1 1015 0
 2137 024c DBF800B0 		ldr	fp, [fp]
 2138              	.LVL243:
 2139              		.loc 1 1013 0
 2140 0250 DBF80030 		ldr	r3, [fp]
 2141 0254 73B1     		cbz	r3, .L247
 2142              	.L248:
 2143              		.loc 1 1014 0 discriminator 2
 2144 0256 DB68     		ldr	r3, [r3, #12]
 2145 0258 5868     		ldr	r0, [r3, #4]	@ unaligned
 2146 025a FFF7FEFF 		bl	lwip_ntohl
 2147              	.LVL244:
 2148 025e EB68     		ldr	r3, [r5, #12]
 2149 0260 8246     		mov	r10, r0
 2150 0262 5868     		ldr	r0, [r3, #4]	@ unaligned
 2151 0264 FFF7FEFF 		bl	lwip_ntohl
 2152              	.LVL245:
 2153 0268 C0EB0A00 		rsb	r0, r0, r10
 2154              		.loc 1 1013 0 discriminator 2
 2155 026c 0028     		cmp	r0, #0
 2156 026e EDDB     		blt	.L249
 2157 0270 DBF80030 		ldr	r3, [fp]
ARM GAS  /tmp/ccAMfTfz.s 			page 39


 2158              	.L247:
 2159              		.loc 1 1017 0
 2160 0274 2B60     		str	r3, [r5]
 2161              		.loc 1 1018 0
 2162 0276 CBF80050 		str	r5, [fp]
 2163              	.LBE55:
 2164 027a A5E7     		b	.L245
 2165              	.LVL246:
 2166              	.L243:
 2167              		.loc 1 1027 0
 2168 027c 2846     		mov	r0, r5
 2169 027e FFF7FEFF 		bl	tcp_seg_free
 2170              	.LVL247:
 2171 0282 A1E7     		b	.L245
 2172              	.LVL248:
 2173              	.L291:
 2174              		.loc 1 973 0 discriminator 1
 2175 0284 1089     		ldrh	r0, [r2, #8]
 2176 0286 E18E     		ldrh	r1, [r4, #54]
 2177 0288 8842     		cmp	r0, r1
 2178 028a BFF4FCAE 		bcs	.L232
 2179              	.L233:
 2180              		.loc 1 973 0 is_stmt 0 discriminator 2
 2181 028e B4F86610 		ldrh	r1, [r4, #102]
 2182 0292 0029     		cmp	r1, #0
 2183 0294 3FF4F7AE 		beq	.L232
 2184              		.loc 1 973 0 discriminator 3
 2185 0298 B4F86810 		ldrh	r1, [r4, #104]
 2186 029c 0729     		cmp	r1, #7
 2187 029e 3FF6F2AE 		bhi	.L232
 2188              		.loc 1 973 0
 2189 02a2 13F0A00F 		tst	r3, #160
 2190 02a6 7FF4EEAE 		bne	.L232
 2191              	.L227:
 2192              		.loc 1 1032 0 is_stmt 1
 2193 02aa 002A     		cmp	r2, #0
 2194 02ac BFD0     		beq	.L251
 2195              		.loc 1 1038 0
 2196 02ae 03F07F03 		and	r3, r3, #127
 2197              		.loc 1 1040 0
 2198 02b2 0020     		movs	r0, #0
 2199              		.loc 1 1038 0
 2200 02b4 A377     		strb	r3, [r4, #30]
 2201              		.loc 1 1040 0
 2202 02b6 05B0     		add	sp, sp, #20
 2203              		@ sp needed
 2204 02b8 BDE8F08F 		pop	{r4, r5, r6, r7, r8, r9, r10, fp, pc}
 2205              	.LVL249:
 2206              	.L289:
 2207              		.loc 1 928 0 discriminator 1
 2208 02bc 5DB1     		cbz	r5, .L224
 2209              		.loc 1 930 0
 2210 02be EB68     		ldr	r3, [r5, #12]
 2211 02c0 5868     		ldr	r0, [r3, #4]	@ unaligned
 2212 02c2 FFF7FEFF 		bl	lwip_ntohl
 2213              	.LVL250:
 2214 02c6 2A89     		ldrh	r2, [r5, #8]
ARM GAS  /tmp/ccAMfTfz.s 			page 40


 2215 02c8 A36C     		ldr	r3, [r4, #72]
 2216 02ca D31A     		subs	r3, r2, r3
 2217              		.loc 1 929 0
 2218 02cc 029A     		ldr	r2, [sp, #8]
 2219              		.loc 1 930 0
 2220 02ce 1844     		add	r0, r0, r3
 2221              		.loc 1 929 0
 2222 02d0 8242     		cmp	r2, r0
 2223 02d2 BFF4B3AE 		bcs	.L222
 2224              	.L224:
 2225              		.loc 1 931 0
 2226 02d6 2046     		mov	r0, r4
 2227              		.loc 1 1040 0
 2228 02d8 05B0     		add	sp, sp, #20
 2229              		@ sp needed
 2230 02da BDE8F04F 		pop	{r4, r5, r6, r7, r8, r9, r10, fp, lr}
 2231              	.LVL251:
 2232              		.loc 1 931 0
 2233 02de FFF7FEBF 		b	tcp_send_empty_ack
 2234              	.LVL252:
 2235              	.L287:
 2236 02e2 E26E     		ldr	r2, [r4, #108]
 2237 02e4 A37F     		ldrb	r3, [r4, #30]	@ zero_extendqisi2
 2238 02e6 E0E7     		b	.L227
 2239              	.LVL253:
 2240              	.L288:
 2241              		.loc 1 907 0 discriminator 1
 2242 02e8 FFF7FEFF 		bl	port_halt
 2243              	.LVL254:
 2244 02ec 90E6     		b	.L220
 2245              		.cfi_endproc
 2246              	.LFE15:
 2247              		.size	tcp_output, .-tcp_output
 2248 02ee 00BF     		.section	.text.tcp_rst,"ax",%progbits
 2249              		.align	2
 2250              		.p2align 4,,15
 2251              		.global	tcp_rst
 2252              		.thumb
 2253              		.thumb_func
 2254              		.type	tcp_rst, %function
 2255              	tcp_rst:
 2256              	.LFB17:
 2257              		.loc 1 1198 0
 2258              		.cfi_startproc
 2259              		@ args = 8, pretend = 0, frame = 0
 2260              		@ frame_needed = 0, uses_anonymous_args = 0
 2261              	.LVL255:
 2262 0000 2DE9F047 		push	{r4, r5, r6, r7, r8, r9, r10, lr}
 2263              		.cfi_def_cfa_offset 32
 2264              		.cfi_offset 4, -32
 2265              		.cfi_offset 5, -28
 2266              		.cfi_offset 6, -24
 2267              		.cfi_offset 7, -20
 2268              		.cfi_offset 8, -16
 2269              		.cfi_offset 9, -12
 2270              		.cfi_offset 10, -8
 2271              		.cfi_offset 14, -4
ARM GAS  /tmp/ccAMfTfz.s 			page 41


 2272 0004 82B0     		sub	sp, sp, #8
 2273              		.cfi_def_cfa_offset 40
 2274              		.loc 1 1198 0
 2275 0006 0746     		mov	r7, r0
 2276 0008 0E46     		mov	r6, r1
 2277 000a 9146     		mov	r9, r2
 2278              		.loc 1 1201 0
 2279 000c 0120     		movs	r0, #1
 2280              	.LVL256:
 2281 000e 1421     		movs	r1, #20
 2282              	.LVL257:
 2283 0010 0022     		movs	r2, #0
 2284              	.LVL258:
 2285              		.loc 1 1198 0
 2286 0012 9846     		mov	r8, r3
 2287 0014 BDF82840 		ldrh	r4, [sp, #40]
 2288 0018 BDF82CA0 		ldrh	r10, [sp, #44]
 2289              		.loc 1 1201 0
 2290 001c FFF7FEFF 		bl	pbuf_alloc
 2291              	.LVL259:
 2292              		.loc 1 1202 0
 2293 0020 0546     		mov	r5, r0
 2294 0022 0028     		cmp	r0, #0
 2295 0024 46D0     		beq	.L297
 2296              		.loc 1 1206 0
 2297 0026 4389     		ldrh	r3, [r0, #10]
 2298 0028 132B     		cmp	r3, #19
 2299 002a 40D9     		bls	.L300
 2300              	.LVL260:
 2301              	.L299:
 2302              		.loc 1 1210 0
 2303 002c 2046     		mov	r0, r4
 2304              		.loc 1 1209 0
 2305 002e 6C68     		ldr	r4, [r5, #4]
 2306              	.LVL261:
 2307              		.loc 1 1210 0
 2308 0030 FFF7FEFF 		bl	lwip_htons
 2309              	.LVL262:
 2310 0034 2080     		strh	r0, [r4]	@ unaligned
 2311              		.loc 1 1211 0
 2312 0036 5046     		mov	r0, r10
 2313 0038 FFF7FEFF 		bl	lwip_htons
 2314              	.LVL263:
 2315 003c 6080     		strh	r0, [r4, #2]	@ unaligned
 2316              		.loc 1 1212 0
 2317 003e 3846     		mov	r0, r7
 2318 0040 FFF7FEFF 		bl	lwip_htonl
 2319              	.LVL264:
 2320 0044 6060     		str	r0, [r4, #4]	@ unaligned
 2321              		.loc 1 1213 0
 2322 0046 3046     		mov	r0, r6
 2323 0048 FFF7FEFF 		bl	lwip_htonl
 2324              	.LVL265:
 2325 004c A060     		str	r0, [r4, #8]	@ unaligned
 2326              		.loc 1 1214 0
 2327 004e 45F21400 		movw	r0, #20500
 2328 0052 FFF7FEFF 		bl	lwip_htons
ARM GAS  /tmp/ccAMfTfz.s 			page 42


 2329              	.LVL266:
 2330              		.loc 1 1220 0
 2331 0056 2B89     		ldrh	r3, [r5, #8]
 2332              		.loc 1 1214 0
 2333 0058 A081     		strh	r0, [r4, #12]	@ unaligned
 2334              		.loc 1 1215 0
 2335 005a 0026     		movs	r6, #0
 2336              	.LVL267:
 2337 005c 0821     		movs	r1, #8
 2338 005e 6022     		movs	r2, #96
 2339              		.loc 1 1223 0
 2340 0060 40F20007 		movw	r7, #:lower16:lwip_stats
 2341              	.LVL268:
 2342              		.loc 1 1215 0
 2343 0064 A173     		strb	r1, [r4, #14]
 2344 0066 E273     		strb	r2, [r4, #15]
 2345              		.loc 1 1216 0
 2346 0068 2674     		strb	r6, [r4, #16]
 2347 006a 6674     		strb	r6, [r4, #17]
 2348              		.loc 1 1217 0
 2349 006c A674     		strb	r6, [r4, #18]
 2350 006e E674     		strb	r6, [r4, #19]
 2351              		.loc 1 1220 0
 2352 0070 4946     		mov	r1, r9
 2353 0072 0093     		str	r3, [sp]
 2354 0074 4246     		mov	r2, r8
 2355              		.loc 1 1223 0
 2356 0076 C0F20007 		movt	r7, #:upper16:lwip_stats
 2357              		.loc 1 1220 0
 2358 007a 2846     		mov	r0, r5
 2359 007c 0623     		movs	r3, #6
 2360 007e FFF7FEFF 		bl	inet_chksum_pseudo
 2361              	.LVL269:
 2362              		.loc 1 1223 0
 2363 0082 B7F890E0 		ldrh	lr, [r7, #144]
 2364              		.loc 1 1220 0
 2365 0086 2082     		strh	r0, [r4, #16]	@ unaligned
 2366              		.loc 1 1226 0
 2367 0088 0623     		movs	r3, #6
 2368              		.loc 1 1223 0
 2369 008a 0EF10104 		add	r4, lr, #1
 2370              	.LVL270:
 2371              		.loc 1 1226 0
 2372 008e 0193     		str	r3, [sp, #4]
 2373 0090 0096     		str	r6, [sp]
 2374 0092 4946     		mov	r1, r9
 2375 0094 4246     		mov	r2, r8
 2376 0096 2846     		mov	r0, r5
 2377 0098 FF23     		movs	r3, #255
 2378              		.loc 1 1223 0
 2379 009a A7F89040 		strh	r4, [r7, #144]	@ movhi
 2380              		.loc 1 1226 0
 2381 009e FFF7FEFF 		bl	ip_output
 2382              	.LVL271:
 2383              		.loc 1 1227 0
 2384 00a2 2846     		mov	r0, r5
 2385              		.loc 1 1229 0
ARM GAS  /tmp/ccAMfTfz.s 			page 43


 2386 00a4 02B0     		add	sp, sp, #8
 2387              		@ sp needed
 2388 00a6 BDE8F047 		pop	{r4, r5, r6, r7, r8, r9, r10, lr}
 2389              	.LVL272:
 2390              		.loc 1 1227 0
 2391 00aa FFF7FEBF 		b	pbuf_free
 2392              	.LVL273:
 2393              	.L300:
 2394              		.loc 1 1206 0 discriminator 1
 2395 00ae FFF7FEFF 		bl	port_halt
 2396              	.LVL274:
 2397 00b2 BBE7     		b	.L299
 2398              	.LVL275:
 2399              	.L297:
 2400              		.loc 1 1229 0
 2401 00b4 02B0     		add	sp, sp, #8
 2402              		@ sp needed
 2403 00b6 BDE8F087 		pop	{r4, r5, r6, r7, r8, r9, r10, pc}
 2404              		.cfi_endproc
 2405              	.LFE17:
 2406              		.size	tcp_rst, .-tcp_rst
 2407 00ba 00BFAFF3 		.section	.text.tcp_rexmit_rto,"ax",%progbits
 2407      0080
 2408              		.align	2
 2409              		.p2align 4,,15
 2410              		.global	tcp_rexmit_rto
 2411              		.thumb
 2412              		.thumb_func
 2413              		.type	tcp_rexmit_rto, %function
 2414              	tcp_rexmit_rto:
 2415              	.LFB18:
 2416              		.loc 1 1240 0
 2417              		.cfi_startproc
 2418              		@ args = 0, pretend = 0, frame = 0
 2419              		@ frame_needed = 0, uses_anonymous_args = 0
 2420              		@ link register save eliminated.
 2421              	.LVL276:
 2422              		.loc 1 1243 0
 2423 0000 016F     		ldr	r1, [r0, #112]
 2424              		.loc 1 1240 0
 2425 0002 10B4     		push	{r4}
 2426              		.cfi_def_cfa_offset 4
 2427              		.cfi_offset 4, -4
 2428              		.loc 1 1243 0
 2429 0004 99B1     		cbz	r1, .L301
 2430 0006 0A46     		mov	r2, r1
 2431 0008 00E0     		b	.L304
 2432              	.LVL277:
 2433              	.L305:
 2434              		.loc 1 1248 0
 2435 000a 1A46     		mov	r2, r3
 2436              	.LVL278:
 2437              	.L304:
 2438              		.loc 1 1248 0 is_stmt 0 discriminator 1
 2439 000c 1368     		ldr	r3, [r2]
 2440 000e 002B     		cmp	r3, #0
 2441 0010 FBD1     		bne	.L305
ARM GAS  /tmp/ccAMfTfz.s 			page 44


 2442              		.loc 1 1250 0 is_stmt 1
 2443 0012 C46E     		ldr	r4, [r0, #108]
 2444 0014 1460     		str	r4, [r2]
 2445              		.loc 1 1258 0
 2446 0016 90F84620 		ldrb	r2, [r0, #70]	@ zero_extendqisi2
 2447              	.LVL279:
 2448              		.loc 1 1252 0
 2449 001a C166     		str	r1, [r0, #108]
 2450              		.loc 1 1258 0
 2451 001c 0132     		adds	r2, r2, #1
 2452 001e 80F84620 		strb	r2, [r0, #70]
 2453              		.loc 1 1254 0
 2454 0022 0367     		str	r3, [r0, #112]
 2455              		.loc 1 1261 0
 2456 0024 8363     		str	r3, [r0, #56]
 2457              		.loc 1 1265 0
 2458 0026 5DF8044B 		ldr	r4, [sp], #4
 2459              		.loc 1 1264 0
 2460 002a FFF7FEBF 		b	tcp_output
 2461              	.LVL280:
 2462              	.L301:
 2463              		.loc 1 1265 0
 2464 002e 5DF8044B 		ldr	r4, [sp], #4
 2465 0032 7047     		bx	lr
 2466              		.cfi_endproc
 2467              	.LFE18:
 2468              		.size	tcp_rexmit_rto, .-tcp_rexmit_rto
 2469 0034 AFF30080 		.section	.text.tcp_rexmit,"ax",%progbits
 2469      AFF30080 
 2469      AFF30080 
 2470              		.align	2
 2471              		.p2align 4,,15
 2472              		.global	tcp_rexmit
 2473              		.thumb
 2474              		.thumb_func
 2475              		.type	tcp_rexmit, %function
 2476              	tcp_rexmit:
 2477              	.LFB19:
 2478              		.loc 1 1276 0
 2479              		.cfi_startproc
 2480              		@ args = 0, pretend = 0, frame = 0
 2481              		@ frame_needed = 0, uses_anonymous_args = 0
 2482              	.LVL281:
 2483 0000 F8B5     		push	{r3, r4, r5, r6, r7, lr}
 2484              		.cfi_def_cfa_offset 24
 2485              		.cfi_offset 3, -24
 2486              		.cfi_offset 4, -20
 2487              		.cfi_offset 5, -16
 2488              		.cfi_offset 6, -12
 2489              		.cfi_offset 7, -8
 2490              		.cfi_offset 14, -4
 2491              		.loc 1 1280 0
 2492 0002 066F     		ldr	r6, [r0, #112]
 2493              		.loc 1 1276 0
 2494 0004 0746     		mov	r7, r0
 2495              		.loc 1 1280 0
 2496 0006 0EB3     		cbz	r6, .L306
ARM GAS  /tmp/ccAMfTfz.s 			page 45


 2497              	.LVL282:
 2498              		.loc 1 1287 0
 2499 0008 3268     		ldr	r2, [r6]
 2500              		.loc 1 1290 0
 2501 000a C36E     		ldr	r3, [r0, #108]
 2502              		.loc 1 1287 0
 2503 000c 0267     		str	r2, [r0, #112]
 2504              		.loc 1 1289 0
 2505 000e 00F16C04 		add	r4, r0, #108
 2506              	.LVL283:
 2507              		.loc 1 1290 0
 2508 0012 1BB9     		cbnz	r3, .L309
 2509 0014 0FE0     		b	.L308
 2510              	.LVL284:
 2511              	.L310:
 2512              		.loc 1 1292 0
 2513 0016 2468     		ldr	r4, [r4]
 2514              	.LVL285:
 2515              		.loc 1 1290 0
 2516 0018 2368     		ldr	r3, [r4]
 2517 001a 63B1     		cbz	r3, .L308
 2518              	.L309:
 2519              		.loc 1 1291 0 discriminator 2
 2520 001c DB68     		ldr	r3, [r3, #12]
 2521 001e 5868     		ldr	r0, [r3, #4]	@ unaligned
 2522 0020 FFF7FEFF 		bl	lwip_ntohl
 2523              	.LVL286:
 2524 0024 F368     		ldr	r3, [r6, #12]
 2525 0026 0546     		mov	r5, r0
 2526 0028 5868     		ldr	r0, [r3, #4]	@ unaligned
 2527 002a FFF7FEFF 		bl	lwip_ntohl
 2528              	.LVL287:
 2529 002e 281A     		subs	r0, r5, r0
 2530              		.loc 1 1290 0 discriminator 2
 2531 0030 0028     		cmp	r0, #0
 2532 0032 F0DB     		blt	.L310
 2533 0034 2368     		ldr	r3, [r4]
 2534              	.L308:
 2535              		.loc 1 1294 0
 2536 0036 3360     		str	r3, [r6]
 2537              		.loc 1 1295 0
 2538 0038 2660     		str	r6, [r4]
 2539              		.loc 1 1297 0
 2540 003a 3368     		ldr	r3, [r6]
 2541 003c 3BB1     		cbz	r3, .L321
 2542              	.L311:
 2543              		.loc 1 1303 0
 2544 003e 97F84620 		ldrb	r2, [r7, #70]	@ zero_extendqisi2
 2545              		.loc 1 1306 0
 2546 0042 0023     		movs	r3, #0
 2547              		.loc 1 1303 0
 2548 0044 0132     		adds	r2, r2, #1
 2549 0046 87F84620 		strb	r2, [r7, #70]
 2550              		.loc 1 1306 0
 2551 004a BB63     		str	r3, [r7, #56]
 2552              	.LVL288:
 2553              	.L306:
ARM GAS  /tmp/ccAMfTfz.s 			page 46


 2554 004c F8BD     		pop	{r3, r4, r5, r6, r7, pc}
 2555              	.LVL289:
 2556              	.L321:
 2557              		.loc 1 1299 0
 2558 004e A7F86A30 		strh	r3, [r7, #106]	@ movhi
 2559 0052 F4E7     		b	.L311
 2560              		.cfi_endproc
 2561              	.LFE19:
 2562              		.size	tcp_rexmit, .-tcp_rexmit
 2563 0054 AFF30080 		.section	.text.tcp_rexmit_fast,"ax",%progbits
 2563      AFF30080 
 2563      AFF30080 
 2564              		.align	2
 2565              		.p2align 4,,15
 2566              		.global	tcp_rexmit_fast
 2567              		.thumb
 2568              		.thumb_func
 2569              		.type	tcp_rexmit_fast, %function
 2570              	tcp_rexmit_fast:
 2571              	.LFB20:
 2572              		.loc 1 1322 0
 2573              		.cfi_startproc
 2574              		@ args = 0, pretend = 0, frame = 0
 2575              		@ frame_needed = 0, uses_anonymous_args = 0
 2576              	.LVL290:
 2577              		.loc 1 1323 0
 2578 0000 036F     		ldr	r3, [r0, #112]
 2579              		.loc 1 1322 0
 2580 0002 10B5     		push	{r4, lr}
 2581              		.cfi_def_cfa_offset 8
 2582              		.cfi_offset 4, -8
 2583              		.cfi_offset 14, -4
 2584              		.loc 1 1322 0
 2585 0004 0446     		mov	r4, r0
 2586              		.loc 1 1323 0
 2587 0006 F3B1     		cbz	r3, .L322
 2588              		.loc 1 1323 0 is_stmt 0 discriminator 1
 2589 0008 837F     		ldrb	r3, [r0, #30]	@ zero_extendqisi2
 2590 000a 5B07     		lsls	r3, r3, #29
 2591 000c 1BD4     		bmi	.L322
 2592              		.loc 1 1330 0 is_stmt 1
 2593 000e FFF7FEFF 		bl	tcp_rexmit
 2594              	.LVL291:
 2595              		.loc 1 1334 0
 2596 0012 B4F84C30 		ldrh	r3, [r4, #76]
 2597 0016 B4F86020 		ldrh	r2, [r4, #96]
 2598              		.loc 1 1341 0
 2599 001a E18E     		ldrh	r1, [r4, #54]
 2600              		.loc 1 1350 0
 2601 001c A07F     		ldrb	r0, [r4, #30]	@ zero_extendqisi2
 2602              		.loc 1 1334 0
 2603 001e 9342     		cmp	r3, r2
 2604              		.loc 1 1335 0
 2605 0020 8CBF     		ite	hi
 2606 0022 5308     		lsrhi	r3, r2, #1
 2607              		.loc 1 1337 0
 2608 0024 5B08     		lsrls	r3, r3, #1
ARM GAS  /tmp/ccAMfTfz.s 			page 47


 2609              		.loc 1 1341 0
 2610 0026 4A00     		lsls	r2, r1, #1
 2611 0028 9342     		cmp	r3, r2
 2612              		.loc 1 1337 0
 2613 002a A4F84E30 		strh	r3, [r4, #78]	@ movhi
 2614              		.loc 1 1346 0
 2615 002e B8BF     		it	lt
 2616 0030 93B2     		uxthlt	r3, r2
 2617              		.loc 1 1349 0
 2618 0032 0A44     		add	r2, r2, r1
 2619              		.loc 1 1346 0
 2620 0034 B8BF     		it	lt
 2621 0036 A4F84E30 		strhlt	r3, [r4, #78]	@ movhi
 2622              		.loc 1 1350 0
 2623 003a 40F00400 		orr	r0, r0, #4
 2624              		.loc 1 1349 0
 2625 003e 1344     		add	r3, r3, r2
 2626 0040 A4F84C30 		strh	r3, [r4, #76]	@ movhi
 2627              		.loc 1 1350 0
 2628 0044 A077     		strb	r0, [r4, #30]
 2629              	.L322:
 2630 0046 10BD     		pop	{r4, pc}
 2631              		.cfi_endproc
 2632              	.LFE20:
 2633              		.size	tcp_rexmit_fast, .-tcp_rexmit_fast
 2634 0048 AFF30080 		.section	.text.tcp_keepalive,"ax",%progbits
 2634      AFF30080 
 2635              		.align	2
 2636              		.p2align 4,,15
 2637              		.global	tcp_keepalive
 2638              		.thumb
 2639              		.thumb_func
 2640              		.type	tcp_keepalive, %function
 2641              	tcp_keepalive:
 2642              	.LFB21:
 2643              		.loc 1 1365 0
 2644              		.cfi_startproc
 2645              		@ args = 0, pretend = 0, frame = 0
 2646              		@ frame_needed = 0, uses_anonymous_args = 0
 2647              	.LVL292:
 2648 0000 F0B5     		push	{r4, r5, r6, r7, lr}
 2649              		.cfi_def_cfa_offset 20
 2650              		.cfi_offset 4, -20
 2651              		.cfi_offset 5, -16
 2652              		.cfi_offset 6, -12
 2653              		.cfi_offset 7, -8
 2654              		.cfi_offset 14, -4
 2655 0002 0446     		mov	r4, r0
 2656              		.loc 1 1376 0
 2657 0004 006D     		ldr	r0, [r0, #80]
 2658              	.LVL293:
 2659              		.loc 1 1365 0
 2660 0006 83B0     		sub	sp, sp, #12
 2661              		.cfi_def_cfa_offset 32
 2662              		.loc 1 1376 0
 2663 0008 0138     		subs	r0, r0, #1
 2664 000a FFF7FEFF 		bl	lwip_htonl
ARM GAS  /tmp/ccAMfTfz.s 			page 48


 2665              	.LVL294:
 2666 000e 0021     		movs	r1, #0
 2667 0010 0246     		mov	r2, r0
 2668 0012 2046     		mov	r0, r4
 2669 0014 FFF7FEFF 		bl	tcp_output_alloc_header.constprop.1
 2670              	.LVL295:
 2671              		.loc 1 1377 0
 2672 0018 0546     		mov	r5, r0
 2673 001a 10B3     		cbz	r0, .L330
 2674              		.loc 1 1385 0
 2675 001c 0389     		ldrh	r3, [r0, #8]
 2676              		.loc 1 1382 0
 2677 001e 4768     		ldr	r7, [r0, #4]
 2678              	.LVL296:
 2679              		.loc 1 1385 0
 2680 0020 0093     		str	r3, [sp]
 2681 0022 261D     		adds	r6, r4, #4
 2682 0024 3246     		mov	r2, r6
 2683 0026 2146     		mov	r1, r4
 2684 0028 0623     		movs	r3, #6
 2685 002a FFF7FEFF 		bl	inet_chksum_pseudo
 2686              	.LVL297:
 2687              		.loc 1 1388 0
 2688 002e 40F20003 		movw	r3, #:lower16:lwip_stats
 2689 0032 C0F20003 		movt	r3, #:upper16:lwip_stats
 2690              		.loc 1 1385 0
 2691 0036 3882     		strh	r0, [r7, #16]	@ unaligned
 2692              		.loc 1 1388 0
 2693 0038 B3F89020 		ldrh	r2, [r3, #144]
 2694 003c 0132     		adds	r2, r2, #1
 2695 003e A3F89020 		strh	r2, [r3, #144]	@ movhi
 2696              		.loc 1 1395 0
 2697 0042 0027     		movs	r7, #0
 2698              	.LVL298:
 2699 0044 0620     		movs	r0, #6
 2700 0046 A37A     		ldrb	r3, [r4, #10]	@ zero_extendqisi2
 2701 0048 0190     		str	r0, [sp, #4]
 2702 004a 3246     		mov	r2, r6
 2703 004c 2146     		mov	r1, r4
 2704 004e 0097     		str	r7, [sp]
 2705 0050 2846     		mov	r0, r5
 2706 0052 FFF7FEFF 		bl	ip_output
 2707              	.LVL299:
 2708              		.loc 1 1398 0
 2709 0056 2846     		mov	r0, r5
 2710              		.loc 1 1402 0
 2711 0058 03B0     		add	sp, sp, #12
 2712              		@ sp needed
 2713 005a BDE8F040 		pop	{r4, r5, r6, r7, lr}
 2714              	.LVL300:
 2715              		.loc 1 1398 0
 2716 005e FFF7FEBF 		b	pbuf_free
 2717              	.LVL301:
 2718              	.L330:
 2719              		.loc 1 1402 0
 2720 0062 03B0     		add	sp, sp, #12
 2721              		@ sp needed
ARM GAS  /tmp/ccAMfTfz.s 			page 49


 2722 0064 F0BD     		pop	{r4, r5, r6, r7, pc}
 2723              		.cfi_endproc
 2724              	.LFE21:
 2725              		.size	tcp_keepalive, .-tcp_keepalive
 2726 0066 00BFAFF3 		.section	.text.tcp_zero_window_probe,"ax",%progbits
 2726      0080AFF3 
 2726      0080
 2727              		.align	2
 2728              		.p2align 4,,15
 2729              		.global	tcp_zero_window_probe
 2730              		.thumb
 2731              		.thumb_func
 2732              		.type	tcp_zero_window_probe, %function
 2733              	tcp_zero_window_probe:
 2734              	.LFB22:
 2735              		.loc 1 1415 0
 2736              		.cfi_startproc
 2737              		@ args = 0, pretend = 0, frame = 0
 2738              		@ frame_needed = 0, uses_anonymous_args = 0
 2739              	.LVL302:
 2740 0000 2DE9F041 		push	{r4, r5, r6, r7, r8, lr}
 2741              		.cfi_def_cfa_offset 24
 2742              		.cfi_offset 4, -24
 2743              		.cfi_offset 5, -20
 2744              		.cfi_offset 6, -16
 2745              		.cfi_offset 7, -12
 2746              		.cfi_offset 8, -8
 2747              		.cfi_offset 14, -4
 2748              		.loc 1 1433 0
 2749 0004 066F     		ldr	r6, [r0, #112]
 2750              	.LVL303:
 2751              		.loc 1 1415 0
 2752 0006 82B0     		sub	sp, sp, #8
 2753              		.cfi_def_cfa_offset 32
 2754              		.loc 1 1415 0
 2755 0008 0446     		mov	r4, r0
 2756              		.loc 1 1435 0
 2757 000a 002E     		cmp	r6, #0
 2758 000c 57D0     		beq	.L344
 2759              	.L333:
 2760              		.loc 1 1442 0
 2761 000e F368     		ldr	r3, [r6, #12]
 2762 0010 9889     		ldrh	r0, [r3, #12]	@ unaligned
 2763              	.LVL304:
 2764 0012 FFF7FEFF 		bl	lwip_ntohs
 2765              	.LVL305:
 2766 0016 10F00100 		ands	r0, r0, #1
 2767 001a 04BF     		itt	eq
 2768 001c 8046     		moveq	r8, r0
 2769 001e 0121     		moveq	r1, #1
 2770 0020 38D1     		bne	.L345
 2771              	.L335:
 2772              	.LVL306:
 2773              		.loc 1 1446 0 discriminator 4
 2774 0022 F368     		ldr	r3, [r6, #12]
 2775 0024 2046     		mov	r0, r4
 2776 0026 5A68     		ldr	r2, [r3, #4]	@ unaligned
ARM GAS  /tmp/ccAMfTfz.s 			page 50


 2777 0028 FFF7FEFF 		bl	tcp_output_alloc_header.constprop.1
 2778              	.LVL307:
 2779              		.loc 1 1447 0 discriminator 4
 2780 002c 0546     		mov	r5, r0
 2781 002e 0028     		cmp	r0, #0
 2782 0030 48D0     		beq	.L332
 2783              		.loc 1 1451 0
 2784 0032 4768     		ldr	r7, [r0, #4]
 2785              	.LVL308:
 2786              		.loc 1 1453 0
 2787 0034 B8F1000F 		cmp	r8, #0
 2788 0038 37D1     		bne	.L346
 2789              	.LVL309:
 2790              	.LBB56:
 2791              		.loc 1 1462 0
 2792 003a 7068     		ldr	r0, [r6, #4]
 2793              	.LVL310:
 2794 003c 3389     		ldrh	r3, [r6, #8]
 2795 003e 0289     		ldrh	r2, [r0, #8]
 2796 0040 D31A     		subs	r3, r2, r3
 2797 0042 9BB2     		uxth	r3, r3
 2798 0044 07F11401 		add	r1, r7, #20
 2799              	.LVL311:
 2800 0048 0122     		movs	r2, #1
 2801 004a FFF7FEFF 		bl	pbuf_copy_partial
 2802              	.LVL312:
 2803              	.L338:
 2804              	.LBE56:
 2805              		.loc 1 1466 0
 2806 004e 2B89     		ldrh	r3, [r5, #8]
 2807 0050 261D     		adds	r6, r4, #4
 2808 0052 0093     		str	r3, [sp]
 2809 0054 3246     		mov	r2, r6
 2810 0056 2146     		mov	r1, r4
 2811 0058 2846     		mov	r0, r5
 2812 005a 0623     		movs	r3, #6
 2813 005c FFF7FEFF 		bl	inet_chksum_pseudo
 2814              	.LVL313:
 2815              		.loc 1 1469 0
 2816 0060 40F20003 		movw	r3, #:lower16:lwip_stats
 2817 0064 C0F20003 		movt	r3, #:upper16:lwip_stats
 2818              		.loc 1 1466 0
 2819 0068 3882     		strh	r0, [r7, #16]	@ unaligned
 2820              		.loc 1 1469 0
 2821 006a B3F89020 		ldrh	r2, [r3, #144]
 2822 006e 0132     		adds	r2, r2, #1
 2823 0070 A3F89020 		strh	r2, [r3, #144]	@ movhi
 2824              		.loc 1 1476 0
 2825 0074 0027     		movs	r7, #0
 2826              	.LVL314:
 2827 0076 0620     		movs	r0, #6
 2828 0078 A37A     		ldrb	r3, [r4, #10]	@ zero_extendqisi2
 2829 007a 0190     		str	r0, [sp, #4]
 2830 007c 3246     		mov	r2, r6
 2831 007e 2146     		mov	r1, r4
 2832 0080 0097     		str	r7, [sp]
 2833 0082 2846     		mov	r0, r5
ARM GAS  /tmp/ccAMfTfz.s 			page 51


 2834 0084 FFF7FEFF 		bl	ip_output
 2835              	.LVL315:
 2836              		.loc 1 1479 0
 2837 0088 2846     		mov	r0, r5
 2838              		.loc 1 1484 0
 2839 008a 02B0     		add	sp, sp, #8
 2840              		@ sp needed
 2841 008c BDE8F041 		pop	{r4, r5, r6, r7, r8, lr}
 2842              	.LVL316:
 2843              		.loc 1 1479 0
 2844 0090 FFF7FEBF 		b	pbuf_free
 2845              	.LVL317:
 2846              	.L345:
 2847              		.loc 1 1442 0 discriminator 1
 2848 0094 3389     		ldrh	r3, [r6, #8]
 2849 0096 002B     		cmp	r3, #0
 2850 0098 0CBF     		ite	eq
 2851 009a 0021     		moveq	r1, #0
 2852 009c 0121     		movne	r1, #1
 2853 009e 14BF     		ite	ne
 2854 00a0 4FF00008 		movne	r8, #0
 2855 00a4 4FF00108 		moveq	r8, #1
 2856 00a8 BBE7     		b	.L335
 2857              	.LVL318:
 2858              	.L346:
 2859              		.loc 1 1455 0
 2860 00aa BB89     		ldrh	r3, [r7, #12]	@ unaligned
 2861 00ac 4CF2FF06 		movw	r6, #49407
 2862              	.LVL319:
 2863 00b0 1120     		movs	r0, #17
 2864              	.LVL320:
 2865 00b2 1E40     		ands	r6, r6, r3
 2866 00b4 FFF7FEFF 		bl	lwip_htons
 2867              	.LVL321:
 2868 00b8 3043     		orrs	r0, r0, r6
 2869 00ba B881     		strh	r0, [r7, #12]	@ unaligned
 2870 00bc C7E7     		b	.L338
 2871              	.LVL322:
 2872              	.L344:
 2873              		.loc 1 1436 0
 2874 00be C66E     		ldr	r6, [r0, #108]
 2875              	.LVL323:
 2876              		.loc 1 1438 0
 2877 00c0 002E     		cmp	r6, #0
 2878 00c2 A4D1     		bne	.L333
 2879              	.LVL324:
 2880              	.L332:
 2881              		.loc 1 1484 0
 2882 00c4 02B0     		add	sp, sp, #8
 2883              		@ sp needed
 2884 00c6 BDE8F081 		pop	{r4, r5, r6, r7, r8, pc}
 2885              		.cfi_endproc
 2886              	.LFE22:
 2887              		.size	tcp_zero_window_probe, .-tcp_zero_window_probe
 2888 00ca 00BFAFF3 		.text
 2888      0080
 2889              	.Letext0:
ARM GAS  /tmp/ccAMfTfz.s 			page 52


 2890              		.file 2 "/usr/include/newlib/machine/_default_types.h"
 2891              		.file 3 "/usr/include/newlib/stdint.h"
 2892              		.file 4 "../../os/various/lwip_bindings/arch/cc.h"
 2893              		.file 5 "../../ext/lwip/src/include/lwip/mem.h"
 2894              		.file 6 "../../ext/lwip/src/include/lwip/err.h"
 2895              		.file 7 "../../ext/lwip/src/include/lwip/pbuf.h"
 2896              		.file 8 "../../ext/lwip/src/include/ipv4/lwip/ip_addr.h"
 2897              		.file 9 "../../ext/lwip/src/include/lwip/netif.h"
 2898              		.file 10 "../../ext/lwip/src/include/lwip/tcp.h"
 2899              		.file 11 "../../ext/lwip/src/include/lwip/tcp_impl.h"
 2900              		.file 12 "../../ext/lwip/src/include/lwip/memp.h"
 2901              		.file 13 "../../ext/lwip/src/include/lwip/stats.h"
 2902              		.file 14 "../../ext/lwip/src/include/lwip/def.h"
 2903              		.file 15 "../../ext/lwip/src/include/ipv4/lwip/inet_chksum.h"
 2904              		.file 16 "../../ext/lwip/src/include/ipv4/lwip/ip.h"
 2905              		.file 17 "../../os/ports/GCC/ARMCMx/chcore_v7m.h"