ARM GAS  /tmp/ccAMfTfz.s 			page 1


   1              		.syntax unified
   2              		.cpu cortex-m4
   3              		.fpu softvfp
   4              		.eabi_attribute 20, 1
   5              		.eabi_attribute 21, 1
   6              		.eabi_attribute 23, 3
   7              		.eabi_attribute 24, 1
   8              		.eabi_attribute 25, 1
   9              		.eabi_attribute 26, 1
  10              		.eabi_attribute 30, 2
  11              		.eabi_attribute 34, 1
  12              		.eabi_attribute 18, 4
  13              		.thumb
  14              		.file	"tcp_out.c"
  15              		.text
  16              	.Ltext0:
  17              		.cfi_sections	.debug_frame
  18              		.section	.text.tcp_pbuf_prealloc,"ax",%progbits
  19              		.align	2
  20              		.p2align 4,,15
  21              		.thumb
  22              		.thumb_func
  23              		.type	tcp_pbuf_prealloc, %function
  24              	tcp_pbuf_prealloc:
  25              	.LFB10:
  26              		.file 1 "../../ext/lwip/src/core/tcp_out.c"
  27              		.loc 1 222 0
  28              		.cfi_startproc
  29              		@ args = 12, pretend = 0, frame = 0
  30              		@ frame_needed = 0, uses_anonymous_args = 0
  31              	.LVL0:
  32 0000 70B5     		push	{r4, r5, r6, lr}
  33              		.cfi_def_cfa_offset 16
  34              		.cfi_offset 4, -16
  35              		.cfi_offset 5, -12
  36              		.cfi_offset 6, -8
  37              		.cfi_offset 14, -4
  38              		.loc 1 222 0
  39 0002 0D46     		mov	r5, r1
  40              	.LVL1:
  41              		.loc 1 234 0
  42 0004 9542     		cmp	r5, r2
  43              		.loc 1 222 0
  44 0006 1E46     		mov	r6, r3
  45 0008 9DF81810 		ldrb	r1, [sp, #24]	@ zero_extendqisi2
  46              	.LVL2:
  47 000c 9DF81430 		ldrb	r3, [sp, #20]	@ zero_extendqisi2
  48              	.LVL3:
  49              		.loc 1 234 0
  50 0010 0ED2     		bcs	.L8
  51              		.loc 1 246 0
  52 0012 9C07     		lsls	r4, r3, #30
  53 0014 08D5     		bpl	.L18
  54              	.L3:
  55              		.loc 1 251 0
  56 0016 05F21B21 		addw	r1, r5, #539
  57 001a 21F00301 		bic	r1, r1, #3
ARM GAS  /tmp/ccAMfTfz.s 			page 2


  58 001e 9142     		cmp	r1, r2
  59 0020 B8BF     		it	lt
  60 0022 0A46     		movlt	r2, r1
  61              	.LVL4:
  62 0024 91B2     		uxth	r1, r2
  63              	.LVL5:
  64 0026 04E0     		b	.L2
  65              	.LVL6:
  66              	.L18:
  67              		.loc 1 247 0 discriminator 1
  68 0028 049C     		ldr	r4, [sp, #16]
  69 002a A37F     		ldrb	r3, [r4, #30]	@ zero_extendqisi2
  70              		.loc 1 246 0 discriminator 1
  71 002c 5B06     		lsls	r3, r3, #25
  72 002e 10D5     		bpl	.L19
  73              	.L8:
  74 0030 2946     		mov	r1, r5
  75              	.LVL7:
  76              	.L2:
  77              		.loc 1 255 0
  78 0032 0022     		movs	r2, #0
  79 0034 FFF7FEFF 		bl	pbuf_alloc
  80              	.LVL8:
  81              		.loc 1 256 0
  82 0038 0446     		mov	r4, r0
  83 003a 40B1     		cbz	r0, .L4
  84              		.loc 1 259 0
  85 003c 0368     		ldr	r3, [r0]
  86 003e 0BB1     		cbz	r3, .L5
  87              		.loc 1 259 0 is_stmt 0 discriminator 1
  88 0040 FFF7FEFF 		bl	port_halt
  89              	.LVL9:
  90              	.L5:
  91              		.loc 1 260 0 is_stmt 1
  92 0044 6389     		ldrh	r3, [r4, #10]
  93 0046 5B1B     		subs	r3, r3, r5
  94 0048 3380     		strh	r3, [r6]	@ movhi
  95              		.loc 1 262 0
  96 004a 2581     		strh	r5, [r4, #8]	@ movhi
  97 004c 6581     		strh	r5, [r4, #10]	@ movhi
  98              	.L4:
  99              		.loc 1 264 0
 100 004e 2046     		mov	r0, r4
 101 0050 70BD     		pop	{r4, r5, r6, pc}
 102              	.LVL10:
 103              	.L19:
 104              		.loc 1 247 0
 105 0052 0029     		cmp	r1, #0
 106 0054 DFD0     		beq	.L3
 107              		.loc 1 248 0
 108 0056 E36E     		ldr	r3, [r4, #108]
 109 0058 002B     		cmp	r3, #0
 110 005a DCD1     		bne	.L3
 111              		.loc 1 249 0
 112 005c 236F     		ldr	r3, [r4, #112]
 113 005e 002B     		cmp	r3, #0
 114 0060 D9D1     		bne	.L3
ARM GAS  /tmp/ccAMfTfz.s 			page 3


 115 0062 E5E7     		b	.L8
 116              		.cfi_endproc
 117              	.LFE10:
 118              		.size	tcp_pbuf_prealloc, .-tcp_pbuf_prealloc
 119 0064 AFF30080 		.section	.text.tcp_create_segment.isra.0,"ax",%progbits
 119      AFF30080 
 119      AFF30080 
 120              		.align	2
 121              		.p2align 4,,15
 122              		.thumb
 123              		.thumb_func
 124              		.type	tcp_create_segment.isra.0, %function
 125              	tcp_create_segment.isra.0:
 126              	.LFB23:
 127              		.loc 1 159 0
 128              		.cfi_startproc
 129              		@ args = 8, pretend = 0, frame = 0
 130              		@ frame_needed = 0, uses_anonymous_args = 0
 131              	.LVL11:
 132 0000 2DE9F84F 		push	{r3, r4, r5, r6, r7, r8, r9, r10, fp, lr}
 133              		.cfi_def_cfa_offset 40
 134              		.cfi_offset 3, -40
 135              		.cfi_offset 4, -36
 136              		.cfi_offset 5, -32
 137              		.cfi_offset 6, -28
 138              		.cfi_offset 7, -24
 139              		.cfi_offset 8, -20
 140              		.cfi_offset 9, -16
 141              		.cfi_offset 10, -12
 142              		.cfi_offset 11, -8
 143              		.cfi_offset 14, -4
 144              		.loc 1 159 0
 145 0004 9DF82C50 		ldrb	r5, [sp, #44]	@ zero_extendqisi2
 146              		.loc 1 162 0
 147 0008 15F0010F 		tst	r5, #1
 148 000c 0CBF     		ite	eq
 149 000e 0024     		moveq	r4, #0
 150 0010 0424     		movne	r4, #4
 151              		.loc 1 159 0
 152 0012 8246     		mov	r10, r0
 153              		.loc 1 162 0
 154 0014 15F0020F 		tst	r5, #2
 155              		.loc 1 164 0
 156 0018 4FF00400 		mov	r0, #4
 157              		.loc 1 162 0
 158 001c 0CBF     		ite	eq
 159 001e 0027     		moveq	r7, #0
 160 0020 0C27     		movne	r7, #12
 161              		.loc 1 159 0
 162 0022 8946     		mov	r9, r1
 163 0024 1646     		mov	r6, r2
 164 0026 9846     		mov	r8, r3
 165              		.loc 1 164 0
 166 0028 FFF7FEFF 		bl	memp_malloc
 167              	.LVL12:
 168              		.loc 1 162 0
 169 002c 2744     		add	r7, r7, r4
ARM GAS  /tmp/ccAMfTfz.s 			page 4


 170              	.LVL13:
 171              		.loc 1 164 0
 172 002e 0446     		mov	r4, r0
 173 0030 0028     		cmp	r0, #0
 174 0032 3FD0     		beq	.L28
 175              		.loc 1 169 0
 176 0034 8572     		strb	r5, [r0, #10]
 177              		.loc 1 172 0
 178 0036 3389     		ldrh	r3, [r6, #8]
 179              		.loc 1 171 0
 180 0038 4660     		str	r6, [r0, #4]
 181              		.loc 1 172 0
 182 003a DB1B     		subs	r3, r3, r7
 183              		.loc 1 170 0
 184 003c 4FF0000B 		mov	fp, #0
 185              		.loc 1 172 0
 186 0040 0381     		strh	r3, [r0, #8]	@ movhi
 187              		.loc 1 185 0
 188 0042 1421     		movs	r1, #20
 189 0044 3046     		mov	r0, r6
 190              	.LVL14:
 191              		.loc 1 170 0
 192 0046 C4F800B0 		str	fp, [r4]
 193              		.loc 1 185 0
 194 004a FFF7FEFF 		bl	pbuf_header
 195              	.LVL15:
 196 004e 0546     		mov	r5, r0
 197 0050 08BB     		cbnz	r0, .L29
 198              		.loc 1 191 0
 199 0052 6368     		ldr	r3, [r4, #4]
 200              		.loc 1 192 0
 201 0054 BAF80000 		ldrh	r0, [r10]
 202              		.loc 1 191 0
 203 0058 5E68     		ldr	r6, [r3, #4]
 204              	.LVL16:
 205 005a E660     		str	r6, [r4, #12]
 206              		.loc 1 192 0
 207 005c FFF7FEFF 		bl	lwip_htons
 208              	.LVL17:
 209 0060 3080     		strh	r0, [r6]	@ unaligned
 210              		.loc 1 193 0
 211 0062 B9F80000 		ldrh	r0, [r9]
 212 0066 E668     		ldr	r6, [r4, #12]
 213 0068 FFF7FEFF 		bl	lwip_htons
 214              	.LVL18:
 215 006c 7080     		strh	r0, [r6, #2]	@ unaligned
 216              		.loc 1 194 0
 217 006e 0A98     		ldr	r0, [sp, #40]
 218 0070 E668     		ldr	r6, [r4, #12]
 219 0072 FFF7FEFF 		bl	lwip_htonl
 220              	.LVL19:
 221              		.loc 1 196 0
 222 0076 BF02     		lsls	r7, r7, #10
 223              	.LVL20:
 224 0078 07F5A047 		add	r7, r7, #20480
 225              		.loc 1 194 0
 226 007c 7060     		str	r0, [r6, #4]	@ unaligned
ARM GAS  /tmp/ccAMfTfz.s 			page 5


 227              		.loc 1 196 0
 228 007e 47EA0800 		orr	r0, r7, r8
 229 0082 E668     		ldr	r6, [r4, #12]
 230 0084 FFF7FEFF 		bl	lwip_htons
 231              	.LVL21:
 232              		.loc 1 198 0
 233 0088 E368     		ldr	r3, [r4, #12]
 234              		.loc 1 196 0
 235 008a B081     		strh	r0, [r6, #12]	@ unaligned
 236              		.loc 1 198 0
 237 008c 2046     		mov	r0, r4
 238 008e 9D74     		strb	r5, [r3, #18]
 239 0090 DD74     		strb	r5, [r3, #19]
 240              		.loc 1 200 0
 241 0092 BDE8F88F 		pop	{r3, r4, r5, r6, r7, r8, r9, r10, fp, pc}
 242              	.LVL22:
 243              	.L29:
 244              		.loc 1 187 0
 245 0096 40F20003 		movw	r3, #:lower16:lwip_stats
 246 009a C0F20003 		movt	r3, #:upper16:lwip_stats
 247              		.loc 1 188 0
 248 009e 2046     		mov	r0, r4
 249              		.loc 1 187 0
 250 00a0 B3F8A420 		ldrh	r2, [r3, #164]
 251 00a4 0132     		adds	r2, r2, #1
 252 00a6 A3F8A420 		strh	r2, [r3, #164]	@ movhi
 253              		.loc 1 188 0
 254 00aa FFF7FEFF 		bl	tcp_seg_free
 255              	.LVL23:
 256              		.loc 1 189 0
 257 00ae 5846     		mov	r0, fp
 258 00b0 BDE8F88F 		pop	{r3, r4, r5, r6, r7, r8, r9, r10, fp, pc}
 259              	.LVL24:
 260              	.L28:
 261              		.loc 1 166 0
 262 00b4 3046     		mov	r0, r6
 263              	.LVL25:
 264 00b6 FFF7FEFF 		bl	pbuf_free
 265              	.LVL26:
 266              		.loc 1 167 0
 267 00ba 2046     		mov	r0, r4
 268 00bc BDE8F88F 		pop	{r3, r4, r5, r6, r7, r8, r9, r10, fp, pc}
 269              		.cfi_endproc
 270              	.LFE23:
 271              		.size	tcp_create_segment.isra.0, .-tcp_create_segment.isra.0
 272              		.section	.text.tcp_output_alloc_header.constprop.1,"ax",%progbits
 273              		.align	2
 274              		.p2align 4,,15
 275              		.thumb
 276              		.thumb_func
 277              		.type	tcp_output_alloc_header.constprop.1, %function
 278              	tcp_output_alloc_header.constprop.1:
 279              	.LFB24:
 280              		.loc 1 94 0
 281              		.cfi_startproc
 282              		@ args = 0, pretend = 0, frame = 0
 283              		@ frame_needed = 0, uses_anonymous_args = 0
ARM GAS  /tmp/ccAMfTfz.s 			page 6


 284              	.LVL27:
 285              		.loc 1 98 0
 286 0000 1431     		adds	r1, r1, #20
 287              	.LVL28:
 288              		.loc 1 94 0
 289 0002 F8B5     		push	{r3, r4, r5, r6, r7, lr}
 290              		.cfi_def_cfa_offset 24
 291              		.cfi_offset 3, -24
 292              		.cfi_offset 4, -20
 293              		.cfi_offset 5, -16
 294              		.cfi_offset 6, -12
 295              		.cfi_offset 7, -8
 296              		.cfi_offset 14, -4
 297              		.loc 1 98 0
 298 0004 89B2     		uxth	r1, r1
 299              		.loc 1 94 0
 300 0006 0546     		mov	r5, r0
 301 0008 1746     		mov	r7, r2
 302              		.loc 1 98 0
 303 000a 0120     		movs	r0, #1
 304              	.LVL29:
 305 000c 0022     		movs	r2, #0
 306              	.LVL30:
 307 000e FFF7FEFF 		bl	pbuf_alloc
 308              	.LVL31:
 309              		.loc 1 99 0
 310 0012 0646     		mov	r6, r0
 311 0014 10B3     		cbz	r0, .L31
 312              		.loc 1 100 0
 313 0016 4389     		ldrh	r3, [r0, #10]
 314 0018 132B     		cmp	r3, #19
 315 001a 21DD     		ble	.L36
 316              	.LVL32:
 317              	.L32:
 318              		.loc 1 103 0
 319 001c 688B     		ldrh	r0, [r5, #26]
 320              		.loc 1 102 0
 321 001e 7468     		ldr	r4, [r6, #4]
 322              	.LVL33:
 323              		.loc 1 103 0
 324 0020 FFF7FEFF 		bl	lwip_htons
 325              	.LVL34:
 326 0024 2080     		strh	r0, [r4]	@ unaligned
 327              		.loc 1 104 0
 328 0026 A88B     		ldrh	r0, [r5, #28]
 329 0028 FFF7FEFF 		bl	lwip_htons
 330              	.LVL35:
 331              		.loc 1 105 0
 332 002c 6760     		str	r7, [r4, #4]	@ unaligned
 333              		.loc 1 104 0
 334 002e 6080     		strh	r0, [r4, #2]	@ unaligned
 335              		.loc 1 106 0
 336 0030 A86A     		ldr	r0, [r5, #40]
 337 0032 FFF7FEFF 		bl	lwip_htonl
 338              	.LVL36:
 339 0036 A060     		str	r0, [r4, #8]	@ unaligned
 340              		.loc 1 107 0
ARM GAS  /tmp/ccAMfTfz.s 			page 7


 341 0038 45F21000 		movw	r0, #20496
 342 003c FFF7FEFF 		bl	lwip_htons
 343              	.LVL37:
 344 0040 A081     		strh	r0, [r4, #12]	@ unaligned
 345              		.loc 1 108 0
 346 0042 E88D     		ldrh	r0, [r5, #46]
 347 0044 FFF7FEFF 		bl	lwip_htons
 348              	.LVL38:
 349              		.loc 1 113 0
 350 0048 E98D     		ldrh	r1, [r5, #46]
 351 004a AA6A     		ldr	r2, [r5, #40]
 352              		.loc 1 108 0
 353 004c E081     		strh	r0, [r4, #14]	@ unaligned
 354              		.loc 1 109 0
 355 004e 0023     		movs	r3, #0
 356              		.loc 1 113 0
 357 0050 0A44     		add	r2, r2, r1
 358              		.loc 1 109 0
 359 0052 2374     		strb	r3, [r4, #16]
 360 0054 6374     		strb	r3, [r4, #17]
 361              		.loc 1 110 0
 362 0056 A374     		strb	r3, [r4, #18]
 363 0058 E374     		strb	r3, [r4, #19]
 364              		.loc 1 113 0
 365 005a 2A63     		str	r2, [r5, #48]
 366              	.LVL39:
 367              	.L31:
 368              		.loc 1 116 0
 369 005c 3046     		mov	r0, r6
 370 005e F8BD     		pop	{r3, r4, r5, r6, r7, pc}
 371              	.LVL40:
 372              	.L36:
 373              		.loc 1 100 0
 374 0060 FFF7FEFF 		bl	port_halt
 375              	.LVL41:
 376 0064 DAE7     		b	.L32
 377              		.cfi_endproc
 378              	.LFE24:
 379              		.size	tcp_output_alloc_header.constprop.1, .-tcp_output_alloc_header.constprop.1
 380 0066 00BFAFF3 		.section	.text.tcp_write,"ax",%progbits
 380      0080AFF3 
 380      0080
 381              		.align	2
 382              		.p2align 4,,15
 383              		.global	tcp_write
 384              		.thumb
 385              		.thumb_func
 386              		.type	tcp_write, %function
 387              	tcp_write:
 388              	.LFB12:
 389              		.loc 1 355 0
 390              		.cfi_startproc
 391              		@ args = 0, pretend = 0, frame = 56
 392              		@ frame_needed = 0, uses_anonymous_args = 0
 393              	.LVL42:
 394 0000 2DE9F04F 		push	{r4, r5, r6, r7, r8, r9, r10, fp, lr}
 395              		.cfi_def_cfa_offset 36
ARM GAS  /tmp/ccAMfTfz.s 			page 8


 396              		.cfi_offset 4, -36
 397              		.cfi_offset 5, -32
 398              		.cfi_offset 6, -28
 399              		.cfi_offset 7, -24
 400              		.cfi_offset 8, -20
 401              		.cfi_offset 9, -16
 402              		.cfi_offset 10, -12
 403              		.cfi_offset 11, -8
 404              		.cfi_offset 14, -4
 405              		.loc 1 373 0
 406 0004 B0F86240 		ldrh	r4, [r0, #98]
 407              		.loc 1 355 0
 408 0008 93B0     		sub	sp, sp, #76
 409              		.cfi_def_cfa_offset 112
 410              		.loc 1 355 0
 411 000a 8046     		mov	r8, r0
 412              		.loc 1 373 0
 413 000c C08E     		ldrh	r0, [r0, #54]
 414              	.LVL43:
 415              		.loc 1 382 0
 416 000e 0891     		str	r1, [sp, #32]
 417              		.loc 1 373 0
 418 0010 6408     		lsrs	r4, r4, #1
 419 0012 8442     		cmp	r4, r0
 420 0014 28BF     		it	cs
 421 0016 0446     		movcs	r4, r0
 422              		.loc 1 382 0
 423 0018 0898     		ldr	r0, [sp, #32]
 424              		.loc 1 355 0
 425 001a 0D93     		str	r3, [sp, #52]
 426              		.loc 1 363 0
 427 001c 0021     		movs	r1, #0
 428              	.LVL44:
 429              		.loc 1 355 0
 430 001e 9146     		mov	r9, r2
 431              		.loc 1 373 0
 432 0020 0794     		str	r4, [sp, #28]
 433              		.loc 1 363 0
 434 0022 ADF84610 		strh	r1, [sp, #70]	@ movhi
 435              	.LVL45:
 436              		.loc 1 382 0
 437 0026 0028     		cmp	r0, #0
 438 0028 00F04282 		beq	.L141
 439              	.LVL46:
 440              	.LBB9:
 441              	.LBB10:
 442              		.loc 1 297 0
 443 002c 98F81830 		ldrb	r3, [r8, #24]	@ zero_extendqisi2
 444              	.LVL47:
 445 0030 072B     		cmp	r3, #7
 446 0032 40F0CC80 		bne	.L142
 447              	.LVL48:
 448              	.L40:
 449              		.loc 1 303 0
 450 0036 B9F1000F 		cmp	r9, #0
 451 003a 00F08181 		beq	.L42
 452              		.loc 1 308 0
ARM GAS  /tmp/ccAMfTfz.s 			page 9


 453 003e B8F86630 		ldrh	r3, [r8, #102]
 454 0042 4B45     		cmp	r3, r9
 455 0044 C0F00D82 		bcc	.L143
 456              		.loc 1 320 0
 457 0048 B8F86870 		ldrh	r7, [r8, #104]
 458 004c 072F     		cmp	r7, #7
 459 004e 00F21082 		bhi	.L144
 460              		.loc 1 328 0
 461 0052 D8F87030 		ldr	r3, [r8, #112]
 462              		.loc 1 327 0
 463 0056 002F     		cmp	r7, #0
 464 0058 00F0C480 		beq	.L45
 465              		.loc 1 328 0
 466 005c 002B     		cmp	r3, #0
 467 005e 00F0CC81 		beq	.L145
 468              	.L46:
 469              	.LVL49:
 470              	.LBE10:
 471              	.LBE9:
 472              		.loc 1 422 0
 473 0062 D8F86CB0 		ldr	fp, [r8, #108]
 474 0066 BBF1000F 		cmp	fp, #0
 475 006a 01D1     		bne	.L51
 476 006c C7E0     		b	.L49
 477              	.LVL50:
 478              	.L146:
 479              	.LBB16:
 480              		.loc 1 428 0
 481 006e AB46     		mov	fp, r5
 482              	.LVL51:
 483              	.L51:
 484              		.loc 1 427 0 discriminator 1
 485 0070 DBF80050 		ldr	r5, [fp]
 486 0074 002D     		cmp	r5, #0
 487 0076 FAD1     		bne	.L146
 488              		.loc 1 431 0
 489 0078 9BF80A30 		ldrb	r3, [fp, #10]	@ zero_extendqisi2
 490 007c BBF80860 		ldrh	r6, [fp, #8]
 491 0080 0798     		ldr	r0, [sp, #28]
 492              		.loc 1 447 0
 493 0082 B8F86A20 		ldrh	r2, [r8, #106]
 494              		.loc 1 431 0
 495 0086 13F0010F 		tst	r3, #1
 496 008a 0CBF     		ite	eq
 497 008c 0021     		moveq	r1, #0
 498 008e 0421     		movne	r1, #4
 499 0090 861B     		subs	r6, r0, r6
 500 0092 13F0020F 		tst	r3, #2
 501              		.loc 1 432 0
 502 0096 C1EB0606 		rsb	r6, r1, r6
 503              		.loc 1 431 0
 504 009a 0CBF     		ite	eq
 505 009c 0023     		moveq	r3, #0
 506 009e 0C23     		movne	r3, #12
 507              	.LVL52:
 508              		.loc 1 432 0
 509 00a0 F61A     		subs	r6, r6, r3
ARM GAS  /tmp/ccAMfTfz.s 			page 10


 510 00a2 B6B2     		uxth	r6, r6
 511              	.LVL53:
 512              		.loc 1 448 0
 513 00a4 002A     		cmp	r2, #0
 514 00a6 40F05381 		bne	.L54
 515              		.loc 1 447 0
 516 00aa ADF84650 		strh	r5, [sp, #70]	@ movhi
 517              	.LBE16:
 518              		.loc 1 358 0
 519 00ae 0C95     		str	r5, [sp, #48]
 520              	.LVL54:
 521              	.L55:
 522              	.LBB19:
 523              		.loc 1 467 0
 524 00b0 0C98     		ldr	r0, [sp, #48]
 525 00b2 002E     		cmp	r6, #0
 526 00b4 18BF     		it	ne
 527 00b6 4845     		cmpne	r0, r9
 528 00b8 2CBF     		ite	cs
 529 00ba 0023     		movcs	r3, #0
 530 00bc 0123     		movcc	r3, #1
 531 00be 04D2     		bcs	.L89
 532              		.loc 1 467 0 is_stmt 0 discriminator 1
 533 00c0 BBF80830 		ldrh	r3, [fp, #8]
 534 00c4 002B     		cmp	r3, #0
 535 00c6 40F05981 		bne	.L147
 536              	.L89:
 537 00ca 0C9C     		ldr	r4, [sp, #48]
 538              	.LBE19:
 539              		.loc 1 356 0 is_stmt 1
 540 00cc 0E93     		str	r3, [sp, #56]
 541              	.LVL55:
 542              	.L56:
 543              		.loc 1 522 0 discriminator 1
 544 00ce A145     		cmp	r9, r4
 545 00d0 40F2E881 		bls	.L91
 546 00d4 0D9B     		ldr	r3, [sp, #52]
 547 00d6 CDF83CB0 		str	fp, [sp, #60]
 548              		.loc 1 522 0 is_stmt 0
 549 00da 0022     		movs	r2, #0
 550 00dc 0692     		str	r2, [sp, #24]
 551 00de 9246     		mov	r10, r2
 552 00e0 03F00103 		and	r3, r3, #1
 553 00e4 08F11A00 		add	r0, r8, #26
 554 00e8 08F11C02 		add	r2, r8, #28
 555 00ec 0993     		str	r3, [sp, #36]
 556 00ee 0A90     		str	r0, [sp, #40]
 557 00f0 0B92     		str	r2, [sp, #44]
 558 00f2 42E0     		b	.L71
 559              	.LVL56:
 560              	.L61:
 561              	.LBB20:
 562              	.LBB21:
 563              		.loc 1 550 0 is_stmt 1
 564 00f4 BDF84630 		ldrh	r3, [sp, #70]
 565 00f8 002B     		cmp	r3, #0
 566 00fa 40F08B80 		bne	.L148
ARM GAS  /tmp/ccAMfTfz.s 			page 11


 567              	.L65:
 568              		.loc 1 552 0
 569 00fe 0020     		movs	r0, #0
 570 0100 3146     		mov	r1, r6
 571 0102 0122     		movs	r2, #1
 572 0104 FFF7FEFF 		bl	pbuf_alloc
 573              	.LVL57:
 574 0108 8346     		mov	fp, r0
 575 010a 0028     		cmp	r0, #0
 576 010c 00F0EF80 		beq	.L67
 577              		.loc 1 561 0
 578 0110 089A     		ldr	r2, [sp, #32]
 579              		.loc 1 564 0
 580 0112 0020     		movs	r0, #0
 581              	.LVL58:
 582              		.loc 1 561 0
 583 0114 2244     		add	r2, r2, r4
 584 0116 CBF80420 		str	r2, [fp, #4]
 585              		.loc 1 564 0
 586 011a 0146     		mov	r1, r0
 587 011c 0246     		mov	r2, r0
 588 011e FFF7FEFF 		bl	pbuf_alloc
 589              	.LVL59:
 590 0122 0546     		mov	r5, r0
 591 0124 0028     		cmp	r0, #0
 592 0126 00F0DF80 		beq	.L149
 593              		.loc 1 572 0
 594 012a 5946     		mov	r1, fp
 595 012c FFF7FEFF 		bl	pbuf_cat
 596              	.LVL60:
 597              	.L64:
 598              	.LBE21:
 599              		.loc 1 575 0
 600 0130 2846     		mov	r0, r5
 601 0132 FFF7FEFF 		bl	pbuf_clen
 602              	.LVL61:
 603 0136 3844     		add	r0, r0, r7
 604 0138 87B2     		uxth	r7, r0
 605              	.LVL62:
 606              		.loc 1 580 0
 607 013a 082F     		cmp	r7, #8
 608 013c 00F24381 		bhi	.L150
 609              		.loc 1 586 0
 610 0140 D8F85C30 		ldr	r3, [r8, #92]
 611 0144 0A98     		ldr	r0, [sp, #40]
 612              	.LVL63:
 613 0146 0B99     		ldr	r1, [sp, #44]
 614 0148 0022     		movs	r2, #0
 615 014a 2344     		add	r3, r3, r4
 616 014c 0192     		str	r2, [sp, #4]
 617 014e 0093     		str	r3, [sp]
 618 0150 2A46     		mov	r2, r5
 619 0152 0023     		movs	r3, #0
 620 0154 FFF7FEFF 		bl	tcp_create_segment.isra.0
 621              	.LVL64:
 622 0158 0028     		cmp	r0, #0
 623 015a 00F0C880 		beq	.L67
ARM GAS  /tmp/ccAMfTfz.s 			page 12


 624              		.loc 1 599 0
 625 015e 069B     		ldr	r3, [sp, #24]
 626 0160 002B     		cmp	r3, #0
 627 0162 5AD0     		beq	.L92
 628              		.loc 1 603 0
 629 0164 BAF1000F 		cmp	r10, #0
 630 0168 00F0ED80 		beq	.L151
 631              	.LVL65:
 632              	.L70:
 633              		.loc 1 613 0
 634 016c 3444     		add	r4, r4, r6
 635              	.LVL66:
 636 016e A4B2     		uxth	r4, r4
 637              	.LBE20:
 638              		.loc 1 522 0
 639 0170 A145     		cmp	r9, r4
 640              	.LBB24:
 641              		.loc 1 604 0
 642 0172 CAF80000 		str	r0, [r10]
 643              	.LVL67:
 644              	.LBE24:
 645              		.loc 1 522 0
 646 0176 55D9     		bls	.L137
 647              	.LVL68:
 648              	.L155:
 649 0178 8246     		mov	r10, r0
 650              	.LVL69:
 651              	.L71:
 652              	.LBB25:
 653              		.loc 1 524 0
 654 017a C4EB0906 		rsb	r6, r4, r9
 655              		.loc 1 526 0
 656 017e 079B     		ldr	r3, [sp, #28]
 657              		.loc 1 532 0
 658 0180 0998     		ldr	r0, [sp, #36]
 659              		.loc 1 526 0
 660 0182 B6B2     		uxth	r6, r6
 661 0184 9E42     		cmp	r6, r3
 662 0186 28BF     		it	cs
 663 0188 1E46     		movcs	r6, r3
 664              	.LVL70:
 665              		.loc 1 532 0
 666 018a 0028     		cmp	r0, #0
 667 018c B2D0     		beq	.L61
 668              		.loc 1 535 0
 669 018e 069A     		ldr	r2, [sp, #24]
 670 0190 0D98     		ldr	r0, [sp, #52]
 671 0192 CDF80080 		str	r8, [sp]
 672 0196 D2F10103 		rsbs	r3, r2, #1
 673 019a 38BF     		it	cc
 674 019c 0023     		movcc	r3, #0
 675 019e 0190     		str	r0, [sp, #4]
 676 01a0 0293     		str	r3, [sp, #8]
 677 01a2 0020     		movs	r0, #0
 678 01a4 3146     		mov	r1, r6
 679 01a6 079A     		ldr	r2, [sp, #28]
 680 01a8 0DF14603 		add	r3, sp, #70
ARM GAS  /tmp/ccAMfTfz.s 			page 13


 681 01ac FFF7FEFF 		bl	tcp_pbuf_prealloc
 682              	.LVL71:
 683 01b0 0546     		mov	r5, r0
 684 01b2 0028     		cmp	r0, #0
 685 01b4 00F09B80 		beq	.L67
 686              		.loc 1 539 0
 687 01b8 4389     		ldrh	r3, [r0, #10]
 688 01ba B342     		cmp	r3, r6
 689 01bc C0F09180 		bcc	.L152
 690              	.LVL72:
 691              	.L63:
 692              		.loc 1 541 0
 693 01c0 0899     		ldr	r1, [sp, #32]
 694 01c2 6868     		ldr	r0, [r5, #4]
 695 01c4 2144     		add	r1, r1, r4
 696 01c6 3246     		mov	r2, r6
 697 01c8 FFF7FEFF 		bl	memcpy
 698              	.LVL73:
 699 01cc B0E7     		b	.L64
 700              	.LVL74:
 701              	.L142:
 702              	.LBE25:
 703              	.LBB26:
 704              	.LBB11:
 705              		.loc 1 298 0
 706 01ce 023B     		subs	r3, r3, #2
 707 01d0 DBB2     		uxtb	r3, r3
 708 01d2 022B     		cmp	r3, #2
 709              		.loc 1 302 0
 710 01d4 88BF     		it	hi
 711 01d6 F320     		movhi	r0, #243
 712              	.LVL75:
 713              		.loc 1 298 0
 714 01d8 7FF62DAF 		bls	.L40
 715              	.LVL76:
 716              	.L39:
 717 01dc 40B2     		sxtb	r0, r0
 718              	.LBE11:
 719              	.LBE26:
 720              		.loc 1 709 0
 721 01de 13B0     		add	sp, sp, #76
 722              		@ sp needed
 723 01e0 BDE8F08F 		pop	{r4, r5, r6, r7, r8, r9, r10, fp, pc}
 724              	.LVL77:
 725              	.L45:
 726              	.LBB27:
 727              	.LBB12:
 728              		.loc 1 331 0
 729 01e4 002B     		cmp	r3, #0
 730 01e6 00F0E880 		beq	.L153
 731              	.L48:
 732              		.loc 1 328 0
 733 01ea FFF7FEFF 		bl	port_halt
 734              	.LVL78:
 735              	.LBE12:
 736              	.LBE27:
 737              		.loc 1 422 0
ARM GAS  /tmp/ccAMfTfz.s 			page 14


 738 01ee D8F86CB0 		ldr	fp, [r8, #108]
 739 01f2 B8F86870 		ldrh	r7, [r8, #104]
 740              	.LVL79:
 741 01f6 BBF1000F 		cmp	fp, #0
 742 01fa 7FF439AF 		bne	.L51
 743              	.LVL80:
 744              	.L49:
 745              		.loc 1 511 0
 746 01fe B8F86A30 		ldrh	r3, [r8, #106]
 747 0202 002B     		cmp	r3, #0
 748 0204 40F02081 		bne	.L154
 749              		.loc 1 364 0
 750 0208 0C93     		str	r3, [sp, #48]
 751              		.loc 1 358 0
 752 020a 1C46     		mov	r4, r3
 753              		.loc 1 357 0
 754 020c 1D46     		mov	r5, r3
 755 020e 9B46     		mov	fp, r3
 756              		.loc 1 356 0
 757 0210 0E93     		str	r3, [sp, #56]
 758 0212 5CE7     		b	.L56
 759              	.LVL81:
 760              	.L148:
 761              	.LBB28:
 762              	.LBB22:
 763              		.loc 1 550 0 discriminator 1
 764 0214 FFF7FEFF 		bl	port_halt
 765              	.LVL82:
 766 0218 71E7     		b	.L65
 767              	.LVL83:
 768              	.L92:
 769              	.LBE22:
 770              		.loc 1 613 0
 771 021a 3444     		add	r4, r4, r6
 772              	.LVL84:
 773 021c A4B2     		uxth	r4, r4
 774              	.LBE28:
 775              		.loc 1 522 0
 776 021e A145     		cmp	r9, r4
 777              	.LBB29:
 778 0220 0690     		str	r0, [sp, #24]
 779              	.LVL85:
 780              	.LBE29:
 781 0222 A9D8     		bhi	.L155
 782              	.LVL86:
 783              	.L137:
 784 0224 DDF83CB0 		ldr	fp, [sp, #60]
 785 0228 0546     		mov	r5, r0
 786              	.LVL87:
 787              	.L60:
 788              		.loc 1 626 0
 789 022a 0C9A     		ldr	r2, [sp, #48]
 790 022c F2B1     		cbz	r2, .L72
 791              	.LBB30:
 792              		.loc 1 629 0
 793 022e DBF80440 		ldr	r4, [fp, #4]
 794              	.LVL88:
ARM GAS  /tmp/ccAMfTfz.s 			page 15


 795 0232 0C9E     		ldr	r6, [sp, #48]
 796 0234 0CB9     		cbnz	r4, .L74
 797 0236 13E0     		b	.L76
 798              	.LVL89:
 799              	.L75:
 800              	.LBE30:
 801              		.loc 1 522 0
 802 0238 1C46     		mov	r4, r3
 803              	.L74:
 804              	.LVL90:
 805              	.LBB31:
 806              		.loc 1 630 0
 807 023a 2189     		ldrh	r1, [r4, #8]
 808              		.loc 1 631 0
 809 023c 2368     		ldr	r3, [r4]
 810              		.loc 1 630 0
 811 023e 3144     		add	r1, r1, r6
 812 0240 2181     		strh	r1, [r4, #8]	@ movhi
 813              		.loc 1 631 0
 814 0242 002B     		cmp	r3, #0
 815 0244 F8D1     		bne	.L75
 816              		.loc 1 632 0
 817 0246 6368     		ldr	r3, [r4, #4]
 818 0248 6089     		ldrh	r0, [r4, #10]
 819 024a 0899     		ldr	r1, [sp, #32]
 820 024c 1844     		add	r0, r0, r3
 821 024e 3246     		mov	r2, r6
 822 0250 FFF7FEFF 		bl	memcpy
 823              	.LVL91:
 824              		.loc 1 633 0
 825 0254 6289     		ldrh	r2, [r4, #10]
 826              		.loc 1 629 0
 827 0256 2368     		ldr	r3, [r4]
 828              	.LVL92:
 829              		.loc 1 633 0
 830 0258 3244     		add	r2, r2, r6
 831 025a 6281     		strh	r2, [r4, #10]	@ movhi
 832              		.loc 1 629 0
 833 025c 002B     		cmp	r3, #0
 834 025e EBD1     		bne	.L75
 835              	.LVL93:
 836              	.L76:
 837              		.loc 1 636 0
 838 0260 BBF80830 		ldrh	r3, [fp, #8]
 839 0264 0C98     		ldr	r0, [sp, #48]
 840 0266 0344     		add	r3, r3, r0
 841 0268 ABF80830 		strh	r3, [fp, #8]	@ movhi
 842              	.L72:
 843              	.LBE31:
 844              		.loc 1 643 0
 845 026c BDF84630 		ldrh	r3, [sp, #70]
 846              		.loc 1 649 0
 847 0270 0E9A     		ldr	r2, [sp, #56]
 848              		.loc 1 643 0
 849 0272 A8F86A30 		strh	r3, [r8, #106]	@ movhi
 850              		.loc 1 649 0
 851 0276 002A     		cmp	r2, #0
ARM GAS  /tmp/ccAMfTfz.s 			page 16


 852 0278 00F00C81 		beq	.L77
 853              		.loc 1 650 0
 854 027c BBF1000F 		cmp	fp, #0
 855 0280 00F01381 		beq	.L156
 856              	.L78:
 857              		.loc 1 652 0
 858 0284 DBF80400 		ldr	r0, [fp, #4]
 859 0288 0E99     		ldr	r1, [sp, #56]
 860 028a FFF7FEFF 		bl	pbuf_cat
 861              	.LVL94:
 862              		.loc 1 653 0
 863 028e 0E9B     		ldr	r3, [sp, #56]
 864 0290 1A89     		ldrh	r2, [r3, #8]
 865 0292 BBF80830 		ldrh	r3, [fp, #8]
 866 0296 1344     		add	r3, r3, r2
 867 0298 ABF80830 		strh	r3, [fp, #8]	@ movhi
 868              	.L79:
 869              		.loc 1 670 0
 870 029c 069A     		ldr	r2, [sp, #24]
 871 029e CBF80020 		str	r2, [fp]
 872              	.L80:
 873              		.loc 1 676 0
 874 02a2 D8F85C30 		ldr	r3, [r8, #92]
 875              		.loc 1 677 0
 876 02a6 B8F86620 		ldrh	r2, [r8, #102]
 877              		.loc 1 678 0
 878 02aa A8F86870 		strh	r7, [r8, #104]	@ movhi
 879              		.loc 1 676 0
 880 02ae 4B44     		add	r3, r3, r9
 881              		.loc 1 677 0
 882 02b0 C9EB0209 		rsb	r9, r9, r2
 883              	.LVL95:
 884              		.loc 1 676 0
 885 02b4 C8F85C30 		str	r3, [r8, #92]
 886              		.loc 1 677 0
 887 02b8 A8F86690 		strh	r9, [r8, #102]	@ movhi
 888              		.loc 1 682 0
 889 02bc 27B1     		cbz	r7, .L81
 890              		.loc 1 683 0
 891 02be D8F87030 		ldr	r3, [r8, #112]
 892 02c2 002B     		cmp	r3, #0
 893 02c4 00F0B080 		beq	.L157
 894              	.L81:
 895              		.loc 1 688 0
 896 02c8 4DB1     		cbz	r5, .L95
 897              		.loc 1 688 0 is_stmt 0 discriminator 1
 898 02ca EC68     		ldr	r4, [r5, #12]
 899 02cc 3CB1     		cbz	r4, .L95
 900 02ce 0D98     		ldr	r0, [sp, #52]
 901 02d0 00F00203 		and	r3, r0, #2
 902 02d4 03F0FF05 		and	r5, r3, #255
 903 02d8 002B     		cmp	r3, #0
 904 02da 00F0AD80 		beq	.L158
 905              	.L95:
 906              		.loc 1 692 0 is_stmt 1
 907 02de 0020     		movs	r0, #0
 908 02e0 7CE7     		b	.L39
ARM GAS  /tmp/ccAMfTfz.s 			page 17


 909              	.LVL96:
 910              	.L152:
 911              	.LBB32:
 912              		.loc 1 539 0 discriminator 1
 913 02e2 FFF7FEFF 		bl	port_halt
 914              	.LVL97:
 915 02e6 6BE7     		b	.L63
 916              	.LVL98:
 917              	.L149:
 918              	.LBB23:
 919              		.loc 1 567 0
 920 02e8 5846     		mov	r0, fp
 921              	.LVL99:
 922 02ea FFF7FEFF 		bl	pbuf_free
 923              	.LVL100:
 924              	.L67:
 925              	.LBE23:
 926              	.LBE32:
 927              		.loc 1 694 0
 928 02ee 98F81E20 		ldrb	r2, [r8, #30]	@ zero_extendqisi2
 929              		.loc 1 695 0
 930 02f2 40F20003 		movw	r3, #:lower16:lwip_stats
 931              		.loc 1 694 0
 932 02f6 62F07F02 		orn	r2, r2, #127
 933              		.loc 1 695 0
 934 02fa C0F20003 		movt	r3, #:upper16:lwip_stats
 935              		.loc 1 694 0
 936 02fe 88F81E20 		strb	r2, [r8, #30]
 937              		.loc 1 695 0
 938 0302 B3F89C20 		ldrh	r2, [r3, #156]
 939 0306 0132     		adds	r2, r2, #1
 940 0308 A3F89C20 		strh	r2, [r3, #156]	@ movhi
 941              		.loc 1 697 0
 942 030c 0E9A     		ldr	r2, [sp, #56]
 943 030e 12B1     		cbz	r2, .L82
 944              		.loc 1 698 0
 945 0310 1046     		mov	r0, r2
 946 0312 FFF7FEFF 		bl	pbuf_free
 947              	.LVL101:
 948              	.L82:
 949              		.loc 1 700 0
 950 0316 069B     		ldr	r3, [sp, #24]
 951 0318 13B1     		cbz	r3, .L83
 952              		.loc 1 701 0
 953 031a 1846     		mov	r0, r3
 954 031c FFF7FEFF 		bl	tcp_segs_free
 955              	.LVL102:
 956              	.L83:
 957              		.loc 1 703 0
 958 0320 B8F86830 		ldrh	r3, [r8, #104]
 959 0324 3BB1     		cbz	r3, .L98
 960              		.loc 1 704 0
 961 0326 D8F87030 		ldr	r3, [r8, #112]
 962 032a 23B9     		cbnz	r3, .L98
 963              		.loc 1 704 0 is_stmt 0 discriminator 1
 964 032c D8F86C30 		ldr	r3, [r8, #108]
 965 0330 002B     		cmp	r3, #0
ARM GAS  /tmp/ccAMfTfz.s 			page 18


 966 0332 00F09280 		beq	.L159
 967              	.L98:
 968              		.loc 1 708 0 is_stmt 1
 969 0336 FF20     		movs	r0, #255
 970 0338 40B2     		sxtb	r0, r0
 971              		.loc 1 709 0
 972 033a 13B0     		add	sp, sp, #76
 973              		@ sp needed
 974 033c BDE8F08F 		pop	{r4, r5, r6, r7, r8, r9, r10, fp, pc}
 975              	.LVL103:
 976              	.L42:
 977 0340 B8F86870 		ldrh	r7, [r8, #104]
 978 0344 8DE6     		b	.L46
 979              	.LVL104:
 980              	.L151:
 981              	.LBB33:
 982              		.loc 1 603 0 discriminator 1
 983 0346 0590     		str	r0, [sp, #20]
 984 0348 FFF7FEFF 		bl	port_halt
 985              	.LVL105:
 986 034c 0598     		ldr	r0, [sp, #20]
 987 034e 0DE7     		b	.L70
 988              	.LVL106:
 989              	.L54:
 990              	.LBE33:
 991              	.LBB34:
 992              		.loc 1 451 0
 993 0350 9145     		cmp	r9, r2
 994 0352 34BF     		ite	cc
 995 0354 4B46     		movcc	r3, r9
 996 0356 1346     		movcs	r3, r2
 997              	.LVL107:
 998              		.loc 1 453 0
 999 0358 D21A     		subs	r2, r2, r3
 1000 035a 92B2     		uxth	r2, r2
 1001              		.loc 1 454 0
 1002 035c F61A     		subs	r6, r6, r3
 1003              	.LVL108:
 1004              		.loc 1 457 0
 1005 035e 002A     		cmp	r2, #0
 1006 0360 18BF     		it	ne
 1007 0362 9945     		cmpne	r9, r3
 1008              		.loc 1 451 0
 1009 0364 0C93     		str	r3, [sp, #48]
 1010              	.LVL109:
 1011              		.loc 1 453 0
 1012 0366 ADF84620 		strh	r2, [sp, #70]	@ movhi
 1013              		.loc 1 454 0
 1014 036a B6B2     		uxth	r6, r6
 1015              	.LVL110:
 1016 036c 08BF     		it	eq
 1017 036e 5D46     		moveq	r5, fp
 1018              		.loc 1 457 0
 1019 0370 3FF49EAE 		beq	.L55
 1020              		.loc 1 457 0 is_stmt 0 discriminator 1
 1021 0374 FFF7FEFF 		bl	port_halt
 1022              	.LVL111:
ARM GAS  /tmp/ccAMfTfz.s 			page 19


 1023 0378 5D46     		mov	r5, fp
 1024 037a 99E6     		b	.L55
 1025              	.LVL112:
 1026              	.L147:
 1027              	.LBB17:
 1028              		.loc 1 474 0 is_stmt 1
 1029 037c 0D9A     		ldr	r2, [sp, #52]
 1030              		.loc 1 468 0
 1031 037e C0EB0904 		rsb	r4, r0, r9
 1032 0382 B442     		cmp	r4, r6
 1033 0384 A8BF     		it	ge
 1034 0386 3446     		movge	r4, r6
 1035              		.loc 1 474 0
 1036 0388 D507     		lsls	r5, r2, #31
 1037              		.loc 1 468 0
 1038 038a A4B2     		uxth	r4, r4
 1039              	.LVL113:
 1040              		.loc 1 474 0
 1041 038c 1FD5     		bpl	.L57
 1042              		.loc 1 476 0
 1043 038e 0123     		movs	r3, #1
 1044 0390 0192     		str	r2, [sp, #4]
 1045 0392 0293     		str	r3, [sp, #8]
 1046 0394 CDF80080 		str	r8, [sp]
 1047 0398 3246     		mov	r2, r6
 1048 039a 0320     		movs	r0, #3
 1049 039c 2146     		mov	r1, r4
 1050 039e 0DF14603 		add	r3, sp, #70
 1051 03a2 FFF7FEFF 		bl	tcp_pbuf_prealloc
 1052              	.LVL114:
 1053 03a6 0E90     		str	r0, [sp, #56]
 1054 03a8 70B3     		cbz	r0, .L58
 1055              		.loc 1 485 0
 1056 03aa 0899     		ldr	r1, [sp, #32]
 1057 03ac 0C9B     		ldr	r3, [sp, #48]
 1058 03ae 4068     		ldr	r0, [r0, #4]
 1059              	.LVL115:
 1060 03b0 1944     		add	r1, r1, r3
 1061 03b2 2246     		mov	r2, r4
 1062 03b4 FFF7FEFF 		bl	memcpy
 1063              	.LVL116:
 1064 03b8 15E0     		b	.L59
 1065              	.LVL117:
 1066              	.L153:
 1067              	.LBE17:
 1068              	.LBE34:
 1069              	.LBB35:
 1070              	.LBB13:
 1071              		.loc 1 331 0
 1072 03ba D8F86C30 		ldr	r3, [r8, #108]
 1073 03be 002B     		cmp	r3, #0
 1074 03c0 7FF413AF 		bne	.L48
 1075 03c4 1BE7     		b	.L49
 1076              	.LVL118:
 1077              	.L150:
 1078              	.LBE13:
 1079              	.LBE35:
ARM GAS  /tmp/ccAMfTfz.s 			page 20


 1080              	.LBB36:
 1081              		.loc 1 582 0
 1082 03c6 2846     		mov	r0, r5
 1083              	.LVL119:
 1084 03c8 FFF7FEFF 		bl	pbuf_free
 1085              	.LVL120:
 1086              		.loc 1 583 0
 1087 03cc 8FE7     		b	.L67
 1088              	.LVL121:
 1089              	.L57:
 1090              	.LBE36:
 1091              	.LBB37:
 1092              	.LBB18:
 1093              		.loc 1 491 0
 1094 03ce 0320     		movs	r0, #3
 1095 03d0 2146     		mov	r1, r4
 1096 03d2 0122     		movs	r2, #1
 1097 03d4 FFF7FEFF 		bl	pbuf_alloc
 1098              	.LVL122:
 1099 03d8 0E90     		str	r0, [sp, #56]
 1100 03da A8B1     		cbz	r0, .L58
 1101              		.loc 1 503 0
 1102 03dc 089B     		ldr	r3, [sp, #32]
 1103 03de 0C98     		ldr	r0, [sp, #48]
 1104              	.LVL123:
 1105 03e0 0E9A     		ldr	r2, [sp, #56]
 1106 03e2 0344     		add	r3, r3, r0
 1107 03e4 5360     		str	r3, [r2, #4]
 1108              	.L59:
 1109              		.loc 1 506 0
 1110 03e6 0C9B     		ldr	r3, [sp, #48]
 1111              		.loc 1 507 0
 1112 03e8 0E98     		ldr	r0, [sp, #56]
 1113              		.loc 1 506 0
 1114 03ea 1C44     		add	r4, r4, r3
 1115              	.LVL124:
 1116              		.loc 1 507 0
 1117 03ec FFF7FEFF 		bl	pbuf_clen
 1118              	.LVL125:
 1119 03f0 3844     		add	r0, r0, r7
 1120              		.loc 1 506 0
 1121 03f2 A4B2     		uxth	r4, r4
 1122              	.LVL126:
 1123              		.loc 1 507 0
 1124 03f4 87B2     		uxth	r7, r0
 1125              	.LVL127:
 1126 03f6 5D46     		mov	r5, fp
 1127 03f8 69E6     		b	.L56
 1128              	.LVL128:
 1129              	.L145:
 1130              	.LBE18:
 1131              	.LBE37:
 1132              	.LBB38:
 1133              	.LBB14:
 1134              		.loc 1 328 0
 1135 03fa D8F86CB0 		ldr	fp, [r8, #108]
 1136 03fe BBF1000F 		cmp	fp, #0
ARM GAS  /tmp/ccAMfTfz.s 			page 21


 1137 0402 7FF435AE 		bne	.L51
 1138 0406 F0E6     		b	.L48
 1139              	.LVL129:
 1140              	.L58:
 1141              	.LBE14:
 1142              	.LBE38:
 1143              		.loc 1 694 0
 1144 0408 98F81E20 		ldrb	r2, [r8, #30]	@ zero_extendqisi2
 1145              		.loc 1 695 0
 1146 040c 40F20003 		movw	r3, #:lower16:lwip_stats
 1147              		.loc 1 694 0
 1148 0410 62F07F02 		orn	r2, r2, #127
 1149              		.loc 1 695 0
 1150 0414 C0F20003 		movt	r3, #:upper16:lwip_stats
 1151              		.loc 1 694 0
 1152 0418 88F81E20 		strb	r2, [r8, #30]
 1153              		.loc 1 695 0
 1154 041c B3F89C20 		ldrh	r2, [r3, #156]
 1155 0420 0132     		adds	r2, r2, #1
 1156 0422 A3F89C20 		strh	r2, [r3, #156]	@ movhi
 1157 0426 7BE7     		b	.L83
 1158              	.LVL130:
 1159              	.L157:
 1160              		.loc 1 683 0 discriminator 1
 1161 0428 D8F86C30 		ldr	r3, [r8, #108]
 1162 042c 002B     		cmp	r3, #0
 1163 042e 7FF44BAF 		bne	.L81
 1164 0432 FFF7FEFF 		bl	port_halt
 1165              	.LVL131:
 1166 0436 47E7     		b	.L81
 1167              	.L158:
 1168              		.loc 1 689 0
 1169 0438 0820     		movs	r0, #8
 1170 043a A689     		ldrh	r6, [r4, #12]	@ unaligned
 1171 043c FFF7FEFF 		bl	lwip_htons
 1172              	.LVL132:
 1173 0440 3043     		orrs	r0, r0, r6
 1174 0442 A081     		strh	r0, [r4, #12]	@ unaligned
 1175              		.loc 1 692 0
 1176 0444 2846     		mov	r0, r5
 1177 0446 C9E6     		b	.L39
 1178              	.LVL133:
 1179              	.L154:
 1180              		.loc 1 364 0 discriminator 1
 1181 0448 0020     		movs	r0, #0
 1182 044a 0C90     		str	r0, [sp, #48]
 1183              		.loc 1 511 0 discriminator 1
 1184 044c FFF7FEFF 		bl	port_halt
 1185              	.LVL134:
 1186              		.loc 1 358 0 discriminator 1
 1187 0450 0C9C     		ldr	r4, [sp, #48]
 1188              		.loc 1 357 0 discriminator 1
 1189 0452 2546     		mov	r5, r4
 1190 0454 A346     		mov	fp, r4
 1191              		.loc 1 356 0 discriminator 1
 1192 0456 0E94     		str	r4, [sp, #56]
 1193 0458 39E6     		b	.L56
ARM GAS  /tmp/ccAMfTfz.s 			page 22


 1194              	.LVL135:
 1195              	.L159:
 1196              		.loc 1 704 0 discriminator 1
 1197 045a FFF7FEFF 		bl	port_halt
 1198              	.LVL136:
 1199              		.loc 1 708 0 discriminator 1
 1200 045e FF20     		movs	r0, #255
 1201 0460 BCE6     		b	.L39
 1202              	.LVL137:
 1203              	.L143:
 1204              	.LBB39:
 1205              	.LBB15:
 1206              		.loc 1 311 0
 1207 0462 98F81E30 		ldrb	r3, [r8, #30]	@ zero_extendqisi2
 1208 0466 63F07F03 		orn	r3, r3, #127
 1209 046a 88F81E30 		strb	r3, [r8, #30]
 1210              		.loc 1 312 0
 1211 046e FF20     		movs	r0, #255
 1212 0470 B4E6     		b	.L39
 1213              	.L144:
 1214              		.loc 1 323 0
 1215 0472 40F20003 		movw	r3, #:lower16:lwip_stats
 1216 0476 C0F20003 		movt	r3, #:upper16:lwip_stats
 1217              		.loc 1 325 0
 1218 047a FF20     		movs	r0, #255
 1219              		.loc 1 323 0
 1220 047c B3F89C20 		ldrh	r2, [r3, #156]
 1221              	.LVL138:
 1222 0480 0132     		adds	r2, r2, #1
 1223 0482 A3F89C20 		strh	r2, [r3, #156]	@ movhi
 1224              		.loc 1 324 0
 1225 0486 98F81E30 		ldrb	r3, [r8, #30]	@ zero_extendqisi2
 1226 048a 63F07F03 		orn	r3, r3, #127
 1227 048e 88F81E30 		strb	r3, [r8, #30]
 1228 0492 A3E6     		b	.L39
 1229              	.LVL139:
 1230              	.L77:
 1231              	.LBE15:
 1232              	.LBE39:
 1233              		.loc 1 667 0
 1234 0494 BBF1000F 		cmp	fp, #0
 1235 0498 7FF400AF 		bne	.L79
 1236              		.loc 1 668 0
 1237 049c 0698     		ldr	r0, [sp, #24]
 1238 049e C8F86C00 		str	r0, [r8, #108]
 1239 04a2 FEE6     		b	.L80
 1240              	.LVL140:
 1241              	.L91:
 1242              		.loc 1 522 0
 1243 04a4 0020     		movs	r0, #0
 1244 04a6 0690     		str	r0, [sp, #24]
 1245 04a8 BFE6     		b	.L60
 1246              	.LVL141:
 1247              	.L156:
 1248              		.loc 1 650 0 discriminator 1
 1249 04aa FFF7FEFF 		bl	port_halt
 1250              	.LVL142:
ARM GAS  /tmp/ccAMfTfz.s 			page 23


 1251 04ae E9E6     		b	.L78
 1252              	.LVL143:
 1253              	.L141:
 1254              		.loc 1 382 0 discriminator 1
 1255 04b0 FFF7FEFF 		bl	port_halt
 1256              	.LVL144:
 1257 04b4 F220     		movs	r0, #242
 1258 04b6 91E6     		b	.L39
 1259              		.cfi_endproc
 1260              	.LFE12:
 1261              		.size	tcp_write, .-tcp_write
 1262 04b8 AFF30080 		.section	.text.tcp_enqueue_flags,"ax",%progbits
 1262      AFF30080 
 1263              		.align	2
 1264              		.p2align 4,,15
 1265              		.global	tcp_enqueue_flags
 1266              		.thumb
 1267              		.thumb_func
 1268              		.type	tcp_enqueue_flags, %function
 1269              	tcp_enqueue_flags:
 1270              	.LFB13:
 1271              		.loc 1 723 0
 1272              		.cfi_startproc
 1273              		@ args = 0, pretend = 0, frame = 0
 1274              		@ frame_needed = 0, uses_anonymous_args = 0
 1275              	.LVL145:
 1276 0000 2DE9F043 		push	{r4, r5, r6, r7, r8, r9, lr}
 1277              		.cfi_def_cfa_offset 28
 1278              		.cfi_offset 4, -28
 1279              		.cfi_offset 5, -24
 1280              		.cfi_offset 6, -20
 1281              		.cfi_offset 7, -16
 1282              		.cfi_offset 8, -12
 1283              		.cfi_offset 9, -8
 1284              		.cfi_offset 14, -4
 1285              		.loc 1 731 0
 1286 0004 11F00308 		ands	r8, r1, #3
 1287              		.loc 1 723 0
 1288 0008 83B0     		sub	sp, sp, #12
 1289              		.cfi_def_cfa_offset 40
 1290              		.loc 1 723 0
 1291 000a 0E46     		mov	r6, r1
 1292 000c 0546     		mov	r5, r0
 1293              		.loc 1 731 0
 1294 000e 61D0     		beq	.L194
 1295              	.LVL146:
 1296              	.L161:
 1297              		.loc 1 735 0
 1298 0010 B5F86830 		ldrh	r3, [r5, #104]
 1299 0014 072B     		cmp	r3, #7
 1300 0016 7FD8     		bhi	.L195
 1301              		.loc 1 743 0
 1302 0018 06F00203 		and	r3, r6, #2
 1303 001c 03F0FF09 		and	r9, r3, #255
 1304              		.loc 1 751 0
 1305 0020 4F46     		mov	r7, r9
 1306              		.loc 1 743 0
ARM GAS  /tmp/ccAMfTfz.s 			page 24


 1307 0022 002B     		cmp	r3, #0
 1308 0024 49D1     		bne	.L196
 1309              	.L164:
 1310              	.LVL147:
 1311              		.loc 1 757 0 discriminator 3
 1312 0026 B5F86630 		ldrh	r3, [r5, #102]
 1313 002a 002B     		cmp	r3, #0
 1314 002c 69D0     		beq	.L197
 1315              		.loc 1 764 0
 1316 002e 0020     		movs	r0, #0
 1317 0030 0246     		mov	r2, r0
 1318 0032 3946     		mov	r1, r7
 1319 0034 FFF7FEFF 		bl	pbuf_alloc
 1320              	.LVL148:
 1321 0038 0446     		mov	r4, r0
 1322 003a 0028     		cmp	r0, #0
 1323 003c 7BD0     		beq	.L193
 1324              		.loc 1 769 0
 1325 003e 4389     		ldrh	r3, [r0, #10]
 1326 0040 BB42     		cmp	r3, r7
 1327 0042 4AD3     		bcc	.L198
 1328              	.LVL149:
 1329              	.L167:
 1330              		.loc 1 773 0
 1331 0044 EB6D     		ldr	r3, [r5, #92]
 1332 0046 CDF80490 		str	r9, [sp, #4]
 1333 004a 0093     		str	r3, [sp]
 1334 004c 2246     		mov	r2, r4
 1335 004e 05F11A00 		add	r0, r5, #26
 1336 0052 05F11C01 		add	r1, r5, #28
 1337 0056 3346     		mov	r3, r6
 1338 0058 FFF7FEFF 		bl	tcp_create_segment.isra.0
 1339              	.LVL150:
 1340 005c 0746     		mov	r7, r0
 1341              	.LVL151:
 1342 005e 0028     		cmp	r0, #0
 1343 0060 69D0     		beq	.L193
 1344              		.loc 1 778 0
 1345 0062 C368     		ldr	r3, [r0, #12]
 1346 0064 9B07     		lsls	r3, r3, #30
 1347 0066 42D1     		bne	.L199
 1348              	.LVL152:
 1349              	.L169:
 1350              		.loc 1 779 0
 1351 0068 3B89     		ldrh	r3, [r7, #8]
 1352 006a 002B     		cmp	r3, #0
 1353 006c 38D1     		bne	.L200
 1354              		.loc 1 788 0
 1355 006e EC6E     		ldr	r4, [r5, #108]
 1356              	.LVL153:
 1357 0070 0CB9     		cbnz	r4, .L174
 1358 0072 3AE0     		b	.L201
 1359              	.LVL154:
 1360              	.L202:
 1361              	.LBB40:
 1362              		.loc 1 792 0
 1363 0074 1446     		mov	r4, r2
ARM GAS  /tmp/ccAMfTfz.s 			page 25


 1364              	.LVL155:
 1365              	.L174:
 1366              		.loc 1 792 0 is_stmt 0 discriminator 1
 1367 0076 2268     		ldr	r2, [r4]
 1368 0078 002A     		cmp	r2, #0
 1369 007a FBD1     		bne	.L202
 1370              		.loc 1 793 0 is_stmt 1
 1371 007c 2760     		str	r7, [r4]
 1372              	.LVL156:
 1373              	.L172:
 1374              	.LBE40:
 1375              		.loc 1 797 0
 1376 007e 0023     		movs	r3, #0
 1377 0080 A5F86A30 		strh	r3, [r5, #106]	@ movhi
 1378              		.loc 1 801 0
 1379 0084 B8F1000F 		cmp	r8, #0
 1380 0088 1BD1     		bne	.L203
 1381              	.L175:
 1382              		.loc 1 806 0
 1383 008a F607     		lsls	r6, r6, #31
 1384              		.loc 1 807 0
 1385 008c 48BF     		it	mi
 1386 008e AB7F     		ldrbmi	r3, [r5, #30]	@ zero_extendqisi2
 1387              		.loc 1 811 0
 1388 0090 B5F86840 		ldrh	r4, [r5, #104]
 1389              		.loc 1 807 0
 1390 0094 44BF     		itt	mi
 1391 0096 43F02003 		orrmi	r3, r3, #32
 1392 009a AB77     		strbmi	r3, [r5, #30]
 1393              		.loc 1 811 0
 1394 009c 7868     		ldr	r0, [r7, #4]
 1395 009e FFF7FEFF 		bl	pbuf_clen
 1396              	.LVL157:
 1397 00a2 2044     		add	r0, r0, r4
 1398 00a4 80B2     		uxth	r0, r0
 1399 00a6 A5F86800 		strh	r0, [r5, #104]	@ movhi
 1400              		.loc 1 813 0
 1401 00aa 10B1     		cbz	r0, .L163
 1402              		.loc 1 814 0
 1403 00ac 286F     		ldr	r0, [r5, #112]
 1404 00ae 08B3     		cbz	r0, .L204
 1405              		.loc 1 818 0
 1406 00b0 0020     		movs	r0, #0
 1407              	.LVL158:
 1408              	.L163:
 1409              		.loc 1 819 0
 1410 00b2 40B2     		sxtb	r0, r0
 1411 00b4 03B0     		add	sp, sp, #12
 1412              		@ sp needed
 1413 00b6 BDE8F083 		pop	{r4, r5, r6, r7, r8, r9, pc}
 1414              	.LVL159:
 1415              	.L196:
 1416              		.loc 1 744 0
 1417 00ba 4FF00109 		mov	r9, #1
 1418              		.loc 1 751 0
 1419 00be 0427     		movs	r7, #4
 1420 00c0 B1E7     		b	.L164
ARM GAS  /tmp/ccAMfTfz.s 			page 26


 1421              	.LVL160:
 1422              	.L203:
 1423              		.loc 1 802 0
 1424 00c2 EB6D     		ldr	r3, [r5, #92]
 1425              		.loc 1 804 0
 1426 00c4 B5F86620 		ldrh	r2, [r5, #102]
 1427              		.loc 1 802 0
 1428 00c8 0133     		adds	r3, r3, #1
 1429              		.loc 1 804 0
 1430 00ca 013A     		subs	r2, r2, #1
 1431              		.loc 1 802 0
 1432 00cc EB65     		str	r3, [r5, #92]
 1433              		.loc 1 804 0
 1434 00ce A5F86620 		strh	r2, [r5, #102]	@ movhi
 1435 00d2 DAE7     		b	.L175
 1436              	.LVL161:
 1437              	.L194:
 1438              		.loc 1 731 0 discriminator 1
 1439 00d4 FFF7FEFF 		bl	port_halt
 1440              	.LVL162:
 1441 00d8 9AE7     		b	.L161
 1442              	.LVL163:
 1443              	.L198:
 1444              		.loc 1 769 0 discriminator 1
 1445 00da FFF7FEFF 		bl	port_halt
 1446              	.LVL164:
 1447 00de B1E7     		b	.L167
 1448              	.LVL165:
 1449              	.L200:
 1450              		.loc 1 779 0 discriminator 1
 1451 00e0 FFF7FEFF 		bl	port_halt
 1452              	.LVL166:
 1453              		.loc 1 788 0 discriminator 1
 1454 00e4 EC6E     		ldr	r4, [r5, #108]
 1455              	.LVL167:
 1456 00e6 002C     		cmp	r4, #0
 1457 00e8 C5D1     		bne	.L174
 1458              	.L201:
 1459              		.loc 1 789 0
 1460 00ea EF66     		str	r7, [r5, #108]
 1461 00ec C7E7     		b	.L172
 1462              	.LVL168:
 1463              	.L199:
 1464              		.loc 1 778 0 discriminator 1
 1465 00ee FFF7FEFF 		bl	port_halt
 1466              	.LVL169:
 1467 00f2 B9E7     		b	.L169
 1468              	.LVL170:
 1469              	.L204:
 1470              		.loc 1 814 0 discriminator 1
 1471 00f4 EC6E     		ldr	r4, [r5, #108]
 1472 00f6 002C     		cmp	r4, #0
 1473 00f8 DBD1     		bne	.L163
 1474 00fa FFF7FEFF 		bl	port_halt
 1475              	.LVL171:
 1476              		.loc 1 818 0 discriminator 1
 1477 00fe 2046     		mov	r0, r4
ARM GAS  /tmp/ccAMfTfz.s 			page 27


 1478 0100 D7E7     		b	.L163
 1479              	.LVL172:
 1480              	.L197:
 1481              		.loc 1 759 0
 1482 0102 40F20003 		movw	r3, #:lower16:lwip_stats
 1483 0106 C0F20003 		movt	r3, #:upper16:lwip_stats
 1484              		.loc 1 760 0
 1485 010a FF20     		movs	r0, #255
 1486              		.loc 1 759 0
 1487 010c B3F89C20 		ldrh	r2, [r3, #156]
 1488 0110 0132     		adds	r2, r2, #1
 1489 0112 A3F89C20 		strh	r2, [r3, #156]	@ movhi
 1490              		.loc 1 760 0
 1491 0116 CCE7     		b	.L163
 1492              	.LVL173:
 1493              	.L195:
 1494              		.loc 1 738 0
 1495 0118 40F20003 		movw	r3, #:lower16:lwip_stats
 1496 011c C0F20003 		movt	r3, #:upper16:lwip_stats
 1497              		.loc 1 740 0
 1498 0120 FF20     		movs	r0, #255
 1499              		.loc 1 738 0
 1500 0122 B3F89C20 		ldrh	r2, [r3, #156]
 1501 0126 0132     		adds	r2, r2, #1
 1502 0128 A3F89C20 		strh	r2, [r3, #156]	@ movhi
 1503              		.loc 1 739 0
 1504 012c AB7F     		ldrb	r3, [r5, #30]	@ zero_extendqisi2
 1505 012e 63F07F03 		orn	r3, r3, #127
 1506 0132 AB77     		strb	r3, [r5, #30]
 1507              		.loc 1 740 0
 1508 0134 BDE7     		b	.L163
 1509              	.LVL174:
 1510              	.L193:
 1511              		.loc 1 774 0
 1512 0136 AA7F     		ldrb	r2, [r5, #30]	@ zero_extendqisi2
 1513              		.loc 1 775 0
 1514 0138 40F20003 		movw	r3, #:lower16:lwip_stats
 1515              		.loc 1 774 0
 1516 013c 62F07F02 		orn	r2, r2, #127
 1517              		.loc 1 775 0
 1518 0140 C0F20003 		movt	r3, #:upper16:lwip_stats
 1519              		.loc 1 774 0
 1520 0144 AA77     		strb	r2, [r5, #30]
 1521              		.loc 1 775 0
 1522 0146 B3F89C20 		ldrh	r2, [r3, #156]
 1523 014a 0132     		adds	r2, r2, #1
 1524 014c A3F89C20 		strh	r2, [r3, #156]	@ movhi
 1525              		.loc 1 776 0
 1526 0150 FF20     		movs	r0, #255
 1527 0152 AEE7     		b	.L163
 1528              		.cfi_endproc
 1529              	.LFE13:
 1530              		.size	tcp_enqueue_flags, .-tcp_enqueue_flags
 1531 0154 AFF30080 		.section	.text.tcp_send_fin,"ax",%progbits
 1531      AFF30080 
 1531      AFF30080 
 1532              		.align	2
ARM GAS  /tmp/ccAMfTfz.s 			page 28


 1533              		.p2align 4,,15
 1534              		.global	tcp_send_fin
 1535              		.thumb
 1536              		.thumb_func
 1537              		.type	tcp_send_fin, %function
 1538              	tcp_send_fin:
 1539              	.LFB8:
 1540              		.loc 1 126 0
 1541              		.cfi_startproc
 1542              		@ args = 0, pretend = 0, frame = 0
 1543              		@ frame_needed = 0, uses_anonymous_args = 0
 1544              	.LVL175:
 1545 0000 F8B5     		push	{r3, r4, r5, r6, r7, lr}
 1546              		.cfi_def_cfa_offset 24
 1547              		.cfi_offset 3, -24
 1548              		.cfi_offset 4, -20
 1549              		.cfi_offset 5, -16
 1550              		.cfi_offset 6, -12
 1551              		.cfi_offset 7, -8
 1552              		.cfi_offset 14, -4
 1553              		.loc 1 128 0
 1554 0002 C46E     		ldr	r4, [r0, #108]
 1555              		.loc 1 126 0
 1556 0004 0546     		mov	r5, r0
 1557              		.loc 1 128 0
 1558 0006 0CB9     		cbnz	r4, .L208
 1559 0008 0AE0     		b	.L206
 1560              	.LVL176:
 1561              	.L215:
 1562              	.LBB41:
 1563              		.loc 1 131 0
 1564 000a 1C46     		mov	r4, r3
 1565              	.LVL177:
 1566              	.L208:
 1567              		.loc 1 130 0 discriminator 1
 1568 000c 2368     		ldr	r3, [r4]
 1569 000e 002B     		cmp	r3, #0
 1570 0010 FBD1     		bne	.L215
 1571              		.loc 1 133 0
 1572 0012 E368     		ldr	r3, [r4, #12]
 1573 0014 9889     		ldrh	r0, [r3, #12]	@ unaligned
 1574              	.LVL178:
 1575 0016 FFF7FEFF 		bl	lwip_ntohs
 1576              	.LVL179:
 1577 001a 10F00706 		ands	r6, r0, #7
 1578 001e 05D0     		beq	.L214
 1579              	.LVL180:
 1580              	.L206:
 1581              	.LBE41:
 1582              		.loc 1 141 0
 1583 0020 2846     		mov	r0, r5
 1584 0022 0121     		movs	r1, #1
 1585              		.loc 1 142 0
 1586 0024 BDE8F840 		pop	{r3, r4, r5, r6, r7, lr}
 1587              	.LVL181:
 1588              		.loc 1 141 0
 1589 0028 FFF7FEBF 		b	tcp_enqueue_flags
ARM GAS  /tmp/ccAMfTfz.s 			page 29


 1590              	.LVL182:
 1591              	.L214:
 1592              	.LBB42:
 1593              		.loc 1 135 0
 1594 002c E468     		ldr	r4, [r4, #12]
 1595              	.LVL183:
 1596 002e 0120     		movs	r0, #1
 1597 0030 A789     		ldrh	r7, [r4, #12]	@ unaligned
 1598 0032 FFF7FEFF 		bl	lwip_htons
 1599              	.LVL184:
 1600 0036 3843     		orrs	r0, r0, r7
 1601 0038 A081     		strh	r0, [r4, #12]	@ unaligned
 1602              		.loc 1 136 0
 1603 003a AB7F     		ldrb	r3, [r5, #30]	@ zero_extendqisi2
 1604 003c 43F02003 		orr	r3, r3, #32
 1605 0040 AB77     		strb	r3, [r5, #30]
 1606              	.LBE42:
 1607              		.loc 1 142 0
 1608 0042 3046     		mov	r0, r6
 1609 0044 F8BD     		pop	{r3, r4, r5, r6, r7, pc}
 1610              		.cfi_endproc
 1611              	.LFE8:
 1612              		.size	tcp_send_fin, .-tcp_send_fin
 1613 0046 00BFAFF3 		.section	.text.tcp_send_empty_ack,"ax",%progbits
 1613      0080AFF3 
 1613      0080
 1614              		.align	2
 1615              		.p2align 4,,15
 1616              		.global	tcp_send_empty_ack
 1617              		.thumb
 1618              		.thumb_func
 1619              		.type	tcp_send_empty_ack, %function
 1620              	tcp_send_empty_ack:
 1621              	.LFB14:
 1622              		.loc 1 843 0
 1623              		.cfi_startproc
 1624              		@ args = 0, pretend = 0, frame = 0
 1625              		@ frame_needed = 0, uses_anonymous_args = 0
 1626              	.LVL185:
 1627 0000 F0B5     		push	{r4, r5, r6, r7, lr}
 1628              		.cfi_def_cfa_offset 20
 1629              		.cfi_offset 4, -20
 1630              		.cfi_offset 5, -16
 1631              		.cfi_offset 6, -12
 1632              		.cfi_offset 7, -8
 1633              		.cfi_offset 14, -4
 1634 0002 0446     		mov	r4, r0
 1635 0004 83B0     		sub	sp, sp, #12
 1636              		.cfi_def_cfa_offset 32
 1637              		.loc 1 854 0
 1638 0006 006D     		ldr	r0, [r0, #80]
 1639              	.LVL186:
 1640 0008 FFF7FEFF 		bl	lwip_htonl
 1641              	.LVL187:
 1642 000c 0021     		movs	r1, #0
 1643 000e 0246     		mov	r2, r0
 1644 0010 2046     		mov	r0, r4
ARM GAS  /tmp/ccAMfTfz.s 			page 30


 1645 0012 FFF7FEFF 		bl	tcp_output_alloc_header.constprop.1
 1646              	.LVL188:
 1647              		.loc 1 855 0
 1648 0016 0546     		mov	r5, r0
 1649 0018 F0B1     		cbz	r0, .L218
 1650              		.loc 1 863 0
 1651 001a A37F     		ldrb	r3, [r4, #30]	@ zero_extendqisi2
 1652              		.loc 1 859 0
 1653 001c 4768     		ldr	r7, [r0, #4]
 1654              	.LVL189:
 1655              		.loc 1 863 0
 1656 001e 23F00303 		bic	r3, r3, #3
 1657 0022 A377     		strb	r3, [r4, #30]
 1658              		.loc 1 875 0
 1659 0024 0389     		ldrh	r3, [r0, #8]
 1660 0026 261D     		adds	r6, r4, #4
 1661 0028 0093     		str	r3, [sp]
 1662 002a 3246     		mov	r2, r6
 1663 002c 2146     		mov	r1, r4
 1664 002e 0623     		movs	r3, #6
 1665 0030 FFF7FEFF 		bl	inet_chksum_pseudo
 1666              	.LVL190:
 1667 0034 3882     		strh	r0, [r7, #16]	@ unaligned
 1668              		.loc 1 882 0
 1669 0036 617A     		ldrb	r1, [r4, #9]	@ zero_extendqisi2
 1670 0038 A37A     		ldrb	r3, [r4, #10]	@ zero_extendqisi2
 1671 003a 0091     		str	r1, [sp]
 1672 003c 0620     		movs	r0, #6
 1673 003e 3246     		mov	r2, r6
 1674 0040 2146     		mov	r1, r4
 1675 0042 0190     		str	r0, [sp, #4]
 1676 0044 2846     		mov	r0, r5
 1677 0046 FFF7FEFF 		bl	ip_output
 1678              	.LVL191:
 1679              		.loc 1 885 0
 1680 004a 2846     		mov	r0, r5
 1681 004c FFF7FEFF 		bl	pbuf_free
 1682              	.LVL192:
 1683              		.loc 1 887 0
 1684 0050 0020     		movs	r0, #0
 1685              	.LVL193:
 1686              	.L217:
 1687              		.loc 1 888 0
 1688 0052 40B2     		sxtb	r0, r0
 1689 0054 03B0     		add	sp, sp, #12
 1690              		@ sp needed
 1691 0056 F0BD     		pop	{r4, r5, r6, r7, pc}
 1692              	.LVL194:
 1693              	.L218:
 1694              		.loc 1 857 0
 1695 0058 FE20     		movs	r0, #254
 1696              	.LVL195:
 1697 005a FAE7     		b	.L217
 1698              		.cfi_endproc
 1699              	.LFE14:
 1700              		.size	tcp_send_empty_ack, .-tcp_send_empty_ack
 1701 005c AFF30080 		.section	.text.tcp_output,"ax",%progbits
ARM GAS  /tmp/ccAMfTfz.s 			page 31


 1702              		.align	2
 1703              		.p2align 4,,15
 1704              		.global	tcp_output
 1705              		.thumb
 1706              		.thumb_func
 1707              		.type	tcp_output, %function
 1708              	tcp_output:
 1709              	.LFB15:
 1710              		.loc 1 899 0
 1711              		.cfi_startproc
 1712              		@ args = 0, pretend = 0, frame = 8
 1713              		@ frame_needed = 0, uses_anonymous_args = 0
 1714              	.LVL196:
 1715 0000 2DE9F04F 		push	{r4, r5, r6, r7, r8, r9, r10, fp, lr}
 1716              		.cfi_def_cfa_offset 36
 1717              		.cfi_offset 4, -36
 1718              		.cfi_offset 5, -32
 1719              		.cfi_offset 6, -28
 1720              		.cfi_offset 7, -24
 1721              		.cfi_offset 8, -20
 1722              		.cfi_offset 9, -16
 1723              		.cfi_offset 10, -12
 1724              		.cfi_offset 11, -8
 1725              		.cfi_offset 14, -4
 1726              		.loc 1 907 0
 1727 0004 037E     		ldrb	r3, [r0, #24]	@ zero_extendqisi2
 1728 0006 012B     		cmp	r3, #1
 1729              		.loc 1 899 0
 1730 0008 85B0     		sub	sp, sp, #20
 1731              		.cfi_def_cfa_offset 56
 1732              		.loc 1 899 0
 1733 000a 0446     		mov	r4, r0
 1734              		.loc 1 907 0
 1735 000c 00F06C81 		beq	.L288
 1736              	.LVL197:
 1737              	.L220:
 1738              		.loc 1 914 0
 1739 0010 40F20003 		movw	r3, #:lower16:tcp_input_pcb
 1740 0014 C0F20003 		movt	r3, #:upper16:tcp_input_pcb
 1741 0018 1B68     		ldr	r3, [r3]
 1742 001a A342     		cmp	r3, r4
 1743 001c 00F00D81 		beq	.L276
 1744              		.loc 1 918 0
 1745 0020 B4F860A0 		ldrh	r10, [r4, #96]
 1746 0024 B4F84C20 		ldrh	r2, [r4, #76]
 1747              		.loc 1 928 0
 1748 0028 A37F     		ldrb	r3, [r4, #30]	@ zero_extendqisi2
 1749              		.loc 1 920 0
 1750 002a E56E     		ldr	r5, [r4, #108]
 1751              		.loc 1 918 0
 1752 002c 9245     		cmp	r10, r2
 1753 002e 28BF     		it	cs
 1754 0030 9246     		movcs	r10, r2
 1755              		.loc 1 928 0
 1756 0032 9807     		lsls	r0, r3, #30
 1757              		.loc 1 918 0
 1758 0034 CDF808A0 		str	r10, [sp, #8]
ARM GAS  /tmp/ccAMfTfz.s 			page 32


 1759              	.LVL198:
 1760              		.loc 1 928 0
 1761 0038 00F14081 		bmi	.L289
 1762              	.L222:
 1763              		.loc 1 935 0
 1764 003c 266F     		ldr	r6, [r4, #112]
 1765              	.LVL199:
 1766              		.loc 1 936 0
 1767 003e 0EB9     		cbnz	r6, .L230
 1768 0040 03E0     		b	.L229
 1769              	.L290:
 1770              		.loc 1 937 0
 1771 0042 1E46     		mov	r6, r3
 1772              	.LVL200:
 1773              	.L230:
 1774              		.loc 1 937 0 is_stmt 0 discriminator 1
 1775 0044 3368     		ldr	r3, [r6]
 1776 0046 002B     		cmp	r3, #0
 1777 0048 FBD1     		bne	.L290
 1778              	.L229:
 1779              		.loc 1 962 0 is_stmt 1 discriminator 1
 1780 004a 002D     		cmp	r5, #0
 1781 004c 00F04981 		beq	.L287
 1782              	.LBB47:
 1783              	.LBB48:
 1784              		.loc 1 1106 0
 1785 0050 40F20003 		movw	r3, #:lower16:tcp_ticks
 1786              		.loc 1 1163 0
 1787 0054 40F20009 		movw	r9, #:lower16:lwip_stats
 1788              		.loc 1 1106 0
 1789 0058 C0F20003 		movt	r3, #:upper16:tcp_ticks
 1790              		.loc 1 1163 0
 1791 005c C0F20009 		movt	r9, #:upper16:lwip_stats
 1792              		.loc 1 1106 0
 1793 0060 0393     		str	r3, [sp, #12]
 1794              	.LBB49:
 1795              		.loc 1 1073 0
 1796 0062 04F10408 		add	r8, r4, #4
 1797              	.LBE49:
 1798              		.loc 1 1092 0
 1799 0066 0027     		movs	r7, #0
 1800 0068 B1E0     		b	.L228
 1801              	.LVL201:
 1802              	.L231:
 1803              	.LBE48:
 1804              	.LBE47:
 1805              		.loc 1 973 0
 1806 006a 236F     		ldr	r3, [r4, #112]
 1807 006c 5BB1     		cbz	r3, .L232
 1808              		.loc 1 973 0 is_stmt 0 discriminator 2
 1809 006e A37F     		ldrb	r3, [r4, #30]	@ zero_extendqisi2
 1810 0070 13F0440F 		tst	r3, #68
 1811 0074 07D1     		bne	.L232
 1812              		.loc 1 973 0 discriminator 1
 1813 0076 E26E     		ldr	r2, [r4, #108]
 1814 0078 002A     		cmp	r2, #0
 1815 007a 00F00881 		beq	.L233
ARM GAS  /tmp/ccAMfTfz.s 			page 33


 1816 007e 1168     		ldr	r1, [r2]
 1817 0080 0029     		cmp	r1, #0
 1818 0082 00F0FF80 		beq	.L291
 1819              	.L232:
 1820              		.loc 1 988 0 is_stmt 1
 1821 0086 227E     		ldrb	r2, [r4, #24]	@ zero_extendqisi2
 1822              		.loc 1 986 0
 1823 0088 2B68     		ldr	r3, [r5]
 1824              		.loc 1 988 0
 1825 008a 022A     		cmp	r2, #2
 1826              		.loc 1 986 0
 1827 008c E366     		str	r3, [r4, #108]
 1828              		.loc 1 988 0
 1829 008e 0ED0     		beq	.L235
 1830              		.loc 1 989 0
 1831 0090 D5F80CA0 		ldr	r10, [r5, #12]
 1832 0094 1020     		movs	r0, #16
 1833 0096 BAF80CB0 		ldrh	fp, [r10, #12]	@ unaligned
 1834 009a FFF7FEFF 		bl	lwip_htons
 1835              	.LVL202:
 1836 009e 40EA0B00 		orr	r0, r0, fp
 1837 00a2 AAF80C00 		strh	r0, [r10, #12]	@ unaligned
 1838              		.loc 1 990 0
 1839 00a6 A37F     		ldrb	r3, [r4, #30]	@ zero_extendqisi2
 1840 00a8 23F00303 		bic	r3, r3, #3
 1841 00ac A377     		strb	r3, [r4, #30]
 1842              	.L235:
 1843              	.LVL203:
 1844              	.LBB53:
 1845              	.LBB51:
 1846              		.loc 1 1060 0
 1847 00ae A06A     		ldr	r0, [r4, #40]
 1848 00b0 D5F80CA0 		ldr	r10, [r5, #12]
 1849 00b4 FFF7FEFF 		bl	lwip_htonl
 1850              	.LVL204:
 1851 00b8 CAF80800 		str	r0, [r10, #8]	@ unaligned
 1852              		.loc 1 1063 0
 1853 00bc E08D     		ldrh	r0, [r4, #46]
 1854 00be D5F80CA0 		ldr	r10, [r5, #12]
 1855 00c2 FFF7FEFF 		bl	lwip_htons
 1856              	.LVL205:
 1857              		.loc 1 1065 0
 1858 00c6 E18D     		ldrh	r1, [r4, #46]
 1859 00c8 A26A     		ldr	r2, [r4, #40]
 1860              		.loc 1 1063 0
 1861 00ca AAF80E00 		strh	r0, [r10, #14]	@ unaligned
 1862              		.loc 1 1065 0
 1863 00ce 0A44     		add	r2, r2, r1
 1864 00d0 2263     		str	r2, [r4, #48]
 1865              		.loc 1 1070 0
 1866 00d2 AB7A     		ldrb	r3, [r5, #10]	@ zero_extendqisi2
 1867              		.loc 1 1069 0
 1868 00d4 D5F80CA0 		ldr	r10, [r5, #12]
 1869              	.LVL206:
 1870              		.loc 1 1070 0
 1871 00d8 DA07     		lsls	r2, r3, #31
 1872 00da 00F18D80 		bmi	.L292
ARM GAS  /tmp/ccAMfTfz.s 			page 34


 1873              	.LVL207:
 1874              	.L237:
 1875              		.loc 1 1091 0
 1876 00de B4F93430 		ldrsh	r3, [r4, #52]
 1877 00e2 0133     		adds	r3, r3, #1
 1878              		.loc 1 1097 0
 1879 00e4 2368     		ldr	r3, [r4]
 1880              		.loc 1 1092 0
 1881 00e6 08BF     		it	eq
 1882 00e8 A786     		strheq	r7, [r4, #52]	@ movhi
 1883              		.loc 1 1097 0
 1884 00ea 33B9     		cbnz	r3, .L239
 1885              		.loc 1 1098 0
 1886 00ec 4046     		mov	r0, r8
 1887 00ee FFF7FEFF 		bl	ip_route
 1888              	.LVL208:
 1889              		.loc 1 1099 0
 1890 00f2 0028     		cmp	r0, #0
 1891 00f4 30D0     		beq	.L240
 1892              		.loc 1 1102 0
 1893 00f6 4368     		ldr	r3, [r0, #4]
 1894 00f8 2360     		str	r3, [r4]
 1895              	.LVL209:
 1896              	.L239:
 1897              		.loc 1 1105 0
 1898 00fa A36B     		ldr	r3, [r4, #56]
 1899 00fc 002B     		cmp	r3, #0
 1900 00fe 00F08780 		beq	.L293
 1901              	.L241:
 1902              		.loc 1 1115 0
 1903 0102 6868     		ldr	r0, [r5, #4]
 1904 0104 D5F80CA0 		ldr	r10, [r5, #12]
 1905 0108 4268     		ldr	r2, [r0, #4]
 1906              		.loc 1 1118 0
 1907 010a 0389     		ldrh	r3, [r0, #8]
 1908              		.loc 1 1117 0
 1909 010c 4189     		ldrh	r1, [r0, #10]
 1910              		.loc 1 1120 0
 1911 010e C0F804A0 		str	r10, [r0, #4]
 1912              		.loc 1 1115 0
 1913 0112 C2EB0A02 		rsb	r2, r2, r10
 1914 0116 92B2     		uxth	r2, r2
 1915              	.LVL210:
 1916              		.loc 1 1118 0
 1917 0118 9B1A     		subs	r3, r3, r2
 1918 011a 9BB2     		uxth	r3, r3
 1919              		.loc 1 1117 0
 1920 011c 8A1A     		subs	r2, r1, r2
 1921              	.LVL211:
 1922 011e 4281     		strh	r2, [r0, #10]	@ movhi
 1923              		.loc 1 1118 0
 1924 0120 0381     		strh	r3, [r0, #8]	@ movhi
 1925              		.loc 1 1158 0
 1926 0122 2146     		mov	r1, r4
 1927              		.loc 1 1122 0
 1928 0124 8AF81070 		strb	r7, [r10, #16]
 1929 0128 8AF81170 		strb	r7, [r10, #17]
ARM GAS  /tmp/ccAMfTfz.s 			page 35


 1930              		.loc 1 1158 0
 1931 012c 4246     		mov	r2, r8
 1932 012e 0093     		str	r3, [sp]
 1933 0130 0623     		movs	r3, #6
 1934 0132 FFF7FEFF 		bl	inet_chksum_pseudo
 1935              	.LVL212:
 1936              		.loc 1 1163 0
 1937 0136 B9F89030 		ldrh	r3, [r9, #144]
 1938              		.loc 1 1158 0
 1939 013a AAF81000 		strh	r0, [r10, #16]	@ unaligned
 1940              		.loc 1 1163 0
 1941 013e 0133     		adds	r3, r3, #1
 1942 0140 A9F89030 		strh	r3, [r9, #144]	@ movhi
 1943              		.loc 1 1169 0
 1944 0144 627A     		ldrb	r2, [r4, #9]	@ zero_extendqisi2
 1945 0146 A37A     		ldrb	r3, [r4, #10]	@ zero_extendqisi2
 1946 0148 6868     		ldr	r0, [r5, #4]
 1947 014a 0092     		str	r2, [sp]
 1948 014c 0622     		movs	r2, #6
 1949 014e 0192     		str	r2, [sp, #4]
 1950 0150 2146     		mov	r1, r4
 1951 0152 4246     		mov	r2, r8
 1952 0154 FFF7FEFF 		bl	ip_output
 1953              	.LVL213:
 1954              	.L240:
 1955              	.LBE51:
 1956              	.LBE53:
 1957              		.loc 1 994 0
 1958 0158 EB68     		ldr	r3, [r5, #12]
 1959 015a 5868     		ldr	r0, [r3, #4]	@ unaligned
 1960 015c FFF7FEFF 		bl	lwip_ntohl
 1961              	.LVL214:
 1962 0160 EA68     		ldr	r2, [r5, #12]
 1963 0162 B5F808A0 		ldrh	r10, [r5, #8]
 1964 0166 8346     		mov	fp, r0
 1965 0168 9089     		ldrh	r0, [r2, #12]	@ unaligned
 1966 016a FFF7FEFF 		bl	lwip_ntohs
 1967              	.LVL215:
 1968 016e 10F00300 		ands	r0, r0, #3
 1969 0172 18BF     		it	ne
 1970 0174 0120     		movne	r0, #1
 1971              		.loc 1 995 0
 1972 0176 226D     		ldr	r2, [r4, #80]
 1973              		.loc 1 994 0
 1974 0178 0AEB0003 		add	r3, r10, r0
 1975 017c 5B44     		add	r3, r3, fp
 1976              	.LVL216:
 1977              		.loc 1 995 0
 1978 017e D21A     		subs	r2, r2, r3
 1979 0180 002A     		cmp	r2, #0
 1980              		.loc 1 996 0
 1981 0182 B8BF     		it	lt
 1982 0184 2365     		strlt	r3, [r4, #80]
 1983              		.loc 1 999 0
 1984 0186 EB68     		ldr	r3, [r5, #12]
 1985              	.LVL217:
 1986 0188 B5F808B0 		ldrh	fp, [r5, #8]
ARM GAS  /tmp/ccAMfTfz.s 			page 36


 1987              	.LVL218:
 1988 018c 9889     		ldrh	r0, [r3, #12]	@ unaligned
 1989 018e FFF7FEFF 		bl	lwip_ntohs
 1990              	.LVL219:
 1991 0192 10F00300 		ands	r0, r0, #3
 1992 0196 18BF     		it	ne
 1993 0198 0120     		movne	r0, #1
 1994 019a 5844     		add	r0, r0, fp
 1995 019c 0028     		cmp	r0, #0
 1996 019e 6DD0     		beq	.L243
 1997              		.loc 1 1002 0
 1998 01a0 236F     		ldr	r3, [r4, #112]
 1999              		.loc 1 1000 0
 2000 01a2 2F60     		str	r7, [r5]
 2001              		.loc 1 1002 0
 2002 01a4 002B     		cmp	r3, #0
 2003 01a6 3CD0     		beq	.L294
 2004              		.loc 1 1010 0
 2005 01a8 EB68     		ldr	r3, [r5, #12]
 2006 01aa 5868     		ldr	r0, [r3, #4]	@ unaligned
 2007 01ac FFF7FEFF 		bl	lwip_ntohl
 2008              	.LVL220:
 2009 01b0 F368     		ldr	r3, [r6, #12]
 2010 01b2 8346     		mov	fp, r0
 2011 01b4 5868     		ldr	r0, [r3, #4]	@ unaligned
 2012 01b6 FFF7FEFF 		bl	lwip_ntohl
 2013              	.LVL221:
 2014 01ba C0EB0B00 		rsb	r0, r0, fp
 2015 01be 0028     		cmp	r0, #0
 2016              		.loc 1 1021 0
 2017 01c0 A4BF     		itt	ge
 2018 01c2 3560     		strge	r5, [r6]
 2019              	.LVL222:
 2020 01c4 2E46     		movge	r6, r5
 2021              		.loc 1 1010 0
 2022 01c6 3CDB     		blt	.L295
 2023              	.LVL223:
 2024              	.L245:
 2025              		.loc 1 1029 0
 2026 01c8 E56E     		ldr	r5, [r4, #108]
 2027              	.LVL224:
 2028              		.loc 1 962 0
 2029 01ca 002D     		cmp	r5, #0
 2030 01cc 2ED0     		beq	.L296
 2031              	.LVL225:
 2032              	.L228:
 2033              		.loc 1 963 0 discriminator 2
 2034 01ce EB68     		ldr	r3, [r5, #12]
 2035 01d0 5868     		ldr	r0, [r3, #4]	@ unaligned
 2036 01d2 FFF7FEFF 		bl	lwip_ntohl
 2037              	.LVL226:
 2038 01d6 2A89     		ldrh	r2, [r5, #8]
 2039 01d8 A36C     		ldr	r3, [r4, #72]
 2040 01da D31A     		subs	r3, r2, r3
 2041 01dc 1844     		add	r0, r0, r3
 2042              		.loc 1 962 0 discriminator 2
 2043 01de 029B     		ldr	r3, [sp, #8]
ARM GAS  /tmp/ccAMfTfz.s 			page 37


 2044 01e0 8342     		cmp	r3, r0
 2045 01e2 7ED3     		bcc	.L287
 2046              		.loc 1 964 0
 2047 01e4 EB68     		ldr	r3, [r5, #12]
 2048 01e6 9889     		ldrh	r0, [r3, #12]	@ unaligned
 2049 01e8 FFF7FEFF 		bl	lwip_ntohs
 2050              	.LVL227:
 2051 01ec 4107     		lsls	r1, r0, #29
 2052 01ee 7FF53CAF 		bpl	.L231
 2053              		.loc 1 964 0 is_stmt 0 discriminator 1
 2054 01f2 FFF7FEFF 		bl	port_halt
 2055              	.LVL228:
 2056 01f6 38E7     		b	.L231
 2057              	.LVL229:
 2058              	.L292:
 2059              	.LBB54:
 2060              	.LBB52:
 2061              	.LBB50:
 2062              		.loc 1 1073 0 is_stmt 1
 2063 01f8 4146     		mov	r1, r8
 2064 01fa 4FF40670 		mov	r0, #536
 2065 01fe FFF7FEFF 		bl	tcp_eff_send_mss
 2066              	.LVL230:
 2067              		.loc 1 1077 0
 2068 0202 40F00170 		orr	r0, r0, #33816576
 2069              	.LVL231:
 2070 0206 FFF7FEFF 		bl	lwip_htonl
 2071              	.LVL232:
 2072 020a CAF81400 		str	r0, [r10, #20]
 2073              	.LVL233:
 2074 020e 66E7     		b	.L237
 2075              	.LVL234:
 2076              	.L293:
 2077              	.LBE50:
 2078              		.loc 1 1106 0
 2079 0210 039A     		ldr	r2, [sp, #12]
 2080 0212 1368     		ldr	r3, [r2]
 2081              		.loc 1 1107 0
 2082 0214 EA68     		ldr	r2, [r5, #12]
 2083              		.loc 1 1106 0
 2084 0216 A363     		str	r3, [r4, #56]
 2085              		.loc 1 1107 0
 2086 0218 5068     		ldr	r0, [r2, #4]	@ unaligned
 2087 021a FFF7FEFF 		bl	lwip_ntohl
 2088              	.LVL235:
 2089 021e E063     		str	r0, [r4, #60]
 2090 0220 6FE7     		b	.L241
 2091              	.L294:
 2092              	.LBE52:
 2093              	.LBE54:
 2094              		.loc 1 1003 0
 2095 0222 2567     		str	r5, [r4, #112]
 2096              	.LVL236:
 2097 0224 2E46     		mov	r6, r5
 2098              		.loc 1 1029 0
 2099 0226 E56E     		ldr	r5, [r4, #108]
 2100              	.LVL237:
ARM GAS  /tmp/ccAMfTfz.s 			page 38


 2101              		.loc 1 962 0
 2102 0228 002D     		cmp	r5, #0
 2103 022a D0D1     		bne	.L228
 2104              	.LVL238:
 2105              	.L296:
 2106 022c A37F     		ldrb	r3, [r4, #30]	@ zero_extendqisi2
 2107              	.LVL239:
 2108              	.L251:
 2109              		.loc 1 1034 0
 2110 022e 0022     		movs	r2, #0
 2111              		.loc 1 1038 0
 2112 0230 03F07F03 		and	r3, r3, #127
 2113              		.loc 1 1034 0
 2114 0234 A4F86A20 		strh	r2, [r4, #106]	@ movhi
 2115              		.loc 1 1038 0
 2116 0238 A377     		strb	r3, [r4, #30]
 2117              	.LVL240:
 2118              	.L276:
 2119              		.loc 1 1040 0
 2120 023a 0020     		movs	r0, #0
 2121 023c 05B0     		add	sp, sp, #20
 2122              		@ sp needed
 2123 023e BDE8F08F 		pop	{r4, r5, r6, r7, r8, r9, r10, fp, pc}
 2124              	.LVL241:
 2125              	.L295:
 2126              	.LBB55:
 2127              		.loc 1 1013 0
 2128 0242 236F     		ldr	r3, [r4, #112]
 2129              		.loc 1 1012 0
 2130 0244 04F1700B 		add	fp, r4, #112
 2131              	.LVL242:
 2132              		.loc 1 1013 0
 2133 0248 2BB9     		cbnz	r3, .L248
 2134 024a 13E0     		b	.L247
 2135              	.L249:
 2136              		.loc 1 1015 0
 2137 024c DBF800B0 		ldr	fp, [fp]
 2138              	.LVL243:
 2139              		.loc 1 1013 0
 2140 0250 DBF80030 		ldr	r3, [fp]
 2141 0254 73B1     		cbz	r3, .L247
 2142              	.L248:
 2143              		.loc 1 1014 0 discriminator 2
 2144 0256 DB68     		ldr	r3, [r3, #12]
 2145 0258 5868     		ldr	r0, [r3, #4]	@ unaligned
 2146 025a FFF7FEFF 		bl	lwip_ntohl
 2147              	.LVL244:
 2148 025e EB68     		ldr	r3, [r5, #12]
 2149 0260 8246     		mov	r10, r0
 2150 0262 5868     		ldr	r0, [r3, #4]	@ unaligned
 2151 0264 FFF7FEFF 		bl	lwip_ntohl
 2152              	.LVL245:
 2153 0268 C0EB0A00 		rsb	r0, r0, r10
 2154              		.loc 1 1013 0 discriminator 2
 2155 026c 0028     		cmp	r0, #0
 2156 026e EDDB     		blt	.L249
 2157 0270 DBF80030 		ldr	r3, [fp]
ARM GAS  /tmp/ccAMfTfz.s 			page 39


 2158              	.L247:
 2159              		.loc 1 1017 0
 2160 0274 2B60     		str	r3, [r5]
 2161              		.loc 1 1018 0
 2162 0276 CBF80050 		str	r5, [fp]
 2163              	.LBE55:
 2164 027a A5E7     		b	.L245
 2165              	.LVL246:
 2166              	.L243:
 2167              		.loc 1 1027 0
 2168 027c 2846     		mov	r0, r5
 2169 027e FFF7FEFF 		bl	tcp_seg_free
 2170              	.LVL247:
 2171 0282 A1E7     		b	.L245
 2172              	.LVL248:
 2173              	.L291:
 2174              		.loc 1 973 0 discriminator 1
 2175 0284 1089     		ldrh	r0, [r2, #8]
 2176 0286 E18E     		ldrh	r1, [r4, #54]
 2177 0288 8842     		cmp	r0, r1
 2178 028a BFF4FCAE 		bcs	.L232
 2179              	.L233:
 2180              		.loc 1 973 0 is_stmt 0 discriminator 2
 2181 028e B4F86610 		ldrh	r1, [r4, #102]
 2182 0292 0029     		cmp	r1, #0
 2183 0294 3FF4F7AE 		beq	.L232
 2184              		.loc 1 973 0 discriminator 3
 2185 0298 B4F86810 		ldrh	r1, [r4, #104]
 2186 029c 0729     		cmp	r1, #7
 2187 029e 3FF6F2AE 		bhi	.L232
 2188              		.loc 1 973 0
 2189 02a2 13F0A00F 		tst	r3, #160
 2190 02a6 7FF4EEAE 		bne	.L232
 2191              	.L227:
 2192              		.loc 1 1032 0 is_stmt 1
 2193 02aa 002A     		cmp	r2, #0
 2194 02ac BFD0     		beq	.L251
 2195              		.loc 1 1038 0
 2196 02ae 03F07F03 		and	r3, r3, #127
 2197              		.loc 1 1040 0
 2198 02b2 0020     		movs	r0, #0
 2199              		.loc 1 1038 0
 2200 02b4 A377     		strb	r3, [r4, #30]
 2201              		.loc 1 1040 0
 2202 02b6 05B0     		add	sp, sp, #20
 2203              		@ sp needed
 2204 02b8 BDE8F08F 		pop	{r4, r5, r6, r7, r8, r9, r10, fp, pc}
 2205              	.LVL249:
 2206              	.L289:
 2207              		.loc 1 928 0 discriminator 1
 2208 02bc 5DB1     		cbz	r5, .L224
 2209              		.loc 1 930 0
 2210 02be EB68     		ldr	r3, [r5, #12]
 2211 02c0 5868     		ldr	r0, [r3, #4]	@ unaligned
 2212 02c2 FFF7FEFF 		bl	lwip_ntohl
 2213              	.LVL250:
 2214 02c6 2A89     		ldrh	r2, [r5, #8]
ARM GAS  /tmp/ccAMfTfz.s 			page 40


 2215 02c8 A36C     		ldr	r3, [r4, #72]
 2216 02ca D31A     		subs	r3, r2, r3
 2217              		.loc 1 929 0
 2218 02cc 029A     		ldr	r2, [sp, #8]
 2219              		.loc 1 930 0
 2220 02ce 1844     		add	r0, r0, r3
 2221              		.loc 1 929 0
 2222 02d0 8242     		cmp	r2, r0
 2223 02d2 BFF4B3AE 		bcs	.L222
 2224              	.L224:
 2225              		.loc 1 931 0
 2226 02d6 2046     		mov	r0, r4
 2227              		.loc 1 1040 0
 2228 02d8 05B0     		add	sp, sp, #20
 2229              		@ sp needed
 2230 02da BDE8F04F 		pop	{r4, r5, r6, r7, r8, r9, r10, fp, lr}
 2231              	.LVL251:
 2232              		.loc 1 931 0
 2233 02de FFF7FEBF 		b	tcp_send_empty_ack
 2234              	.LVL252:
 2235              	.L287:
 2236 02e2 E26E     		ldr	r2, [r4, #108]
 2237 02e4 A37F     		ldrb	r3, [r4, #30]	@ zero_extendqisi2
 2238 02e6 E0E7     		b	.L227
 2239              	.LVL253:
 2240              	.L288:
 2241              		.loc 1 907 0 discriminator 1
 2242 02e8 FFF7FEFF 		bl	port_halt
 2243              	.LVL254:
 2244 02ec 90E6     		b	.L220
 2245              		.cfi_endproc
 2246              	.LFE15:
 2247              		.size	tcp_output, .-tcp_output
 2248 02ee 00BF     		.section	.text.tcp_rst,"ax",%progbits
 2249              		.align	2
 2250              		.p2align 4,,15
 2251              		.global	tcp_rst
 2252              		.thumb
 2253              		.thumb_func
 2254              		.type	tcp_rst, %function
 2255              	tcp_rst:
 2256              	.LFB17:
 2257              		.loc 1 1198 0
 2258              		.cfi_startproc
 2259              		@ args = 8, pretend = 0, frame = 0
 2260              		@ frame_needed = 0, uses_anonymous_args = 0
 2261              	.LVL255:
 2262 0000 2DE9F047 		push	{r4, r5, r6, r7, r8, r9, r10, lr}
 2263              		.cfi_def_cfa_offset 32
 2264              		.cfi_offset 4, -32
 2265              		.cfi_offset 5, -28
 2266              		.cfi_offset 6, -24
 2267              		.cfi_offset 7, -20
 2268              		.cfi_offset 8, -16
 2269              		.cfi_offset 9, -12
 2270              		.cfi_offset 10, -8
 2271              		.cfi_offset 14, -4
ARM GAS  /tmp/ccAMfTfz.s 			page 41


 2272 0004 82B0     		sub	sp, sp, #8
 2273              		.cfi_def_cfa_offset 40
 2274              		.loc 1 1198 0
 2275 0006 0746     		mov	r7, r0
 2276 0008 0E46     		mov	r6, r1
 2277 000a 9146     		mov	r9, r2
 2278              		.loc 1 1201 0
 2279 000c 0120     		movs	r0, #1
 2280              	.LVL256:
 2281 000e 1421     		movs	r1, #20
 2282              	.LVL257:
 2283 0010 0022     		movs	r2, #0
 2284              	.LVL258:
 2285              		.loc 1 1198 0
 2286 0012 9846     		mov	r8, r3
 2287 0014 BDF82840 		ldrh	r4, [sp, #40]
 2288 0018 BDF82CA0 		ldrh	r10, [sp, #44]
 2289              		.loc 1 1201 0
 2290 001c FFF7FEFF 		bl	pbuf_alloc
 2291              	.LVL259:
 2292              		.loc 1 1202 0
 2293 0020 0546     		mov	r5, r0
 2294 0022 0028     		cmp	r0, #0
 2295 0024 46D0     		beq	.L297
 2296              		.loc 1 1206 0
 2297 0026 4389     		ldrh	r3, [r0, #10]
 2298 0028 132B     		cmp	r3, #19
 2299 002a 40D9     		bls	.L300
 2300              	.LVL260:
 2301              	.L299:
 2302              		.loc 1 1210 0
 2303 002c 2046     		mov	r0, r4
 2304              		.loc 1 1209 0
 2305 002e 6C68     		ldr	r4, [r5, #4]
 2306              	.LVL261:
 2307              		.loc 1 1210 0
 2308 0030 FFF7FEFF 		bl	lwip_htons
 2309              	.LVL262:
 2310 0034 2080     		strh	r0, [r4]	@ unaligned
 2311              		.loc 1 1211 0
 2312 0036 5046     		mov	r0, r10
 2313 0038 FFF7FEFF 		bl	lwip_htons
 2314              	.LVL263:
 2315 003c 6080     		strh	r0, [r4, #2]	@ unaligned
 2316              		.loc 1 1212 0
 2317 003e 3846     		mov	r0, r7
 2318 0040 FFF7FEFF 		bl	lwip_htonl
 2319              	.LVL264:
 2320 0044 6060     		str	r0, [r4, #4]	@ unaligned
 2321              		.loc 1 1213 0
 2322 0046 3046     		mov	r0, r6
 2323 0048 FFF7FEFF 		bl	lwip_htonl
 2324              	.LVL265:
 2325 004c A060     		str	r0, [r4, #8]	@ unaligned
 2326              		.loc 1 1214 0
 2327 004e 45F21400 		movw	r0, #20500
 2328 0052 FFF7FEFF 		bl	lwip_htons
ARM GAS  /tmp/ccAMfTfz.s 			page 42


 2329              	.LVL266:
 2330              		.loc 1 1220 0
 2331 0056 2B89     		ldrh	r3, [r5, #8]
 2332              		.loc 1 1214 0
 2333 0058 A081     		strh	r0, [r4, #12]	@ unaligned
 2334              		.loc 1 1215 0
 2335 005a 0026     		movs	r6, #0
 2336              	.LVL267:
 2337 005c 0821     		movs	r1, #8
 2338 005e 6022     		movs	r2, #96
 2339              		.loc 1 1223 0
 2340 0060 40F20007 		movw	r7, #:lower16:lwip_stats
 2341              	.LVL268:
 2342              		.loc 1 1215 0
 2343 0064 A173     		strb	r1, [r4, #14]
 2344 0066 E273     		strb	r2, [r4, #15]
 2345              		.loc 1 1216 0
 2346 0068 2674     		strb	r6, [r4, #16]
 2347 006a 6674     		strb	r6, [r4, #17]
 2348              		.loc 1 1217 0
 2349 006c A674     		strb	r6, [r4, #18]
 2350 006e E674     		strb	r6, [r4, #19]
 2351              		.loc 1 1220 0
 2352 0070 4946     		mov	r1, r9
 2353 0072 0093     		str	r3, [sp]
 2354 0074 4246     		mov	r2, r8
 2355              		.loc 1 1223 0
 2356 0076 C0F20007 		movt	r7, #:upper16:lwip_stats
 2357              		.loc 1 1220 0
 2358 007a 2846     		mov	r0, r5
 2359 007c 0623     		movs	r3, #6
 2360 007e FFF7FEFF 		bl	inet_chksum_pseudo
 2361              	.LVL269:
 2362              		.loc 1 1223 0
 2363 0082 B7F890E0 		ldrh	lr, [r7, #144]
 2364              		.loc 1 1220 0
 2365 0086 2082     		strh	r0, [r4, #16]	@ unaligned
 2366              		.loc 1 1226 0
 2367 0088 0623     		movs	r3, #6
 2368              		.loc 1 1223 0
 2369 008a 0EF10104 		add	r4, lr, #1
 2370              	.LVL270:
 2371              		.loc 1 1226 0
 2372 008e 0193     		str	r3, [sp, #4]
 2373 0090 0096     		str	r6, [sp]
 2374 0092 4946     		mov	r1, r9
 2375 0094 4246     		mov	r2, r8
 2376 0096 2846     		mov	r0, r5
 2377 0098 FF23     		movs	r3, #255
 2378              		.loc 1 1223 0
 2379 009a A7F89040 		strh	r4, [r7, #144]	@ movhi
 2380              		.loc 1 1226 0
 2381 009e FFF7FEFF 		bl	ip_output
 2382              	.LVL271:
 2383              		.loc 1 1227 0
 2384 00a2 2846     		mov	r0, r5
 2385              		.loc 1 1229 0
ARM GAS  /tmp/ccAMfTfz.s 			page 43


 2386 00a4 02B0     		add	sp, sp, #8
 2387              		@ sp needed
 2388 00a6 BDE8F047 		pop	{r4, r5, r6, r7, r8, r9, r10, lr}
 2389              	.LVL272:
 2390              		.loc 1 1227 0
 2391 00aa FFF7FEBF 		b	pbuf_free
 2392              	.LVL273:
 2393              	.L300:
 2394              		.loc 1 1206 0 discriminator 1
 2395 00ae FFF7FEFF 		bl	port_halt
 2396              	.LVL274:
 2397 00b2 BBE7     		b	.L299
 2398              	.LVL275:
 2399              	.L297:
 2400              		.loc 1 1229 0
 2401 00b4 02B0     		add	sp, sp, #8
 2402              		@ sp needed
 2403 00b6 BDE8F087 		pop	{r4, r5, r6, r7, r8, r9, r10, pc}
 2404              		.cfi_endproc
 2405              	.LFE17:
 2406              		.size	tcp_rst, .-tcp_rst
 2407 00ba 00BFAFF3 		.section	.text.tcp_rexmit_rto,"ax",%progbits
 2407      0080
 2408              		.align	2
 2409              		.p2align 4,,15
 2410              		.global	tcp_rexmit_rto
 2411              		.thumb
 2412              		.thumb_func
 2413              		.type	tcp_rexmit_rto, %function
 2414              	tcp_rexmit_rto:
 2415              	.LFB18:
 2416              		.loc 1 1240 0
 2417              		.cfi_startproc
 2418              		@ args = 0, pretend = 0, frame = 0
 2419              		@ frame_needed = 0, uses_anonymous_args = 0
 2420              		@ link register save eliminated.
 2421              	.LVL276:
 2422              		.loc 1 1243 0
 2423 0000 016F     		ldr	r1, [r0, #112]
 2424              		.loc 1 1240 0
 2425 0002 10B4     		push	{r4}
 2426              		.cfi_def_cfa_offset 4
 2427              		.cfi_offset 4, -4
 2428              		.loc 1 1243 0
 2429 0004 99B1     		cbz	r1, .L301
 2430 0006 0A46     		mov	r2, r1
 2431 0008 00E0     		b	.L304
 2432              	.LVL277:
 2433              	.L305:
 2434              		.loc 1 1248 0
 2435 000a 1A46     		mov	r2, r3
 2436              	.LVL278:
 2437              	.L304:
 2438              		.loc 1 1248 0 is_stmt 0 discriminator 1
 2439 000c 1368     		ldr	r3, [r2]
 2440 000e 002B     		cmp	r3, #0
 2441 0010 FBD1     		bne	.L305
ARM GAS  /tmp/ccAMfTfz.s 			page 44


 2442              		.loc 1 1250 0 is_stmt 1
 2443 0012 C46E     		ldr	r4, [r0, #108]
 2444 0014 1460     		str	r4, [r2]
 2445              		.loc 1 1258 0
 2446 0016 90F84620 		ldrb	r2, [r0, #70]	@ zero_extendqisi2
 2447              	.LVL279:
 2448              		.loc 1 1252 0
 2449 001a C166     		str	r1, [r0, #108]
 2450              		.loc 1 1258 0
 2451 001c 0132     		adds	r2, r2, #1
 2452 001e 80F84620 		strb	r2, [r0, #70]
 2453              		.loc 1 1254 0
 2454 0022 0367     		str	r3, [r0, #112]
 2455              		.loc 1 1261 0
 2456 0024 8363     		str	r3, [r0, #56]
 2457              		.loc 1 1265 0
 2458 0026 5DF8044B 		ldr	r4, [sp], #4
 2459              		.loc 1 1264 0
 2460 002a FFF7FEBF 		b	tcp_output
 2461              	.LVL280:
 2462              	.L301:
 2463              		.loc 1 1265 0
 2464 002e 5DF8044B 		ldr	r4, [sp], #4
 2465 0032 7047     		bx	lr
 2466              		.cfi_endproc
 2467              	.LFE18:
 2468              		.size	tcp_rexmit_rto, .-tcp_rexmit_rto
 2469 0034 AFF30080 		.section	.text.tcp_rexmit,"ax",%progbits
 2469      AFF30080 
 2469      AFF30080 
 2470              		.align	2
 2471              		.p2align 4,,15
 2472              		.global	tcp_rexmit
 2473              		.thumb
 2474              		.thumb_func
 2475              		.type	tcp_rexmit, %function
 2476              	tcp_rexmit:
 2477              	.LFB19:
 2478              		.loc 1 1276 0
 2479              		.cfi_startproc
 2480              		@ args = 0, pretend = 0, frame = 0
 2481              		@ frame_needed = 0, uses_anonymous_args = 0
 2482              	.LVL281:
 2483 0000 F8B5     		push	{r3, r4, r5, r6, r7, lr}
 2484              		.cfi_def_cfa_offset 24
 2485              		.cfi_offset 3, -24
 2486              		.cfi_offset 4, -20
 2487              		.cfi_offset 5, -16
 2488              		.cfi_offset 6, -12
 2489              		.cfi_offset 7, -8
 2490              		.cfi_offset 14, -4
 2491              		.loc 1 1280 0
 2492 0002 066F     		ldr	r6, [r0, #112]
 2493              		.loc 1 1276 0
 2494 0004 0746     		mov	r7, r0
 2495              		.loc 1 1280 0
 2496 0006 0EB3     		cbz	r6, .L306
ARM GAS  /tmp/ccAMfTfz.s 			page 45


 2497              	.LVL282:
 2498              		.loc 1 1287 0
 2499 0008 3268     		ldr	r2, [r6]
 2500              		.loc 1 1290 0
 2501 000a C36E     		ldr	r3, [r0, #108]
 2502              		.loc 1 1287 0
 2503 000c 0267     		str	r2, [r0, #112]
 2504              		.loc 1 1289 0
 2505 000e 00F16C04 		add	r4, r0, #108
 2506              	.LVL283:
 2507              		.loc 1 1290 0
 2508 0012 1BB9     		cbnz	r3, .L309
 2509 0014 0FE0     		b	.L308
 2510              	.LVL284:
 2511              	.L310:
 2512              		.loc 1 1292 0
 2513 0016 2468     		ldr	r4, [r4]
 2514              	.LVL285:
 2515              		.loc 1 1290 0
 2516 0018 2368     		ldr	r3, [r4]
 2517 001a 63B1     		cbz	r3, .L308
 2518              	.L309:
 2519              		.loc 1 1291 0 discriminator 2
 2520 001c DB68     		ldr	r3, [r3, #12]
 2521 001e 5868     		ldr	r0, [r3, #4]	@ unaligned
 2522 0020 FFF7FEFF 		bl	lwip_ntohl
 2523              	.LVL286:
 2524 0024 F368     		ldr	r3, [r6, #12]
 2525 0026 0546     		mov	r5, r0
 2526 0028 5868     		ldr	r0, [r3, #4]	@ unaligned
 2527 002a FFF7FEFF 		bl	lwip_ntohl
 2528              	.LVL287:
 2529 002e 281A     		subs	r0, r5, r0
 2530              		.loc 1 1290 0 discriminator 2
 2531 0030 0028     		cmp	r0, #0
 2532 0032 F0DB     		blt	.L310
 2533 0034 2368     		ldr	r3, [r4]
 2534              	.L308:
 2535              		.loc 1 1294 0
 2536 0036 3360     		str	r3, [r6]
 2537              		.loc 1 1295 0
 2538 0038 2660     		str	r6, [r4]
 2539              		.loc 1 1297 0
 2540 003a 3368     		ldr	r3, [r6]
 2541 003c 3BB1     		cbz	r3, .L321
 2542              	.L311:
 2543              		.loc 1 1303 0
 2544 003e 97F84620 		ldrb	r2, [r7, #70]	@ zero_extendqisi2
 2545              		.loc 1 1306 0
 2546 0042 0023     		movs	r3, #0
 2547              		.loc 1 1303 0
 2548 0044 0132     		adds	r2, r2, #1
 2549 0046 87F84620 		strb	r2, [r7, #70]
 2550              		.loc 1 1306 0
 2551 004a BB63     		str	r3, [r7, #56]
 2552              	.LVL288:
 2553              	.L306:
ARM GAS  /tmp/ccAMfTfz.s 			page 46


 2554 004c F8BD     		pop	{r3, r4, r5, r6, r7, pc}
 2555              	.LVL289:
 2556              	.L321:
 2557              		.loc 1 1299 0
 2558 004e A7F86A30 		strh	r3, [r7, #106]	@ movhi
 2559 0052 F4E7     		b	.L311
 2560              		.cfi_endproc
 2561              	.LFE19:
 2562              		.size	tcp_rexmit, .-tcp_rexmit
 2563 0054 AFF30080 		.section	.text.tcp_rexmit_fast,"ax",%progbits
 2563      AFF30080 
 2563      AFF30080 
 2564              		.align	2
 2565              		.p2align 4,,15
 2566              		.global	tcp_rexmit_fast
 2567              		.thumb
 2568              		.thumb_func
 2569              		.type	tcp_rexmit_fast, %function
 2570              	tcp_rexmit_fast:
 2571              	.LFB20:
 2572              		.loc 1 1322 0
 2573              		.cfi_startproc
 2574              		@ args = 0, pretend = 0, frame = 0
 2575              		@ frame_needed = 0, uses_anonymous_args = 0
 2576              	.LVL290:
 2577              		.loc 1 1323 0
 2578 0000 036F     		ldr	r3, [r0, #112]
 2579              		.loc 1 1322 0
 2580 0002 10B5     		push	{r4, lr}
 2581              		.cfi_def_cfa_offset 8
 2582              		.cfi_offset 4, -8
 2583              		.cfi_offset 14, -4
 2584              		.loc 1 1322 0
 2585 0004 0446     		mov	r4, r0
 2586              		.loc 1 1323 0
 2587 0006 F3B1     		cbz	r3, .L322
 2588              		.loc 1 1323 0 is_stmt 0 discriminator 1
 2589 0008 837F     		ldrb	r3, [r0, #30]	@ zero_extendqisi2
 2590 000a 5B07     		lsls	r3, r3, #29
 2591 000c 1BD4     		bmi	.L322
 2592              		.loc 1 1330 0 is_stmt 1
 2593 000e FFF7FEFF 		bl	tcp_rexmit
 2594              	.LVL291:
 2595              		.loc 1 1334 0
 2596 0012 B4F84C30 		ldrh	r3, [r4, #76]
 2597 0016 B4F86020 		ldrh	r2, [r4, #96]
 2598              		.loc 1 1341 0
 2599 001a E18E     		ldrh	r1, [r4, #54]
 2600              		.loc 1 1350 0
 2601 001c A07F     		ldrb	r0, [r4, #30]	@ zero_extendqisi2
 2602              		.loc 1 1334 0
 2603 001e 9342     		cmp	r3, r2
 2604              		.loc 1 1335 0
 2605 0020 8CBF     		ite	hi
 2606 0022 5308     		lsrhi	r3, r2, #1
 2607              		.loc 1 1337 0
 2608 0024 5B08     		lsrls	r3, r3, #1
ARM GAS  /tmp/ccAMfTfz.s 			page 47


 2609              		.loc 1 1341 0
 2610 0026 4A00     		lsls	r2, r1, #1
 2611 0028 9342     		cmp	r3, r2
 2612              		.loc 1 1337 0
 2613 002a A4F84E30 		strh	r3, [r4, #78]	@ movhi
 2614              		.loc 1 1346 0
 2615 002e B8BF     		it	lt
 2616 0030 93B2     		uxthlt	r3, r2
 2617              		.loc 1 1349 0
 2618 0032 0A44     		add	r2, r2, r1
 2619              		.loc 1 1346 0
 2620 0034 B8BF     		it	lt
 2621 0036 A4F84E30 		strhlt	r3, [r4, #78]	@ movhi
 2622              		.loc 1 1350 0
 2623 003a 40F00400 		orr	r0, r0, #4
 2624              		.loc 1 1349 0
 2625 003e 1344     		add	r3, r3, r2
 2626 0040 A4F84C30 		strh	r3, [r4, #76]	@ movhi
 2627              		.loc 1 1350 0
 2628 0044 A077     		strb	r0, [r4, #30]
 2629              	.L322:
 2630 0046 10BD     		pop	{r4, pc}
 2631              		.cfi_endproc
 2632              	.LFE20:
 2633              		.size	tcp_rexmit_fast, .-tcp_rexmit_fast
 2634 0048 AFF30080 		.section	.text.tcp_keepalive,"ax",%progbits
 2634      AFF30080 
 2635              		.align	2
 2636              		.p2align 4,,15
 2637              		.global	tcp_keepalive
 2638              		.thumb
 2639              		.thumb_func
 2640              		.type	tcp_keepalive, %function
 2641              	tcp_keepalive:
 2642              	.LFB21:
 2643              		.loc 1 1365 0
 2644              		.cfi_startproc
 2645              		@ args = 0, pretend = 0, frame = 0
 2646              		@ frame_needed = 0, uses_anonymous_args = 0
 2647              	.LVL292:
 2648 0000 F0B5     		push	{r4, r5, r6, r7, lr}
 2649              		.cfi_def_cfa_offset 20
 2650              		.cfi_offset 4, -20
 2651              		.cfi_offset 5, -16
 2652              		.cfi_offset 6, -12
 2653              		.cfi_offset 7, -8
 2654              		.cfi_offset 14, -4
 2655 0002 0446     		mov	r4, r0
 2656              		.loc 1 1376 0
 2657 0004 006D     		ldr	r0, [r0, #80]
 2658              	.LVL293:
 2659              		.loc 1 1365 0
 2660 0006 83B0     		sub	sp, sp, #12
 2661              		.cfi_def_cfa_offset 32
 2662              		.loc 1 1376 0
 2663 0008 0138     		subs	r0, r0, #1
 2664 000a FFF7FEFF 		bl	lwip_htonl
ARM GAS  /tmp/ccAMfTfz.s 			page 48


 2665              	.LVL294:
 2666 000e 0021     		movs	r1, #0
 2667 0010 0246     		mov	r2, r0
 2668 0012 2046     		mov	r0, r4
 2669 0014 FFF7FEFF 		bl	tcp_output_alloc_header.constprop.1
 2670              	.LVL295:
 2671              		.loc 1 1377 0
 2672 0018 0546     		mov	r5, r0
 2673 001a 10B3     		cbz	r0, .L330
 2674              		.loc 1 1385 0
 2675 001c 0389     		ldrh	r3, [r0, #8]
 2676              		.loc 1 1382 0
 2677 001e 4768     		ldr	r7, [r0, #4]
 2678              	.LVL296:
 2679              		.loc 1 1385 0
 2680 0020 0093     		str	r3, [sp]
 2681 0022 261D     		adds	r6, r4, #4
 2682 0024 3246     		mov	r2, r6
 2683 0026 2146     		mov	r1, r4
 2684 0028 0623     		movs	r3, #6
 2685 002a FFF7FEFF 		bl	inet_chksum_pseudo
 2686              	.LVL297:
 2687              		.loc 1 1388 0
 2688 002e 40F20003 		movw	r3, #:lower16:lwip_stats
 2689 0032 C0F20003 		movt	r3, #:upper16:lwip_stats
 2690              		.loc 1 1385 0
 2691 0036 3882     		strh	r0, [r7, #16]	@ unaligned
 2692              		.loc 1 1388 0
 2693 0038 B3F89020 		ldrh	r2, [r3, #144]
 2694 003c 0132     		adds	r2, r2, #1
 2695 003e A3F89020 		strh	r2, [r3, #144]	@ movhi
 2696              		.loc 1 1395 0
 2697 0042 0027     		movs	r7, #0
 2698              	.LVL298:
 2699 0044 0620     		movs	r0, #6
 2700 0046 A37A     		ldrb	r3, [r4, #10]	@ zero_extendqisi2
 2701 0048 0190     		str	r0, [sp, #4]
 2702 004a 3246     		mov	r2, r6
 2703 004c 2146     		mov	r1, r4
 2704 004e 0097     		str	r7, [sp]
 2705 0050 2846     		mov	r0, r5
 2706 0052 FFF7FEFF 		bl	ip_output
 2707              	.LVL299:
 2708              		.loc 1 1398 0
 2709 0056 2846     		mov	r0, r5
 2710              		.loc 1 1402 0
 2711 0058 03B0     		add	sp, sp, #12
 2712              		@ sp needed
 2713 005a BDE8F040 		pop	{r4, r5, r6, r7, lr}
 2714              	.LVL300:
 2715              		.loc 1 1398 0
 2716 005e FFF7FEBF 		b	pbuf_free
 2717              	.LVL301:
 2718              	.L330:
 2719              		.loc 1 1402 0
 2720 0062 03B0     		add	sp, sp, #12
 2721              		@ sp needed
ARM GAS  /tmp/ccAMfTfz.s 			page 49


 2722 0064 F0BD     		pop	{r4, r5, r6, r7, pc}
 2723              		.cfi_endproc
 2724              	.LFE21:
 2725              		.size	tcp_keepalive, .-tcp_keepalive
 2726 0066 00BFAFF3 		.section	.text.tcp_zero_window_probe,"ax",%progbits
 2726      0080AFF3 
 2726      0080
 2727              		.align	2
 2728              		.p2align 4,,15
 2729              		.global	tcp_zero_window_probe
 2730              		.thumb
 2731              		.thumb_func
 2732              		.type	tcp_zero_window_probe, %function
 2733              	tcp_zero_window_probe:
 2734              	.LFB22:
 2735              		.loc 1 1415 0
 2736              		.cfi_startproc
 2737              		@ args = 0, pretend = 0, frame = 0
 2738              		@ frame_needed = 0, uses_anonymous_args = 0
 2739              	.LVL302:
 2740 0000 2DE9F041 		push	{r4, r5, r6, r7, r8, lr}
 2741              		.cfi_def_cfa_offset 24
 2742              		.cfi_offset 4, -24
 2743              		.cfi_offset 5, -20
 2744              		.cfi_offset 6, -16
 2745              		.cfi_offset 7, -12
 2746              		.cfi_offset 8, -8
 2747              		.cfi_offset 14, -4
 2748              		.loc 1 1433 0
 2749 0004 066F     		ldr	r6, [r0, #112]
 2750              	.LVL303:
 2751              		.loc 1 1415 0
 2752 0006 82B0     		sub	sp, sp, #8
 2753              		.cfi_def_cfa_offset 32
 2754              		.loc 1 1415 0
 2755 0008 0446     		mov	r4, r0
 2756              		.loc 1 1435 0
 2757 000a 002E     		cmp	r6, #0
 2758 000c 57D0     		beq	.L344
 2759              	.L333:
 2760              		.loc 1 1442 0
 2761 000e F368     		ldr	r3, [r6, #12]
 2762 0010 9889     		ldrh	r0, [r3, #12]	@ unaligned
 2763              	.LVL304:
 2764 0012 FFF7FEFF 		bl	lwip_ntohs
 2765              	.LVL305:
 2766 0016 10F00100 		ands	r0, r0, #1
 2767 001a 04BF     		itt	eq
 2768 001c 8046     		moveq	r8, r0
 2769 001e 0121     		moveq	r1, #1
 2770 0020 38D1     		bne	.L345
 2771              	.L335:
 2772              	.LVL306:
 2773              		.loc 1 1446 0 discriminator 4
 2774 0022 F368     		ldr	r3, [r6, #12]
 2775 0024 2046     		mov	r0, r4
 2776 0026 5A68     		ldr	r2, [r3, #4]	@ unaligned
ARM GAS  /tmp/ccAMfTfz.s 			page 50


 2777 0028 FFF7FEFF 		bl	tcp_output_alloc_header.constprop.1
 2778              	.LVL307:
 2779              		.loc 1 1447 0 discriminator 4
 2780 002c 0546     		mov	r5, r0
 2781 002e 0028     		cmp	r0, #0
 2782 0030 48D0     		beq	.L332
 2783              		.loc 1 1451 0
 2784 0032 4768     		ldr	r7, [r0, #4]
 2785              	.LVL308:
 2786              		.loc 1 1453 0
 2787 0034 B8F1000F 		cmp	r8, #0
 2788 0038 37D1     		bne	.L346
 2789              	.LVL309:
 2790              	.LBB56:
 2791              		.loc 1 1462 0
 2792 003a 7068     		ldr	r0, [r6, #4]
 2793              	.LVL310:
 2794 003c 3389     		ldrh	r3, [r6, #8]
 2795 003e 0289     		ldrh	r2, [r0, #8]
 2796 0040 D31A     		subs	r3, r2, r3
 2797 0042 9BB2     		uxth	r3, r3
 2798 0044 07F11401 		add	r1, r7, #20
 2799              	.LVL311:
 2800 0048 0122     		movs	r2, #1
 2801 004a FFF7FEFF 		bl	pbuf_copy_partial
 2802              	.LVL312:
 2803              	.L338:
 2804              	.LBE56:
 2805              		.loc 1 1466 0
 2806 004e 2B89     		ldrh	r3, [r5, #8]
 2807 0050 261D     		adds	r6, r4, #4
 2808 0052 0093     		str	r3, [sp]
 2809 0054 3246     		mov	r2, r6
 2810 0056 2146     		mov	r1, r4
 2811 0058 2846     		mov	r0, r5
 2812 005a 0623     		movs	r3, #6
 2813 005c FFF7FEFF 		bl	inet_chksum_pseudo
 2814              	.LVL313:
 2815              		.loc 1 1469 0
 2816 0060 40F20003 		movw	r3, #:lower16:lwip_stats
 2817 0064 C0F20003 		movt	r3, #:upper16:lwip_stats
 2818              		.loc 1 1466 0
 2819 0068 3882     		strh	r0, [r7, #16]	@ unaligned
 2820              		.loc 1 1469 0
 2821 006a B3F89020 		ldrh	r2, [r3, #144]
 2822 006e 0132     		adds	r2, r2, #1
 2823 0070 A3F89020 		strh	r2, [r3, #144]	@ movhi
 2824              		.loc 1 1476 0
 2825 0074 0027     		movs	r7, #0
 2826              	.LVL314:
 2827 0076 0620     		movs	r0, #6
 2828 0078 A37A     		ldrb	r3, [r4, #10]	@ zero_extendqisi2
 2829 007a 0190     		str	r0, [sp, #4]
 2830 007c 3246     		mov	r2, r6
 2831 007e 2146     		mov	r1, r4
 2832 0080 0097     		str	r7, [sp]
 2833 0082 2846     		mov	r0, r5
ARM GAS  /tmp/ccAMfTfz.s 			page 51


 2834 0084 FFF7FEFF 		bl	ip_output
 2835              	.LVL315:
 2836              		.loc 1 1479 0
 2837 0088 2846     		mov	r0, r5
 2838              		.loc 1 1484 0
 2839 008a 02B0     		add	sp, sp, #8
 2840              		@ sp needed
 2841 008c BDE8F041 		pop	{r4, r5, r6, r7, r8, lr}
 2842              	.LVL316:
 2843              		.loc 1 1479 0
 2844 0090 FFF7FEBF 		b	pbuf_free
 2845              	.LVL317:
 2846              	.L345:
 2847              		.loc 1 1442 0 discriminator 1
 2848 0094 3389     		ldrh	r3, [r6, #8]
 2849 0096 002B     		cmp	r3, #0
 2850 0098 0CBF     		ite	eq
 2851 009a 0021     		moveq	r1, #0
 2852 009c 0121     		movne	r1, #1
 2853 009e 14BF     		ite	ne
 2854 00a0 4FF00008 		movne	r8, #0
 2855 00a4 4FF00108 		moveq	r8, #1
 2856 00a8 BBE7     		b	.L335
 2857              	.LVL318:
 2858              	.L346:
 2859              		.loc 1 1455 0
 2860 00aa BB89     		ldrh	r3, [r7, #12]	@ unaligned
 2861 00ac 4CF2FF06 		movw	r6, #49407
 2862              	.LVL319:
 2863 00b0 1120     		movs	r0, #17
 2864              	.LVL320:
 2865 00b2 1E40     		ands	r6, r6, r3
 2866 00b4 FFF7FEFF 		bl	lwip_htons
 2867              	.LVL321:
 2868 00b8 3043     		orrs	r0, r0, r6
 2869 00ba B881     		strh	r0, [r7, #12]	@ unaligned
 2870 00bc C7E7     		b	.L338
 2871              	.LVL322:
 2872              	.L344:
 2873              		.loc 1 1436 0
 2874 00be C66E     		ldr	r6, [r0, #108]
 2875              	.LVL323:
 2876              		.loc 1 1438 0
 2877 00c0 002E     		cmp	r6, #0
 2878 00c2 A4D1     		bne	.L333
 2879              	.LVL324:
 2880              	.L332:
 2881              		.loc 1 1484 0
 2882 00c4 02B0     		add	sp, sp, #8
 2883              		@ sp needed
 2884 00c6 BDE8F081 		pop	{r4, r5, r6, r7, r8, pc}
 2885              		.cfi_endproc
 2886              	.LFE22:
 2887              		.size	tcp_zero_window_probe, .-tcp_zero_window_probe
 2888 00ca 00BFAFF3 		.text
 2888      0080
 2889              	.Letext0:
ARM GAS  /tmp/ccAMfTfz.s 			page 52


 2890              		.file 2 "/usr/include/newlib/machine/_default_types.h"
 2891              		.file 3 "/usr/include/newlib/stdint.h"
 2892              		.file 4 "../../os/various/lwip_bindings/arch/cc.h"
 2893              		.file 5 "../../ext/lwip/src/include/lwip/mem.h"
 2894              		.file 6 "../../ext/lwip/src/include/lwip/err.h"
 2895              		.file 7 "../../ext/lwip/src/include/lwip/pbuf.h"
 2896              		.file 8 "../../ext/lwip/src/include/ipv4/lwip/ip_addr.h"
 2897              		.file 9 "../../ext/lwip/src/include/lwip/netif.h"
 2898              		.file 10 "../../ext/lwip/src/include/lwip/tcp.h"
 2899              		.file 11 "../../ext/lwip/src/include/lwip/tcp_impl.h"
 2900              		.file 12 "../../ext/lwip/src/include/lwip/memp.h"
 2901              		.file 13 "../../ext/lwip/src/include/lwip/stats.h"
 2902              		.file 14 "../../ext/lwip/src/include/lwip/def.h"
 2903              		.file 15 "../../ext/lwip/src/include/ipv4/lwip/inet_chksum.h"
 2904              		.file 16 "../../ext/lwip/src/include/ipv4/lwip/ip.h"
 2905              		.file 17 "../../os/ports/GCC/ARMCMx/chcore_v7m.h"
 2906              		.section	.debug_info,"",%progbits
 2907              	.Ldebug_info0:
 2908 0000 681D0000 		.4byte	0x1d68
 2909 0004 0400     		.2byte	0x4
 2910 0006 00000000 		.4byte	.Ldebug_abbrev0
 2911 000a 04       		.byte	0x4
 2912 000b 01       		.uleb128 0x1
 2913 000c DC070000 		.4byte	.LASF239
 2914 0010 01       		.byte	0x1
 2915 0011 56010000 		.4byte	.LASF240
 2916 0015 44000000 		.4byte	.LASF241
 2917 0019 48010000 		.4byte	.Ldebug_ranges0+0x148
 2918 001d 00000000 		.4byte	0
 2919 0021 00000000 		.4byte	.Ldebug_line0
 2920 0025 02       		.uleb128 0x2
 2921 0026 04       		.byte	0x4
 2922 0027 05       		.byte	0x5
 2923 0028 696E7400 		.ascii	"int\000"
 2924 002c 03       		.uleb128 0x3
 2925 002d 04       		.byte	0x4
 2926 002e 07       		.byte	0x7
 2927 002f F1000000 		.4byte	.LASF0
 2928 0033 04       		.uleb128 0x4
 2929 0034 9E050000 		.4byte	.LASF2
 2930 0038 02       		.byte	0x2
 2931 0039 1B       		.byte	0x1b
 2932 003a 3E000000 		.4byte	0x3e
 2933 003e 03       		.uleb128 0x3
 2934 003f 01       		.byte	0x1
 2935 0040 06       		.byte	0x6
 2936 0041 BC090000 		.4byte	.LASF1
 2937 0045 04       		.uleb128 0x4
 2938 0046 29070000 		.4byte	.LASF3
 2939 004a 02       		.byte	0x2
 2940 004b 1C       		.byte	0x1c
 2941 004c 50000000 		.4byte	0x50
 2942 0050 03       		.uleb128 0x3
 2943 0051 01       		.byte	0x1
 2944 0052 08       		.byte	0x8
 2945 0053 F8080000 		.4byte	.LASF4
 2946 0057 04       		.uleb128 0x4
ARM GAS  /tmp/ccAMfTfz.s 			page 53


 2947 0058 3A050000 		.4byte	.LASF5
 2948 005c 02       		.byte	0x2
 2949 005d 25       		.byte	0x25
 2950 005e 62000000 		.4byte	0x62
 2951 0062 03       		.uleb128 0x3
 2952 0063 02       		.byte	0x2
 2953 0064 05       		.byte	0x5
 2954 0065 4E060000 		.4byte	.LASF6
 2955 0069 04       		.uleb128 0x4
 2956 006a EE020000 		.4byte	.LASF7
 2957 006e 02       		.byte	0x2
 2958 006f 26       		.byte	0x26
 2959 0070 74000000 		.4byte	0x74
 2960 0074 03       		.uleb128 0x3
 2961 0075 02       		.byte	0x2
 2962 0076 07       		.byte	0x7
 2963 0077 D0090000 		.4byte	.LASF8
 2964 007b 04       		.uleb128 0x4
 2965 007c 3B010000 		.4byte	.LASF9
 2966 0080 02       		.byte	0x2
 2967 0081 37       		.byte	0x37
 2968 0082 86000000 		.4byte	0x86
 2969 0086 03       		.uleb128 0x3
 2970 0087 04       		.byte	0x4
 2971 0088 05       		.byte	0x5
 2972 0089 66060000 		.4byte	.LASF10
 2973 008d 04       		.uleb128 0x4
 2974 008e 06090000 		.4byte	.LASF11
 2975 0092 02       		.byte	0x2
 2976 0093 38       		.byte	0x38
 2977 0094 98000000 		.4byte	0x98
 2978 0098 03       		.uleb128 0x3
 2979 0099 04       		.byte	0x4
 2980 009a 07       		.byte	0x7
 2981 009b CA070000 		.4byte	.LASF12
 2982 009f 03       		.uleb128 0x3
 2983 00a0 08       		.byte	0x8
 2984 00a1 05       		.byte	0x5
 2985 00a2 F1040000 		.4byte	.LASF13
 2986 00a6 03       		.uleb128 0x3
 2987 00a7 08       		.byte	0x8
 2988 00a8 07       		.byte	0x7
 2989 00a9 C8020000 		.4byte	.LASF14
 2990 00ad 04       		.uleb128 0x4
 2991 00ae 51020000 		.4byte	.LASF15
 2992 00b2 03       		.byte	0x3
 2993 00b3 29       		.byte	0x29
 2994 00b4 33000000 		.4byte	0x33
 2995 00b8 04       		.uleb128 0x4
 2996 00b9 9C040000 		.4byte	.LASF16
 2997 00bd 03       		.byte	0x3
 2998 00be 2A       		.byte	0x2a
 2999 00bf 45000000 		.4byte	0x45
 3000 00c3 04       		.uleb128 0x4
 3001 00c4 A3020000 		.4byte	.LASF17
 3002 00c8 03       		.byte	0x3
 3003 00c9 35       		.byte	0x35
ARM GAS  /tmp/ccAMfTfz.s 			page 54


 3004 00ca 57000000 		.4byte	0x57
 3005 00ce 04       		.uleb128 0x4
 3006 00cf C4050000 		.4byte	.LASF18
 3007 00d3 03       		.byte	0x3
 3008 00d4 36       		.byte	0x36
 3009 00d5 69000000 		.4byte	0x69
 3010 00d9 04       		.uleb128 0x4
 3011 00da 9B080000 		.4byte	.LASF19
 3012 00de 03       		.byte	0x3
 3013 00df 41       		.byte	0x41
 3014 00e0 7B000000 		.4byte	0x7b
 3015 00e4 04       		.uleb128 0x4
 3016 00e5 48020000 		.4byte	.LASF20
 3017 00e9 03       		.byte	0x3
 3018 00ea 42       		.byte	0x42
 3019 00eb 8D000000 		.4byte	0x8d
 3020 00ef 03       		.uleb128 0x3
 3021 00f0 01       		.byte	0x1
 3022 00f1 02       		.byte	0x2
 3023 00f2 99030000 		.4byte	.LASF21
 3024 00f6 05       		.uleb128 0x5
 3025 00f7 04       		.byte	0x4
 3026 00f8 03       		.uleb128 0x3
 3027 00f9 04       		.byte	0x4
 3028 00fa 07       		.byte	0x7
 3029 00fb C1070000 		.4byte	.LASF22
 3030 00ff 03       		.uleb128 0x3
 3031 0100 01       		.byte	0x1
 3032 0101 08       		.byte	0x8
 3033 0102 46040000 		.4byte	.LASF23
 3034 0106 04       		.uleb128 0x4
 3035 0107 35050000 		.4byte	.LASF24
 3036 010b 04       		.byte	0x4
 3037 010c 38       		.byte	0x38
 3038 010d B8000000 		.4byte	0xb8
 3039 0111 04       		.uleb128 0x4
 3040 0112 DB030000 		.4byte	.LASF25
 3041 0116 04       		.byte	0x4
 3042 0117 39       		.byte	0x39
 3043 0118 AD000000 		.4byte	0xad
 3044 011c 04       		.uleb128 0x4
 3045 011d 50010000 		.4byte	.LASF26
 3046 0121 04       		.byte	0x4
 3047 0122 3A       		.byte	0x3a
 3048 0123 CE000000 		.4byte	0xce
 3049 0127 04       		.uleb128 0x4
 3050 0128 95080000 		.4byte	.LASF27
 3051 012c 04       		.byte	0x4
 3052 012d 3B       		.byte	0x3b
 3053 012e C3000000 		.4byte	0xc3
 3054 0132 04       		.uleb128 0x4
 3055 0133 42060000 		.4byte	.LASF28
 3056 0137 04       		.byte	0x4
 3057 0138 3C       		.byte	0x3c
 3058 0139 E4000000 		.4byte	0xe4
 3059 013d 04       		.uleb128 0x4
 3060 013e E0030000 		.4byte	.LASF29
ARM GAS  /tmp/ccAMfTfz.s 			page 55


 3061 0142 04       		.byte	0x4
 3062 0143 3D       		.byte	0x3d
 3063 0144 D9000000 		.4byte	0xd9
 3064 0148 04       		.uleb128 0x4
 3065 0149 1F070000 		.4byte	.LASF30
 3066 014d 04       		.byte	0x4
 3067 014e 3E       		.byte	0x3e
 3068 014f E4000000 		.4byte	0xe4
 3069 0153 04       		.uleb128 0x4
 3070 0154 57040000 		.4byte	.LASF31
 3071 0158 05       		.byte	0x5
 3072 0159 4C       		.byte	0x4c
 3073 015a 1C010000 		.4byte	0x11c
 3074 015e 04       		.uleb128 0x4
 3075 015f 2A010000 		.4byte	.LASF32
 3076 0163 06       		.byte	0x6
 3077 0164 2F       		.byte	0x2f
 3078 0165 11010000 		.4byte	0x111
 3079 0169 06       		.uleb128 0x6
 3080 016a 01       		.byte	0x1
 3081 016b 07       		.byte	0x7
 3082 016c 32       		.byte	0x32
 3083 016d 8A010000 		.4byte	0x18a
 3084 0171 07       		.uleb128 0x7
 3085 0172 04020000 		.4byte	.LASF33
 3086 0176 00       		.sleb128 0
 3087 0177 07       		.uleb128 0x7
 3088 0178 6D030000 		.4byte	.LASF34
 3089 017c 01       		.sleb128 1
 3090 017d 07       		.uleb128 0x7
 3091 017e 94050000 		.4byte	.LASF35
 3092 0182 02       		.sleb128 2
 3093 0183 07       		.uleb128 0x7
 3094 0184 C2000000 		.4byte	.LASF36
 3095 0188 03       		.sleb128 3
 3096 0189 00       		.byte	0
 3097 018a 04       		.uleb128 0x4
 3098 018b A3080000 		.4byte	.LASF37
 3099 018f 07       		.byte	0x7
 3100 0190 37       		.byte	0x37
 3101 0191 69010000 		.4byte	0x169
 3102 0195 06       		.uleb128 0x6
 3103 0196 01       		.byte	0x1
 3104 0197 07       		.byte	0x7
 3105 0198 39       		.byte	0x39
 3106 0199 B6010000 		.4byte	0x1b6
 3107 019d 07       		.uleb128 0x7
 3108 019e 9E000000 		.4byte	.LASF38
 3109 01a2 00       		.sleb128 0
 3110 01a3 07       		.uleb128 0x7
 3111 01a4 630A0000 		.4byte	.LASF39
 3112 01a8 01       		.sleb128 1
 3113 01a9 07       		.uleb128 0x7
 3114 01aa 31030000 		.4byte	.LASF40
 3115 01ae 02       		.sleb128 2
 3116 01af 07       		.uleb128 0x7
 3117 01b0 A8030000 		.4byte	.LASF41
ARM GAS  /tmp/ccAMfTfz.s 			page 56


 3118 01b4 03       		.sleb128 3
 3119 01b5 00       		.byte	0
 3120 01b6 04       		.uleb128 0x4
 3121 01b7 CB000000 		.4byte	.LASF42
 3122 01bb 07       		.byte	0x7
 3123 01bc 3E       		.byte	0x3e
 3124 01bd 95010000 		.4byte	0x195
 3125 01c1 08       		.uleb128 0x8
 3126 01c2 4C090000 		.4byte	.LASF48
 3127 01c6 10       		.byte	0x10
 3128 01c7 07       		.byte	0x7
 3129 01c8 4F       		.byte	0x4f
 3130 01c9 22020000 		.4byte	0x222
 3131 01cd 09       		.uleb128 0x9
 3132 01ce 0F010000 		.4byte	.LASF43
 3133 01d2 07       		.byte	0x7
 3134 01d3 51       		.byte	0x51
 3135 01d4 22020000 		.4byte	0x222
 3136 01d8 00       		.byte	0
 3137 01d9 09       		.uleb128 0x9
 3138 01da 65030000 		.4byte	.LASF44
 3139 01de 07       		.byte	0x7
 3140 01df 54       		.byte	0x54
 3141 01e0 F6000000 		.4byte	0xf6
 3142 01e4 04       		.byte	0x4
 3143 01e5 09       		.uleb128 0x9
 3144 01e6 5D030000 		.4byte	.LASF45
 3145 01ea 07       		.byte	0x7
 3146 01eb 5D       		.byte	0x5d
 3147 01ec 1C010000 		.4byte	0x11c
 3148 01f0 08       		.byte	0x8
 3149 01f1 0A       		.uleb128 0xa
 3150 01f2 6C656E00 		.ascii	"len\000"
 3151 01f6 07       		.byte	0x7
 3152 01f7 60       		.byte	0x60
 3153 01f8 1C010000 		.4byte	0x11c
 3154 01fc 0A       		.byte	0xa
 3155 01fd 09       		.uleb128 0x9
 3156 01fe E9080000 		.4byte	.LASF46
 3157 0202 07       		.byte	0x7
 3158 0203 63       		.byte	0x63
 3159 0204 06010000 		.4byte	0x106
 3160 0208 0C       		.byte	0xc
 3161 0209 09       		.uleb128 0x9
 3162 020a C4030000 		.4byte	.LASF47
 3163 020e 07       		.byte	0x7
 3164 020f 66       		.byte	0x66
 3165 0210 06010000 		.4byte	0x106
 3166 0214 0D       		.byte	0xd
 3167 0215 0A       		.uleb128 0xa
 3168 0216 72656600 		.ascii	"ref\000"
 3169 021a 07       		.byte	0x7
 3170 021b 6D       		.byte	0x6d
 3171 021c 1C010000 		.4byte	0x11c
 3172 0220 0E       		.byte	0xe
 3173 0221 00       		.byte	0
 3174 0222 0B       		.uleb128 0xb
ARM GAS  /tmp/ccAMfTfz.s 			page 57


 3175 0223 04       		.byte	0x4
 3176 0224 C1010000 		.4byte	0x1c1
 3177 0228 08       		.uleb128 0x8
 3178 0229 890A0000 		.4byte	.LASF49
 3179 022d 04       		.byte	0x4
 3180 022e 08       		.byte	0x8
 3181 022f 2C       		.byte	0x2c
 3182 0230 41020000 		.4byte	0x241
 3183 0234 09       		.uleb128 0x9
 3184 0235 83090000 		.4byte	.LASF50
 3185 0239 08       		.byte	0x8
 3186 023a 2D       		.byte	0x2d
 3187 023b 32010000 		.4byte	0x132
 3188 023f 00       		.byte	0
 3189 0240 00       		.byte	0
 3190 0241 04       		.uleb128 0x4
 3191 0242 320A0000 		.4byte	.LASF51
 3192 0246 08       		.byte	0x8
 3193 0247 40       		.byte	0x40
 3194 0248 28020000 		.4byte	0x228
 3195 024c 0B       		.uleb128 0xb
 3196 024d 04       		.byte	0x4
 3197 024e 52020000 		.4byte	0x252
 3198 0252 08       		.uleb128 0x8
 3199 0253 93090000 		.4byte	.LASF52
 3200 0257 30       		.byte	0x30
 3201 0258 09       		.byte	0x9
 3202 0259 88       		.byte	0x88
 3203 025a 06030000 		.4byte	0x306
 3204 025e 09       		.uleb128 0x9
 3205 025f 0F010000 		.4byte	.LASF43
 3206 0263 09       		.byte	0x9
 3207 0264 8A       		.byte	0x8a
 3208 0265 4C020000 		.4byte	0x24c
 3209 0269 00       		.byte	0
 3210 026a 09       		.uleb128 0x9
 3211 026b 890A0000 		.4byte	.LASF49
 3212 026f 09       		.byte	0x9
 3213 0270 8D       		.byte	0x8d
 3214 0271 41020000 		.4byte	0x241
 3215 0275 04       		.byte	0x4
 3216 0276 09       		.uleb128 0x9
 3217 0277 E9040000 		.4byte	.LASF53
 3218 027b 09       		.byte	0x9
 3219 027c 8E       		.byte	0x8e
 3220 027d 41020000 		.4byte	0x241
 3221 0281 08       		.byte	0x8
 3222 0282 0A       		.uleb128 0xa
 3223 0283 677700   		.ascii	"gw\000"
 3224 0286 09       		.byte	0x9
 3225 0287 8F       		.byte	0x8f
 3226 0288 41020000 		.4byte	0x241
 3227 028c 0C       		.byte	0xc
 3228 028d 09       		.uleb128 0x9
 3229 028e D2080000 		.4byte	.LASF54
 3230 0292 09       		.byte	0x9
 3231 0293 93       		.byte	0x93
ARM GAS  /tmp/ccAMfTfz.s 			page 58


 3232 0294 06030000 		.4byte	0x306
 3233 0298 10       		.byte	0x10
 3234 0299 09       		.uleb128 0x9
 3235 029a 75030000 		.4byte	.LASF55
 3236 029e 09       		.byte	0x9
 3237 029f 97       		.byte	0x97
 3238 02a0 2B030000 		.4byte	0x32b
 3239 02a4 14       		.byte	0x14
 3240 02a5 09       		.uleb128 0x9
 3241 02a6 30010000 		.4byte	.LASF56
 3242 02aa 09       		.byte	0x9
 3243 02ab 9B       		.byte	0x9b
 3244 02ac 5B030000 		.4byte	0x35b
 3245 02b0 18       		.byte	0x18
 3246 02b1 09       		.uleb128 0x9
 3247 02b2 8D090000 		.4byte	.LASF57
 3248 02b6 09       		.byte	0x9
 3249 02b7 AC       		.byte	0xac
 3250 02b8 F6000000 		.4byte	0xf6
 3251 02bc 1C       		.byte	0x1c
 3252 02bd 0A       		.uleb128 0xa
 3253 02be 6D747500 		.ascii	"mtu\000"
 3254 02c2 09       		.byte	0x9
 3255 02c3 BA       		.byte	0xba
 3256 02c4 1C010000 		.4byte	0x11c
 3257 02c8 20       		.byte	0x20
 3258 02c9 09       		.uleb128 0x9
 3259 02ca 09030000 		.4byte	.LASF58
 3260 02ce 09       		.byte	0x9
 3261 02cf BC       		.byte	0xbc
 3262 02d0 06010000 		.4byte	0x106
 3263 02d4 22       		.byte	0x22
 3264 02d5 09       		.uleb128 0x9
 3265 02d6 B2020000 		.4byte	.LASF59
 3266 02da 09       		.byte	0x9
 3267 02db BE       		.byte	0xbe
 3268 02dc 80030000 		.4byte	0x380
 3269 02e0 23       		.byte	0x23
 3270 02e1 09       		.uleb128 0x9
 3271 02e2 C4030000 		.4byte	.LASF47
 3272 02e6 09       		.byte	0x9
 3273 02e7 C0       		.byte	0xc0
 3274 02e8 06010000 		.4byte	0x106
 3275 02ec 29       		.byte	0x29
 3276 02ed 09       		.uleb128 0x9
 3277 02ee 54070000 		.4byte	.LASF60
 3278 02f2 09       		.byte	0x9
 3279 02f3 C2       		.byte	0xc2
 3280 02f4 90030000 		.4byte	0x390
 3281 02f8 2A       		.byte	0x2a
 3282 02f9 0A       		.uleb128 0xa
 3283 02fa 6E756D00 		.ascii	"num\000"
 3284 02fe 09       		.byte	0x9
 3285 02ff C4       		.byte	0xc4
 3286 0300 06010000 		.4byte	0x106
 3287 0304 2C       		.byte	0x2c
 3288 0305 00       		.byte	0
ARM GAS  /tmp/ccAMfTfz.s 			page 59


 3289 0306 04       		.uleb128 0x4
 3290 0307 39020000 		.4byte	.LASF61
 3291 030b 09       		.byte	0x9
 3292 030c 6D       		.byte	0x6d
 3293 030d 11030000 		.4byte	0x311
 3294 0311 0B       		.uleb128 0xb
 3295 0312 04       		.byte	0x4
 3296 0313 17030000 		.4byte	0x317
 3297 0317 0C       		.uleb128 0xc
 3298 0318 5E010000 		.4byte	0x15e
 3299 031c 2B030000 		.4byte	0x32b
 3300 0320 0D       		.uleb128 0xd
 3301 0321 22020000 		.4byte	0x222
 3302 0325 0D       		.uleb128 0xd
 3303 0326 4C020000 		.4byte	0x24c
 3304 032a 00       		.byte	0
 3305 032b 04       		.uleb128 0x4
 3306 032c B5010000 		.4byte	.LASF62
 3307 0330 09       		.byte	0x9
 3308 0331 76       		.byte	0x76
 3309 0332 36030000 		.4byte	0x336
 3310 0336 0B       		.uleb128 0xb
 3311 0337 04       		.byte	0x4
 3312 0338 3C030000 		.4byte	0x33c
 3313 033c 0C       		.uleb128 0xc
 3314 033d 5E010000 		.4byte	0x15e
 3315 0341 55030000 		.4byte	0x355
 3316 0345 0D       		.uleb128 0xd
 3317 0346 4C020000 		.4byte	0x24c
 3318 034a 0D       		.uleb128 0xd
 3319 034b 22020000 		.4byte	0x222
 3320 034f 0D       		.uleb128 0xd
 3321 0350 55030000 		.4byte	0x355
 3322 0354 00       		.byte	0
 3323 0355 0B       		.uleb128 0xb
 3324 0356 04       		.byte	0x4
 3325 0357 41020000 		.4byte	0x241
 3326 035b 04       		.uleb128 0x4
 3327 035c 59070000 		.4byte	.LASF63
 3328 0360 09       		.byte	0x9
 3329 0361 7E       		.byte	0x7e
 3330 0362 66030000 		.4byte	0x366
 3331 0366 0B       		.uleb128 0xb
 3332 0367 04       		.byte	0x4
 3333 0368 6C030000 		.4byte	0x36c
 3334 036c 0C       		.uleb128 0xc
 3335 036d 5E010000 		.4byte	0x15e
 3336 0371 80030000 		.4byte	0x380
 3337 0375 0D       		.uleb128 0xd
 3338 0376 4C020000 		.4byte	0x24c
 3339 037a 0D       		.uleb128 0xd
 3340 037b 22020000 		.4byte	0x222
 3341 037f 00       		.byte	0
 3342 0380 0E       		.uleb128 0xe
 3343 0381 06010000 		.4byte	0x106
 3344 0385 90030000 		.4byte	0x390
 3345 0389 0F       		.uleb128 0xf
ARM GAS  /tmp/ccAMfTfz.s 			page 60


 3346 038a F8000000 		.4byte	0xf8
 3347 038e 05       		.byte	0x5
 3348 038f 00       		.byte	0
 3349 0390 0E       		.uleb128 0xe
 3350 0391 FF000000 		.4byte	0xff
 3351 0395 A0030000 		.4byte	0x3a0
 3352 0399 0F       		.uleb128 0xf
 3353 039a F8000000 		.4byte	0xf8
 3354 039e 01       		.byte	0x1
 3355 039f 00       		.byte	0
 3356 03a0 04       		.uleb128 0x4
 3357 03a1 FE030000 		.4byte	.LASF64
 3358 03a5 0A       		.byte	0xa
 3359 03a6 3C       		.byte	0x3c
 3360 03a7 AB030000 		.4byte	0x3ab
 3361 03ab 0B       		.uleb128 0xb
 3362 03ac 04       		.byte	0x4
 3363 03ad B1030000 		.4byte	0x3b1
 3364 03b1 0C       		.uleb128 0xc
 3365 03b2 5E010000 		.4byte	0x15e
 3366 03b6 CA030000 		.4byte	0x3ca
 3367 03ba 0D       		.uleb128 0xd
 3368 03bb F6000000 		.4byte	0xf6
 3369 03bf 0D       		.uleb128 0xd
 3370 03c0 CA030000 		.4byte	0x3ca
 3371 03c4 0D       		.uleb128 0xd
 3372 03c5 5E010000 		.4byte	0x15e
 3373 03c9 00       		.byte	0
 3374 03ca 0B       		.uleb128 0xb
 3375 03cb 04       		.byte	0x4
 3376 03cc D0030000 		.4byte	0x3d0
 3377 03d0 08       		.uleb128 0x8
 3378 03d1 C8090000 		.4byte	.LASF65
 3379 03d5 98       		.byte	0x98
 3380 03d6 0A       		.byte	0xa
 3381 03d7 A8       		.byte	0xa8
 3382 03d8 82060000 		.4byte	0x682
 3383 03dc 09       		.uleb128 0x9
 3384 03dd EC060000 		.4byte	.LASF66
 3385 03e1 0A       		.byte	0xa
 3386 03e2 AA       		.byte	0xaa
 3387 03e3 41020000 		.4byte	0x241
 3388 03e7 00       		.byte	0
 3389 03e8 09       		.uleb128 0x9
 3390 03e9 130A0000 		.4byte	.LASF67
 3391 03ed 0A       		.byte	0xa
 3392 03ee AA       		.byte	0xaa
 3393 03ef 41020000 		.4byte	0x241
 3394 03f3 04       		.byte	0x4
 3395 03f4 09       		.uleb128 0x9
 3396 03f5 39000000 		.4byte	.LASF68
 3397 03f9 0A       		.byte	0xa
 3398 03fa AA       		.byte	0xaa
 3399 03fb 06010000 		.4byte	0x106
 3400 03ff 08       		.byte	0x8
 3401 0400 0A       		.uleb128 0xa
 3402 0401 746F7300 		.ascii	"tos\000"
ARM GAS  /tmp/ccAMfTfz.s 			page 61


 3403 0405 0A       		.byte	0xa
 3404 0406 AA       		.byte	0xaa
 3405 0407 06010000 		.4byte	0x106
 3406 040b 09       		.byte	0x9
 3407 040c 0A       		.uleb128 0xa
 3408 040d 74746C00 		.ascii	"ttl\000"
 3409 0411 0A       		.byte	0xa
 3410 0412 AA       		.byte	0xaa
 3411 0413 06010000 		.4byte	0x106
 3412 0417 0A       		.byte	0xa
 3413 0418 09       		.uleb128 0x9
 3414 0419 0F010000 		.4byte	.LASF43
 3415 041d 0A       		.byte	0xa
 3416 041e AC       		.byte	0xac
 3417 041f CA030000 		.4byte	0x3ca
 3418 0423 0C       		.byte	0xc
 3419 0424 09       		.uleb128 0x9
 3420 0425 65090000 		.4byte	.LASF69
 3421 0429 0A       		.byte	0xa
 3422 042a AC       		.byte	0xac
 3423 042b F6000000 		.4byte	0xf6
 3424 042f 10       		.byte	0x10
 3425 0430 09       		.uleb128 0x9
 3426 0431 30040000 		.4byte	.LASF70
 3427 0435 0A       		.byte	0xa
 3428 0436 AC       		.byte	0xac
 3429 0437 A0030000 		.4byte	0x3a0
 3430 043b 14       		.byte	0x14
 3431 043c 09       		.uleb128 0x9
 3432 043d 8D090000 		.4byte	.LASF57
 3433 0441 0A       		.byte	0xa
 3434 0442 AC       		.byte	0xac
 3435 0443 2C070000 		.4byte	0x72c
 3436 0447 18       		.byte	0x18
 3437 0448 09       		.uleb128 0x9
 3438 0449 2B040000 		.4byte	.LASF71
 3439 044d 0A       		.byte	0xa
 3440 044e AC       		.byte	0xac
 3441 044f 06010000 		.4byte	0x106
 3442 0453 19       		.byte	0x19
 3443 0454 09       		.uleb128 0x9
 3444 0455 77020000 		.4byte	.LASF72
 3445 0459 0A       		.byte	0xa
 3446 045a AC       		.byte	0xac
 3447 045b 1C010000 		.4byte	0x11c
 3448 045f 1A       		.byte	0x1a
 3449 0460 09       		.uleb128 0x9
 3450 0461 4D050000 		.4byte	.LASF73
 3451 0465 0A       		.byte	0xa
 3452 0466 AF       		.byte	0xaf
 3453 0467 1C010000 		.4byte	0x11c
 3454 046b 1C       		.byte	0x1c
 3455 046c 09       		.uleb128 0x9
 3456 046d C4030000 		.4byte	.LASF47
 3457 0471 0A       		.byte	0xa
 3458 0472 B1       		.byte	0xb1
 3459 0473 06010000 		.4byte	0x106
ARM GAS  /tmp/ccAMfTfz.s 			page 62


 3460 0477 1E       		.byte	0x1e
 3461 0478 09       		.uleb128 0x9
 3462 0479 BA000000 		.4byte	.LASF74
 3463 047d 0A       		.byte	0xa
 3464 047e BF       		.byte	0xbf
 3465 047f 06010000 		.4byte	0x106
 3466 0483 1F       		.byte	0x1f
 3467 0484 09       		.uleb128 0x9
 3468 0485 8D070000 		.4byte	.LASF75
 3469 0489 0A       		.byte	0xa
 3470 048a BF       		.byte	0xbf
 3471 048b 06010000 		.4byte	0x106
 3472 048f 20       		.byte	0x20
 3473 0490 09       		.uleb128 0x9
 3474 0491 D4060000 		.4byte	.LASF76
 3475 0495 0A       		.byte	0xa
 3476 0496 C0       		.byte	0xc0
 3477 0497 06010000 		.4byte	0x106
 3478 049b 21       		.byte	0x21
 3479 049c 0A       		.uleb128 0xa
 3480 049d 746D7200 		.ascii	"tmr\000"
 3481 04a1 0A       		.byte	0xa
 3482 04a2 C1       		.byte	0xc1
 3483 04a3 32010000 		.4byte	0x132
 3484 04a7 24       		.byte	0x24
 3485 04a8 09       		.uleb128 0x9
 3486 04a9 14030000 		.4byte	.LASF77
 3487 04ad 0A       		.byte	0xa
 3488 04ae C4       		.byte	0xc4
 3489 04af 32010000 		.4byte	0x132
 3490 04b3 28       		.byte	0x28
 3491 04b4 09       		.uleb128 0x9
 3492 04b5 9C060000 		.4byte	.LASF78
 3493 04b9 0A       		.byte	0xa
 3494 04ba C5       		.byte	0xc5
 3495 04bb 1C010000 		.4byte	0x11c
 3496 04bf 2C       		.byte	0x2c
 3497 04c0 09       		.uleb128 0x9
 3498 04c1 66050000 		.4byte	.LASF79
 3499 04c5 0A       		.byte	0xa
 3500 04c6 C6       		.byte	0xc6
 3501 04c7 1C010000 		.4byte	0x11c
 3502 04cb 2E       		.byte	0x2e
 3503 04cc 09       		.uleb128 0x9
 3504 04cd 78010000 		.4byte	.LASF80
 3505 04d1 0A       		.byte	0xa
 3506 04d2 C7       		.byte	0xc7
 3507 04d3 32010000 		.4byte	0x132
 3508 04d7 30       		.byte	0x30
 3509 04d8 09       		.uleb128 0x9
 3510 04d9 03030000 		.4byte	.LASF81
 3511 04dd 0A       		.byte	0xa
 3512 04de CA       		.byte	0xca
 3513 04df 27010000 		.4byte	0x127
 3514 04e3 34       		.byte	0x34
 3515 04e4 0A       		.uleb128 0xa
 3516 04e5 6D737300 		.ascii	"mss\000"
ARM GAS  /tmp/ccAMfTfz.s 			page 63


 3517 04e9 0A       		.byte	0xa
 3518 04ea CC       		.byte	0xcc
 3519 04eb 1C010000 		.4byte	0x11c
 3520 04ef 36       		.byte	0x36
 3521 04f0 09       		.uleb128 0x9
 3522 04f1 A4060000 		.4byte	.LASF82
 3523 04f5 0A       		.byte	0xa
 3524 04f6 CF       		.byte	0xcf
 3525 04f7 32010000 		.4byte	0x132
 3526 04fb 38       		.byte	0x38
 3527 04fc 09       		.uleb128 0x9
 3528 04fd 11040000 		.4byte	.LASF83
 3529 0501 0A       		.byte	0xa
 3530 0502 D0       		.byte	0xd0
 3531 0503 32010000 		.4byte	0x132
 3532 0507 3C       		.byte	0x3c
 3533 0508 0A       		.uleb128 0xa
 3534 0509 736100   		.ascii	"sa\000"
 3535 050c 0A       		.byte	0xa
 3536 050d D1       		.byte	0xd1
 3537 050e 27010000 		.4byte	0x127
 3538 0512 40       		.byte	0x40
 3539 0513 0A       		.uleb128 0xa
 3540 0514 737600   		.ascii	"sv\000"
 3541 0517 0A       		.byte	0xa
 3542 0518 D1       		.byte	0xd1
 3543 0519 27010000 		.4byte	0x127
 3544 051d 42       		.byte	0x42
 3545 051e 0A       		.uleb128 0xa
 3546 051f 72746F00 		.ascii	"rto\000"
 3547 0523 0A       		.byte	0xa
 3548 0524 D3       		.byte	0xd3
 3549 0525 27010000 		.4byte	0x127
 3550 0529 44       		.byte	0x44
 3551 052a 09       		.uleb128 0x9
 3552 052b 760A0000 		.4byte	.LASF84
 3553 052f 0A       		.byte	0xa
 3554 0530 D4       		.byte	0xd4
 3555 0531 06010000 		.4byte	0x106
 3556 0535 46       		.byte	0x46
 3557 0536 09       		.uleb128 0x9
 3558 0537 23040000 		.4byte	.LASF85
 3559 053b 0A       		.byte	0xa
 3560 053c D7       		.byte	0xd7
 3561 053d 06010000 		.4byte	0x106
 3562 0541 47       		.byte	0x47
 3563 0542 09       		.uleb128 0x9
 3564 0543 CA030000 		.4byte	.LASF86
 3565 0547 0A       		.byte	0xa
 3566 0548 D8       		.byte	0xd8
 3567 0549 32010000 		.4byte	0x132
 3568 054d 48       		.byte	0x48
 3569 054e 09       		.uleb128 0x9
 3570 054f 58020000 		.4byte	.LASF87
 3571 0553 0A       		.byte	0xa
 3572 0554 DB       		.byte	0xdb
 3573 0555 1C010000 		.4byte	0x11c
ARM GAS  /tmp/ccAMfTfz.s 			page 64


 3574 0559 4C       		.byte	0x4c
 3575 055a 09       		.uleb128 0x9
 3576 055b 7C070000 		.4byte	.LASF88
 3577 055f 0A       		.byte	0xa
 3578 0560 DC       		.byte	0xdc
 3579 0561 1C010000 		.4byte	0x11c
 3580 0565 4E       		.byte	0x4e
 3581 0566 09       		.uleb128 0x9
 3582 0567 12070000 		.4byte	.LASF89
 3583 056b 0A       		.byte	0xa
 3584 056c DF       		.byte	0xdf
 3585 056d 32010000 		.4byte	0x132
 3586 0571 50       		.byte	0x50
 3587 0572 09       		.uleb128 0x9
 3588 0573 A4040000 		.4byte	.LASF90
 3589 0577 0A       		.byte	0xa
 3590 0578 E0       		.byte	0xe0
 3591 0579 32010000 		.4byte	0x132
 3592 057d 54       		.byte	0x54
 3593 057e 09       		.uleb128 0x9
 3594 057f AC040000 		.4byte	.LASF91
 3595 0583 0A       		.byte	0xa
 3596 0584 E0       		.byte	0xe0
 3597 0585 32010000 		.4byte	0x132
 3598 0589 58       		.byte	0x58
 3599 058a 09       		.uleb128 0x9
 3600 058b C9040000 		.4byte	.LASF92
 3601 058f 0A       		.byte	0xa
 3602 0590 E2       		.byte	0xe2
 3603 0591 32010000 		.4byte	0x132
 3604 0595 5C       		.byte	0x5c
 3605 0596 09       		.uleb128 0x9
 3606 0597 DF050000 		.4byte	.LASF93
 3607 059b 0A       		.byte	0xa
 3608 059c E3       		.byte	0xe3
 3609 059d 1C010000 		.4byte	0x11c
 3610 05a1 60       		.byte	0x60
 3611 05a2 09       		.uleb128 0x9
 3612 05a3 48070000 		.4byte	.LASF94
 3613 05a7 0A       		.byte	0xa
 3614 05a8 E4       		.byte	0xe4
 3615 05a9 1C010000 		.4byte	0x11c
 3616 05ad 62       		.byte	0x62
 3617 05ae 09       		.uleb128 0x9
 3618 05af 6E040000 		.4byte	.LASF95
 3619 05b3 0A       		.byte	0xa
 3620 05b4 E6       		.byte	0xe6
 3621 05b5 1C010000 		.4byte	0x11c
 3622 05b9 64       		.byte	0x64
 3623 05ba 09       		.uleb128 0x9
 3624 05bb 85070000 		.4byte	.LASF96
 3625 05bf 0A       		.byte	0xa
 3626 05c0 E8       		.byte	0xe8
 3627 05c1 1C010000 		.4byte	0x11c
 3628 05c5 66       		.byte	0x66
 3629 05c6 09       		.uleb128 0x9
 3630 05c7 99090000 		.4byte	.LASF97
ARM GAS  /tmp/ccAMfTfz.s 			page 65


 3631 05cb 0A       		.byte	0xa
 3632 05cc EA       		.byte	0xea
 3633 05cd 1C010000 		.4byte	0x11c
 3634 05d1 68       		.byte	0x68
 3635 05d2 09       		.uleb128 0x9
 3636 05d3 02070000 		.4byte	.LASF98
 3637 05d7 0A       		.byte	0xa
 3638 05d8 EE       		.byte	0xee
 3639 05d9 1C010000 		.4byte	0x11c
 3640 05dd 6A       		.byte	0x6a
 3641 05de 09       		.uleb128 0x9
 3642 05df 95060000 		.4byte	.LASF99
 3643 05e3 0A       		.byte	0xa
 3644 05e4 F2       		.byte	0xf2
 3645 05e5 C8070000 		.4byte	0x7c8
 3646 05e9 6C       		.byte	0x6c
 3647 05ea 09       		.uleb128 0x9
 3648 05eb 3A030000 		.4byte	.LASF100
 3649 05ef 0A       		.byte	0xa
 3650 05f0 F3       		.byte	0xf3
 3651 05f1 C8070000 		.4byte	0x7c8
 3652 05f5 70       		.byte	0x70
 3653 05f6 09       		.uleb128 0x9
 3654 05f7 1F060000 		.4byte	.LASF101
 3655 05fb 0A       		.byte	0xa
 3656 05fc F5       		.byte	0xf5
 3657 05fd C8070000 		.4byte	0x7c8
 3658 0601 74       		.byte	0x74
 3659 0602 09       		.uleb128 0x9
 3660 0603 B7080000 		.4byte	.LASF102
 3661 0607 0A       		.byte	0xa
 3662 0608 F8       		.byte	0xf8
 3663 0609 22020000 		.4byte	0x222
 3664 060d 78       		.byte	0x78
 3665 060e 09       		.uleb128 0x9
 3666 060f 97040000 		.4byte	.LASF103
 3667 0613 0A       		.byte	0xa
 3668 0614 FC       		.byte	0xfc
 3669 0615 B1060000 		.4byte	0x6b1
 3670 0619 7C       		.byte	0x7c
 3671 061a 09       		.uleb128 0x9
 3672 061b B7090000 		.4byte	.LASF104
 3673 061f 0A       		.byte	0xa
 3674 0620 FE       		.byte	0xfe
 3675 0621 82060000 		.4byte	0x682
 3676 0625 80       		.byte	0x80
 3677 0626 10       		.uleb128 0x10
 3678 0627 7C030000 		.4byte	.LASF105
 3679 062b 0A       		.byte	0xa
 3680 062c 0001     		.2byte	0x100
 3681 062e 21070000 		.4byte	0x721
 3682 0632 84       		.byte	0x84
 3683 0633 10       		.uleb128 0x10
 3684 0634 41040000 		.4byte	.LASF106
 3685 0638 0A       		.byte	0xa
 3686 0639 0201     		.2byte	0x102
 3687 063b DB060000 		.4byte	0x6db
ARM GAS  /tmp/ccAMfTfz.s 			page 66


 3688 063f 88       		.byte	0x88
 3689 0640 10       		.uleb128 0x10
 3690 0641 DA050000 		.4byte	.LASF107
 3691 0645 0A       		.byte	0xa
 3692 0646 0401     		.2byte	0x104
 3693 0648 00070000 		.4byte	0x700
 3694 064c 8C       		.byte	0x8c
 3695 064d 10       		.uleb128 0x10
 3696 064e 51090000 		.4byte	.LASF108
 3697 0652 0A       		.byte	0xa
 3698 0653 0D01     		.2byte	0x10d
 3699 0655 32010000 		.4byte	0x132
 3700 0659 90       		.byte	0x90
 3701 065a 10       		.uleb128 0x10
 3702 065b 070A0000 		.4byte	.LASF109
 3703 065f 0A       		.byte	0xa
 3704 0660 1401     		.2byte	0x114
 3705 0662 06010000 		.4byte	0x106
 3706 0666 94       		.byte	0x94
 3707 0667 10       		.uleb128 0x10
 3708 0668 13050000 		.4byte	.LASF110
 3709 066c 0A       		.byte	0xa
 3710 066d 1601     		.2byte	0x116
 3711 066f 06010000 		.4byte	0x106
 3712 0673 95       		.byte	0x95
 3713 0674 10       		.uleb128 0x10
 3714 0675 D0010000 		.4byte	.LASF111
 3715 0679 0A       		.byte	0xa
 3716 067a 1901     		.2byte	0x119
 3717 067c 06010000 		.4byte	0x106
 3718 0680 96       		.byte	0x96
 3719 0681 00       		.byte	0
 3720 0682 04       		.uleb128 0x4
 3721 0683 88050000 		.4byte	.LASF112
 3722 0687 0A       		.byte	0xa
 3723 0688 48       		.byte	0x48
 3724 0689 8D060000 		.4byte	0x68d
 3725 068d 0B       		.uleb128 0xb
 3726 068e 04       		.byte	0x4
 3727 068f 93060000 		.4byte	0x693
 3728 0693 0C       		.uleb128 0xc
 3729 0694 5E010000 		.4byte	0x15e
 3730 0698 B1060000 		.4byte	0x6b1
 3731 069c 0D       		.uleb128 0xd
 3732 069d F6000000 		.4byte	0xf6
 3733 06a1 0D       		.uleb128 0xd
 3734 06a2 CA030000 		.4byte	0x3ca
 3735 06a6 0D       		.uleb128 0xd
 3736 06a7 22020000 		.4byte	0x222
 3737 06ab 0D       		.uleb128 0xd
 3738 06ac 5E010000 		.4byte	0x15e
 3739 06b0 00       		.byte	0
 3740 06b1 04       		.uleb128 0x4
 3741 06b2 F8010000 		.4byte	.LASF113
 3742 06b6 0A       		.byte	0xa
 3743 06b7 56       		.byte	0x56
 3744 06b8 BC060000 		.4byte	0x6bc
ARM GAS  /tmp/ccAMfTfz.s 			page 67


 3745 06bc 0B       		.uleb128 0xb
 3746 06bd 04       		.byte	0x4
 3747 06be C2060000 		.4byte	0x6c2
 3748 06c2 0C       		.uleb128 0xc
 3749 06c3 5E010000 		.4byte	0x15e
 3750 06c7 DB060000 		.4byte	0x6db
 3751 06cb 0D       		.uleb128 0xd
 3752 06cc F6000000 		.4byte	0xf6
 3753 06d0 0D       		.uleb128 0xd
 3754 06d1 CA030000 		.4byte	0x3ca
 3755 06d5 0D       		.uleb128 0xd
 3756 06d6 1C010000 		.4byte	0x11c
 3757 06da 00       		.byte	0
 3758 06db 04       		.uleb128 0x4
 3759 06dc A7050000 		.4byte	.LASF114
 3760 06e0 0A       		.byte	0xa
 3761 06e1 62       		.byte	0x62
 3762 06e2 E6060000 		.4byte	0x6e6
 3763 06e6 0B       		.uleb128 0xb
 3764 06e7 04       		.byte	0x4
 3765 06e8 EC060000 		.4byte	0x6ec
 3766 06ec 0C       		.uleb128 0xc
 3767 06ed 5E010000 		.4byte	0x15e
 3768 06f1 00070000 		.4byte	0x700
 3769 06f5 0D       		.uleb128 0xd
 3770 06f6 F6000000 		.4byte	0xf6
 3771 06fa 0D       		.uleb128 0xd
 3772 06fb CA030000 		.4byte	0x3ca
 3773 06ff 00       		.byte	0
 3774 0700 04       		.uleb128 0x4
 3775 0701 B4040000 		.4byte	.LASF115
 3776 0705 0A       		.byte	0xa
 3777 0706 6E       		.byte	0x6e
 3778 0707 0B070000 		.4byte	0x70b
 3779 070b 0B       		.uleb128 0xb
 3780 070c 04       		.byte	0x4
 3781 070d 11070000 		.4byte	0x711
 3782 0711 11       		.uleb128 0x11
 3783 0712 21070000 		.4byte	0x721
 3784 0716 0D       		.uleb128 0xd
 3785 0717 F6000000 		.4byte	0xf6
 3786 071b 0D       		.uleb128 0xd
 3787 071c 5E010000 		.4byte	0x15e
 3788 0720 00       		.byte	0
 3789 0721 04       		.uleb128 0x4
 3790 0722 FE000000 		.4byte	.LASF116
 3791 0726 0A       		.byte	0xa
 3792 0727 7C       		.byte	0x7c
 3793 0728 AB030000 		.4byte	0x3ab
 3794 072c 12       		.uleb128 0x12
 3795 072d F9020000 		.4byte	.LASF242
 3796 0731 01       		.byte	0x1
 3797 0732 0A       		.byte	0xa
 3798 0733 7E       		.byte	0x7e
 3799 0734 7B070000 		.4byte	0x77b
 3800 0738 07       		.uleb128 0x7
 3801 0739 3B060000 		.4byte	.LASF117
ARM GAS  /tmp/ccAMfTfz.s 			page 68


 3802 073d 00       		.sleb128 0
 3803 073e 07       		.uleb128 0x7
 3804 073f 7C090000 		.4byte	.LASF118
 3805 0743 01       		.sleb128 1
 3806 0744 07       		.uleb128 0x7
 3807 0745 43090000 		.4byte	.LASF119
 3808 0749 02       		.sleb128 2
 3809 074a 07       		.uleb128 0x7
 3810 074b 800A0000 		.4byte	.LASF120
 3811 074f 03       		.sleb128 3
 3812 0750 07       		.uleb128 0x7
 3813 0751 33070000 		.4byte	.LASF121
 3814 0755 04       		.sleb128 4
 3815 0756 07       		.uleb128 0x7
 3816 0757 42030000 		.4byte	.LASF122
 3817 075b 05       		.sleb128 5
 3818 075c 07       		.uleb128 0x7
 3819 075d 11090000 		.4byte	.LASF123
 3820 0761 06       		.sleb128 6
 3821 0762 07       		.uleb128 0x7
 3822 0763 74040000 		.4byte	.LASF124
 3823 0767 07       		.sleb128 7
 3824 0768 07       		.uleb128 0x7
 3825 0769 B2030000 		.4byte	.LASF125
 3826 076d 08       		.sleb128 8
 3827 076e 07       		.uleb128 0x7
 3828 076f 54030000 		.4byte	.LASF126
 3829 0773 09       		.sleb128 9
 3830 0774 07       		.uleb128 0x7
 3831 0775 E7000000 		.4byte	.LASF127
 3832 0779 0A       		.sleb128 10
 3833 077a 00       		.byte	0
 3834 077b 13       		.uleb128 0x13
 3835 077c C0020000 		.4byte	.LASF128
 3836 0780 10       		.byte	0x10
 3837 0781 0B       		.byte	0xb
 3838 0782 1501     		.2byte	0x115
 3839 0784 C8070000 		.4byte	0x7c8
 3840 0788 10       		.uleb128 0x10
 3841 0789 0F010000 		.4byte	.LASF43
 3842 078d 0B       		.byte	0xb
 3843 078e 1601     		.2byte	0x116
 3844 0790 C8070000 		.4byte	0x7c8
 3845 0794 00       		.byte	0
 3846 0795 14       		.uleb128 0x14
 3847 0796 7000     		.ascii	"p\000"
 3848 0798 0B       		.byte	0xb
 3849 0799 1701     		.2byte	0x117
 3850 079b 22020000 		.4byte	0x222
 3851 079f 04       		.byte	0x4
 3852 07a0 14       		.uleb128 0x14
 3853 07a1 6C656E00 		.ascii	"len\000"
 3854 07a5 0B       		.byte	0xb
 3855 07a6 1801     		.2byte	0x118
 3856 07a8 1C010000 		.4byte	0x11c
 3857 07ac 08       		.byte	0x8
 3858 07ad 10       		.uleb128 0x10
ARM GAS  /tmp/ccAMfTfz.s 			page 69


 3859 07ae C4030000 		.4byte	.LASF47
 3860 07b2 0B       		.byte	0xb
 3861 07b3 2201     		.2byte	0x122
 3862 07b5 06010000 		.4byte	0x106
 3863 07b9 0A       		.byte	0xa
 3864 07ba 10       		.uleb128 0x10
 3865 07bb 8E080000 		.4byte	.LASF129
 3866 07bf 0B       		.byte	0xb
 3867 07c0 2701     		.2byte	0x127
 3868 07c2 3B080000 		.4byte	0x83b
 3869 07c6 0C       		.byte	0xc
 3870 07c7 00       		.byte	0
 3871 07c8 0B       		.uleb128 0xb
 3872 07c9 04       		.byte	0x4
 3873 07ca 7B070000 		.4byte	0x77b
 3874 07ce 08       		.uleb128 0x8
 3875 07cf E1080000 		.4byte	.LASF130
 3876 07d3 14       		.byte	0x14
 3877 07d4 0B       		.byte	0xb
 3878 07d5 9F       		.byte	0x9f
 3879 07d6 3B080000 		.4byte	0x83b
 3880 07da 0A       		.uleb128 0xa
 3881 07db 73726300 		.ascii	"src\000"
 3882 07df 0B       		.byte	0xb
 3883 07e0 A0       		.byte	0xa0
 3884 07e1 1C010000 		.4byte	0x11c
 3885 07e5 00       		.byte	0
 3886 07e6 09       		.uleb128 0x9
 3887 07e7 7B0A0000 		.4byte	.LASF131
 3888 07eb 0B       		.byte	0xb
 3889 07ec A1       		.byte	0xa1
 3890 07ed 1C010000 		.4byte	0x11c
 3891 07f1 02       		.byte	0x2
 3892 07f2 09       		.uleb128 0x9
 3893 07f3 33020000 		.4byte	.LASF132
 3894 07f7 0B       		.byte	0xb
 3895 07f8 A2       		.byte	0xa2
 3896 07f9 32010000 		.4byte	0x132
 3897 07fd 04       		.byte	0x4
 3898 07fe 09       		.uleb128 0x9
 3899 07ff FF040000 		.4byte	.LASF133
 3900 0803 0B       		.byte	0xb
 3901 0804 A3       		.byte	0xa3
 3902 0805 32010000 		.4byte	0x132
 3903 0809 08       		.byte	0x8
 3904 080a 09       		.uleb128 0x9
 3905 080b A7070000 		.4byte	.LASF134
 3906 080f 0B       		.byte	0xb
 3907 0810 A4       		.byte	0xa4
 3908 0811 1C010000 		.4byte	0x11c
 3909 0815 0C       		.byte	0xc
 3910 0816 0A       		.uleb128 0xa
 3911 0817 776E6400 		.ascii	"wnd\000"
 3912 081b 0B       		.byte	0xb
 3913 081c A5       		.byte	0xa5
 3914 081d 1C010000 		.4byte	0x11c
 3915 0821 0E       		.byte	0xe
ARM GAS  /tmp/ccAMfTfz.s 			page 70


 3916 0822 09       		.uleb128 0x9
 3917 0823 A6090000 		.4byte	.LASF135
 3918 0827 0B       		.byte	0xb
 3919 0828 A6       		.byte	0xa6
 3920 0829 1C010000 		.4byte	0x11c
 3921 082d 10       		.byte	0x10
 3922 082e 09       		.uleb128 0x9
 3923 082f A7000000 		.4byte	.LASF136
 3924 0833 0B       		.byte	0xb
 3925 0834 A7       		.byte	0xa7
 3926 0835 1C010000 		.4byte	0x11c
 3927 0839 12       		.byte	0x12
 3928 083a 00       		.byte	0
 3929 083b 0B       		.uleb128 0xb
 3930 083c 04       		.byte	0x4
 3931 083d CE070000 		.4byte	0x7ce
 3932 0841 06       		.uleb128 0x6
 3933 0842 01       		.byte	0x1
 3934 0843 0C       		.byte	0xc
 3935 0844 2B       		.byte	0x2b
 3936 0845 A4080000 		.4byte	0x8a4
 3937 0849 07       		.uleb128 0x7
 3938 084a 9A070000 		.4byte	.LASF137
 3939 084e 00       		.sleb128 0
 3940 084f 07       		.uleb128 0x7
 3941 0850 DF060000 		.4byte	.LASF138
 3942 0854 01       		.sleb128 1
 3943 0855 07       		.uleb128 0x7
 3944 0856 23050000 		.4byte	.LASF139
 3945 085a 02       		.sleb128 2
 3946 085b 07       		.uleb128 0x7
 3947 085c 17000000 		.4byte	.LASF140
 3948 0860 03       		.sleb128 3
 3949 0861 07       		.uleb128 0x7
 3950 0862 23090000 		.4byte	.LASF141
 3951 0866 04       		.sleb128 4
 3952 0867 07       		.uleb128 0x7
 3953 0868 79050000 		.4byte	.LASF142
 3954 086c 05       		.sleb128 5
 3955 086d 07       		.uleb128 0x7
 3956 086e 6D070000 		.4byte	.LASF143
 3957 0872 06       		.sleb128 6
 3958 0873 07       		.uleb128 0x7
 3959 0874 DD040000 		.4byte	.LASF144
 3960 0878 07       		.sleb128 7
 3961 0879 07       		.uleb128 0x7
 3962 087a E6030000 		.4byte	.LASF145
 3963 087e 08       		.sleb128 8
 3964 087f 07       		.uleb128 0x7
 3965 0880 5D020000 		.4byte	.LASF146
 3966 0884 09       		.sleb128 9
 3967 0885 07       		.uleb128 0x7
 3968 0886 1C030000 		.4byte	.LASF147
 3969 088a 0A       		.sleb128 10
 3970 088b 07       		.uleb128 0x7
 3971 088c C3060000 		.4byte	.LASF148
 3972 0890 0B       		.sleb128 11
ARM GAS  /tmp/ccAMfTfz.s 			page 71


 3973 0891 07       		.uleb128 0x7
 3974 0892 37040000 		.4byte	.LASF149
 3975 0896 0C       		.sleb128 12
 3976 0897 07       		.uleb128 0x7
 3977 0898 DE010000 		.4byte	.LASF150
 3978 089c 0D       		.sleb128 13
 3979 089d 07       		.uleb128 0x7
 3980 089e D2030000 		.4byte	.LASF151
 3981 08a2 0E       		.sleb128 14
 3982 08a3 00       		.byte	0
 3983 08a4 04       		.uleb128 0x4
 3984 08a5 5C0A0000 		.4byte	.LASF152
 3985 08a9 0C       		.byte	0xc
 3986 08aa 2F       		.byte	0x2f
 3987 08ab 41080000 		.4byte	0x841
 3988 08af 08       		.uleb128 0x8
 3989 08b0 62040000 		.4byte	.LASF153
 3990 08b4 18       		.byte	0x18
 3991 08b5 0D       		.byte	0xd
 3992 08b6 3A       		.byte	0x3a
 3993 08b7 4B090000 		.4byte	0x94b
 3994 08bb 09       		.uleb128 0x9
 3995 08bc 020A0000 		.4byte	.LASF154
 3996 08c0 0D       		.byte	0xd
 3997 08c1 3B       		.byte	0x3b
 3998 08c2 1C010000 		.4byte	0x11c
 3999 08c6 00       		.byte	0
 4000 08c7 09       		.uleb128 0x9
 4001 08c8 B7090000 		.4byte	.LASF104
 4002 08cc 0D       		.byte	0xd
 4003 08cd 3C       		.byte	0x3c
 4004 08ce 1C010000 		.4byte	0x11c
 4005 08d2 02       		.byte	0x2
 4006 08d3 0A       		.uleb128 0xa
 4007 08d4 667700   		.ascii	"fw\000"
 4008 08d7 0D       		.byte	0xd
 4009 08d8 3D       		.byte	0x3d
 4010 08d9 1C010000 		.4byte	0x11c
 4011 08dd 04       		.byte	0x4
 4012 08de 09       		.uleb128 0x9
 4013 08df 88090000 		.4byte	.LASF155
 4014 08e3 0D       		.byte	0xd
 4015 08e4 3E       		.byte	0x3e
 4016 08e5 1C010000 		.4byte	0x11c
 4017 08e9 06       		.byte	0x6
 4018 08ea 09       		.uleb128 0x9
 4019 08eb 72050000 		.4byte	.LASF156
 4020 08ef 0D       		.byte	0xd
 4021 08f0 3F       		.byte	0x3f
 4022 08f1 1C010000 		.4byte	0x11c
 4023 08f5 08       		.byte	0x8
 4024 08f6 09       		.uleb128 0x9
 4025 08f7 BA070000 		.4byte	.LASF157
 4026 08fb 0D       		.byte	0xd
 4027 08fc 40       		.byte	0x40
 4028 08fd 1C010000 		.4byte	0x11c
 4029 0901 0A       		.byte	0xa
ARM GAS  /tmp/ccAMfTfz.s 			page 72


 4030 0902 09       		.uleb128 0x9
 4031 0903 1C090000 		.4byte	.LASF158
 4032 0907 0D       		.byte	0xd
 4033 0908 41       		.byte	0x41
 4034 0909 1C010000 		.4byte	0x11c
 4035 090d 0C       		.byte	0xc
 4036 090e 09       		.uleb128 0x9
 4037 090f 82060000 		.4byte	.LASF159
 4038 0913 0D       		.byte	0xd
 4039 0914 42       		.byte	0x42
 4040 0915 1C010000 		.4byte	0x11c
 4041 0919 0E       		.byte	0xe
 4042 091a 09       		.uleb128 0x9
 4043 091b CA080000 		.4byte	.LASF160
 4044 091f 0D       		.byte	0xd
 4045 0920 43       		.byte	0x43
 4046 0921 1C010000 		.4byte	0x11c
 4047 0925 10       		.byte	0x10
 4048 0926 09       		.uleb128 0x9
 4049 0927 70020000 		.4byte	.LASF161
 4050 092b 0D       		.byte	0xd
 4051 092c 44       		.byte	0x44
 4052 092d 1C010000 		.4byte	0x11c
 4053 0931 12       		.byte	0x12
 4054 0932 0A       		.uleb128 0xa
 4055 0933 65727200 		.ascii	"err\000"
 4056 0937 0D       		.byte	0xd
 4057 0938 45       		.byte	0x45
 4058 0939 1C010000 		.4byte	0x11c
 4059 093d 14       		.byte	0x14
 4060 093e 09       		.uleb128 0x9
 4061 093f 3F070000 		.4byte	.LASF162
 4062 0943 0D       		.byte	0xd
 4063 0944 46       		.byte	0x46
 4064 0945 1C010000 		.4byte	0x11c
 4065 0949 16       		.byte	0x16
 4066 094a 00       		.byte	0
 4067 094b 08       		.uleb128 0x8
 4068 094c 99010000 		.4byte	.LASF163
 4069 0950 0A       		.byte	0xa
 4070 0951 0D       		.byte	0xd
 4071 0952 5A       		.byte	0x5a
 4072 0953 94090000 		.4byte	0x994
 4073 0957 09       		.uleb128 0x9
 4074 0958 88060000 		.4byte	.LASF164
 4075 095c 0D       		.byte	0xd
 4076 095d 5E       		.byte	0x5e
 4077 095e 53010000 		.4byte	0x153
 4078 0962 00       		.byte	0
 4079 0963 09       		.uleb128 0x9
 4080 0964 59050000 		.4byte	.LASF165
 4081 0968 0D       		.byte	0xd
 4082 0969 5F       		.byte	0x5f
 4083 096a 53010000 		.4byte	0x153
 4084 096e 02       		.byte	0x2
 4085 096f 0A       		.uleb128 0xa
 4086 0970 6D617800 		.ascii	"max\000"
ARM GAS  /tmp/ccAMfTfz.s 			page 73


 4087 0974 0D       		.byte	0xd
 4088 0975 60       		.byte	0x60
 4089 0976 53010000 		.4byte	0x153
 4090 097a 04       		.byte	0x4
 4091 097b 0A       		.uleb128 0xa
 4092 097c 65727200 		.ascii	"err\000"
 4093 0980 0D       		.byte	0xd
 4094 0981 61       		.byte	0x61
 4095 0982 1C010000 		.4byte	0x11c
 4096 0986 06       		.byte	0x6
 4097 0987 09       		.uleb128 0x9
 4098 0988 90020000 		.4byte	.LASF166
 4099 098c 0D       		.byte	0xd
 4100 098d 62       		.byte	0x62
 4101 098e 1C010000 		.4byte	0x11c
 4102 0992 08       		.byte	0x8
 4103 0993 00       		.byte	0
 4104 0994 08       		.uleb128 0x8
 4105 0995 25020000 		.4byte	.LASF167
 4106 0999 06       		.byte	0x6
 4107 099a 0D       		.byte	0xd
 4108 099b 65       		.byte	0x65
 4109 099c C5090000 		.4byte	0x9c5
 4110 09a0 09       		.uleb128 0x9
 4111 09a1 59050000 		.4byte	.LASF165
 4112 09a5 0D       		.byte	0xd
 4113 09a6 66       		.byte	0x66
 4114 09a7 1C010000 		.4byte	0x11c
 4115 09ab 00       		.byte	0
 4116 09ac 0A       		.uleb128 0xa
 4117 09ad 6D617800 		.ascii	"max\000"
 4118 09b1 0D       		.byte	0xd
 4119 09b2 67       		.byte	0x67
 4120 09b3 1C010000 		.4byte	0x11c
 4121 09b7 02       		.byte	0x2
 4122 09b8 0A       		.uleb128 0xa
 4123 09b9 65727200 		.ascii	"err\000"
 4124 09bd 0D       		.byte	0xd
 4125 09be 68       		.byte	0x68
 4126 09bf 1C010000 		.4byte	0x11c
 4127 09c3 04       		.byte	0x4
 4128 09c4 00       		.byte	0
 4129 09c5 08       		.uleb128 0x8
 4130 09c6 EE080000 		.4byte	.LASF168
 4131 09ca 12       		.byte	0x12
 4132 09cb 0D       		.byte	0xd
 4133 09cc 6B       		.byte	0x6b
 4134 09cd F6090000 		.4byte	0x9f6
 4135 09d1 0A       		.uleb128 0xa
 4136 09d2 73656D00 		.ascii	"sem\000"
 4137 09d6 0D       		.byte	0xd
 4138 09d7 6C       		.byte	0x6c
 4139 09d8 94090000 		.4byte	0x994
 4140 09dc 00       		.byte	0
 4141 09dd 09       		.uleb128 0x9
 4142 09de 82020000 		.4byte	.LASF169
 4143 09e2 0D       		.byte	0xd
ARM GAS  /tmp/ccAMfTfz.s 			page 74


 4144 09e3 6D       		.byte	0x6d
 4145 09e4 94090000 		.4byte	0x994
 4146 09e8 06       		.byte	0x6
 4147 09e9 09       		.uleb128 0x9
 4148 09ea FD060000 		.4byte	.LASF170
 4149 09ee 0D       		.byte	0xd
 4150 09ef 6E       		.byte	0x6e
 4151 09f0 94090000 		.4byte	0x994
 4152 09f4 0C       		.byte	0xc
 4153 09f5 00       		.byte	0
 4154 09f6 15       		.uleb128 0x15
 4155 09f7 4D030000 		.4byte	.LASF171
 4156 09fb 5001     		.2byte	0x150
 4157 09fd 0D       		.byte	0xd
 4158 09fe 71       		.byte	0x71
 4159 09ff 7C0A0000 		.4byte	0xa7c
 4160 0a03 09       		.uleb128 0x9
 4161 0a04 0C040000 		.4byte	.LASF172
 4162 0a08 0D       		.byte	0xd
 4163 0a09 73       		.byte	0x73
 4164 0a0a AF080000 		.4byte	0x8af
 4165 0a0e 00       		.byte	0
 4166 0a0f 09       		.uleb128 0x9
 4167 0a10 B9020000 		.4byte	.LASF173
 4168 0a14 0D       		.byte	0xd
 4169 0a15 76       		.byte	0x76
 4170 0a16 AF080000 		.4byte	0x8af
 4171 0a1a 18       		.byte	0x18
 4172 0a1b 09       		.uleb128 0x9
 4173 0a1c 88020000 		.4byte	.LASF174
 4174 0a20 0D       		.byte	0xd
 4175 0a21 79       		.byte	0x79
 4176 0a22 AF080000 		.4byte	0x8af
 4177 0a26 30       		.byte	0x30
 4178 0a27 0A       		.uleb128 0xa
 4179 0a28 697000   		.ascii	"ip\000"
 4180 0a2b 0D       		.byte	0xd
 4181 0a2c 7C       		.byte	0x7c
 4182 0a2d AF080000 		.4byte	0x8af
 4183 0a31 48       		.byte	0x48
 4184 0a32 09       		.uleb128 0x9
 4185 0a33 58060000 		.4byte	.LASF175
 4186 0a37 0D       		.byte	0xd
 4187 0a38 7F       		.byte	0x7f
 4188 0a39 AF080000 		.4byte	0x8af
 4189 0a3d 60       		.byte	0x60
 4190 0a3e 0A       		.uleb128 0xa
 4191 0a3f 75647000 		.ascii	"udp\000"
 4192 0a43 0D       		.byte	0xd
 4193 0a44 85       		.byte	0x85
 4194 0a45 AF080000 		.4byte	0x8af
 4195 0a49 78       		.byte	0x78
 4196 0a4a 0A       		.uleb128 0xa
 4197 0a4b 74637000 		.ascii	"tcp\000"
 4198 0a4f 0D       		.byte	0xd
 4199 0a50 88       		.byte	0x88
 4200 0a51 AF080000 		.4byte	0x8af
ARM GAS  /tmp/ccAMfTfz.s 			page 75


 4201 0a55 90       		.byte	0x90
 4202 0a56 0A       		.uleb128 0xa
 4203 0a57 6D656D00 		.ascii	"mem\000"
 4204 0a5b 0D       		.byte	0xd
 4205 0a5c 8B       		.byte	0x8b
 4206 0a5d 4B090000 		.4byte	0x94b
 4207 0a61 A8       		.byte	0xa8
 4208 0a62 09       		.uleb128 0x9
 4209 0a63 30050000 		.4byte	.LASF176
 4210 0a67 0D       		.byte	0xd
 4211 0a68 8E       		.byte	0x8e
 4212 0a69 7C0A0000 		.4byte	0xa7c
 4213 0a6d B2       		.byte	0xb2
 4214 0a6e 16       		.uleb128 0x16
 4215 0a6f 73797300 		.ascii	"sys\000"
 4216 0a73 0D       		.byte	0xd
 4217 0a74 91       		.byte	0x91
 4218 0a75 C5090000 		.4byte	0x9c5
 4219 0a79 3E01     		.2byte	0x13e
 4220 0a7b 00       		.byte	0
 4221 0a7c 0E       		.uleb128 0xe
 4222 0a7d 4B090000 		.4byte	0x94b
 4223 0a81 8C0A0000 		.4byte	0xa8c
 4224 0a85 0F       		.uleb128 0xf
 4225 0a86 F8000000 		.4byte	0xf8
 4226 0a8a 0D       		.byte	0xd
 4227 0a8b 00       		.byte	0
 4228 0a8c 0B       		.uleb128 0xb
 4229 0a8d 04       		.byte	0x4
 4230 0a8e FF000000 		.4byte	0xff
 4231 0a92 17       		.uleb128 0x17
 4232 0a93 30090000 		.4byte	.LASF179
 4233 0a97 01       		.byte	0x1
 4234 0a98 9F       		.byte	0x9f
 4235 0a99 C8070000 		.4byte	0x7c8
 4236 0a9d 01       		.byte	0x1
 4237 0a9e EE0A0000 		.4byte	0xaee
 4238 0aa2 18       		.uleb128 0x18
 4239 0aa3 70636200 		.ascii	"pcb\000"
 4240 0aa7 01       		.byte	0x1
 4241 0aa8 9F       		.byte	0x9f
 4242 0aa9 CA030000 		.4byte	0x3ca
 4243 0aad 18       		.uleb128 0x18
 4244 0aae 7000     		.ascii	"p\000"
 4245 0ab0 01       		.byte	0x1
 4246 0ab1 9F       		.byte	0x9f
 4247 0ab2 22020000 		.4byte	0x222
 4248 0ab6 19       		.uleb128 0x19
 4249 0ab7 C4030000 		.4byte	.LASF47
 4250 0abb 01       		.byte	0x1
 4251 0abc 9F       		.byte	0x9f
 4252 0abd 06010000 		.4byte	0x106
 4253 0ac1 19       		.uleb128 0x19
 4254 0ac2 33020000 		.4byte	.LASF132
 4255 0ac6 01       		.byte	0x1
 4256 0ac7 9F       		.byte	0x9f
 4257 0ac8 32010000 		.4byte	0x132
ARM GAS  /tmp/ccAMfTfz.s 			page 76


 4258 0acc 19       		.uleb128 0x19
 4259 0acd 44050000 		.4byte	.LASF177
 4260 0ad1 01       		.byte	0x1
 4261 0ad2 9F       		.byte	0x9f
 4262 0ad3 06010000 		.4byte	0x106
 4263 0ad7 1A       		.uleb128 0x1a
 4264 0ad8 73656700 		.ascii	"seg\000"
 4265 0adc 01       		.byte	0x1
 4266 0add A1       		.byte	0xa1
 4267 0ade C8070000 		.4byte	0x7c8
 4268 0ae2 1B       		.uleb128 0x1b
 4269 0ae3 A3010000 		.4byte	.LASF178
 4270 0ae7 01       		.byte	0x1
 4271 0ae8 A2       		.byte	0xa2
 4272 0ae9 06010000 		.4byte	0x106
 4273 0aed 00       		.byte	0
 4274 0aee 17       		.uleb128 0x17
 4275 0aef E7050000 		.4byte	.LASF180
 4276 0af3 01       		.byte	0x1
 4277 0af4 5E       		.byte	0x5e
 4278 0af5 22020000 		.4byte	0x222
 4279 0af9 01       		.byte	0x1
 4280 0afa 3F0B0000 		.4byte	0xb3f
 4281 0afe 18       		.uleb128 0x18
 4282 0aff 70636200 		.ascii	"pcb\000"
 4283 0b03 01       		.byte	0x1
 4284 0b04 5E       		.byte	0x5e
 4285 0b05 CA030000 		.4byte	0x3ca
 4286 0b09 19       		.uleb128 0x19
 4287 0b0a A3010000 		.4byte	.LASF178
 4288 0b0e 01       		.byte	0x1
 4289 0b0f 5E       		.byte	0x5e
 4290 0b10 1C010000 		.4byte	0x11c
 4291 0b14 19       		.uleb128 0x19
 4292 0b15 F5060000 		.4byte	.LASF181
 4293 0b19 01       		.byte	0x1
 4294 0b1a 5E       		.byte	0x5e
 4295 0b1b 1C010000 		.4byte	0x11c
 4296 0b1f 19       		.uleb128 0x19
 4297 0b20 9F030000 		.4byte	.LASF182
 4298 0b24 01       		.byte	0x1
 4299 0b25 5F       		.byte	0x5f
 4300 0b26 32010000 		.4byte	0x132
 4301 0b2a 1B       		.uleb128 0x1b
 4302 0b2b 8E080000 		.4byte	.LASF129
 4303 0b2f 01       		.byte	0x1
 4304 0b30 61       		.byte	0x61
 4305 0b31 3B080000 		.4byte	0x83b
 4306 0b35 1A       		.uleb128 0x1a
 4307 0b36 7000     		.ascii	"p\000"
 4308 0b38 01       		.byte	0x1
 4309 0b39 62       		.byte	0x62
 4310 0b3a 22020000 		.4byte	0x222
 4311 0b3e 00       		.byte	0
 4312 0b3f 1C       		.uleb128 0x1c
 4313 0b40 D5000000 		.4byte	.LASF243
 4314 0b44 01       		.byte	0x1
ARM GAS  /tmp/ccAMfTfz.s 			page 77


 4315 0b45 DB       		.byte	0xdb
 4316 0b46 22020000 		.4byte	0x222
 4317 0b4a 00000000 		.4byte	.LFB10
 4318 0b4e 64000000 		.4byte	.LFE10-.LFB10
 4319 0b52 01       		.uleb128 0x1
 4320 0b53 9C       		.byte	0x9c
 4321 0b54 FA0B0000 		.4byte	0xbfa
 4322 0b58 1D       		.uleb128 0x1d
 4323 0b59 11000000 		.4byte	.LASF183
 4324 0b5d 01       		.byte	0x1
 4325 0b5e DB       		.byte	0xdb
 4326 0b5f 8A010000 		.4byte	0x18a
 4327 0b63 00000000 		.4byte	.LLST0
 4328 0b67 1D       		.uleb128 0x1d
 4329 0b68 8E060000 		.4byte	.LASF184
 4330 0b6c 01       		.byte	0x1
 4331 0b6d DB       		.byte	0xdb
 4332 0b6e 1C010000 		.4byte	0x11c
 4333 0b72 2C000000 		.4byte	.LLST1
 4334 0b76 1D       		.uleb128 0x1d
 4335 0b77 30060000 		.4byte	.LASF185
 4336 0b7b 01       		.byte	0x1
 4337 0b7c DB       		.byte	0xdb
 4338 0b7d 1C010000 		.4byte	0x11c
 4339 0b81 4D000000 		.4byte	.LLST2
 4340 0b85 1D       		.uleb128 0x1d
 4341 0b86 8B000000 		.4byte	.LASF186
 4342 0b8a 01       		.byte	0x1
 4343 0b8b DC       		.byte	0xdc
 4344 0b8c FA0B0000 		.4byte	0xbfa
 4345 0b90 92000000 		.4byte	.LLST3
 4346 0b94 1E       		.uleb128 0x1e
 4347 0b95 70636200 		.ascii	"pcb\000"
 4348 0b99 01       		.byte	0x1
 4349 0b9a DC       		.byte	0xdc
 4350 0b9b CA030000 		.4byte	0x3ca
 4351 0b9f B0000000 		.4byte	.LLST4
 4352 0ba3 1D       		.uleb128 0x1d
 4353 0ba4 AE080000 		.4byte	.LASF187
 4354 0ba8 01       		.byte	0x1
 4355 0ba9 DC       		.byte	0xdc
 4356 0baa 06010000 		.4byte	0x106
 4357 0bae D0000000 		.4byte	.LLST5
 4358 0bb2 1D       		.uleb128 0x1d
 4359 0bb3 BA030000 		.4byte	.LASF188
 4360 0bb7 01       		.byte	0x1
 4361 0bb8 DD       		.byte	0xdd
 4362 0bb9 06010000 		.4byte	0x106
 4363 0bbd F0000000 		.4byte	.LLST6
 4364 0bc1 1F       		.uleb128 0x1f
 4365 0bc2 7000     		.ascii	"p\000"
 4366 0bc4 01       		.byte	0x1
 4367 0bc5 DF       		.byte	0xdf
 4368 0bc6 22020000 		.4byte	0x222
 4369 0bca 10010000 		.4byte	.LLST7
 4370 0bce 20       		.uleb128 0x20
 4371 0bcf 48060000 		.4byte	.LASF189
ARM GAS  /tmp/ccAMfTfz.s 			page 78


 4372 0bd3 01       		.byte	0x1
 4373 0bd4 E0       		.byte	0xe0
 4374 0bd5 1C010000 		.4byte	0x11c
 4375 0bd9 2E010000 		.4byte	.LLST8
 4376 0bdd 21       		.uleb128 0x21
 4377 0bde 38000000 		.4byte	.LVL8
 4378 0be2 991B0000 		.4byte	0x1b99
 4379 0be6 F00B0000 		.4byte	0xbf0
 4380 0bea 22       		.uleb128 0x22
 4381 0beb 01       		.uleb128 0x1
 4382 0bec 52       		.byte	0x52
 4383 0bed 01       		.uleb128 0x1
 4384 0bee 30       		.byte	0x30
 4385 0bef 00       		.byte	0
 4386 0bf0 23       		.uleb128 0x23
 4387 0bf1 44000000 		.4byte	.LVL9
 4388 0bf5 B81B0000 		.4byte	0x1bb8
 4389 0bf9 00       		.byte	0
 4390 0bfa 0B       		.uleb128 0xb
 4391 0bfb 04       		.byte	0x4
 4392 0bfc 1C010000 		.4byte	0x11c
 4393 0c00 24       		.uleb128 0x24
 4394 0c01 920A0000 		.4byte	0xa92
 4395 0c05 00000000 		.4byte	.LFB23
 4396 0c09 C0000000 		.4byte	.LFE23-.LFB23
 4397 0c0d 01       		.uleb128 0x1
 4398 0c0e 9C       		.byte	0x9c
 4399 0c0f F00C0000 		.4byte	0xcf0
 4400 0c13 25       		.uleb128 0x25
 4401 0c14 AD0A0000 		.4byte	0xaad
 4402 0c18 78010000 		.4byte	.LLST9
 4403 0c1c 25       		.uleb128 0x25
 4404 0c1d B60A0000 		.4byte	0xab6
 4405 0c21 AF010000 		.4byte	.LLST10
 4406 0c25 25       		.uleb128 0x25
 4407 0c26 C10A0000 		.4byte	0xac1
 4408 0c2a D0010000 		.4byte	.LLST11
 4409 0c2e 25       		.uleb128 0x25
 4410 0c2f CC0A0000 		.4byte	0xacc
 4411 0c33 F0010000 		.4byte	.LLST12
 4412 0c37 26       		.uleb128 0x26
 4413 0c38 A20A0000 		.4byte	0xaa2
 4414 0c3c 06       		.uleb128 0x6
 4415 0c3d FA       		.byte	0xfa
 4416 0c3e A20A0000 		.4byte	0xaa2
 4417 0c42 9F       		.byte	0x9f
 4418 0c43 26       		.uleb128 0x26
 4419 0c44 A20A0000 		.4byte	0xaa2
 4420 0c48 06       		.uleb128 0x6
 4421 0c49 FA       		.byte	0xfa
 4422 0c4a A20A0000 		.4byte	0xaa2
 4423 0c4e 9F       		.byte	0x9f
 4424 0c4f 27       		.uleb128 0x27
 4425 0c50 D70A0000 		.4byte	0xad7
 4426 0c54 10020000 		.4byte	.LLST13
 4427 0c58 27       		.uleb128 0x27
 4428 0c59 E20A0000 		.4byte	0xae2
ARM GAS  /tmp/ccAMfTfz.s 			page 79


 4429 0c5d 44020000 		.4byte	.LLST14
 4430 0c61 21       		.uleb128 0x21
 4431 0c62 2C000000 		.4byte	.LVL12
 4432 0c66 C01B0000 		.4byte	0x1bc0
 4433 0c6a 740C0000 		.4byte	0xc74
 4434 0c6e 22       		.uleb128 0x22
 4435 0c6f 01       		.uleb128 0x1
 4436 0c70 50       		.byte	0x50
 4437 0c71 01       		.uleb128 0x1
 4438 0c72 34       		.byte	0x34
 4439 0c73 00       		.byte	0
 4440 0c74 21       		.uleb128 0x21
 4441 0c75 4E000000 		.4byte	.LVL15
 4442 0c79 D51B0000 		.4byte	0x1bd5
 4443 0c7d 8D0C0000 		.4byte	0xc8d
 4444 0c81 22       		.uleb128 0x22
 4445 0c82 01       		.uleb128 0x1
 4446 0c83 51       		.byte	0x51
 4447 0c84 01       		.uleb128 0x1
 4448 0c85 44       		.byte	0x44
 4449 0c86 22       		.uleb128 0x22
 4450 0c87 01       		.uleb128 0x1
 4451 0c88 50       		.byte	0x50
 4452 0c89 02       		.uleb128 0x2
 4453 0c8a 76       		.byte	0x76
 4454 0c8b 00       		.sleb128 0
 4455 0c8c 00       		.byte	0
 4456 0c8d 23       		.uleb128 0x23
 4457 0c8e 60000000 		.4byte	.LVL17
 4458 0c92 EF1B0000 		.4byte	0x1bef
 4459 0c96 23       		.uleb128 0x23
 4460 0c97 6C000000 		.4byte	.LVL18
 4461 0c9b EF1B0000 		.4byte	0x1bef
 4462 0c9f 21       		.uleb128 0x21
 4463 0ca0 76000000 		.4byte	.LVL19
 4464 0ca4 041C0000 		.4byte	0x1c04
 4465 0ca8 B40C0000 		.4byte	0xcb4
 4466 0cac 22       		.uleb128 0x22
 4467 0cad 01       		.uleb128 0x1
 4468 0cae 50       		.byte	0x50
 4469 0caf 03       		.uleb128 0x3
 4470 0cb0 91       		.byte	0x91
 4471 0cb1 00       		.sleb128 0
 4472 0cb2 06       		.byte	0x6
 4473 0cb3 00       		.byte	0
 4474 0cb4 21       		.uleb128 0x21
 4475 0cb5 88000000 		.4byte	.LVL21
 4476 0cb9 EF1B0000 		.4byte	0x1bef
 4477 0cbd CB0C0000 		.4byte	0xccb
 4478 0cc1 22       		.uleb128 0x22
 4479 0cc2 01       		.uleb128 0x1
 4480 0cc3 50       		.byte	0x50
 4481 0cc4 05       		.uleb128 0x5
 4482 0cc5 77       		.byte	0x77
 4483 0cc6 00       		.sleb128 0
 4484 0cc7 78       		.byte	0x78
 4485 0cc8 00       		.sleb128 0
ARM GAS  /tmp/ccAMfTfz.s 			page 80


 4486 0cc9 21       		.byte	0x21
 4487 0cca 00       		.byte	0
 4488 0ccb 21       		.uleb128 0x21
 4489 0ccc AE000000 		.4byte	.LVL23
 4490 0cd0 191C0000 		.4byte	0x1c19
 4491 0cd4 DF0C0000 		.4byte	0xcdf
 4492 0cd8 22       		.uleb128 0x22
 4493 0cd9 01       		.uleb128 0x1
 4494 0cda 50       		.byte	0x50
 4495 0cdb 02       		.uleb128 0x2
 4496 0cdc 74       		.byte	0x74
 4497 0cdd 00       		.sleb128 0
 4498 0cde 00       		.byte	0
 4499 0cdf 28       		.uleb128 0x28
 4500 0ce0 BA000000 		.4byte	.LVL26
 4501 0ce4 2B1C0000 		.4byte	0x1c2b
 4502 0ce8 22       		.uleb128 0x22
 4503 0ce9 01       		.uleb128 0x1
 4504 0cea 50       		.byte	0x50
 4505 0ceb 02       		.uleb128 0x2
 4506 0cec 76       		.byte	0x76
 4507 0ced 00       		.sleb128 0
 4508 0cee 00       		.byte	0
 4509 0cef 00       		.byte	0
 4510 0cf0 24       		.uleb128 0x24
 4511 0cf1 EE0A0000 		.4byte	0xaee
 4512 0cf5 00000000 		.4byte	.LFB24
 4513 0cf9 66000000 		.4byte	.LFE24-.LFB24
 4514 0cfd 01       		.uleb128 0x1
 4515 0cfe 9C       		.byte	0x9c
 4516 0cff 910D0000 		.4byte	0xd91
 4517 0d03 25       		.uleb128 0x25
 4518 0d04 FE0A0000 		.4byte	0xafe
 4519 0d08 96020000 		.4byte	.LLST15
 4520 0d0c 25       		.uleb128 0x25
 4521 0d0d 140B0000 		.4byte	0xb14
 4522 0d11 B4020000 		.4byte	.LLST16
 4523 0d15 25       		.uleb128 0x25
 4524 0d16 1F0B0000 		.4byte	0xb1f
 4525 0d1a D5020000 		.4byte	.LLST17
 4526 0d1e 27       		.uleb128 0x27
 4527 0d1f 2A0B0000 		.4byte	0xb2a
 4528 0d23 F3020000 		.4byte	.LLST18
 4529 0d27 27       		.uleb128 0x27
 4530 0d28 350B0000 		.4byte	0xb35
 4531 0d2c 06030000 		.4byte	.LLST19
 4532 0d30 29       		.uleb128 0x29
 4533 0d31 090B0000 		.4byte	0xb09
 4534 0d35 00       		.byte	0
 4535 0d36 21       		.uleb128 0x21
 4536 0d37 12000000 		.4byte	.LVL31
 4537 0d3b 991B0000 		.4byte	0x1b99
 4538 0d3f 4E0D0000 		.4byte	0xd4e
 4539 0d43 22       		.uleb128 0x22
 4540 0d44 01       		.uleb128 0x1
 4541 0d45 52       		.byte	0x52
 4542 0d46 01       		.uleb128 0x1
ARM GAS  /tmp/ccAMfTfz.s 			page 81


 4543 0d47 30       		.byte	0x30
 4544 0d48 22       		.uleb128 0x22
 4545 0d49 01       		.uleb128 0x1
 4546 0d4a 50       		.byte	0x50
 4547 0d4b 01       		.uleb128 0x1
 4548 0d4c 31       		.byte	0x31
 4549 0d4d 00       		.byte	0
 4550 0d4e 23       		.uleb128 0x23
 4551 0d4f 24000000 		.4byte	.LVL34
 4552 0d53 EF1B0000 		.4byte	0x1bef
 4553 0d57 23       		.uleb128 0x23
 4554 0d58 2C000000 		.4byte	.LVL35
 4555 0d5c EF1B0000 		.4byte	0x1bef
 4556 0d60 23       		.uleb128 0x23
 4557 0d61 36000000 		.4byte	.LVL36
 4558 0d65 041C0000 		.4byte	0x1c04
 4559 0d69 21       		.uleb128 0x21
 4560 0d6a 40000000 		.4byte	.LVL37
 4561 0d6e EF1B0000 		.4byte	0x1bef
 4562 0d72 7E0D0000 		.4byte	0xd7e
 4563 0d76 22       		.uleb128 0x22
 4564 0d77 01       		.uleb128 0x1
 4565 0d78 50       		.byte	0x50
 4566 0d79 03       		.uleb128 0x3
 4567 0d7a 0A       		.byte	0xa
 4568 0d7b 1050     		.2byte	0x5010
 4569 0d7d 00       		.byte	0
 4570 0d7e 23       		.uleb128 0x23
 4571 0d7f 48000000 		.4byte	.LVL38
 4572 0d83 EF1B0000 		.4byte	0x1bef
 4573 0d87 23       		.uleb128 0x23
 4574 0d88 64000000 		.4byte	.LVL41
 4575 0d8c B81B0000 		.4byte	0x1bb8
 4576 0d90 00       		.byte	0
 4577 0d91 2A       		.uleb128 0x2a
 4578 0d92 00000000 		.4byte	.LASF190
 4579 0d96 01       		.byte	0x1
 4580 0d97 2601     		.2byte	0x126
 4581 0d99 5E010000 		.4byte	0x15e
 4582 0d9d 01       		.byte	0x1
 4583 0d9e BB0D0000 		.4byte	0xdbb
 4584 0da2 2B       		.uleb128 0x2b
 4585 0da3 70636200 		.ascii	"pcb\000"
 4586 0da7 01       		.byte	0x1
 4587 0da8 2601     		.2byte	0x126
 4588 0daa CA030000 		.4byte	0x3ca
 4589 0dae 2B       		.uleb128 0x2b
 4590 0daf 6C656E00 		.ascii	"len\000"
 4591 0db3 01       		.byte	0x1
 4592 0db4 2601     		.2byte	0x126
 4593 0db6 1C010000 		.4byte	0x11c
 4594 0dba 00       		.byte	0
 4595 0dbb 2C       		.uleb128 0x2c
 4596 0dbc AD090000 		.4byte	.LASF203
 4597 0dc0 01       		.byte	0x1
 4598 0dc1 6201     		.2byte	0x162
 4599 0dc3 5E010000 		.4byte	0x15e
ARM GAS  /tmp/ccAMfTfz.s 			page 82


 4600 0dc7 00000000 		.4byte	.LFB12
 4601 0dcb B8040000 		.4byte	.LFE12-.LFB12
 4602 0dcf 01       		.uleb128 0x1
 4603 0dd0 9C       		.byte	0x9c
 4604 0dd1 50120000 		.4byte	0x1250
 4605 0dd5 2D       		.uleb128 0x2d
 4606 0dd6 70636200 		.ascii	"pcb\000"
 4607 0dda 01       		.byte	0x1
 4608 0ddb 6201     		.2byte	0x162
 4609 0ddd CA030000 		.4byte	0x3ca
 4610 0de1 3A030000 		.4byte	.LLST20
 4611 0de5 2D       		.uleb128 0x2d
 4612 0de6 61726700 		.ascii	"arg\000"
 4613 0dea 01       		.byte	0x1
 4614 0deb 6201     		.2byte	0x162
 4615 0ded 50120000 		.4byte	0x1250
 4616 0df1 58030000 		.4byte	.LLST21
 4617 0df5 2D       		.uleb128 0x2d
 4618 0df6 6C656E00 		.ascii	"len\000"
 4619 0dfa 01       		.byte	0x1
 4620 0dfb 6201     		.2byte	0x162
 4621 0dfd 1C010000 		.4byte	0x11c
 4622 0e01 B3030000 		.4byte	.LLST22
 4623 0e05 2E       		.uleb128 0x2e
 4624 0e06 AE080000 		.4byte	.LASF187
 4625 0e0a 01       		.byte	0x1
 4626 0e0b 6201     		.2byte	0x162
 4627 0e0d 06010000 		.4byte	0x106
 4628 0e11 83040000 		.4byte	.LLST23
 4629 0e15 2F       		.uleb128 0x2f
 4630 0e16 5D060000 		.4byte	.LASF191
 4631 0e1a 01       		.byte	0x1
 4632 0e1b 6401     		.2byte	0x164
 4633 0e1d 22020000 		.4byte	0x222
 4634 0e21 BD040000 		.4byte	.LLST24
 4635 0e25 2F       		.uleb128 0x2f
 4636 0e26 4B040000 		.4byte	.LASF192
 4637 0e2a 01       		.byte	0x1
 4638 0e2b 6501     		.2byte	0x165
 4639 0e2d C8070000 		.4byte	0x7c8
 4640 0e31 9B050000 		.4byte	.LLST25
 4641 0e35 30       		.uleb128 0x30
 4642 0e36 73656700 		.ascii	"seg\000"
 4643 0e3a 01       		.byte	0x1
 4644 0e3b 6501     		.2byte	0x165
 4645 0e3d C8070000 		.4byte	0x7c8
 4646 0e41 46060000 		.4byte	.LLST26
 4647 0e45 2F       		.uleb128 0x2f
 4648 0e46 D8080000 		.4byte	.LASF193
 4649 0e4a 01       		.byte	0x1
 4650 0e4b 6501     		.2byte	0x165
 4651 0e4d C8070000 		.4byte	0x7c8
 4652 0e51 07070000 		.4byte	.LLST27
 4653 0e55 2F       		.uleb128 0x2f
 4654 0e56 C4080000 		.4byte	.LASF194
 4655 0e5a 01       		.byte	0x1
 4656 0e5b 6501     		.2byte	0x165
ARM GAS  /tmp/ccAMfTfz.s 			page 83


 4657 0e5d C8070000 		.4byte	0x7c8
 4658 0e61 D4070000 		.4byte	.LLST28
 4659 0e65 30       		.uleb128 0x30
 4660 0e66 706F7300 		.ascii	"pos\000"
 4661 0e6a 01       		.byte	0x1
 4662 0e6b 6601     		.2byte	0x166
 4663 0e6d 1C010000 		.4byte	0x11c
 4664 0e71 95080000 		.4byte	.LLST29
 4665 0e75 2F       		.uleb128 0x2f
 4666 0e76 F9090000 		.4byte	.LASF195
 4667 0e7a 01       		.byte	0x1
 4668 0e7b 6701     		.2byte	0x167
 4669 0e7d 1C010000 		.4byte	0x11c
 4670 0e81 8F090000 		.4byte	.LLST30
 4671 0e85 31       		.uleb128 0x31
 4672 0e86 A3010000 		.4byte	.LASF178
 4673 0e8a 01       		.byte	0x1
 4674 0e8b 6801     		.2byte	0x168
 4675 0e8d 06010000 		.4byte	0x106
 4676 0e91 00       		.byte	0
 4677 0e92 31       		.uleb128 0x31
 4678 0e93 44050000 		.4byte	.LASF177
 4679 0e97 01       		.byte	0x1
 4680 0e98 6901     		.2byte	0x169
 4681 0e9a 06010000 		.4byte	0x106
 4682 0e9e 00       		.byte	0
 4683 0e9f 32       		.uleb128 0x32
 4684 0ea0 8B000000 		.4byte	.LASF186
 4685 0ea4 01       		.byte	0x1
 4686 0ea5 6B01     		.2byte	0x16b
 4687 0ea7 1C010000 		.4byte	0x11c
 4688 0eab 02       		.uleb128 0x2
 4689 0eac 91       		.byte	0x91
 4690 0ead 56       		.sleb128 -42
 4691 0eae 2F       		.uleb128 0x2f
 4692 0eaf 8B010000 		.4byte	.LASF196
 4693 0eb3 01       		.byte	0x1
 4694 0eb4 6C01     		.2byte	0x16c
 4695 0eb6 1C010000 		.4byte	0x11c
 4696 0eba 330A0000 		.4byte	.LLST31
 4697 0ebe 33       		.uleb128 0x33
 4698 0ebf 65727200 		.ascii	"err\000"
 4699 0ec3 01       		.byte	0x1
 4700 0ec4 7301     		.2byte	0x173
 4701 0ec6 5E010000 		.4byte	0x15e
 4702 0eca 32       		.uleb128 0x32
 4703 0ecb 5B090000 		.4byte	.LASF197
 4704 0ecf 01       		.byte	0x1
 4705 0ed0 7501     		.2byte	0x175
 4706 0ed2 1C010000 		.4byte	0x11c
 4707 0ed6 03       		.uleb128 0x3
 4708 0ed7 91       		.byte	0x91
 4709 0ed8 AC7F     		.sleb128 -84
 4710 0eda 34       		.uleb128 0x34
 4711 0edb 1C090000 		.4byte	.LASF158
 4712 0edf 01       		.byte	0x1
 4713 0ee0 B502     		.2byte	0x2b5
ARM GAS  /tmp/ccAMfTfz.s 			page 84


 4714 0ee2 EE020000 		.4byte	.L67
 4715 0ee6 35       		.uleb128 0x35
 4716 0ee7 910D0000 		.4byte	0xd91
 4717 0eeb 2C000000 		.4byte	.LBB9
 4718 0eef 00000000 		.4byte	.Ldebug_ranges0+0
 4719 0ef3 01       		.byte	0x1
 4720 0ef4 8101     		.2byte	0x181
 4721 0ef6 160F0000 		.4byte	0xf16
 4722 0efa 25       		.uleb128 0x25
 4723 0efb AE0D0000 		.4byte	0xdae
 4724 0eff D70A0000 		.4byte	.LLST32
 4725 0f03 25       		.uleb128 0x25
 4726 0f04 A20D0000 		.4byte	0xda2
 4727 0f08 840B0000 		.4byte	.LLST33
 4728 0f0c 23       		.uleb128 0x23
 4729 0f0d EE010000 		.4byte	.LVL78
 4730 0f11 B81B0000 		.4byte	0x1bb8
 4731 0f15 00       		.byte	0
 4732 0f16 36       		.uleb128 0x36
 4733 0f17 38000000 		.4byte	.Ldebug_ranges0+0x38
 4734 0f1b ED0F0000 		.4byte	0xfed
 4735 0f1f 2F       		.uleb128 0x2f
 4736 0f20 91040000 		.4byte	.LASF198
 4737 0f24 01       		.byte	0x1
 4738 0f25 A701     		.2byte	0x1a7
 4739 0f27 1C010000 		.4byte	0x11c
 4740 0f2b A20B0000 		.4byte	.LLST34
 4741 0f2f 2F       		.uleb128 0x2f
 4742 0f30 AC000000 		.4byte	.LASF199
 4743 0f34 01       		.byte	0x1
 4744 0f35 A801     		.2byte	0x1a8
 4745 0f37 1C010000 		.4byte	0x11c
 4746 0f3b F50B0000 		.4byte	.LLST35
 4747 0f3f 36       		.uleb128 0x36
 4748 0f40 60000000 		.4byte	.Ldebug_ranges0+0x60
 4749 0f44 E30F0000 		.4byte	0xfe3
 4750 0f48 2F       		.uleb128 0x2f
 4751 0f49 E3090000 		.4byte	.LASF200
 4752 0f4d 01       		.byte	0x1
 4753 0f4e D401     		.2byte	0x1d4
 4754 0f50 1C010000 		.4byte	0x11c
 4755 0f54 420C0000 		.4byte	.LLST36
 4756 0f58 21       		.uleb128 0x21
 4757 0f59 A6030000 		.4byte	.LVL114
 4758 0f5d 3F0B0000 		.4byte	0xb3f
 4759 0f61 930F0000 		.4byte	0xf93
 4760 0f65 22       		.uleb128 0x22
 4761 0f66 01       		.uleb128 0x1
 4762 0f67 53       		.byte	0x53
 4763 0f68 02       		.uleb128 0x2
 4764 0f69 91       		.byte	0x91
 4765 0f6a 56       		.sleb128 -42
 4766 0f6b 22       		.uleb128 0x22
 4767 0f6c 01       		.uleb128 0x1
 4768 0f6d 52       		.byte	0x52
 4769 0f6e 02       		.uleb128 0x2
 4770 0f6f 76       		.byte	0x76
ARM GAS  /tmp/ccAMfTfz.s 			page 85


 4771 0f70 00       		.sleb128 0
 4772 0f71 22       		.uleb128 0x22
 4773 0f72 01       		.uleb128 0x1
 4774 0f73 51       		.byte	0x51
 4775 0f74 02       		.uleb128 0x2
 4776 0f75 74       		.byte	0x74
 4777 0f76 00       		.sleb128 0
 4778 0f77 22       		.uleb128 0x22
 4779 0f78 01       		.uleb128 0x1
 4780 0f79 50       		.byte	0x50
 4781 0f7a 01       		.uleb128 0x1
 4782 0f7b 33       		.byte	0x33
 4783 0f7c 22       		.uleb128 0x22
 4784 0f7d 02       		.uleb128 0x2
 4785 0f7e 7D       		.byte	0x7d
 4786 0f7f 08       		.sleb128 8
 4787 0f80 01       		.uleb128 0x1
 4788 0f81 31       		.byte	0x31
 4789 0f82 22       		.uleb128 0x22
 4790 0f83 02       		.uleb128 0x2
 4791 0f84 7D       		.byte	0x7d
 4792 0f85 04       		.sleb128 4
 4793 0f86 04       		.uleb128 0x4
 4794 0f87 91       		.byte	0x91
 4795 0f88 44       		.sleb128 -60
 4796 0f89 94       		.byte	0x94
 4797 0f8a 01       		.byte	0x1
 4798 0f8b 22       		.uleb128 0x22
 4799 0f8c 02       		.uleb128 0x2
 4800 0f8d 7D       		.byte	0x7d
 4801 0f8e 00       		.sleb128 0
 4802 0f8f 02       		.uleb128 0x2
 4803 0f90 78       		.byte	0x78
 4804 0f91 00       		.sleb128 0
 4805 0f92 00       		.byte	0
 4806 0f93 21       		.uleb128 0x21
 4807 0f94 B8030000 		.4byte	.LVL116
 4808 0f98 401C0000 		.4byte	0x1c40
 4809 0f9c B30F0000 		.4byte	0xfb3
 4810 0fa0 22       		.uleb128 0x22
 4811 0fa1 01       		.uleb128 0x1
 4812 0fa2 52       		.byte	0x52
 4813 0fa3 02       		.uleb128 0x2
 4814 0fa4 74       		.byte	0x74
 4815 0fa5 00       		.sleb128 0
 4816 0fa6 22       		.uleb128 0x22
 4817 0fa7 01       		.uleb128 0x1
 4818 0fa8 51       		.byte	0x51
 4819 0fa9 08       		.uleb128 0x8
 4820 0faa 91       		.byte	0x91
 4821 0fab B07F     		.sleb128 -80
 4822 0fad 06       		.byte	0x6
 4823 0fae 91       		.byte	0x91
 4824 0faf 40       		.sleb128 -64
 4825 0fb0 06       		.byte	0x6
 4826 0fb1 22       		.byte	0x22
 4827 0fb2 00       		.byte	0
ARM GAS  /tmp/ccAMfTfz.s 			page 86


 4828 0fb3 21       		.uleb128 0x21
 4829 0fb4 D8030000 		.4byte	.LVL122
 4830 0fb8 991B0000 		.4byte	0x1b99
 4831 0fbc D10F0000 		.4byte	0xfd1
 4832 0fc0 22       		.uleb128 0x22
 4833 0fc1 01       		.uleb128 0x1
 4834 0fc2 52       		.byte	0x52
 4835 0fc3 01       		.uleb128 0x1
 4836 0fc4 31       		.byte	0x31
 4837 0fc5 22       		.uleb128 0x22
 4838 0fc6 01       		.uleb128 0x1
 4839 0fc7 51       		.byte	0x51
 4840 0fc8 02       		.uleb128 0x2
 4841 0fc9 74       		.byte	0x74
 4842 0fca 00       		.sleb128 0
 4843 0fcb 22       		.uleb128 0x22
 4844 0fcc 01       		.uleb128 0x1
 4845 0fcd 50       		.byte	0x50
 4846 0fce 01       		.uleb128 0x1
 4847 0fcf 33       		.byte	0x33
 4848 0fd0 00       		.byte	0
 4849 0fd1 28       		.uleb128 0x28
 4850 0fd2 F0030000 		.4byte	.LVL125
 4851 0fd6 5D1C0000 		.4byte	0x1c5d
 4852 0fda 22       		.uleb128 0x22
 4853 0fdb 01       		.uleb128 0x1
 4854 0fdc 50       		.byte	0x50
 4855 0fdd 03       		.uleb128 0x3
 4856 0fde 91       		.byte	0x91
 4857 0fdf 48       		.sleb128 -56
 4858 0fe0 06       		.byte	0x6
 4859 0fe1 00       		.byte	0
 4860 0fe2 00       		.byte	0
 4861 0fe3 23       		.uleb128 0x23
 4862 0fe4 78030000 		.4byte	.LVL111
 4863 0fe8 B81B0000 		.4byte	0x1bb8
 4864 0fec 00       		.byte	0
 4865 0fed 36       		.uleb128 0x36
 4866 0fee 78000000 		.4byte	.Ldebug_ranges0+0x78
 4867 0ff2 9F110000 		.4byte	0x119f
 4868 0ff6 30       		.uleb128 0x30
 4869 0ff7 7000     		.ascii	"p\000"
 4870 0ff9 01       		.byte	0x1
 4871 0ffa 0B02     		.2byte	0x20b
 4872 0ffc 22020000 		.4byte	0x222
 4873 1000 870C0000 		.4byte	.LLST37
 4874 1004 2F       		.uleb128 0x2f
 4875 1005 1A070000 		.4byte	.LASF201
 4876 1009 01       		.byte	0x1
 4877 100a 0C02     		.2byte	0x20c
 4878 100c 1C010000 		.4byte	0x11c
 4879 1010 080D0000 		.4byte	.LLST38
 4880 1014 2F       		.uleb128 0x2f
 4881 1015 5E050000 		.4byte	.LASF202
 4882 1019 01       		.byte	0x1
 4883 101a 0D02     		.2byte	0x20d
 4884 101c 1C010000 		.4byte	0x11c
ARM GAS  /tmp/ccAMfTfz.s 			page 87


 4885 1020 700D0000 		.4byte	.LLST39
 4886 1024 2F       		.uleb128 0x2f
 4887 1025 E3090000 		.4byte	.LASF200
 4888 1029 01       		.byte	0x1
 4889 102a 0E02     		.2byte	0x20e
 4890 102c 1C010000 		.4byte	0x11c
 4891 1030 B90D0000 		.4byte	.LLST40
 4892 1034 36       		.uleb128 0x36
 4893 1035 C0000000 		.4byte	.Ldebug_ranges0+0xc0
 4894 1039 BB100000 		.4byte	0x10bb
 4895 103d 30       		.uleb128 0x30
 4896 103e 703200   		.ascii	"p2\000"
 4897 1041 01       		.byte	0x1
 4898 1042 2402     		.2byte	0x224
 4899 1044 22020000 		.4byte	0x222
 4900 1048 030E0000 		.4byte	.LLST41
 4901 104c 21       		.uleb128 0x21
 4902 104d 08010000 		.4byte	.LVL57
 4903 1051 991B0000 		.4byte	0x1b99
 4904 1055 6A100000 		.4byte	0x106a
 4905 1059 22       		.uleb128 0x22
 4906 105a 01       		.uleb128 0x1
 4907 105b 52       		.byte	0x52
 4908 105c 01       		.uleb128 0x1
 4909 105d 31       		.byte	0x31
 4910 105e 22       		.uleb128 0x22
 4911 105f 01       		.uleb128 0x1
 4912 1060 51       		.byte	0x51
 4913 1061 02       		.uleb128 0x2
 4914 1062 76       		.byte	0x76
 4915 1063 00       		.sleb128 0
 4916 1064 22       		.uleb128 0x22
 4917 1065 01       		.uleb128 0x1
 4918 1066 50       		.byte	0x50
 4919 1067 01       		.uleb128 0x1
 4920 1068 30       		.byte	0x30
 4921 1069 00       		.byte	0
 4922 106a 21       		.uleb128 0x21
 4923 106b 22010000 		.4byte	.LVL59
 4924 106f 991B0000 		.4byte	0x1b99
 4925 1073 87100000 		.4byte	0x1087
 4926 1077 22       		.uleb128 0x22
 4927 1078 01       		.uleb128 0x1
 4928 1079 52       		.byte	0x52
 4929 107a 01       		.uleb128 0x1
 4930 107b 30       		.byte	0x30
 4931 107c 22       		.uleb128 0x22
 4932 107d 01       		.uleb128 0x1
 4933 107e 51       		.byte	0x51
 4934 107f 01       		.uleb128 0x1
 4935 1080 30       		.byte	0x30
 4936 1081 22       		.uleb128 0x22
 4937 1082 01       		.uleb128 0x1
 4938 1083 50       		.byte	0x50
 4939 1084 01       		.uleb128 0x1
 4940 1085 30       		.byte	0x30
 4941 1086 00       		.byte	0
ARM GAS  /tmp/ccAMfTfz.s 			page 88


 4942 1087 21       		.uleb128 0x21
 4943 1088 30010000 		.4byte	.LVL60
 4944 108c 721C0000 		.4byte	0x1c72
 4945 1090 A1100000 		.4byte	0x10a1
 4946 1094 22       		.uleb128 0x22
 4947 1095 01       		.uleb128 0x1
 4948 1096 51       		.byte	0x51
 4949 1097 02       		.uleb128 0x2
 4950 1098 7B       		.byte	0x7b
 4951 1099 00       		.sleb128 0
 4952 109a 22       		.uleb128 0x22
 4953 109b 01       		.uleb128 0x1
 4954 109c 50       		.byte	0x50
 4955 109d 02       		.uleb128 0x2
 4956 109e 75       		.byte	0x75
 4957 109f 00       		.sleb128 0
 4958 10a0 00       		.byte	0
 4959 10a1 23       		.uleb128 0x23
 4960 10a2 18020000 		.4byte	.LVL82
 4961 10a6 B81B0000 		.4byte	0x1bb8
 4962 10aa 28       		.uleb128 0x28
 4963 10ab EE020000 		.4byte	.LVL100
 4964 10af 2B1C0000 		.4byte	0x1c2b
 4965 10b3 22       		.uleb128 0x22
 4966 10b4 01       		.uleb128 0x1
 4967 10b5 50       		.byte	0x50
 4968 10b6 02       		.uleb128 0x2
 4969 10b7 7B       		.byte	0x7b
 4970 10b8 00       		.sleb128 0
 4971 10b9 00       		.byte	0
 4972 10ba 00       		.byte	0
 4973 10bb 21       		.uleb128 0x21
 4974 10bc 36010000 		.4byte	.LVL61
 4975 10c0 5D1C0000 		.4byte	0x1c5d
 4976 10c4 CF100000 		.4byte	0x10cf
 4977 10c8 22       		.uleb128 0x22
 4978 10c9 01       		.uleb128 0x1
 4979 10ca 50       		.byte	0x50
 4980 10cb 02       		.uleb128 0x2
 4981 10cc 75       		.byte	0x75
 4982 10cd 00       		.sleb128 0
 4983 10ce 00       		.byte	0
 4984 10cf 21       		.uleb128 0x21
 4985 10d0 58010000 		.4byte	.LVL64
 4986 10d4 000C0000 		.4byte	0xc00
 4987 10d8 06110000 		.4byte	0x1106
 4988 10dc 22       		.uleb128 0x22
 4989 10dd 01       		.uleb128 0x1
 4990 10de 53       		.byte	0x53
 4991 10df 01       		.uleb128 0x1
 4992 10e0 30       		.byte	0x30
 4993 10e1 22       		.uleb128 0x22
 4994 10e2 01       		.uleb128 0x1
 4995 10e3 52       		.byte	0x52
 4996 10e4 02       		.uleb128 0x2
 4997 10e5 75       		.byte	0x75
 4998 10e6 00       		.sleb128 0
ARM GAS  /tmp/ccAMfTfz.s 			page 89


 4999 10e7 22       		.uleb128 0x22
 5000 10e8 01       		.uleb128 0x1
 5001 10e9 51       		.byte	0x51
 5002 10ea 04       		.uleb128 0x4
 5003 10eb 91       		.byte	0x91
 5004 10ec BC7F     		.sleb128 -68
 5005 10ee 06       		.byte	0x6
 5006 10ef 22       		.uleb128 0x22
 5007 10f0 01       		.uleb128 0x1
 5008 10f1 50       		.byte	0x50
 5009 10f2 04       		.uleb128 0x4
 5010 10f3 91       		.byte	0x91
 5011 10f4 B87F     		.sleb128 -72
 5012 10f6 06       		.byte	0x6
 5013 10f7 22       		.uleb128 0x22
 5014 10f8 02       		.uleb128 0x2
 5015 10f9 7D       		.byte	0x7d
 5016 10fa 04       		.sleb128 4
 5017 10fb 01       		.uleb128 0x1
 5018 10fc 30       		.byte	0x30
 5019 10fd 37       		.uleb128 0x37
 5020 10fe A20A0000 		.4byte	0xaa2
 5021 1102 02       		.uleb128 0x2
 5022 1103 78       		.byte	0x78
 5023 1104 00       		.sleb128 0
 5024 1105 00       		.byte	0
 5025 1106 21       		.uleb128 0x21
 5026 1107 B0010000 		.4byte	.LVL71
 5027 110b 3F0B0000 		.4byte	0xb3f
 5028 110f 5D110000 		.4byte	0x115d
 5029 1113 22       		.uleb128 0x22
 5030 1114 01       		.uleb128 0x1
 5031 1115 53       		.byte	0x53
 5032 1116 02       		.uleb128 0x2
 5033 1117 91       		.byte	0x91
 5034 1118 56       		.sleb128 -42
 5035 1119 22       		.uleb128 0x22
 5036 111a 01       		.uleb128 0x1
 5037 111b 52       		.byte	0x52
 5038 111c 05       		.uleb128 0x5
 5039 111d 91       		.byte	0x91
 5040 111e AC7F     		.sleb128 -84
 5041 1120 94       		.byte	0x94
 5042 1121 02       		.byte	0x2
 5043 1122 22       		.uleb128 0x22
 5044 1123 01       		.uleb128 0x1
 5045 1124 51       		.byte	0x51
 5046 1125 02       		.uleb128 0x2
 5047 1126 76       		.byte	0x76
 5048 1127 00       		.sleb128 0
 5049 1128 22       		.uleb128 0x22
 5050 1129 01       		.uleb128 0x1
 5051 112a 50       		.byte	0x50
 5052 112b 01       		.uleb128 0x1
 5053 112c 30       		.byte	0x30
 5054 112d 22       		.uleb128 0x22
 5055 112e 02       		.uleb128 0x2
ARM GAS  /tmp/ccAMfTfz.s 			page 90


 5056 112f 7D       		.byte	0x7d
 5057 1130 08       		.sleb128 8
 5058 1131 1A       		.uleb128 0x1a
 5059 1132 30       		.byte	0x30
 5060 1133 31       		.byte	0x31
 5061 1134 91       		.byte	0x91
 5062 1135 A87F     		.sleb128 -88
 5063 1137 06       		.byte	0x6
 5064 1138 1C       		.byte	0x1c
 5065 1139 31       		.byte	0x31
 5066 113a 40       		.byte	0x40
 5067 113b 4B       		.byte	0x4b
 5068 113c 24       		.byte	0x24
 5069 113d 22       		.byte	0x22
 5070 113e 91       		.byte	0x91
 5071 113f A87F     		.sleb128 -88
 5072 1141 06       		.byte	0x6
 5073 1142 40       		.byte	0x40
 5074 1143 4B       		.byte	0x4b
 5075 1144 24       		.byte	0x24
 5076 1145 22       		.byte	0x22
 5077 1146 2D       		.byte	0x2d
 5078 1147 28       		.byte	0x28
 5079 1148 0100     		.2byte	0x1
 5080 114a 16       		.byte	0x16
 5081 114b 13       		.byte	0x13
 5082 114c 22       		.uleb128 0x22
 5083 114d 02       		.uleb128 0x2
 5084 114e 7D       		.byte	0x7d
 5085 114f 04       		.sleb128 4
 5086 1150 04       		.uleb128 0x4
 5087 1151 91       		.byte	0x91
 5088 1152 44       		.sleb128 -60
 5089 1153 94       		.byte	0x94
 5090 1154 01       		.byte	0x1
 5091 1155 22       		.uleb128 0x22
 5092 1156 02       		.uleb128 0x2
 5093 1157 7D       		.byte	0x7d
 5094 1158 00       		.sleb128 0
 5095 1159 02       		.uleb128 0x2
 5096 115a 78       		.byte	0x78
 5097 115b 00       		.sleb128 0
 5098 115c 00       		.byte	0
 5099 115d 21       		.uleb128 0x21
 5100 115e CC010000 		.4byte	.LVL73
 5101 1162 401C0000 		.4byte	0x1c40
 5102 1166 7C110000 		.4byte	0x117c
 5103 116a 22       		.uleb128 0x22
 5104 116b 01       		.uleb128 0x1
 5105 116c 52       		.byte	0x52
 5106 116d 02       		.uleb128 0x2
 5107 116e 76       		.byte	0x76
 5108 116f 00       		.sleb128 0
 5109 1170 22       		.uleb128 0x22
 5110 1171 01       		.uleb128 0x1
 5111 1172 51       		.byte	0x51
 5112 1173 07       		.uleb128 0x7
ARM GAS  /tmp/ccAMfTfz.s 			page 91


 5113 1174 91       		.byte	0x91
 5114 1175 B07F     		.sleb128 -80
 5115 1177 06       		.byte	0x6
 5116 1178 74       		.byte	0x74
 5117 1179 00       		.sleb128 0
 5118 117a 22       		.byte	0x22
 5119 117b 00       		.byte	0
 5120 117c 23       		.uleb128 0x23
 5121 117d E6020000 		.4byte	.LVL97
 5122 1181 B81B0000 		.4byte	0x1bb8
 5123 1185 23       		.uleb128 0x23
 5124 1186 4C030000 		.4byte	.LVL105
 5125 118a B81B0000 		.4byte	0x1bb8
 5126 118e 28       		.uleb128 0x28
 5127 118f CC030000 		.4byte	.LVL120
 5128 1193 2B1C0000 		.4byte	0x1c2b
 5129 1197 22       		.uleb128 0x22
 5130 1198 01       		.uleb128 0x1
 5131 1199 50       		.byte	0x50
 5132 119a 02       		.uleb128 0x2
 5133 119b 75       		.byte	0x75
 5134 119c 00       		.sleb128 0
 5135 119d 00       		.byte	0
 5136 119e 00       		.byte	0
 5137 119f 36       		.uleb128 0x36
 5138 11a0 E0000000 		.4byte	.Ldebug_ranges0+0xe0
 5139 11a4 CF110000 		.4byte	0x11cf
 5140 11a8 30       		.uleb128 0x30
 5141 11a9 7000     		.ascii	"p\000"
 5142 11ab 01       		.byte	0x1
 5143 11ac 7302     		.2byte	0x273
 5144 11ae 22020000 		.4byte	0x222
 5145 11b2 2C0E0000 		.4byte	.LLST42
 5146 11b6 28       		.uleb128 0x28
 5147 11b7 54020000 		.4byte	.LVL91
 5148 11bb 401C0000 		.4byte	0x1c40
 5149 11bf 22       		.uleb128 0x22
 5150 11c0 01       		.uleb128 0x1
 5151 11c1 52       		.byte	0x52
 5152 11c2 02       		.uleb128 0x2
 5153 11c3 76       		.byte	0x76
 5154 11c4 00       		.sleb128 0
 5155 11c5 22       		.uleb128 0x22
 5156 11c6 01       		.uleb128 0x1
 5157 11c7 51       		.byte	0x51
 5158 11c8 04       		.uleb128 0x4
 5159 11c9 91       		.byte	0x91
 5160 11ca B07F     		.sleb128 -80
 5161 11cc 06       		.byte	0x6
 5162 11cd 00       		.byte	0
 5163 11ce 00       		.byte	0
 5164 11cf 21       		.uleb128 0x21
 5165 11d0 8E020000 		.4byte	.LVL94
 5166 11d4 721C0000 		.4byte	0x1c72
 5167 11d8 E4110000 		.4byte	0x11e4
 5168 11dc 22       		.uleb128 0x22
 5169 11dd 01       		.uleb128 0x1
ARM GAS  /tmp/ccAMfTfz.s 			page 92


 5170 11de 51       		.byte	0x51
 5171 11df 03       		.uleb128 0x3
 5172 11e0 91       		.byte	0x91
 5173 11e1 48       		.sleb128 -56
 5174 11e2 06       		.byte	0x6
 5175 11e3 00       		.byte	0
 5176 11e4 21       		.uleb128 0x21
 5177 11e5 16030000 		.4byte	.LVL101
 5178 11e9 2B1C0000 		.4byte	0x1c2b
 5179 11ed F9110000 		.4byte	0x11f9
 5180 11f1 22       		.uleb128 0x22
 5181 11f2 01       		.uleb128 0x1
 5182 11f3 50       		.byte	0x50
 5183 11f4 03       		.uleb128 0x3
 5184 11f5 91       		.byte	0x91
 5185 11f6 48       		.sleb128 -56
 5186 11f7 06       		.byte	0x6
 5187 11f8 00       		.byte	0
 5188 11f9 21       		.uleb128 0x21
 5189 11fa 20030000 		.4byte	.LVL102
 5190 11fe 881C0000 		.4byte	0x1c88
 5191 1202 0F120000 		.4byte	0x120f
 5192 1206 22       		.uleb128 0x22
 5193 1207 01       		.uleb128 0x1
 5194 1208 50       		.byte	0x50
 5195 1209 04       		.uleb128 0x4
 5196 120a 91       		.byte	0x91
 5197 120b A87F     		.sleb128 -88
 5198 120d 06       		.byte	0x6
 5199 120e 00       		.byte	0
 5200 120f 23       		.uleb128 0x23
 5201 1210 36040000 		.4byte	.LVL131
 5202 1214 B81B0000 		.4byte	0x1bb8
 5203 1218 21       		.uleb128 0x21
 5204 1219 40040000 		.4byte	.LVL132
 5205 121d EF1B0000 		.4byte	0x1bef
 5206 1221 2B120000 		.4byte	0x122b
 5207 1225 22       		.uleb128 0x22
 5208 1226 01       		.uleb128 0x1
 5209 1227 50       		.byte	0x50
 5210 1228 01       		.uleb128 0x1
 5211 1229 38       		.byte	0x38
 5212 122a 00       		.byte	0
 5213 122b 23       		.uleb128 0x23
 5214 122c 50040000 		.4byte	.LVL134
 5215 1230 B81B0000 		.4byte	0x1bb8
 5216 1234 23       		.uleb128 0x23
 5217 1235 5E040000 		.4byte	.LVL136
 5218 1239 B81B0000 		.4byte	0x1bb8
 5219 123d 23       		.uleb128 0x23
 5220 123e AE040000 		.4byte	.LVL142
 5221 1242 B81B0000 		.4byte	0x1bb8
 5222 1246 23       		.uleb128 0x23
 5223 1247 B4040000 		.4byte	.LVL144
 5224 124b B81B0000 		.4byte	0x1bb8
 5225 124f 00       		.byte	0
 5226 1250 0B       		.uleb128 0xb
ARM GAS  /tmp/ccAMfTfz.s 			page 93


 5227 1251 04       		.byte	0x4
 5228 1252 56120000 		.4byte	0x1256
 5229 1256 38       		.uleb128 0x38
 5230 1257 2C       		.uleb128 0x2c
 5231 1258 13020000 		.4byte	.LASF204
 5232 125c 01       		.byte	0x1
 5233 125d D202     		.2byte	0x2d2
 5234 125f 5E010000 		.4byte	0x15e
 5235 1263 00000000 		.4byte	.LFB13
 5236 1267 54010000 		.4byte	.LFE13-.LFB13
 5237 126b 01       		.uleb128 0x1
 5238 126c 9C       		.byte	0x9c
 5239 126d 74130000 		.4byte	0x1374
 5240 1271 2D       		.uleb128 0x2d
 5241 1272 70636200 		.ascii	"pcb\000"
 5242 1276 01       		.byte	0x1
 5243 1277 D202     		.2byte	0x2d2
 5244 1279 CA030000 		.4byte	0x3ca
 5245 127d 550E0000 		.4byte	.LLST43
 5246 1281 2E       		.uleb128 0x2e
 5247 1282 C4030000 		.4byte	.LASF47
 5248 1286 01       		.byte	0x1
 5249 1287 D202     		.2byte	0x2d2
 5250 1289 06010000 		.4byte	0x106
 5251 128d 890E0000 		.4byte	.LLST44
 5252 1291 30       		.uleb128 0x30
 5253 1292 7000     		.ascii	"p\000"
 5254 1294 01       		.byte	0x1
 5255 1295 D402     		.2byte	0x2d4
 5256 1297 22020000 		.4byte	0x222
 5257 129b C30E0000 		.4byte	.LLST45
 5258 129f 30       		.uleb128 0x30
 5259 12a0 73656700 		.ascii	"seg\000"
 5260 12a4 01       		.byte	0x1
 5261 12a5 D502     		.2byte	0x2d5
 5262 12a7 C8070000 		.4byte	0x7c8
 5263 12ab 0D0F0000 		.4byte	.LLST46
 5264 12af 31       		.uleb128 0x31
 5265 12b0 44050000 		.4byte	.LASF177
 5266 12b4 01       		.byte	0x1
 5267 12b5 D602     		.2byte	0x2d6
 5268 12b7 06010000 		.4byte	0x106
 5269 12bb 00       		.byte	0
 5270 12bc 2F       		.uleb128 0x2f
 5271 12bd A3010000 		.4byte	.LASF178
 5272 12c1 01       		.byte	0x1
 5273 12c2 D702     		.2byte	0x2d7
 5274 12c4 06010000 		.4byte	0x106
 5275 12c8 570F0000 		.4byte	.LLST47
 5276 12cc 39       		.uleb128 0x39
 5277 12cd 74000000 		.4byte	.LBB40
 5278 12d1 0A000000 		.4byte	.LBE40-.LBB40
 5279 12d5 EA120000 		.4byte	0x12ea
 5280 12d9 2F       		.uleb128 0x2f
 5281 12da 1D0A0000 		.4byte	.LASF205
 5282 12de 01       		.byte	0x1
 5283 12df 1703     		.2byte	0x317
ARM GAS  /tmp/ccAMfTfz.s 			page 94


 5284 12e1 C8070000 		.4byte	0x7c8
 5285 12e5 B00F0000 		.4byte	.LLST48
 5286 12e9 00       		.byte	0
 5287 12ea 21       		.uleb128 0x21
 5288 12eb 38000000 		.4byte	.LVL148
 5289 12ef 991B0000 		.4byte	0x1b99
 5290 12f3 08130000 		.4byte	0x1308
 5291 12f7 22       		.uleb128 0x22
 5292 12f8 01       		.uleb128 0x1
 5293 12f9 52       		.byte	0x52
 5294 12fa 01       		.uleb128 0x1
 5295 12fb 30       		.byte	0x30
 5296 12fc 22       		.uleb128 0x22
 5297 12fd 01       		.uleb128 0x1
 5298 12fe 51       		.byte	0x51
 5299 12ff 02       		.uleb128 0x2
 5300 1300 77       		.byte	0x77
 5301 1301 00       		.sleb128 0
 5302 1302 22       		.uleb128 0x22
 5303 1303 01       		.uleb128 0x1
 5304 1304 50       		.byte	0x50
 5305 1305 01       		.uleb128 0x1
 5306 1306 30       		.byte	0x30
 5307 1307 00       		.byte	0
 5308 1308 21       		.uleb128 0x21
 5309 1309 5C000000 		.4byte	.LVL150
 5310 130d 000C0000 		.4byte	0xc00
 5311 1311 3D130000 		.4byte	0x133d
 5312 1315 22       		.uleb128 0x22
 5313 1316 01       		.uleb128 0x1
 5314 1317 53       		.byte	0x53
 5315 1318 02       		.uleb128 0x2
 5316 1319 76       		.byte	0x76
 5317 131a 00       		.sleb128 0
 5318 131b 22       		.uleb128 0x22
 5319 131c 01       		.uleb128 0x1
 5320 131d 52       		.byte	0x52
 5321 131e 02       		.uleb128 0x2
 5322 131f 74       		.byte	0x74
 5323 1320 00       		.sleb128 0
 5324 1321 22       		.uleb128 0x22
 5325 1322 01       		.uleb128 0x1
 5326 1323 51       		.byte	0x51
 5327 1324 02       		.uleb128 0x2
 5328 1325 75       		.byte	0x75
 5329 1326 1C       		.sleb128 28
 5330 1327 22       		.uleb128 0x22
 5331 1328 01       		.uleb128 0x1
 5332 1329 50       		.byte	0x50
 5333 132a 02       		.uleb128 0x2
 5334 132b 75       		.byte	0x75
 5335 132c 1A       		.sleb128 26
 5336 132d 22       		.uleb128 0x22
 5337 132e 02       		.uleb128 0x2
 5338 132f 7D       		.byte	0x7d
 5339 1330 04       		.sleb128 4
 5340 1331 02       		.uleb128 0x2
ARM GAS  /tmp/ccAMfTfz.s 			page 95


 5341 1332 79       		.byte	0x79
 5342 1333 00       		.sleb128 0
 5343 1334 37       		.uleb128 0x37
 5344 1335 A20A0000 		.4byte	0xaa2
 5345 1339 02       		.uleb128 0x2
 5346 133a 75       		.byte	0x75
 5347 133b 00       		.sleb128 0
 5348 133c 00       		.byte	0
 5349 133d 23       		.uleb128 0x23
 5350 133e A2000000 		.4byte	.LVL157
 5351 1342 5D1C0000 		.4byte	0x1c5d
 5352 1346 23       		.uleb128 0x23
 5353 1347 D8000000 		.4byte	.LVL162
 5354 134b B81B0000 		.4byte	0x1bb8
 5355 134f 23       		.uleb128 0x23
 5356 1350 DE000000 		.4byte	.LVL164
 5357 1354 B81B0000 		.4byte	0x1bb8
 5358 1358 23       		.uleb128 0x23
 5359 1359 E4000000 		.4byte	.LVL166
 5360 135d B81B0000 		.4byte	0x1bb8
 5361 1361 23       		.uleb128 0x23
 5362 1362 F2000000 		.4byte	.LVL169
 5363 1366 B81B0000 		.4byte	0x1bb8
 5364 136a 23       		.uleb128 0x23
 5365 136b FE000000 		.4byte	.LVL171
 5366 136f B81B0000 		.4byte	0x1bb8
 5367 1373 00       		.byte	0
 5368 1374 3A       		.uleb128 0x3a
 5369 1375 CD050000 		.4byte	.LASF206
 5370 1379 01       		.byte	0x1
 5371 137a 7D       		.byte	0x7d
 5372 137b 5E010000 		.4byte	0x15e
 5373 137f 00000000 		.4byte	.LFB8
 5374 1383 46000000 		.4byte	.LFE8-.LFB8
 5375 1387 01       		.uleb128 0x1
 5376 1388 9C       		.byte	0x9c
 5377 1389 E4130000 		.4byte	0x13e4
 5378 138d 1E       		.uleb128 0x1e
 5379 138e 70636200 		.ascii	"pcb\000"
 5380 1392 01       		.byte	0x1
 5381 1393 7D       		.byte	0x7d
 5382 1394 CA030000 		.4byte	0x3ca
 5383 1398 C30F0000 		.4byte	.LLST49
 5384 139c 36       		.uleb128 0x36
 5385 139d F8000000 		.4byte	.Ldebug_ranges0+0xf8
 5386 13a1 CD130000 		.4byte	0x13cd
 5387 13a5 20       		.uleb128 0x20
 5388 13a6 4B040000 		.4byte	.LASF192
 5389 13aa 01       		.byte	0x1
 5390 13ab 81       		.byte	0x81
 5391 13ac C8070000 		.4byte	0x7c8
 5392 13b0 05100000 		.4byte	.LLST50
 5393 13b4 23       		.uleb128 0x23
 5394 13b5 1A000000 		.4byte	.LVL179
 5395 13b9 9A1C0000 		.4byte	0x1c9a
 5396 13bd 28       		.uleb128 0x28
 5397 13be 36000000 		.4byte	.LVL184
ARM GAS  /tmp/ccAMfTfz.s 			page 96


 5398 13c2 EF1B0000 		.4byte	0x1bef
 5399 13c6 22       		.uleb128 0x22
 5400 13c7 01       		.uleb128 0x1
 5401 13c8 50       		.byte	0x50
 5402 13c9 01       		.uleb128 0x1
 5403 13ca 31       		.byte	0x31
 5404 13cb 00       		.byte	0
 5405 13cc 00       		.byte	0
 5406 13cd 3B       		.uleb128 0x3b
 5407 13ce 2C000000 		.4byte	.LVL182
 5408 13d2 57120000 		.4byte	0x1257
 5409 13d6 22       		.uleb128 0x22
 5410 13d7 01       		.uleb128 0x1
 5411 13d8 51       		.byte	0x51
 5412 13d9 01       		.uleb128 0x1
 5413 13da 31       		.byte	0x31
 5414 13db 22       		.uleb128 0x22
 5415 13dc 01       		.uleb128 0x1
 5416 13dd 50       		.byte	0x50
 5417 13de 03       		.uleb128 0x3
 5418 13df F3       		.byte	0xf3
 5419 13e0 01       		.uleb128 0x1
 5420 13e1 50       		.byte	0x50
 5421 13e2 00       		.byte	0
 5422 13e3 00       		.byte	0
 5423 13e4 2C       		.uleb128 0x2c
 5424 13e5 AB060000 		.4byte	.LASF207
 5425 13e9 01       		.byte	0x1
 5426 13ea 4A03     		.2byte	0x34a
 5427 13ec 5E010000 		.4byte	0x15e
 5428 13f0 00000000 		.4byte	.LFB14
 5429 13f4 5C000000 		.4byte	.LFE14-.LFB14
 5430 13f8 01       		.uleb128 0x1
 5431 13f9 9C       		.byte	0x9c
 5432 13fa B7140000 		.4byte	0x14b7
 5433 13fe 2D       		.uleb128 0x2d
 5434 13ff 70636200 		.ascii	"pcb\000"
 5435 1403 01       		.byte	0x1
 5436 1404 4A03     		.2byte	0x34a
 5437 1406 CA030000 		.4byte	0x3ca
 5438 140a 23100000 		.4byte	.LLST51
 5439 140e 30       		.uleb128 0x30
 5440 140f 7000     		.ascii	"p\000"
 5441 1411 01       		.byte	0x1
 5442 1412 4C03     		.2byte	0x34c
 5443 1414 22020000 		.4byte	0x222
 5444 1418 41100000 		.4byte	.LLST52
 5445 141c 2F       		.uleb128 0x2f
 5446 141d 8E080000 		.4byte	.LASF129
 5447 1421 01       		.byte	0x1
 5448 1422 4D03     		.2byte	0x34d
 5449 1424 3B080000 		.4byte	0x83b
 5450 1428 75100000 		.4byte	.LLST53
 5451 142c 31       		.uleb128 0x31
 5452 142d A3010000 		.4byte	.LASF178
 5453 1431 01       		.byte	0x1
 5454 1432 4E03     		.2byte	0x34e
ARM GAS  /tmp/ccAMfTfz.s 			page 97


 5455 1434 06010000 		.4byte	0x106
 5456 1438 00       		.byte	0
 5457 1439 23       		.uleb128 0x23
 5458 143a 0C000000 		.4byte	.LVL187
 5459 143e 041C0000 		.4byte	0x1c04
 5460 1442 21       		.uleb128 0x21
 5461 1443 16000000 		.4byte	.LVL188
 5462 1447 F00C0000 		.4byte	0xcf0
 5463 144b 5B140000 		.4byte	0x145b
 5464 144f 22       		.uleb128 0x22
 5465 1450 01       		.uleb128 0x1
 5466 1451 51       		.byte	0x51
 5467 1452 01       		.uleb128 0x1
 5468 1453 30       		.byte	0x30
 5469 1454 22       		.uleb128 0x22
 5470 1455 01       		.uleb128 0x1
 5471 1456 50       		.byte	0x50
 5472 1457 02       		.uleb128 0x2
 5473 1458 74       		.byte	0x74
 5474 1459 00       		.sleb128 0
 5475 145a 00       		.byte	0
 5476 145b 21       		.uleb128 0x21
 5477 145c 34000000 		.4byte	.LVL190
 5478 1460 AF1C0000 		.4byte	0x1caf
 5479 1464 80140000 		.4byte	0x1480
 5480 1468 22       		.uleb128 0x22
 5481 1469 01       		.uleb128 0x1
 5482 146a 53       		.byte	0x53
 5483 146b 01       		.uleb128 0x1
 5484 146c 36       		.byte	0x36
 5485 146d 22       		.uleb128 0x22
 5486 146e 01       		.uleb128 0x1
 5487 146f 52       		.byte	0x52
 5488 1470 02       		.uleb128 0x2
 5489 1471 76       		.byte	0x76
 5490 1472 00       		.sleb128 0
 5491 1473 22       		.uleb128 0x22
 5492 1474 01       		.uleb128 0x1
 5493 1475 51       		.byte	0x51
 5494 1476 02       		.uleb128 0x2
 5495 1477 74       		.byte	0x74
 5496 1478 00       		.sleb128 0
 5497 1479 22       		.uleb128 0x22
 5498 147a 01       		.uleb128 0x1
 5499 147b 50       		.byte	0x50
 5500 147c 02       		.uleb128 0x2
 5501 147d 75       		.byte	0x75
 5502 147e 00       		.sleb128 0
 5503 147f 00       		.byte	0
 5504 1480 21       		.uleb128 0x21
 5505 1481 4A000000 		.4byte	.LVL191
 5506 1485 D81C0000 		.4byte	0x1cd8
 5507 1489 A6140000 		.4byte	0x14a6
 5508 148d 22       		.uleb128 0x22
 5509 148e 01       		.uleb128 0x1
 5510 148f 52       		.byte	0x52
 5511 1490 02       		.uleb128 0x2
ARM GAS  /tmp/ccAMfTfz.s 			page 98


 5512 1491 76       		.byte	0x76
 5513 1492 00       		.sleb128 0
 5514 1493 22       		.uleb128 0x22
 5515 1494 01       		.uleb128 0x1
 5516 1495 51       		.byte	0x51
 5517 1496 02       		.uleb128 0x2
 5518 1497 74       		.byte	0x74
 5519 1498 00       		.sleb128 0
 5520 1499 22       		.uleb128 0x22
 5521 149a 01       		.uleb128 0x1
 5522 149b 50       		.byte	0x50
 5523 149c 02       		.uleb128 0x2
 5524 149d 75       		.byte	0x75
 5525 149e 00       		.sleb128 0
 5526 149f 22       		.uleb128 0x22
 5527 14a0 02       		.uleb128 0x2
 5528 14a1 7D       		.byte	0x7d
 5529 14a2 04       		.sleb128 4
 5530 14a3 01       		.uleb128 0x1
 5531 14a4 36       		.byte	0x36
 5532 14a5 00       		.byte	0
 5533 14a6 28       		.uleb128 0x28
 5534 14a7 50000000 		.4byte	.LVL192
 5535 14ab 2B1C0000 		.4byte	0x1c2b
 5536 14af 22       		.uleb128 0x22
 5537 14b0 01       		.uleb128 0x1
 5538 14b1 50       		.byte	0x50
 5539 14b2 02       		.uleb128 0x2
 5540 14b3 75       		.byte	0x75
 5541 14b4 00       		.sleb128 0
 5542 14b5 00       		.byte	0
 5543 14b6 00       		.byte	0
 5544 14b7 3C       		.uleb128 0x3c
 5545 14b8 86030000 		.4byte	.LASF244
 5546 14bc 01       		.byte	0x1
 5547 14bd 1904     		.2byte	0x419
 5548 14bf 01       		.byte	0x1
 5549 14c0 0F150000 		.4byte	0x150f
 5550 14c4 2B       		.uleb128 0x2b
 5551 14c5 73656700 		.ascii	"seg\000"
 5552 14c9 01       		.byte	0x1
 5553 14ca 1904     		.2byte	0x419
 5554 14cc C8070000 		.4byte	0x7c8
 5555 14d0 2B       		.uleb128 0x2b
 5556 14d1 70636200 		.ascii	"pcb\000"
 5557 14d5 01       		.byte	0x1
 5558 14d6 1904     		.2byte	0x419
 5559 14d8 CA030000 		.4byte	0x3ca
 5560 14dc 33       		.uleb128 0x33
 5561 14dd 6C656E00 		.ascii	"len\000"
 5562 14e1 01       		.byte	0x1
 5563 14e2 1B04     		.2byte	0x41b
 5564 14e4 1C010000 		.4byte	0x11c
 5565 14e8 3D       		.uleb128 0x3d
 5566 14e9 93090000 		.4byte	.LASF52
 5567 14ed 01       		.byte	0x1
 5568 14ee 1C04     		.2byte	0x41c
ARM GAS  /tmp/ccAMfTfz.s 			page 99


 5569 14f0 4C020000 		.4byte	0x24c
 5570 14f4 3D       		.uleb128 0x3d
 5571 14f5 BE060000 		.4byte	.LASF208
 5572 14f9 01       		.byte	0x1
 5573 14fa 1D04     		.2byte	0x41d
 5574 14fc 0F150000 		.4byte	0x150f
 5575 1500 3E       		.uleb128 0x3e
 5576 1501 33       		.uleb128 0x33
 5577 1502 6D737300 		.ascii	"mss\000"
 5578 1506 01       		.byte	0x1
 5579 1507 2F04     		.2byte	0x42f
 5580 1509 1C010000 		.4byte	0x11c
 5581 150d 00       		.byte	0
 5582 150e 00       		.byte	0
 5583 150f 0B       		.uleb128 0xb
 5584 1510 04       		.byte	0x4
 5585 1511 32010000 		.4byte	0x132
 5586 1515 2C       		.uleb128 0x2c
 5587 1516 F3030000 		.4byte	.LASF209
 5588 151a 01       		.byte	0x1
 5589 151b 8203     		.2byte	0x382
 5590 151d 5E010000 		.4byte	0x15e
 5591 1521 00000000 		.4byte	.LFB15
 5592 1525 EE020000 		.4byte	.LFE15-.LFB15
 5593 1529 01       		.uleb128 0x1
 5594 152a 9C       		.byte	0x9c
 5595 152b 33170000 		.4byte	0x1733
 5596 152f 2D       		.uleb128 0x2d
 5597 1530 70636200 		.ascii	"pcb\000"
 5598 1534 01       		.byte	0x1
 5599 1535 8203     		.2byte	0x382
 5600 1537 CA030000 		.4byte	0x3ca
 5601 153b 88100000 		.4byte	.LLST54
 5602 153f 30       		.uleb128 0x30
 5603 1540 73656700 		.ascii	"seg\000"
 5604 1544 01       		.byte	0x1
 5605 1545 8403     		.2byte	0x384
 5606 1547 C8070000 		.4byte	0x7c8
 5607 154b E0100000 		.4byte	.LLST55
 5608 154f 2F       		.uleb128 0x2f
 5609 1550 1D0A0000 		.4byte	.LASF205
 5610 1554 01       		.byte	0x1
 5611 1555 8403     		.2byte	0x384
 5612 1557 C8070000 		.4byte	0x7c8
 5613 155b 09110000 		.4byte	.LLST56
 5614 155f 30       		.uleb128 0x30
 5615 1560 776E6400 		.ascii	"wnd\000"
 5616 1564 01       		.byte	0x1
 5617 1565 8503     		.2byte	0x385
 5618 1567 32010000 		.4byte	0x132
 5619 156b 6B110000 		.4byte	.LLST57
 5620 156f 2F       		.uleb128 0x2f
 5621 1570 12070000 		.4byte	.LASF89
 5622 1574 01       		.byte	0x1
 5623 1575 8503     		.2byte	0x385
 5624 1577 32010000 		.4byte	0x132
 5625 157b B9110000 		.4byte	.LLST58
ARM GAS  /tmp/ccAMfTfz.s 			page 100


 5626 157f 35       		.uleb128 0x35
 5627 1580 B7140000 		.4byte	0x14b7
 5628 1584 50000000 		.4byte	.LBB47
 5629 1588 10010000 		.4byte	.Ldebug_ranges0+0x110
 5630 158c 01       		.byte	0x1
 5631 158d E103     		.2byte	0x3e1
 5632 158f 6C160000 		.4byte	0x166c
 5633 1593 25       		.uleb128 0x25
 5634 1594 D0140000 		.4byte	0x14d0
 5635 1598 DF110000 		.4byte	.LLST59
 5636 159c 25       		.uleb128 0x25
 5637 159d C4140000 		.4byte	0x14c4
 5638 15a1 08120000 		.4byte	.LLST60
 5639 15a5 3F       		.uleb128 0x3f
 5640 15a6 10010000 		.4byte	.Ldebug_ranges0+0x110
 5641 15aa 27       		.uleb128 0x27
 5642 15ab DC140000 		.4byte	0x14dc
 5643 15af 3E120000 		.4byte	.LLST61
 5644 15b3 27       		.uleb128 0x27
 5645 15b4 E8140000 		.4byte	0x14e8
 5646 15b8 51120000 		.4byte	.LLST62
 5647 15bc 27       		.uleb128 0x27
 5648 15bd F4140000 		.4byte	0x14f4
 5649 15c1 64120000 		.4byte	.LLST63
 5650 15c5 36       		.uleb128 0x36
 5651 15c6 30010000 		.4byte	.Ldebug_ranges0+0x130
 5652 15ca FC150000 		.4byte	0x15fc
 5653 15ce 27       		.uleb128 0x27
 5654 15cf 01150000 		.4byte	0x1501
 5655 15d3 93120000 		.4byte	.LLST64
 5656 15d7 21       		.uleb128 0x21
 5657 15d8 02020000 		.4byte	.LVL230
 5658 15dc 061D0000 		.4byte	0x1d06
 5659 15e0 F2150000 		.4byte	0x15f2
 5660 15e4 22       		.uleb128 0x22
 5661 15e5 01       		.uleb128 0x1
 5662 15e6 51       		.byte	0x51
 5663 15e7 02       		.uleb128 0x2
 5664 15e8 78       		.byte	0x78
 5665 15e9 00       		.sleb128 0
 5666 15ea 22       		.uleb128 0x22
 5667 15eb 01       		.uleb128 0x1
 5668 15ec 50       		.byte	0x50
 5669 15ed 03       		.uleb128 0x3
 5670 15ee 0A       		.byte	0xa
 5671 15ef 1802     		.2byte	0x218
 5672 15f1 00       		.byte	0
 5673 15f2 23       		.uleb128 0x23
 5674 15f3 0A020000 		.4byte	.LVL232
 5675 15f7 041C0000 		.4byte	0x1c04
 5676 15fb 00       		.byte	0
 5677 15fc 23       		.uleb128 0x23
 5678 15fd B8000000 		.4byte	.LVL204
 5679 1601 041C0000 		.4byte	0x1c04
 5680 1605 23       		.uleb128 0x23
 5681 1606 C6000000 		.4byte	.LVL205
 5682 160a EF1B0000 		.4byte	0x1bef
ARM GAS  /tmp/ccAMfTfz.s 			page 101


 5683 160e 21       		.uleb128 0x21
 5684 160f F2000000 		.4byte	.LVL208
 5685 1613 211D0000 		.4byte	0x1d21
 5686 1617 22160000 		.4byte	0x1622
 5687 161b 22       		.uleb128 0x22
 5688 161c 01       		.uleb128 0x1
 5689 161d 50       		.byte	0x50
 5690 161e 02       		.uleb128 0x2
 5691 161f 78       		.byte	0x78
 5692 1620 00       		.sleb128 0
 5693 1621 00       		.byte	0
 5694 1622 21       		.uleb128 0x21
 5695 1623 36010000 		.4byte	.LVL212
 5696 1627 AF1C0000 		.4byte	0x1caf
 5697 162b 41160000 		.4byte	0x1641
 5698 162f 22       		.uleb128 0x22
 5699 1630 01       		.uleb128 0x1
 5700 1631 53       		.byte	0x53
 5701 1632 01       		.uleb128 0x1
 5702 1633 36       		.byte	0x36
 5703 1634 22       		.uleb128 0x22
 5704 1635 01       		.uleb128 0x1
 5705 1636 52       		.byte	0x52
 5706 1637 02       		.uleb128 0x2
 5707 1638 78       		.byte	0x78
 5708 1639 00       		.sleb128 0
 5709 163a 22       		.uleb128 0x22
 5710 163b 01       		.uleb128 0x1
 5711 163c 51       		.byte	0x51
 5712 163d 02       		.uleb128 0x2
 5713 163e 74       		.byte	0x74
 5714 163f 00       		.sleb128 0
 5715 1640 00       		.byte	0
 5716 1641 21       		.uleb128 0x21
 5717 1642 58010000 		.4byte	.LVL213
 5718 1646 D81C0000 		.4byte	0x1cd8
 5719 164a 61160000 		.4byte	0x1661
 5720 164e 22       		.uleb128 0x22
 5721 164f 01       		.uleb128 0x1
 5722 1650 52       		.byte	0x52
 5723 1651 02       		.uleb128 0x2
 5724 1652 78       		.byte	0x78
 5725 1653 00       		.sleb128 0
 5726 1654 22       		.uleb128 0x22
 5727 1655 01       		.uleb128 0x1
 5728 1656 51       		.byte	0x51
 5729 1657 02       		.uleb128 0x2
 5730 1658 74       		.byte	0x74
 5731 1659 00       		.sleb128 0
 5732 165a 22       		.uleb128 0x22
 5733 165b 02       		.uleb128 0x2
 5734 165c 7D       		.byte	0x7d
 5735 165d 04       		.sleb128 4
 5736 165e 01       		.uleb128 0x1
 5737 165f 36       		.byte	0x36
 5738 1660 00       		.byte	0
 5739 1661 23       		.uleb128 0x23
ARM GAS  /tmp/ccAMfTfz.s 			page 102


 5740 1662 1E020000 		.4byte	.LVL235
 5741 1666 361D0000 		.4byte	0x1d36
 5742 166a 00       		.byte	0
 5743 166b 00       		.byte	0
 5744 166c 39       		.uleb128 0x39
 5745 166d 42020000 		.4byte	.LBB55
 5746 1671 38000000 		.4byte	.LBE55-.LBB55
 5747 1675 9C160000 		.4byte	0x169c
 5748 1679 2F       		.uleb128 0x2f
 5749 167a EA090000 		.4byte	.LASF210
 5750 167e 01       		.byte	0x1
 5751 167f F403     		.2byte	0x3f4
 5752 1681 33170000 		.4byte	0x1733
 5753 1685 A6120000 		.4byte	.LLST65
 5754 1689 23       		.uleb128 0x23
 5755 168a 5E020000 		.4byte	.LVL244
 5756 168e 361D0000 		.4byte	0x1d36
 5757 1692 23       		.uleb128 0x23
 5758 1693 68020000 		.4byte	.LVL245
 5759 1697 361D0000 		.4byte	0x1d36
 5760 169b 00       		.byte	0
 5761 169c 21       		.uleb128 0x21
 5762 169d 9E000000 		.4byte	.LVL202
 5763 16a1 EF1B0000 		.4byte	0x1bef
 5764 16a5 AF160000 		.4byte	0x16af
 5765 16a9 22       		.uleb128 0x22
 5766 16aa 01       		.uleb128 0x1
 5767 16ab 50       		.byte	0x50
 5768 16ac 01       		.uleb128 0x1
 5769 16ad 40       		.byte	0x40
 5770 16ae 00       		.byte	0
 5771 16af 23       		.uleb128 0x23
 5772 16b0 60010000 		.4byte	.LVL214
 5773 16b4 361D0000 		.4byte	0x1d36
 5774 16b8 23       		.uleb128 0x23
 5775 16b9 6E010000 		.4byte	.LVL215
 5776 16bd 9A1C0000 		.4byte	0x1c9a
 5777 16c1 23       		.uleb128 0x23
 5778 16c2 92010000 		.4byte	.LVL219
 5779 16c6 9A1C0000 		.4byte	0x1c9a
 5780 16ca 23       		.uleb128 0x23
 5781 16cb B0010000 		.4byte	.LVL220
 5782 16cf 361D0000 		.4byte	0x1d36
 5783 16d3 23       		.uleb128 0x23
 5784 16d4 BA010000 		.4byte	.LVL221
 5785 16d8 361D0000 		.4byte	0x1d36
 5786 16dc 23       		.uleb128 0x23
 5787 16dd D6010000 		.4byte	.LVL226
 5788 16e1 361D0000 		.4byte	0x1d36
 5789 16e5 23       		.uleb128 0x23
 5790 16e6 EC010000 		.4byte	.LVL227
 5791 16ea 9A1C0000 		.4byte	0x1c9a
 5792 16ee 23       		.uleb128 0x23
 5793 16ef F6010000 		.4byte	.LVL228
 5794 16f3 B81B0000 		.4byte	0x1bb8
 5795 16f7 21       		.uleb128 0x21
 5796 16f8 82020000 		.4byte	.LVL247
ARM GAS  /tmp/ccAMfTfz.s 			page 103


 5797 16fc 191C0000 		.4byte	0x1c19
 5798 1700 0B170000 		.4byte	0x170b
 5799 1704 22       		.uleb128 0x22
 5800 1705 01       		.uleb128 0x1
 5801 1706 50       		.byte	0x50
 5802 1707 02       		.uleb128 0x2
 5803 1708 75       		.byte	0x75
 5804 1709 00       		.sleb128 0
 5805 170a 00       		.byte	0
 5806 170b 23       		.uleb128 0x23
 5807 170c C6020000 		.4byte	.LVL250
 5808 1710 361D0000 		.4byte	0x1d36
 5809 1714 40       		.uleb128 0x40
 5810 1715 E2020000 		.4byte	.LVL252
 5811 1719 E4130000 		.4byte	0x13e4
 5812 171d 29170000 		.4byte	0x1729
 5813 1721 22       		.uleb128 0x22
 5814 1722 01       		.uleb128 0x1
 5815 1723 50       		.byte	0x50
 5816 1724 03       		.uleb128 0x3
 5817 1725 F3       		.byte	0xf3
 5818 1726 01       		.uleb128 0x1
 5819 1727 50       		.byte	0x50
 5820 1728 00       		.byte	0
 5821 1729 23       		.uleb128 0x23
 5822 172a EC020000 		.4byte	.LVL254
 5823 172e B81B0000 		.4byte	0x1bb8
 5824 1732 00       		.byte	0
 5825 1733 0B       		.uleb128 0xb
 5826 1734 04       		.byte	0x4
 5827 1735 C8070000 		.4byte	0x7c8
 5828 1739 41       		.uleb128 0x41
 5829 173a 0C060000 		.4byte	.LASF211
 5830 173e 01       		.byte	0x1
 5831 173f AB04     		.2byte	0x4ab
 5832 1741 00000000 		.4byte	.LFB17
 5833 1745 BA000000 		.4byte	.LFE17-.LFB17
 5834 1749 01       		.uleb128 0x1
 5835 174a 9C       		.byte	0x9c
 5836 174b AF180000 		.4byte	0x18af
 5837 174f 2E       		.uleb128 0x2e
 5838 1750 33020000 		.4byte	.LASF132
 5839 1754 01       		.byte	0x1
 5840 1755 AB04     		.2byte	0x4ab
 5841 1757 32010000 		.4byte	0x132
 5842 175b B9120000 		.4byte	.LLST66
 5843 175f 2E       		.uleb128 0x2e
 5844 1760 FF040000 		.4byte	.LASF133
 5845 1764 01       		.byte	0x1
 5846 1765 AB04     		.2byte	0x4ab
 5847 1767 32010000 		.4byte	0x132
 5848 176b F0120000 		.4byte	.LLST67
 5849 176f 2E       		.uleb128 0x2e
 5850 1770 EC060000 		.4byte	.LASF66
 5851 1774 01       		.byte	0x1
 5852 1775 AC04     		.2byte	0x4ac
 5853 1777 55030000 		.4byte	0x355
ARM GAS  /tmp/ccAMfTfz.s 			page 104


 5854 177b 27130000 		.4byte	.LLST68
 5855 177f 2E       		.uleb128 0x2e
 5856 1780 130A0000 		.4byte	.LASF67
 5857 1784 01       		.byte	0x1
 5858 1785 AC04     		.2byte	0x4ac
 5859 1787 55030000 		.4byte	0x355
 5860 178b 5E130000 		.4byte	.LLST69
 5861 178f 2E       		.uleb128 0x2e
 5862 1790 77020000 		.4byte	.LASF72
 5863 1794 01       		.byte	0x1
 5864 1795 AD04     		.2byte	0x4ad
 5865 1797 1C010000 		.4byte	0x11c
 5866 179b 95130000 		.4byte	.LLST70
 5867 179f 2E       		.uleb128 0x2e
 5868 17a0 4D050000 		.4byte	.LASF73
 5869 17a4 01       		.byte	0x1
 5870 17a5 AD04     		.2byte	0x4ad
 5871 17a7 1C010000 		.4byte	0x11c
 5872 17ab C1130000 		.4byte	.LLST71
 5873 17af 30       		.uleb128 0x30
 5874 17b0 7000     		.ascii	"p\000"
 5875 17b2 01       		.byte	0x1
 5876 17b3 AF04     		.2byte	0x4af
 5877 17b5 22020000 		.4byte	0x222
 5878 17b9 ED130000 		.4byte	.LLST72
 5879 17bd 2F       		.uleb128 0x2f
 5880 17be 8E080000 		.4byte	.LASF129
 5881 17c2 01       		.byte	0x1
 5882 17c3 B004     		.2byte	0x4b0
 5883 17c5 3B080000 		.4byte	0x83b
 5884 17c9 37140000 		.4byte	.LLST73
 5885 17cd 21       		.uleb128 0x21
 5886 17ce 20000000 		.4byte	.LVL259
 5887 17d2 991B0000 		.4byte	0x1b99
 5888 17d6 EA170000 		.4byte	0x17ea
 5889 17da 22       		.uleb128 0x22
 5890 17db 01       		.uleb128 0x1
 5891 17dc 52       		.byte	0x52
 5892 17dd 01       		.uleb128 0x1
 5893 17de 30       		.byte	0x30
 5894 17df 22       		.uleb128 0x22
 5895 17e0 01       		.uleb128 0x1
 5896 17e1 51       		.byte	0x51
 5897 17e2 01       		.uleb128 0x1
 5898 17e3 44       		.byte	0x44
 5899 17e4 22       		.uleb128 0x22
 5900 17e5 01       		.uleb128 0x1
 5901 17e6 50       		.byte	0x50
 5902 17e7 01       		.uleb128 0x1
 5903 17e8 31       		.byte	0x31
 5904 17e9 00       		.byte	0
 5905 17ea 21       		.uleb128 0x21
 5906 17eb 34000000 		.4byte	.LVL262
 5907 17ef EF1B0000 		.4byte	0x1bef
 5908 17f3 00180000 		.4byte	0x1800
 5909 17f7 22       		.uleb128 0x22
 5910 17f8 01       		.uleb128 0x1
ARM GAS  /tmp/ccAMfTfz.s 			page 105


 5911 17f9 50       		.byte	0x50
 5912 17fa 04       		.uleb128 0x4
 5913 17fb 91       		.byte	0x91
 5914 17fc 00       		.sleb128 0
 5915 17fd 94       		.byte	0x94
 5916 17fe 02       		.byte	0x2
 5917 17ff 00       		.byte	0
 5918 1800 21       		.uleb128 0x21
 5919 1801 3C000000 		.4byte	.LVL263
 5920 1805 EF1B0000 		.4byte	0x1bef
 5921 1809 14180000 		.4byte	0x1814
 5922 180d 22       		.uleb128 0x22
 5923 180e 01       		.uleb128 0x1
 5924 180f 50       		.byte	0x50
 5925 1810 02       		.uleb128 0x2
 5926 1811 7A       		.byte	0x7a
 5927 1812 00       		.sleb128 0
 5928 1813 00       		.byte	0
 5929 1814 21       		.uleb128 0x21
 5930 1815 44000000 		.4byte	.LVL264
 5931 1819 041C0000 		.4byte	0x1c04
 5932 181d 28180000 		.4byte	0x1828
 5933 1821 22       		.uleb128 0x22
 5934 1822 01       		.uleb128 0x1
 5935 1823 50       		.byte	0x50
 5936 1824 02       		.uleb128 0x2
 5937 1825 77       		.byte	0x77
 5938 1826 00       		.sleb128 0
 5939 1827 00       		.byte	0
 5940 1828 21       		.uleb128 0x21
 5941 1829 4C000000 		.4byte	.LVL265
 5942 182d 041C0000 		.4byte	0x1c04
 5943 1831 3C180000 		.4byte	0x183c
 5944 1835 22       		.uleb128 0x22
 5945 1836 01       		.uleb128 0x1
 5946 1837 50       		.byte	0x50
 5947 1838 02       		.uleb128 0x2
 5948 1839 76       		.byte	0x76
 5949 183a 00       		.sleb128 0
 5950 183b 00       		.byte	0
 5951 183c 21       		.uleb128 0x21
 5952 183d 56000000 		.4byte	.LVL266
 5953 1841 EF1B0000 		.4byte	0x1bef
 5954 1845 51180000 		.4byte	0x1851
 5955 1849 22       		.uleb128 0x22
 5956 184a 01       		.uleb128 0x1
 5957 184b 50       		.byte	0x50
 5958 184c 03       		.uleb128 0x3
 5959 184d 0A       		.byte	0xa
 5960 184e 1450     		.2byte	0x5014
 5961 1850 00       		.byte	0
 5962 1851 21       		.uleb128 0x21
 5963 1852 82000000 		.4byte	.LVL269
 5964 1856 AF1C0000 		.4byte	0x1caf
 5965 185a 76180000 		.4byte	0x1876
 5966 185e 22       		.uleb128 0x22
 5967 185f 01       		.uleb128 0x1
ARM GAS  /tmp/ccAMfTfz.s 			page 106


 5968 1860 53       		.byte	0x53
 5969 1861 01       		.uleb128 0x1
 5970 1862 36       		.byte	0x36
 5971 1863 22       		.uleb128 0x22
 5972 1864 01       		.uleb128 0x1
 5973 1865 52       		.byte	0x52
 5974 1866 02       		.uleb128 0x2
 5975 1867 78       		.byte	0x78
 5976 1868 00       		.sleb128 0
 5977 1869 22       		.uleb128 0x22
 5978 186a 01       		.uleb128 0x1
 5979 186b 51       		.byte	0x51
 5980 186c 02       		.uleb128 0x2
 5981 186d 79       		.byte	0x79
 5982 186e 00       		.sleb128 0
 5983 186f 22       		.uleb128 0x22
 5984 1870 01       		.uleb128 0x1
 5985 1871 50       		.byte	0x50
 5986 1872 02       		.uleb128 0x2
 5987 1873 75       		.byte	0x75
 5988 1874 00       		.sleb128 0
 5989 1875 00       		.byte	0
 5990 1876 21       		.uleb128 0x21
 5991 1877 A2000000 		.4byte	.LVL271
 5992 187b D81C0000 		.4byte	0x1cd8
 5993 187f 9C180000 		.4byte	0x189c
 5994 1883 22       		.uleb128 0x22
 5995 1884 01       		.uleb128 0x1
 5996 1885 53       		.byte	0x53
 5997 1886 02       		.uleb128 0x2
 5998 1887 09       		.byte	0x9
 5999 1888 FF       		.byte	0xff
 6000 1889 22       		.uleb128 0x22
 6001 188a 01       		.uleb128 0x1
 6002 188b 52       		.byte	0x52
 6003 188c 02       		.uleb128 0x2
 6004 188d 78       		.byte	0x78
 6005 188e 00       		.sleb128 0
 6006 188f 22       		.uleb128 0x22
 6007 1890 01       		.uleb128 0x1
 6008 1891 51       		.byte	0x51
 6009 1892 02       		.uleb128 0x2
 6010 1893 79       		.byte	0x79
 6011 1894 00       		.sleb128 0
 6012 1895 22       		.uleb128 0x22
 6013 1896 01       		.uleb128 0x1
 6014 1897 50       		.byte	0x50
 6015 1898 02       		.uleb128 0x2
 6016 1899 75       		.byte	0x75
 6017 189a 00       		.sleb128 0
 6018 189b 00       		.byte	0
 6019 189c 42       		.uleb128 0x42
 6020 189d AE000000 		.4byte	.LVL273
 6021 18a1 2B1C0000 		.4byte	0x1c2b
 6022 18a5 23       		.uleb128 0x23
 6023 18a6 B2000000 		.4byte	.LVL274
 6024 18aa B81B0000 		.4byte	0x1bb8
ARM GAS  /tmp/ccAMfTfz.s 			page 107


 6025 18ae 00       		.byte	0
 6026 18af 41       		.uleb128 0x41
 6027 18b0 DF020000 		.4byte	.LASF212
 6028 18b4 01       		.byte	0x1
 6029 18b5 D704     		.2byte	0x4d7
 6030 18b7 00000000 		.4byte	.LFB18
 6031 18bb 34000000 		.4byte	.LFE18-.LFB18
 6032 18bf 01       		.uleb128 0x1
 6033 18c0 9C       		.byte	0x9c
 6034 18c1 F7180000 		.4byte	0x18f7
 6035 18c5 2D       		.uleb128 0x2d
 6036 18c6 70636200 		.ascii	"pcb\000"
 6037 18ca 01       		.byte	0x1
 6038 18cb D704     		.2byte	0x4d7
 6039 18cd CA030000 		.4byte	0x3ca
 6040 18d1 4A140000 		.4byte	.LLST74
 6041 18d5 30       		.uleb128 0x30
 6042 18d6 73656700 		.ascii	"seg\000"
 6043 18da 01       		.byte	0x1
 6044 18db D904     		.2byte	0x4d9
 6045 18dd C8070000 		.4byte	0x7c8
 6046 18e1 76140000 		.4byte	.LLST75
 6047 18e5 3B       		.uleb128 0x3b
 6048 18e6 2E000000 		.4byte	.LVL280
 6049 18ea 15150000 		.4byte	0x1515
 6050 18ee 22       		.uleb128 0x22
 6051 18ef 01       		.uleb128 0x1
 6052 18f0 50       		.byte	0x50
 6053 18f1 03       		.uleb128 0x3
 6054 18f2 F3       		.byte	0xf3
 6055 18f3 01       		.uleb128 0x1
 6056 18f4 50       		.byte	0x50
 6057 18f5 00       		.byte	0
 6058 18f6 00       		.byte	0
 6059 18f7 41       		.uleb128 0x41
 6060 18f8 45010000 		.4byte	.LASF213
 6061 18fc 01       		.byte	0x1
 6062 18fd FB04     		.2byte	0x4fb
 6063 18ff 00000000 		.4byte	.LFB19
 6064 1903 54000000 		.4byte	.LFE19-.LFB19
 6065 1907 01       		.uleb128 0x1
 6066 1908 9C       		.byte	0x9c
 6067 1909 50190000 		.4byte	0x1950
 6068 190d 2D       		.uleb128 0x2d
 6069 190e 70636200 		.ascii	"pcb\000"
 6070 1912 01       		.byte	0x1
 6071 1913 FB04     		.2byte	0x4fb
 6072 1915 CA030000 		.4byte	0x3ca
 6073 1919 89140000 		.4byte	.LLST76
 6074 191d 30       		.uleb128 0x30
 6075 191e 73656700 		.ascii	"seg\000"
 6076 1922 01       		.byte	0x1
 6077 1923 FD04     		.2byte	0x4fd
 6078 1925 C8070000 		.4byte	0x7c8
 6079 1929 A7140000 		.4byte	.LLST77
 6080 192d 2F       		.uleb128 0x2f
 6081 192e EA090000 		.4byte	.LASF210
ARM GAS  /tmp/ccAMfTfz.s 			page 108


 6082 1932 01       		.byte	0x1
 6083 1933 FE04     		.2byte	0x4fe
 6084 1935 33170000 		.4byte	0x1733
 6085 1939 C5140000 		.4byte	.LLST78
 6086 193d 23       		.uleb128 0x23
 6087 193e 24000000 		.4byte	.LVL286
 6088 1942 361D0000 		.4byte	0x1d36
 6089 1946 23       		.uleb128 0x23
 6090 1947 2E000000 		.4byte	.LVL287
 6091 194b 361D0000 		.4byte	0x1d36
 6092 194f 00       		.byte	0
 6093 1950 41       		.uleb128 0x41
 6094 1951 220A0000 		.4byte	.LASF214
 6095 1955 01       		.byte	0x1
 6096 1956 2905     		.2byte	0x529
 6097 1958 00000000 		.4byte	.LFB20
 6098 195c 48000000 		.4byte	.LFE20-.LFB20
 6099 1960 01       		.uleb128 0x1
 6100 1961 9C       		.byte	0x9c
 6101 1962 87190000 		.4byte	0x1987
 6102 1966 2D       		.uleb128 0x2d
 6103 1967 70636200 		.ascii	"pcb\000"
 6104 196b 01       		.byte	0x1
 6105 196c 2905     		.2byte	0x529
 6106 196e CA030000 		.4byte	0x3ca
 6107 1972 E3140000 		.4byte	.LLST79
 6108 1976 28       		.uleb128 0x28
 6109 1977 12000000 		.4byte	.LVL291
 6110 197b F7180000 		.4byte	0x18f7
 6111 197f 22       		.uleb128 0x22
 6112 1980 01       		.uleb128 0x1
 6113 1981 50       		.byte	0x50
 6114 1982 02       		.uleb128 0x2
 6115 1983 74       		.byte	0x74
 6116 1984 00       		.sleb128 0
 6117 1985 00       		.byte	0
 6118 1986 00       		.byte	0
 6119 1987 41       		.uleb128 0x41
 6120 1988 2B000000 		.4byte	.LASF215
 6121 198c 01       		.byte	0x1
 6122 198d 5405     		.2byte	0x554
 6123 198f 00000000 		.4byte	.LFB21
 6124 1993 66000000 		.4byte	.LFE21-.LFB21
 6125 1997 01       		.uleb128 0x1
 6126 1998 9C       		.byte	0x9c
 6127 1999 491A0000 		.4byte	0x1a49
 6128 199d 2D       		.uleb128 0x2d
 6129 199e 70636200 		.ascii	"pcb\000"
 6130 19a2 01       		.byte	0x1
 6131 19a3 5405     		.2byte	0x554
 6132 19a5 CA030000 		.4byte	0x3ca
 6133 19a9 01150000 		.4byte	.LLST80
 6134 19ad 30       		.uleb128 0x30
 6135 19ae 7000     		.ascii	"p\000"
 6136 19b0 01       		.byte	0x1
 6137 19b1 5605     		.2byte	0x556
 6138 19b3 22020000 		.4byte	0x222
ARM GAS  /tmp/ccAMfTfz.s 			page 109


 6139 19b7 38150000 		.4byte	.LLST81
 6140 19bb 2F       		.uleb128 0x2f
 6141 19bc 8E080000 		.4byte	.LASF129
 6142 19c0 01       		.byte	0x1
 6143 19c1 5705     		.2byte	0x557
 6144 19c3 3B080000 		.4byte	0x83b
 6145 19c7 6C150000 		.4byte	.LLST82
 6146 19cb 23       		.uleb128 0x23
 6147 19cc 0E000000 		.4byte	.LVL294
 6148 19d0 041C0000 		.4byte	0x1c04
 6149 19d4 21       		.uleb128 0x21
 6150 19d5 18000000 		.4byte	.LVL295
 6151 19d9 F00C0000 		.4byte	0xcf0
 6152 19dd ED190000 		.4byte	0x19ed
 6153 19e1 22       		.uleb128 0x22
 6154 19e2 01       		.uleb128 0x1
 6155 19e3 51       		.byte	0x51
 6156 19e4 01       		.uleb128 0x1
 6157 19e5 30       		.byte	0x30
 6158 19e6 22       		.uleb128 0x22
 6159 19e7 01       		.uleb128 0x1
 6160 19e8 50       		.byte	0x50
 6161 19e9 02       		.uleb128 0x2
 6162 19ea 74       		.byte	0x74
 6163 19eb 00       		.sleb128 0
 6164 19ec 00       		.byte	0
 6165 19ed 21       		.uleb128 0x21
 6166 19ee 2E000000 		.4byte	.LVL297
 6167 19f2 AF1C0000 		.4byte	0x1caf
 6168 19f6 121A0000 		.4byte	0x1a12
 6169 19fa 22       		.uleb128 0x22
 6170 19fb 01       		.uleb128 0x1
 6171 19fc 53       		.byte	0x53
 6172 19fd 01       		.uleb128 0x1
 6173 19fe 36       		.byte	0x36
 6174 19ff 22       		.uleb128 0x22
 6175 1a00 01       		.uleb128 0x1
 6176 1a01 52       		.byte	0x52
 6177 1a02 02       		.uleb128 0x2
 6178 1a03 76       		.byte	0x76
 6179 1a04 00       		.sleb128 0
 6180 1a05 22       		.uleb128 0x22
 6181 1a06 01       		.uleb128 0x1
 6182 1a07 51       		.byte	0x51
 6183 1a08 02       		.uleb128 0x2
 6184 1a09 74       		.byte	0x74
 6185 1a0a 00       		.sleb128 0
 6186 1a0b 22       		.uleb128 0x22
 6187 1a0c 01       		.uleb128 0x1
 6188 1a0d 50       		.byte	0x50
 6189 1a0e 02       		.uleb128 0x2
 6190 1a0f 75       		.byte	0x75
 6191 1a10 00       		.sleb128 0
 6192 1a11 00       		.byte	0
 6193 1a12 21       		.uleb128 0x21
 6194 1a13 56000000 		.4byte	.LVL299
 6195 1a17 D81C0000 		.4byte	0x1cd8
ARM GAS  /tmp/ccAMfTfz.s 			page 110


 6196 1a1b 3F1A0000 		.4byte	0x1a3f
 6197 1a1f 22       		.uleb128 0x22
 6198 1a20 01       		.uleb128 0x1
 6199 1a21 52       		.byte	0x52
 6200 1a22 02       		.uleb128 0x2
 6201 1a23 76       		.byte	0x76
 6202 1a24 00       		.sleb128 0
 6203 1a25 22       		.uleb128 0x22
 6204 1a26 01       		.uleb128 0x1
 6205 1a27 51       		.byte	0x51
 6206 1a28 02       		.uleb128 0x2
 6207 1a29 74       		.byte	0x74
 6208 1a2a 00       		.sleb128 0
 6209 1a2b 22       		.uleb128 0x22
 6210 1a2c 01       		.uleb128 0x1
 6211 1a2d 50       		.byte	0x50
 6212 1a2e 02       		.uleb128 0x2
 6213 1a2f 75       		.byte	0x75
 6214 1a30 00       		.sleb128 0
 6215 1a31 22       		.uleb128 0x22
 6216 1a32 02       		.uleb128 0x2
 6217 1a33 7D       		.byte	0x7d
 6218 1a34 04       		.sleb128 4
 6219 1a35 01       		.uleb128 0x1
 6220 1a36 36       		.byte	0x36
 6221 1a37 22       		.uleb128 0x22
 6222 1a38 02       		.uleb128 0x2
 6223 1a39 7D       		.byte	0x7d
 6224 1a3a 00       		.sleb128 0
 6225 1a3b 02       		.uleb128 0x2
 6226 1a3c 77       		.byte	0x77
 6227 1a3d 00       		.sleb128 0
 6228 1a3e 00       		.byte	0
 6229 1a3f 42       		.uleb128 0x42
 6230 1a40 62000000 		.4byte	.LVL301
 6231 1a44 2B1C0000 		.4byte	0x1c2b
 6232 1a48 00       		.byte	0
 6233 1a49 41       		.uleb128 0x41
 6234 1a4a 14010000 		.4byte	.LASF216
 6235 1a4e 01       		.byte	0x1
 6236 1a4f 8605     		.2byte	0x586
 6237 1a51 00000000 		.4byte	.LFB22
 6238 1a55 CA000000 		.4byte	.LFE22-.LFB22
 6239 1a59 01       		.uleb128 0x1
 6240 1a5a 9C       		.byte	0x9c
 6241 1a5b 761B0000 		.4byte	0x1b76
 6242 1a5f 2D       		.uleb128 0x2d
 6243 1a60 70636200 		.ascii	"pcb\000"
 6244 1a64 01       		.byte	0x1
 6245 1a65 8605     		.2byte	0x586
 6246 1a67 CA030000 		.4byte	0x3ca
 6247 1a6b 7F150000 		.4byte	.LLST83
 6248 1a6f 30       		.uleb128 0x30
 6249 1a70 7000     		.ascii	"p\000"
 6250 1a72 01       		.byte	0x1
 6251 1a73 8805     		.2byte	0x588
 6252 1a75 22020000 		.4byte	0x222
ARM GAS  /tmp/ccAMfTfz.s 			page 111


 6253 1a79 CC150000 		.4byte	.LLST84
 6254 1a7d 2F       		.uleb128 0x2f
 6255 1a7e 8E080000 		.4byte	.LASF129
 6256 1a82 01       		.byte	0x1
 6257 1a83 8905     		.2byte	0x589
 6258 1a85 3B080000 		.4byte	0x83b
 6259 1a89 0B160000 		.4byte	.LLST85
 6260 1a8d 30       		.uleb128 0x30
 6261 1a8e 73656700 		.ascii	"seg\000"
 6262 1a92 01       		.byte	0x1
 6263 1a93 8A05     		.2byte	0x58a
 6264 1a95 C8070000 		.4byte	0x7c8
 6265 1a99 29160000 		.4byte	.LLST86
 6266 1a9d 30       		.uleb128 0x30
 6267 1a9e 6C656E00 		.ascii	"len\000"
 6268 1aa2 01       		.byte	0x1
 6269 1aa3 8B05     		.2byte	0x58b
 6270 1aa5 1C010000 		.4byte	0x11c
 6271 1aa9 52160000 		.4byte	.LLST87
 6272 1aad 2F       		.uleb128 0x2f
 6273 1aae AB020000 		.4byte	.LASF217
 6274 1ab2 01       		.byte	0x1
 6275 1ab3 8C05     		.2byte	0x58c
 6276 1ab5 06010000 		.4byte	0x106
 6277 1ab9 65160000 		.4byte	.LLST88
 6278 1abd 39       		.uleb128 0x39
 6279 1abe 3A000000 		.4byte	.LBB56
 6280 1ac2 14000000 		.4byte	.LBE56-.LBB56
 6281 1ac6 EE1A0000 		.4byte	0x1aee
 6282 1aca 30       		.uleb128 0x30
 6283 1acb 6400     		.ascii	"d\000"
 6284 1acd 01       		.byte	0x1
 6285 1ace B205     		.2byte	0x5b2
 6286 1ad0 8C0A0000 		.4byte	0xa8c
 6287 1ad4 83160000 		.4byte	.LLST89
 6288 1ad8 28       		.uleb128 0x28
 6289 1ad9 4E000000 		.4byte	.LVL312
 6290 1add 4B1D0000 		.4byte	0x1d4b
 6291 1ae1 22       		.uleb128 0x22
 6292 1ae2 01       		.uleb128 0x1
 6293 1ae3 52       		.byte	0x52
 6294 1ae4 01       		.uleb128 0x1
 6295 1ae5 31       		.byte	0x31
 6296 1ae6 22       		.uleb128 0x22
 6297 1ae7 01       		.uleb128 0x1
 6298 1ae8 51       		.byte	0x51
 6299 1ae9 02       		.uleb128 0x2
 6300 1aea 77       		.byte	0x77
 6301 1aeb 14       		.sleb128 20
 6302 1aec 00       		.byte	0
 6303 1aed 00       		.byte	0
 6304 1aee 23       		.uleb128 0x23
 6305 1aef 16000000 		.4byte	.LVL305
 6306 1af3 9A1C0000 		.4byte	0x1c9a
 6307 1af7 21       		.uleb128 0x21
 6308 1af8 2C000000 		.4byte	.LVL307
 6309 1afc F00C0000 		.4byte	0xcf0
ARM GAS  /tmp/ccAMfTfz.s 			page 112


 6310 1b00 0B1B0000 		.4byte	0x1b0b
 6311 1b04 22       		.uleb128 0x22
 6312 1b05 01       		.uleb128 0x1
 6313 1b06 50       		.byte	0x50
 6314 1b07 02       		.uleb128 0x2
 6315 1b08 74       		.byte	0x74
 6316 1b09 00       		.sleb128 0
 6317 1b0a 00       		.byte	0
 6318 1b0b 21       		.uleb128 0x21
 6319 1b0c 60000000 		.4byte	.LVL313
 6320 1b10 AF1C0000 		.4byte	0x1caf
 6321 1b14 301B0000 		.4byte	0x1b30
 6322 1b18 22       		.uleb128 0x22
 6323 1b19 01       		.uleb128 0x1
 6324 1b1a 53       		.byte	0x53
 6325 1b1b 01       		.uleb128 0x1
 6326 1b1c 36       		.byte	0x36
 6327 1b1d 22       		.uleb128 0x22
 6328 1b1e 01       		.uleb128 0x1
 6329 1b1f 52       		.byte	0x52
 6330 1b20 02       		.uleb128 0x2
 6331 1b21 76       		.byte	0x76
 6332 1b22 00       		.sleb128 0
 6333 1b23 22       		.uleb128 0x22
 6334 1b24 01       		.uleb128 0x1
 6335 1b25 51       		.byte	0x51
 6336 1b26 02       		.uleb128 0x2
 6337 1b27 74       		.byte	0x74
 6338 1b28 00       		.sleb128 0
 6339 1b29 22       		.uleb128 0x22
 6340 1b2a 01       		.uleb128 0x1
 6341 1b2b 50       		.byte	0x50
 6342 1b2c 02       		.uleb128 0x2
 6343 1b2d 75       		.byte	0x75
 6344 1b2e 00       		.sleb128 0
 6345 1b2f 00       		.byte	0
 6346 1b30 21       		.uleb128 0x21
 6347 1b31 88000000 		.4byte	.LVL315
 6348 1b35 D81C0000 		.4byte	0x1cd8
 6349 1b39 5D1B0000 		.4byte	0x1b5d
 6350 1b3d 22       		.uleb128 0x22
 6351 1b3e 01       		.uleb128 0x1
 6352 1b3f 52       		.byte	0x52
 6353 1b40 02       		.uleb128 0x2
 6354 1b41 76       		.byte	0x76
 6355 1b42 00       		.sleb128 0
 6356 1b43 22       		.uleb128 0x22
 6357 1b44 01       		.uleb128 0x1
 6358 1b45 51       		.byte	0x51
 6359 1b46 02       		.uleb128 0x2
 6360 1b47 74       		.byte	0x74
 6361 1b48 00       		.sleb128 0
 6362 1b49 22       		.uleb128 0x22
 6363 1b4a 01       		.uleb128 0x1
 6364 1b4b 50       		.byte	0x50
 6365 1b4c 02       		.uleb128 0x2
 6366 1b4d 75       		.byte	0x75
ARM GAS  /tmp/ccAMfTfz.s 			page 113


 6367 1b4e 00       		.sleb128 0
 6368 1b4f 22       		.uleb128 0x22
 6369 1b50 02       		.uleb128 0x2
 6370 1b51 7D       		.byte	0x7d
 6371 1b52 04       		.sleb128 4
 6372 1b53 01       		.uleb128 0x1
 6373 1b54 36       		.byte	0x36
 6374 1b55 22       		.uleb128 0x22
 6375 1b56 02       		.uleb128 0x2
 6376 1b57 7D       		.byte	0x7d
 6377 1b58 00       		.sleb128 0
 6378 1b59 02       		.uleb128 0x2
 6379 1b5a 77       		.byte	0x77
 6380 1b5b 00       		.sleb128 0
 6381 1b5c 00       		.byte	0
 6382 1b5d 42       		.uleb128 0x42
 6383 1b5e 94000000 		.4byte	.LVL317
 6384 1b62 2B1C0000 		.4byte	0x1c2b
 6385 1b66 28       		.uleb128 0x28
 6386 1b67 B8000000 		.4byte	.LVL321
 6387 1b6b EF1B0000 		.4byte	0x1bef
 6388 1b6f 22       		.uleb128 0x22
 6389 1b70 01       		.uleb128 0x1
 6390 1b71 50       		.byte	0x50
 6391 1b72 01       		.uleb128 0x1
 6392 1b73 41       		.byte	0x41
 6393 1b74 00       		.byte	0
 6394 1b75 00       		.byte	0
 6395 1b76 43       		.uleb128 0x43
 6396 1b77 05050000 		.4byte	.LASF218
 6397 1b7b 0B       		.byte	0xb
 6398 1b7c 3201     		.2byte	0x132
 6399 1b7e CA030000 		.4byte	0x3ca
 6400 1b82 43       		.uleb128 0x43
 6401 1b83 84080000 		.4byte	.LASF219
 6402 1b87 0B       		.byte	0xb
 6403 1b88 3301     		.2byte	0x133
 6404 1b8a 32010000 		.4byte	0x132
 6405 1b8e 44       		.uleb128 0x44
 6406 1b8f ED010000 		.4byte	.LASF220
 6407 1b93 0D       		.byte	0xd
 6408 1b94 95       		.byte	0x95
 6409 1b95 F6090000 		.4byte	0x9f6
 6410 1b99 45       		.uleb128 0x45
 6411 1b9a 98020000 		.4byte	.LASF221
 6412 1b9e 07       		.byte	0x7
 6413 1b9f 92       		.byte	0x92
 6414 1ba0 22020000 		.4byte	0x222
 6415 1ba4 B81B0000 		.4byte	0x1bb8
 6416 1ba8 0D       		.uleb128 0xd
 6417 1ba9 8A010000 		.4byte	0x18a
 6418 1bad 0D       		.uleb128 0xd
 6419 1bae 1C010000 		.4byte	0x11c
 6420 1bb2 0D       		.uleb128 0xd
 6421 1bb3 B6010000 		.4byte	0x1b6
 6422 1bb7 00       		.byte	0
 6423 1bb8 46       		.uleb128 0x46
ARM GAS  /tmp/ccAMfTfz.s 			page 114


 6424 1bb9 72090000 		.4byte	.LASF245
 6425 1bbd 11       		.byte	0x11
 6426 1bbe 0102     		.2byte	0x201
 6427 1bc0 45       		.uleb128 0x45
 6428 1bc1 D1040000 		.4byte	.LASF222
 6429 1bc5 0C       		.byte	0xc
 6430 1bc6 6A       		.byte	0x6a
 6431 1bc7 F6000000 		.4byte	0xf6
 6432 1bcb D51B0000 		.4byte	0x1bd5
 6433 1bcf 0D       		.uleb128 0xd
 6434 1bd0 A4080000 		.4byte	0x8a4
 6435 1bd4 00       		.byte	0
 6436 1bd5 45       		.uleb128 0x45
 6437 1bd6 17040000 		.4byte	.LASF223
 6438 1bda 07       		.byte	0x7
 6439 1bdb 99       		.byte	0x99
 6440 1bdc 06010000 		.4byte	0x106
 6441 1be0 EF1B0000 		.4byte	0x1bef
 6442 1be4 0D       		.uleb128 0xd
 6443 1be5 22020000 		.4byte	0x222
 6444 1be9 0D       		.uleb128 0xd
 6445 1bea 27010000 		.4byte	0x127
 6446 1bee 00       		.byte	0
 6447 1bef 45       		.uleb128 0x45
 6448 1bf0 C5010000 		.4byte	.LASF224
 6449 1bf4 0E       		.byte	0xe
 6450 1bf5 63       		.byte	0x63
 6451 1bf6 1C010000 		.4byte	0x11c
 6452 1bfa 041C0000 		.4byte	0x1c04
 6453 1bfe 0D       		.uleb128 0xd
 6454 1bff 1C010000 		.4byte	0x11c
 6455 1c03 00       		.byte	0
 6456 1c04 45       		.uleb128 0x45
 6457 1c05 AA010000 		.4byte	.LASF225
 6458 1c09 0E       		.byte	0xe
 6459 1c0a 65       		.byte	0x65
 6460 1c0b 32010000 		.4byte	0x132
 6461 1c0f 191C0000 		.4byte	0x1c19
 6462 1c13 0D       		.uleb128 0xd
 6463 1c14 32010000 		.4byte	0x132
 6464 1c18 00       		.byte	0
 6465 1c19 47       		.uleb128 0x47
 6466 1c1a FF050000 		.4byte	.LASF227
 6467 1c1e 0B       		.byte	0xb
 6468 1c1f A401     		.2byte	0x1a4
 6469 1c21 2B1C0000 		.4byte	0x1c2b
 6470 1c25 0D       		.uleb128 0xd
 6471 1c26 C8070000 		.4byte	0x7c8
 6472 1c2a 00       		.byte	0
 6473 1c2b 45       		.uleb128 0x45
 6474 1c2c BF040000 		.4byte	.LASF226
 6475 1c30 07       		.byte	0x7
 6476 1c31 9B       		.byte	0x9b
 6477 1c32 06010000 		.4byte	0x106
 6478 1c36 401C0000 		.4byte	0x1c40
 6479 1c3a 0D       		.uleb128 0xd
 6480 1c3b 22020000 		.4byte	0x222
ARM GAS  /tmp/ccAMfTfz.s 			page 115


 6481 1c3f 00       		.byte	0
 6482 1c40 48       		.uleb128 0x48
 6483 1c41 F2090000 		.4byte	.LASF228
 6484 1c45 F6000000 		.4byte	0xf6
 6485 1c49 5D1C0000 		.4byte	0x1c5d
 6486 1c4d 0D       		.uleb128 0xd
 6487 1c4e F6000000 		.4byte	0xf6
 6488 1c52 0D       		.uleb128 0xd
 6489 1c53 50120000 		.4byte	0x1250
 6490 1c57 0D       		.uleb128 0xd
 6491 1c58 F8000000 		.4byte	0xf8
 6492 1c5c 00       		.byte	0
 6493 1c5d 45       		.uleb128 0x45
 6494 1c5e 94000000 		.4byte	.LASF229
 6495 1c62 07       		.byte	0x7
 6496 1c63 9C       		.byte	0x9c
 6497 1c64 06010000 		.4byte	0x106
 6498 1c68 721C0000 		.4byte	0x1c72
 6499 1c6c 0D       		.uleb128 0xd
 6500 1c6d 22020000 		.4byte	0x222
 6501 1c71 00       		.byte	0
 6502 1c72 49       		.uleb128 0x49
 6503 1c73 530A0000 		.4byte	.LASF230
 6504 1c77 07       		.byte	0x7
 6505 1c78 9D       		.byte	0x9d
 6506 1c79 881C0000 		.4byte	0x1c88
 6507 1c7d 0D       		.uleb128 0xd
 6508 1c7e 22020000 		.4byte	0x222
 6509 1c82 0D       		.uleb128 0xd
 6510 1c83 22020000 		.4byte	0x222
 6511 1c87 00       		.byte	0
 6512 1c88 47       		.uleb128 0x47
 6513 1c89 450A0000 		.4byte	.LASF231
 6514 1c8d 0B       		.byte	0xb
 6515 1c8e A301     		.2byte	0x1a3
 6516 1c90 9A1C0000 		.4byte	0x1c9a
 6517 1c94 0D       		.uleb128 0xd
 6518 1c95 C8070000 		.4byte	0x7c8
 6519 1c99 00       		.byte	0
 6520 1c9a 45       		.uleb128 0x45
 6521 1c9b 25060000 		.4byte	.LASF232
 6522 1c9f 0E       		.byte	0xe
 6523 1ca0 64       		.byte	0x64
 6524 1ca1 1C010000 		.4byte	0x11c
 6525 1ca5 AF1C0000 		.4byte	0x1caf
 6526 1ca9 0D       		.uleb128 0xd
 6527 1caa 1C010000 		.4byte	0x11c
 6528 1cae 00       		.byte	0
 6529 1caf 45       		.uleb128 0x45
 6530 1cb0 6F060000 		.4byte	.LASF233
 6531 1cb4 0F       		.byte	0xf
 6532 1cb5 4B       		.byte	0x4b
 6533 1cb6 1C010000 		.4byte	0x11c
 6534 1cba D81C0000 		.4byte	0x1cd8
 6535 1cbe 0D       		.uleb128 0xd
 6536 1cbf 22020000 		.4byte	0x222
 6537 1cc3 0D       		.uleb128 0xd
ARM GAS  /tmp/ccAMfTfz.s 			page 116


 6538 1cc4 55030000 		.4byte	0x355
 6539 1cc8 0D       		.uleb128 0xd
 6540 1cc9 55030000 		.4byte	0x355
 6541 1ccd 0D       		.uleb128 0xd
 6542 1cce 06010000 		.4byte	0x106
 6543 1cd2 0D       		.uleb128 0xd
 6544 1cd3 1C010000 		.4byte	0x11c
 6545 1cd7 00       		.byte	0
 6546 1cd8 45       		.uleb128 0x45
 6547 1cd9 6C0A0000 		.4byte	.LASF234
 6548 1cdd 10       		.byte	0x10
 6549 1cde B1       		.byte	0xb1
 6550 1cdf 5E010000 		.4byte	0x15e
 6551 1ce3 061D0000 		.4byte	0x1d06
 6552 1ce7 0D       		.uleb128 0xd
 6553 1ce8 22020000 		.4byte	0x222
 6554 1cec 0D       		.uleb128 0xd
 6555 1ced 55030000 		.4byte	0x355
 6556 1cf1 0D       		.uleb128 0xd
 6557 1cf2 55030000 		.4byte	0x355
 6558 1cf6 0D       		.uleb128 0xd
 6559 1cf7 06010000 		.4byte	0x106
 6560 1cfb 0D       		.uleb128 0xd
 6561 1cfc 06010000 		.4byte	0x106
 6562 1d00 0D       		.uleb128 0xd
 6563 1d01 06010000 		.4byte	0x106
 6564 1d05 00       		.byte	0
 6565 1d06 4A       		.uleb128 0x4a
 6566 1d07 B3050000 		.4byte	.LASF235
 6567 1d0b 0B       		.byte	0xb
 6568 1d0c C601     		.2byte	0x1c6
 6569 1d0e 1C010000 		.4byte	0x11c
 6570 1d12 211D0000 		.4byte	0x1d21
 6571 1d16 0D       		.uleb128 0xd
 6572 1d17 1C010000 		.4byte	0x11c
 6573 1d1b 0D       		.uleb128 0xd
 6574 1d1c 55030000 		.4byte	0x355
 6575 1d20 00       		.byte	0
 6576 1d21 45       		.uleb128 0x45
 6577 1d22 3C0A0000 		.4byte	.LASF236
 6578 1d26 10       		.byte	0x10
 6579 1d27 AF       		.byte	0xaf
 6580 1d28 4C020000 		.4byte	0x24c
 6581 1d2c 361D0000 		.4byte	0x1d36
 6582 1d30 0D       		.uleb128 0xd
 6583 1d31 55030000 		.4byte	0x355
 6584 1d35 00       		.byte	0
 6585 1d36 45       		.uleb128 0x45
 6586 1d37 14060000 		.4byte	.LASF237
 6587 1d3b 0E       		.byte	0xe
 6588 1d3c 66       		.byte	0x66
 6589 1d3d 32010000 		.4byte	0x132
 6590 1d41 4B1D0000 		.4byte	0x1d4b
 6591 1d45 0D       		.uleb128 0xd
 6592 1d46 32010000 		.4byte	0x132
 6593 1d4a 00       		.byte	0
 6594 1d4b 4B       		.uleb128 0x4b
ARM GAS  /tmp/ccAMfTfz.s 			page 117


 6595 1d4c 7F040000 		.4byte	.LASF238
 6596 1d50 07       		.byte	0x7
 6597 1d51 A1       		.byte	0xa1
 6598 1d52 1C010000 		.4byte	0x11c
 6599 1d56 0D       		.uleb128 0xd
 6600 1d57 22020000 		.4byte	0x222
 6601 1d5b 0D       		.uleb128 0xd
 6602 1d5c F6000000 		.4byte	0xf6
 6603 1d60 0D       		.uleb128 0xd
 6604 1d61 1C010000 		.4byte	0x11c
 6605 1d65 0D       		.uleb128 0xd
 6606 1d66 1C010000 		.4byte	0x11c
 6607 1d6a 00       		.byte	0
 6608 1d6b 00       		.byte	0
 6609              		.section	.debug_abbrev,"",%progbits
 6610              	.Ldebug_abbrev0:
 6611 0000 01       		.uleb128 0x1
 6612 0001 11       		.uleb128 0x11
 6613 0002 01       		.byte	0x1
 6614 0003 25       		.uleb128 0x25
 6615 0004 0E       		.uleb128 0xe
 6616 0005 13       		.uleb128 0x13
 6617 0006 0B       		.uleb128 0xb
 6618 0007 03       		.uleb128 0x3
 6619 0008 0E       		.uleb128 0xe
 6620 0009 1B       		.uleb128 0x1b
 6621 000a 0E       		.uleb128 0xe
 6622 000b 55       		.uleb128 0x55
 6623 000c 17       		.uleb128 0x17
 6624 000d 11       		.uleb128 0x11
 6625 000e 01       		.uleb128 0x1
 6626 000f 10       		.uleb128 0x10
 6627 0010 17       		.uleb128 0x17
 6628 0011 00       		.byte	0
 6629 0012 00       		.byte	0
 6630 0013 02       		.uleb128 0x2
 6631 0014 24       		.uleb128 0x24
 6632 0015 00       		.byte	0
 6633 0016 0B       		.uleb128 0xb
 6634 0017 0B       		.uleb128 0xb
 6635 0018 3E       		.uleb128 0x3e
 6636 0019 0B       		.uleb128 0xb
 6637 001a 03       		.uleb128 0x3
 6638 001b 08       		.uleb128 0x8
 6639 001c 00       		.byte	0
 6640 001d 00       		.byte	0
 6641 001e 03       		.uleb128 0x3
 6642 001f 24       		.uleb128 0x24
 6643 0020 00       		.byte	0
 6644 0021 0B       		.uleb128 0xb
 6645 0022 0B       		.uleb128 0xb
 6646 0023 3E       		.uleb128 0x3e
 6647 0024 0B       		.uleb128 0xb
 6648 0025 03       		.uleb128 0x3
 6649 0026 0E       		.uleb128 0xe
 6650 0027 00       		.byte	0
 6651 0028 00       		.byte	0
ARM GAS  /tmp/ccAMfTfz.s 			page 118


 6652 0029 04       		.uleb128 0x4
 6653 002a 16       		.uleb128 0x16
 6654 002b 00       		.byte	0
 6655 002c 03       		.uleb128 0x3
 6656 002d 0E       		.uleb128 0xe
 6657 002e 3A       		.uleb128 0x3a
 6658 002f 0B       		.uleb128 0xb
 6659 0030 3B       		.uleb128 0x3b
 6660 0031 0B       		.uleb128 0xb
 6661 0032 49       		.uleb128 0x49
 6662 0033 13       		.uleb128 0x13
 6663 0034 00       		.byte	0
 6664 0035 00       		.byte	0
 6665 0036 05       		.uleb128 0x5
 6666 0037 0F       		.uleb128 0xf
 6667 0038 00       		.byte	0
 6668 0039 0B       		.uleb128 0xb
 6669 003a 0B       		.uleb128 0xb
 6670 003b 00       		.byte	0
 6671 003c 00       		.byte	0
 6672 003d 06       		.uleb128 0x6
 6673 003e 04       		.uleb128 0x4
 6674 003f 01       		.byte	0x1
 6675 0040 0B       		.uleb128 0xb
 6676 0041 0B       		.uleb128 0xb
 6677 0042 3A       		.uleb128 0x3a
 6678 0043 0B       		.uleb128 0xb
 6679 0044 3B       		.uleb128 0x3b
 6680 0045 0B       		.uleb128 0xb
 6681 0046 01       		.uleb128 0x1
 6682 0047 13       		.uleb128 0x13
 6683 0048 00       		.byte	0
 6684 0049 00       		.byte	0
 6685 004a 07       		.uleb128 0x7
 6686 004b 28       		.uleb128 0x28
 6687 004c 00       		.byte	0
 6688 004d 03       		.uleb128 0x3
 6689 004e 0E       		.uleb128 0xe
 6690 004f 1C       		.uleb128 0x1c
 6691 0050 0D       		.uleb128 0xd
 6692 0051 00       		.byte	0
 6693 0052 00       		.byte	0
 6694 0053 08       		.uleb128 0x8
 6695 0054 13       		.uleb128 0x13
 6696 0055 01       		.byte	0x1
 6697 0056 03       		.uleb128 0x3
 6698 0057 0E       		.uleb128 0xe
 6699 0058 0B       		.uleb128 0xb
 6700 0059 0B       		.uleb128 0xb
 6701 005a 3A       		.uleb128 0x3a
 6702 005b 0B       		.uleb128 0xb
 6703 005c 3B       		.uleb128 0x3b
 6704 005d 0B       		.uleb128 0xb
 6705 005e 01       		.uleb128 0x1
 6706 005f 13       		.uleb128 0x13
 6707 0060 00       		.byte	0
 6708 0061 00       		.byte	0
ARM GAS  /tmp/ccAMfTfz.s 			page 119


 6709 0062 09       		.uleb128 0x9
 6710 0063 0D       		.uleb128 0xd
 6711 0064 00       		.byte	0
 6712 0065 03       		.uleb128 0x3
 6713 0066 0E       		.uleb128 0xe
 6714 0067 3A       		.uleb128 0x3a
 6715 0068 0B       		.uleb128 0xb
 6716 0069 3B       		.uleb128 0x3b
 6717 006a 0B       		.uleb128 0xb
 6718 006b 49       		.uleb128 0x49
 6719 006c 13       		.uleb128 0x13
 6720 006d 38       		.uleb128 0x38
 6721 006e 0B       		.uleb128 0xb
 6722 006f 00       		.byte	0
 6723 0070 00       		.byte	0
 6724 0071 0A       		.uleb128 0xa
 6725 0072 0D       		.uleb128 0xd
 6726 0073 00       		.byte	0
 6727 0074 03       		.uleb128 0x3
 6728 0075 08       		.uleb128 0x8
 6729 0076 3A       		.uleb128 0x3a
 6730 0077 0B       		.uleb128 0xb
 6731 0078 3B       		.uleb128 0x3b
 6732 0079 0B       		.uleb128 0xb
 6733 007a 49       		.uleb128 0x49
 6734 007b 13       		.uleb128 0x13
 6735 007c 38       		.uleb128 0x38
 6736 007d 0B       		.uleb128 0xb
 6737 007e 00       		.byte	0
 6738 007f 00       		.byte	0
 6739 0080 0B       		.uleb128 0xb
 6740 0081 0F       		.uleb128 0xf
 6741 0082 00       		.byte	0
 6742 0083 0B       		.uleb128 0xb
 6743 0084 0B       		.uleb128 0xb
 6744 0085 49       		.uleb128 0x49
 6745 0086 13       		.uleb128 0x13
 6746 0087 00       		.byte	0
 6747 0088 00       		.byte	0
 6748 0089 0C       		.uleb128 0xc
 6749 008a 15       		.uleb128 0x15
 6750 008b 01       		.byte	0x1
 6751 008c 27       		.uleb128 0x27
 6752 008d 19       		.uleb128 0x19
 6753 008e 49       		.uleb128 0x49
 6754 008f 13       		.uleb128 0x13
 6755 0090 01       		.uleb128 0x1
 6756 0091 13       		.uleb128 0x13
 6757 0092 00       		.byte	0
 6758 0093 00       		.byte	0
 6759 0094 0D       		.uleb128 0xd
 6760 0095 05       		.uleb128 0x5
 6761 0096 00       		.byte	0
 6762 0097 49       		.uleb128 0x49
 6763 0098 13       		.uleb128 0x13
 6764 0099 00       		.byte	0
 6765 009a 00       		.byte	0
ARM GAS  /tmp/ccAMfTfz.s 			page 120


 6766 009b 0E       		.uleb128 0xe
 6767 009c 01       		.uleb128 0x1
 6768 009d 01       		.byte	0x1
 6769 009e 49       		.uleb128 0x49
 6770 009f 13       		.uleb128 0x13
 6771 00a0 01       		.uleb128 0x1
 6772 00a1 13       		.uleb128 0x13
 6773 00a2 00       		.byte	0
 6774 00a3 00       		.byte	0
 6775 00a4 0F       		.uleb128 0xf
 6776 00a5 21       		.uleb128 0x21
 6777 00a6 00       		.byte	0
 6778 00a7 49       		.uleb128 0x49
 6779 00a8 13       		.uleb128 0x13
 6780 00a9 2F       		.uleb128 0x2f
 6781 00aa 0B       		.uleb128 0xb
 6782 00ab 00       		.byte	0
 6783 00ac 00       		.byte	0
 6784 00ad 10       		.uleb128 0x10
 6785 00ae 0D       		.uleb128 0xd
 6786 00af 00       		.byte	0
 6787 00b0 03       		.uleb128 0x3
 6788 00b1 0E       		.uleb128 0xe
 6789 00b2 3A       		.uleb128 0x3a
 6790 00b3 0B       		.uleb128 0xb
 6791 00b4 3B       		.uleb128 0x3b
 6792 00b5 05       		.uleb128 0x5
 6793 00b6 49       		.uleb128 0x49
 6794 00b7 13       		.uleb128 0x13
 6795 00b8 38       		.uleb128 0x38
 6796 00b9 0B       		.uleb128 0xb
 6797 00ba 00       		.byte	0
 6798 00bb 00       		.byte	0
 6799 00bc 11       		.uleb128 0x11
 6800 00bd 15       		.uleb128 0x15
 6801 00be 01       		.byte	0x1
 6802 00bf 27       		.uleb128 0x27
 6803 00c0 19       		.uleb128 0x19
 6804 00c1 01       		.uleb128 0x1
 6805 00c2 13       		.uleb128 0x13
 6806 00c3 00       		.byte	0
 6807 00c4 00       		.byte	0
 6808 00c5 12       		.uleb128 0x12
 6809 00c6 04       		.uleb128 0x4
 6810 00c7 01       		.byte	0x1
 6811 00c8 03       		.uleb128 0x3
 6812 00c9 0E       		.uleb128 0xe
 6813 00ca 0B       		.uleb128 0xb
 6814 00cb 0B       		.uleb128 0xb
 6815 00cc 3A       		.uleb128 0x3a
 6816 00cd 0B       		.uleb128 0xb
 6817 00ce 3B       		.uleb128 0x3b
 6818 00cf 0B       		.uleb128 0xb
 6819 00d0 01       		.uleb128 0x1
 6820 00d1 13       		.uleb128 0x13
 6821 00d2 00       		.byte	0
 6822 00d3 00       		.byte	0
ARM GAS  /tmp/ccAMfTfz.s 			page 121


 6823 00d4 13       		.uleb128 0x13
 6824 00d5 13       		.uleb128 0x13
 6825 00d6 01       		.byte	0x1
 6826 00d7 03       		.uleb128 0x3
 6827 00d8 0E       		.uleb128 0xe
 6828 00d9 0B       		.uleb128 0xb
 6829 00da 0B       		.uleb128 0xb
 6830 00db 3A       		.uleb128 0x3a
 6831 00dc 0B       		.uleb128 0xb
 6832 00dd 3B       		.uleb128 0x3b
 6833 00de 05       		.uleb128 0x5
 6834 00df 01       		.uleb128 0x1
 6835 00e0 13       		.uleb128 0x13
 6836 00e1 00       		.byte	0
 6837 00e2 00       		.byte	0
 6838 00e3 14       		.uleb128 0x14
 6839 00e4 0D       		.uleb128 0xd
 6840 00e5 00       		.byte	0
 6841 00e6 03       		.uleb128 0x3
 6842 00e7 08       		.uleb128 0x8
 6843 00e8 3A       		.uleb128 0x3a
 6844 00e9 0B       		.uleb128 0xb
 6845 00ea 3B       		.uleb128 0x3b
 6846 00eb 05       		.uleb128 0x5
 6847 00ec 49       		.uleb128 0x49
 6848 00ed 13       		.uleb128 0x13
 6849 00ee 38       		.uleb128 0x38
 6850 00ef 0B       		.uleb128 0xb
 6851 00f0 00       		.byte	0
 6852 00f1 00       		.byte	0
 6853 00f2 15       		.uleb128 0x15
 6854 00f3 13       		.uleb128 0x13
 6855 00f4 01       		.byte	0x1
 6856 00f5 03       		.uleb128 0x3
 6857 00f6 0E       		.uleb128 0xe
 6858 00f7 0B       		.uleb128 0xb
 6859 00f8 05       		.uleb128 0x5
 6860 00f9 3A       		.uleb128 0x3a
 6861 00fa 0B       		.uleb128 0xb
 6862 00fb 3B       		.uleb128 0x3b
 6863 00fc 0B       		.uleb128 0xb
 6864 00fd 01       		.uleb128 0x1
 6865 00fe 13       		.uleb128 0x13
 6866 00ff 00       		.byte	0
 6867 0100 00       		.byte	0
 6868 0101 16       		.uleb128 0x16
 6869 0102 0D       		.uleb128 0xd
 6870 0103 00       		.byte	0
 6871 0104 03       		.uleb128 0x3
 6872 0105 08       		.uleb128 0x8
 6873 0106 3A       		.uleb128 0x3a
 6874 0107 0B       		.uleb128 0xb
 6875 0108 3B       		.uleb128 0x3b
 6876 0109 0B       		.uleb128 0xb
 6877 010a 49       		.uleb128 0x49
 6878 010b 13       		.uleb128 0x13
 6879 010c 38       		.uleb128 0x38
ARM GAS  /tmp/ccAMfTfz.s 			page 122


 6880 010d 05       		.uleb128 0x5
 6881 010e 00       		.byte	0
 6882 010f 00       		.byte	0
 6883 0110 17       		.uleb128 0x17
 6884 0111 2E       		.uleb128 0x2e
 6885 0112 01       		.byte	0x1
 6886 0113 03       		.uleb128 0x3
 6887 0114 0E       		.uleb128 0xe
 6888 0115 3A       		.uleb128 0x3a
 6889 0116 0B       		.uleb128 0xb
 6890 0117 3B       		.uleb128 0x3b
 6891 0118 0B       		.uleb128 0xb
 6892 0119 27       		.uleb128 0x27
 6893 011a 19       		.uleb128 0x19
 6894 011b 49       		.uleb128 0x49
 6895 011c 13       		.uleb128 0x13
 6896 011d 20       		.uleb128 0x20
 6897 011e 0B       		.uleb128 0xb
 6898 011f 01       		.uleb128 0x1
 6899 0120 13       		.uleb128 0x13
 6900 0121 00       		.byte	0
 6901 0122 00       		.byte	0
 6902 0123 18       		.uleb128 0x18
 6903 0124 05       		.uleb128 0x5
 6904 0125 00       		.byte	0
 6905 0126 03       		.uleb128 0x3
 6906 0127 08       		.uleb128 0x8
 6907 0128 3A       		.uleb128 0x3a
 6908 0129 0B       		.uleb128 0xb
 6909 012a 3B       		.uleb128 0x3b
 6910 012b 0B       		.uleb128 0xb
 6911 012c 49       		.uleb128 0x49
 6912 012d 13       		.uleb128 0x13
 6913 012e 00       		.byte	0
 6914 012f 00       		.byte	0
 6915 0130 19       		.uleb128 0x19
 6916 0131 05       		.uleb128 0x5
 6917 0132 00       		.byte	0
 6918 0133 03       		.uleb128 0x3
 6919 0134 0E       		.uleb128 0xe
 6920 0135 3A       		.uleb128 0x3a
 6921 0136 0B       		.uleb128 0xb
 6922 0137 3B       		.uleb128 0x3b
 6923 0138 0B       		.uleb128 0xb
 6924 0139 49       		.uleb128 0x49
 6925 013a 13       		.uleb128 0x13
 6926 013b 00       		.byte	0
 6927 013c 00       		.byte	0
 6928 013d 1A       		.uleb128 0x1a
 6929 013e 34       		.uleb128 0x34
 6930 013f 00       		.byte	0
 6931 0140 03       		.uleb128 0x3
 6932 0141 08       		.uleb128 0x8
 6933 0142 3A       		.uleb128 0x3a
 6934 0143 0B       		.uleb128 0xb
 6935 0144 3B       		.uleb128 0x3b
 6936 0145 0B       		.uleb128 0xb
ARM GAS  /tmp/ccAMfTfz.s 			page 123


 6937 0146 49       		.uleb128 0x49
 6938 0147 13       		.uleb128 0x13
 6939 0148 00       		.byte	0
 6940 0149 00       		.byte	0
 6941 014a 1B       		.uleb128 0x1b
 6942 014b 34       		.uleb128 0x34
 6943 014c 00       		.byte	0
 6944 014d 03       		.uleb128 0x3
 6945 014e 0E       		.uleb128 0xe
 6946 014f 3A       		.uleb128 0x3a
 6947 0150 0B       		.uleb128 0xb
 6948 0151 3B       		.uleb128 0x3b
 6949 0152 0B       		.uleb128 0xb
 6950 0153 49       		.uleb128 0x49
 6951 0154 13       		.uleb128 0x13
 6952 0155 00       		.byte	0
 6953 0156 00       		.byte	0
 6954 0157 1C       		.uleb128 0x1c
 6955 0158 2E       		.uleb128 0x2e
 6956 0159 01       		.byte	0x1
 6957 015a 03       		.uleb128 0x3
 6958 015b 0E       		.uleb128 0xe
 6959 015c 3A       		.uleb128 0x3a
 6960 015d 0B       		.uleb128 0xb
 6961 015e 3B       		.uleb128 0x3b
 6962 015f 0B       		.uleb128 0xb
 6963 0160 27       		.uleb128 0x27
 6964 0161 19       		.uleb128 0x19
 6965 0162 49       		.uleb128 0x49
 6966 0163 13       		.uleb128 0x13
 6967 0164 11       		.uleb128 0x11
 6968 0165 01       		.uleb128 0x1
 6969 0166 12       		.uleb128 0x12
 6970 0167 06       		.uleb128 0x6
 6971 0168 40       		.uleb128 0x40
 6972 0169 18       		.uleb128 0x18
 6973 016a 9742     		.uleb128 0x2117
 6974 016c 19       		.uleb128 0x19
 6975 016d 01       		.uleb128 0x1
 6976 016e 13       		.uleb128 0x13
 6977 016f 00       		.byte	0
 6978 0170 00       		.byte	0
 6979 0171 1D       		.uleb128 0x1d
 6980 0172 05       		.uleb128 0x5
 6981 0173 00       		.byte	0
 6982 0174 03       		.uleb128 0x3
 6983 0175 0E       		.uleb128 0xe
 6984 0176 3A       		.uleb128 0x3a
 6985 0177 0B       		.uleb128 0xb
 6986 0178 3B       		.uleb128 0x3b
 6987 0179 0B       		.uleb128 0xb
 6988 017a 49       		.uleb128 0x49
 6989 017b 13       		.uleb128 0x13
 6990 017c 02       		.uleb128 0x2
 6991 017d 17       		.uleb128 0x17
 6992 017e 00       		.byte	0
 6993 017f 00       		.byte	0
ARM GAS  /tmp/ccAMfTfz.s 			page 124


 6994 0180 1E       		.uleb128 0x1e
 6995 0181 05       		.uleb128 0x5
 6996 0182 00       		.byte	0
 6997 0183 03       		.uleb128 0x3
 6998 0184 08       		.uleb128 0x8
 6999 0185 3A       		.uleb128 0x3a
 7000 0186 0B       		.uleb128 0xb
 7001 0187 3B       		.uleb128 0x3b
 7002 0188 0B       		.uleb128 0xb
 7003 0189 49       		.uleb128 0x49
 7004 018a 13       		.uleb128 0x13
 7005 018b 02       		.uleb128 0x2
 7006 018c 17       		.uleb128 0x17
 7007 018d 00       		.byte	0
 7008 018e 00       		.byte	0
 7009 018f 1F       		.uleb128 0x1f
 7010 0190 34       		.uleb128 0x34
 7011 0191 00       		.byte	0
 7012 0192 03       		.uleb128 0x3
 7013 0193 08       		.uleb128 0x8
 7014 0194 3A       		.uleb128 0x3a
 7015 0195 0B       		.uleb128 0xb
 7016 0196 3B       		.uleb128 0x3b
 7017 0197 0B       		.uleb128 0xb
 7018 0198 49       		.uleb128 0x49
 7019 0199 13       		.uleb128 0x13
 7020 019a 02       		.uleb128 0x2
 7021 019b 17       		.uleb128 0x17
 7022 019c 00       		.byte	0
 7023 019d 00       		.byte	0
 7024 019e 20       		.uleb128 0x20
 7025 019f 34       		.uleb128 0x34
 7026 01a0 00       		.byte	0
 7027 01a1 03       		.uleb128 0x3
 7028 01a2 0E       		.uleb128 0xe
 7029 01a3 3A       		.uleb128 0x3a
 7030 01a4 0B       		.uleb128 0xb
 7031 01a5 3B       		.uleb128 0x3b
 7032 01a6 0B       		.uleb128 0xb
 7033 01a7 49       		.uleb128 0x49
 7034 01a8 13       		.uleb128 0x13
 7035 01a9 02       		.uleb128 0x2
 7036 01aa 17       		.uleb128 0x17
 7037 01ab 00       		.byte	0
 7038 01ac 00       		.byte	0
 7039 01ad 21       		.uleb128 0x21
 7040 01ae 898201   		.uleb128 0x4109
 7041 01b1 01       		.byte	0x1
 7042 01b2 11       		.uleb128 0x11
 7043 01b3 01       		.uleb128 0x1
 7044 01b4 31       		.uleb128 0x31
 7045 01b5 13       		.uleb128 0x13
 7046 01b6 01       		.uleb128 0x1
 7047 01b7 13       		.uleb128 0x13
 7048 01b8 00       		.byte	0
 7049 01b9 00       		.byte	0
 7050 01ba 22       		.uleb128 0x22
ARM GAS  /tmp/ccAMfTfz.s 			page 125


 7051 01bb 8A8201   		.uleb128 0x410a
 7052 01be 00       		.byte	0
 7053 01bf 02       		.uleb128 0x2
 7054 01c0 18       		.uleb128 0x18
 7055 01c1 9142     		.uleb128 0x2111
 7056 01c3 18       		.uleb128 0x18
 7057 01c4 00       		.byte	0
 7058 01c5 00       		.byte	0
 7059 01c6 23       		.uleb128 0x23
 7060 01c7 898201   		.uleb128 0x4109
 7061 01ca 00       		.byte	0
 7062 01cb 11       		.uleb128 0x11
 7063 01cc 01       		.uleb128 0x1
 7064 01cd 31       		.uleb128 0x31
 7065 01ce 13       		.uleb128 0x13
 7066 01cf 00       		.byte	0
 7067 01d0 00       		.byte	0
 7068 01d1 24       		.uleb128 0x24
 7069 01d2 2E       		.uleb128 0x2e
 7070 01d3 01       		.byte	0x1
 7071 01d4 31       		.uleb128 0x31
 7072 01d5 13       		.uleb128 0x13
 7073 01d6 11       		.uleb128 0x11
 7074 01d7 01       		.uleb128 0x1
 7075 01d8 12       		.uleb128 0x12
 7076 01d9 06       		.uleb128 0x6
 7077 01da 40       		.uleb128 0x40
 7078 01db 18       		.uleb128 0x18
 7079 01dc 9742     		.uleb128 0x2117
 7080 01de 19       		.uleb128 0x19
 7081 01df 01       		.uleb128 0x1
 7082 01e0 13       		.uleb128 0x13
 7083 01e1 00       		.byte	0
 7084 01e2 00       		.byte	0
 7085 01e3 25       		.uleb128 0x25
 7086 01e4 05       		.uleb128 0x5
 7087 01e5 00       		.byte	0
 7088 01e6 31       		.uleb128 0x31
 7089 01e7 13       		.uleb128 0x13
 7090 01e8 02       		.uleb128 0x2
 7091 01e9 17       		.uleb128 0x17
 7092 01ea 00       		.byte	0
 7093 01eb 00       		.byte	0
 7094 01ec 26       		.uleb128 0x26
 7095 01ed 05       		.uleb128 0x5
 7096 01ee 00       		.byte	0
 7097 01ef 31       		.uleb128 0x31
 7098 01f0 13       		.uleb128 0x13
 7099 01f1 02       		.uleb128 0x2
 7100 01f2 18       		.uleb128 0x18
 7101 01f3 00       		.byte	0
 7102 01f4 00       		.byte	0
 7103 01f5 27       		.uleb128 0x27
 7104 01f6 34       		.uleb128 0x34
 7105 01f7 00       		.byte	0
 7106 01f8 31       		.uleb128 0x31
 7107 01f9 13       		.uleb128 0x13
ARM GAS  /tmp/ccAMfTfz.s 			page 126


 7108 01fa 02       		.uleb128 0x2
 7109 01fb 17       		.uleb128 0x17
 7110 01fc 00       		.byte	0
 7111 01fd 00       		.byte	0
 7112 01fe 28       		.uleb128 0x28
 7113 01ff 898201   		.uleb128 0x4109
 7114 0202 01       		.byte	0x1
 7115 0203 11       		.uleb128 0x11
 7116 0204 01       		.uleb128 0x1
 7117 0205 31       		.uleb128 0x31
 7118 0206 13       		.uleb128 0x13
 7119 0207 00       		.byte	0
 7120 0208 00       		.byte	0
 7121 0209 29       		.uleb128 0x29
 7122 020a 05       		.uleb128 0x5
 7123 020b 00       		.byte	0
 7124 020c 31       		.uleb128 0x31
 7125 020d 13       		.uleb128 0x13
 7126 020e 1C       		.uleb128 0x1c
 7127 020f 0B       		.uleb128 0xb
 7128 0210 00       		.byte	0
 7129 0211 00       		.byte	0
 7130 0212 2A       		.uleb128 0x2a
 7131 0213 2E       		.uleb128 0x2e
 7132 0214 01       		.byte	0x1
 7133 0215 03       		.uleb128 0x3
 7134 0216 0E       		.uleb128 0xe
 7135 0217 3A       		.uleb128 0x3a
 7136 0218 0B       		.uleb128 0xb
 7137 0219 3B       		.uleb128 0x3b
 7138 021a 05       		.uleb128 0x5
 7139 021b 27       		.uleb128 0x27
 7140 021c 19       		.uleb128 0x19
 7141 021d 49       		.uleb128 0x49
 7142 021e 13       		.uleb128 0x13
 7143 021f 20       		.uleb128 0x20
 7144 0220 0B       		.uleb128 0xb
 7145 0221 01       		.uleb128 0x1
 7146 0222 13       		.uleb128 0x13
 7147 0223 00       		.byte	0
 7148 0224 00       		.byte	0
 7149 0225 2B       		.uleb128 0x2b
 7150 0226 05       		.uleb128 0x5
 7151 0227 00       		.byte	0
 7152 0228 03       		.uleb128 0x3
 7153 0229 08       		.uleb128 0x8
 7154 022a 3A       		.uleb128 0x3a
 7155 022b 0B       		.uleb128 0xb
 7156 022c 3B       		.uleb128 0x3b
 7157 022d 05       		.uleb128 0x5
 7158 022e 49       		.uleb128 0x49
 7159 022f 13       		.uleb128 0x13
 7160 0230 00       		.byte	0
 7161 0231 00       		.byte	0
 7162 0232 2C       		.uleb128 0x2c
 7163 0233 2E       		.uleb128 0x2e
 7164 0234 01       		.byte	0x1
ARM GAS  /tmp/ccAMfTfz.s 			page 127


 7165 0235 3F       		.uleb128 0x3f
 7166 0236 19       		.uleb128 0x19
 7167 0237 03       		.uleb128 0x3
 7168 0238 0E       		.uleb128 0xe
 7169 0239 3A       		.uleb128 0x3a
 7170 023a 0B       		.uleb128 0xb
 7171 023b 3B       		.uleb128 0x3b
 7172 023c 05       		.uleb128 0x5
 7173 023d 27       		.uleb128 0x27
 7174 023e 19       		.uleb128 0x19
 7175 023f 49       		.uleb128 0x49
 7176 0240 13       		.uleb128 0x13
 7177 0241 11       		.uleb128 0x11
 7178 0242 01       		.uleb128 0x1
 7179 0243 12       		.uleb128 0x12
 7180 0244 06       		.uleb128 0x6
 7181 0245 40       		.uleb128 0x40
 7182 0246 18       		.uleb128 0x18
 7183 0247 9742     		.uleb128 0x2117
 7184 0249 19       		.uleb128 0x19
 7185 024a 01       		.uleb128 0x1
 7186 024b 13       		.uleb128 0x13
 7187 024c 00       		.byte	0
 7188 024d 00       		.byte	0
 7189 024e 2D       		.uleb128 0x2d
 7190 024f 05       		.uleb128 0x5
 7191 0250 00       		.byte	0
 7192 0251 03       		.uleb128 0x3
 7193 0252 08       		.uleb128 0x8
 7194 0253 3A       		.uleb128 0x3a
 7195 0254 0B       		.uleb128 0xb
 7196 0255 3B       		.uleb128 0x3b
 7197 0256 05       		.uleb128 0x5
 7198 0257 49       		.uleb128 0x49
 7199 0258 13       		.uleb128 0x13
 7200 0259 02       		.uleb128 0x2
 7201 025a 17       		.uleb128 0x17
 7202 025b 00       		.byte	0
 7203 025c 00       		.byte	0
 7204 025d 2E       		.uleb128 0x2e
 7205 025e 05       		.uleb128 0x5
 7206 025f 00       		.byte	0
 7207 0260 03       		.uleb128 0x3
 7208 0261 0E       		.uleb128 0xe
 7209 0262 3A       		.uleb128 0x3a
 7210 0263 0B       		.uleb128 0xb
 7211 0264 3B       		.uleb128 0x3b
 7212 0265 05       		.uleb128 0x5
 7213 0266 49       		.uleb128 0x49
 7214 0267 13       		.uleb128 0x13
 7215 0268 02       		.uleb128 0x2
 7216 0269 17       		.uleb128 0x17
 7217 026a 00       		.byte	0
 7218 026b 00       		.byte	0
 7219 026c 2F       		.uleb128 0x2f
 7220 026d 34       		.uleb128 0x34
 7221 026e 00       		.byte	0
ARM GAS  /tmp/ccAMfTfz.s 			page 128


 7222 026f 03       		.uleb128 0x3
 7223 0270 0E       		.uleb128 0xe
 7224 0271 3A       		.uleb128 0x3a
 7225 0272 0B       		.uleb128 0xb
 7226 0273 3B       		.uleb128 0x3b
 7227 0274 05       		.uleb128 0x5
 7228 0275 49       		.uleb128 0x49
 7229 0276 13       		.uleb128 0x13
 7230 0277 02       		.uleb128 0x2
 7231 0278 17       		.uleb128 0x17
 7232 0279 00       		.byte	0
 7233 027a 00       		.byte	0
 7234 027b 30       		.uleb128 0x30
 7235 027c 34       		.uleb128 0x34
 7236 027d 00       		.byte	0
 7237 027e 03       		.uleb128 0x3
 7238 027f 08       		.uleb128 0x8
 7239 0280 3A       		.uleb128 0x3a
 7240 0281 0B       		.uleb128 0xb
 7241 0282 3B       		.uleb128 0x3b
 7242 0283 05       		.uleb128 0x5
 7243 0284 49       		.uleb128 0x49
 7244 0285 13       		.uleb128 0x13
 7245 0286 02       		.uleb128 0x2
 7246 0287 17       		.uleb128 0x17
 7247 0288 00       		.byte	0
 7248 0289 00       		.byte	0
 7249 028a 31       		.uleb128 0x31
 7250 028b 34       		.uleb128 0x34
 7251 028c 00       		.byte	0
 7252 028d 03       		.uleb128 0x3
 7253 028e 0E       		.uleb128 0xe
 7254 028f 3A       		.uleb128 0x3a
 7255 0290 0B       		.uleb128 0xb
 7256 0291 3B       		.uleb128 0x3b
 7257 0292 05       		.uleb128 0x5
 7258 0293 49       		.uleb128 0x49
 7259 0294 13       		.uleb128 0x13
 7260 0295 1C       		.uleb128 0x1c
 7261 0296 0B       		.uleb128 0xb
 7262 0297 00       		.byte	0
 7263 0298 00       		.byte	0
 7264 0299 32       		.uleb128 0x32
 7265 029a 34       		.uleb128 0x34
 7266 029b 00       		.byte	0
 7267 029c 03       		.uleb128 0x3
 7268 029d 0E       		.uleb128 0xe
 7269 029e 3A       		.uleb128 0x3a
 7270 029f 0B       		.uleb128 0xb
 7271 02a0 3B       		.uleb128 0x3b
 7272 02a1 05       		.uleb128 0x5
 7273 02a2 49       		.uleb128 0x49
 7274 02a3 13       		.uleb128 0x13
 7275 02a4 02       		.uleb128 0x2
 7276 02a5 18       		.uleb128 0x18
 7277 02a6 00       		.byte	0
 7278 02a7 00       		.byte	0
ARM GAS  /tmp/ccAMfTfz.s 			page 129


 7279 02a8 33       		.uleb128 0x33
 7280 02a9 34       		.uleb128 0x34
 7281 02aa 00       		.byte	0
 7282 02ab 03       		.uleb128 0x3
 7283 02ac 08       		.uleb128 0x8
 7284 02ad 3A       		.uleb128 0x3a
 7285 02ae 0B       		.uleb128 0xb
 7286 02af 3B       		.uleb128 0x3b
 7287 02b0 05       		.uleb128 0x5
 7288 02b1 49       		.uleb128 0x49
 7289 02b2 13       		.uleb128 0x13
 7290 02b3 00       		.byte	0
 7291 02b4 00       		.byte	0
 7292 02b5 34       		.uleb128 0x34
 7293 02b6 0A       		.uleb128 0xa
 7294 02b7 00       		.byte	0
 7295 02b8 03       		.uleb128 0x3
 7296 02b9 0E       		.uleb128 0xe
 7297 02ba 3A       		.uleb128 0x3a
 7298 02bb 0B       		.uleb128 0xb
 7299 02bc 3B       		.uleb128 0x3b
 7300 02bd 05       		.uleb128 0x5
 7301 02be 11       		.uleb128 0x11
 7302 02bf 01       		.uleb128 0x1
 7303 02c0 00       		.byte	0
 7304 02c1 00       		.byte	0
 7305 02c2 35       		.uleb128 0x35
 7306 02c3 1D       		.uleb128 0x1d
 7307 02c4 01       		.byte	0x1
 7308 02c5 31       		.uleb128 0x31
 7309 02c6 13       		.uleb128 0x13
 7310 02c7 52       		.uleb128 0x52
 7311 02c8 01       		.uleb128 0x1
 7312 02c9 55       		.uleb128 0x55
 7313 02ca 17       		.uleb128 0x17
 7314 02cb 58       		.uleb128 0x58
 7315 02cc 0B       		.uleb128 0xb
 7316 02cd 59       		.uleb128 0x59
 7317 02ce 05       		.uleb128 0x5
 7318 02cf 01       		.uleb128 0x1
 7319 02d0 13       		.uleb128 0x13
 7320 02d1 00       		.byte	0
 7321 02d2 00       		.byte	0
 7322 02d3 36       		.uleb128 0x36
 7323 02d4 0B       		.uleb128 0xb
 7324 02d5 01       		.byte	0x1
 7325 02d6 55       		.uleb128 0x55
 7326 02d7 17       		.uleb128 0x17
 7327 02d8 01       		.uleb128 0x1
 7328 02d9 13       		.uleb128 0x13
 7329 02da 00       		.byte	0
 7330 02db 00       		.byte	0
 7331 02dc 37       		.uleb128 0x37
 7332 02dd 8A8201   		.uleb128 0x410a
 7333 02e0 00       		.byte	0
 7334 02e1 31       		.uleb128 0x31
 7335 02e2 13       		.uleb128 0x13
ARM GAS  /tmp/ccAMfTfz.s 			page 130


 7336 02e3 9142     		.uleb128 0x2111
 7337 02e5 18       		.uleb128 0x18
 7338 02e6 00       		.byte	0
 7339 02e7 00       		.byte	0
 7340 02e8 38       		.uleb128 0x38
 7341 02e9 26       		.uleb128 0x26
 7342 02ea 00       		.byte	0
 7343 02eb 00       		.byte	0
 7344 02ec 00       		.byte	0
 7345 02ed 39       		.uleb128 0x39
 7346 02ee 0B       		.uleb128 0xb
 7347 02ef 01       		.byte	0x1
 7348 02f0 11       		.uleb128 0x11
 7349 02f1 01       		.uleb128 0x1
 7350 02f2 12       		.uleb128 0x12
 7351 02f3 06       		.uleb128 0x6
 7352 02f4 01       		.uleb128 0x1
 7353 02f5 13       		.uleb128 0x13
 7354 02f6 00       		.byte	0
 7355 02f7 00       		.byte	0
 7356 02f8 3A       		.uleb128 0x3a
 7357 02f9 2E       		.uleb128 0x2e
 7358 02fa 01       		.byte	0x1
 7359 02fb 3F       		.uleb128 0x3f
 7360 02fc 19       		.uleb128 0x19
 7361 02fd 03       		.uleb128 0x3
 7362 02fe 0E       		.uleb128 0xe
 7363 02ff 3A       		.uleb128 0x3a
 7364 0300 0B       		.uleb128 0xb
 7365 0301 3B       		.uleb128 0x3b
 7366 0302 0B       		.uleb128 0xb
 7367 0303 27       		.uleb128 0x27
 7368 0304 19       		.uleb128 0x19
 7369 0305 49       		.uleb128 0x49
 7370 0306 13       		.uleb128 0x13
 7371 0307 11       		.uleb128 0x11
 7372 0308 01       		.uleb128 0x1
 7373 0309 12       		.uleb128 0x12
 7374 030a 06       		.uleb128 0x6
 7375 030b 40       		.uleb128 0x40
 7376 030c 18       		.uleb128 0x18
 7377 030d 9742     		.uleb128 0x2117
 7378 030f 19       		.uleb128 0x19
 7379 0310 01       		.uleb128 0x1
 7380 0311 13       		.uleb128 0x13
 7381 0312 00       		.byte	0
 7382 0313 00       		.byte	0
 7383 0314 3B       		.uleb128 0x3b
 7384 0315 898201   		.uleb128 0x4109
 7385 0318 01       		.byte	0x1
 7386 0319 11       		.uleb128 0x11
 7387 031a 01       		.uleb128 0x1
 7388 031b 9542     		.uleb128 0x2115
 7389 031d 19       		.uleb128 0x19
 7390 031e 31       		.uleb128 0x31
 7391 031f 13       		.uleb128 0x13
 7392 0320 00       		.byte	0
ARM GAS  /tmp/ccAMfTfz.s 			page 131


 7393 0321 00       		.byte	0
 7394 0322 3C       		.uleb128 0x3c
 7395 0323 2E       		.uleb128 0x2e
 7396 0324 01       		.byte	0x1
 7397 0325 03       		.uleb128 0x3
 7398 0326 0E       		.uleb128 0xe
 7399 0327 3A       		.uleb128 0x3a
 7400 0328 0B       		.uleb128 0xb
 7401 0329 3B       		.uleb128 0x3b
 7402 032a 05       		.uleb128 0x5
 7403 032b 27       		.uleb128 0x27
 7404 032c 19       		.uleb128 0x19
 7405 032d 20       		.uleb128 0x20
 7406 032e 0B       		.uleb128 0xb
 7407 032f 01       		.uleb128 0x1
 7408 0330 13       		.uleb128 0x13
 7409 0331 00       		.byte	0
 7410 0332 00       		.byte	0
 7411 0333 3D       		.uleb128 0x3d
 7412 0334 34       		.uleb128 0x34
 7413 0335 00       		.byte	0
 7414 0336 03       		.uleb128 0x3
 7415 0337 0E       		.uleb128 0xe
 7416 0338 3A       		.uleb128 0x3a
 7417 0339 0B       		.uleb128 0xb
 7418 033a 3B       		.uleb128 0x3b
 7419 033b 05       		.uleb128 0x5
 7420 033c 49       		.uleb128 0x49
 7421 033d 13       		.uleb128 0x13
 7422 033e 00       		.byte	0
 7423 033f 00       		.byte	0
 7424 0340 3E       		.uleb128 0x3e
 7425 0341 0B       		.uleb128 0xb
 7426 0342 01       		.byte	0x1
 7427 0343 00       		.byte	0
 7428 0344 00       		.byte	0
 7429 0345 3F       		.uleb128 0x3f
 7430 0346 0B       		.uleb128 0xb
 7431 0347 01       		.byte	0x1
 7432 0348 55       		.uleb128 0x55
 7433 0349 17       		.uleb128 0x17
 7434 034a 00       		.byte	0
 7435 034b 00       		.byte	0
 7436 034c 40       		.uleb128 0x40
 7437 034d 898201   		.uleb128 0x4109
 7438 0350 01       		.byte	0x1
 7439 0351 11       		.uleb128 0x11
 7440 0352 01       		.uleb128 0x1
 7441 0353 9542     		.uleb128 0x2115
 7442 0355 19       		.uleb128 0x19
 7443 0356 31       		.uleb128 0x31
 7444 0357 13       		.uleb128 0x13
 7445 0358 01       		.uleb128 0x1
 7446 0359 13       		.uleb128 0x13
 7447 035a 00       		.byte	0
 7448 035b 00       		.byte	0
 7449 035c 41       		.uleb128 0x41
ARM GAS  /tmp/ccAMfTfz.s 			page 132


 7450 035d 2E       		.uleb128 0x2e
 7451 035e 01       		.byte	0x1
 7452 035f 3F       		.uleb128 0x3f
 7453 0360 19       		.uleb128 0x19
 7454 0361 03       		.uleb128 0x3
 7455 0362 0E       		.uleb128 0xe
 7456 0363 3A       		.uleb128 0x3a
 7457 0364 0B       		.uleb128 0xb
 7458 0365 3B       		.uleb128 0x3b
 7459 0366 05       		.uleb128 0x5
 7460 0367 27       		.uleb128 0x27
 7461 0368 19       		.uleb128 0x19
 7462 0369 11       		.uleb128 0x11
 7463 036a 01       		.uleb128 0x1
 7464 036b 12       		.uleb128 0x12
 7465 036c 06       		.uleb128 0x6
 7466 036d 40       		.uleb128 0x40
 7467 036e 18       		.uleb128 0x18
 7468 036f 9742     		.uleb128 0x2117
 7469 0371 19       		.uleb128 0x19
 7470 0372 01       		.uleb128 0x1
 7471 0373 13       		.uleb128 0x13
 7472 0374 00       		.byte	0
 7473 0375 00       		.byte	0
 7474 0376 42       		.uleb128 0x42
 7475 0377 898201   		.uleb128 0x4109
 7476 037a 00       		.byte	0
 7477 037b 11       		.uleb128 0x11
 7478 037c 01       		.uleb128 0x1
 7479 037d 9542     		.uleb128 0x2115
 7480 037f 19       		.uleb128 0x19
 7481 0380 31       		.uleb128 0x31
 7482 0381 13       		.uleb128 0x13
 7483 0382 00       		.byte	0
 7484 0383 00       		.byte	0
 7485 0384 43       		.uleb128 0x43
 7486 0385 34       		.uleb128 0x34
 7487 0386 00       		.byte	0
 7488 0387 03       		.uleb128 0x3
 7489 0388 0E       		.uleb128 0xe
 7490 0389 3A       		.uleb128 0x3a
 7491 038a 0B       		.uleb128 0xb
 7492 038b 3B       		.uleb128 0x3b
 7493 038c 05       		.uleb128 0x5
 7494 038d 49       		.uleb128 0x49
 7495 038e 13       		.uleb128 0x13
 7496 038f 3F       		.uleb128 0x3f
 7497 0390 19       		.uleb128 0x19
 7498 0391 3C       		.uleb128 0x3c
 7499 0392 19       		.uleb128 0x19
 7500 0393 00       		.byte	0
 7501 0394 00       		.byte	0
 7502 0395 44       		.uleb128 0x44
 7503 0396 34       		.uleb128 0x34
 7504 0397 00       		.byte	0
 7505 0398 03       		.uleb128 0x3
 7506 0399 0E       		.uleb128 0xe
ARM GAS  /tmp/ccAMfTfz.s 			page 133


 7507 039a 3A       		.uleb128 0x3a
 7508 039b 0B       		.uleb128 0xb
 7509 039c 3B       		.uleb128 0x3b
 7510 039d 0B       		.uleb128 0xb
 7511 039e 49       		.uleb128 0x49
 7512 039f 13       		.uleb128 0x13
 7513 03a0 3F       		.uleb128 0x3f
 7514 03a1 19       		.uleb128 0x19
 7515 03a2 3C       		.uleb128 0x3c
 7516 03a3 19       		.uleb128 0x19
 7517 03a4 00       		.byte	0
 7518 03a5 00       		.byte	0
 7519 03a6 45       		.uleb128 0x45
 7520 03a7 2E       		.uleb128 0x2e
 7521 03a8 01       		.byte	0x1
 7522 03a9 3F       		.uleb128 0x3f
 7523 03aa 19       		.uleb128 0x19
 7524 03ab 03       		.uleb128 0x3
 7525 03ac 0E       		.uleb128 0xe
 7526 03ad 3A       		.uleb128 0x3a
 7527 03ae 0B       		.uleb128 0xb
 7528 03af 3B       		.uleb128 0x3b
 7529 03b0 0B       		.uleb128 0xb
 7530 03b1 27       		.uleb128 0x27
 7531 03b2 19       		.uleb128 0x19
 7532 03b3 49       		.uleb128 0x49
 7533 03b4 13       		.uleb128 0x13
 7534 03b5 3C       		.uleb128 0x3c
 7535 03b6 19       		.uleb128 0x19
 7536 03b7 01       		.uleb128 0x1
 7537 03b8 13       		.uleb128 0x13
 7538 03b9 00       		.byte	0
 7539 03ba 00       		.byte	0
 7540 03bb 46       		.uleb128 0x46
 7541 03bc 2E       		.uleb128 0x2e
 7542 03bd 00       		.byte	0
 7543 03be 3F       		.uleb128 0x3f
 7544 03bf 19       		.uleb128 0x19
 7545 03c0 03       		.uleb128 0x3
 7546 03c1 0E       		.uleb128 0xe
 7547 03c2 3A       		.uleb128 0x3a
 7548 03c3 0B       		.uleb128 0xb
 7549 03c4 3B       		.uleb128 0x3b
 7550 03c5 05       		.uleb128 0x5
 7551 03c6 27       		.uleb128 0x27
 7552 03c7 19       		.uleb128 0x19
 7553 03c8 3C       		.uleb128 0x3c
 7554 03c9 19       		.uleb128 0x19
 7555 03ca 00       		.byte	0
 7556 03cb 00       		.byte	0
 7557 03cc 47       		.uleb128 0x47
 7558 03cd 2E       		.uleb128 0x2e
 7559 03ce 01       		.byte	0x1
 7560 03cf 3F       		.uleb128 0x3f
 7561 03d0 19       		.uleb128 0x19
 7562 03d1 03       		.uleb128 0x3
 7563 03d2 0E       		.uleb128 0xe
ARM GAS  /tmp/ccAMfTfz.s 			page 134


 7564 03d3 3A       		.uleb128 0x3a
 7565 03d4 0B       		.uleb128 0xb
 7566 03d5 3B       		.uleb128 0x3b
 7567 03d6 05       		.uleb128 0x5
 7568 03d7 27       		.uleb128 0x27
 7569 03d8 19       		.uleb128 0x19
 7570 03d9 3C       		.uleb128 0x3c
 7571 03da 19       		.uleb128 0x19
 7572 03db 01       		.uleb128 0x1
 7573 03dc 13       		.uleb128 0x13
 7574 03dd 00       		.byte	0
 7575 03de 00       		.byte	0
 7576 03df 48       		.uleb128 0x48
 7577 03e0 2E       		.uleb128 0x2e
 7578 03e1 01       		.byte	0x1
 7579 03e2 3F       		.uleb128 0x3f
 7580 03e3 19       		.uleb128 0x19
 7581 03e4 03       		.uleb128 0x3
 7582 03e5 0E       		.uleb128 0xe
 7583 03e6 27       		.uleb128 0x27
 7584 03e7 19       		.uleb128 0x19
 7585 03e8 49       		.uleb128 0x49
 7586 03e9 13       		.uleb128 0x13
 7587 03ea 34       		.uleb128 0x34
 7588 03eb 19       		.uleb128 0x19
 7589 03ec 3C       		.uleb128 0x3c
 7590 03ed 19       		.uleb128 0x19
 7591 03ee 01       		.uleb128 0x1
 7592 03ef 13       		.uleb128 0x13
 7593 03f0 00       		.byte	0
 7594 03f1 00       		.byte	0
 7595 03f2 49       		.uleb128 0x49
 7596 03f3 2E       		.uleb128 0x2e
 7597 03f4 01       		.byte	0x1
 7598 03f5 3F       		.uleb128 0x3f
 7599 03f6 19       		.uleb128 0x19
 7600 03f7 03       		.uleb128 0x3
 7601 03f8 0E       		.uleb128 0xe
 7602 03f9 3A       		.uleb128 0x3a
 7603 03fa 0B       		.uleb128 0xb
 7604 03fb 3B       		.uleb128 0x3b
 7605 03fc 0B       		.uleb128 0xb
 7606 03fd 27       		.uleb128 0x27
 7607 03fe 19       		.uleb128 0x19
 7608 03ff 3C       		.uleb128 0x3c
 7609 0400 19       		.uleb128 0x19
 7610 0401 01       		.uleb128 0x1
 7611 0402 13       		.uleb128 0x13
 7612 0403 00       		.byte	0
 7613 0404 00       		.byte	0
 7614 0405 4A       		.uleb128 0x4a
 7615 0406 2E       		.uleb128 0x2e
 7616 0407 01       		.byte	0x1
 7617 0408 3F       		.uleb128 0x3f
 7618 0409 19       		.uleb128 0x19
 7619 040a 03       		.uleb128 0x3
 7620 040b 0E       		.uleb128 0xe
ARM GAS  /tmp/ccAMfTfz.s 			page 135


 7621 040c 3A       		.uleb128 0x3a
 7622 040d 0B       		.uleb128 0xb
 7623 040e 3B       		.uleb128 0x3b
 7624 040f 05       		.uleb128 0x5
 7625 0410 27       		.uleb128 0x27
 7626 0411 19       		.uleb128 0x19
 7627 0412 49       		.uleb128 0x49
 7628 0413 13       		.uleb128 0x13
 7629 0414 3C       		.uleb128 0x3c
 7630 0415 19       		.uleb128 0x19
 7631 0416 01       		.uleb128 0x1
 7632 0417 13       		.uleb128 0x13
 7633 0418 00       		.byte	0
 7634 0419 00       		.byte	0
 7635 041a 4B       		.uleb128 0x4b
 7636 041b 2E       		.uleb128 0x2e
 7637 041c 01       		.byte	0x1
 7638 041d 3F       		.uleb128 0x3f
 7639 041e 19       		.uleb128 0x19
 7640 041f 03       		.uleb128 0x3
 7641 0420 0E       		.uleb128 0xe
 7642 0421 3A       		.uleb128 0x3a
 7643 0422 0B       		.uleb128 0xb
 7644 0423 3B       		.uleb128 0x3b
 7645 0424 0B       		.uleb128 0xb
 7646 0425 27       		.uleb128 0x27
 7647 0426 19       		.uleb128 0x19
 7648 0427 49       		.uleb128 0x49
 7649 0428 13       		.uleb128 0x13
 7650 0429 3C       		.uleb128 0x3c
 7651 042a 19       		.uleb128 0x19
 7652 042b 00       		.byte	0
 7653 042c 00       		.byte	0
 7654 042d 00       		.byte	0
 7655              		.section	.debug_loc,"",%progbits
 7656              	.Ldebug_loc0:
 7657              	.LLST0:
 7658 0000 00000000 		.4byte	.LVL0
 7659 0004 37000000 		.4byte	.LVL8-1
 7660 0008 0100     		.2byte	0x1
 7661 000a 50       		.byte	0x50
 7662 000b 37000000 		.4byte	.LVL8-1
 7663 000f 52000000 		.4byte	.LVL10
 7664 0013 0400     		.2byte	0x4
 7665 0015 F3       		.byte	0xf3
 7666 0016 01       		.uleb128 0x1
 7667 0017 50       		.byte	0x50
 7668 0018 9F       		.byte	0x9f
 7669 0019 52000000 		.4byte	.LVL10
 7670 001d 64000000 		.4byte	.LFE10
 7671 0021 0100     		.2byte	0x1
 7672 0023 50       		.byte	0x50
 7673 0024 00000000 		.4byte	0
 7674 0028 00000000 		.4byte	0
 7675              	.LLST1:
 7676 002c 00000000 		.4byte	.LVL0
 7677 0030 0C000000 		.4byte	.LVL2
ARM GAS  /tmp/ccAMfTfz.s 			page 136


 7678 0034 0100     		.2byte	0x1
 7679 0036 51       		.byte	0x51
 7680 0037 0C000000 		.4byte	.LVL2
 7681 003b 64000000 		.4byte	.LFE10
 7682 003f 0400     		.2byte	0x4
 7683 0041 F3       		.byte	0xf3
 7684 0042 01       		.uleb128 0x1
 7685 0043 51       		.byte	0x51
 7686 0044 9F       		.byte	0x9f
 7687 0045 00000000 		.4byte	0
 7688 0049 00000000 		.4byte	0
 7689              	.LLST2:
 7690 004d 00000000 		.4byte	.LVL0
 7691 0051 24000000 		.4byte	.LVL4
 7692 0055 0100     		.2byte	0x1
 7693 0057 52       		.byte	0x52
 7694 0058 24000000 		.4byte	.LVL4
 7695 005c 28000000 		.4byte	.LVL6
 7696 0060 0400     		.2byte	0x4
 7697 0062 F3       		.byte	0xf3
 7698 0063 01       		.uleb128 0x1
 7699 0064 52       		.byte	0x52
 7700 0065 9F       		.byte	0x9f
 7701 0066 28000000 		.4byte	.LVL6
 7702 006a 32000000 		.4byte	.LVL7
 7703 006e 0100     		.2byte	0x1
 7704 0070 52       		.byte	0x52
 7705 0071 32000000 		.4byte	.LVL7
 7706 0075 52000000 		.4byte	.LVL10
 7707 0079 0400     		.2byte	0x4
 7708 007b F3       		.byte	0xf3
 7709 007c 01       		.uleb128 0x1
 7710 007d 52       		.byte	0x52
 7711 007e 9F       		.byte	0x9f
 7712 007f 52000000 		.4byte	.LVL10
 7713 0083 64000000 		.4byte	.LFE10
 7714 0087 0100     		.2byte	0x1
 7715 0089 52       		.byte	0x52
 7716 008a 00000000 		.4byte	0
 7717 008e 00000000 		.4byte	0
 7718              	.LLST3:
 7719 0092 00000000 		.4byte	.LVL0
 7720 0096 10000000 		.4byte	.LVL3
 7721 009a 0100     		.2byte	0x1
 7722 009c 53       		.byte	0x53
 7723 009d 10000000 		.4byte	.LVL3
 7724 00a1 64000000 		.4byte	.LFE10
 7725 00a5 0100     		.2byte	0x1
 7726 00a7 56       		.byte	0x56
 7727 00a8 00000000 		.4byte	0
 7728 00ac 00000000 		.4byte	0
 7729              	.LLST4:
 7730 00b0 00000000 		.4byte	.LVL0
 7731 00b4 52000000 		.4byte	.LVL10
 7732 00b8 0200     		.2byte	0x2
 7733 00ba 91       		.byte	0x91
 7734 00bb 00       		.sleb128 0
ARM GAS  /tmp/ccAMfTfz.s 			page 137


 7735 00bc 52000000 		.4byte	.LVL10
 7736 00c0 64000000 		.4byte	.LFE10
 7737 00c4 0200     		.2byte	0x2
 7738 00c6 7D       		.byte	0x7d
 7739 00c7 10       		.sleb128 16
 7740 00c8 00000000 		.4byte	0
 7741 00cc 00000000 		.4byte	0
 7742              	.LLST5:
 7743 00d0 00000000 		.4byte	.LVL0
 7744 00d4 52000000 		.4byte	.LVL10
 7745 00d8 0200     		.2byte	0x2
 7746 00da 91       		.byte	0x91
 7747 00db 04       		.sleb128 4
 7748 00dc 52000000 		.4byte	.LVL10
 7749 00e0 64000000 		.4byte	.LFE10
 7750 00e4 0200     		.2byte	0x2
 7751 00e6 7D       		.byte	0x7d
 7752 00e7 14       		.sleb128 20
 7753 00e8 00000000 		.4byte	0
 7754 00ec 00000000 		.4byte	0
 7755              	.LLST6:
 7756 00f0 00000000 		.4byte	.LVL0
 7757 00f4 52000000 		.4byte	.LVL10
 7758 00f8 0200     		.2byte	0x2
 7759 00fa 91       		.byte	0x91
 7760 00fb 08       		.sleb128 8
 7761 00fc 52000000 		.4byte	.LVL10
 7762 0100 64000000 		.4byte	.LFE10
 7763 0104 0200     		.2byte	0x2
 7764 0106 7D       		.byte	0x7d
 7765 0107 18       		.sleb128 24
 7766 0108 00000000 		.4byte	0
 7767 010c 00000000 		.4byte	0
 7768              	.LLST7:
 7769 0110 38000000 		.4byte	.LVL8
 7770 0114 43000000 		.4byte	.LVL9-1
 7771 0118 0100     		.2byte	0x1
 7772 011a 50       		.byte	0x50
 7773 011b 43000000 		.4byte	.LVL9-1
 7774 011f 52000000 		.4byte	.LVL10
 7775 0123 0100     		.2byte	0x1
 7776 0125 54       		.byte	0x54
 7777 0126 00000000 		.4byte	0
 7778 012a 00000000 		.4byte	0
 7779              	.LLST8:
 7780 012e 04000000 		.4byte	.LVL1
 7781 0132 0C000000 		.4byte	.LVL2
 7782 0136 0100     		.2byte	0x1
 7783 0138 51       		.byte	0x51
 7784 0139 0C000000 		.4byte	.LVL2
 7785 013d 26000000 		.4byte	.LVL5
 7786 0141 0100     		.2byte	0x1
 7787 0143 55       		.byte	0x55
 7788 0144 26000000 		.4byte	.LVL5
 7789 0148 28000000 		.4byte	.LVL6
 7790 014c 0100     		.2byte	0x1
 7791 014e 52       		.byte	0x52
ARM GAS  /tmp/ccAMfTfz.s 			page 138


 7792 014f 28000000 		.4byte	.LVL6
 7793 0153 32000000 		.4byte	.LVL7
 7794 0157 0100     		.2byte	0x1
 7795 0159 55       		.byte	0x55
 7796 015a 32000000 		.4byte	.LVL7
 7797 015e 37000000 		.4byte	.LVL8-1
 7798 0162 0100     		.2byte	0x1
 7799 0164 51       		.byte	0x51
 7800 0165 52000000 		.4byte	.LVL10
 7801 0169 64000000 		.4byte	.LFE10
 7802 016d 0100     		.2byte	0x1
 7803 016f 55       		.byte	0x55
 7804 0170 00000000 		.4byte	0
 7805 0174 00000000 		.4byte	0
 7806              	.LLST9:
 7807 0178 00000000 		.4byte	.LVL11
 7808 017c 2B000000 		.4byte	.LVL12-1
 7809 0180 0100     		.2byte	0x1
 7810 0182 52       		.byte	0x52
 7811 0183 2B000000 		.4byte	.LVL12-1
 7812 0187 5A000000 		.4byte	.LVL16
 7813 018b 0100     		.2byte	0x1
 7814 018d 56       		.byte	0x56
 7815 018e 5A000000 		.4byte	.LVL16
 7816 0192 96000000 		.4byte	.LVL22
 7817 0196 0400     		.2byte	0x4
 7818 0198 F3       		.byte	0xf3
 7819 0199 01       		.uleb128 0x1
 7820 019a 52       		.byte	0x52
 7821 019b 9F       		.byte	0x9f
 7822 019c 96000000 		.4byte	.LVL22
 7823 01a0 C0000000 		.4byte	.LFE23
 7824 01a4 0100     		.2byte	0x1
 7825 01a6 56       		.byte	0x56
 7826 01a7 00000000 		.4byte	0
 7827 01ab 00000000 		.4byte	0
 7828              	.LLST10:
 7829 01af 00000000 		.4byte	.LVL11
 7830 01b3 2B000000 		.4byte	.LVL12-1
 7831 01b7 0100     		.2byte	0x1
 7832 01b9 53       		.byte	0x53
 7833 01ba 2B000000 		.4byte	.LVL12-1
 7834 01be C0000000 		.4byte	.LFE23
 7835 01c2 0400     		.2byte	0x4
 7836 01c4 F3       		.byte	0xf3
 7837 01c5 01       		.uleb128 0x1
 7838 01c6 53       		.byte	0x53
 7839 01c7 9F       		.byte	0x9f
 7840 01c8 00000000 		.4byte	0
 7841 01cc 00000000 		.4byte	0
 7842              	.LLST11:
 7843 01d0 00000000 		.4byte	.LVL11
 7844 01d4 96000000 		.4byte	.LVL22
 7845 01d8 0200     		.2byte	0x2
 7846 01da 91       		.byte	0x91
 7847 01db 00       		.sleb128 0
 7848 01dc 96000000 		.4byte	.LVL22
ARM GAS  /tmp/ccAMfTfz.s 			page 139


 7849 01e0 C0000000 		.4byte	.LFE23
 7850 01e4 0200     		.2byte	0x2
 7851 01e6 7D       		.byte	0x7d
 7852 01e7 28       		.sleb128 40
 7853 01e8 00000000 		.4byte	0
 7854 01ec 00000000 		.4byte	0
 7855              	.LLST12:
 7856 01f0 00000000 		.4byte	.LVL11
 7857 01f4 96000000 		.4byte	.LVL22
 7858 01f8 0200     		.2byte	0x2
 7859 01fa 91       		.byte	0x91
 7860 01fb 04       		.sleb128 4
 7861 01fc 96000000 		.4byte	.LVL22
 7862 0200 C0000000 		.4byte	.LFE23
 7863 0204 0200     		.2byte	0x2
 7864 0206 7D       		.byte	0x7d
 7865 0207 2C       		.sleb128 44
 7866 0208 00000000 		.4byte	0
 7867 020c 00000000 		.4byte	0
 7868              	.LLST13:
 7869 0210 2E000000 		.4byte	.LVL13
 7870 0214 46000000 		.4byte	.LVL14
 7871 0218 0100     		.2byte	0x1
 7872 021a 50       		.byte	0x50
 7873 021b 46000000 		.4byte	.LVL14
 7874 021f B4000000 		.4byte	.LVL24
 7875 0223 0100     		.2byte	0x1
 7876 0225 54       		.byte	0x54
 7877 0226 B4000000 		.4byte	.LVL24
 7878 022a B6000000 		.4byte	.LVL25
 7879 022e 0100     		.2byte	0x1
 7880 0230 50       		.byte	0x50
 7881 0231 B6000000 		.4byte	.LVL25
 7882 0235 C0000000 		.4byte	.LFE23
 7883 0239 0100     		.2byte	0x1
 7884 023b 54       		.byte	0x54
 7885 023c 00000000 		.4byte	0
 7886 0240 00000000 		.4byte	0
 7887              	.LLST14:
 7888 0244 2E000000 		.4byte	.LVL13
 7889 0248 78000000 		.4byte	.LVL20
 7890 024c 0100     		.2byte	0x1
 7891 024e 57       		.byte	0x57
 7892 024f 78000000 		.4byte	.LVL20
 7893 0253 96000000 		.4byte	.LVL22
 7894 0257 2A00     		.2byte	0x2a
 7895 0259 30       		.byte	0x30
 7896 025a 3C       		.byte	0x3c
 7897 025b 91       		.byte	0x91
 7898 025c 04       		.sleb128 4
 7899 025d 94       		.byte	0x94
 7900 025e 01       		.byte	0x1
 7901 025f 08       		.byte	0x8
 7902 0260 FF       		.byte	0xff
 7903 0261 1A       		.byte	0x1a
 7904 0262 32       		.byte	0x32
 7905 0263 24       		.byte	0x24
ARM GAS  /tmp/ccAMfTfz.s 			page 140


 7906 0264 33       		.byte	0x33
 7907 0265 25       		.byte	0x25
 7908 0266 30       		.byte	0x30
 7909 0267 29       		.byte	0x29
 7910 0268 28       		.byte	0x28
 7911 0269 0100     		.2byte	0x1
 7912 026b 16       		.byte	0x16
 7913 026c 13       		.byte	0x13
 7914 026d 30       		.byte	0x30
 7915 026e 34       		.byte	0x34
 7916 026f 91       		.byte	0x91
 7917 0270 04       		.sleb128 4
 7918 0271 94       		.byte	0x94
 7919 0272 01       		.byte	0x1
 7920 0273 08       		.byte	0x8
 7921 0274 FF       		.byte	0xff
 7922 0275 1A       		.byte	0x1a
 7923 0276 33       		.byte	0x33
 7924 0277 24       		.byte	0x24
 7925 0278 33       		.byte	0x33
 7926 0279 25       		.byte	0x25
 7927 027a 30       		.byte	0x30
 7928 027b 29       		.byte	0x29
 7929 027c 28       		.byte	0x28
 7930 027d 0100     		.2byte	0x1
 7931 027f 16       		.byte	0x16
 7932 0280 13       		.byte	0x13
 7933 0281 22       		.byte	0x22
 7934 0282 9F       		.byte	0x9f
 7935 0283 96000000 		.4byte	.LVL22
 7936 0287 C0000000 		.4byte	.LFE23
 7937 028b 0100     		.2byte	0x1
 7938 028d 57       		.byte	0x57
 7939 028e 00000000 		.4byte	0
 7940 0292 00000000 		.4byte	0
 7941              	.LLST15:
 7942 0296 00000000 		.4byte	.LVL27
 7943 029a 0C000000 		.4byte	.LVL29
 7944 029e 0100     		.2byte	0x1
 7945 02a0 50       		.byte	0x50
 7946 02a1 0C000000 		.4byte	.LVL29
 7947 02a5 66000000 		.4byte	.LFE24
 7948 02a9 0100     		.2byte	0x1
 7949 02ab 55       		.byte	0x55
 7950 02ac 00000000 		.4byte	0
 7951 02b0 00000000 		.4byte	0
 7952              	.LLST16:
 7953 02b4 00000000 		.4byte	.LVL27
 7954 02b8 02000000 		.4byte	.LVL28
 7955 02bc 0100     		.2byte	0x1
 7956 02be 51       		.byte	0x51
 7957 02bf 02000000 		.4byte	.LVL28
 7958 02c3 66000000 		.4byte	.LFE24
 7959 02c7 0400     		.2byte	0x4
 7960 02c9 F3       		.byte	0xf3
 7961 02ca 01       		.uleb128 0x1
 7962 02cb 51       		.byte	0x51
ARM GAS  /tmp/ccAMfTfz.s 			page 141


 7963 02cc 9F       		.byte	0x9f
 7964 02cd 00000000 		.4byte	0
 7965 02d1 00000000 		.4byte	0
 7966              	.LLST17:
 7967 02d5 00000000 		.4byte	.LVL27
 7968 02d9 0E000000 		.4byte	.LVL30
 7969 02dd 0100     		.2byte	0x1
 7970 02df 52       		.byte	0x52
 7971 02e0 0E000000 		.4byte	.LVL30
 7972 02e4 66000000 		.4byte	.LFE24
 7973 02e8 0100     		.2byte	0x1
 7974 02ea 57       		.byte	0x57
 7975 02eb 00000000 		.4byte	0
 7976 02ef 00000000 		.4byte	0
 7977              	.LLST18:
 7978 02f3 20000000 		.4byte	.LVL33
 7979 02f7 5C000000 		.4byte	.LVL39
 7980 02fb 0100     		.2byte	0x1
 7981 02fd 54       		.byte	0x54
 7982 02fe 00000000 		.4byte	0
 7983 0302 00000000 		.4byte	0
 7984              	.LLST19:
 7985 0306 12000000 		.4byte	.LVL31
 7986 030a 1C000000 		.4byte	.LVL32
 7987 030e 0100     		.2byte	0x1
 7988 0310 50       		.byte	0x50
 7989 0311 1C000000 		.4byte	.LVL32
 7990 0315 60000000 		.4byte	.LVL40
 7991 0319 0100     		.2byte	0x1
 7992 031b 56       		.byte	0x56
 7993 031c 60000000 		.4byte	.LVL40
 7994 0320 63000000 		.4byte	.LVL41-1
 7995 0324 0100     		.2byte	0x1
 7996 0326 50       		.byte	0x50
 7997 0327 63000000 		.4byte	.LVL41-1
 7998 032b 66000000 		.4byte	.LFE24
 7999 032f 0100     		.2byte	0x1
 8000 0331 56       		.byte	0x56
 8001 0332 00000000 		.4byte	0
 8002 0336 00000000 		.4byte	0
 8003              	.LLST20:
 8004 033a 00000000 		.4byte	.LVL42
 8005 033e 0E000000 		.4byte	.LVL43
 8006 0342 0100     		.2byte	0x1
 8007 0344 50       		.byte	0x50
 8008 0345 0E000000 		.4byte	.LVL43
 8009 0349 B8040000 		.4byte	.LFE12
 8010 034d 0100     		.2byte	0x1
 8011 034f 58       		.byte	0x58
 8012 0350 00000000 		.4byte	0
 8013 0354 00000000 		.4byte	0
 8014              	.LLST21:
 8015 0358 00000000 		.4byte	.LVL42
 8016 035c 1E000000 		.4byte	.LVL44
 8017 0360 0100     		.2byte	0x1
 8018 0362 51       		.byte	0x51
 8019 0363 1E000000 		.4byte	.LVL44
ARM GAS  /tmp/ccAMfTfz.s 			page 142


 8020 0367 36000000 		.4byte	.LVL48
 8021 036b 0100     		.2byte	0x1
 8022 036d 50       		.byte	0x50
 8023 036e 36000000 		.4byte	.LVL48
 8024 0372 CE010000 		.4byte	.LVL74
 8025 0376 0300     		.2byte	0x3
 8026 0378 91       		.byte	0x91
 8027 0379 B07F     		.sleb128 -80
 8028 037b CE010000 		.4byte	.LVL74
 8029 037f D8010000 		.4byte	.LVL75
 8030 0383 0100     		.2byte	0x1
 8031 0385 50       		.byte	0x50
 8032 0386 D8010000 		.4byte	.LVL75
 8033 038a B0040000 		.4byte	.LVL143
 8034 038e 0300     		.2byte	0x3
 8035 0390 91       		.byte	0x91
 8036 0391 B07F     		.sleb128 -80
 8037 0393 B0040000 		.4byte	.LVL143
 8038 0397 B3040000 		.4byte	.LVL144-1
 8039 039b 0100     		.2byte	0x1
 8040 039d 50       		.byte	0x50
 8041 039e B3040000 		.4byte	.LVL144-1
 8042 03a2 B8040000 		.4byte	.LFE12
 8043 03a6 0300     		.2byte	0x3
 8044 03a8 91       		.byte	0x91
 8045 03a9 B07F     		.sleb128 -80
 8046 03ab 00000000 		.4byte	0
 8047 03af 00000000 		.4byte	0
 8048              	.LLST22:
 8049 03b3 00000000 		.4byte	.LVL42
 8050 03b7 6E000000 		.4byte	.LVL50
 8051 03bb 0100     		.2byte	0x1
 8052 03bd 52       		.byte	0x52
 8053 03be 6E000000 		.4byte	.LVL50
 8054 03c2 CE010000 		.4byte	.LVL74
 8055 03c6 0400     		.2byte	0x4
 8056 03c8 F3       		.byte	0xf3
 8057 03c9 01       		.uleb128 0x1
 8058 03ca 52       		.byte	0x52
 8059 03cb 9F       		.byte	0x9f
 8060 03cc CE010000 		.4byte	.LVL74
 8061 03d0 DC010000 		.4byte	.LVL76
 8062 03d4 0100     		.2byte	0x1
 8063 03d6 52       		.byte	0x52
 8064 03d7 DC010000 		.4byte	.LVL76
 8065 03db E4010000 		.4byte	.LVL77
 8066 03df 0400     		.2byte	0x4
 8067 03e1 F3       		.byte	0xf3
 8068 03e2 01       		.uleb128 0x1
 8069 03e3 52       		.byte	0x52
 8070 03e4 9F       		.byte	0x9f
 8071 03e5 E4010000 		.4byte	.LVL77
 8072 03e9 ED010000 		.4byte	.LVL78-1
 8073 03ed 0100     		.2byte	0x1
 8074 03ef 52       		.byte	0x52
 8075 03f0 ED010000 		.4byte	.LVL78-1
 8076 03f4 40030000 		.4byte	.LVL103
ARM GAS  /tmp/ccAMfTfz.s 			page 143


 8077 03f8 0400     		.2byte	0x4
 8078 03fa F3       		.byte	0xf3
 8079 03fb 01       		.uleb128 0x1
 8080 03fc 52       		.byte	0x52
 8081 03fd 9F       		.byte	0x9f
 8082 03fe 40030000 		.4byte	.LVL103
 8083 0402 46030000 		.4byte	.LVL104
 8084 0406 0100     		.2byte	0x1
 8085 0408 52       		.byte	0x52
 8086 0409 46030000 		.4byte	.LVL104
 8087 040d BA030000 		.4byte	.LVL117
 8088 0411 0400     		.2byte	0x4
 8089 0413 F3       		.byte	0xf3
 8090 0414 01       		.uleb128 0x1
 8091 0415 52       		.byte	0x52
 8092 0416 9F       		.byte	0x9f
 8093 0417 BA030000 		.4byte	.LVL117
 8094 041b C6030000 		.4byte	.LVL118
 8095 041f 0100     		.2byte	0x1
 8096 0421 52       		.byte	0x52
 8097 0422 C6030000 		.4byte	.LVL118
 8098 0426 FA030000 		.4byte	.LVL128
 8099 042a 0400     		.2byte	0x4
 8100 042c F3       		.byte	0xf3
 8101 042d 01       		.uleb128 0x1
 8102 042e 52       		.byte	0x52
 8103 042f 9F       		.byte	0x9f
 8104 0430 FA030000 		.4byte	.LVL128
 8105 0434 08040000 		.4byte	.LVL129
 8106 0438 0100     		.2byte	0x1
 8107 043a 52       		.byte	0x52
 8108 043b 08040000 		.4byte	.LVL129
 8109 043f 62040000 		.4byte	.LVL137
 8110 0443 0400     		.2byte	0x4
 8111 0445 F3       		.byte	0xf3
 8112 0446 01       		.uleb128 0x1
 8113 0447 52       		.byte	0x52
 8114 0448 9F       		.byte	0x9f
 8115 0449 62040000 		.4byte	.LVL137
 8116 044d 80040000 		.4byte	.LVL138
 8117 0451 0100     		.2byte	0x1
 8118 0453 52       		.byte	0x52
 8119 0454 80040000 		.4byte	.LVL138
 8120 0458 B0040000 		.4byte	.LVL143
 8121 045c 0400     		.2byte	0x4
 8122 045e F3       		.byte	0xf3
 8123 045f 01       		.uleb128 0x1
 8124 0460 52       		.byte	0x52
 8125 0461 9F       		.byte	0x9f
 8126 0462 B0040000 		.4byte	.LVL143
 8127 0466 B3040000 		.4byte	.LVL144-1
 8128 046a 0100     		.2byte	0x1
 8129 046c 52       		.byte	0x52
 8130 046d B3040000 		.4byte	.LVL144-1
 8131 0471 B8040000 		.4byte	.LFE12
 8132 0475 0400     		.2byte	0x4
 8133 0477 F3       		.byte	0xf3
ARM GAS  /tmp/ccAMfTfz.s 			page 144


 8134 0478 01       		.uleb128 0x1
 8135 0479 52       		.byte	0x52
 8136 047a 9F       		.byte	0x9f
 8137 047b 00000000 		.4byte	0
 8138 047f 00000000 		.4byte	0
 8139              	.LLST23:
 8140 0483 00000000 		.4byte	.LVL42
 8141 0487 30000000 		.4byte	.LVL47
 8142 048b 0100     		.2byte	0x1
 8143 048d 53       		.byte	0x53
 8144 048e 30000000 		.4byte	.LVL47
 8145 0492 B0040000 		.4byte	.LVL143
 8146 0496 0400     		.2byte	0x4
 8147 0498 F3       		.byte	0xf3
 8148 0499 01       		.uleb128 0x1
 8149 049a 53       		.byte	0x53
 8150 049b 9F       		.byte	0x9f
 8151 049c B0040000 		.4byte	.LVL143
 8152 04a0 B3040000 		.4byte	.LVL144-1
 8153 04a4 0100     		.2byte	0x1
 8154 04a6 53       		.byte	0x53
 8155 04a7 B3040000 		.4byte	.LVL144-1
 8156 04ab B8040000 		.4byte	.LFE12
 8157 04af 0400     		.2byte	0x4
 8158 04b1 F3       		.byte	0xf3
 8159 04b2 01       		.uleb128 0x1
 8160 04b3 53       		.byte	0x53
 8161 04b4 9F       		.byte	0x9f
 8162 04b5 00000000 		.4byte	0
 8163 04b9 00000000 		.4byte	0
 8164              	.LLST24:
 8165 04bd 00000000 		.4byte	.LVL42
 8166 04c1 CE000000 		.4byte	.LVL55
 8167 04c5 0200     		.2byte	0x2
 8168 04c7 30       		.byte	0x30
 8169 04c8 9F       		.byte	0x9f
 8170 04c9 CE000000 		.4byte	.LVL55
 8171 04cd F4000000 		.4byte	.LVL56
 8172 04d1 0200     		.2byte	0x2
 8173 04d3 91       		.byte	0x91
 8174 04d4 48       		.sleb128 -56
 8175 04d5 CE010000 		.4byte	.LVL74
 8176 04d9 DC010000 		.4byte	.LVL76
 8177 04dd 0200     		.2byte	0x2
 8178 04df 30       		.byte	0x30
 8179 04e0 9F       		.byte	0x9f
 8180 04e1 E4010000 		.4byte	.LVL77
 8181 04e5 14020000 		.4byte	.LVL81
 8182 04e9 0200     		.2byte	0x2
 8183 04eb 30       		.byte	0x30
 8184 04ec 9F       		.byte	0x9f
 8185 04ed EE020000 		.4byte	.LVL100
 8186 04f1 20030000 		.4byte	.LVL102
 8187 04f5 0200     		.2byte	0x2
 8188 04f7 91       		.byte	0x91
 8189 04f8 48       		.sleb128 -56
 8190 04f9 40030000 		.4byte	.LVL103
ARM GAS  /tmp/ccAMfTfz.s 			page 145


 8191 04fd 46030000 		.4byte	.LVL104
 8192 0501 0200     		.2byte	0x2
 8193 0503 30       		.byte	0x30
 8194 0504 9F       		.byte	0x9f
 8195 0505 50030000 		.4byte	.LVL106
 8196 0509 A6030000 		.4byte	.LVL114
 8197 050d 0200     		.2byte	0x2
 8198 050f 30       		.byte	0x30
 8199 0510 9F       		.byte	0x9f
 8200 0511 A6030000 		.4byte	.LVL114
 8201 0515 B0030000 		.4byte	.LVL115
 8202 0519 0100     		.2byte	0x1
 8203 051b 50       		.byte	0x50
 8204 051c B0030000 		.4byte	.LVL115
 8205 0520 BA030000 		.4byte	.LVL117
 8206 0524 0200     		.2byte	0x2
 8207 0526 91       		.byte	0x91
 8208 0527 48       		.sleb128 -56
 8209 0528 BA030000 		.4byte	.LVL117
 8210 052c C6030000 		.4byte	.LVL118
 8211 0530 0200     		.2byte	0x2
 8212 0532 30       		.byte	0x30
 8213 0533 9F       		.byte	0x9f
 8214 0534 CE030000 		.4byte	.LVL121
 8215 0538 D8030000 		.4byte	.LVL122
 8216 053c 0200     		.2byte	0x2
 8217 053e 30       		.byte	0x30
 8218 053f 9F       		.byte	0x9f
 8219 0540 D8030000 		.4byte	.LVL122
 8220 0544 E0030000 		.4byte	.LVL123
 8221 0548 0100     		.2byte	0x1
 8222 054a 50       		.byte	0x50
 8223 054b E0030000 		.4byte	.LVL123
 8224 054f FA030000 		.4byte	.LVL128
 8225 0553 0200     		.2byte	0x2
 8226 0555 91       		.byte	0x91
 8227 0556 48       		.sleb128 -56
 8228 0557 FA030000 		.4byte	.LVL128
 8229 055b 28040000 		.4byte	.LVL130
 8230 055f 0200     		.2byte	0x2
 8231 0561 30       		.byte	0x30
 8232 0562 9F       		.byte	0x9f
 8233 0563 48040000 		.4byte	.LVL133
 8234 0567 5A040000 		.4byte	.LVL135
 8235 056b 0200     		.2byte	0x2
 8236 056d 30       		.byte	0x30
 8237 056e 9F       		.byte	0x9f
 8238 056f 62040000 		.4byte	.LVL137
 8239 0573 94040000 		.4byte	.LVL139
 8240 0577 0200     		.2byte	0x2
 8241 0579 30       		.byte	0x30
 8242 057a 9F       		.byte	0x9f
 8243 057b A4040000 		.4byte	.LVL140
 8244 057f AA040000 		.4byte	.LVL141
 8245 0583 0200     		.2byte	0x2
 8246 0585 91       		.byte	0x91
 8247 0586 48       		.sleb128 -56
ARM GAS  /tmp/ccAMfTfz.s 			page 146


 8248 0587 B0040000 		.4byte	.LVL143
 8249 058b B8040000 		.4byte	.LFE12
 8250 058f 0200     		.2byte	0x2
 8251 0591 30       		.byte	0x30
 8252 0592 9F       		.byte	0x9f
 8253 0593 00000000 		.4byte	0
 8254 0597 00000000 		.4byte	0
 8255              	.LLST25:
 8256 059b 00000000 		.4byte	.LVL42
 8257 059f 6E000000 		.4byte	.LVL50
 8258 05a3 0200     		.2byte	0x2
 8259 05a5 30       		.byte	0x30
 8260 05a6 9F       		.byte	0x9f
 8261 05a7 6E000000 		.4byte	.LVL50
 8262 05ab F4000000 		.4byte	.LVL56
 8263 05af 0100     		.2byte	0x1
 8264 05b1 5B       		.byte	0x5b
 8265 05b2 CE010000 		.4byte	.LVL74
 8266 05b6 DC010000 		.4byte	.LVL76
 8267 05ba 0200     		.2byte	0x2
 8268 05bc 30       		.byte	0x30
 8269 05bd 9F       		.byte	0x9f
 8270 05be E4010000 		.4byte	.LVL77
 8271 05c2 14020000 		.4byte	.LVL81
 8272 05c6 0200     		.2byte	0x2
 8273 05c8 30       		.byte	0x30
 8274 05c9 9F       		.byte	0x9f
 8275 05ca 40030000 		.4byte	.LVL103
 8276 05ce 46030000 		.4byte	.LVL104
 8277 05d2 0200     		.2byte	0x2
 8278 05d4 30       		.byte	0x30
 8279 05d5 9F       		.byte	0x9f
 8280 05d6 50030000 		.4byte	.LVL106
 8281 05da BA030000 		.4byte	.LVL117
 8282 05de 0100     		.2byte	0x1
 8283 05e0 5B       		.byte	0x5b
 8284 05e1 BA030000 		.4byte	.LVL117
 8285 05e5 C6030000 		.4byte	.LVL118
 8286 05e9 0200     		.2byte	0x2
 8287 05eb 30       		.byte	0x30
 8288 05ec 9F       		.byte	0x9f
 8289 05ed CE030000 		.4byte	.LVL121
 8290 05f1 FA030000 		.4byte	.LVL128
 8291 05f5 0100     		.2byte	0x1
 8292 05f7 5B       		.byte	0x5b
 8293 05f8 FA030000 		.4byte	.LVL128
 8294 05fc 08040000 		.4byte	.LVL129
 8295 0600 0200     		.2byte	0x2
 8296 0602 30       		.byte	0x30
 8297 0603 9F       		.byte	0x9f
 8298 0604 08040000 		.4byte	.LVL129
 8299 0608 28040000 		.4byte	.LVL130
 8300 060c 0100     		.2byte	0x1
 8301 060e 5B       		.byte	0x5b
 8302 060f 48040000 		.4byte	.LVL133
 8303 0613 5A040000 		.4byte	.LVL135
 8304 0617 0200     		.2byte	0x2
ARM GAS  /tmp/ccAMfTfz.s 			page 147


 8305 0619 30       		.byte	0x30
 8306 061a 9F       		.byte	0x9f
 8307 061b 62040000 		.4byte	.LVL137
 8308 061f 94040000 		.4byte	.LVL139
 8309 0623 0200     		.2byte	0x2
 8310 0625 30       		.byte	0x30
 8311 0626 9F       		.byte	0x9f
 8312 0627 A4040000 		.4byte	.LVL140
 8313 062b AA040000 		.4byte	.LVL141
 8314 062f 0100     		.2byte	0x1
 8315 0631 5B       		.byte	0x5b
 8316 0632 B0040000 		.4byte	.LVL143
 8317 0636 B8040000 		.4byte	.LFE12
 8318 063a 0200     		.2byte	0x2
 8319 063c 30       		.byte	0x30
 8320 063d 9F       		.byte	0x9f
 8321 063e 00000000 		.4byte	0
 8322 0642 00000000 		.4byte	0
 8323              	.LLST26:
 8324 0646 00000000 		.4byte	.LVL42
 8325 064a B0000000 		.4byte	.LVL54
 8326 064e 0200     		.2byte	0x2
 8327 0650 30       		.byte	0x30
 8328 0651 9F       		.byte	0x9f
 8329 0652 58010000 		.4byte	.LVL64
 8330 0656 6C010000 		.4byte	.LVL65
 8331 065a 0100     		.2byte	0x1
 8332 065c 50       		.byte	0x50
 8333 065d CE010000 		.4byte	.LVL74
 8334 0661 DC010000 		.4byte	.LVL76
 8335 0665 0200     		.2byte	0x2
 8336 0667 30       		.byte	0x30
 8337 0668 9F       		.byte	0x9f
 8338 0669 E4010000 		.4byte	.LVL77
 8339 066d 14020000 		.4byte	.LVL81
 8340 0671 0200     		.2byte	0x2
 8341 0673 30       		.byte	0x30
 8342 0674 9F       		.byte	0x9f
 8343 0675 1A020000 		.4byte	.LVL83
 8344 0679 24020000 		.4byte	.LVL86
 8345 067d 0100     		.2byte	0x1
 8346 067f 50       		.byte	0x50
 8347 0680 40030000 		.4byte	.LVL103
 8348 0684 46030000 		.4byte	.LVL104
 8349 0688 0200     		.2byte	0x2
 8350 068a 30       		.byte	0x30
 8351 068b 9F       		.byte	0x9f
 8352 068c 46030000 		.4byte	.LVL104
 8353 0690 4B030000 		.4byte	.LVL105-1
 8354 0694 0100     		.2byte	0x1
 8355 0696 50       		.byte	0x50
 8356 0697 50030000 		.4byte	.LVL106
 8357 069b 7C030000 		.4byte	.LVL112
 8358 069f 0100     		.2byte	0x1
 8359 06a1 5B       		.byte	0x5b
 8360 06a2 8C030000 		.4byte	.LVL113
 8361 06a6 BA030000 		.4byte	.LVL117
ARM GAS  /tmp/ccAMfTfz.s 			page 148


 8362 06aa 0100     		.2byte	0x1
 8363 06ac 5B       		.byte	0x5b
 8364 06ad BA030000 		.4byte	.LVL117
 8365 06b1 C6030000 		.4byte	.LVL118
 8366 06b5 0200     		.2byte	0x2
 8367 06b7 30       		.byte	0x30
 8368 06b8 9F       		.byte	0x9f
 8369 06b9 CE030000 		.4byte	.LVL121
 8370 06bd FA030000 		.4byte	.LVL128
 8371 06c1 0100     		.2byte	0x1
 8372 06c3 5B       		.byte	0x5b
 8373 06c4 FA030000 		.4byte	.LVL128
 8374 06c8 08040000 		.4byte	.LVL129
 8375 06cc 0200     		.2byte	0x2
 8376 06ce 30       		.byte	0x30
 8377 06cf 9F       		.byte	0x9f
 8378 06d0 08040000 		.4byte	.LVL129
 8379 06d4 28040000 		.4byte	.LVL130
 8380 06d8 0100     		.2byte	0x1
 8381 06da 5B       		.byte	0x5b
 8382 06db 48040000 		.4byte	.LVL133
 8383 06df 5A040000 		.4byte	.LVL135
 8384 06e3 0200     		.2byte	0x2
 8385 06e5 30       		.byte	0x30
 8386 06e6 9F       		.byte	0x9f
 8387 06e7 62040000 		.4byte	.LVL137
 8388 06eb 94040000 		.4byte	.LVL139
 8389 06ef 0200     		.2byte	0x2
 8390 06f1 30       		.byte	0x30
 8391 06f2 9F       		.byte	0x9f
 8392 06f3 B0040000 		.4byte	.LVL143
 8393 06f7 B8040000 		.4byte	.LFE12
 8394 06fb 0200     		.2byte	0x2
 8395 06fd 30       		.byte	0x30
 8396 06fe 9F       		.byte	0x9f
 8397 06ff 00000000 		.4byte	0
 8398 0703 00000000 		.4byte	0
 8399              	.LLST27:
 8400 0707 00000000 		.4byte	.LVL42
 8401 070b F4000000 		.4byte	.LVL56
 8402 070f 0200     		.2byte	0x2
 8403 0711 30       		.byte	0x30
 8404 0712 9F       		.byte	0x9f
 8405 0713 F4000000 		.4byte	.LVL56
 8406 0717 76010000 		.4byte	.LVL67
 8407 071b 0100     		.2byte	0x1
 8408 071d 5A       		.byte	0x5a
 8409 071e 7A010000 		.4byte	.LVL69
 8410 0722 CE010000 		.4byte	.LVL74
 8411 0726 0100     		.2byte	0x1
 8412 0728 5A       		.byte	0x5a
 8413 0729 CE010000 		.4byte	.LVL74
 8414 072d DC010000 		.4byte	.LVL76
 8415 0731 0200     		.2byte	0x2
 8416 0733 30       		.byte	0x30
 8417 0734 9F       		.byte	0x9f
 8418 0735 E4010000 		.4byte	.LVL77
ARM GAS  /tmp/ccAMfTfz.s 			page 149


 8419 0739 14020000 		.4byte	.LVL81
 8420 073d 0200     		.2byte	0x2
 8421 073f 30       		.byte	0x30
 8422 0740 9F       		.byte	0x9f
 8423 0741 14020000 		.4byte	.LVL81
 8424 0745 22020000 		.4byte	.LVL85
 8425 0749 0100     		.2byte	0x1
 8426 074b 5A       		.byte	0x5a
 8427 074c 22020000 		.4byte	.LVL85
 8428 0750 24020000 		.4byte	.LVL86
 8429 0754 0100     		.2byte	0x1
 8430 0756 50       		.byte	0x50
 8431 0757 E2020000 		.4byte	.LVL96
 8432 075b 20030000 		.4byte	.LVL102
 8433 075f 0100     		.2byte	0x1
 8434 0761 5A       		.byte	0x5a
 8435 0762 40030000 		.4byte	.LVL103
 8436 0766 46030000 		.4byte	.LVL104
 8437 076a 0200     		.2byte	0x2
 8438 076c 30       		.byte	0x30
 8439 076d 9F       		.byte	0x9f
 8440 076e 46030000 		.4byte	.LVL104
 8441 0772 50030000 		.4byte	.LVL106
 8442 0776 0100     		.2byte	0x1
 8443 0778 5A       		.byte	0x5a
 8444 0779 50030000 		.4byte	.LVL106
 8445 077d C6030000 		.4byte	.LVL118
 8446 0781 0200     		.2byte	0x2
 8447 0783 30       		.byte	0x30
 8448 0784 9F       		.byte	0x9f
 8449 0785 C6030000 		.4byte	.LVL118
 8450 0789 CE030000 		.4byte	.LVL121
 8451 078d 0100     		.2byte	0x1
 8452 078f 5A       		.byte	0x5a
 8453 0790 CE030000 		.4byte	.LVL121
 8454 0794 28040000 		.4byte	.LVL130
 8455 0798 0200     		.2byte	0x2
 8456 079a 30       		.byte	0x30
 8457 079b 9F       		.byte	0x9f
 8458 079c 48040000 		.4byte	.LVL133
 8459 07a0 5A040000 		.4byte	.LVL135
 8460 07a4 0200     		.2byte	0x2
 8461 07a6 30       		.byte	0x30
 8462 07a7 9F       		.byte	0x9f
 8463 07a8 62040000 		.4byte	.LVL137
 8464 07ac 94040000 		.4byte	.LVL139
 8465 07b0 0200     		.2byte	0x2
 8466 07b2 30       		.byte	0x30
 8467 07b3 9F       		.byte	0x9f
 8468 07b4 A4040000 		.4byte	.LVL140
 8469 07b8 AA040000 		.4byte	.LVL141
 8470 07bc 0200     		.2byte	0x2
 8471 07be 30       		.byte	0x30
 8472 07bf 9F       		.byte	0x9f
 8473 07c0 B0040000 		.4byte	.LVL143
 8474 07c4 B8040000 		.4byte	.LFE12
 8475 07c8 0200     		.2byte	0x2
ARM GAS  /tmp/ccAMfTfz.s 			page 150


 8476 07ca 30       		.byte	0x30
 8477 07cb 9F       		.byte	0x9f
 8478 07cc 00000000 		.4byte	0
 8479 07d0 00000000 		.4byte	0
 8480              	.LLST28:
 8481 07d4 00000000 		.4byte	.LVL42
 8482 07d8 F4000000 		.4byte	.LVL56
 8483 07dc 0200     		.2byte	0x2
 8484 07de 30       		.byte	0x30
 8485 07df 9F       		.byte	0x9f
 8486 07e0 F4000000 		.4byte	.LVL56
 8487 07e4 CE010000 		.4byte	.LVL74
 8488 07e8 0300     		.2byte	0x3
 8489 07ea 91       		.byte	0x91
 8490 07eb A87F     		.sleb128 -88
 8491 07ed CE010000 		.4byte	.LVL74
 8492 07f1 DC010000 		.4byte	.LVL76
 8493 07f5 0200     		.2byte	0x2
 8494 07f7 30       		.byte	0x30
 8495 07f8 9F       		.byte	0x9f
 8496 07f9 E4010000 		.4byte	.LVL77
 8497 07fd 14020000 		.4byte	.LVL81
 8498 0801 0200     		.2byte	0x2
 8499 0803 30       		.byte	0x30
 8500 0804 9F       		.byte	0x9f
 8501 0805 14020000 		.4byte	.LVL81
 8502 0809 2A020000 		.4byte	.LVL87
 8503 080d 0300     		.2byte	0x3
 8504 080f 91       		.byte	0x91
 8505 0810 A87F     		.sleb128 -88
 8506 0812 E2020000 		.4byte	.LVL96
 8507 0816 20030000 		.4byte	.LVL102
 8508 081a 0300     		.2byte	0x3
 8509 081c 91       		.byte	0x91
 8510 081d A87F     		.sleb128 -88
 8511 081f 40030000 		.4byte	.LVL103
 8512 0823 46030000 		.4byte	.LVL104
 8513 0827 0200     		.2byte	0x2
 8514 0829 30       		.byte	0x30
 8515 082a 9F       		.byte	0x9f
 8516 082b 46030000 		.4byte	.LVL104
 8517 082f 50030000 		.4byte	.LVL106
 8518 0833 0300     		.2byte	0x3
 8519 0835 91       		.byte	0x91
 8520 0836 A87F     		.sleb128 -88
 8521 0838 50030000 		.4byte	.LVL106
 8522 083c C6030000 		.4byte	.LVL118
 8523 0840 0200     		.2byte	0x2
 8524 0842 30       		.byte	0x30
 8525 0843 9F       		.byte	0x9f
 8526 0844 C6030000 		.4byte	.LVL118
 8527 0848 CE030000 		.4byte	.LVL121
 8528 084c 0300     		.2byte	0x3
 8529 084e 91       		.byte	0x91
 8530 084f A87F     		.sleb128 -88
 8531 0851 CE030000 		.4byte	.LVL121
 8532 0855 28040000 		.4byte	.LVL130
ARM GAS  /tmp/ccAMfTfz.s 			page 151


 8533 0859 0200     		.2byte	0x2
 8534 085b 30       		.byte	0x30
 8535 085c 9F       		.byte	0x9f
 8536 085d 48040000 		.4byte	.LVL133
 8537 0861 5A040000 		.4byte	.LVL135
 8538 0865 0200     		.2byte	0x2
 8539 0867 30       		.byte	0x30
 8540 0868 9F       		.byte	0x9f
 8541 0869 62040000 		.4byte	.LVL137
 8542 086d 94040000 		.4byte	.LVL139
 8543 0871 0200     		.2byte	0x2
 8544 0873 30       		.byte	0x30
 8545 0874 9F       		.byte	0x9f
 8546 0875 A4040000 		.4byte	.LVL140
 8547 0879 AA040000 		.4byte	.LVL141
 8548 087d 0200     		.2byte	0x2
 8549 087f 30       		.byte	0x30
 8550 0880 9F       		.byte	0x9f
 8551 0881 B0040000 		.4byte	.LVL143
 8552 0885 B8040000 		.4byte	.LFE12
 8553 0889 0200     		.2byte	0x2
 8554 088b 30       		.byte	0x30
 8555 088c 9F       		.byte	0x9f
 8556 088d 00000000 		.4byte	0
 8557 0891 00000000 		.4byte	0
 8558              	.LLST29:
 8559 0895 00000000 		.4byte	.LVL42
 8560 0899 B0000000 		.4byte	.LVL54
 8561 089d 0200     		.2byte	0x2
 8562 089f 30       		.byte	0x30
 8563 08a0 9F       		.byte	0x9f
 8564 08a1 CE000000 		.4byte	.LVL55
 8565 08a5 6E010000 		.4byte	.LVL66
 8566 08a9 0100     		.2byte	0x1
 8567 08ab 54       		.byte	0x54
 8568 08ac 76010000 		.4byte	.LVL67
 8569 08b0 78010000 		.4byte	.LVL68
 8570 08b4 0100     		.2byte	0x1
 8571 08b6 54       		.byte	0x54
 8572 08b7 7A010000 		.4byte	.LVL69
 8573 08bb CE010000 		.4byte	.LVL74
 8574 08bf 0100     		.2byte	0x1
 8575 08c1 54       		.byte	0x54
 8576 08c2 CE010000 		.4byte	.LVL74
 8577 08c6 DC010000 		.4byte	.LVL76
 8578 08ca 0200     		.2byte	0x2
 8579 08cc 30       		.byte	0x30
 8580 08cd 9F       		.byte	0x9f
 8581 08ce E4010000 		.4byte	.LVL77
 8582 08d2 14020000 		.4byte	.LVL81
 8583 08d6 0200     		.2byte	0x2
 8584 08d8 30       		.byte	0x30
 8585 08d9 9F       		.byte	0x9f
 8586 08da 14020000 		.4byte	.LVL81
 8587 08de 1C020000 		.4byte	.LVL84
 8588 08e2 0100     		.2byte	0x1
 8589 08e4 54       		.byte	0x54
ARM GAS  /tmp/ccAMfTfz.s 			page 152


 8590 08e5 22020000 		.4byte	.LVL85
 8591 08e9 24020000 		.4byte	.LVL86
 8592 08ed 0100     		.2byte	0x1
 8593 08ef 54       		.byte	0x54
 8594 08f0 E2020000 		.4byte	.LVL96
 8595 08f4 20030000 		.4byte	.LVL102
 8596 08f8 0100     		.2byte	0x1
 8597 08fa 54       		.byte	0x54
 8598 08fb 40030000 		.4byte	.LVL103
 8599 08ff 46030000 		.4byte	.LVL104
 8600 0903 0200     		.2byte	0x2
 8601 0905 30       		.byte	0x30
 8602 0906 9F       		.byte	0x9f
 8603 0907 46030000 		.4byte	.LVL104
 8604 090b 50030000 		.4byte	.LVL106
 8605 090f 0100     		.2byte	0x1
 8606 0911 54       		.byte	0x54
 8607 0912 50030000 		.4byte	.LVL106
 8608 0916 66030000 		.4byte	.LVL109
 8609 091a 0200     		.2byte	0x2
 8610 091c 30       		.byte	0x30
 8611 091d 9F       		.byte	0x9f
 8612 091e 66030000 		.4byte	.LVL109
 8613 0922 7C030000 		.4byte	.LVL112
 8614 0926 0200     		.2byte	0x2
 8615 0928 91       		.byte	0x91
 8616 0929 40       		.sleb128 -64
 8617 092a BA030000 		.4byte	.LVL117
 8618 092e C6030000 		.4byte	.LVL118
 8619 0932 0200     		.2byte	0x2
 8620 0934 30       		.byte	0x30
 8621 0935 9F       		.byte	0x9f
 8622 0936 C6030000 		.4byte	.LVL118
 8623 093a CE030000 		.4byte	.LVL121
 8624 093e 0100     		.2byte	0x1
 8625 0940 54       		.byte	0x54
 8626 0941 F4030000 		.4byte	.LVL126
 8627 0945 FA030000 		.4byte	.LVL128
 8628 0949 0100     		.2byte	0x1
 8629 094b 54       		.byte	0x54
 8630 094c FA030000 		.4byte	.LVL128
 8631 0950 08040000 		.4byte	.LVL129
 8632 0954 0200     		.2byte	0x2
 8633 0956 30       		.byte	0x30
 8634 0957 9F       		.byte	0x9f
 8635 0958 48040000 		.4byte	.LVL133
 8636 095c 5A040000 		.4byte	.LVL135
 8637 0960 0200     		.2byte	0x2
 8638 0962 30       		.byte	0x30
 8639 0963 9F       		.byte	0x9f
 8640 0964 62040000 		.4byte	.LVL137
 8641 0968 94040000 		.4byte	.LVL139
 8642 096c 0200     		.2byte	0x2
 8643 096e 30       		.byte	0x30
 8644 096f 9F       		.byte	0x9f
 8645 0970 A4040000 		.4byte	.LVL140
 8646 0974 AA040000 		.4byte	.LVL141
ARM GAS  /tmp/ccAMfTfz.s 			page 153


 8647 0978 0100     		.2byte	0x1
 8648 097a 54       		.byte	0x54
 8649 097b B0040000 		.4byte	.LVL143
 8650 097f B8040000 		.4byte	.LFE12
 8651 0983 0200     		.2byte	0x2
 8652 0985 30       		.byte	0x30
 8653 0986 9F       		.byte	0x9f
 8654 0987 00000000 		.4byte	0
 8655 098b 00000000 		.4byte	0
 8656              	.LLST30:
 8657 098f 62000000 		.4byte	.LVL49
 8658 0993 6E000000 		.4byte	.LVL50
 8659 0997 0100     		.2byte	0x1
 8660 0999 57       		.byte	0x57
 8661 099a CE000000 		.4byte	.LVL55
 8662 099e 3A010000 		.4byte	.LVL62
 8663 09a2 0100     		.2byte	0x1
 8664 09a4 57       		.byte	0x57
 8665 09a5 3A010000 		.4byte	.LVL62
 8666 09a9 46010000 		.4byte	.LVL63
 8667 09ad 0100     		.2byte	0x1
 8668 09af 50       		.byte	0x50
 8669 09b0 46010000 		.4byte	.LVL63
 8670 09b4 78010000 		.4byte	.LVL68
 8671 09b8 0100     		.2byte	0x1
 8672 09ba 57       		.byte	0x57
 8673 09bb 7A010000 		.4byte	.LVL69
 8674 09bf CE010000 		.4byte	.LVL74
 8675 09c3 0100     		.2byte	0x1
 8676 09c5 57       		.byte	0x57
 8677 09c6 F6010000 		.4byte	.LVL79
 8678 09ca FE010000 		.4byte	.LVL80
 8679 09ce 0300     		.2byte	0x3
 8680 09d0 78       		.byte	0x78
 8681 09d1 E800     		.sleb128 104
 8682 09d3 FE010000 		.4byte	.LVL80
 8683 09d7 24020000 		.4byte	.LVL86
 8684 09db 0100     		.2byte	0x1
 8685 09dd 57       		.byte	0x57
 8686 09de E2020000 		.4byte	.LVL96
 8687 09e2 EE020000 		.4byte	.LVL100
 8688 09e6 0100     		.2byte	0x1
 8689 09e8 57       		.byte	0x57
 8690 09e9 46030000 		.4byte	.LVL104
 8691 09ed 50030000 		.4byte	.LVL106
 8692 09f1 0100     		.2byte	0x1
 8693 09f3 57       		.byte	0x57
 8694 09f4 C6030000 		.4byte	.LVL118
 8695 09f8 C8030000 		.4byte	.LVL119
 8696 09fc 0100     		.2byte	0x1
 8697 09fe 50       		.byte	0x50
 8698 09ff C8030000 		.4byte	.LVL119
 8699 0a03 CE030000 		.4byte	.LVL121
 8700 0a07 0100     		.2byte	0x1
 8701 0a09 57       		.byte	0x57
 8702 0a0a F6030000 		.4byte	.LVL127
 8703 0a0e FA030000 		.4byte	.LVL128
ARM GAS  /tmp/ccAMfTfz.s 			page 154


 8704 0a12 0100     		.2byte	0x1
 8705 0a14 50       		.byte	0x50
 8706 0a15 48040000 		.4byte	.LVL133
 8707 0a19 5A040000 		.4byte	.LVL135
 8708 0a1d 0100     		.2byte	0x1
 8709 0a1f 57       		.byte	0x57
 8710 0a20 A4040000 		.4byte	.LVL140
 8711 0a24 AA040000 		.4byte	.LVL141
 8712 0a28 0100     		.2byte	0x1
 8713 0a2a 57       		.byte	0x57
 8714 0a2b 00000000 		.4byte	0
 8715 0a2f 00000000 		.4byte	0
 8716              	.LLST31:
 8717 0a33 26000000 		.4byte	.LVL45
 8718 0a37 B0000000 		.4byte	.LVL54
 8719 0a3b 0200     		.2byte	0x2
 8720 0a3d 30       		.byte	0x30
 8721 0a3e 9F       		.byte	0x9f
 8722 0a3f CE000000 		.4byte	.LVL55
 8723 0a43 F4000000 		.4byte	.LVL56
 8724 0a47 0200     		.2byte	0x2
 8725 0a49 91       		.byte	0x91
 8726 0a4a 40       		.sleb128 -64
 8727 0a4b CE010000 		.4byte	.LVL74
 8728 0a4f DC010000 		.4byte	.LVL76
 8729 0a53 0200     		.2byte	0x2
 8730 0a55 30       		.byte	0x30
 8731 0a56 9F       		.byte	0x9f
 8732 0a57 E4010000 		.4byte	.LVL77
 8733 0a5b 14020000 		.4byte	.LVL81
 8734 0a5f 0200     		.2byte	0x2
 8735 0a61 30       		.byte	0x30
 8736 0a62 9F       		.byte	0x9f
 8737 0a63 40030000 		.4byte	.LVL103
 8738 0a67 46030000 		.4byte	.LVL104
 8739 0a6b 0200     		.2byte	0x2
 8740 0a6d 30       		.byte	0x30
 8741 0a6e 9F       		.byte	0x9f
 8742 0a6f 50030000 		.4byte	.LVL106
 8743 0a73 66030000 		.4byte	.LVL109
 8744 0a77 0200     		.2byte	0x2
 8745 0a79 30       		.byte	0x30
 8746 0a7a 9F       		.byte	0x9f
 8747 0a7b 66030000 		.4byte	.LVL109
 8748 0a7f 7C030000 		.4byte	.LVL112
 8749 0a83 0200     		.2byte	0x2
 8750 0a85 91       		.byte	0x91
 8751 0a86 40       		.sleb128 -64
 8752 0a87 BA030000 		.4byte	.LVL117
 8753 0a8b C6030000 		.4byte	.LVL118
 8754 0a8f 0200     		.2byte	0x2
 8755 0a91 30       		.byte	0x30
 8756 0a92 9F       		.byte	0x9f
 8757 0a93 FA030000 		.4byte	.LVL128
 8758 0a97 08040000 		.4byte	.LVL129
 8759 0a9b 0200     		.2byte	0x2
 8760 0a9d 30       		.byte	0x30
ARM GAS  /tmp/ccAMfTfz.s 			page 155


 8761 0a9e 9F       		.byte	0x9f
 8762 0a9f 48040000 		.4byte	.LVL133
 8763 0aa3 5A040000 		.4byte	.LVL135
 8764 0aa7 0200     		.2byte	0x2
 8765 0aa9 30       		.byte	0x30
 8766 0aaa 9F       		.byte	0x9f
 8767 0aab 62040000 		.4byte	.LVL137
 8768 0aaf 94040000 		.4byte	.LVL139
 8769 0ab3 0200     		.2byte	0x2
 8770 0ab5 30       		.byte	0x30
 8771 0ab6 9F       		.byte	0x9f
 8772 0ab7 A4040000 		.4byte	.LVL140
 8773 0abb AA040000 		.4byte	.LVL141
 8774 0abf 0200     		.2byte	0x2
 8775 0ac1 91       		.byte	0x91
 8776 0ac2 40       		.sleb128 -64
 8777 0ac3 B0040000 		.4byte	.LVL143
 8778 0ac7 B8040000 		.4byte	.LFE12
 8779 0acb 0200     		.2byte	0x2
 8780 0acd 30       		.byte	0x30
 8781 0ace 9F       		.byte	0x9f
 8782 0acf 00000000 		.4byte	0
 8783 0ad3 00000000 		.4byte	0
 8784              	.LLST32:
 8785 0ad7 2C000000 		.4byte	.LVL46
 8786 0adb 6E000000 		.4byte	.LVL50
 8787 0adf 0100     		.2byte	0x1
 8788 0ae1 52       		.byte	0x52
 8789 0ae2 6E000000 		.4byte	.LVL50
 8790 0ae6 CE010000 		.4byte	.LVL74
 8791 0aea 0100     		.2byte	0x1
 8792 0aec 59       		.byte	0x59
 8793 0aed CE010000 		.4byte	.LVL74
 8794 0af1 DC010000 		.4byte	.LVL76
 8795 0af5 0100     		.2byte	0x1
 8796 0af7 52       		.byte	0x52
 8797 0af8 E4010000 		.4byte	.LVL77
 8798 0afc ED010000 		.4byte	.LVL78-1
 8799 0b00 0100     		.2byte	0x1
 8800 0b02 52       		.byte	0x52
 8801 0b03 ED010000 		.4byte	.LVL78-1
 8802 0b07 B4020000 		.4byte	.LVL95
 8803 0b0b 0100     		.2byte	0x1
 8804 0b0d 59       		.byte	0x59
 8805 0b0e E2020000 		.4byte	.LVL96
 8806 0b12 40030000 		.4byte	.LVL103
 8807 0b16 0100     		.2byte	0x1
 8808 0b18 59       		.byte	0x59
 8809 0b19 40030000 		.4byte	.LVL103
 8810 0b1d 46030000 		.4byte	.LVL104
 8811 0b21 0100     		.2byte	0x1
 8812 0b23 52       		.byte	0x52
 8813 0b24 46030000 		.4byte	.LVL104
 8814 0b28 BA030000 		.4byte	.LVL117
 8815 0b2c 0100     		.2byte	0x1
 8816 0b2e 59       		.byte	0x59
 8817 0b2f BA030000 		.4byte	.LVL117
ARM GAS  /tmp/ccAMfTfz.s 			page 156


 8818 0b33 C6030000 		.4byte	.LVL118
 8819 0b37 0100     		.2byte	0x1
 8820 0b39 52       		.byte	0x52
 8821 0b3a C6030000 		.4byte	.LVL118
 8822 0b3e FA030000 		.4byte	.LVL128
 8823 0b42 0100     		.2byte	0x1
 8824 0b44 59       		.byte	0x59
 8825 0b45 FA030000 		.4byte	.LVL128
 8826 0b49 08040000 		.4byte	.LVL129
 8827 0b4d 0100     		.2byte	0x1
 8828 0b4f 52       		.byte	0x52
 8829 0b50 08040000 		.4byte	.LVL129
 8830 0b54 28040000 		.4byte	.LVL130
 8831 0b58 0100     		.2byte	0x1
 8832 0b5a 59       		.byte	0x59
 8833 0b5b 48040000 		.4byte	.LVL133
 8834 0b5f 62040000 		.4byte	.LVL137
 8835 0b63 0100     		.2byte	0x1
 8836 0b65 59       		.byte	0x59
 8837 0b66 62040000 		.4byte	.LVL137
 8838 0b6a 80040000 		.4byte	.LVL138
 8839 0b6e 0100     		.2byte	0x1
 8840 0b70 52       		.byte	0x52
 8841 0b71 80040000 		.4byte	.LVL138
 8842 0b75 B0040000 		.4byte	.LVL143
 8843 0b79 0100     		.2byte	0x1
 8844 0b7b 59       		.byte	0x59
 8845 0b7c 00000000 		.4byte	0
 8846 0b80 00000000 		.4byte	0
 8847              	.LLST33:
 8848 0b84 2C000000 		.4byte	.LVL46
 8849 0b88 DC010000 		.4byte	.LVL76
 8850 0b8c 0100     		.2byte	0x1
 8851 0b8e 58       		.byte	0x58
 8852 0b8f E4010000 		.4byte	.LVL77
 8853 0b93 B0040000 		.4byte	.LVL143
 8854 0b97 0100     		.2byte	0x1
 8855 0b99 58       		.byte	0x58
 8856 0b9a 00000000 		.4byte	0
 8857 0b9e 00000000 		.4byte	0
 8858              	.LLST34:
 8859 0ba2 A4000000 		.4byte	.LVL53
 8860 0ba6 B0000000 		.4byte	.LVL54
 8861 0baa 0100     		.2byte	0x1
 8862 0bac 56       		.byte	0x56
 8863 0bad 50030000 		.4byte	.LVL106
 8864 0bb1 5E030000 		.4byte	.LVL108
 8865 0bb5 0100     		.2byte	0x1
 8866 0bb7 56       		.byte	0x56
 8867 0bb8 5E030000 		.4byte	.LVL108
 8868 0bbc 6C030000 		.4byte	.LVL110
 8869 0bc0 2000     		.2byte	0x20
 8870 0bc2 70       		.byte	0x70
 8871 0bc3 00       		.sleb128 0
 8872 0bc4 30       		.byte	0x30
 8873 0bc5 3C       		.byte	0x3c
 8874 0bc6 7B       		.byte	0x7b
ARM GAS  /tmp/ccAMfTfz.s 			page 157


 8875 0bc7 0A       		.sleb128 10
 8876 0bc8 94       		.byte	0x94
 8877 0bc9 01       		.byte	0x1
 8878 0bca 08       		.byte	0x8
 8879 0bcb FF       		.byte	0xff
 8880 0bcc 1A       		.byte	0x1a
 8881 0bcd 32       		.byte	0x32
 8882 0bce 24       		.byte	0x24
 8883 0bcf 33       		.byte	0x33
 8884 0bd0 25       		.byte	0x25
 8885 0bd1 30       		.byte	0x30
 8886 0bd2 29       		.byte	0x29
 8887 0bd3 28       		.byte	0x28
 8888 0bd4 0100     		.2byte	0x1
 8889 0bd6 16       		.byte	0x16
 8890 0bd7 13       		.byte	0x13
 8891 0bd8 1C       		.byte	0x1c
 8892 0bd9 71       		.byte	0x71
 8893 0bda 00       		.sleb128 0
 8894 0bdb 1C       		.byte	0x1c
 8895 0bdc 7B       		.byte	0x7b
 8896 0bdd 08       		.sleb128 8
 8897 0bde 94       		.byte	0x94
 8898 0bdf 02       		.byte	0x2
 8899 0be0 1C       		.byte	0x1c
 8900 0be1 9F       		.byte	0x9f
 8901 0be2 6C030000 		.4byte	.LVL110
 8902 0be6 7C030000 		.4byte	.LVL112
 8903 0bea 0100     		.2byte	0x1
 8904 0bec 56       		.byte	0x56
 8905 0bed 00000000 		.4byte	0
 8906 0bf1 00000000 		.4byte	0
 8907              	.LLST35:
 8908 0bf5 A0000000 		.4byte	.LVL52
 8909 0bf9 B0000000 		.4byte	.LVL54
 8910 0bfd 0700     		.2byte	0x7
 8911 0bff 73       		.byte	0x73
 8912 0c00 00       		.sleb128 0
 8913 0c01 1F       		.byte	0x1f
 8914 0c02 71       		.byte	0x71
 8915 0c03 00       		.sleb128 0
 8916 0c04 1C       		.byte	0x1c
 8917 0c05 9F       		.byte	0x9f
 8918 0c06 50030000 		.4byte	.LVL106
 8919 0c0a 58030000 		.4byte	.LVL107
 8920 0c0e 0700     		.2byte	0x7
 8921 0c10 73       		.byte	0x73
 8922 0c11 00       		.sleb128 0
 8923 0c12 1F       		.byte	0x1f
 8924 0c13 71       		.byte	0x71
 8925 0c14 00       		.sleb128 0
 8926 0c15 1C       		.byte	0x1c
 8927 0c16 9F       		.byte	0x9f
 8928 0c17 58030000 		.4byte	.LVL107
 8929 0c1b 77030000 		.4byte	.LVL111-1
 8930 0c1f 1900     		.2byte	0x19
 8931 0c21 30       		.byte	0x30
ARM GAS  /tmp/ccAMfTfz.s 			page 158


 8932 0c22 3C       		.byte	0x3c
 8933 0c23 7B       		.byte	0x7b
 8934 0c24 0A       		.sleb128 10
 8935 0c25 94       		.byte	0x94
 8936 0c26 01       		.byte	0x1
 8937 0c27 08       		.byte	0x8
 8938 0c28 FF       		.byte	0xff
 8939 0c29 1A       		.byte	0x1a
 8940 0c2a 32       		.byte	0x32
 8941 0c2b 24       		.byte	0x24
 8942 0c2c 33       		.byte	0x33
 8943 0c2d 25       		.byte	0x25
 8944 0c2e 30       		.byte	0x30
 8945 0c2f 29       		.byte	0x29
 8946 0c30 28       		.byte	0x28
 8947 0c31 0100     		.2byte	0x1
 8948 0c33 16       		.byte	0x16
 8949 0c34 13       		.byte	0x13
 8950 0c35 1F       		.byte	0x1f
 8951 0c36 71       		.byte	0x71
 8952 0c37 00       		.sleb128 0
 8953 0c38 1C       		.byte	0x1c
 8954 0c39 9F       		.byte	0x9f
 8955 0c3a 00000000 		.4byte	0
 8956 0c3e 00000000 		.4byte	0
 8957              	.LLST36:
 8958 0c42 8C030000 		.4byte	.LVL113
 8959 0c46 BA030000 		.4byte	.LVL117
 8960 0c4a 0100     		.2byte	0x1
 8961 0c4c 54       		.byte	0x54
 8962 0c4d CE030000 		.4byte	.LVL121
 8963 0c51 EC030000 		.4byte	.LVL124
 8964 0c55 0100     		.2byte	0x1
 8965 0c57 54       		.byte	0x54
 8966 0c58 EC030000 		.4byte	.LVL124
 8967 0c5c FA030000 		.4byte	.LVL128
 8968 0c60 1200     		.2byte	0x12
 8969 0c62 79       		.byte	0x79
 8970 0c63 00       		.sleb128 0
 8971 0c64 91       		.byte	0x91
 8972 0c65 40       		.sleb128 -64
 8973 0c66 06       		.byte	0x6
 8974 0c67 1C       		.byte	0x1c
 8975 0c68 12       		.byte	0x12
 8976 0c69 76       		.byte	0x76
 8977 0c6a 00       		.sleb128 0
 8978 0c6b 16       		.byte	0x16
 8979 0c6c 14       		.byte	0x14
 8980 0c6d 2D       		.byte	0x2d
 8981 0c6e 28       		.byte	0x28
 8982 0c6f 0100     		.2byte	0x1
 8983 0c71 16       		.byte	0x16
 8984 0c72 13       		.byte	0x13
 8985 0c73 9F       		.byte	0x9f
 8986 0c74 08040000 		.4byte	.LVL129
 8987 0c78 28040000 		.4byte	.LVL130
 8988 0c7c 0100     		.2byte	0x1
ARM GAS  /tmp/ccAMfTfz.s 			page 159


 8989 0c7e 54       		.byte	0x54
 8990 0c7f 00000000 		.4byte	0
 8991 0c83 00000000 		.4byte	0
 8992              	.LLST37:
 8993 0c87 22010000 		.4byte	.LVL59
 8994 0c8b 2F010000 		.4byte	.LVL60-1
 8995 0c8f 0100     		.2byte	0x1
 8996 0c91 50       		.byte	0x50
 8997 0c92 2F010000 		.4byte	.LVL60-1
 8998 0c96 7A010000 		.4byte	.LVL69
 8999 0c9a 0100     		.2byte	0x1
 9000 0c9c 55       		.byte	0x55
 9001 0c9d B0010000 		.4byte	.LVL71
 9002 0ca1 C0010000 		.4byte	.LVL72
 9003 0ca5 0100     		.2byte	0x1
 9004 0ca7 50       		.byte	0x50
 9005 0ca8 C0010000 		.4byte	.LVL72
 9006 0cac CE010000 		.4byte	.LVL74
 9007 0cb0 0100     		.2byte	0x1
 9008 0cb2 55       		.byte	0x55
 9009 0cb3 1A020000 		.4byte	.LVL83
 9010 0cb7 2A020000 		.4byte	.LVL87
 9011 0cbb 0100     		.2byte	0x1
 9012 0cbd 55       		.byte	0x55
 9013 0cbe E2020000 		.4byte	.LVL96
 9014 0cc2 E5020000 		.4byte	.LVL97-1
 9015 0cc6 0100     		.2byte	0x1
 9016 0cc8 50       		.byte	0x50
 9017 0cc9 E5020000 		.4byte	.LVL97-1
 9018 0ccd E8020000 		.4byte	.LVL98
 9019 0cd1 0100     		.2byte	0x1
 9020 0cd3 55       		.byte	0x55
 9021 0cd4 E8020000 		.4byte	.LVL98
 9022 0cd8 EA020000 		.4byte	.LVL99
 9023 0cdc 0100     		.2byte	0x1
 9024 0cde 50       		.byte	0x50
 9025 0cdf EA020000 		.4byte	.LVL99
 9026 0ce3 EE020000 		.4byte	.LVL100
 9027 0ce7 0100     		.2byte	0x1
 9028 0ce9 55       		.byte	0x55
 9029 0cea 46030000 		.4byte	.LVL104
 9030 0cee 50030000 		.4byte	.LVL106
 9031 0cf2 0100     		.2byte	0x1
 9032 0cf4 55       		.byte	0x55
 9033 0cf5 C6030000 		.4byte	.LVL118
 9034 0cf9 CE030000 		.4byte	.LVL121
 9035 0cfd 0100     		.2byte	0x1
 9036 0cff 55       		.byte	0x55
 9037 0d00 00000000 		.4byte	0
 9038 0d04 00000000 		.4byte	0
 9039              	.LLST38:
 9040 0d08 F4000000 		.4byte	.LVL56
 9041 0d0c 6E010000 		.4byte	.LVL66
 9042 0d10 0600     		.2byte	0x6
 9043 0d12 79       		.byte	0x79
 9044 0d13 00       		.sleb128 0
 9045 0d14 74       		.byte	0x74
ARM GAS  /tmp/ccAMfTfz.s 			page 160


 9046 0d15 00       		.sleb128 0
 9047 0d16 1C       		.byte	0x1c
 9048 0d17 9F       		.byte	0x9f
 9049 0d18 7A010000 		.4byte	.LVL69
 9050 0d1c CE010000 		.4byte	.LVL74
 9051 0d20 0600     		.2byte	0x6
 9052 0d22 79       		.byte	0x79
 9053 0d23 00       		.sleb128 0
 9054 0d24 74       		.byte	0x74
 9055 0d25 00       		.sleb128 0
 9056 0d26 1C       		.byte	0x1c
 9057 0d27 9F       		.byte	0x9f
 9058 0d28 14020000 		.4byte	.LVL81
 9059 0d2c 1C020000 		.4byte	.LVL84
 9060 0d30 0600     		.2byte	0x6
 9061 0d32 79       		.byte	0x79
 9062 0d33 00       		.sleb128 0
 9063 0d34 74       		.byte	0x74
 9064 0d35 00       		.sleb128 0
 9065 0d36 1C       		.byte	0x1c
 9066 0d37 9F       		.byte	0x9f
 9067 0d38 E2020000 		.4byte	.LVL96
 9068 0d3c 20030000 		.4byte	.LVL102
 9069 0d40 0600     		.2byte	0x6
 9070 0d42 79       		.byte	0x79
 9071 0d43 00       		.sleb128 0
 9072 0d44 74       		.byte	0x74
 9073 0d45 00       		.sleb128 0
 9074 0d46 1C       		.byte	0x1c
 9075 0d47 9F       		.byte	0x9f
 9076 0d48 46030000 		.4byte	.LVL104
 9077 0d4c 50030000 		.4byte	.LVL106
 9078 0d50 0600     		.2byte	0x6
 9079 0d52 79       		.byte	0x79
 9080 0d53 00       		.sleb128 0
 9081 0d54 74       		.byte	0x74
 9082 0d55 00       		.sleb128 0
 9083 0d56 1C       		.byte	0x1c
 9084 0d57 9F       		.byte	0x9f
 9085 0d58 C6030000 		.4byte	.LVL118
 9086 0d5c CE030000 		.4byte	.LVL121
 9087 0d60 0600     		.2byte	0x6
 9088 0d62 79       		.byte	0x79
 9089 0d63 00       		.sleb128 0
 9090 0d64 74       		.byte	0x74
 9091 0d65 00       		.sleb128 0
 9092 0d66 1C       		.byte	0x1c
 9093 0d67 9F       		.byte	0x9f
 9094 0d68 00000000 		.4byte	0
 9095 0d6c 00000000 		.4byte	0
 9096              	.LLST39:
 9097 0d70 F4000000 		.4byte	.LVL56
 9098 0d74 CE010000 		.4byte	.LVL74
 9099 0d78 0300     		.2byte	0x3
 9100 0d7a 91       		.byte	0x91
 9101 0d7b AC7F     		.sleb128 -84
 9102 0d7d 14020000 		.4byte	.LVL81
ARM GAS  /tmp/ccAMfTfz.s 			page 161


 9103 0d81 2A020000 		.4byte	.LVL87
 9104 0d85 0300     		.2byte	0x3
 9105 0d87 91       		.byte	0x91
 9106 0d88 AC7F     		.sleb128 -84
 9107 0d8a E2020000 		.4byte	.LVL96
 9108 0d8e 20030000 		.4byte	.LVL102
 9109 0d92 0300     		.2byte	0x3
 9110 0d94 91       		.byte	0x91
 9111 0d95 AC7F     		.sleb128 -84
 9112 0d97 46030000 		.4byte	.LVL104
 9113 0d9b 50030000 		.4byte	.LVL106
 9114 0d9f 0300     		.2byte	0x3
 9115 0da1 91       		.byte	0x91
 9116 0da2 AC7F     		.sleb128 -84
 9117 0da4 C6030000 		.4byte	.LVL118
 9118 0da8 CE030000 		.4byte	.LVL121
 9119 0dac 0300     		.2byte	0x3
 9120 0dae 91       		.byte	0x91
 9121 0daf AC7F     		.sleb128 -84
 9122 0db1 00000000 		.4byte	0
 9123 0db5 00000000 		.4byte	0
 9124              	.LLST40:
 9125 0db9 F4000000 		.4byte	.LVL56
 9126 0dbd 7A010000 		.4byte	.LVL69
 9127 0dc1 0100     		.2byte	0x1
 9128 0dc3 56       		.byte	0x56
 9129 0dc4 8A010000 		.4byte	.LVL70
 9130 0dc8 CE010000 		.4byte	.LVL74
 9131 0dcc 0100     		.2byte	0x1
 9132 0dce 56       		.byte	0x56
 9133 0dcf 14020000 		.4byte	.LVL81
 9134 0dd3 2A020000 		.4byte	.LVL87
 9135 0dd7 0100     		.2byte	0x1
 9136 0dd9 56       		.byte	0x56
 9137 0dda E2020000 		.4byte	.LVL96
 9138 0dde 20030000 		.4byte	.LVL102
 9139 0de2 0100     		.2byte	0x1
 9140 0de4 56       		.byte	0x56
 9141 0de5 46030000 		.4byte	.LVL104
 9142 0de9 50030000 		.4byte	.LVL106
 9143 0ded 0100     		.2byte	0x1
 9144 0def 56       		.byte	0x56
 9145 0df0 C6030000 		.4byte	.LVL118
 9146 0df4 CE030000 		.4byte	.LVL121
 9147 0df8 0100     		.2byte	0x1
 9148 0dfa 56       		.byte	0x56
 9149 0dfb 00000000 		.4byte	0
 9150 0dff 00000000 		.4byte	0
 9151              	.LLST41:
 9152 0e03 08010000 		.4byte	.LVL57
 9153 0e07 14010000 		.4byte	.LVL58
 9154 0e0b 0100     		.2byte	0x1
 9155 0e0d 50       		.byte	0x50
 9156 0e0e 14010000 		.4byte	.LVL58
 9157 0e12 30010000 		.4byte	.LVL60
 9158 0e16 0100     		.2byte	0x1
 9159 0e18 5B       		.byte	0x5b
ARM GAS  /tmp/ccAMfTfz.s 			page 162


 9160 0e19 E8020000 		.4byte	.LVL98
 9161 0e1d EE020000 		.4byte	.LVL100
 9162 0e21 0100     		.2byte	0x1
 9163 0e23 5B       		.byte	0x5b
 9164 0e24 00000000 		.4byte	0
 9165 0e28 00000000 		.4byte	0
 9166              	.LLST42:
 9167 0e2c 32020000 		.4byte	.LVL88
 9168 0e30 38020000 		.4byte	.LVL89
 9169 0e34 0100     		.2byte	0x1
 9170 0e36 54       		.byte	0x54
 9171 0e37 3A020000 		.4byte	.LVL90
 9172 0e3b 58020000 		.4byte	.LVL92
 9173 0e3f 0100     		.2byte	0x1
 9174 0e41 54       		.byte	0x54
 9175 0e42 58020000 		.4byte	.LVL92
 9176 0e46 60020000 		.4byte	.LVL93
 9177 0e4a 0100     		.2byte	0x1
 9178 0e4c 53       		.byte	0x53
 9179 0e4d 00000000 		.4byte	0
 9180 0e51 00000000 		.4byte	0
 9181              	.LLST43:
 9182 0e55 00000000 		.4byte	.LVL145
 9183 0e59 10000000 		.4byte	.LVL146
 9184 0e5d 0100     		.2byte	0x1
 9185 0e5f 50       		.byte	0x50
 9186 0e60 10000000 		.4byte	.LVL146
 9187 0e64 D4000000 		.4byte	.LVL161
 9188 0e68 0100     		.2byte	0x1
 9189 0e6a 55       		.byte	0x55
 9190 0e6b D4000000 		.4byte	.LVL161
 9191 0e6f D7000000 		.4byte	.LVL162-1
 9192 0e73 0100     		.2byte	0x1
 9193 0e75 50       		.byte	0x50
 9194 0e76 D7000000 		.4byte	.LVL162-1
 9195 0e7a 54010000 		.4byte	.LFE13
 9196 0e7e 0100     		.2byte	0x1
 9197 0e80 55       		.byte	0x55
 9198 0e81 00000000 		.4byte	0
 9199 0e85 00000000 		.4byte	0
 9200              	.LLST44:
 9201 0e89 00000000 		.4byte	.LVL145
 9202 0e8d 10000000 		.4byte	.LVL146
 9203 0e91 0100     		.2byte	0x1
 9204 0e93 51       		.byte	0x51
 9205 0e94 10000000 		.4byte	.LVL146
 9206 0e98 D4000000 		.4byte	.LVL161
 9207 0e9c 0400     		.2byte	0x4
 9208 0e9e F3       		.byte	0xf3
 9209 0e9f 01       		.uleb128 0x1
 9210 0ea0 51       		.byte	0x51
 9211 0ea1 9F       		.byte	0x9f
 9212 0ea2 D4000000 		.4byte	.LVL161
 9213 0ea6 D7000000 		.4byte	.LVL162-1
 9214 0eaa 0100     		.2byte	0x1
 9215 0eac 51       		.byte	0x51
 9216 0ead D7000000 		.4byte	.LVL162-1
ARM GAS  /tmp/ccAMfTfz.s 			page 163


 9217 0eb1 54010000 		.4byte	.LFE13
 9218 0eb5 0400     		.2byte	0x4
 9219 0eb7 F3       		.byte	0xf3
 9220 0eb8 01       		.uleb128 0x1
 9221 0eb9 51       		.byte	0x51
 9222 0eba 9F       		.byte	0x9f
 9223 0ebb 00000000 		.4byte	0
 9224 0ebf 00000000 		.4byte	0
 9225              	.LLST45:
 9226 0ec3 38000000 		.4byte	.LVL148
 9227 0ec7 44000000 		.4byte	.LVL149
 9228 0ecb 0100     		.2byte	0x1
 9229 0ecd 50       		.byte	0x50
 9230 0ece 44000000 		.4byte	.LVL149
 9231 0ed2 70000000 		.4byte	.LVL153
 9232 0ed6 0100     		.2byte	0x1
 9233 0ed8 54       		.byte	0x54
 9234 0ed9 DA000000 		.4byte	.LVL163
 9235 0edd DD000000 		.4byte	.LVL164-1
 9236 0ee1 0100     		.2byte	0x1
 9237 0ee3 50       		.byte	0x50
 9238 0ee4 DD000000 		.4byte	.LVL164-1
 9239 0ee8 E6000000 		.4byte	.LVL167
 9240 0eec 0100     		.2byte	0x1
 9241 0eee 54       		.byte	0x54
 9242 0eef EE000000 		.4byte	.LVL168
 9243 0ef3 F4000000 		.4byte	.LVL170
 9244 0ef7 0100     		.2byte	0x1
 9245 0ef9 54       		.byte	0x54
 9246 0efa 36010000 		.4byte	.LVL174
 9247 0efe 54010000 		.4byte	.LFE13
 9248 0f02 0100     		.2byte	0x1
 9249 0f04 54       		.byte	0x54
 9250 0f05 00000000 		.4byte	0
 9251 0f09 00000000 		.4byte	0
 9252              	.LLST46:
 9253 0f0d 5C000000 		.4byte	.LVL150
 9254 0f11 68000000 		.4byte	.LVL152
 9255 0f15 0100     		.2byte	0x1
 9256 0f17 50       		.byte	0x50
 9257 0f18 68000000 		.4byte	.LVL152
 9258 0f1c B2000000 		.4byte	.LVL158
 9259 0f20 0100     		.2byte	0x1
 9260 0f22 57       		.byte	0x57
 9261 0f23 C2000000 		.4byte	.LVL160
 9262 0f27 D4000000 		.4byte	.LVL161
 9263 0f2b 0100     		.2byte	0x1
 9264 0f2d 57       		.byte	0x57
 9265 0f2e E0000000 		.4byte	.LVL165
 9266 0f32 EE000000 		.4byte	.LVL168
 9267 0f36 0100     		.2byte	0x1
 9268 0f38 57       		.byte	0x57
 9269 0f39 EE000000 		.4byte	.LVL168
 9270 0f3d F1000000 		.4byte	.LVL169-1
 9271 0f41 0100     		.2byte	0x1
 9272 0f43 50       		.byte	0x50
 9273 0f44 F1000000 		.4byte	.LVL169-1
ARM GAS  /tmp/ccAMfTfz.s 			page 164


 9274 0f48 02010000 		.4byte	.LVL172
 9275 0f4c 0100     		.2byte	0x1
 9276 0f4e 57       		.byte	0x57
 9277 0f4f 00000000 		.4byte	0
 9278 0f53 00000000 		.4byte	0
 9279              	.LLST47:
 9280 0f57 00000000 		.4byte	.LVL145
 9281 0f5b 26000000 		.4byte	.LVL147
 9282 0f5f 0200     		.2byte	0x2
 9283 0f61 30       		.byte	0x30
 9284 0f62 9F       		.byte	0x9f
 9285 0f63 26000000 		.4byte	.LVL147
 9286 0f67 5E000000 		.4byte	.LVL151
 9287 0f6b 0100     		.2byte	0x1
 9288 0f6d 57       		.byte	0x57
 9289 0f6e BA000000 		.4byte	.LVL159
 9290 0f72 C2000000 		.4byte	.LVL160
 9291 0f76 0200     		.2byte	0x2
 9292 0f78 30       		.byte	0x30
 9293 0f79 9F       		.byte	0x9f
 9294 0f7a D4000000 		.4byte	.LVL161
 9295 0f7e DA000000 		.4byte	.LVL163
 9296 0f82 0200     		.2byte	0x2
 9297 0f84 30       		.byte	0x30
 9298 0f85 9F       		.byte	0x9f
 9299 0f86 DA000000 		.4byte	.LVL163
 9300 0f8a E0000000 		.4byte	.LVL165
 9301 0f8e 0100     		.2byte	0x1
 9302 0f90 57       		.byte	0x57
 9303 0f91 02010000 		.4byte	.LVL172
 9304 0f95 18010000 		.4byte	.LVL173
 9305 0f99 0100     		.2byte	0x1
 9306 0f9b 57       		.byte	0x57
 9307 0f9c 18010000 		.4byte	.LVL173
 9308 0fa0 36010000 		.4byte	.LVL174
 9309 0fa4 0200     		.2byte	0x2
 9310 0fa6 30       		.byte	0x30
 9311 0fa7 9F       		.byte	0x9f
 9312 0fa8 00000000 		.4byte	0
 9313 0fac 00000000 		.4byte	0
 9314              	.LLST48:
 9315 0fb0 74000000 		.4byte	.LVL154
 9316 0fb4 7E000000 		.4byte	.LVL156
 9317 0fb8 0100     		.2byte	0x1
 9318 0fba 54       		.byte	0x54
 9319 0fbb 00000000 		.4byte	0
 9320 0fbf 00000000 		.4byte	0
 9321              	.LLST49:
 9322 0fc3 00000000 		.4byte	.LVL175
 9323 0fc7 16000000 		.4byte	.LVL178
 9324 0fcb 0100     		.2byte	0x1
 9325 0fcd 50       		.byte	0x50
 9326 0fce 16000000 		.4byte	.LVL178
 9327 0fd2 28000000 		.4byte	.LVL181
 9328 0fd6 0100     		.2byte	0x1
 9329 0fd8 55       		.byte	0x55
 9330 0fd9 28000000 		.4byte	.LVL181
ARM GAS  /tmp/ccAMfTfz.s 			page 165


 9331 0fdd 2B000000 		.4byte	.LVL182-1
 9332 0fe1 0100     		.2byte	0x1
 9333 0fe3 50       		.byte	0x50
 9334 0fe4 2B000000 		.4byte	.LVL182-1
 9335 0fe8 2C000000 		.4byte	.LVL182
 9336 0fec 0400     		.2byte	0x4
 9337 0fee F3       		.byte	0xf3
 9338 0fef 01       		.uleb128 0x1
 9339 0ff0 50       		.byte	0x50
 9340 0ff1 9F       		.byte	0x9f
 9341 0ff2 2C000000 		.4byte	.LVL182
 9342 0ff6 46000000 		.4byte	.LFE8
 9343 0ffa 0100     		.2byte	0x1
 9344 0ffc 55       		.byte	0x55
 9345 0ffd 00000000 		.4byte	0
 9346 1001 00000000 		.4byte	0
 9347              	.LLST50:
 9348 1005 0A000000 		.4byte	.LVL176
 9349 1009 20000000 		.4byte	.LVL180
 9350 100d 0100     		.2byte	0x1
 9351 100f 54       		.byte	0x54
 9352 1010 2C000000 		.4byte	.LVL182
 9353 1014 2E000000 		.4byte	.LVL183
 9354 1018 0100     		.2byte	0x1
 9355 101a 54       		.byte	0x54
 9356 101b 00000000 		.4byte	0
 9357 101f 00000000 		.4byte	0
 9358              	.LLST51:
 9359 1023 00000000 		.4byte	.LVL185
 9360 1027 08000000 		.4byte	.LVL186
 9361 102b 0100     		.2byte	0x1
 9362 102d 50       		.byte	0x50
 9363 102e 08000000 		.4byte	.LVL186
 9364 1032 5C000000 		.4byte	.LFE14
 9365 1036 0100     		.2byte	0x1
 9366 1038 54       		.byte	0x54
 9367 1039 00000000 		.4byte	0
 9368 103d 00000000 		.4byte	0
 9369              	.LLST52:
 9370 1041 16000000 		.4byte	.LVL188
 9371 1045 33000000 		.4byte	.LVL190-1
 9372 1049 0100     		.2byte	0x1
 9373 104b 50       		.byte	0x50
 9374 104c 33000000 		.4byte	.LVL190-1
 9375 1050 58000000 		.4byte	.LVL194
 9376 1054 0100     		.2byte	0x1
 9377 1056 55       		.byte	0x55
 9378 1057 58000000 		.4byte	.LVL194
 9379 105b 5A000000 		.4byte	.LVL195
 9380 105f 0100     		.2byte	0x1
 9381 1061 50       		.byte	0x50
 9382 1062 5A000000 		.4byte	.LVL195
 9383 1066 5C000000 		.4byte	.LFE14
 9384 106a 0100     		.2byte	0x1
 9385 106c 55       		.byte	0x55
 9386 106d 00000000 		.4byte	0
 9387 1071 00000000 		.4byte	0
ARM GAS  /tmp/ccAMfTfz.s 			page 166


 9388              	.LLST53:
 9389 1075 1E000000 		.4byte	.LVL189
 9390 1079 52000000 		.4byte	.LVL193
 9391 107d 0100     		.2byte	0x1
 9392 107f 57       		.byte	0x57
 9393 1080 00000000 		.4byte	0
 9394 1084 00000000 		.4byte	0
 9395              	.LLST54:
 9396 1088 00000000 		.4byte	.LVL196
 9397 108c 10000000 		.4byte	.LVL197
 9398 1090 0100     		.2byte	0x1
 9399 1092 50       		.byte	0x50
 9400 1093 10000000 		.4byte	.LVL197
 9401 1097 DE020000 		.4byte	.LVL251
 9402 109b 0100     		.2byte	0x1
 9403 109d 54       		.byte	0x54
 9404 109e DE020000 		.4byte	.LVL251
 9405 10a2 E1020000 		.4byte	.LVL252-1
 9406 10a6 0100     		.2byte	0x1
 9407 10a8 50       		.byte	0x50
 9408 10a9 E1020000 		.4byte	.LVL252-1
 9409 10ad E2020000 		.4byte	.LVL252
 9410 10b1 0400     		.2byte	0x4
 9411 10b3 F3       		.byte	0xf3
 9412 10b4 01       		.uleb128 0x1
 9413 10b5 50       		.byte	0x50
 9414 10b6 9F       		.byte	0x9f
 9415 10b7 E2020000 		.4byte	.LVL252
 9416 10bb E8020000 		.4byte	.LVL253
 9417 10bf 0100     		.2byte	0x1
 9418 10c1 54       		.byte	0x54
 9419 10c2 E8020000 		.4byte	.LVL253
 9420 10c6 EB020000 		.4byte	.LVL254-1
 9421 10ca 0100     		.2byte	0x1
 9422 10cc 50       		.byte	0x50
 9423 10cd EB020000 		.4byte	.LVL254-1
 9424 10d1 EE020000 		.4byte	.LFE15
 9425 10d5 0100     		.2byte	0x1
 9426 10d7 54       		.byte	0x54
 9427 10d8 00000000 		.4byte	0
 9428 10dc 00000000 		.4byte	0
 9429              	.LLST55:
 9430 10e0 38000000 		.4byte	.LVL198
 9431 10e4 3A020000 		.4byte	.LVL240
 9432 10e8 0100     		.2byte	0x1
 9433 10ea 55       		.byte	0x55
 9434 10eb 42020000 		.4byte	.LVL241
 9435 10ef DE020000 		.4byte	.LVL251
 9436 10f3 0100     		.2byte	0x1
 9437 10f5 55       		.byte	0x55
 9438 10f6 E2020000 		.4byte	.LVL252
 9439 10fa E8020000 		.4byte	.LVL253
 9440 10fe 0100     		.2byte	0x1
 9441 1100 55       		.byte	0x55
 9442 1101 00000000 		.4byte	0
 9443 1105 00000000 		.4byte	0
 9444              	.LLST56:
ARM GAS  /tmp/ccAMfTfz.s 			page 167


 9445 1109 3E000000 		.4byte	.LVL199
 9446 110d C4010000 		.4byte	.LVL222
 9447 1111 0100     		.2byte	0x1
 9448 1113 56       		.byte	0x56
 9449 1114 C4010000 		.4byte	.LVL222
 9450 1118 C8010000 		.4byte	.LVL223
 9451 111c 0100     		.2byte	0x1
 9452 111e 55       		.byte	0x55
 9453 111f C8010000 		.4byte	.LVL223
 9454 1123 24020000 		.4byte	.LVL236
 9455 1127 0100     		.2byte	0x1
 9456 1129 56       		.byte	0x56
 9457 112a 24020000 		.4byte	.LVL236
 9458 112e 2C020000 		.4byte	.LVL238
 9459 1132 0300     		.2byte	0x3
 9460 1134 74       		.byte	0x74
 9461 1135 F000     		.sleb128 112
 9462 1137 2C020000 		.4byte	.LVL238
 9463 113b 3A020000 		.4byte	.LVL240
 9464 113f 0100     		.2byte	0x1
 9465 1141 56       		.byte	0x56
 9466 1142 42020000 		.4byte	.LVL241
 9467 1146 7C020000 		.4byte	.LVL246
 9468 114a 0100     		.2byte	0x1
 9469 114c 55       		.byte	0x55
 9470 114d 7C020000 		.4byte	.LVL246
 9471 1151 BC020000 		.4byte	.LVL249
 9472 1155 0100     		.2byte	0x1
 9473 1157 56       		.byte	0x56
 9474 1158 E2020000 		.4byte	.LVL252
 9475 115c E8020000 		.4byte	.LVL253
 9476 1160 0100     		.2byte	0x1
 9477 1162 56       		.byte	0x56
 9478 1163 00000000 		.4byte	0
 9479 1167 00000000 		.4byte	0
 9480              	.LLST57:
 9481 116b 38000000 		.4byte	.LVL198
 9482 116f 6A000000 		.4byte	.LVL201
 9483 1173 0100     		.2byte	0x1
 9484 1175 5A       		.byte	0x5a
 9485 1176 6A000000 		.4byte	.LVL201
 9486 117a 3A020000 		.4byte	.LVL240
 9487 117e 0200     		.2byte	0x2
 9488 1180 91       		.byte	0x91
 9489 1181 50       		.sleb128 -48
 9490 1182 42020000 		.4byte	.LVL241
 9491 1186 BC020000 		.4byte	.LVL249
 9492 118a 0200     		.2byte	0x2
 9493 118c 91       		.byte	0x91
 9494 118d 50       		.sleb128 -48
 9495 118e BC020000 		.4byte	.LVL249
 9496 1192 DE020000 		.4byte	.LVL251
 9497 1196 0100     		.2byte	0x1
 9498 1198 5A       		.byte	0x5a
 9499 1199 DE020000 		.4byte	.LVL251
 9500 119d E2020000 		.4byte	.LVL252
 9501 11a1 0200     		.2byte	0x2
ARM GAS  /tmp/ccAMfTfz.s 			page 168


 9502 11a3 7D       		.byte	0x7d
 9503 11a4 50       		.sleb128 -48
 9504 11a5 E2020000 		.4byte	.LVL252
 9505 11a9 E8020000 		.4byte	.LVL253
 9506 11ad 0200     		.2byte	0x2
 9507 11af 91       		.byte	0x91
 9508 11b0 50       		.sleb128 -48
 9509 11b1 00000000 		.4byte	0
 9510 11b5 00000000 		.4byte	0
 9511              	.LLST58:
 9512 11b9 7E010000 		.4byte	.LVL216
 9513 11bd 88010000 		.4byte	.LVL217
 9514 11c1 0100     		.2byte	0x1
 9515 11c3 53       		.byte	0x53
 9516 11c4 88010000 		.4byte	.LVL217
 9517 11c8 8C010000 		.4byte	.LVL218
 9518 11cc 0900     		.2byte	0x9
 9519 11ce 70       		.byte	0x70
 9520 11cf 00       		.sleb128 0
 9521 11d0 7A       		.byte	0x7a
 9522 11d1 00       		.sleb128 0
 9523 11d2 22       		.byte	0x22
 9524 11d3 7B       		.byte	0x7b
 9525 11d4 00       		.sleb128 0
 9526 11d5 22       		.byte	0x22
 9527 11d6 9F       		.byte	0x9f
 9528 11d7 00000000 		.4byte	0
 9529 11db 00000000 		.4byte	0
 9530              	.LLST59:
 9531 11df AE000000 		.4byte	.LVL203
 9532 11e3 CE010000 		.4byte	.LVL225
 9533 11e7 0100     		.2byte	0x1
 9534 11e9 54       		.byte	0x54
 9535 11ea F8010000 		.4byte	.LVL229
 9536 11ee 2E020000 		.4byte	.LVL239
 9537 11f2 0100     		.2byte	0x1
 9538 11f4 54       		.byte	0x54
 9539 11f5 42020000 		.4byte	.LVL241
 9540 11f9 84020000 		.4byte	.LVL248
 9541 11fd 0100     		.2byte	0x1
 9542 11ff 54       		.byte	0x54
 9543 1200 00000000 		.4byte	0
 9544 1204 00000000 		.4byte	0
 9545              	.LLST60:
 9546 1208 AE000000 		.4byte	.LVL203
 9547 120c CA010000 		.4byte	.LVL224
 9548 1210 0100     		.2byte	0x1
 9549 1212 55       		.byte	0x55
 9550 1213 F8010000 		.4byte	.LVL229
 9551 1217 28020000 		.4byte	.LVL237
 9552 121b 0100     		.2byte	0x1
 9553 121d 55       		.byte	0x55
 9554 121e 28020000 		.4byte	.LVL237
 9555 1222 2C020000 		.4byte	.LVL238
 9556 1226 0300     		.2byte	0x3
 9557 1228 74       		.byte	0x74
 9558 1229 F000     		.sleb128 112
ARM GAS  /tmp/ccAMfTfz.s 			page 169


 9559 122b 42020000 		.4byte	.LVL241
 9560 122f 84020000 		.4byte	.LVL248
 9561 1233 0100     		.2byte	0x1
 9562 1235 55       		.byte	0x55
 9563 1236 00000000 		.4byte	0
 9564 123a 00000000 		.4byte	0
 9565              	.LLST61:
 9566 123e 18010000 		.4byte	.LVL210
 9567 1242 1E010000 		.4byte	.LVL211
 9568 1246 0100     		.2byte	0x1
 9569 1248 52       		.byte	0x52
 9570 1249 00000000 		.4byte	0
 9571 124d 00000000 		.4byte	0
 9572              	.LLST62:
 9573 1251 F2000000 		.4byte	.LVL208
 9574 1255 FA000000 		.4byte	.LVL209
 9575 1259 0100     		.2byte	0x1
 9576 125b 50       		.byte	0x50
 9577 125c 00000000 		.4byte	0
 9578 1260 00000000 		.4byte	0
 9579              	.LLST63:
 9580 1264 D8000000 		.4byte	.LVL206
 9581 1268 DE000000 		.4byte	.LVL207
 9582 126c 0300     		.2byte	0x3
 9583 126e 7A       		.byte	0x7a
 9584 126f 14       		.sleb128 20
 9585 1270 9F       		.byte	0x9f
 9586 1271 F8010000 		.4byte	.LVL229
 9587 1275 0E020000 		.4byte	.LVL233
 9588 1279 0300     		.2byte	0x3
 9589 127b 7A       		.byte	0x7a
 9590 127c 14       		.sleb128 20
 9591 127d 9F       		.byte	0x9f
 9592 127e 0E020000 		.4byte	.LVL233
 9593 1282 10020000 		.4byte	.LVL234
 9594 1286 0300     		.2byte	0x3
 9595 1288 7A       		.byte	0x7a
 9596 1289 18       		.sleb128 24
 9597 128a 9F       		.byte	0x9f
 9598 128b 00000000 		.4byte	0
 9599 128f 00000000 		.4byte	0
 9600              	.LLST64:
 9601 1293 02020000 		.4byte	.LVL230
 9602 1297 06020000 		.4byte	.LVL231
 9603 129b 0100     		.2byte	0x1
 9604 129d 50       		.byte	0x50
 9605 129e 00000000 		.4byte	0
 9606 12a2 00000000 		.4byte	0
 9607              	.LLST65:
 9608 12a6 48020000 		.4byte	.LVL242
 9609 12aa 7C020000 		.4byte	.LVL246
 9610 12ae 0100     		.2byte	0x1
 9611 12b0 5B       		.byte	0x5b
 9612 12b1 00000000 		.4byte	0
 9613 12b5 00000000 		.4byte	0
 9614              	.LLST66:
 9615 12b9 00000000 		.4byte	.LVL255
ARM GAS  /tmp/ccAMfTfz.s 			page 170


 9616 12bd 0E000000 		.4byte	.LVL256
 9617 12c1 0100     		.2byte	0x1
 9618 12c3 50       		.byte	0x50
 9619 12c4 0E000000 		.4byte	.LVL256
 9620 12c8 64000000 		.4byte	.LVL268
 9621 12cc 0100     		.2byte	0x1
 9622 12ce 57       		.byte	0x57
 9623 12cf 64000000 		.4byte	.LVL268
 9624 12d3 AE000000 		.4byte	.LVL273
 9625 12d7 0400     		.2byte	0x4
 9626 12d9 F3       		.byte	0xf3
 9627 12da 01       		.uleb128 0x1
 9628 12db 50       		.byte	0x50
 9629 12dc 9F       		.byte	0x9f
 9630 12dd AE000000 		.4byte	.LVL273
 9631 12e1 BA000000 		.4byte	.LFE17
 9632 12e5 0100     		.2byte	0x1
 9633 12e7 57       		.byte	0x57
 9634 12e8 00000000 		.4byte	0
 9635 12ec 00000000 		.4byte	0
 9636              	.LLST67:
 9637 12f0 00000000 		.4byte	.LVL255
 9638 12f4 10000000 		.4byte	.LVL257
 9639 12f8 0100     		.2byte	0x1
 9640 12fa 51       		.byte	0x51
 9641 12fb 10000000 		.4byte	.LVL257
 9642 12ff 5C000000 		.4byte	.LVL267
 9643 1303 0100     		.2byte	0x1
 9644 1305 56       		.byte	0x56
 9645 1306 5C000000 		.4byte	.LVL267
 9646 130a AE000000 		.4byte	.LVL273
 9647 130e 0400     		.2byte	0x4
 9648 1310 F3       		.byte	0xf3
 9649 1311 01       		.uleb128 0x1
 9650 1312 51       		.byte	0x51
 9651 1313 9F       		.byte	0x9f
 9652 1314 AE000000 		.4byte	.LVL273
 9653 1318 BA000000 		.4byte	.LFE17
 9654 131c 0100     		.2byte	0x1
 9655 131e 56       		.byte	0x56
 9656 131f 00000000 		.4byte	0
 9657 1323 00000000 		.4byte	0
 9658              	.LLST68:
 9659 1327 00000000 		.4byte	.LVL255
 9660 132b 12000000 		.4byte	.LVL258
 9661 132f 0100     		.2byte	0x1
 9662 1331 52       		.byte	0x52
 9663 1332 12000000 		.4byte	.LVL258
 9664 1336 AA000000 		.4byte	.LVL272
 9665 133a 0100     		.2byte	0x1
 9666 133c 59       		.byte	0x59
 9667 133d AA000000 		.4byte	.LVL272
 9668 1341 AE000000 		.4byte	.LVL273
 9669 1345 0400     		.2byte	0x4
 9670 1347 F3       		.byte	0xf3
 9671 1348 01       		.uleb128 0x1
 9672 1349 52       		.byte	0x52
ARM GAS  /tmp/ccAMfTfz.s 			page 171


 9673 134a 9F       		.byte	0x9f
 9674 134b AE000000 		.4byte	.LVL273
 9675 134f BA000000 		.4byte	.LFE17
 9676 1353 0100     		.2byte	0x1
 9677 1355 59       		.byte	0x59
 9678 1356 00000000 		.4byte	0
 9679 135a 00000000 		.4byte	0
 9680              	.LLST69:
 9681 135e 00000000 		.4byte	.LVL255
 9682 1362 1F000000 		.4byte	.LVL259-1
 9683 1366 0100     		.2byte	0x1
 9684 1368 53       		.byte	0x53
 9685 1369 1F000000 		.4byte	.LVL259-1
 9686 136d AA000000 		.4byte	.LVL272
 9687 1371 0100     		.2byte	0x1
 9688 1373 58       		.byte	0x58
 9689 1374 AA000000 		.4byte	.LVL272
 9690 1378 AE000000 		.4byte	.LVL273
 9691 137c 0400     		.2byte	0x4
 9692 137e F3       		.byte	0xf3
 9693 137f 01       		.uleb128 0x1
 9694 1380 53       		.byte	0x53
 9695 1381 9F       		.byte	0x9f
 9696 1382 AE000000 		.4byte	.LVL273
 9697 1386 BA000000 		.4byte	.LFE17
 9698 138a 0100     		.2byte	0x1
 9699 138c 58       		.byte	0x58
 9700 138d 00000000 		.4byte	0
 9701 1391 00000000 		.4byte	0
 9702              	.LLST70:
 9703 1395 00000000 		.4byte	.LVL255
 9704 1399 AA000000 		.4byte	.LVL272
 9705 139d 0200     		.2byte	0x2
 9706 139f 91       		.byte	0x91
 9707 13a0 00       		.sleb128 0
 9708 13a1 AA000000 		.4byte	.LVL272
 9709 13a5 AE000000 		.4byte	.LVL273
 9710 13a9 0200     		.2byte	0x2
 9711 13ab 7D       		.byte	0x7d
 9712 13ac 00       		.sleb128 0
 9713 13ad AE000000 		.4byte	.LVL273
 9714 13b1 BA000000 		.4byte	.LFE17
 9715 13b5 0200     		.2byte	0x2
 9716 13b7 91       		.byte	0x91
 9717 13b8 00       		.sleb128 0
 9718 13b9 00000000 		.4byte	0
 9719 13bd 00000000 		.4byte	0
 9720              	.LLST71:
 9721 13c1 00000000 		.4byte	.LVL255
 9722 13c5 AA000000 		.4byte	.LVL272
 9723 13c9 0200     		.2byte	0x2
 9724 13cb 91       		.byte	0x91
 9725 13cc 04       		.sleb128 4
 9726 13cd AA000000 		.4byte	.LVL272
 9727 13d1 AE000000 		.4byte	.LVL273
 9728 13d5 0200     		.2byte	0x2
 9729 13d7 7D       		.byte	0x7d
ARM GAS  /tmp/ccAMfTfz.s 			page 172


 9730 13d8 04       		.sleb128 4
 9731 13d9 AE000000 		.4byte	.LVL273
 9732 13dd BA000000 		.4byte	.LFE17
 9733 13e1 0200     		.2byte	0x2
 9734 13e3 91       		.byte	0x91
 9735 13e4 04       		.sleb128 4
 9736 13e5 00000000 		.4byte	0
 9737 13e9 00000000 		.4byte	0
 9738              	.LLST72:
 9739 13ed 20000000 		.4byte	.LVL259
 9740 13f1 2C000000 		.4byte	.LVL260
 9741 13f5 0100     		.2byte	0x1
 9742 13f7 50       		.byte	0x50
 9743 13f8 2C000000 		.4byte	.LVL260
 9744 13fc AA000000 		.4byte	.LVL272
 9745 1400 0100     		.2byte	0x1
 9746 1402 55       		.byte	0x55
 9747 1403 AA000000 		.4byte	.LVL272
 9748 1407 AD000000 		.4byte	.LVL273-1
 9749 140b 0100     		.2byte	0x1
 9750 140d 50       		.byte	0x50
 9751 140e AE000000 		.4byte	.LVL273
 9752 1412 B1000000 		.4byte	.LVL274-1
 9753 1416 0100     		.2byte	0x1
 9754 1418 50       		.byte	0x50
 9755 1419 B1000000 		.4byte	.LVL274-1
 9756 141d B4000000 		.4byte	.LVL275
 9757 1421 0100     		.2byte	0x1
 9758 1423 55       		.byte	0x55
 9759 1424 B4000000 		.4byte	.LVL275
 9760 1428 BA000000 		.4byte	.LFE17
 9761 142c 0100     		.2byte	0x1
 9762 142e 50       		.byte	0x50
 9763 142f 00000000 		.4byte	0
 9764 1433 00000000 		.4byte	0
 9765              	.LLST73:
 9766 1437 30000000 		.4byte	.LVL261
 9767 143b 8E000000 		.4byte	.LVL270
 9768 143f 0100     		.2byte	0x1
 9769 1441 54       		.byte	0x54
 9770 1442 00000000 		.4byte	0
 9771 1446 00000000 		.4byte	0
 9772              	.LLST74:
 9773 144a 00000000 		.4byte	.LVL276
 9774 144e 2D000000 		.4byte	.LVL280-1
 9775 1452 0100     		.2byte	0x1
 9776 1454 50       		.byte	0x50
 9777 1455 2D000000 		.4byte	.LVL280-1
 9778 1459 2E000000 		.4byte	.LVL280
 9779 145d 0400     		.2byte	0x4
 9780 145f F3       		.byte	0xf3
 9781 1460 01       		.uleb128 0x1
 9782 1461 50       		.byte	0x50
 9783 1462 9F       		.byte	0x9f
 9784 1463 2E000000 		.4byte	.LVL280
 9785 1467 34000000 		.4byte	.LFE18
 9786 146b 0100     		.2byte	0x1
ARM GAS  /tmp/ccAMfTfz.s 			page 173


 9787 146d 50       		.byte	0x50
 9788 146e 00000000 		.4byte	0
 9789 1472 00000000 		.4byte	0
 9790              	.LLST75:
 9791 1476 0A000000 		.4byte	.LVL277
 9792 147a 1A000000 		.4byte	.LVL279
 9793 147e 0100     		.2byte	0x1
 9794 1480 52       		.byte	0x52
 9795 1481 00000000 		.4byte	0
 9796 1485 00000000 		.4byte	0
 9797              	.LLST76:
 9798 1489 00000000 		.4byte	.LVL281
 9799 148d 16000000 		.4byte	.LVL284
 9800 1491 0100     		.2byte	0x1
 9801 1493 50       		.byte	0x50
 9802 1494 16000000 		.4byte	.LVL284
 9803 1498 54000000 		.4byte	.LFE19
 9804 149c 0100     		.2byte	0x1
 9805 149e 57       		.byte	0x57
 9806 149f 00000000 		.4byte	0
 9807 14a3 00000000 		.4byte	0
 9808              	.LLST77:
 9809 14a7 08000000 		.4byte	.LVL282
 9810 14ab 4C000000 		.4byte	.LVL288
 9811 14af 0100     		.2byte	0x1
 9812 14b1 56       		.byte	0x56
 9813 14b2 4E000000 		.4byte	.LVL289
 9814 14b6 54000000 		.4byte	.LFE19
 9815 14ba 0100     		.2byte	0x1
 9816 14bc 56       		.byte	0x56
 9817 14bd 00000000 		.4byte	0
 9818 14c1 00000000 		.4byte	0
 9819              	.LLST78:
 9820 14c5 12000000 		.4byte	.LVL283
 9821 14c9 4C000000 		.4byte	.LVL288
 9822 14cd 0100     		.2byte	0x1
 9823 14cf 54       		.byte	0x54
 9824 14d0 4E000000 		.4byte	.LVL289
 9825 14d4 54000000 		.4byte	.LFE19
 9826 14d8 0100     		.2byte	0x1
 9827 14da 54       		.byte	0x54
 9828 14db 00000000 		.4byte	0
 9829 14df 00000000 		.4byte	0
 9830              	.LLST79:
 9831 14e3 00000000 		.4byte	.LVL290
 9832 14e7 11000000 		.4byte	.LVL291-1
 9833 14eb 0100     		.2byte	0x1
 9834 14ed 50       		.byte	0x50
 9835 14ee 11000000 		.4byte	.LVL291-1
 9836 14f2 48000000 		.4byte	.LFE20
 9837 14f6 0100     		.2byte	0x1
 9838 14f8 54       		.byte	0x54
 9839 14f9 00000000 		.4byte	0
 9840 14fd 00000000 		.4byte	0
 9841              	.LLST80:
 9842 1501 00000000 		.4byte	.LVL292
 9843 1505 06000000 		.4byte	.LVL293
ARM GAS  /tmp/ccAMfTfz.s 			page 174


 9844 1509 0100     		.2byte	0x1
 9845 150b 50       		.byte	0x50
 9846 150c 06000000 		.4byte	.LVL293
 9847 1510 5E000000 		.4byte	.LVL300
 9848 1514 0100     		.2byte	0x1
 9849 1516 54       		.byte	0x54
 9850 1517 5E000000 		.4byte	.LVL300
 9851 151b 62000000 		.4byte	.LVL301
 9852 151f 0400     		.2byte	0x4
 9853 1521 F3       		.byte	0xf3
 9854 1522 01       		.uleb128 0x1
 9855 1523 50       		.byte	0x50
 9856 1524 9F       		.byte	0x9f
 9857 1525 62000000 		.4byte	.LVL301
 9858 1529 66000000 		.4byte	.LFE21
 9859 152d 0100     		.2byte	0x1
 9860 152f 54       		.byte	0x54
 9861 1530 00000000 		.4byte	0
 9862 1534 00000000 		.4byte	0
 9863              	.LLST81:
 9864 1538 18000000 		.4byte	.LVL295
 9865 153c 2D000000 		.4byte	.LVL297-1
 9866 1540 0100     		.2byte	0x1
 9867 1542 50       		.byte	0x50
 9868 1543 2D000000 		.4byte	.LVL297-1
 9869 1547 5E000000 		.4byte	.LVL300
 9870 154b 0100     		.2byte	0x1
 9871 154d 55       		.byte	0x55
 9872 154e 5E000000 		.4byte	.LVL300
 9873 1552 61000000 		.4byte	.LVL301-1
 9874 1556 0100     		.2byte	0x1
 9875 1558 50       		.byte	0x50
 9876 1559 62000000 		.4byte	.LVL301
 9877 155d 66000000 		.4byte	.LFE21
 9878 1561 0100     		.2byte	0x1
 9879 1563 50       		.byte	0x50
 9880 1564 00000000 		.4byte	0
 9881 1568 00000000 		.4byte	0
 9882              	.LLST82:
 9883 156c 20000000 		.4byte	.LVL296
 9884 1570 44000000 		.4byte	.LVL298
 9885 1574 0100     		.2byte	0x1
 9886 1576 57       		.byte	0x57
 9887 1577 00000000 		.4byte	0
 9888 157b 00000000 		.4byte	0
 9889              	.LLST83:
 9890 157f 00000000 		.4byte	.LVL302
 9891 1583 12000000 		.4byte	.LVL304
 9892 1587 0100     		.2byte	0x1
 9893 1589 50       		.byte	0x50
 9894 158a 12000000 		.4byte	.LVL304
 9895 158e 90000000 		.4byte	.LVL316
 9896 1592 0100     		.2byte	0x1
 9897 1594 54       		.byte	0x54
 9898 1595 90000000 		.4byte	.LVL316
 9899 1599 94000000 		.4byte	.LVL317
 9900 159d 0400     		.2byte	0x4
ARM GAS  /tmp/ccAMfTfz.s 			page 175


 9901 159f F3       		.byte	0xf3
 9902 15a0 01       		.uleb128 0x1
 9903 15a1 50       		.byte	0x50
 9904 15a2 9F       		.byte	0x9f
 9905 15a3 94000000 		.4byte	.LVL317
 9906 15a7 BE000000 		.4byte	.LVL322
 9907 15ab 0100     		.2byte	0x1
 9908 15ad 54       		.byte	0x54
 9909 15ae BE000000 		.4byte	.LVL322
 9910 15b2 C4000000 		.4byte	.LVL324
 9911 15b6 0100     		.2byte	0x1
 9912 15b8 50       		.byte	0x50
 9913 15b9 C4000000 		.4byte	.LVL324
 9914 15bd CA000000 		.4byte	.LFE22
 9915 15c1 0100     		.2byte	0x1
 9916 15c3 54       		.byte	0x54
 9917 15c4 00000000 		.4byte	0
 9918 15c8 00000000 		.4byte	0
 9919              	.LLST84:
 9920 15cc 2C000000 		.4byte	.LVL307
 9921 15d0 3C000000 		.4byte	.LVL310
 9922 15d4 0100     		.2byte	0x1
 9923 15d6 50       		.byte	0x50
 9924 15d7 3C000000 		.4byte	.LVL310
 9925 15db 90000000 		.4byte	.LVL316
 9926 15df 0100     		.2byte	0x1
 9927 15e1 55       		.byte	0x55
 9928 15e2 90000000 		.4byte	.LVL316
 9929 15e6 93000000 		.4byte	.LVL317-1
 9930 15ea 0100     		.2byte	0x1
 9931 15ec 50       		.byte	0x50
 9932 15ed AA000000 		.4byte	.LVL318
 9933 15f1 B2000000 		.4byte	.LVL320
 9934 15f5 0100     		.2byte	0x1
 9935 15f7 50       		.byte	0x50
 9936 15f8 B2000000 		.4byte	.LVL320
 9937 15fc BE000000 		.4byte	.LVL322
 9938 1600 0100     		.2byte	0x1
 9939 1602 55       		.byte	0x55
 9940 1603 00000000 		.4byte	0
 9941 1607 00000000 		.4byte	0
 9942              	.LLST85:
 9943 160b 34000000 		.4byte	.LVL308
 9944 160f 76000000 		.4byte	.LVL314
 9945 1613 0100     		.2byte	0x1
 9946 1615 57       		.byte	0x57
 9947 1616 AA000000 		.4byte	.LVL318
 9948 161a BE000000 		.4byte	.LVL322
 9949 161e 0100     		.2byte	0x1
 9950 1620 57       		.byte	0x57
 9951 1621 00000000 		.4byte	0
 9952 1625 00000000 		.4byte	0
 9953              	.LLST86:
 9954 1629 06000000 		.4byte	.LVL303
 9955 162d 4E000000 		.4byte	.LVL312
 9956 1631 0100     		.2byte	0x1
 9957 1633 56       		.byte	0x56
ARM GAS  /tmp/ccAMfTfz.s 			page 176


 9958 1634 94000000 		.4byte	.LVL317
 9959 1638 B0000000 		.4byte	.LVL319
 9960 163c 0100     		.2byte	0x1
 9961 163e 56       		.byte	0x56
 9962 163f BE000000 		.4byte	.LVL322
 9963 1643 CA000000 		.4byte	.LFE22
 9964 1647 0100     		.2byte	0x1
 9965 1649 56       		.byte	0x56
 9966 164a 00000000 		.4byte	0
 9967 164e 00000000 		.4byte	0
 9968              	.LLST87:
 9969 1652 22000000 		.4byte	.LVL306
 9970 1656 2B000000 		.4byte	.LVL307-1
 9971 165a 0100     		.2byte	0x1
 9972 165c 51       		.byte	0x51
 9973 165d 00000000 		.4byte	0
 9974 1661 00000000 		.4byte	0
 9975              	.LLST88:
 9976 1665 22000000 		.4byte	.LVL306
 9977 1669 90000000 		.4byte	.LVL316
 9978 166d 0100     		.2byte	0x1
 9979 166f 58       		.byte	0x58
 9980 1670 AA000000 		.4byte	.LVL318
 9981 1674 BE000000 		.4byte	.LVL322
 9982 1678 0100     		.2byte	0x1
 9983 167a 58       		.byte	0x58
 9984 167b 00000000 		.4byte	0
 9985 167f 00000000 		.4byte	0
 9986              	.LLST89:
 9987 1683 3A000000 		.4byte	.LVL309
 9988 1687 48000000 		.4byte	.LVL311
 9989 168b 0300     		.2byte	0x3
 9990 168d 77       		.byte	0x77
 9991 168e 14       		.sleb128 20
 9992 168f 9F       		.byte	0x9f
 9993 1690 48000000 		.4byte	.LVL311
 9994 1694 4D000000 		.4byte	.LVL312-1
 9995 1698 0100     		.2byte	0x1
 9996 169a 51       		.byte	0x51
 9997 169b 4D000000 		.4byte	.LVL312-1
 9998 169f 4E000000 		.4byte	.LVL312
 9999 16a3 0300     		.2byte	0x3
 10000 16a5 77       		.byte	0x77
 10001 16a6 14       		.sleb128 20
 10002 16a7 9F       		.byte	0x9f
 10003 16a8 00000000 		.4byte	0
 10004 16ac 00000000 		.4byte	0
 10005              		.section	.debug_aranges,"",%progbits
 10006 0000 84000000 		.4byte	0x84
 10007 0004 0200     		.2byte	0x2
 10008 0006 00000000 		.4byte	.Ldebug_info0
 10009 000a 04       		.byte	0x4
 10010 000b 00       		.byte	0
 10011 000c 0000     		.2byte	0
 10012 000e 0000     		.2byte	0
 10013 0010 00000000 		.4byte	.LFB10
 10014 0014 64000000 		.4byte	.LFE10-.LFB10
ARM GAS  /tmp/ccAMfTfz.s 			page 177


 10015 0018 00000000 		.4byte	.LFB23
 10016 001c C0000000 		.4byte	.LFE23-.LFB23
 10017 0020 00000000 		.4byte	.LFB24
 10018 0024 66000000 		.4byte	.LFE24-.LFB24
 10019 0028 00000000 		.4byte	.LFB12
 10020 002c B8040000 		.4byte	.LFE12-.LFB12
 10021 0030 00000000 		.4byte	.LFB13
 10022 0034 54010000 		.4byte	.LFE13-.LFB13
 10023 0038 00000000 		.4byte	.LFB8
 10024 003c 46000000 		.4byte	.LFE8-.LFB8
 10025 0040 00000000 		.4byte	.LFB14
 10026 0044 5C000000 		.4byte	.LFE14-.LFB14
 10027 0048 00000000 		.4byte	.LFB15
 10028 004c EE020000 		.4byte	.LFE15-.LFB15
 10029 0050 00000000 		.4byte	.LFB17
 10030 0054 BA000000 		.4byte	.LFE17-.LFB17
 10031 0058 00000000 		.4byte	.LFB18
 10032 005c 34000000 		.4byte	.LFE18-.LFB18
 10033 0060 00000000 		.4byte	.LFB19
 10034 0064 54000000 		.4byte	.LFE19-.LFB19
 10035 0068 00000000 		.4byte	.LFB20
 10036 006c 48000000 		.4byte	.LFE20-.LFB20
 10037 0070 00000000 		.4byte	.LFB21
 10038 0074 66000000 		.4byte	.LFE21-.LFB21
 10039 0078 00000000 		.4byte	.LFB22
 10040 007c CA000000 		.4byte	.LFE22-.LFB22
 10041 0080 00000000 		.4byte	0
 10042 0084 00000000 		.4byte	0
 10043              		.section	.debug_ranges,"",%progbits
 10044              	.Ldebug_ranges0:
 10045 0000 2C000000 		.4byte	.LBB9
 10046 0004 62000000 		.4byte	.LBE9
 10047 0008 CE010000 		.4byte	.LBB26
 10048 000c DE010000 		.4byte	.LBE26
 10049 0010 E4010000 		.4byte	.LBB27
 10050 0014 EE010000 		.4byte	.LBE27
 10051 0018 BA030000 		.4byte	.LBB35
 10052 001c C6030000 		.4byte	.LBE35
 10053 0020 FA030000 		.4byte	.LBB38
 10054 0024 08040000 		.4byte	.LBE38
 10055 0028 62040000 		.4byte	.LBB39
 10056 002c 94040000 		.4byte	.LBE39
 10057 0030 00000000 		.4byte	0
 10058 0034 00000000 		.4byte	0
 10059 0038 6E000000 		.4byte	.LBB16
 10060 003c AE000000 		.4byte	.LBE16
 10061 0040 B0000000 		.4byte	.LBB19
 10062 0044 CC000000 		.4byte	.LBE19
 10063 0048 50030000 		.4byte	.LBB34
 10064 004c BA030000 		.4byte	.LBE34
 10065 0050 CE030000 		.4byte	.LBB37
 10066 0054 FA030000 		.4byte	.LBE37
 10067 0058 00000000 		.4byte	0
 10068 005c 00000000 		.4byte	0
 10069 0060 7C030000 		.4byte	.LBB17
 10070 0064 BA030000 		.4byte	.LBE17
 10071 0068 CE030000 		.4byte	.LBB18
ARM GAS  /tmp/ccAMfTfz.s 			page 178


 10072 006c FA030000 		.4byte	.LBE18
 10073 0070 00000000 		.4byte	0
 10074 0074 00000000 		.4byte	0
 10075 0078 F4000000 		.4byte	.LBB20
 10076 007c 70010000 		.4byte	.LBE20
 10077 0080 72010000 		.4byte	.LBB24
 10078 0084 76010000 		.4byte	.LBE24
 10079 0088 7A010000 		.4byte	.LBB25
 10080 008c CE010000 		.4byte	.LBE25
 10081 0090 14020000 		.4byte	.LBB28
 10082 0094 1E020000 		.4byte	.LBE28
 10083 0098 20020000 		.4byte	.LBB29
 10084 009c 22020000 		.4byte	.LBE29
 10085 00a0 E2020000 		.4byte	.LBB32
 10086 00a4 EE020000 		.4byte	.LBE32
 10087 00a8 46030000 		.4byte	.LBB33
 10088 00ac 50030000 		.4byte	.LBE33
 10089 00b0 C6030000 		.4byte	.LBB36
 10090 00b4 CE030000 		.4byte	.LBE36
 10091 00b8 00000000 		.4byte	0
 10092 00bc 00000000 		.4byte	0
 10093 00c0 F4000000 		.4byte	.LBB21
 10094 00c4 30010000 		.4byte	.LBE21
 10095 00c8 14020000 		.4byte	.LBB22
 10096 00cc 1A020000 		.4byte	.LBE22
 10097 00d0 E8020000 		.4byte	.LBB23
 10098 00d4 EE020000 		.4byte	.LBE23
 10099 00d8 00000000 		.4byte	0
 10100 00dc 00000000 		.4byte	0
 10101 00e0 2E020000 		.4byte	.LBB30
 10102 00e4 38020000 		.4byte	.LBE30
 10103 00e8 3A020000 		.4byte	.LBB31
 10104 00ec 6C020000 		.4byte	.LBE31
 10105 00f0 00000000 		.4byte	0
 10106 00f4 00000000 		.4byte	0
 10107 00f8 0A000000 		.4byte	.LBB41
 10108 00fc 20000000 		.4byte	.LBE41
 10109 0100 2C000000 		.4byte	.LBB42
 10110 0104 42000000 		.4byte	.LBE42
 10111 0108 00000000 		.4byte	0
 10112 010c 00000000 		.4byte	0
 10113 0110 50000000 		.4byte	.LBB47
 10114 0114 6A000000 		.4byte	.LBE47
 10115 0118 AE000000 		.4byte	.LBB53
 10116 011c 58010000 		.4byte	.LBE53
 10117 0120 F8010000 		.4byte	.LBB54
 10118 0124 22020000 		.4byte	.LBE54
 10119 0128 00000000 		.4byte	0
 10120 012c 00000000 		.4byte	0
 10121 0130 62000000 		.4byte	.LBB49
 10122 0134 66000000 		.4byte	.LBE49
 10123 0138 F8010000 		.4byte	.LBB50
 10124 013c 10020000 		.4byte	.LBE50
 10125 0140 00000000 		.4byte	0
 10126 0144 00000000 		.4byte	0
 10127 0148 00000000 		.4byte	.LFB10
 10128 014c 64000000 		.4byte	.LFE10
ARM GAS  /tmp/ccAMfTfz.s 			page 179


 10129 0150 00000000 		.4byte	.LFB23
 10130 0154 C0000000 		.4byte	.LFE23
 10131 0158 00000000 		.4byte	.LFB24
 10132 015c 66000000 		.4byte	.LFE24
 10133 0160 00000000 		.4byte	.LFB12
 10134 0164 B8040000 		.4byte	.LFE12
 10135 0168 00000000 		.4byte	.LFB13
 10136 016c 54010000 		.4byte	.LFE13
 10137 0170 00000000 		.4byte	.LFB8
 10138 0174 46000000 		.4byte	.LFE8
 10139 0178 00000000 		.4byte	.LFB14
 10140 017c 5C000000 		.4byte	.LFE14
 10141 0180 00000000 		.4byte	.LFB15
 10142 0184 EE020000 		.4byte	.LFE15
 10143 0188 00000000 		.4byte	.LFB17
 10144 018c BA000000 		.4byte	.LFE17
 10145 0190 00000000 		.4byte	.LFB18
 10146 0194 34000000 		.4byte	.LFE18
 10147 0198 00000000 		.4byte	.LFB19
 10148 019c 54000000 		.4byte	.LFE19
 10149 01a0 00000000 		.4byte	.LFB20
 10150 01a4 48000000 		.4byte	.LFE20
 10151 01a8 00000000 		.4byte	.LFB21
 10152 01ac 66000000 		.4byte	.LFE21
 10153 01b0 00000000 		.4byte	.LFB22
 10154 01b4 CA000000 		.4byte	.LFE22
 10155 01b8 00000000 		.4byte	0
 10156 01bc 00000000 		.4byte	0
 10157              		.section	.debug_line,"",%progbits
 10158              	.Ldebug_line0:
 10159 0000 50070000 		.section	.debug_str,"MS",%progbits,1
 10159      0200A501 
 10159      00000201 
 10159      FB0E0D00 
 10159      01010101 
 10160              	.LASF190:
 10161 0000 7463705F 		.ascii	"tcp_write_checks\000"
 10161      77726974 
 10161      655F6368 
 10161      65636B73 
 10161      00
 10162              	.LASF183:
 10163 0011 6C617965 		.ascii	"layer\000"
 10163      7200
 10164              	.LASF140:
 10165 0017 4D454D50 		.ascii	"MEMP_TCP_PCB_LISTEN\000"
 10165      5F544350 
 10165      5F504342 
 10165      5F4C4953 
 10165      54454E00 
 10166              	.LASF215:
 10167 002b 7463705F 		.ascii	"tcp_keepalive\000"
 10167      6B656570 
 10167      616C6976 
 10167      6500
 10168              	.LASF68:
 10169 0039 736F5F6F 		.ascii	"so_options\000"
ARM GAS  /tmp/ccAMfTfz.s 			page 180


 10169      7074696F 
 10169      6E7300
 10170              	.LASF241:
 10171 0044 2F686F6D 		.ascii	"/home/caroline/Documents/PAF/ChibiOS_2.6.4/demos/AR"
 10171      652F6361 
 10171      726F6C69 
 10171      6E652F44 
 10171      6F63756D 
 10172 0077 4D434D34 		.ascii	"MCM4-STM32F407-LWIP\000"
 10172      2D53544D 
 10172      33324634 
 10172      30372D4C 
 10172      57495000 
 10173              	.LASF186:
 10174 008b 6F766572 		.ascii	"oversize\000"
 10174      73697A65 
 10174      00
 10175              	.LASF229:
 10176 0094 70627566 		.ascii	"pbuf_clen\000"
 10176      5F636C65 
 10176      6E00
 10177              	.LASF38:
 10178 009e 50425546 		.ascii	"PBUF_RAM\000"
 10178      5F52414D 
 10178      00
 10179              	.LASF136:
 10180 00a7 75726770 		.ascii	"urgp\000"
 10180      00
 10181              	.LASF199:
 10182 00ac 756E7365 		.ascii	"unsent_optlen\000"
 10182      6E745F6F 
 10182      70746C65 
 10182      6E00
 10183              	.LASF74:
 10184 00ba 706F6C6C 		.ascii	"polltmr\000"
 10184      746D7200 
 10185              	.LASF36:
 10186 00c2 50425546 		.ascii	"PBUF_RAW\000"
 10186      5F524157 
 10186      00
 10187              	.LASF42:
 10188 00cb 70627566 		.ascii	"pbuf_type\000"
 10188      5F747970 
 10188      6500
 10189              	.LASF243:
 10190 00d5 7463705F 		.ascii	"tcp_pbuf_prealloc\000"
 10190      70627566 
 10190      5F707265 
 10190      616C6C6F 
 10190      6300
 10191              	.LASF127:
 10192 00e7 54494D45 		.ascii	"TIME_WAIT\000"
 10192      5F574149 
 10192      5400
 10193              	.LASF0:
 10194 00f1 756E7369 		.ascii	"unsigned int\000"
 10194      676E6564 
ARM GAS  /tmp/ccAMfTfz.s 			page 181


 10194      20696E74 
 10194      00
 10195              	.LASF116:
 10196 00fe 7463705F 		.ascii	"tcp_connected_fn\000"
 10196      636F6E6E 
 10196      65637465 
 10196      645F666E 
 10196      00
 10197              	.LASF43:
 10198 010f 6E657874 		.ascii	"next\000"
 10198      00
 10199              	.LASF216:
 10200 0114 7463705F 		.ascii	"tcp_zero_window_probe\000"
 10200      7A65726F 
 10200      5F77696E 
 10200      646F775F 
 10200      70726F62 
 10201              	.LASF32:
 10202 012a 6572725F 		.ascii	"err_t\000"
 10202      7400
 10203              	.LASF56:
 10204 0130 6C696E6B 		.ascii	"linkoutput\000"
 10204      6F757470 
 10204      757400
 10205              	.LASF9:
 10206 013b 5F5F696E 		.ascii	"__int32_t\000"
 10206      7433325F 
 10206      7400
 10207              	.LASF213:
 10208 0145 7463705F 		.ascii	"tcp_rexmit\000"
 10208      7265786D 
 10208      697400
 10209              	.LASF26:
 10210 0150 7531365F 		.ascii	"u16_t\000"
 10210      7400
 10211              	.LASF240:
 10212 0156 2E2E2F2E 		.ascii	"../../ext/lwip/src/core/tcp_out.c\000"
 10212      2E2F6578 
 10212      742F6C77 
 10212      69702F73 
 10212      72632F63 
 10213              	.LASF80:
 10214 0178 7263765F 		.ascii	"rcv_ann_right_edge\000"
 10214      616E6E5F 
 10214      72696768 
 10214      745F6564 
 10214      676500
 10215              	.LASF196:
 10216 018b 6F766572 		.ascii	"oversize_used\000"
 10216      73697A65 
 10216      5F757365 
 10216      6400
 10217              	.LASF163:
 10218 0199 73746174 		.ascii	"stats_mem\000"
 10218      735F6D65 
 10218      6D00
 10219              	.LASF178:
ARM GAS  /tmp/ccAMfTfz.s 			page 182


 10220 01a3 6F70746C 		.ascii	"optlen\000"
 10220      656E00
 10221              	.LASF225:
 10222 01aa 6C776970 		.ascii	"lwip_htonl\000"
 10222      5F68746F 
 10222      6E6C00
 10223              	.LASF62:
 10224 01b5 6E657469 		.ascii	"netif_output_fn\000"
 10224      665F6F75 
 10224      74707574 
 10224      5F666E00 
 10225              	.LASF224:
 10226 01c5 6C776970 		.ascii	"lwip_htons\000"
 10226      5F68746F 
 10226      6E7300
 10227              	.LASF111:
 10228 01d0 6B656570 		.ascii	"keep_cnt_sent\000"
 10228      5F636E74 
 10228      5F73656E 
 10228      7400
 10229              	.LASF150:
 10230 01de 4D454D50 		.ascii	"MEMP_PBUF_POOL\000"
 10230      5F504255 
 10230      465F504F 
 10230      4F4C00
 10231              	.LASF220:
 10232 01ed 6C776970 		.ascii	"lwip_stats\000"
 10232      5F737461 
 10232      747300
 10233              	.LASF113:
 10234 01f8 7463705F 		.ascii	"tcp_sent_fn\000"
 10234      73656E74 
 10234      5F666E00 
 10235              	.LASF33:
 10236 0204 50425546 		.ascii	"PBUF_TRANSPORT\000"
 10236      5F545241 
 10236      4E53504F 
 10236      525400
 10237              	.LASF204:
 10238 0213 7463705F 		.ascii	"tcp_enqueue_flags\000"
 10238      656E7175 
 10238      6575655F 
 10238      666C6167 
 10238      7300
 10239              	.LASF167:
 10240 0225 73746174 		.ascii	"stats_syselem\000"
 10240      735F7379 
 10240      73656C65 
 10240      6D00
 10241              	.LASF132:
 10242 0233 7365716E 		.ascii	"seqno\000"
 10242      6F00
 10243              	.LASF61:
 10244 0239 6E657469 		.ascii	"netif_input_fn\000"
 10244      665F696E 
 10244      7075745F 
 10244      666E00
ARM GAS  /tmp/ccAMfTfz.s 			page 183


 10245              	.LASF20:
 10246 0248 75696E74 		.ascii	"uint32_t\000"
 10246      33325F74 
 10246      00
 10247              	.LASF15:
 10248 0251 696E7438 		.ascii	"int8_t\000"
 10248      5F7400
 10249              	.LASF87:
 10250 0258 63776E64 		.ascii	"cwnd\000"
 10250      00
 10251              	.LASF146:
 10252 025d 4D454D50 		.ascii	"MEMP_TCPIP_MSG_API\000"
 10252      5F544350 
 10252      49505F4D 
 10252      53475F41 
 10252      504900
 10253              	.LASF161:
 10254 0270 6F707465 		.ascii	"opterr\000"
 10254      727200
 10255              	.LASF72:
 10256 0277 6C6F6361 		.ascii	"local_port\000"
 10256      6C5F706F 
 10256      727400
 10257              	.LASF169:
 10258 0282 6D757465 		.ascii	"mutex\000"
 10258      7800
 10259              	.LASF174:
 10260 0288 69705F66 		.ascii	"ip_frag\000"
 10260      72616700 
 10261              	.LASF166:
 10262 0290 696C6C65 		.ascii	"illegal\000"
 10262      67616C00 
 10263              	.LASF221:
 10264 0298 70627566 		.ascii	"pbuf_alloc\000"
 10264      5F616C6C 
 10264      6F6300
 10265              	.LASF17:
 10266 02a3 696E7431 		.ascii	"int16_t\000"
 10266      365F7400 
 10267              	.LASF217:
 10268 02ab 69735F66 		.ascii	"is_fin\000"
 10268      696E00
 10269              	.LASF59:
 10270 02b2 68776164 		.ascii	"hwaddr\000"
 10270      647200
 10271              	.LASF173:
 10272 02b9 65746861 		.ascii	"etharp\000"
 10272      727000
 10273              	.LASF128:
 10274 02c0 7463705F 		.ascii	"tcp_seg\000"
 10274      73656700 
 10275              	.LASF14:
 10276 02c8 6C6F6E67 		.ascii	"long long unsigned int\000"
 10276      206C6F6E 
 10276      6720756E 
 10276      7369676E 
 10276      65642069 
ARM GAS  /tmp/ccAMfTfz.s 			page 184


 10277              	.LASF212:
 10278 02df 7463705F 		.ascii	"tcp_rexmit_rto\000"
 10278      7265786D 
 10278      69745F72 
 10278      746F00
 10279              	.LASF7:
 10280 02ee 5F5F7569 		.ascii	"__uint16_t\000"
 10280      6E743136 
 10280      5F7400
 10281              	.LASF242:
 10282 02f9 7463705F 		.ascii	"tcp_state\000"
 10282      73746174 
 10282      6500
 10283              	.LASF81:
 10284 0303 7274696D 		.ascii	"rtime\000"
 10284      6500
 10285              	.LASF58:
 10286 0309 68776164 		.ascii	"hwaddr_len\000"
 10286      64725F6C 
 10286      656E00
 10287              	.LASF77:
 10288 0314 7263765F 		.ascii	"rcv_nxt\000"
 10288      6E787400 
 10289              	.LASF147:
 10290 031c 4D454D50 		.ascii	"MEMP_TCPIP_MSG_INPKT\000"
 10290      5F544350 
 10290      49505F4D 
 10290      53475F49 
 10290      4E504B54 
 10291              	.LASF40:
 10292 0331 50425546 		.ascii	"PBUF_REF\000"
 10292      5F524546 
 10292      00
 10293              	.LASF100:
 10294 033a 756E6163 		.ascii	"unacked\000"
 10294      6B656400 
 10295              	.LASF122:
 10296 0342 46494E5F 		.ascii	"FIN_WAIT_1\000"
 10296      57414954 
 10296      5F3100
 10297              	.LASF171:
 10298 034d 73746174 		.ascii	"stats_\000"
 10298      735F00
 10299              	.LASF126:
 10300 0354 4C415354 		.ascii	"LAST_ACK\000"
 10300      5F41434B 
 10300      00
 10301              	.LASF45:
 10302 035d 746F745F 		.ascii	"tot_len\000"
 10302      6C656E00 
 10303              	.LASF44:
 10304 0365 7061796C 		.ascii	"payload\000"
 10304      6F616400 
 10305              	.LASF34:
 10306 036d 50425546 		.ascii	"PBUF_IP\000"
 10306      5F495000 
 10307              	.LASF55:
ARM GAS  /tmp/ccAMfTfz.s 			page 185


 10308 0375 6F757470 		.ascii	"output\000"
 10308      757400
 10309              	.LASF105:
 10310 037c 636F6E6E 		.ascii	"connected\000"
 10310      65637465 
 10310      6400
 10311              	.LASF244:
 10312 0386 7463705F 		.ascii	"tcp_output_segment\000"
 10312      6F757470 
 10312      75745F73 
 10312      65676D65 
 10312      6E7400
 10313              	.LASF21:
 10314 0399 5F426F6F 		.ascii	"_Bool\000"
 10314      6C00
 10315              	.LASF182:
 10316 039f 7365716E 		.ascii	"seqno_be\000"
 10316      6F5F6265 
 10316      00
 10317              	.LASF41:
 10318 03a8 50425546 		.ascii	"PBUF_POOL\000"
 10318      5F504F4F 
 10318      4C00
 10319              	.LASF125:
 10320 03b2 434C4F53 		.ascii	"CLOSING\000"
 10320      494E4700 
 10321              	.LASF188:
 10322 03ba 66697273 		.ascii	"first_seg\000"
 10322      745F7365 
 10322      6700
 10323              	.LASF47:
 10324 03c4 666C6167 		.ascii	"flags\000"
 10324      7300
 10325              	.LASF86:
 10326 03ca 6C617374 		.ascii	"lastack\000"
 10326      61636B00 
 10327              	.LASF151:
 10328 03d2 4D454D50 		.ascii	"MEMP_MAX\000"
 10328      5F4D4158 
 10328      00
 10329              	.LASF25:
 10330 03db 73385F74 		.ascii	"s8_t\000"
 10330      00
 10331              	.LASF29:
 10332 03e0 7333325F 		.ascii	"s32_t\000"
 10332      7400
 10333              	.LASF145:
 10334 03e6 4D454D50 		.ascii	"MEMP_NETCONN\000"
 10334      5F4E4554 
 10334      434F4E4E 
 10334      00
 10335              	.LASF209:
 10336 03f3 7463705F 		.ascii	"tcp_output\000"
 10336      6F757470 
 10336      757400
 10337              	.LASF64:
 10338 03fe 7463705F 		.ascii	"tcp_accept_fn\000"
ARM GAS  /tmp/ccAMfTfz.s 			page 186


 10338      61636365 
 10338      70745F66 
 10338      6E00
 10339              	.LASF172:
 10340 040c 6C696E6B 		.ascii	"link\000"
 10340      00
 10341              	.LASF83:
 10342 0411 72747365 		.ascii	"rtseq\000"
 10342      7100
 10343              	.LASF223:
 10344 0417 70627566 		.ascii	"pbuf_header\000"
 10344      5F686561 
 10344      64657200 
 10345              	.LASF85:
 10346 0423 64757061 		.ascii	"dupacks\000"
 10346      636B7300 
 10347              	.LASF71:
 10348 042b 7072696F 		.ascii	"prio\000"
 10348      00
 10349              	.LASF70:
 10350 0430 61636365 		.ascii	"accept\000"
 10350      707400
 10351              	.LASF149:
 10352 0437 4D454D50 		.ascii	"MEMP_PBUF\000"
 10352      5F504255 
 10352      4600
 10353              	.LASF106:
 10354 0441 706F6C6C 		.ascii	"poll\000"
 10354      00
 10355              	.LASF23:
 10356 0446 63686172 		.ascii	"char\000"
 10356      00
 10357              	.LASF192:
 10358 044b 6C617374 		.ascii	"last_unsent\000"
 10358      5F756E73 
 10358      656E7400 
 10359              	.LASF31:
 10360 0457 6D656D5F 		.ascii	"mem_size_t\000"
 10360      73697A65 
 10360      5F7400
 10361              	.LASF153:
 10362 0462 73746174 		.ascii	"stats_proto\000"
 10362      735F7072 
 10362      6F746F00 
 10363              	.LASF95:
 10364 046e 61636B65 		.ascii	"acked\000"
 10364      6400
 10365              	.LASF124:
 10366 0474 434C4F53 		.ascii	"CLOSE_WAIT\000"
 10366      455F5741 
 10366      495400
 10367              	.LASF238:
 10368 047f 70627566 		.ascii	"pbuf_copy_partial\000"
 10368      5F636F70 
 10368      795F7061 
 10368      72746961 
 10368      6C00
ARM GAS  /tmp/ccAMfTfz.s 			page 187


 10369              	.LASF198:
 10370 0491 73706163 		.ascii	"space\000"
 10370      6500
 10371              	.LASF103:
 10372 0497 73656E74 		.ascii	"sent\000"
 10372      00
 10373              	.LASF16:
 10374 049c 75696E74 		.ascii	"uint8_t\000"
 10374      385F7400 
 10375              	.LASF90:
 10376 04a4 736E645F 		.ascii	"snd_wl1\000"
 10376      776C3100 
 10377              	.LASF91:
 10378 04ac 736E645F 		.ascii	"snd_wl2\000"
 10378      776C3200 
 10379              	.LASF115:
 10380 04b4 7463705F 		.ascii	"tcp_err_fn\000"
 10380      6572725F 
 10380      666E00
 10381              	.LASF226:
 10382 04bf 70627566 		.ascii	"pbuf_free\000"
 10382      5F667265 
 10382      6500
 10383              	.LASF92:
 10384 04c9 736E645F 		.ascii	"snd_lbb\000"
 10384      6C626200 
 10385              	.LASF222:
 10386 04d1 6D656D70 		.ascii	"memp_malloc\000"
 10386      5F6D616C 
 10386      6C6F6300 
 10387              	.LASF144:
 10388 04dd 4D454D50 		.ascii	"MEMP_NETBUF\000"
 10388      5F4E4554 
 10388      42554600 
 10389              	.LASF53:
 10390 04e9 6E65746D 		.ascii	"netmask\000"
 10390      61736B00 
 10391              	.LASF13:
 10392 04f1 6C6F6E67 		.ascii	"long long int\000"
 10392      206C6F6E 
 10392      6720696E 
 10392      7400
 10393              	.LASF133:
 10394 04ff 61636B6E 		.ascii	"ackno\000"
 10394      6F00
 10395              	.LASF218:
 10396 0505 7463705F 		.ascii	"tcp_input_pcb\000"
 10396      696E7075 
 10396      745F7063 
 10396      6200
 10397              	.LASF110:
 10398 0513 70657273 		.ascii	"persist_backoff\000"
 10398      6973745F 
 10398      6261636B 
 10398      6F666600 
 10399              	.LASF139:
 10400 0523 4D454D50 		.ascii	"MEMP_TCP_PCB\000"
ARM GAS  /tmp/ccAMfTfz.s 			page 188


 10400      5F544350 
 10400      5F504342 
 10400      00
 10401              	.LASF176:
 10402 0530 6D656D70 		.ascii	"memp\000"
 10402      00
 10403              	.LASF24:
 10404 0535 75385F74 		.ascii	"u8_t\000"
 10404      00
 10405              	.LASF5:
 10406 053a 5F5F696E 		.ascii	"__int16_t\000"
 10406      7431365F 
 10406      7400
 10407              	.LASF177:
 10408 0544 6F707466 		.ascii	"optflags\000"
 10408      6C616773 
 10408      00
 10409              	.LASF73:
 10410 054d 72656D6F 		.ascii	"remote_port\000"
 10410      74655F70 
 10410      6F727400 
 10411              	.LASF165:
 10412 0559 75736564 		.ascii	"used\000"
 10412      00
 10413              	.LASF202:
 10414 055e 6D61785F 		.ascii	"max_len\000"
 10414      6C656E00 
 10415              	.LASF79:
 10416 0566 7263765F 		.ascii	"rcv_ann_wnd\000"
 10416      616E6E5F 
 10416      776E6400 
 10417              	.LASF156:
 10418 0572 63686B65 		.ascii	"chkerr\000"
 10418      727200
 10419              	.LASF142:
 10420 0579 4D454D50 		.ascii	"MEMP_REASSDATA\000"
 10420      5F524541 
 10420      53534441 
 10420      544100
 10421              	.LASF112:
 10422 0588 7463705F 		.ascii	"tcp_recv_fn\000"
 10422      72656376 
 10422      5F666E00 
 10423              	.LASF35:
 10424 0594 50425546 		.ascii	"PBUF_LINK\000"
 10424      5F4C494E 
 10424      4B00
 10425              	.LASF2:
 10426 059e 5F5F696E 		.ascii	"__int8_t\000"
 10426      74385F74 
 10426      00
 10427              	.LASF114:
 10428 05a7 7463705F 		.ascii	"tcp_poll_fn\000"
 10428      706F6C6C 
 10428      5F666E00 
 10429              	.LASF235:
 10430 05b3 7463705F 		.ascii	"tcp_eff_send_mss\000"
ARM GAS  /tmp/ccAMfTfz.s 			page 189


 10430      6566665F 
 10430      73656E64 
 10430      5F6D7373 
 10430      00
 10431              	.LASF18:
 10432 05c4 75696E74 		.ascii	"uint16_t\000"
 10432      31365F74 
 10432      00
 10433              	.LASF206:
 10434 05cd 7463705F 		.ascii	"tcp_send_fin\000"
 10434      73656E64 
 10434      5F66696E 
 10434      00
 10435              	.LASF107:
 10436 05da 65727266 		.ascii	"errf\000"
 10436      00
 10437              	.LASF93:
 10438 05df 736E645F 		.ascii	"snd_wnd\000"
 10438      776E6400 
 10439              	.LASF180:
 10440 05e7 7463705F 		.ascii	"tcp_output_alloc_header\000"
 10440      6F757470 
 10440      75745F61 
 10440      6C6C6F63 
 10440      5F686561 
 10441              	.LASF227:
 10442 05ff 7463705F 		.ascii	"tcp_seg_free\000"
 10442      7365675F 
 10442      66726565 
 10442      00
 10443              	.LASF211:
 10444 060c 7463705F 		.ascii	"tcp_rst\000"
 10444      72737400 
 10445              	.LASF237:
 10446 0614 6C776970 		.ascii	"lwip_ntohl\000"
 10446      5F6E746F 
 10446      686C00
 10447              	.LASF101:
 10448 061f 6F6F7365 		.ascii	"ooseq\000"
 10448      7100
 10449              	.LASF232:
 10450 0625 6C776970 		.ascii	"lwip_ntohs\000"
 10450      5F6E746F 
 10450      687300
 10451              	.LASF185:
 10452 0630 6D61785F 		.ascii	"max_length\000"
 10452      6C656E67 
 10452      746800
 10453              	.LASF117:
 10454 063b 434C4F53 		.ascii	"CLOSED\000"
 10454      454400
 10455              	.LASF28:
 10456 0642 7533325F 		.ascii	"u32_t\000"
 10456      7400
 10457              	.LASF189:
 10458 0648 616C6C6F 		.ascii	"alloc\000"
 10458      6300
ARM GAS  /tmp/ccAMfTfz.s 			page 190


 10459              	.LASF6:
 10460 064e 73686F72 		.ascii	"short int\000"
 10460      7420696E 
 10460      7400
 10461              	.LASF175:
 10462 0658 69636D70 		.ascii	"icmp\000"
 10462      00
 10463              	.LASF191:
 10464 065d 636F6E63 		.ascii	"concat_p\000"
 10464      61745F70 
 10464      00
 10465              	.LASF10:
 10466 0666 6C6F6E67 		.ascii	"long int\000"
 10466      20696E74 
 10466      00
 10467              	.LASF233:
 10468 066f 696E6574 		.ascii	"inet_chksum_pseudo\000"
 10468      5F63686B 
 10468      73756D5F 
 10468      70736575 
 10468      646F00
 10469              	.LASF159:
 10470 0682 72746572 		.ascii	"rterr\000"
 10470      7200
 10471              	.LASF164:
 10472 0688 61766169 		.ascii	"avail\000"
 10472      6C00
 10473              	.LASF184:
 10474 068e 6C656E67 		.ascii	"length\000"
 10474      746800
 10475              	.LASF99:
 10476 0695 756E7365 		.ascii	"unsent\000"
 10476      6E7400
 10477              	.LASF78:
 10478 069c 7263765F 		.ascii	"rcv_wnd\000"
 10478      776E6400 
 10479              	.LASF82:
 10480 06a4 72747465 		.ascii	"rttest\000"
 10480      737400
 10481              	.LASF207:
 10482 06ab 7463705F 		.ascii	"tcp_send_empty_ack\000"
 10482      73656E64 
 10482      5F656D70 
 10482      74795F61 
 10482      636B00
 10483              	.LASF208:
 10484 06be 6F707473 		.ascii	"opts\000"
 10484      00
 10485              	.LASF148:
 10486 06c3 4D454D50 		.ascii	"MEMP_SYS_TIMEOUT\000"
 10486      5F535953 
 10486      5F54494D 
 10486      454F5554 
 10486      00
 10487              	.LASF76:
 10488 06d4 6C617374 		.ascii	"last_timer\000"
 10488      5F74696D 
ARM GAS  /tmp/ccAMfTfz.s 			page 191


 10488      657200
 10489              	.LASF138:
 10490 06df 4D454D50 		.ascii	"MEMP_UDP_PCB\000"
 10490      5F554450 
 10490      5F504342 
 10490      00
 10491              	.LASF66:
 10492 06ec 6C6F6361 		.ascii	"local_ip\000"
 10492      6C5F6970 
 10492      00
 10493              	.LASF181:
 10494 06f5 64617461 		.ascii	"datalen\000"
 10494      6C656E00 
 10495              	.LASF170:
 10496 06fd 6D626F78 		.ascii	"mbox\000"
 10496      00
 10497              	.LASF98:
 10498 0702 756E7365 		.ascii	"unsent_oversize\000"
 10498      6E745F6F 
 10498      76657273 
 10498      697A6500 
 10499              	.LASF89:
 10500 0712 736E645F 		.ascii	"snd_nxt\000"
 10500      6E787400 
 10501              	.LASF201:
 10502 071a 6C656674 		.ascii	"left\000"
 10502      00
 10503              	.LASF30:
 10504 071f 6D656D5F 		.ascii	"mem_ptr_t\000"
 10504      7074725F 
 10504      7400
 10505              	.LASF3:
 10506 0729 5F5F7569 		.ascii	"__uint8_t\000"
 10506      6E74385F 
 10506      7400
 10507              	.LASF121:
 10508 0733 45535441 		.ascii	"ESTABLISHED\000"
 10508      424C4953 
 10508      48454400 
 10509              	.LASF162:
 10510 073f 63616368 		.ascii	"cachehit\000"
 10510      65686974 
 10510      00
 10511              	.LASF94:
 10512 0748 736E645F 		.ascii	"snd_wnd_max\000"
 10512      776E645F 
 10512      6D617800 
 10513              	.LASF60:
 10514 0754 6E616D65 		.ascii	"name\000"
 10514      00
 10515              	.LASF63:
 10516 0759 6E657469 		.ascii	"netif_linkoutput_fn\000"
 10516      665F6C69 
 10516      6E6B6F75 
 10516      74707574 
 10516      5F666E00 
 10517              	.LASF143:
ARM GAS  /tmp/ccAMfTfz.s 			page 192


 10518 076d 4D454D50 		.ascii	"MEMP_FRAG_PBUF\000"
 10518      5F465241 
 10518      475F5042 
 10518      554600
 10519              	.LASF88:
 10520 077c 73737468 		.ascii	"ssthresh\000"
 10520      72657368 
 10520      00
 10521              	.LASF96:
 10522 0785 736E645F 		.ascii	"snd_buf\000"
 10522      62756600 
 10523              	.LASF75:
 10524 078d 706F6C6C 		.ascii	"pollinterval\000"
 10524      696E7465 
 10524      7276616C 
 10524      00
 10525              	.LASF137:
 10526 079a 4D454D50 		.ascii	"MEMP_RAW_PCB\000"
 10526      5F524157 
 10526      5F504342 
 10526      00
 10527              	.LASF134:
 10528 07a7 5F686472 		.ascii	"_hdrlen_rsvd_flags\000"
 10528      6C656E5F 
 10528      72737664 
 10528      5F666C61 
 10528      677300
 10529              	.LASF157:
 10530 07ba 6C656E65 		.ascii	"lenerr\000"
 10530      727200
 10531              	.LASF22:
 10532 07c1 73697A65 		.ascii	"sizetype\000"
 10532      74797065 
 10532      00
 10533              	.LASF12:
 10534 07ca 6C6F6E67 		.ascii	"long unsigned int\000"
 10534      20756E73 
 10534      69676E65 
 10534      6420696E 
 10534      7400
 10535              	.LASF239:
 10536 07dc 474E5520 		.ascii	"GNU C 4.8.2 -mcpu=cortex-m4 -mno-thumb-interwork -m"
 10536      4320342E 
 10536      382E3220 
 10536      2D6D6370 
 10536      753D636F 
 10537 080f 7468756D 		.ascii	"thumb -ggdb -O2 -std=gnu99 -fomit-frame-pointer -fa"
 10537      62202D67 
 10537      67646220 
 10537      2D4F3220 
 10537      2D737464 
 10538 0842 6C69676E 		.ascii	"lign-functions=16 -ffunction-sections -fdata-sectio"
 10538      2D66756E 
 10538      6374696F 
 10538      6E733D31 
 10538      36202D66 
 10539 0875 6E73202D 		.ascii	"ns -fno-common\000"
ARM GAS  /tmp/ccAMfTfz.s 			page 193


 10539      666E6F2D 
 10539      636F6D6D 
 10539      6F6E00
 10540              	.LASF219:
 10541 0884 7463705F 		.ascii	"tcp_ticks\000"
 10541      7469636B 
 10541      7300
 10542              	.LASF129:
 10543 088e 74637068 		.ascii	"tcphdr\000"
 10543      647200
 10544              	.LASF27:
 10545 0895 7331365F 		.ascii	"s16_t\000"
 10545      7400
 10546              	.LASF19:
 10547 089b 696E7433 		.ascii	"int32_t\000"
 10547      325F7400 
 10548              	.LASF37:
 10549 08a3 70627566 		.ascii	"pbuf_layer\000"
 10549      5F6C6179 
 10549      657200
 10550              	.LASF187:
 10551 08ae 61706966 		.ascii	"apiflags\000"
 10551      6C616773 
 10551      00
 10552              	.LASF102:
 10553 08b7 72656675 		.ascii	"refused_data\000"
 10553      7365645F 
 10553      64617461 
 10553      00
 10554              	.LASF194:
 10555 08c4 71756575 		.ascii	"queue\000"
 10555      6500
 10556              	.LASF160:
 10557 08ca 70726F74 		.ascii	"proterr\000"
 10557      65727200 
 10558              	.LASF54:
 10559 08d2 696E7075 		.ascii	"input\000"
 10559      7400
 10560              	.LASF193:
 10561 08d8 70726576 		.ascii	"prev_seg\000"
 10561      5F736567 
 10561      00
 10562              	.LASF130:
 10563 08e1 7463705F 		.ascii	"tcp_hdr\000"
 10563      68647200 
 10564              	.LASF46:
 10565 08e9 74797065 		.ascii	"type\000"
 10565      00
 10566              	.LASF168:
 10567 08ee 73746174 		.ascii	"stats_sys\000"
 10567      735F7379 
 10567      7300
 10568              	.LASF4:
 10569 08f8 756E7369 		.ascii	"unsigned char\000"
 10569      676E6564 
 10569      20636861 
 10569      7200
ARM GAS  /tmp/ccAMfTfz.s 			page 194


 10570              	.LASF11:
 10571 0906 5F5F7569 		.ascii	"__uint32_t\000"
 10571      6E743332 
 10571      5F7400
 10572              	.LASF123:
 10573 0911 46494E5F 		.ascii	"FIN_WAIT_2\000"
 10573      57414954 
 10573      5F3200
 10574              	.LASF158:
 10575 091c 6D656D65 		.ascii	"memerr\000"
 10575      727200
 10576              	.LASF141:
 10577 0923 4D454D50 		.ascii	"MEMP_TCP_SEG\000"
 10577      5F544350 
 10577      5F534547 
 10577      00
 10578              	.LASF179:
 10579 0930 7463705F 		.ascii	"tcp_create_segment\000"
 10579      63726561 
 10579      74655F73 
 10579      65676D65 
 10579      6E7400
 10580              	.LASF119:
 10581 0943 53594E5F 		.ascii	"SYN_SENT\000"
 10581      53454E54 
 10581      00
 10582              	.LASF48:
 10583 094c 70627566 		.ascii	"pbuf\000"
 10583      00
 10584              	.LASF108:
 10585 0951 6B656570 		.ascii	"keep_idle\000"
 10585      5F69646C 
 10585      6500
 10586              	.LASF197:
 10587 095b 6D73735F 		.ascii	"mss_local\000"
 10587      6C6F6361 
 10587      6C00
 10588              	.LASF69:
 10589 0965 63616C6C 		.ascii	"callback_arg\000"
 10589      6261636B 
 10589      5F617267 
 10589      00
 10590              	.LASF245:
 10591 0972 706F7274 		.ascii	"port_halt\000"
 10591      5F68616C 
 10591      7400
 10592              	.LASF118:
 10593 097c 4C495354 		.ascii	"LISTEN\000"
 10593      454E00
 10594              	.LASF50:
 10595 0983 61646472 		.ascii	"addr\000"
 10595      00
 10596              	.LASF155:
 10597 0988 64726F70 		.ascii	"drop\000"
 10597      00
 10598              	.LASF57:
 10599 098d 73746174 		.ascii	"state\000"
ARM GAS  /tmp/ccAMfTfz.s 			page 195


 10599      6500
 10600              	.LASF52:
 10601 0993 6E657469 		.ascii	"netif\000"
 10601      6600
 10602              	.LASF97:
 10603 0999 736E645F 		.ascii	"snd_queuelen\000"
 10603      71756575 
 10603      656C656E 
 10603      00
 10604              	.LASF135:
 10605 09a6 63686B73 		.ascii	"chksum\000"
 10605      756D00
 10606              	.LASF203:
 10607 09ad 7463705F 		.ascii	"tcp_write\000"
 10607      77726974 
 10607      6500
 10608              	.LASF104:
 10609 09b7 72656376 		.ascii	"recv\000"
 10609      00
 10610              	.LASF1:
 10611 09bc 7369676E 		.ascii	"signed char\000"
 10611      65642063 
 10611      68617200 
 10612              	.LASF65:
 10613 09c8 7463705F 		.ascii	"tcp_pcb\000"
 10613      70636200 
 10614              	.LASF8:
 10615 09d0 73686F72 		.ascii	"short unsigned int\000"
 10615      7420756E 
 10615      7369676E 
 10615      65642069 
 10615      6E7400
 10616              	.LASF200:
 10617 09e3 7365676C 		.ascii	"seglen\000"
 10617      656E00
 10618              	.LASF210:
 10619 09ea 6375725F 		.ascii	"cur_seg\000"
 10619      73656700 
 10620              	.LASF228:
 10621 09f2 6D656D63 		.ascii	"memcpy\000"
 10621      707900
 10622              	.LASF195:
 10623 09f9 71756575 		.ascii	"queuelen\000"
 10623      656C656E 
 10623      00
 10624              	.LASF154:
 10625 0a02 786D6974 		.ascii	"xmit\000"
 10625      00
 10626              	.LASF109:
 10627 0a07 70657273 		.ascii	"persist_cnt\000"
 10627      6973745F 
 10627      636E7400 
 10628              	.LASF67:
 10629 0a13 72656D6F 		.ascii	"remote_ip\000"
 10629      74655F69 
 10629      7000
 10630              	.LASF205:
ARM GAS  /tmp/ccAMfTfz.s 			page 196


 10631 0a1d 75736567 		.ascii	"useg\000"
 10631      00
 10632              	.LASF214:
 10633 0a22 7463705F 		.ascii	"tcp_rexmit_fast\000"
 10633      7265786D 
 10633      69745F66 
 10633      61737400 
 10634              	.LASF51:
 10635 0a32 69705F61 		.ascii	"ip_addr_t\000"
 10635      6464725F 
 10635      7400
 10636              	.LASF236:
 10637 0a3c 69705F72 		.ascii	"ip_route\000"
 10637      6F757465 
 10637      00
 10638              	.LASF231:
 10639 0a45 7463705F 		.ascii	"tcp_segs_free\000"
 10639      73656773 
 10639      5F667265 
 10639      6500
 10640              	.LASF230:
 10641 0a53 70627566 		.ascii	"pbuf_cat\000"
 10641      5F636174 
 10641      00
 10642              	.LASF152:
 10643 0a5c 6D656D70 		.ascii	"memp_t\000"
 10643      5F7400
 10644              	.LASF39:
 10645 0a63 50425546 		.ascii	"PBUF_ROM\000"
 10645      5F524F4D 
 10645      00
 10646              	.LASF234:
 10647 0a6c 69705F6F 		.ascii	"ip_output\000"
 10647      75747075 
 10647      7400
 10648              	.LASF84:
 10649 0a76 6E727478 		.ascii	"nrtx\000"
 10649      00
 10650              	.LASF131:
 10651 0a7b 64657374 		.ascii	"dest\000"
 10651      00
 10652              	.LASF120:
 10653 0a80 53594E5F 		.ascii	"SYN_RCVD\000"
 10653      52435644 
 10653      00
 10654              	.LASF49:
 10655 0a89 69705F61 		.ascii	"ip_addr\000"
 10655      64647200 
 10656              		.ident	"GCC: (4.8.2-14ubuntu1+6) 4.8.2"
ARM GAS  /tmp/ccAMfTfz.s 			page 197


DEFINED SYMBOLS
                            *ABS*:0000000000000000 tcp_out.c
     /tmp/ccAMfTfz.s:19     .text.tcp_pbuf_prealloc:0000000000000000 $t
     /tmp/ccAMfTfz.s:24     .text.tcp_pbuf_prealloc:0000000000000000 tcp_pbuf_prealloc
     /tmp/ccAMfTfz.s:120    .text.tcp_create_segment.isra.0:0000000000000000 $t
     /tmp/ccAMfTfz.s:125    .text.tcp_create_segment.isra.0:0000000000000000 tcp_create_segment.isra.0
     /tmp/ccAMfTfz.s:273    .text.tcp_output_alloc_header.constprop.1:0000000000000000 $t
     /tmp/ccAMfTfz.s:278    .text.tcp_output_alloc_header.constprop.1:0000000000000000 tcp_output_alloc_header.constprop.1
     /tmp/ccAMfTfz.s:381    .text.tcp_write:0000000000000000 $t
     /tmp/ccAMfTfz.s:387    .text.tcp_write:0000000000000000 tcp_write
     /tmp/ccAMfTfz.s:1263   .text.tcp_enqueue_flags:0000000000000000 $t
     /tmp/ccAMfTfz.s:1269   .text.tcp_enqueue_flags:0000000000000000 tcp_enqueue_flags
     /tmp/ccAMfTfz.s:1532   .text.tcp_send_fin:0000000000000000 $t
     /tmp/ccAMfTfz.s:1538   .text.tcp_send_fin:0000000000000000 tcp_send_fin
     /tmp/ccAMfTfz.s:1614   .text.tcp_send_empty_ack:0000000000000000 $t
     /tmp/ccAMfTfz.s:1620   .text.tcp_send_empty_ack:0000000000000000 tcp_send_empty_ack
     /tmp/ccAMfTfz.s:1702   .text.tcp_output:0000000000000000 $t
     /tmp/ccAMfTfz.s:1708   .text.tcp_output:0000000000000000 tcp_output
     /tmp/ccAMfTfz.s:2249   .text.tcp_rst:0000000000000000 $t
     /tmp/ccAMfTfz.s:2255   .text.tcp_rst:0000000000000000 tcp_rst
     /tmp/ccAMfTfz.s:2408   .text.tcp_rexmit_rto:0000000000000000 $t
     /tmp/ccAMfTfz.s:2414   .text.tcp_rexmit_rto:0000000000000000 tcp_rexmit_rto
     /tmp/ccAMfTfz.s:2470   .text.tcp_rexmit:0000000000000000 $t
     /tmp/ccAMfTfz.s:2476   .text.tcp_rexmit:0000000000000000 tcp_rexmit
     /tmp/ccAMfTfz.s:2564   .text.tcp_rexmit_fast:0000000000000000 $t
     /tmp/ccAMfTfz.s:2570   .text.tcp_rexmit_fast:0000000000000000 tcp_rexmit_fast
     /tmp/ccAMfTfz.s:2635   .text.tcp_keepalive:0000000000000000 $t
     /tmp/ccAMfTfz.s:2641   .text.tcp_keepalive:0000000000000000 tcp_keepalive
     /tmp/ccAMfTfz.s:2727   .text.tcp_zero_window_probe:0000000000000000 $t
     /tmp/ccAMfTfz.s:2733   .text.tcp_zero_window_probe:0000000000000000 tcp_zero_window_probe
                     .debug_frame:0000000000000010 $d

UNDEFINED SYMBOLS
pbuf_alloc
port_halt
memp_malloc
pbuf_header
lwip_htons
lwip_htonl
lwip_stats
tcp_seg_free
pbuf_free
pbuf_cat
pbuf_clen
memcpy
tcp_segs_free
lwip_ntohs
inet_chksum_pseudo
ip_output
tcp_input_pcb
tcp_ticks
ip_route
lwip_ntohl
tcp_eff_send_mss
pbuf_copy_partial
