ARM GAS  /tmp/ccKKV81m.s 			page 1


   1              		.syntax unified
   2              		.cpu cortex-m4
   3              		.fpu softvfp
   4              		.eabi_attribute 20, 1
   5              		.eabi_attribute 21, 1
   6              		.eabi_attribute 23, 3
   7              		.eabi_attribute 24, 1
   8              		.eabi_attribute 25, 1
   9              		.eabi_attribute 26, 1
  10              		.eabi_attribute 30, 2
  11              		.eabi_attribute 34, 1
  12              		.eabi_attribute 18, 4
  13              		.thumb
  14              		.file	"tcpip.c"
  15              		.text
  16              	.Ltext0:
  17              		.cfi_sections	.debug_frame
  18              		.section	.text.tcpip_thread,"ax",%progbits
  19              		.align	2
  20              		.p2align 4,,15
  21              		.thumb
  22              		.thumb_func
  23              		.type	tcpip_thread, %function
  24              	tcpip_thread:
  25              	.LFB7:
  26              		.file 1 "../../ext/lwip/src/api/tcpip.c"
  27              		.loc 1 75 0
  28              		.cfi_startproc
  29              		@ args = 0, pretend = 0, frame = 8
  30              		@ frame_needed = 0, uses_anonymous_args = 0
  31              	.LVL0:
  32 0000 00B5     		push	{lr}
  33              		.cfi_def_cfa_offset 4
  34              		.cfi_offset 14, -4
  35              		.loc 1 79 0
  36 0002 40F20003 		movw	r3, #:lower16:.LANCHOR0
  37 0006 C0F20003 		movt	r3, #:upper16:.LANCHOR0
  38              		.loc 1 75 0
  39 000a 83B0     		sub	sp, sp, #12
  40              		.cfi_def_cfa_offset 16
  41              		.loc 1 79 0
  42 000c 1A68     		ldr	r2, [r3]
  43 000e 2AB1     		cbz	r2, .L3
  44              		.loc 1 80 0
  45 0010 40F20003 		movw	r3, #:lower16:.LANCHOR1
  46 0014 C0F20003 		movt	r3, #:upper16:.LANCHOR1
  47 0018 1868     		ldr	r0, [r3]
  48              	.LVL1:
  49 001a 9047     		blx	r2
  50              	.LVL2:
  51              	.L3:
  52              		.loc 1 88 0
  53 001c 40F20000 		movw	r0, #:lower16:.LANCHOR2
  54 0020 C0F20000 		movt	r0, #:upper16:.LANCHOR2
  55 0024 01A9     		add	r1, sp, #4
  56 0026 FFF7FEFF 		bl	sys_timeouts_mbox_fetch
  57              	.LVL3:
ARM GAS  /tmp/ccKKV81m.s 			page 2


  58              		.loc 1 90 0
  59 002a 019B     		ldr	r3, [sp, #4]
  60 002c 1A78     		ldrb	r2, [r3]	@ zero_extendqisi2
  61 002e 052A     		cmp	r2, #5
  62 0030 36D8     		bhi	.L5
  63 0032 DFE802F0 		tbb	[pc, r2]
  64              	.L7:
  65 0036 30       		.byte	(.L6-.L7)/2
  66 0037 22       		.byte	(.L8-.L7)/2
  67 0038 18       		.byte	(.L9-.L7)/2
  68 0039 0F       		.byte	(.L10-.L7)/2
  69 003a 07       		.byte	(.L11-.L7)/2
  70 003b 03       		.byte	(.L12-.L7)/2
  71              		.align	1
  72              	.L12:
  73              		.loc 1 141 0
  74 003c 9A68     		ldr	r2, [r3, #8]
  75 003e D868     		ldr	r0, [r3, #12]
  76 0040 9047     		blx	r2
  77              	.LVL4:
  78              		.loc 1 142 0
  79 0042 EBE7     		b	.L3
  80              	.L11:
  81              		.loc 1 135 0
  82 0044 D868     		ldr	r0, [r3, #12]
  83 0046 9A68     		ldr	r2, [r3, #8]
  84 0048 9047     		blx	r2
  85              	.LVL5:
  86              		.loc 1 136 0
  87 004a 0920     		movs	r0, #9
  88 004c 0199     		ldr	r1, [sp, #4]
  89 004e FFF7FEFF 		bl	memp_free
  90              	.LVL6:
  91              		.loc 1 137 0
  92 0052 E3E7     		b	.L3
  93              	.L10:
  94              		.loc 1 128 0
  95 0054 D868     		ldr	r0, [r3, #12]
  96 0056 1969     		ldr	r1, [r3, #16]
  97 0058 FFF7FEFF 		bl	sys_untimeout
  98              	.LVL7:
  99              		.loc 1 129 0
 100 005c 0920     		movs	r0, #9
 101 005e 0199     		ldr	r1, [sp, #4]
 102 0060 FFF7FEFF 		bl	memp_free
 103              	.LVL8:
 104              		.loc 1 130 0
 105 0064 DAE7     		b	.L3
 106              	.L9:
 107              		.loc 1 123 0
 108 0066 03F10800 		add	r0, r3, #8
 109 006a 07C8     		ldmia	r0, {r0, r1, r2}
 110 006c FFF7FEFF 		bl	sys_timeout
 111              	.LVL9:
 112              		.loc 1 124 0
 113 0070 0920     		movs	r0, #9
 114 0072 0199     		ldr	r1, [sp, #4]
ARM GAS  /tmp/ccKKV81m.s 			page 3


 115 0074 FFF7FEFF 		bl	memp_free
 116              	.LVL10:
 117              		.loc 1 125 0
 118 0078 D0E7     		b	.L3
 119              	.L8:
 120              		.loc 1 102 0
 121 007a D968     		ldr	r1, [r3, #12]
 122              		.loc 1 103 0
 123 007c 9868     		ldr	r0, [r3, #8]
 124              		.loc 1 102 0
 125 007e 91F82920 		ldrb	r2, [r1, #41]	@ zero_extendqisi2
 126 0082 12F0600F 		tst	r2, #96
 127 0086 0ED0     		beq	.L14
 128              		.loc 1 103 0
 129 0088 FFF7FEFF 		bl	ethernet_input
 130              	.LVL11:
 131              	.L15:
 132              		.loc 1 109 0
 133 008c 0A20     		movs	r0, #10
 134 008e 0199     		ldr	r1, [sp, #4]
 135 0090 FFF7FEFF 		bl	memp_free
 136              	.LVL12:
 137              		.loc 1 110 0
 138 0094 C2E7     		b	.L3
 139              	.L6:
 140              		.loc 1 94 0
 141 0096 9868     		ldr	r0, [r3, #8]
 142 0098 0368     		ldr	r3, [r0]
 143 009a 0430     		adds	r0, r0, #4
 144 009c 9847     		blx	r3
 145              	.LVL13:
 146              		.loc 1 95 0
 147 009e BDE7     		b	.L3
 148              	.L5:
 149              		.loc 1 146 0 discriminator 1
 150 00a0 FFF7FEFF 		bl	port_halt
 151              	.LVL14:
 152              		.loc 1 147 0 discriminator 1
 153 00a4 BAE7     		b	.L3
 154              	.L14:
 155              		.loc 1 107 0
 156 00a6 FFF7FEFF 		bl	ip_input
 157              	.LVL15:
 158 00aa EFE7     		b	.L15
 159              		.cfi_endproc
 160              	.LFE7:
 161              		.size	tcpip_thread, .-tcpip_thread
 162 00ac AFF30080 		.section	.text.pbuf_free_int,"ax",%progbits
 163              		.align	2
 164              		.p2align 4,,15
 165              		.thumb
 166              		.thumb_func
 167              		.type	pbuf_free_int, %function
 168              	pbuf_free_int:
 169              	.LFB17:
 170              		.loc 1 481 0
 171              		.cfi_startproc
ARM GAS  /tmp/ccKKV81m.s 			page 4


 172              		@ args = 0, pretend = 0, frame = 0
 173              		@ frame_needed = 0, uses_anonymous_args = 0
 174              		@ link register save eliminated.
 175              	.LVL16:
 176              		.loc 1 483 0
 177 0000 FFF7FEBF 		b	pbuf_free
 178              	.LVL17:
 179              		.cfi_endproc
 180              	.LFE17:
 181              		.size	pbuf_free_int, .-pbuf_free_int
 182 0004 AFF30080 		.section	.text.tcpip_input,"ax",%progbits
 182      AFF30080 
 182      AFF30080 
 183              		.align	2
 184              		.p2align 4,,15
 185              		.global	tcpip_input
 186              		.thumb
 187              		.thumb_func
 188              		.type	tcpip_input, %function
 189              	tcpip_input:
 190              	.LFB8:
 191              		.loc 1 162 0
 192              		.cfi_startproc
 193              		@ args = 0, pretend = 0, frame = 0
 194              		@ frame_needed = 0, uses_anonymous_args = 0
 195              	.LVL18:
 196 0000 70B5     		push	{r4, r5, r6, lr}
 197              		.cfi_def_cfa_offset 16
 198              		.cfi_offset 4, -16
 199              		.cfi_offset 5, -12
 200              		.cfi_offset 6, -8
 201              		.cfi_offset 14, -4
 202              		.loc 1 162 0
 203 0002 0646     		mov	r6, r0
 204              		.loc 1 180 0
 205 0004 40F20000 		movw	r0, #:lower16:.LANCHOR2
 206              	.LVL19:
 207 0008 C0F20000 		movt	r0, #:upper16:.LANCHOR2
 208              		.loc 1 162 0
 209 000c 0D46     		mov	r5, r1
 210              		.loc 1 180 0
 211 000e FFF7FEFF 		bl	sys_mbox_valid
 212              	.LVL20:
 213 0012 90B1     		cbz	r0, .L20
 214              		.loc 1 183 0
 215 0014 0A20     		movs	r0, #10
 216 0016 FFF7FEFF 		bl	memp_malloc
 217              	.LVL21:
 218              		.loc 1 184 0
 219 001a 0446     		mov	r4, r0
 220 001c 78B1     		cbz	r0, .L21
 221              		.loc 1 188 0
 222 001e 0123     		movs	r3, #1
 223              		.loc 1 191 0
 224 0020 40F20000 		movw	r0, #:lower16:.LANCHOR2
 225              	.LVL22:
 226              		.loc 1 189 0
ARM GAS  /tmp/ccKKV81m.s 			page 5


 227 0024 A660     		str	r6, [r4, #8]
 228              		.loc 1 190 0
 229 0026 E560     		str	r5, [r4, #12]
 230              		.loc 1 188 0
 231 0028 2370     		strb	r3, [r4]
 232              		.loc 1 191 0
 233 002a C0F20000 		movt	r0, #:upper16:.LANCHOR2
 234 002e 2146     		mov	r1, r4
 235 0030 FFF7FEFF 		bl	sys_mbox_trypost
 236              	.LVL23:
 237 0034 28B9     		cbnz	r0, .L23
 238              	.LVL24:
 239              	.L19:
 240              		.loc 1 197 0
 241 0036 40B2     		sxtb	r0, r0
 242 0038 70BD     		pop	{r4, r5, r6, pc}
 243              	.LVL25:
 244              	.L20:
 245              		.loc 1 181 0
 246 003a FA20     		movs	r0, #250
 247 003c FBE7     		b	.L19
 248              	.LVL26:
 249              	.L21:
 250              		.loc 1 185 0
 251 003e FF20     		movs	r0, #255
 252              	.LVL27:
 253 0040 F9E7     		b	.L19
 254              	.L23:
 255              		.loc 1 192 0
 256 0042 0A20     		movs	r0, #10
 257 0044 2146     		mov	r1, r4
 258 0046 FFF7FEFF 		bl	memp_free
 259              	.LVL28:
 260              		.loc 1 193 0
 261 004a FF20     		movs	r0, #255
 262 004c F3E7     		b	.L19
 263              		.cfi_endproc
 264              	.LFE8:
 265              		.size	tcpip_input, .-tcpip_input
 266 004e 00BF     		.section	.text.tcpip_callback_with_block,"ax",%progbits
 267              		.align	2
 268              		.p2align 4,,15
 269              		.global	tcpip_callback_with_block
 270              		.thumb
 271              		.thumb_func
 272              		.type	tcpip_callback_with_block, %function
 273              	tcpip_callback_with_block:
 274              	.LFB9:
 275              		.loc 1 212 0
 276              		.cfi_startproc
 277              		@ args = 0, pretend = 0, frame = 0
 278              		@ frame_needed = 0, uses_anonymous_args = 0
 279              	.LVL29:
 280 0000 F8B5     		push	{r3, r4, r5, r6, r7, lr}
 281              		.cfi_def_cfa_offset 24
 282              		.cfi_offset 3, -24
 283              		.cfi_offset 4, -20
ARM GAS  /tmp/ccKKV81m.s 			page 6


 284              		.cfi_offset 5, -16
 285              		.cfi_offset 6, -12
 286              		.cfi_offset 7, -8
 287              		.cfi_offset 14, -4
 288              		.loc 1 212 0
 289 0002 0746     		mov	r7, r0
 290              		.loc 1 215 0
 291 0004 40F20000 		movw	r0, #:lower16:.LANCHOR2
 292              	.LVL30:
 293 0008 C0F20000 		movt	r0, #:upper16:.LANCHOR2
 294              		.loc 1 212 0
 295 000c 0E46     		mov	r6, r1
 296 000e 1546     		mov	r5, r2
 297              		.loc 1 215 0
 298 0010 FFF7FEFF 		bl	sys_mbox_valid
 299              	.LVL31:
 300 0014 D8B1     		cbz	r0, .L27
 301              		.loc 1 216 0
 302 0016 0920     		movs	r0, #9
 303 0018 FFF7FEFF 		bl	memp_malloc
 304              	.LVL32:
 305              		.loc 1 217 0
 306 001c 0446     		mov	r4, r0
 307 001e F0B1     		cbz	r0, .L28
 308              		.loc 1 221 0
 309 0020 0423     		movs	r3, #4
 310              		.loc 1 222 0
 311 0022 8760     		str	r7, [r0, #8]
 312              		.loc 1 223 0
 313 0024 C660     		str	r6, [r0, #12]
 314              		.loc 1 221 0
 315 0026 0370     		strb	r3, [r0]
 316              		.loc 1 225 0
 317 0028 40F20000 		movw	r0, #:lower16:.LANCHOR2
 318              	.LVL33:
 319              		.loc 1 224 0
 320 002c 3DB9     		cbnz	r5, .L30
 321              		.loc 1 227 0
 322 002e C0F20000 		movt	r0, #:upper16:.LANCHOR2
 323 0032 2146     		mov	r1, r4
 324 0034 FFF7FEFF 		bl	sys_mbox_trypost
 325              	.LVL34:
 326 0038 58B9     		cbnz	r0, .L31
 327              	.LVL35:
 328              	.L25:
 329              		.loc 1 235 0
 330 003a 40B2     		sxtb	r0, r0
 331 003c F8BD     		pop	{r3, r4, r5, r6, r7, pc}
 332              	.LVL36:
 333              	.L30:
 334              		.loc 1 225 0
 335 003e 2146     		mov	r1, r4
 336 0040 C0F20000 		movt	r0, #:upper16:.LANCHOR2
 337 0044 FFF7FEFF 		bl	sys_mbox_post
 338              	.LVL37:
 339              		.loc 1 232 0
 340 0048 0020     		movs	r0, #0
ARM GAS  /tmp/ccKKV81m.s 			page 7


 341              		.loc 1 235 0
 342 004a 40B2     		sxtb	r0, r0
 343 004c F8BD     		pop	{r3, r4, r5, r6, r7, pc}
 344              	.LVL38:
 345              	.L27:
 346              		.loc 1 234 0
 347 004e FA20     		movs	r0, #250
 348 0050 F3E7     		b	.L25
 349              	.LVL39:
 350              	.L31:
 351              		.loc 1 228 0
 352 0052 0920     		movs	r0, #9
 353 0054 2146     		mov	r1, r4
 354 0056 FFF7FEFF 		bl	memp_free
 355              	.LVL40:
 356              		.loc 1 229 0
 357 005a FF20     		movs	r0, #255
 358 005c EDE7     		b	.L25
 359              	.LVL41:
 360              	.L28:
 361              		.loc 1 218 0
 362 005e FF20     		movs	r0, #255
 363              	.LVL42:
 364 0060 EBE7     		b	.L25
 365              		.cfi_endproc
 366              	.LFE9:
 367              		.size	tcpip_callback_with_block, .-tcpip_callback_with_block
 368 0062 00BFAFF3 		.section	.text.tcpip_timeout,"ax",%progbits
 368      0080AFF3 
 368      0080AFF3 
 368      0080
 369              		.align	2
 370              		.p2align 4,,15
 371              		.global	tcpip_timeout
 372              		.thumb
 373              		.thumb_func
 374              		.type	tcpip_timeout, %function
 375              	tcpip_timeout:
 376              	.LFB10:
 377              		.loc 1 248 0
 378              		.cfi_startproc
 379              		@ args = 0, pretend = 0, frame = 0
 380              		@ frame_needed = 0, uses_anonymous_args = 0
 381              	.LVL43:
 382 0000 70B5     		push	{r4, r5, r6, lr}
 383              		.cfi_def_cfa_offset 16
 384              		.cfi_offset 4, -16
 385              		.cfi_offset 5, -12
 386              		.cfi_offset 6, -8
 387              		.cfi_offset 14, -4
 388              		.loc 1 248 0
 389 0002 0646     		mov	r6, r0
 390              		.loc 1 251 0
 391 0004 40F20000 		movw	r0, #:lower16:.LANCHOR2
 392              	.LVL44:
 393 0008 C0F20000 		movt	r0, #:upper16:.LANCHOR2
 394              		.loc 1 248 0
ARM GAS  /tmp/ccKKV81m.s 			page 8


 395 000c 0D46     		mov	r5, r1
 396 000e 1446     		mov	r4, r2
 397              		.loc 1 251 0
 398 0010 FFF7FEFF 		bl	sys_mbox_valid
 399              	.LVL45:
 400 0014 90B1     		cbz	r0, .L34
 401              		.loc 1 252 0
 402 0016 0920     		movs	r0, #9
 403 0018 FFF7FEFF 		bl	memp_malloc
 404              	.LVL46:
 405              		.loc 1 253 0
 406 001c 0146     		mov	r1, r0
 407 001e 78B1     		cbz	r0, .L35
 408              		.loc 1 257 0
 409 0020 0222     		movs	r2, #2
 410              		.loc 1 261 0
 411 0022 40F20000 		movw	r0, #:lower16:.LANCHOR2
 412              	.LVL47:
 413 0026 C0F20000 		movt	r0, #:upper16:.LANCHOR2
 414              		.loc 1 258 0
 415 002a 8E60     		str	r6, [r1, #8]
 416              		.loc 1 259 0
 417 002c CD60     		str	r5, [r1, #12]
 418              		.loc 1 260 0
 419 002e 0C61     		str	r4, [r1, #16]
 420              		.loc 1 257 0
 421 0030 0A70     		strb	r2, [r1]
 422              		.loc 1 261 0
 423 0032 FFF7FEFF 		bl	sys_mbox_post
 424              	.LVL48:
 425              		.loc 1 262 0
 426 0036 0020     		movs	r0, #0
 427              	.L33:
 428              		.loc 1 265 0
 429 0038 40B2     		sxtb	r0, r0
 430 003a 70BD     		pop	{r4, r5, r6, pc}
 431              	.LVL49:
 432              	.L34:
 433              		.loc 1 264 0
 434 003c FA20     		movs	r0, #250
 435 003e FBE7     		b	.L33
 436              	.LVL50:
 437              	.L35:
 438              		.loc 1 254 0
 439 0040 FF20     		movs	r0, #255
 440              	.LVL51:
 441 0042 F9E7     		b	.L33
 442              		.cfi_endproc
 443              	.LFE10:
 444              		.size	tcpip_timeout, .-tcpip_timeout
 445 0044 AFF30080 		.section	.text.tcpip_untimeout,"ax",%progbits
 445      AFF30080 
 445      AFF30080 
 446              		.align	2
 447              		.p2align 4,,15
 448              		.global	tcpip_untimeout
 449              		.thumb
ARM GAS  /tmp/ccKKV81m.s 			page 9


 450              		.thumb_func
 451              		.type	tcpip_untimeout, %function
 452              	tcpip_untimeout:
 453              	.LFB11:
 454              		.loc 1 277 0
 455              		.cfi_startproc
 456              		@ args = 0, pretend = 0, frame = 0
 457              		@ frame_needed = 0, uses_anonymous_args = 0
 458              	.LVL52:
 459 0000 38B5     		push	{r3, r4, r5, lr}
 460              		.cfi_def_cfa_offset 16
 461              		.cfi_offset 3, -16
 462              		.cfi_offset 4, -12
 463              		.cfi_offset 5, -8
 464              		.cfi_offset 14, -4
 465              		.loc 1 277 0
 466 0002 0546     		mov	r5, r0
 467              		.loc 1 280 0
 468 0004 40F20000 		movw	r0, #:lower16:.LANCHOR2
 469              	.LVL53:
 470 0008 C0F20000 		movt	r0, #:upper16:.LANCHOR2
 471              		.loc 1 277 0
 472 000c 0C46     		mov	r4, r1
 473              		.loc 1 280 0
 474 000e FFF7FEFF 		bl	sys_mbox_valid
 475              	.LVL54:
 476 0012 88B1     		cbz	r0, .L38
 477              		.loc 1 281 0
 478 0014 0920     		movs	r0, #9
 479 0016 FFF7FEFF 		bl	memp_malloc
 480              	.LVL55:
 481              		.loc 1 282 0
 482 001a 0146     		mov	r1, r0
 483 001c 70B1     		cbz	r0, .L39
 484              		.loc 1 286 0
 485 001e 0322     		movs	r2, #3
 486              		.loc 1 289 0
 487 0020 40F20000 		movw	r0, #:lower16:.LANCHOR2
 488              	.LVL56:
 489 0024 C0F20000 		movt	r0, #:upper16:.LANCHOR2
 490              		.loc 1 287 0
 491 0028 CD60     		str	r5, [r1, #12]
 492              		.loc 1 288 0
 493 002a 0C61     		str	r4, [r1, #16]
 494              		.loc 1 286 0
 495 002c 0A70     		strb	r2, [r1]
 496              		.loc 1 289 0
 497 002e FFF7FEFF 		bl	sys_mbox_post
 498              	.LVL57:
 499              		.loc 1 290 0
 500 0032 0020     		movs	r0, #0
 501              	.L37:
 502              		.loc 1 293 0
 503 0034 40B2     		sxtb	r0, r0
 504 0036 38BD     		pop	{r3, r4, r5, pc}
 505              	.LVL58:
 506              	.L38:
ARM GAS  /tmp/ccKKV81m.s 			page 10


 507              		.loc 1 292 0
 508 0038 FA20     		movs	r0, #250
 509 003a FBE7     		b	.L37
 510              	.LVL59:
 511              	.L39:
 512              		.loc 1 283 0
 513 003c FF20     		movs	r0, #255
 514              	.LVL60:
 515 003e F9E7     		b	.L37
 516              		.cfi_endproc
 517              	.LFE11:
 518              		.size	tcpip_untimeout, .-tcpip_untimeout
 519              		.section	.text.tcpip_apimsg,"ax",%progbits
 520              		.align	2
 521              		.p2align 4,,15
 522              		.global	tcpip_apimsg
 523              		.thumb
 524              		.thumb_func
 525              		.type	tcpip_apimsg, %function
 526              	tcpip_apimsg:
 527              	.LFB12:
 528              		.loc 1 307 0
 529              		.cfi_startproc
 530              		@ args = 0, pretend = 0, frame = 24
 531              		@ frame_needed = 0, uses_anonymous_args = 0
 532              	.LVL61:
 533 0000 30B5     		push	{r4, r5, lr}
 534              		.cfi_def_cfa_offset 12
 535              		.cfi_offset 4, -12
 536              		.cfi_offset 5, -8
 537              		.cfi_offset 14, -4
 538 0002 0446     		mov	r4, r0
 539              		.loc 1 314 0
 540 0004 40F20000 		movw	r0, #:lower16:.LANCHOR2
 541              	.LVL62:
 542              		.loc 1 307 0
 543 0008 87B0     		sub	sp, sp, #28
 544              		.cfi_def_cfa_offset 40
 545              		.loc 1 314 0
 546 000a C0F20000 		movt	r0, #:upper16:.LANCHOR2
 547 000e FFF7FEFF 		bl	sys_mbox_valid
 548              	.LVL63:
 549 0012 98B1     		cbz	r0, .L42
 550              		.loc 1 317 0
 551 0014 40F20000 		movw	r0, #:lower16:.LANCHOR2
 552 0018 C0F20000 		movt	r0, #:upper16:.LANCHOR2
 553              		.loc 1 315 0
 554 001c 0025     		movs	r5, #0
 555              		.loc 1 317 0
 556 001e 01A9     		add	r1, sp, #4
 557              		.loc 1 316 0
 558 0020 0394     		str	r4, [sp, #12]
 559              		.loc 1 315 0
 560 0022 8DF80450 		strb	r5, [sp, #4]
 561              		.loc 1 317 0
 562 0026 FFF7FEFF 		bl	sys_mbox_post
 563              	.LVL64:
ARM GAS  /tmp/ccKKV81m.s 			page 11


 564              		.loc 1 318 0
 565 002a 6068     		ldr	r0, [r4, #4]
 566 002c 2946     		mov	r1, r5
 567 002e 0C30     		adds	r0, r0, #12
 568 0030 FFF7FEFF 		bl	sys_arch_sem_wait
 569              	.LVL65:
 570              		.loc 1 319 0
 571 0034 207A     		ldrb	r0, [r4, #8]	@ zero_extendqisi2
 572              	.L41:
 573              		.loc 1 322 0
 574 0036 40B2     		sxtb	r0, r0
 575 0038 07B0     		add	sp, sp, #28
 576              		@ sp needed
 577 003a 30BD     		pop	{r4, r5, pc}
 578              	.LVL66:
 579              	.L42:
 580              		.loc 1 321 0
 581 003c FA20     		movs	r0, #250
 582 003e FAE7     		b	.L41
 583              		.cfi_endproc
 584              	.LFE12:
 585              		.size	tcpip_apimsg, .-tcpip_apimsg
 586              		.section	.text.tcpip_callbackmsg_new,"ax",%progbits
 587              		.align	2
 588              		.p2align 4,,15
 589              		.global	tcpip_callbackmsg_new
 590              		.thumb
 591              		.thumb_func
 592              		.type	tcpip_callbackmsg_new, %function
 593              	tcpip_callbackmsg_new:
 594              	.LFB13:
 595              		.loc 1 409 0
 596              		.cfi_startproc
 597              		@ args = 0, pretend = 0, frame = 0
 598              		@ frame_needed = 0, uses_anonymous_args = 0
 599              	.LVL67:
 600 0000 38B5     		push	{r3, r4, r5, lr}
 601              		.cfi_def_cfa_offset 16
 602              		.cfi_offset 3, -16
 603              		.cfi_offset 4, -12
 604              		.cfi_offset 5, -8
 605              		.cfi_offset 14, -4
 606              		.loc 1 409 0
 607 0002 0446     		mov	r4, r0
 608              		.loc 1 410 0
 609 0004 0920     		movs	r0, #9
 610              	.LVL68:
 611              		.loc 1 409 0
 612 0006 0D46     		mov	r5, r1
 613              		.loc 1 410 0
 614 0008 FFF7FEFF 		bl	memp_malloc
 615              	.LVL69:
 616              		.loc 1 411 0
 617 000c 18B1     		cbz	r0, .L44
 618              		.loc 1 414 0
 619 000e 0523     		movs	r3, #5
 620              		.loc 1 415 0
ARM GAS  /tmp/ccKKV81m.s 			page 12


 621 0010 8460     		str	r4, [r0, #8]
 622              		.loc 1 416 0
 623 0012 C560     		str	r5, [r0, #12]
 624              		.loc 1 414 0
 625 0014 0370     		strb	r3, [r0]
 626              	.L44:
 627              		.loc 1 418 0
 628 0016 38BD     		pop	{r3, r4, r5, pc}
 629              		.cfi_endproc
 630              	.LFE13:
 631              		.size	tcpip_callbackmsg_new, .-tcpip_callbackmsg_new
 632 0018 AFF30080 		.section	.text.tcpip_callbackmsg_delete,"ax",%progbits
 632      AFF30080 
 633              		.align	2
 634              		.p2align 4,,15
 635              		.global	tcpip_callbackmsg_delete
 636              		.thumb
 637              		.thumb_func
 638              		.type	tcpip_callbackmsg_delete, %function
 639              	tcpip_callbackmsg_delete:
 640              	.LFB14:
 641              		.loc 1 426 0
 642              		.cfi_startproc
 643              		@ args = 0, pretend = 0, frame = 0
 644              		@ frame_needed = 0, uses_anonymous_args = 0
 645              		@ link register save eliminated.
 646              	.LVL70:
 647              		.loc 1 426 0
 648 0000 0146     		mov	r1, r0
 649              		.loc 1 427 0
 650 0002 0920     		movs	r0, #9
 651              	.LVL71:
 652 0004 FFF7FEBF 		b	memp_free
 653              	.LVL72:
 654              		.cfi_endproc
 655              	.LFE14:
 656              		.size	tcpip_callbackmsg_delete, .-tcpip_callbackmsg_delete
 657              		.section	.text.tcpip_trycallback,"ax",%progbits
 658              		.align	2
 659              		.p2align 4,,15
 660              		.global	tcpip_trycallback
 661              		.thumb
 662              		.thumb_func
 663              		.type	tcpip_trycallback, %function
 664              	tcpip_trycallback:
 665              	.LFB15:
 666              		.loc 1 439 0
 667              		.cfi_startproc
 668              		@ args = 0, pretend = 0, frame = 0
 669              		@ frame_needed = 0, uses_anonymous_args = 0
 670              	.LVL73:
 671 0000 10B5     		push	{r4, lr}
 672              		.cfi_def_cfa_offset 8
 673              		.cfi_offset 4, -8
 674              		.cfi_offset 14, -4
 675              		.loc 1 439 0
 676 0002 0446     		mov	r4, r0
ARM GAS  /tmp/ccKKV81m.s 			page 13


 677              		.loc 1 440 0
 678 0004 40F20000 		movw	r0, #:lower16:.LANCHOR2
 679              	.LVL74:
 680 0008 C0F20000 		movt	r0, #:upper16:.LANCHOR2
 681 000c FFF7FEFF 		bl	sys_mbox_valid
 682              	.LVL75:
 683 0010 40B1     		cbz	r0, .L50
 684              		.loc 1 443 0
 685 0012 40F20000 		movw	r0, #:lower16:.LANCHOR2
 686 0016 2146     		mov	r1, r4
 687 0018 C0F20000 		movt	r0, #:upper16:.LANCHOR2
 688              		.loc 1 444 0
 689 001c BDE81040 		pop	{r4, lr}
 690              	.LVL76:
 691              		.loc 1 443 0
 692 0020 FFF7FEBF 		b	sys_mbox_trypost
 693              	.LVL77:
 694              	.L50:
 695              		.loc 1 444 0
 696 0024 6FF00500 		mvn	r0, #5
 697 0028 10BD     		pop	{r4, pc}
 698              		.cfi_endproc
 699              	.LFE15:
 700              		.size	tcpip_trycallback, .-tcpip_trycallback
 701 002a 00BFAFF3 		.section	.text.tcpip_init,"ax",%progbits
 701      0080
 702              		.align	2
 703              		.p2align 4,,15
 704              		.global	tcpip_init
 705              		.thumb
 706              		.thumb_func
 707              		.type	tcpip_init, %function
 708              	tcpip_init:
 709              	.LFB16:
 710              		.loc 1 456 0
 711              		.cfi_startproc
 712              		@ args = 0, pretend = 0, frame = 0
 713              		@ frame_needed = 0, uses_anonymous_args = 0
 714              	.LVL78:
 715 0000 30B5     		push	{r4, r5, lr}
 716              		.cfi_def_cfa_offset 12
 717              		.cfi_offset 4, -12
 718              		.cfi_offset 5, -8
 719              		.cfi_offset 14, -4
 720 0002 83B0     		sub	sp, sp, #12
 721              		.cfi_def_cfa_offset 24
 722              		.loc 1 456 0
 723 0004 0546     		mov	r5, r0
 724 0006 0C46     		mov	r4, r1
 725              		.loc 1 457 0
 726 0008 FFF7FEFF 		bl	lwip_init
 727              	.LVL79:
 728              		.loc 1 459 0
 729 000c 40F20002 		movw	r2, #:lower16:.LANCHOR0
 730              		.loc 1 460 0
 731 0010 40F20003 		movw	r3, #:lower16:.LANCHOR1
 732              		.loc 1 459 0
ARM GAS  /tmp/ccKKV81m.s 			page 14


 733 0014 C0F20002 		movt	r2, #:upper16:.LANCHOR0
 734              		.loc 1 460 0
 735 0018 C0F20003 		movt	r3, #:upper16:.LANCHOR1
 736              		.loc 1 461 0
 737 001c 40F20000 		movw	r0, #:lower16:.LANCHOR2
 738 0020 C0F20000 		movt	r0, #:upper16:.LANCHOR2
 739 0024 1021     		movs	r1, #16
 740              		.loc 1 459 0
 741 0026 1560     		str	r5, [r2]
 742              		.loc 1 460 0
 743 0028 1C60     		str	r4, [r3]
 744              		.loc 1 461 0
 745 002a FFF7FEFF 		bl	sys_mbox_new
 746              	.LVL80:
 747 002e 08B1     		cbz	r0, .L52
 748              		.loc 1 462 0 discriminator 1
 749 0030 FFF7FEFF 		bl	port_halt
 750              	.LVL81:
 751              	.L52:
 752              		.loc 1 470 0
 753 0034 0323     		movs	r3, #3
 754 0036 40F20000 		movw	r0, #:lower16:.LC0
 755 003a 40F20001 		movw	r1, #:lower16:tcpip_thread
 756 003e 0093     		str	r3, [sp]
 757 0040 C0F20001 		movt	r1, #:upper16:tcpip_thread
 758 0044 0022     		movs	r2, #0
 759 0046 4FF48063 		mov	r3, #1024
 760 004a C0F20000 		movt	r0, #:upper16:.LC0
 761 004e FFF7FEFF 		bl	sys_thread_new
 762              	.LVL82:
 763              		.loc 1 471 0
 764 0052 03B0     		add	sp, sp, #12
 765              		@ sp needed
 766 0054 30BD     		pop	{r4, r5, pc}
 767              		.cfi_endproc
 768              	.LFE16:
 769              		.size	tcpip_init, .-tcpip_init
 770 0056 00BFAFF3 		.section	.text.pbuf_free_callback,"ax",%progbits
 770      0080AFF3 
 770      0080
 771              		.align	2
 772              		.p2align 4,,15
 773              		.global	pbuf_free_callback
 774              		.thumb
 775              		.thumb_func
 776              		.type	pbuf_free_callback, %function
 777              	pbuf_free_callback:
 778              	.LFB18:
 779              		.loc 1 494 0
 780              		.cfi_startproc
 781              		@ args = 0, pretend = 0, frame = 0
 782              		@ frame_needed = 0, uses_anonymous_args = 0
 783              		@ link register save eliminated.
 784              	.LVL83:
 785              		.loc 1 494 0
 786 0000 0146     		mov	r1, r0
 787              		.loc 1 495 0
ARM GAS  /tmp/ccKKV81m.s 			page 15


 788 0002 40F20000 		movw	r0, #:lower16:pbuf_free_int
 789              	.LVL84:
 790 0006 C0F20000 		movt	r0, #:upper16:pbuf_free_int
 791 000a 0022     		movs	r2, #0
 792 000c FFF7FEBF 		b	tcpip_callback_with_block
 793              	.LVL85:
 794              		.cfi_endproc
 795              	.LFE18:
 796              		.size	pbuf_free_callback, .-pbuf_free_callback
 797              		.section	.text.mem_free_callback,"ax",%progbits
 798              		.align	2
 799              		.p2align 4,,15
 800              		.global	mem_free_callback
 801              		.thumb
 802              		.thumb_func
 803              		.type	mem_free_callback, %function
 804              	mem_free_callback:
 805              	.LFB19:
 806              		.loc 1 507 0
 807              		.cfi_startproc
 808              		@ args = 0, pretend = 0, frame = 0
 809              		@ frame_needed = 0, uses_anonymous_args = 0
 810              		@ link register save eliminated.
 811              	.LVL86:
 812              		.loc 1 507 0
 813 0000 0146     		mov	r1, r0
 814              		.loc 1 508 0
 815 0002 40F20000 		movw	r0, #:lower16:mem_free
 816              	.LVL87:
 817 0006 C0F20000 		movt	r0, #:upper16:mem_free
 818 000a 0022     		movs	r2, #0
 819 000c FFF7FEBF 		b	tcpip_callback_with_block
 820              	.LVL88:
 821              		.cfi_endproc
 822              	.LFE19:
 823              		.size	mem_free_callback, .-mem_free_callback
 824              		.section	.rodata.str1.4,"aMS",%progbits,1
 825              		.align	2
 826              	.LC0:
 827 0000 74637069 		.ascii	"tcpip_thread\000"
 827      705F7468 
 827      72656164 
 827      00
 828 000d 000000   		.section	.bss.mbox,"aw",%nobits
 829              		.align	2
 830              		.set	.LANCHOR2,. + 0
 831              		.type	mbox, %object
 832              		.size	mbox, 4
 833              	mbox:
 834 0000 00000000 		.space	4
 835              		.section	.bss.tcpip_init_done_arg,"aw",%nobits
 836              		.align	2
 837              		.set	.LANCHOR1,. + 0
 838              		.type	tcpip_init_done_arg, %object
 839              		.size	tcpip_init_done_arg, 4
 840              	tcpip_init_done_arg:
 841 0000 00000000 		.space	4
ARM GAS  /tmp/ccKKV81m.s 			page 16


 842              		.section	.bss.tcpip_init_done,"aw",%nobits
 843              		.align	2
 844              		.set	.LANCHOR0,. + 0
 845              		.type	tcpip_init_done, %object
 846              		.size	tcpip_init_done, 4
 847              	tcpip_init_done:
 848 0000 00000000 		.space	4
 849              		.text
 850              	.Letext0:
 851              		.file 2 "/usr/lib/gcc/arm-none-eabi/4.8.2/include/stddef.h"
 852              		.file 3 "/usr/include/newlib/machine/_default_types.h"
 853              		.file 4 "/usr/include/newlib/stdint.h"
 854              		.file 5 "../../os/ports/GCC/ARMCMx/chtypes.h"
 855              		.file 6 "../../os/kernel/include/chlists.h"
 856              		.file 7 "../../os/kernel/include/chthreads.h"
 857              		.file 8 "../../os/ports/GCC/ARMCMx/chcore_v7m.h"
 858              		.file 9 "../../os/kernel/include/chsem.h"
 859              		.file 10 "../../os/kernel/include/chmtx.h"
 860              		.file 11 "../../os/kernel/include/chmboxes.h"
 861              		.file 12 "../../os/various/lwip_bindings/arch/cc.h"
 862              		.file 13 "../../ext/lwip/src/include/lwip/err.h"
 863              		.file 14 "../../os/various/lwip_bindings/arch/sys_arch.h"
 864              		.file 15 "../../ext/lwip/src/include/lwip/sys.h"
 865              		.file 16 "../../ext/lwip/src/include/lwip/memp.h"
 866              		.file 17 "../../ext/lwip/src/include/lwip/pbuf.h"
 867              		.file 18 "../../ext/lwip/src/include/ipv4/lwip/ip_addr.h"
 868              		.file 19 "../../ext/lwip/src/include/lwip/netif.h"
 869              		.file 20 "../../ext/lwip/src/include/lwip/netbuf.h"
 870              		.file 21 "../../ext/lwip/src/include/lwip/api.h"
 871              		.file 22 "../../ext/lwip/src/include/ipv4/lwip/ip.h"
 872              		.file 23 "../../ext/lwip/src/include/lwip/api_msg.h"
 873              		.file 24 "../../ext/lwip/src/include/lwip/timers.h"
 874              		.file 25 "../../ext/lwip/src/include/lwip/tcpip.h"
 875              		.file 26 "../../ext/lwip/src/include/netif/etharp.h"
 876              		.file 27 "../../ext/lwip/src/include/lwip/init.h"