ARM GAS  /tmp/ccKKV81m.s 			page 1


   1              		.syntax unified
   2              		.cpu cortex-m4
   3              		.fpu softvfp
   4              		.eabi_attribute 20, 1
   5              		.eabi_attribute 21, 1
   6              		.eabi_attribute 23, 3
   7              		.eabi_attribute 24, 1
   8              		.eabi_attribute 25, 1
   9              		.eabi_attribute 26, 1
  10              		.eabi_attribute 30, 2
  11              		.eabi_attribute 34, 1
  12              		.eabi_attribute 18, 4
  13              		.thumb
  14              		.file	"tcpip.c"
  15              		.text
  16              	.Ltext0:
  17              		.cfi_sections	.debug_frame
  18              		.section	.text.tcpip_thread,"ax",%progbits
  19              		.align	2
  20              		.p2align 4,,15
  21              		.thumb
  22              		.thumb_func
  23              		.type	tcpip_thread, %function
  24              	tcpip_thread:
  25              	.LFB7:
  26              		.file 1 "../../ext/lwip/src/api/tcpip.c"
  27              		.loc 1 75 0
  28              		.cfi_startproc
  29              		@ args = 0, pretend = 0, frame = 8
  30              		@ frame_needed = 0, uses_anonymous_args = 0
  31              	.LVL0:
  32 0000 00B5     		push	{lr}
  33              		.cfi_def_cfa_offset 4
  34              		.cfi_offset 14, -4
  35              		.loc 1 79 0
  36 0002 40F20003 		movw	r3, #:lower16:.LANCHOR0
  37 0006 C0F20003 		movt	r3, #:upper16:.LANCHOR0
  38              		.loc 1 75 0
  39 000a 83B0     		sub	sp, sp, #12
  40              		.cfi_def_cfa_offset 16
  41              		.loc 1 79 0
  42 000c 1A68     		ldr	r2, [r3]
  43 000e 2AB1     		cbz	r2, .L3
  44              		.loc 1 80 0
  45 0010 40F20003 		movw	r3, #:lower16:.LANCHOR1
  46 0014 C0F20003 		movt	r3, #:upper16:.LANCHOR1
  47 0018 1868     		ldr	r0, [r3]
  48              	.LVL1:
  49 001a 9047     		blx	r2
  50              	.LVL2:
  51              	.L3:
  52              		.loc 1 88 0
  53 001c 40F20000 		movw	r0, #:lower16:.LANCHOR2
  54 0020 C0F20000 		movt	r0, #:upper16:.LANCHOR2
  55 0024 01A9     		add	r1, sp, #4
  56 0026 FFF7FEFF 		bl	sys_timeouts_mbox_fetch
  57              	.LVL3:
ARM GAS  /tmp/ccKKV81m.s 			page 2


  58              		.loc 1 90 0
  59 002a 019B     		ldr	r3, [sp, #4]
  60 002c 1A78     		ldrb	r2, [r3]	@ zero_extendqisi2
  61 002e 052A     		cmp	r2, #5
  62 0030 36D8     		bhi	.L5
  63 0032 DFE802F0 		tbb	[pc, r2]
  64              	.L7:
  65 0036 30       		.byte	(.L6-.L7)/2
  66 0037 22       		.byte	(.L8-.L7)/2
  67 0038 18       		.byte	(.L9-.L7)/2
  68 0039 0F       		.byte	(.L10-.L7)/2
  69 003a 07       		.byte	(.L11-.L7)/2
  70 003b 03       		.byte	(.L12-.L7)/2
  71              		.align	1
  72              	.L12:
  73              		.loc 1 141 0
  74 003c 9A68     		ldr	r2, [r3, #8]
  75 003e D868     		ldr	r0, [r3, #12]
  76 0040 9047     		blx	r2
  77              	.LVL4:
  78              		.loc 1 142 0
  79 0042 EBE7     		b	.L3
  80              	.L11:
  81              		.loc 1 135 0
  82 0044 D868     		ldr	r0, [r3, #12]
  83 0046 9A68     		ldr	r2, [r3, #8]
  84 0048 9047     		blx	r2
  85              	.LVL5:
  86              		.loc 1 136 0
  87 004a 0920     		movs	r0, #9
  88 004c 0199     		ldr	r1, [sp, #4]
  89 004e FFF7FEFF 		bl	memp_free
  90              	.LVL6:
  91              		.loc 1 137 0
  92 0052 E3E7     		b	.L3
  93              	.L10:
  94              		.loc 1 128 0
  95 0054 D868     		ldr	r0, [r3, #12]
  96 0056 1969     		ldr	r1, [r3, #16]
  97 0058 FFF7FEFF 		bl	sys_untimeout
  98              	.LVL7:
  99              		.loc 1 129 0
 100 005c 0920     		movs	r0, #9
 101 005e 0199     		ldr	r1, [sp, #4]
 102 0060 FFF7FEFF 		bl	memp_free
 103              	.LVL8:
 104              		.loc 1 130 0
 105 0064 DAE7     		b	.L3
 106              	.L9:
 107              		.loc 1 123 0
 108 0066 03F10800 		add	r0, r3, #8
 109 006a 07C8     		ldmia	r0, {r0, r1, r2}
 110 006c FFF7FEFF 		bl	sys_timeout
 111              	.LVL9:
 112              		.loc 1 124 0
 113 0070 0920     		movs	r0, #9
 114 0072 0199     		ldr	r1, [sp, #4]
ARM GAS  /tmp/ccKKV81m.s 			page 3


 115 0074 FFF7FEFF 		bl	memp_free
 116              	.LVL10:
 117              		.loc 1 125 0
 118 0078 D0E7     		b	.L3
 119              	.L8:
 120              		.loc 1 102 0
 121 007a D968     		ldr	r1, [r3, #12]
 122              		.loc 1 103 0
 123 007c 9868     		ldr	r0, [r3, #8]
 124              		.loc 1 102 0
 125 007e 91F82920 		ldrb	r2, [r1, #41]	@ zero_extendqisi2
 126 0082 12F0600F 		tst	r2, #96
 127 0086 0ED0     		beq	.L14
 128              		.loc 1 103 0
 129 0088 FFF7FEFF 		bl	ethernet_input
 130              	.LVL11:
 131              	.L15:
 132              		.loc 1 109 0
 133 008c 0A20     		movs	r0, #10
 134 008e 0199     		ldr	r1, [sp, #4]
 135 0090 FFF7FEFF 		bl	memp_free
 136              	.LVL12:
 137              		.loc 1 110 0
 138 0094 C2E7     		b	.L3
 139              	.L6:
 140              		.loc 1 94 0
 141 0096 9868     		ldr	r0, [r3, #8]
 142 0098 0368     		ldr	r3, [r0]
 143 009a 0430     		adds	r0, r0, #4
 144 009c 9847     		blx	r3
 145              	.LVL13:
 146              		.loc 1 95 0
 147 009e BDE7     		b	.L3
 148              	.L5:
 149              		.loc 1 146 0 discriminator 1
 150 00a0 FFF7FEFF 		bl	port_halt
 151              	.LVL14:
 152              		.loc 1 147 0 discriminator 1
 153 00a4 BAE7     		b	.L3
 154              	.L14:
 155              		.loc 1 107 0
 156 00a6 FFF7FEFF 		bl	ip_input
 157              	.LVL15:
 158 00aa EFE7     		b	.L15
 159              		.cfi_endproc
 160              	.LFE7:
 161              		.size	tcpip_thread, .-tcpip_thread
 162 00ac AFF30080 		.section	.text.pbuf_free_int,"ax",%progbits
 163              		.align	2
 164              		.p2align 4,,15
 165              		.thumb
 166              		.thumb_func
 167              		.type	pbuf_free_int, %function
 168              	pbuf_free_int:
 169              	.LFB17:
 170              		.loc 1 481 0
 171              		.cfi_startproc
ARM GAS  /tmp/ccKKV81m.s 			page 4


 172              		@ args = 0, pretend = 0, frame = 0
 173              		@ frame_needed = 0, uses_anonymous_args = 0
 174              		@ link register save eliminated.
 175              	.LVL16:
 176              		.loc 1 483 0
 177 0000 FFF7FEBF 		b	pbuf_free
 178              	.LVL17:
 179              		.cfi_endproc
 180              	.LFE17:
 181              		.size	pbuf_free_int, .-pbuf_free_int
 182 0004 AFF30080 		.section	.text.tcpip_input,"ax",%progbits
 182      AFF30080 
 182      AFF30080 
 183              		.align	2
 184              		.p2align 4,,15
 185              		.global	tcpip_input
 186              		.thumb
 187              		.thumb_func
 188              		.type	tcpip_input, %function
 189              	tcpip_input:
 190              	.LFB8:
 191              		.loc 1 162 0
 192              		.cfi_startproc
 193              		@ args = 0, pretend = 0, frame = 0
 194              		@ frame_needed = 0, uses_anonymous_args = 0
 195              	.LVL18:
 196 0000 70B5     		push	{r4, r5, r6, lr}
 197              		.cfi_def_cfa_offset 16
 198              		.cfi_offset 4, -16
 199              		.cfi_offset 5, -12
 200              		.cfi_offset 6, -8
 201              		.cfi_offset 14, -4
 202              		.loc 1 162 0
 203 0002 0646     		mov	r6, r0
 204              		.loc 1 180 0
 205 0004 40F20000 		movw	r0, #:lower16:.LANCHOR2
 206              	.LVL19:
 207 0008 C0F20000 		movt	r0, #:upper16:.LANCHOR2
 208              		.loc 1 162 0
 209 000c 0D46     		mov	r5, r1
 210              		.loc 1 180 0
 211 000e FFF7FEFF 		bl	sys_mbox_valid
 212              	.LVL20:
 213 0012 90B1     		cbz	r0, .L20
 214              		.loc 1 183 0
 215 0014 0A20     		movs	r0, #10
 216 0016 FFF7FEFF 		bl	memp_malloc
 217              	.LVL21:
 218              		.loc 1 184 0
 219 001a 0446     		mov	r4, r0
 220 001c 78B1     		cbz	r0, .L21
 221              		.loc 1 188 0
 222 001e 0123     		movs	r3, #1
 223              		.loc 1 191 0
 224 0020 40F20000 		movw	r0, #:lower16:.LANCHOR2
 225              	.LVL22:
 226              		.loc 1 189 0
ARM GAS  /tmp/ccKKV81m.s 			page 5


 227 0024 A660     		str	r6, [r4, #8]
 228              		.loc 1 190 0
 229 0026 E560     		str	r5, [r4, #12]
 230              		.loc 1 188 0
 231 0028 2370     		strb	r3, [r4]
 232              		.loc 1 191 0
 233 002a C0F20000 		movt	r0, #:upper16:.LANCHOR2
 234 002e 2146     		mov	r1, r4
 235 0030 FFF7FEFF 		bl	sys_mbox_trypost
 236              	.LVL23:
 237 0034 28B9     		cbnz	r0, .L23
 238              	.LVL24:
 239              	.L19:
 240              		.loc 1 197 0
 241 0036 40B2     		sxtb	r0, r0
 242 0038 70BD     		pop	{r4, r5, r6, pc}
 243              	.LVL25:
 244              	.L20:
 245              		.loc 1 181 0
 246 003a FA20     		movs	r0, #250
 247 003c FBE7     		b	.L19
 248              	.LVL26:
 249              	.L21:
 250              		.loc 1 185 0
 251 003e FF20     		movs	r0, #255
 252              	.LVL27:
 253 0040 F9E7     		b	.L19
 254              	.L23:
 255              		.loc 1 192 0
 256 0042 0A20     		movs	r0, #10
 257 0044 2146     		mov	r1, r4
 258 0046 FFF7FEFF 		bl	memp_free
 259              	.LVL28:
 260              		.loc 1 193 0
 261 004a FF20     		movs	r0, #255
 262 004c F3E7     		b	.L19
 263              		.cfi_endproc
 264              	.LFE8:
 265              		.size	tcpip_input, .-tcpip_input
 266 004e 00BF     		.section	.text.tcpip_callback_with_block,"ax",%progbits
 267              		.align	2
 268              		.p2align 4,,15
 269              		.global	tcpip_callback_with_block
 270              		.thumb
 271              		.thumb_func
 272              		.type	tcpip_callback_with_block, %function
 273              	tcpip_callback_with_block:
 274              	.LFB9:
 275              		.loc 1 212 0
 276              		.cfi_startproc
 277              		@ args = 0, pretend = 0, frame = 0
 278              		@ frame_needed = 0, uses_anonymous_args = 0
 279              	.LVL29:
 280 0000 F8B5     		push	{r3, r4, r5, r6, r7, lr}
 281              		.cfi_def_cfa_offset 24
 282              		.cfi_offset 3, -24
 283              		.cfi_offset 4, -20
ARM GAS  /tmp/ccKKV81m.s 			page 6


 284              		.cfi_offset 5, -16
 285              		.cfi_offset 6, -12
 286              		.cfi_offset 7, -8
 287              		.cfi_offset 14, -4
 288              		.loc 1 212 0
 289 0002 0746     		mov	r7, r0
 290              		.loc 1 215 0
 291 0004 40F20000 		movw	r0, #:lower16:.LANCHOR2
 292              	.LVL30:
 293 0008 C0F20000 		movt	r0, #:upper16:.LANCHOR2
 294              		.loc 1 212 0
 295 000c 0E46     		mov	r6, r1
 296 000e 1546     		mov	r5, r2
 297              		.loc 1 215 0
 298 0010 FFF7FEFF 		bl	sys_mbox_valid
 299              	.LVL31:
 300 0014 D8B1     		cbz	r0, .L27
 301              		.loc 1 216 0
 302 0016 0920     		movs	r0, #9
 303 0018 FFF7FEFF 		bl	memp_malloc
 304              	.LVL32:
 305              		.loc 1 217 0
 306 001c 0446     		mov	r4, r0
 307 001e F0B1     		cbz	r0, .L28
 308              		.loc 1 221 0
 309 0020 0423     		movs	r3, #4
 310              		.loc 1 222 0
 311 0022 8760     		str	r7, [r0, #8]
 312              		.loc 1 223 0
 313 0024 C660     		str	r6, [r0, #12]
 314              		.loc 1 221 0
 315 0026 0370     		strb	r3, [r0]
 316              		.loc 1 225 0
 317 0028 40F20000 		movw	r0, #:lower16:.LANCHOR2
 318              	.LVL33:
 319              		.loc 1 224 0
 320 002c 3DB9     		cbnz	r5, .L30
 321              		.loc 1 227 0
 322 002e C0F20000 		movt	r0, #:upper16:.LANCHOR2
 323 0032 2146     		mov	r1, r4
 324 0034 FFF7FEFF 		bl	sys_mbox_trypost
 325              	.LVL34:
 326 0038 58B9     		cbnz	r0, .L31
 327              	.LVL35:
 328              	.L25:
 329              		.loc 1 235 0
 330 003a 40B2     		sxtb	r0, r0
 331 003c F8BD     		pop	{r3, r4, r5, r6, r7, pc}
 332              	.LVL36:
 333              	.L30:
 334              		.loc 1 225 0
 335 003e 2146     		mov	r1, r4
 336 0040 C0F20000 		movt	r0, #:upper16:.LANCHOR2
 337 0044 FFF7FEFF 		bl	sys_mbox_post
 338              	.LVL37:
 339              		.loc 1 232 0
 340 0048 0020     		movs	r0, #0
ARM GAS  /tmp/ccKKV81m.s 			page 7


 341              		.loc 1 235 0
 342 004a 40B2     		sxtb	r0, r0
 343 004c F8BD     		pop	{r3, r4, r5, r6, r7, pc}
 344              	.LVL38:
 345              	.L27:
 346              		.loc 1 234 0
 347 004e FA20     		movs	r0, #250
 348 0050 F3E7     		b	.L25
 349              	.LVL39:
 350              	.L31:
 351              		.loc 1 228 0
 352 0052 0920     		movs	r0, #9
 353 0054 2146     		mov	r1, r4
 354 0056 FFF7FEFF 		bl	memp_free
 355              	.LVL40:
 356              		.loc 1 229 0
 357 005a FF20     		movs	r0, #255
 358 005c EDE7     		b	.L25
 359              	.LVL41:
 360              	.L28:
 361              		.loc 1 218 0
 362 005e FF20     		movs	r0, #255
 363              	.LVL42:
 364 0060 EBE7     		b	.L25
 365              		.cfi_endproc
 366              	.LFE9:
 367              		.size	tcpip_callback_with_block, .-tcpip_callback_with_block
 368 0062 00BFAFF3 		.section	.text.tcpip_timeout,"ax",%progbits
 368      0080AFF3 
 368      0080AFF3 
 368      0080
 369              		.align	2
 370              		.p2align 4,,15
 371              		.global	tcpip_timeout
 372              		.thumb
 373              		.thumb_func
 374              		.type	tcpip_timeout, %function
 375              	tcpip_timeout:
 376              	.LFB10:
 377              		.loc 1 248 0
 378              		.cfi_startproc
 379              		@ args = 0, pretend = 0, frame = 0
 380              		@ frame_needed = 0, uses_anonymous_args = 0
 381              	.LVL43:
 382 0000 70B5     		push	{r4, r5, r6, lr}
 383              		.cfi_def_cfa_offset 16
 384              		.cfi_offset 4, -16
 385              		.cfi_offset 5, -12
 386              		.cfi_offset 6, -8
 387              		.cfi_offset 14, -4
 388              		.loc 1 248 0
 389 0002 0646     		mov	r6, r0
 390              		.loc 1 251 0
 391 0004 40F20000 		movw	r0, #:lower16:.LANCHOR2
 392              	.LVL44:
 393 0008 C0F20000 		movt	r0, #:upper16:.LANCHOR2
 394              		.loc 1 248 0
ARM GAS  /tmp/ccKKV81m.s 			page 8


 395 000c 0D46     		mov	r5, r1
 396 000e 1446     		mov	r4, r2
 397              		.loc 1 251 0
 398 0010 FFF7FEFF 		bl	sys_mbox_valid
 399              	.LVL45:
 400 0014 90B1     		cbz	r0, .L34
 401              		.loc 1 252 0
 402 0016 0920     		movs	r0, #9
 403 0018 FFF7FEFF 		bl	memp_malloc
 404              	.LVL46:
 405              		.loc 1 253 0
 406 001c 0146     		mov	r1, r0
 407 001e 78B1     		cbz	r0, .L35
 408              		.loc 1 257 0
 409 0020 0222     		movs	r2, #2
 410              		.loc 1 261 0
 411 0022 40F20000 		movw	r0, #:lower16:.LANCHOR2
 412              	.LVL47:
 413 0026 C0F20000 		movt	r0, #:upper16:.LANCHOR2
 414              		.loc 1 258 0
 415 002a 8E60     		str	r6, [r1, #8]
 416              		.loc 1 259 0
 417 002c CD60     		str	r5, [r1, #12]
 418              		.loc 1 260 0
 419 002e 0C61     		str	r4, [r1, #16]
 420              		.loc 1 257 0
 421 0030 0A70     		strb	r2, [r1]
 422              		.loc 1 261 0
 423 0032 FFF7FEFF 		bl	sys_mbox_post
 424              	.LVL48:
 425              		.loc 1 262 0
 426 0036 0020     		movs	r0, #0
 427              	.L33:
 428              		.loc 1 265 0
 429 0038 40B2     		sxtb	r0, r0
 430 003a 70BD     		pop	{r4, r5, r6, pc}
 431              	.LVL49:
 432              	.L34:
 433              		.loc 1 264 0
 434 003c FA20     		movs	r0, #250
 435 003e FBE7     		b	.L33
 436              	.LVL50:
 437              	.L35:
 438              		.loc 1 254 0
 439 0040 FF20     		movs	r0, #255
 440              	.LVL51:
 441 0042 F9E7     		b	.L33
 442              		.cfi_endproc
 443              	.LFE10:
 444              		.size	tcpip_timeout, .-tcpip_timeout
 445 0044 AFF30080 		.section	.text.tcpip_untimeout,"ax",%progbits
 445      AFF30080 
 445      AFF30080 
 446              		.align	2
 447              		.p2align 4,,15
 448              		.global	tcpip_untimeout
 449              		.thumb
ARM GAS  /tmp/ccKKV81m.s 			page 9


 450              		.thumb_func
 451              		.type	tcpip_untimeout, %function
 452              	tcpip_untimeout:
 453              	.LFB11:
 454              		.loc 1 277 0
 455              		.cfi_startproc
 456              		@ args = 0, pretend = 0, frame = 0
 457              		@ frame_needed = 0, uses_anonymous_args = 0
 458              	.LVL52:
 459 0000 38B5     		push	{r3, r4, r5, lr}
 460              		.cfi_def_cfa_offset 16
 461              		.cfi_offset 3, -16
 462              		.cfi_offset 4, -12
 463              		.cfi_offset 5, -8
 464              		.cfi_offset 14, -4
 465              		.loc 1 277 0
 466 0002 0546     		mov	r5, r0
 467              		.loc 1 280 0
 468 0004 40F20000 		movw	r0, #:lower16:.LANCHOR2
 469              	.LVL53:
 470 0008 C0F20000 		movt	r0, #:upper16:.LANCHOR2
 471              		.loc 1 277 0
 472 000c 0C46     		mov	r4, r1
 473              		.loc 1 280 0
 474 000e FFF7FEFF 		bl	sys_mbox_valid
 475              	.LVL54:
 476 0012 88B1     		cbz	r0, .L38
 477              		.loc 1 281 0
 478 0014 0920     		movs	r0, #9
 479 0016 FFF7FEFF 		bl	memp_malloc
 480              	.LVL55:
 481              		.loc 1 282 0
 482 001a 0146     		mov	r1, r0
 483 001c 70B1     		cbz	r0, .L39
 484              		.loc 1 286 0
 485 001e 0322     		movs	r2, #3
 486              		.loc 1 289 0
 487 0020 40F20000 		movw	r0, #:lower16:.LANCHOR2
 488              	.LVL56:
 489 0024 C0F20000 		movt	r0, #:upper16:.LANCHOR2
 490              		.loc 1 287 0
 491 0028 CD60     		str	r5, [r1, #12]
 492              		.loc 1 288 0
 493 002a 0C61     		str	r4, [r1, #16]
 494              		.loc 1 286 0
 495 002c 0A70     		strb	r2, [r1]
 496              		.loc 1 289 0
 497 002e FFF7FEFF 		bl	sys_mbox_post
 498              	.LVL57:
 499              		.loc 1 290 0
 500 0032 0020     		movs	r0, #0
 501              	.L37:
 502              		.loc 1 293 0
 503 0034 40B2     		sxtb	r0, r0
 504 0036 38BD     		pop	{r3, r4, r5, pc}
 505              	.LVL58:
 506              	.L38:
ARM GAS  /tmp/ccKKV81m.s 			page 10


 507              		.loc 1 292 0
 508 0038 FA20     		movs	r0, #250
 509 003a FBE7     		b	.L37
 510              	.LVL59:
 511              	.L39:
 512              		.loc 1 283 0
 513 003c FF20     		movs	r0, #255
 514              	.LVL60:
 515 003e F9E7     		b	.L37
 516              		.cfi_endproc
 517              	.LFE11:
 518              		.size	tcpip_untimeout, .-tcpip_untimeout
 519              		.section	.text.tcpip_apimsg,"ax",%progbits
 520              		.align	2
 521              		.p2align 4,,15
 522              		.global	tcpip_apimsg
 523              		.thumb
 524              		.thumb_func
 525              		.type	tcpip_apimsg, %function
 526              	tcpip_apimsg:
 527              	.LFB12:
 528              		.loc 1 307 0
 529              		.cfi_startproc
 530              		@ args = 0, pretend = 0, frame = 24
 531              		@ frame_needed = 0, uses_anonymous_args = 0
 532              	.LVL61:
 533 0000 30B5     		push	{r4, r5, lr}
 534              		.cfi_def_cfa_offset 12
 535              		.cfi_offset 4, -12
 536              		.cfi_offset 5, -8
 537              		.cfi_offset 14, -4
 538 0002 0446     		mov	r4, r0
 539              		.loc 1 314 0
 540 0004 40F20000 		movw	r0, #:lower16:.LANCHOR2
 541              	.LVL62:
 542              		.loc 1 307 0
 543 0008 87B0     		sub	sp, sp, #28
 544              		.cfi_def_cfa_offset 40
 545              		.loc 1 314 0
 546 000a C0F20000 		movt	r0, #:upper16:.LANCHOR2
 547 000e FFF7FEFF 		bl	sys_mbox_valid
 548              	.LVL63:
 549 0012 98B1     		cbz	r0, .L42
 550              		.loc 1 317 0
 551 0014 40F20000 		movw	r0, #:lower16:.LANCHOR2
 552 0018 C0F20000 		movt	r0, #:upper16:.LANCHOR2
 553              		.loc 1 315 0
 554 001c 0025     		movs	r5, #0
 555              		.loc 1 317 0
 556 001e 01A9     		add	r1, sp, #4
 557              		.loc 1 316 0
 558 0020 0394     		str	r4, [sp, #12]
 559              		.loc 1 315 0
 560 0022 8DF80450 		strb	r5, [sp, #4]
 561              		.loc 1 317 0
 562 0026 FFF7FEFF 		bl	sys_mbox_post
 563              	.LVL64:
ARM GAS  /tmp/ccKKV81m.s 			page 11


 564              		.loc 1 318 0
 565 002a 6068     		ldr	r0, [r4, #4]
 566 002c 2946     		mov	r1, r5
 567 002e 0C30     		adds	r0, r0, #12
 568 0030 FFF7FEFF 		bl	sys_arch_sem_wait
 569              	.LVL65:
 570              		.loc 1 319 0
 571 0034 207A     		ldrb	r0, [r4, #8]	@ zero_extendqisi2
 572              	.L41:
 573              		.loc 1 322 0
 574 0036 40B2     		sxtb	r0, r0
 575 0038 07B0     		add	sp, sp, #28
 576              		@ sp needed
 577 003a 30BD     		pop	{r4, r5, pc}
 578              	.LVL66:
 579              	.L42:
 580              		.loc 1 321 0
 581 003c FA20     		movs	r0, #250
 582 003e FAE7     		b	.L41
 583              		.cfi_endproc
 584              	.LFE12:
 585              		.size	tcpip_apimsg, .-tcpip_apimsg
 586              		.section	.text.tcpip_callbackmsg_new,"ax",%progbits
 587              		.align	2
 588              		.p2align 4,,15
 589              		.global	tcpip_callbackmsg_new
 590              		.thumb
 591              		.thumb_func
 592              		.type	tcpip_callbackmsg_new, %function
 593              	tcpip_callbackmsg_new:
 594              	.LFB13:
 595              		.loc 1 409 0
 596              		.cfi_startproc
 597              		@ args = 0, pretend = 0, frame = 0
 598              		@ frame_needed = 0, uses_anonymous_args = 0
 599              	.LVL67:
 600 0000 38B5     		push	{r3, r4, r5, lr}
 601              		.cfi_def_cfa_offset 16
 602              		.cfi_offset 3, -16
 603              		.cfi_offset 4, -12
 604              		.cfi_offset 5, -8
 605              		.cfi_offset 14, -4
 606              		.loc 1 409 0
 607 0002 0446     		mov	r4, r0
 608              		.loc 1 410 0
 609 0004 0920     		movs	r0, #9
 610              	.LVL68:
 611              		.loc 1 409 0
 612 0006 0D46     		mov	r5, r1
 613              		.loc 1 410 0
 614 0008 FFF7FEFF 		bl	memp_malloc
 615              	.LVL69:
 616              		.loc 1 411 0
 617 000c 18B1     		cbz	r0, .L44
 618              		.loc 1 414 0
 619 000e 0523     		movs	r3, #5
 620              		.loc 1 415 0
ARM GAS  /tmp/ccKKV81m.s 			page 12


 621 0010 8460     		str	r4, [r0, #8]
 622              		.loc 1 416 0
 623 0012 C560     		str	r5, [r0, #12]
 624              		.loc 1 414 0
 625 0014 0370     		strb	r3, [r0]
 626              	.L44:
 627              		.loc 1 418 0
 628 0016 38BD     		pop	{r3, r4, r5, pc}
 629              		.cfi_endproc
 630              	.LFE13:
 631              		.size	tcpip_callbackmsg_new, .-tcpip_callbackmsg_new
 632 0018 AFF30080 		.section	.text.tcpip_callbackmsg_delete,"ax",%progbits
 632      AFF30080 
 633              		.align	2
 634              		.p2align 4,,15
 635              		.global	tcpip_callbackmsg_delete
 636              		.thumb
 637              		.thumb_func
 638              		.type	tcpip_callbackmsg_delete, %function
 639              	tcpip_callbackmsg_delete:
 640              	.LFB14:
 641              		.loc 1 426 0
 642              		.cfi_startproc
 643              		@ args = 0, pretend = 0, frame = 0
 644              		@ frame_needed = 0, uses_anonymous_args = 0
 645              		@ link register save eliminated.
 646              	.LVL70:
 647              		.loc 1 426 0
 648 0000 0146     		mov	r1, r0
 649              		.loc 1 427 0
 650 0002 0920     		movs	r0, #9
 651              	.LVL71:
 652 0004 FFF7FEBF 		b	memp_free
 653              	.LVL72:
 654              		.cfi_endproc
 655              	.LFE14:
 656              		.size	tcpip_callbackmsg_delete, .-tcpip_callbackmsg_delete
 657              		.section	.text.tcpip_trycallback,"ax",%progbits
 658              		.align	2
 659              		.p2align 4,,15
 660              		.global	tcpip_trycallback
 661              		.thumb
 662              		.thumb_func
 663              		.type	tcpip_trycallback, %function
 664              	tcpip_trycallback:
 665              	.LFB15:
 666              		.loc 1 439 0
 667              		.cfi_startproc
 668              		@ args = 0, pretend = 0, frame = 0
 669              		@ frame_needed = 0, uses_anonymous_args = 0
 670              	.LVL73:
 671 0000 10B5     		push	{r4, lr}
 672              		.cfi_def_cfa_offset 8
 673              		.cfi_offset 4, -8
 674              		.cfi_offset 14, -4
 675              		.loc 1 439 0
 676 0002 0446     		mov	r4, r0
ARM GAS  /tmp/ccKKV81m.s 			page 13


 677              		.loc 1 440 0
 678 0004 40F20000 		movw	r0, #:lower16:.LANCHOR2
 679              	.LVL74:
 680 0008 C0F20000 		movt	r0, #:upper16:.LANCHOR2
 681 000c FFF7FEFF 		bl	sys_mbox_valid
 682              	.LVL75:
 683 0010 40B1     		cbz	r0, .L50
 684              		.loc 1 443 0
 685 0012 40F20000 		movw	r0, #:lower16:.LANCHOR2
 686 0016 2146     		mov	r1, r4
 687 0018 C0F20000 		movt	r0, #:upper16:.LANCHOR2
 688              		.loc 1 444 0
 689 001c BDE81040 		pop	{r4, lr}
 690              	.LVL76:
 691              		.loc 1 443 0
 692 0020 FFF7FEBF 		b	sys_mbox_trypost
 693              	.LVL77:
 694              	.L50:
 695              		.loc 1 444 0
 696 0024 6FF00500 		mvn	r0, #5
 697 0028 10BD     		pop	{r4, pc}
 698              		.cfi_endproc
 699              	.LFE15:
 700              		.size	tcpip_trycallback, .-tcpip_trycallback
 701 002a 00BFAFF3 		.section	.text.tcpip_init,"ax",%progbits
 701      0080
 702              		.align	2
 703              		.p2align 4,,15
 704              		.global	tcpip_init
 705              		.thumb
 706              		.thumb_func
 707              		.type	tcpip_init, %function
 708              	tcpip_init:
 709              	.LFB16:
 710              		.loc 1 456 0
 711              		.cfi_startproc
 712              		@ args = 0, pretend = 0, frame = 0
 713              		@ frame_needed = 0, uses_anonymous_args = 0
 714              	.LVL78:
 715 0000 30B5     		push	{r4, r5, lr}
 716              		.cfi_def_cfa_offset 12
 717              		.cfi_offset 4, -12
 718              		.cfi_offset 5, -8
 719              		.cfi_offset 14, -4
 720 0002 83B0     		sub	sp, sp, #12
 721              		.cfi_def_cfa_offset 24
 722              		.loc 1 456 0
 723 0004 0546     		mov	r5, r0
 724 0006 0C46     		mov	r4, r1
 725              		.loc 1 457 0
 726 0008 FFF7FEFF 		bl	lwip_init
 727              	.LVL79:
 728              		.loc 1 459 0
 729 000c 40F20002 		movw	r2, #:lower16:.LANCHOR0
 730              		.loc 1 460 0
 731 0010 40F20003 		movw	r3, #:lower16:.LANCHOR1
 732              		.loc 1 459 0
ARM GAS  /tmp/ccKKV81m.s 			page 14


 733 0014 C0F20002 		movt	r2, #:upper16:.LANCHOR0
 734              		.loc 1 460 0
 735 0018 C0F20003 		movt	r3, #:upper16:.LANCHOR1
 736              		.loc 1 461 0
 737 001c 40F20000 		movw	r0, #:lower16:.LANCHOR2
 738 0020 C0F20000 		movt	r0, #:upper16:.LANCHOR2
 739 0024 1021     		movs	r1, #16
 740              		.loc 1 459 0
 741 0026 1560     		str	r5, [r2]
 742              		.loc 1 460 0
 743 0028 1C60     		str	r4, [r3]
 744              		.loc 1 461 0
 745 002a FFF7FEFF 		bl	sys_mbox_new
 746              	.LVL80:
 747 002e 08B1     		cbz	r0, .L52
 748              		.loc 1 462 0 discriminator 1
 749 0030 FFF7FEFF 		bl	port_halt
 750              	.LVL81:
 751              	.L52:
 752              		.loc 1 470 0
 753 0034 0323     		movs	r3, #3
 754 0036 40F20000 		movw	r0, #:lower16:.LC0
 755 003a 40F20001 		movw	r1, #:lower16:tcpip_thread
 756 003e 0093     		str	r3, [sp]
 757 0040 C0F20001 		movt	r1, #:upper16:tcpip_thread
 758 0044 0022     		movs	r2, #0
 759 0046 4FF48063 		mov	r3, #1024
 760 004a C0F20000 		movt	r0, #:upper16:.LC0
 761 004e FFF7FEFF 		bl	sys_thread_new
 762              	.LVL82:
 763              		.loc 1 471 0
 764 0052 03B0     		add	sp, sp, #12
 765              		@ sp needed
 766 0054 30BD     		pop	{r4, r5, pc}
 767              		.cfi_endproc
 768              	.LFE16:
 769              		.size	tcpip_init, .-tcpip_init
 770 0056 00BFAFF3 		.section	.text.pbuf_free_callback,"ax",%progbits
 770      0080AFF3 
 770      0080
 771              		.align	2
 772              		.p2align 4,,15
 773              		.global	pbuf_free_callback
 774              		.thumb
 775              		.thumb_func
 776              		.type	pbuf_free_callback, %function
 777              	pbuf_free_callback:
 778              	.LFB18:
 779              		.loc 1 494 0
 780              		.cfi_startproc
 781              		@ args = 0, pretend = 0, frame = 0
 782              		@ frame_needed = 0, uses_anonymous_args = 0
 783              		@ link register save eliminated.
 784              	.LVL83:
 785              		.loc 1 494 0
 786 0000 0146     		mov	r1, r0
 787              		.loc 1 495 0
ARM GAS  /tmp/ccKKV81m.s 			page 15


 788 0002 40F20000 		movw	r0, #:lower16:pbuf_free_int
 789              	.LVL84:
 790 0006 C0F20000 		movt	r0, #:upper16:pbuf_free_int
 791 000a 0022     		movs	r2, #0
 792 000c FFF7FEBF 		b	tcpip_callback_with_block
 793              	.LVL85:
 794              		.cfi_endproc
 795              	.LFE18:
 796              		.size	pbuf_free_callback, .-pbuf_free_callback
 797              		.section	.text.mem_free_callback,"ax",%progbits
 798              		.align	2
 799              		.p2align 4,,15
 800              		.global	mem_free_callback
 801              		.thumb
 802              		.thumb_func
 803              		.type	mem_free_callback, %function
 804              	mem_free_callback:
 805              	.LFB19:
 806              		.loc 1 507 0
 807              		.cfi_startproc
 808              		@ args = 0, pretend = 0, frame = 0
 809              		@ frame_needed = 0, uses_anonymous_args = 0
 810              		@ link register save eliminated.
 811              	.LVL86:
 812              		.loc 1 507 0
 813 0000 0146     		mov	r1, r0
 814              		.loc 1 508 0
 815 0002 40F20000 		movw	r0, #:lower16:mem_free
 816              	.LVL87:
 817 0006 C0F20000 		movt	r0, #:upper16:mem_free
 818 000a 0022     		movs	r2, #0
 819 000c FFF7FEBF 		b	tcpip_callback_with_block
 820              	.LVL88:
 821              		.cfi_endproc
 822              	.LFE19:
 823              		.size	mem_free_callback, .-mem_free_callback
 824              		.section	.rodata.str1.4,"aMS",%progbits,1
 825              		.align	2
 826              	.LC0:
 827 0000 74637069 		.ascii	"tcpip_thread\000"
 827      705F7468 
 827      72656164 
 827      00
 828 000d 000000   		.section	.bss.mbox,"aw",%nobits
 829              		.align	2
 830              		.set	.LANCHOR2,. + 0
 831              		.type	mbox, %object
 832              		.size	mbox, 4
 833              	mbox:
 834 0000 00000000 		.space	4
 835              		.section	.bss.tcpip_init_done_arg,"aw",%nobits
 836              		.align	2
 837              		.set	.LANCHOR1,. + 0
 838              		.type	tcpip_init_done_arg, %object
 839              		.size	tcpip_init_done_arg, 4
 840              	tcpip_init_done_arg:
 841 0000 00000000 		.space	4
ARM GAS  /tmp/ccKKV81m.s 			page 16


 842              		.section	.bss.tcpip_init_done,"aw",%nobits
 843              		.align	2
 844              		.set	.LANCHOR0,. + 0
 845              		.type	tcpip_init_done, %object
 846              		.size	tcpip_init_done, 4
 847              	tcpip_init_done:
 848 0000 00000000 		.space	4
 849              		.text
 850              	.Letext0:
 851              		.file 2 "/usr/lib/gcc/arm-none-eabi/4.8.2/include/stddef.h"
 852              		.file 3 "/usr/include/newlib/machine/_default_types.h"
 853              		.file 4 "/usr/include/newlib/stdint.h"
 854              		.file 5 "../../os/ports/GCC/ARMCMx/chtypes.h"
 855              		.file 6 "../../os/kernel/include/chlists.h"
 856              		.file 7 "../../os/kernel/include/chthreads.h"
 857              		.file 8 "../../os/ports/GCC/ARMCMx/chcore_v7m.h"
 858              		.file 9 "../../os/kernel/include/chsem.h"
 859              		.file 10 "../../os/kernel/include/chmtx.h"
 860              		.file 11 "../../os/kernel/include/chmboxes.h"
 861              		.file 12 "../../os/various/lwip_bindings/arch/cc.h"
 862              		.file 13 "../../ext/lwip/src/include/lwip/err.h"
 863              		.file 14 "../../os/various/lwip_bindings/arch/sys_arch.h"
 864              		.file 15 "../../ext/lwip/src/include/lwip/sys.h"
 865              		.file 16 "../../ext/lwip/src/include/lwip/memp.h"
 866              		.file 17 "../../ext/lwip/src/include/lwip/pbuf.h"
 867              		.file 18 "../../ext/lwip/src/include/ipv4/lwip/ip_addr.h"
 868              		.file 19 "../../ext/lwip/src/include/lwip/netif.h"
 869              		.file 20 "../../ext/lwip/src/include/lwip/netbuf.h"
 870              		.file 21 "../../ext/lwip/src/include/lwip/api.h"
 871              		.file 22 "../../ext/lwip/src/include/ipv4/lwip/ip.h"
 872              		.file 23 "../../ext/lwip/src/include/lwip/api_msg.h"
 873              		.file 24 "../../ext/lwip/src/include/lwip/timers.h"
 874              		.file 25 "../../ext/lwip/src/include/lwip/tcpip.h"
 875              		.file 26 "../../ext/lwip/src/include/netif/etharp.h"
 876              		.file 27 "../../ext/lwip/src/include/lwip/init.h"
 877              		.section	.debug_info,"",%progbits
 878              	.Ldebug_info0:
 879 0000 01140000 		.4byte	0x1401
 880 0004 0400     		.2byte	0x4
 881 0006 00000000 		.4byte	.Ldebug_abbrev0
 882 000a 04       		.byte	0x4
 883 000b 01       		.uleb128 0x1
 884 000c C2070000 		.4byte	.LASF217
 885 0010 01       		.byte	0x1
 886 0011 31090000 		.4byte	.LASF218
 887 0015 4F000000 		.4byte	.LASF219
 888 0019 00000000 		.4byte	.Ldebug_ranges0+0
 889 001d 00000000 		.4byte	0
 890 0021 00000000 		.4byte	.Ldebug_line0
 891 0025 02       		.uleb128 0x2
 892 0026 04       		.byte	0x4
 893 0027 05       		.byte	0x5
 894 0028 696E7400 		.ascii	"int\000"
 895 002c 03       		.uleb128 0x3
 896 002d 29030000 		.4byte	.LASF1
 897 0031 02       		.byte	0x2
 898 0032 D4       		.byte	0xd4
ARM GAS  /tmp/ccKKV81m.s 			page 17


 899 0033 37000000 		.4byte	0x37
 900 0037 04       		.uleb128 0x4
 901 0038 04       		.byte	0x4
 902 0039 07       		.byte	0x7
 903 003a FF000000 		.4byte	.LASF0
 904 003e 03       		.uleb128 0x3
 905 003f 95050000 		.4byte	.LASF2
 906 0043 03       		.byte	0x3
 907 0044 1B       		.byte	0x1b
 908 0045 49000000 		.4byte	0x49
 909 0049 04       		.uleb128 0x4
 910 004a 01       		.byte	0x1
 911 004b 06       		.byte	0x6
 912 004c D5090000 		.4byte	.LASF3
 913 0050 03       		.uleb128 0x3
 914 0051 3A070000 		.4byte	.LASF4
 915 0055 03       		.byte	0x3
 916 0056 1C       		.byte	0x1c
 917 0057 5B000000 		.4byte	0x5b
 918 005b 04       		.uleb128 0x4
 919 005c 01       		.byte	0x1
 920 005d 08       		.byte	0x8
 921 005e CF080000 		.4byte	.LASF5
 922 0062 04       		.uleb128 0x4
 923 0063 02       		.byte	0x2
 924 0064 05       		.byte	0x5
 925 0065 4D060000 		.4byte	.LASF6
 926 0069 03       		.uleb128 0x3
 927 006a 76020000 		.4byte	.LASF7
 928 006e 03       		.byte	0x3
 929 006f 26       		.byte	0x26
 930 0070 74000000 		.4byte	0x74
 931 0074 04       		.uleb128 0x4
 932 0075 02       		.byte	0x2
 933 0076 07       		.byte	0x7
 934 0077 E9090000 		.4byte	.LASF8
 935 007b 03       		.uleb128 0x3
 936 007c 58010000 		.4byte	.LASF9
 937 0080 03       		.byte	0x3
 938 0081 37       		.byte	0x37
 939 0082 86000000 		.4byte	0x86
 940 0086 04       		.uleb128 0x4
 941 0087 04       		.byte	0x4
 942 0088 05       		.byte	0x5
 943 0089 7C060000 		.4byte	.LASF10
 944 008d 03       		.uleb128 0x3
 945 008e DD080000 		.4byte	.LASF11
 946 0092 03       		.byte	0x3
 947 0093 38       		.byte	0x38
 948 0094 98000000 		.4byte	0x98
 949 0098 04       		.uleb128 0x4
 950 0099 04       		.byte	0x4
 951 009a 07       		.byte	0x7
 952 009b B0070000 		.4byte	.LASF12
 953 009f 04       		.uleb128 0x4
 954 00a0 08       		.byte	0x8
 955 00a1 05       		.byte	0x5
ARM GAS  /tmp/ccKKV81m.s 			page 18


 956 00a2 F6040000 		.4byte	.LASF13
 957 00a6 04       		.uleb128 0x4
 958 00a7 08       		.byte	0x8
 959 00a8 07       		.byte	0x7
 960 00a9 4F020000 		.4byte	.LASF14
 961 00ad 03       		.uleb128 0x3
 962 00ae DE010000 		.4byte	.LASF15
 963 00b2 04       		.byte	0x4
 964 00b3 29       		.byte	0x29
 965 00b4 3E000000 		.4byte	0x3e
 966 00b8 03       		.uleb128 0x3
 967 00b9 69040000 		.4byte	.LASF16
 968 00bd 04       		.byte	0x4
 969 00be 2A       		.byte	0x2a
 970 00bf 50000000 		.4byte	0x50
 971 00c3 03       		.uleb128 0x3
 972 00c4 E6050000 		.4byte	.LASF17
 973 00c8 04       		.byte	0x4
 974 00c9 36       		.byte	0x36
 975 00ca 69000000 		.4byte	0x69
 976 00ce 03       		.uleb128 0x3
 977 00cf 80080000 		.4byte	.LASF18
 978 00d3 04       		.byte	0x4
 979 00d4 41       		.byte	0x41
 980 00d5 7B000000 		.4byte	0x7b
 981 00d9 03       		.uleb128 0x3
 982 00da D5010000 		.4byte	.LASF19
 983 00de 04       		.byte	0x4
 984 00df 42       		.byte	0x42
 985 00e0 8D000000 		.4byte	0x8d
 986 00e4 04       		.uleb128 0x4
 987 00e5 01       		.byte	0x1
 988 00e6 02       		.byte	0x2
 989 00e7 46030000 		.4byte	.LASF20
 990 00eb 03       		.uleb128 0x3
 991 00ec A6050000 		.4byte	.LASF21
 992 00f0 05       		.byte	0x5
 993 00f1 2C       		.byte	0x2c
 994 00f2 B8000000 		.4byte	0xb8
 995 00f6 03       		.uleb128 0x3
 996 00f7 50040000 		.4byte	.LASF22
 997 00fb 05       		.byte	0x5
 998 00fc 2D       		.byte	0x2d
 999 00fd B8000000 		.4byte	0xb8
 1000 0101 03       		.uleb128 0x3
 1001 0102 A8070000 		.4byte	.LASF23
 1002 0106 05       		.byte	0x5
 1003 0107 2E       		.byte	0x2e
 1004 0108 B8000000 		.4byte	0xb8
 1005 010c 03       		.uleb128 0x3
 1006 010d 44050000 		.4byte	.LASF24
 1007 0111 05       		.byte	0x5
 1008 0112 2F       		.byte	0x2f
 1009 0113 B8000000 		.4byte	0xb8
 1010 0117 03       		.uleb128 0x3
 1011 0118 26020000 		.4byte	.LASF25
 1012 011c 05       		.byte	0x5
ARM GAS  /tmp/ccKKV81m.s 			page 19


 1013 011d 30       		.byte	0x30
 1014 011e D9000000 		.4byte	0xd9
 1015 0122 03       		.uleb128 0x3
 1016 0123 10050000 		.4byte	.LASF26
 1017 0127 05       		.byte	0x5
 1018 0128 31       		.byte	0x31
 1019 0129 CE000000 		.4byte	0xce
 1020 012d 03       		.uleb128 0x3
 1021 012e E5010000 		.4byte	.LASF27
 1022 0132 05       		.byte	0x5
 1023 0133 33       		.byte	0x33
 1024 0134 D9000000 		.4byte	0xd9
 1025 0138 03       		.uleb128 0x3
 1026 0139 C9000000 		.4byte	.LASF28
 1027 013d 05       		.byte	0x5
 1028 013e 35       		.byte	0x35
 1029 013f D9000000 		.4byte	0xd9
 1030 0143 03       		.uleb128 0x3
 1031 0144 81020000 		.4byte	.LASF29
 1032 0148 05       		.byte	0x5
 1033 0149 36       		.byte	0x36
 1034 014a CE000000 		.4byte	0xce
 1035 014e 03       		.uleb128 0x3
 1036 014f 43040000 		.4byte	.LASF30
 1037 0153 06       		.byte	0x6
 1038 0154 2A       		.byte	0x2a
 1039 0155 59010000 		.4byte	0x159
 1040 0159 05       		.uleb128 0x5
 1041 015a 43040000 		.4byte	.LASF30
 1042 015e 48       		.byte	0x48
 1043 015f 07       		.byte	0x7
 1044 0160 5E       		.byte	0x5e
 1045 0161 56020000 		.4byte	0x256
 1046 0165 06       		.uleb128 0x6
 1047 0166 DF060000 		.4byte	.LASF31
 1048 016a 07       		.byte	0x7
 1049 016b 5F       		.byte	0x5f
 1050 016c 77020000 		.4byte	0x277
 1051 0170 00       		.byte	0
 1052 0171 06       		.uleb128 0x6
 1053 0172 98070000 		.4byte	.LASF32
 1054 0176 07       		.byte	0x7
 1055 0177 61       		.byte	0x61
 1056 0178 77020000 		.4byte	0x277
 1057 017c 04       		.byte	0x4
 1058 017d 06       		.uleb128 0x6
 1059 017e 96000000 		.4byte	.LASF33
 1060 0182 07       		.byte	0x7
 1061 0183 63       		.byte	0x63
 1062 0184 17010000 		.4byte	0x117
 1063 0188 08       		.byte	0x8
 1064 0189 06       		.uleb128 0x6
 1065 018a FC060000 		.4byte	.LASF34
 1066 018e 07       		.byte	0x7
 1067 018f 64       		.byte	0x64
 1068 0190 31030000 		.4byte	0x331
 1069 0194 0C       		.byte	0xc
ARM GAS  /tmp/ccKKV81m.s 			page 20


 1070 0195 06       		.uleb128 0x6
 1071 0196 A1020000 		.4byte	.LASF35
 1072 019a 07       		.byte	0x7
 1073 019b 66       		.byte	0x66
 1074 019c 77020000 		.4byte	0x277
 1075 01a0 10       		.byte	0x10
 1076 01a1 06       		.uleb128 0x6
 1077 01a2 59040000 		.4byte	.LASF36
 1078 01a6 07       		.byte	0x7
 1079 01a7 67       		.byte	0x67
 1080 01a8 77020000 		.4byte	0x277
 1081 01ac 14       		.byte	0x14
 1082 01ad 06       		.uleb128 0x6
 1083 01ae DC030000 		.4byte	.LASF37
 1084 01b2 07       		.byte	0x7
 1085 01b3 6E       		.byte	0x6e
 1086 01b4 78040000 		.4byte	0x478
 1087 01b8 18       		.byte	0x18
 1088 01b9 06       		.uleb128 0x6
 1089 01ba 61040000 		.4byte	.LASF38
 1090 01be 07       		.byte	0x7
 1091 01bf 79       		.byte	0x79
 1092 01c0 F6000000 		.4byte	0xf6
 1093 01c4 1C       		.byte	0x1c
 1094 01c5 06       		.uleb128 0x6
 1095 01c6 23050000 		.4byte	.LASF39
 1096 01ca 07       		.byte	0x7
 1097 01cb 7D       		.byte	0x7d
 1098 01cc EB000000 		.4byte	0xeb
 1099 01d0 1D       		.byte	0x1d
 1100 01d1 06       		.uleb128 0x6
 1101 01d2 F1080000 		.4byte	.LASF40
 1102 01d6 07       		.byte	0x7
 1103 01d7 82       		.byte	0x82
 1104 01d8 01010000 		.4byte	0x101
 1105 01dc 1E       		.byte	0x1e
 1106 01dd 06       		.uleb128 0x6
 1107 01de 5A090000 		.4byte	.LASF41
 1108 01e2 07       		.byte	0x7
 1109 01e3 88       		.byte	0x88
 1110 01e4 0C010000 		.4byte	0x10c
 1111 01e8 1F       		.byte	0x1f
 1112 01e9 06       		.uleb128 0x6
 1113 01ea 3D000000 		.4byte	.LASF42
 1114 01ee 07       		.byte	0x7
 1115 01ef 8F       		.byte	0x8f
 1116 01f0 6A030000 		.4byte	0x36a
 1117 01f4 20       		.byte	0x20
 1118 01f5 07       		.uleb128 0x7
 1119 01f6 705F7500 		.ascii	"p_u\000"
 1120 01fa 07       		.byte	0x7
 1121 01fb B4       		.byte	0xb4
 1122 01fc 43040000 		.4byte	0x443
 1123 0200 24       		.byte	0x24
 1124 0201 06       		.uleb128 0x6
 1125 0202 0C000000 		.4byte	.LASF43
 1126 0206 07       		.byte	0x7
ARM GAS  /tmp/ccKKV81m.s 			page 21


 1127 0207 B9       		.byte	0xb9
 1128 0208 9D020000 		.4byte	0x29d
 1129 020c 28       		.byte	0x28
 1130 020d 06       		.uleb128 0x6
 1131 020e F4000000 		.4byte	.LASF44
 1132 0212 07       		.byte	0x7
 1133 0213 BF       		.byte	0xbf
 1134 0214 7D020000 		.4byte	0x27d
 1135 0218 2C       		.byte	0x2c
 1136 0219 06       		.uleb128 0x6
 1137 021a 8F050000 		.4byte	.LASF45
 1138 021e 07       		.byte	0x7
 1139 021f C3       		.byte	0xc3
 1140 0220 22010000 		.4byte	0x122
 1141 0224 34       		.byte	0x34
 1142 0225 06       		.uleb128 0x6
 1143 0226 69060000 		.4byte	.LASF46
 1144 022a 07       		.byte	0x7
 1145 022b C9       		.byte	0xc9
 1146 022c 2D010000 		.4byte	0x12d
 1147 0230 38       		.byte	0x38
 1148 0231 06       		.uleb128 0x6
 1149 0232 84040000 		.4byte	.LASF47
 1150 0236 07       		.byte	0x7
 1151 0237 D0       		.byte	0xd0
 1152 0238 8A040000 		.4byte	0x48a
 1153 023c 3C       		.byte	0x3c
 1154 023d 06       		.uleb128 0x6
 1155 023e 3C060000 		.4byte	.LASF48
 1156 0242 07       		.byte	0x7
 1157 0243 D4       		.byte	0xd4
 1158 0244 17010000 		.4byte	0x117
 1159 0248 40       		.byte	0x40
 1160 0249 06       		.uleb128 0x6
 1161 024a 7C040000 		.4byte	.LASF49
 1162 024e 07       		.byte	0x7
 1163 024f DA       		.byte	0xda
 1164 0250 B3020000 		.4byte	0x2b3
 1165 0254 44       		.byte	0x44
 1166 0255 00       		.byte	0
 1167 0256 08       		.uleb128 0x8
 1168 0257 08       		.byte	0x8
 1169 0258 06       		.byte	0x6
 1170 0259 61       		.byte	0x61
 1171 025a 77020000 		.4byte	0x277
 1172 025e 06       		.uleb128 0x6
 1173 025f DF060000 		.4byte	.LASF31
 1174 0263 06       		.byte	0x6
 1175 0264 62       		.byte	0x62
 1176 0265 77020000 		.4byte	0x277
 1177 0269 00       		.byte	0
 1178 026a 06       		.uleb128 0x6
 1179 026b 98070000 		.4byte	.LASF32
 1180 026f 06       		.byte	0x6
 1181 0270 64       		.byte	0x64
 1182 0271 77020000 		.4byte	0x277
 1183 0275 04       		.byte	0x4
ARM GAS  /tmp/ccKKV81m.s 			page 22


 1184 0276 00       		.byte	0
 1185 0277 09       		.uleb128 0x9
 1186 0278 04       		.byte	0x4
 1187 0279 4E010000 		.4byte	0x14e
 1188 027d 03       		.uleb128 0x3
 1189 027e ED030000 		.4byte	.LASF50
 1190 0282 06       		.byte	0x6
 1191 0283 66       		.byte	0x66
 1192 0284 56020000 		.4byte	0x256
 1193 0288 08       		.uleb128 0x8
 1194 0289 04       		.byte	0x4
 1195 028a 06       		.byte	0x6
 1196 028b 6B       		.byte	0x6b
 1197 028c 9D020000 		.4byte	0x29d
 1198 0290 06       		.uleb128 0x6
 1199 0291 DF060000 		.4byte	.LASF31
 1200 0295 06       		.byte	0x6
 1201 0296 6D       		.byte	0x6d
 1202 0297 77020000 		.4byte	0x277
 1203 029b 00       		.byte	0
 1204 029c 00       		.byte	0
 1205 029d 03       		.uleb128 0x3
 1206 029e 00000000 		.4byte	.LASF51
 1207 02a2 06       		.byte	0x6
 1208 02a3 70       		.byte	0x70
 1209 02a4 88020000 		.4byte	0x288
 1210 02a8 03       		.uleb128 0x3
 1211 02a9 A3040000 		.4byte	.LASF52
 1212 02ad 08       		.byte	0x8
 1213 02ae E5       		.byte	0xe5
 1214 02af B3020000 		.4byte	0x2b3
 1215 02b3 0A       		.uleb128 0xa
 1216 02b4 04       		.byte	0x4
 1217 02b5 0B       		.uleb128 0xb
 1218 02b6 FC050000 		.4byte	.LASF53
 1219 02ba 24       		.byte	0x24
 1220 02bb 08       		.byte	0x8
 1221 02bc 0C01     		.2byte	0x10c
 1222 02be 31030000 		.4byte	0x331
 1223 02c2 0C       		.uleb128 0xc
 1224 02c3 723400   		.ascii	"r4\000"
 1225 02c6 08       		.byte	0x8
 1226 02c7 1F01     		.2byte	0x11f
 1227 02c9 A8020000 		.4byte	0x2a8
 1228 02cd 00       		.byte	0
 1229 02ce 0C       		.uleb128 0xc
 1230 02cf 723500   		.ascii	"r5\000"
 1231 02d2 08       		.byte	0x8
 1232 02d3 2001     		.2byte	0x120
 1233 02d5 A8020000 		.4byte	0x2a8
 1234 02d9 04       		.byte	0x4
 1235 02da 0C       		.uleb128 0xc
 1236 02db 723600   		.ascii	"r6\000"
 1237 02de 08       		.byte	0x8
 1238 02df 2101     		.2byte	0x121
 1239 02e1 A8020000 		.4byte	0x2a8
 1240 02e5 08       		.byte	0x8
ARM GAS  /tmp/ccKKV81m.s 			page 23


 1241 02e6 0C       		.uleb128 0xc
 1242 02e7 723700   		.ascii	"r7\000"
 1243 02ea 08       		.byte	0x8
 1244 02eb 2201     		.2byte	0x122
 1245 02ed A8020000 		.4byte	0x2a8
 1246 02f1 0C       		.byte	0xc
 1247 02f2 0C       		.uleb128 0xc
 1248 02f3 723800   		.ascii	"r8\000"
 1249 02f6 08       		.byte	0x8
 1250 02f7 2301     		.2byte	0x123
 1251 02f9 A8020000 		.4byte	0x2a8
 1252 02fd 10       		.byte	0x10
 1253 02fe 0C       		.uleb128 0xc
 1254 02ff 723900   		.ascii	"r9\000"
 1255 0302 08       		.byte	0x8
 1256 0303 2401     		.2byte	0x124
 1257 0305 A8020000 		.4byte	0x2a8
 1258 0309 14       		.byte	0x14
 1259 030a 0C       		.uleb128 0xc
 1260 030b 72313000 		.ascii	"r10\000"
 1261 030f 08       		.byte	0x8
 1262 0310 2501     		.2byte	0x125
 1263 0312 A8020000 		.4byte	0x2a8
 1264 0316 18       		.byte	0x18
 1265 0317 0C       		.uleb128 0xc
 1266 0318 72313100 		.ascii	"r11\000"
 1267 031c 08       		.byte	0x8
 1268 031d 2601     		.2byte	0x126
 1269 031f A8020000 		.4byte	0x2a8
 1270 0323 1C       		.byte	0x1c
 1271 0324 0C       		.uleb128 0xc
 1272 0325 6C7200   		.ascii	"lr\000"
 1273 0328 08       		.byte	0x8
 1274 0329 2701     		.2byte	0x127
 1275 032b A8020000 		.4byte	0x2a8
 1276 032f 20       		.byte	0x20
 1277 0330 00       		.byte	0
 1278 0331 0B       		.uleb128 0xb
 1279 0332 16050000 		.4byte	.LASF54
 1280 0336 04       		.byte	0x4
 1281 0337 08       		.byte	0x8
 1282 0338 3101     		.2byte	0x131
 1283 033a 4C030000 		.4byte	0x34c
 1284 033e 0C       		.uleb128 0xc
 1285 033f 72313300 		.ascii	"r13\000"
 1286 0343 08       		.byte	0x8
 1287 0344 3201     		.2byte	0x132
 1288 0346 4C030000 		.4byte	0x34c
 1289 034a 00       		.byte	0
 1290 034b 00       		.byte	0
 1291 034c 09       		.uleb128 0x9
 1292 034d 04       		.byte	0x4
 1293 034e B5020000 		.4byte	0x2b5
 1294 0352 04       		.uleb128 0x4
 1295 0353 04       		.byte	0x4
 1296 0354 07       		.byte	0x7
 1297 0355 9F070000 		.4byte	.LASF55
ARM GAS  /tmp/ccKKV81m.s 			page 24


 1298 0359 09       		.uleb128 0x9
 1299 035a 04       		.byte	0x4
 1300 035b 5F030000 		.4byte	0x35f
 1301 035f 0D       		.uleb128 0xd
 1302 0360 6A030000 		.4byte	0x36a
 1303 0364 0E       		.uleb128 0xe
 1304 0365 B3020000 		.4byte	0x2b3
 1305 0369 00       		.byte	0
 1306 036a 0F       		.uleb128 0xf
 1307 036b 38010000 		.4byte	0x138
 1308 036f 05       		.uleb128 0x5
 1309 0370 44070000 		.4byte	.LASF56
 1310 0374 0C       		.byte	0xc
 1311 0375 09       		.byte	0x9
 1312 0376 2C       		.byte	0x2c
 1313 0377 94030000 		.4byte	0x394
 1314 037b 06       		.uleb128 0x6
 1315 037c DB000000 		.4byte	.LASF57
 1316 0380 09       		.byte	0x9
 1317 0381 2D       		.byte	0x2d
 1318 0382 7D020000 		.4byte	0x27d
 1319 0386 00       		.byte	0
 1320 0387 06       		.uleb128 0x6
 1321 0388 A5010000 		.4byte	.LASF58
 1322 038c 09       		.byte	0x9
 1323 038d 2F       		.byte	0x2f
 1324 038e 43010000 		.4byte	0x143
 1325 0392 08       		.byte	0x8
 1326 0393 00       		.byte	0
 1327 0394 03       		.uleb128 0x3
 1328 0395 44070000 		.4byte	.LASF56
 1329 0399 09       		.byte	0x9
 1330 039a 30       		.byte	0x30
 1331 039b 6F030000 		.4byte	0x36f
 1332 039f 05       		.uleb128 0x5
 1333 03a0 9C030000 		.4byte	.LASF59
 1334 03a4 10       		.byte	0x10
 1335 03a5 0A       		.byte	0xa
 1336 03a6 2C       		.byte	0x2c
 1337 03a7 D0030000 		.4byte	0x3d0
 1338 03ab 06       		.uleb128 0x6
 1339 03ac 74060000 		.4byte	.LASF60
 1340 03b0 0A       		.byte	0xa
 1341 03b1 2D       		.byte	0x2d
 1342 03b2 7D020000 		.4byte	0x27d
 1343 03b6 00       		.byte	0
 1344 03b7 06       		.uleb128 0x6
 1345 03b8 D3000000 		.4byte	.LASF61
 1346 03bc 0A       		.byte	0xa
 1347 03bd 2F       		.byte	0x2f
 1348 03be 77020000 		.4byte	0x277
 1349 03c2 08       		.byte	0x8
 1350 03c3 06       		.uleb128 0x6
 1351 03c4 CE090000 		.4byte	.LASF62
 1352 03c8 0A       		.byte	0xa
 1353 03c9 31       		.byte	0x31
 1354 03ca D0030000 		.4byte	0x3d0
ARM GAS  /tmp/ccKKV81m.s 			page 25


 1355 03ce 0C       		.byte	0xc
 1356 03cf 00       		.byte	0
 1357 03d0 09       		.uleb128 0x9
 1358 03d1 04       		.byte	0x4
 1359 03d2 9F030000 		.4byte	0x39f
 1360 03d6 03       		.uleb128 0x3
 1361 03d7 9C030000 		.4byte	.LASF59
 1362 03db 0A       		.byte	0xa
 1363 03dc 33       		.byte	0x33
 1364 03dd 9F030000 		.4byte	0x39f
 1365 03e1 08       		.uleb128 0x8
 1366 03e2 28       		.byte	0x28
 1367 03e3 0B       		.byte	0xb
 1368 03e4 33       		.byte	0x33
 1369 03e5 32040000 		.4byte	0x432
 1370 03e9 06       		.uleb128 0x6
 1371 03ea 6A080000 		.4byte	.LASF63
 1372 03ee 0B       		.byte	0xb
 1373 03ef 34       		.byte	0x34
 1374 03f0 32040000 		.4byte	0x432
 1375 03f4 00       		.byte	0
 1376 03f5 06       		.uleb128 0x6
 1377 03f6 2B050000 		.4byte	.LASF64
 1378 03fa 0B       		.byte	0xb
 1379 03fb 36       		.byte	0x36
 1380 03fc 32040000 		.4byte	0x432
 1381 0400 04       		.byte	0x4
 1382 0401 06       		.uleb128 0x6
 1383 0402 57060000 		.4byte	.LASF65
 1384 0406 0B       		.byte	0xb
 1385 0407 38       		.byte	0x38
 1386 0408 32040000 		.4byte	0x432
 1387 040c 08       		.byte	0x8
 1388 040d 06       		.uleb128 0x6
 1389 040e 4C030000 		.4byte	.LASF66
 1390 0412 0B       		.byte	0xb
 1391 0413 39       		.byte	0x39
 1392 0414 32040000 		.4byte	0x432
 1393 0418 0C       		.byte	0xc
 1394 0419 06       		.uleb128 0x6
 1395 041a 71040000 		.4byte	.LASF67
 1396 041e 0B       		.byte	0xb
 1397 041f 3A       		.byte	0x3a
 1398 0420 94030000 		.4byte	0x394
 1399 0424 10       		.byte	0x10
 1400 0425 06       		.uleb128 0x6
 1401 0426 A2030000 		.4byte	.LASF68
 1402 042a 0B       		.byte	0xb
 1403 042b 3C       		.byte	0x3c
 1404 042c 94030000 		.4byte	0x394
 1405 0430 1C       		.byte	0x1c
 1406 0431 00       		.byte	0
 1407 0432 09       		.uleb128 0x9
 1408 0433 04       		.byte	0x4
 1409 0434 22010000 		.4byte	0x122
 1410 0438 03       		.uleb128 0x3
 1411 0439 8F010000 		.4byte	.LASF69
ARM GAS  /tmp/ccKKV81m.s 			page 26


 1412 043d 0B       		.byte	0xb
 1413 043e 3E       		.byte	0x3e
 1414 043f E1030000 		.4byte	0x3e1
 1415 0443 10       		.uleb128 0x10
 1416 0444 04       		.byte	0x4
 1417 0445 07       		.byte	0x7
 1418 0446 96       		.byte	0x96
 1419 0447 78040000 		.4byte	0x478
 1420 044b 11       		.uleb128 0x11
 1421 044c 30030000 		.4byte	.LASF70
 1422 0450 07       		.byte	0x7
 1423 0451 9D       		.byte	0x9d
 1424 0452 22010000 		.4byte	0x122
 1425 0456 11       		.uleb128 0x11
 1426 0457 8E0A0000 		.4byte	.LASF71
 1427 045b 07       		.byte	0x7
 1428 045c A4       		.byte	0xa4
 1429 045d 22010000 		.4byte	0x122
 1430 0461 11       		.uleb128 0x11
 1431 0462 71010000 		.4byte	.LASF72
 1432 0466 07       		.byte	0x7
 1433 0467 AB       		.byte	0xab
 1434 0468 B3020000 		.4byte	0x2b3
 1435 046c 11       		.uleb128 0x11
 1436 046d 78010000 		.4byte	.LASF73
 1437 0471 07       		.byte	0x7
 1438 0472 B2       		.byte	0xb2
 1439 0473 2D010000 		.4byte	0x12d
 1440 0477 00       		.byte	0
 1441 0478 09       		.uleb128 0x9
 1442 0479 04       		.byte	0x4
 1443 047a 7E040000 		.4byte	0x47e
 1444 047e 12       		.uleb128 0x12
 1445 047f 83040000 		.4byte	0x483
 1446 0483 04       		.uleb128 0x4
 1447 0484 01       		.byte	0x1
 1448 0485 08       		.byte	0x8
 1449 0486 FA030000 		.4byte	.LASF74
 1450 048a 09       		.uleb128 0x9
 1451 048b 04       		.byte	0x4
 1452 048c D6030000 		.4byte	0x3d6
 1453 0490 03       		.uleb128 0x3
 1454 0491 1E050000 		.4byte	.LASF75
 1455 0495 0C       		.byte	0xc
 1456 0496 38       		.byte	0x38
 1457 0497 B8000000 		.4byte	0xb8
 1458 049b 03       		.uleb128 0x3
 1459 049c 97030000 		.4byte	.LASF76
 1460 04a0 0C       		.byte	0xc
 1461 04a1 39       		.byte	0x39
 1462 04a2 AD000000 		.4byte	0xad
 1463 04a6 03       		.uleb128 0x3
 1464 04a7 62010000 		.4byte	.LASF77
 1465 04ab 0C       		.byte	0xc
 1466 04ac 3A       		.byte	0x3a
 1467 04ad C3000000 		.4byte	0xc3
 1468 04b1 03       		.uleb128 0x3
ARM GAS  /tmp/ccKKV81m.s 			page 27


 1469 04b2 47060000 		.4byte	.LASF78
 1470 04b6 0C       		.byte	0xc
 1471 04b7 3C       		.byte	0x3c
 1472 04b8 D9000000 		.4byte	0xd9
 1473 04bc 03       		.uleb128 0x3
 1474 04bd 41010000 		.4byte	.LASF79
 1475 04c1 0D       		.byte	0xd
 1476 04c2 2F       		.byte	0x2f
 1477 04c3 9B040000 		.4byte	0x49b
 1478 04c7 03       		.uleb128 0x3
 1479 04c8 67030000 		.4byte	.LASF80
 1480 04cc 0E       		.byte	0xe
 1481 04cd 38       		.byte	0x38
 1482 04ce D2040000 		.4byte	0x4d2
 1483 04d2 09       		.uleb128 0x9
 1484 04d3 04       		.byte	0x4
 1485 04d4 94030000 		.4byte	0x394
 1486 04d8 03       		.uleb128 0x3
 1487 04d9 1E000000 		.4byte	.LASF81
 1488 04dd 0E       		.byte	0xe
 1489 04de 39       		.byte	0x39
 1490 04df E3040000 		.4byte	0x4e3
 1491 04e3 09       		.uleb128 0x9
 1492 04e4 04       		.byte	0x4
 1493 04e5 38040000 		.4byte	0x438
 1494 04e9 03       		.uleb128 0x3
 1495 04ea 3B020000 		.4byte	.LASF82
 1496 04ee 0E       		.byte	0xe
 1497 04ef 3A       		.byte	0x3a
 1498 04f0 77020000 		.4byte	0x277
 1499 04f4 03       		.uleb128 0x3
 1500 04f5 92020000 		.4byte	.LASF83
 1501 04f9 0F       		.byte	0xf
 1502 04fa 59       		.byte	0x59
 1503 04fb 59030000 		.4byte	0x359
 1504 04ff 13       		.uleb128 0x13
 1505 0500 01       		.byte	0x1
 1506 0501 10       		.byte	0x10
 1507 0502 2B       		.byte	0x2b
 1508 0503 62050000 		.4byte	0x562
 1509 0507 14       		.uleb128 0x14
 1510 0508 8B070000 		.4byte	.LASF84
 1511 050c 00       		.sleb128 0
 1512 050d 14       		.uleb128 0x14
 1513 050e E6060000 		.4byte	.LASF85
 1514 0512 01       		.sleb128 1
 1515 0513 14       		.uleb128 0x14
 1516 0514 2F060000 		.4byte	.LASF86
 1517 0518 02       		.sleb128 2
 1518 0519 14       		.uleb128 0x14
 1519 051a 29000000 		.4byte	.LASF87
 1520 051e 03       		.sleb128 3
 1521 051f 14       		.uleb128 0x14
 1522 0520 F8080000 		.4byte	.LASF88
 1523 0524 04       		.sleb128 4
 1524 0525 14       		.uleb128 0x14
 1525 0526 4E050000 		.4byte	.LASF89
ARM GAS  /tmp/ccKKV81m.s 			page 28


 1526 052a 05       		.sleb128 5
 1527 052b 14       		.uleb128 0x14
 1528 052c 7C070000 		.4byte	.LASF90
 1529 0530 06       		.sleb128 6
 1530 0531 14       		.uleb128 0x14
 1531 0532 E2040000 		.4byte	.LASF91
 1532 0536 07       		.sleb128 7
 1533 0537 14       		.uleb128 0x14
 1534 0538 AE030000 		.4byte	.LASF92
 1535 053c 08       		.sleb128 8
 1536 053d 14       		.uleb128 0x14
 1537 053e F1010000 		.4byte	.LASF93
 1538 0542 09       		.sleb128 9
 1539 0543 14       		.uleb128 0x14
 1540 0544 B4020000 		.4byte	.LASF94
 1541 0548 0A       		.sleb128 10
 1542 0549 14       		.uleb128 0x14
 1543 054a A2060000 		.4byte	.LASF95
 1544 054e 0B       		.sleb128 11
 1545 054f 14       		.uleb128 0x14
 1546 0550 E3030000 		.4byte	.LASF96
 1547 0554 0C       		.sleb128 12
 1548 0555 14       		.uleb128 0x14
 1549 0556 5D050000 		.4byte	.LASF97
 1550 055a 0D       		.sleb128 13
 1551 055b 14       		.uleb128 0x14
 1552 055c 7A030000 		.4byte	.LASF98
 1553 0560 0E       		.sleb128 14
 1554 0561 00       		.byte	0
 1555 0562 03       		.uleb128 0x3
 1556 0563 540A0000 		.4byte	.LASF99
 1557 0567 10       		.byte	0x10
 1558 0568 2F       		.byte	0x2f
 1559 0569 FF040000 		.4byte	0x4ff
 1560 056d 05       		.uleb128 0x5
 1561 056e 18090000 		.4byte	.LASF100
 1562 0572 10       		.byte	0x10
 1563 0573 11       		.byte	0x11
 1564 0574 4F       		.byte	0x4f
 1565 0575 CE050000 		.4byte	0x5ce
 1566 0579 06       		.uleb128 0x6
 1567 057a 1A010000 		.4byte	.LASF101
 1568 057e 11       		.byte	0x11
 1569 057f 51       		.byte	0x51
 1570 0580 CE050000 		.4byte	0x5ce
 1571 0584 00       		.byte	0
 1572 0585 06       		.uleb128 0x6
 1573 0586 37030000 		.4byte	.LASF102
 1574 058a 11       		.byte	0x11
 1575 058b 54       		.byte	0x54
 1576 058c B3020000 		.4byte	0x2b3
 1577 0590 04       		.byte	0x4
 1578 0591 06       		.uleb128 0x6
 1579 0592 1A030000 		.4byte	.LASF103
 1580 0596 11       		.byte	0x11
 1581 0597 5D       		.byte	0x5d
 1582 0598 A6040000 		.4byte	0x4a6
ARM GAS  /tmp/ccKKV81m.s 			page 29


 1583 059c 08       		.byte	0x8
 1584 059d 07       		.uleb128 0x7
 1585 059e 6C656E00 		.ascii	"len\000"
 1586 05a2 11       		.byte	0x11
 1587 05a3 60       		.byte	0x60
 1588 05a4 A6040000 		.4byte	0x4a6
 1589 05a8 0A       		.byte	0xa
 1590 05a9 06       		.uleb128 0x6
 1591 05aa CA080000 		.4byte	.LASF104
 1592 05ae 11       		.byte	0x11
 1593 05af 63       		.byte	0x63
 1594 05b0 90040000 		.4byte	0x490
 1595 05b4 0C       		.byte	0xc
 1596 05b5 06       		.uleb128 0x6
 1597 05b6 C3000000 		.4byte	.LASF105
 1598 05ba 11       		.byte	0x11
 1599 05bb 66       		.byte	0x66
 1600 05bc 90040000 		.4byte	0x490
 1601 05c0 0D       		.byte	0xd
 1602 05c1 07       		.uleb128 0x7
 1603 05c2 72656600 		.ascii	"ref\000"
 1604 05c6 11       		.byte	0x11
 1605 05c7 6D       		.byte	0x6d
 1606 05c8 A6040000 		.4byte	0x4a6
 1607 05cc 0E       		.byte	0xe
 1608 05cd 00       		.byte	0
 1609 05ce 09       		.uleb128 0x9
 1610 05cf 04       		.byte	0x4
 1611 05d0 6D050000 		.4byte	0x56d
 1612 05d4 05       		.uleb128 0x5
 1613 05d5 970A0000 		.4byte	.LASF106
 1614 05d9 04       		.byte	0x4
 1615 05da 12       		.byte	0x12
 1616 05db 2C       		.byte	0x2c
 1617 05dc ED050000 		.4byte	0x5ed
 1618 05e0 06       		.uleb128 0x6
 1619 05e1 71090000 		.4byte	.LASF107
 1620 05e5 12       		.byte	0x12
 1621 05e6 2D       		.byte	0x2d
 1622 05e7 B1040000 		.4byte	0x4b1
 1623 05eb 00       		.byte	0
 1624 05ec 00       		.byte	0
 1625 05ed 03       		.uleb128 0x3
 1626 05ee 420A0000 		.4byte	.LASF108
 1627 05f2 12       		.byte	0x12
 1628 05f3 40       		.byte	0x40
 1629 05f4 D4050000 		.4byte	0x5d4
 1630 05f8 09       		.uleb128 0x9
 1631 05f9 04       		.byte	0x4
 1632 05fa FE050000 		.4byte	0x5fe
 1633 05fe 05       		.uleb128 0x5
 1634 05ff 8F090000 		.4byte	.LASF109
 1635 0603 30       		.byte	0x30
 1636 0604 13       		.byte	0x13
 1637 0605 88       		.byte	0x88
 1638 0606 B2060000 		.4byte	0x6b2
 1639 060a 06       		.uleb128 0x6
ARM GAS  /tmp/ccKKV81m.s 			page 30


 1640 060b 1A010000 		.4byte	.LASF101
 1641 060f 13       		.byte	0x13
 1642 0610 8A       		.byte	0x8a
 1643 0611 F8050000 		.4byte	0x5f8
 1644 0615 00       		.byte	0
 1645 0616 06       		.uleb128 0x6
 1646 0617 970A0000 		.4byte	.LASF106
 1647 061b 13       		.byte	0x13
 1648 061c 8D       		.byte	0x8d
 1649 061d ED050000 		.4byte	0x5ed
 1650 0621 04       		.byte	0x4
 1651 0622 06       		.uleb128 0x6
 1652 0623 EE040000 		.4byte	.LASF110
 1653 0627 13       		.byte	0x13
 1654 0628 8E       		.byte	0x8e
 1655 0629 ED050000 		.4byte	0x5ed
 1656 062d 08       		.byte	0x8
 1657 062e 07       		.uleb128 0x7
 1658 062f 677700   		.ascii	"gw\000"
 1659 0632 13       		.byte	0x13
 1660 0633 8F       		.byte	0x8f
 1661 0634 ED050000 		.4byte	0x5ed
 1662 0638 0C       		.byte	0xc
 1663 0639 06       		.uleb128 0x6
 1664 063a 8D080000 		.4byte	.LASF111
 1665 063e 13       		.byte	0x13
 1666 063f 93       		.byte	0x93
 1667 0640 B2060000 		.4byte	0x6b2
 1668 0644 10       		.byte	0x10
 1669 0645 06       		.uleb128 0x6
 1670 0646 3F030000 		.4byte	.LASF112
 1671 064a 13       		.byte	0x13
 1672 064b 97       		.byte	0x97
 1673 064c D7060000 		.4byte	0x6d7
 1674 0650 14       		.byte	0x14
 1675 0651 06       		.uleb128 0x6
 1676 0652 4D010000 		.4byte	.LASF113
 1677 0656 13       		.byte	0x13
 1678 0657 9B       		.byte	0x9b
 1679 0658 07070000 		.4byte	0x707
 1680 065c 18       		.byte	0x18
 1681 065d 06       		.uleb128 0x6
 1682 065e 80090000 		.4byte	.LASF114
 1683 0662 13       		.byte	0x13
 1684 0663 AC       		.byte	0xac
 1685 0664 B3020000 		.4byte	0x2b3
 1686 0668 1C       		.byte	0x1c
 1687 0669 07       		.uleb128 0x7
 1688 066a 6D747500 		.ascii	"mtu\000"
 1689 066e 13       		.byte	0x13
 1690 066f BA       		.byte	0xba
 1691 0670 A6040000 		.4byte	0x4a6
 1692 0674 20       		.byte	0x20
 1693 0675 06       		.uleb128 0x6
 1694 0676 87020000 		.4byte	.LASF115
 1695 067a 13       		.byte	0x13
 1696 067b BC       		.byte	0xbc
ARM GAS  /tmp/ccKKV81m.s 			page 31


 1697 067c 90040000 		.4byte	0x490
 1698 0680 22       		.byte	0x22
 1699 0681 06       		.uleb128 0x6
 1700 0682 48020000 		.4byte	.LASF116
 1701 0686 13       		.byte	0x13
 1702 0687 BE       		.byte	0xbe
 1703 0688 2C070000 		.4byte	0x72c
 1704 068c 23       		.byte	0x23
 1705 068d 06       		.uleb128 0x6
 1706 068e C3000000 		.4byte	.LASF105
 1707 0692 13       		.byte	0x13
 1708 0693 C0       		.byte	0xc0
 1709 0694 90040000 		.4byte	0x490
 1710 0698 29       		.byte	0x29
 1711 0699 06       		.uleb128 0x6
 1712 069a 4E070000 		.4byte	.LASF117
 1713 069e 13       		.byte	0x13
 1714 069f C2       		.byte	0xc2
 1715 06a0 3C070000 		.4byte	0x73c
 1716 06a4 2A       		.byte	0x2a
 1717 06a5 07       		.uleb128 0x7
 1718 06a6 6E756D00 		.ascii	"num\000"
 1719 06aa 13       		.byte	0x13
 1720 06ab C4       		.byte	0xc4
 1721 06ac 90040000 		.4byte	0x490
 1722 06b0 2C       		.byte	0x2c
 1723 06b1 00       		.byte	0
 1724 06b2 03       		.uleb128 0x3
 1725 06b3 C6010000 		.4byte	.LASF118
 1726 06b7 13       		.byte	0x13
 1727 06b8 6D       		.byte	0x6d
 1728 06b9 BD060000 		.4byte	0x6bd
 1729 06bd 09       		.uleb128 0x9
 1730 06be 04       		.byte	0x4
 1731 06bf C3060000 		.4byte	0x6c3
 1732 06c3 15       		.uleb128 0x15
 1733 06c4 BC040000 		.4byte	0x4bc
 1734 06c8 D7060000 		.4byte	0x6d7
 1735 06cc 0E       		.uleb128 0xe
 1736 06cd CE050000 		.4byte	0x5ce
 1737 06d1 0E       		.uleb128 0xe
 1738 06d2 F8050000 		.4byte	0x5f8
 1739 06d6 00       		.byte	0
 1740 06d7 03       		.uleb128 0x3
 1741 06d8 7F010000 		.4byte	.LASF119
 1742 06dc 13       		.byte	0x13
 1743 06dd 76       		.byte	0x76
 1744 06de E2060000 		.4byte	0x6e2
 1745 06e2 09       		.uleb128 0x9
 1746 06e3 04       		.byte	0x4
 1747 06e4 E8060000 		.4byte	0x6e8
 1748 06e8 15       		.uleb128 0x15
 1749 06e9 BC040000 		.4byte	0x4bc
 1750 06ed 01070000 		.4byte	0x701
 1751 06f1 0E       		.uleb128 0xe
 1752 06f2 F8050000 		.4byte	0x5f8
 1753 06f6 0E       		.uleb128 0xe
ARM GAS  /tmp/ccKKV81m.s 			page 32


 1754 06f7 CE050000 		.4byte	0x5ce
 1755 06fb 0E       		.uleb128 0xe
 1756 06fc 01070000 		.4byte	0x701
 1757 0700 00       		.byte	0
 1758 0701 09       		.uleb128 0x9
 1759 0702 04       		.byte	0x4
 1760 0703 ED050000 		.4byte	0x5ed
 1761 0707 03       		.uleb128 0x3
 1762 0708 68070000 		.4byte	.LASF120
 1763 070c 13       		.byte	0x13
 1764 070d 7E       		.byte	0x7e
 1765 070e 12070000 		.4byte	0x712
 1766 0712 09       		.uleb128 0x9
 1767 0713 04       		.byte	0x4
 1768 0714 18070000 		.4byte	0x718
 1769 0718 15       		.uleb128 0x15
 1770 0719 BC040000 		.4byte	0x4bc
 1771 071d 2C070000 		.4byte	0x72c
 1772 0721 0E       		.uleb128 0xe
 1773 0722 F8050000 		.4byte	0x5f8
 1774 0726 0E       		.uleb128 0xe
 1775 0727 CE050000 		.4byte	0x5ce
 1776 072b 00       		.byte	0
 1777 072c 16       		.uleb128 0x16
 1778 072d 90040000 		.4byte	0x490
 1779 0731 3C070000 		.4byte	0x73c
 1780 0735 17       		.uleb128 0x17
 1781 0736 52030000 		.4byte	0x352
 1782 073a 05       		.byte	0x5
 1783 073b 00       		.byte	0
 1784 073c 16       		.uleb128 0x16
 1785 073d 83040000 		.4byte	0x483
 1786 0741 4C070000 		.4byte	0x74c
 1787 0745 17       		.uleb128 0x17
 1788 0746 52030000 		.4byte	0x352
 1789 074a 01       		.byte	0x1
 1790 074b 00       		.byte	0
 1791 074c 05       		.uleb128 0x5
 1792 074d 61070000 		.4byte	.LASF121
 1793 0751 10       		.byte	0x10
 1794 0752 14       		.byte	0x14
 1795 0753 30       		.byte	0x30
 1796 0754 87070000 		.4byte	0x787
 1797 0758 07       		.uleb128 0x7
 1798 0759 7000     		.ascii	"p\000"
 1799 075b 14       		.byte	0x14
 1800 075c 31       		.byte	0x31
 1801 075d CE050000 		.4byte	0x5ce
 1802 0761 00       		.byte	0
 1803 0762 07       		.uleb128 0x7
 1804 0763 70747200 		.ascii	"ptr\000"
 1805 0767 14       		.byte	0x14
 1806 0768 31       		.byte	0x31
 1807 0769 CE050000 		.4byte	0x5ce
 1808 076d 04       		.byte	0x4
 1809 076e 06       		.uleb128 0x6
 1810 076f 71090000 		.4byte	.LASF107
ARM GAS  /tmp/ccKKV81m.s 			page 33


 1811 0773 14       		.byte	0x14
 1812 0774 32       		.byte	0x32
 1813 0775 ED050000 		.4byte	0x5ed
 1814 0779 08       		.byte	0x8
 1815 077a 06       		.uleb128 0x6
 1816 077b 88080000 		.4byte	.LASF122
 1817 077f 14       		.byte	0x14
 1818 0780 33       		.byte	0x33
 1819 0781 A6040000 		.4byte	0x4a6
 1820 0785 0C       		.byte	0xc
 1821 0786 00       		.byte	0
 1822 0787 18       		.uleb128 0x18
 1823 0788 12060000 		.4byte	.LASF129
 1824 078c 01       		.byte	0x1
 1825 078d 15       		.byte	0x15
 1826 078e 53       		.byte	0x53
 1827 078f B9070000 		.4byte	0x7b9
 1828 0793 14       		.uleb128 0x14
 1829 0794 66020000 		.4byte	.LASF123
 1830 0798 00       		.sleb128 0
 1831 0799 14       		.uleb128 0x14
 1832 079a 0C090000 		.4byte	.LASF124
 1833 079e 10       		.sleb128 16
 1834 079f 14       		.uleb128 0x14
 1835 07a0 E7020000 		.4byte	.LASF125
 1836 07a4 20       		.sleb128 32
 1837 07a5 14       		.uleb128 0x14
 1838 07a6 080A0000 		.4byte	.LASF126
 1839 07aa 21       		.sleb128 33
 1840 07ab 14       		.uleb128 0x14
 1841 07ac 2D010000 		.4byte	.LASF127
 1842 07b0 22       		.sleb128 34
 1843 07b1 14       		.uleb128 0x14
 1844 07b2 FC090000 		.4byte	.LASF128
 1845 07b6 C000     		.sleb128 64
 1846 07b8 00       		.byte	0
 1847 07b9 18       		.uleb128 0x18
 1848 07ba 97010000 		.4byte	.LASF130
 1849 07be 01       		.byte	0x1
 1850 07bf 15       		.byte	0x15
 1851 07c0 61       		.byte	0x61
 1852 07c1 E4070000 		.4byte	0x7e4
 1853 07c5 14       		.uleb128 0x14
 1854 07c6 EF050000 		.4byte	.LASF131
 1855 07ca 00       		.sleb128 0
 1856 07cb 14       		.uleb128 0x14
 1857 07cc 0C010000 		.4byte	.LASF132
 1858 07d0 01       		.sleb128 1
 1859 07d1 14       		.uleb128 0x14
 1860 07d2 22090000 		.4byte	.LASF133
 1861 07d6 02       		.sleb128 2
 1862 07d7 14       		.uleb128 0x14
 1863 07d8 1F060000 		.4byte	.LASF134
 1864 07dc 03       		.sleb128 3
 1865 07dd 14       		.uleb128 0x14
 1866 07de C0090000 		.4byte	.LASF135
 1867 07e2 04       		.sleb128 4
ARM GAS  /tmp/ccKKV81m.s 			page 34


 1868 07e3 00       		.byte	0
 1869 07e4 18       		.uleb128 0x18
 1870 07e5 93080000 		.4byte	.LASF136
 1871 07e9 01       		.byte	0x1
 1872 07ea 15       		.byte	0x15
 1873 07eb 6A       		.byte	0x6a
 1874 07ec 0F080000 		.4byte	0x80f
 1875 07f0 14       		.uleb128 0x14
 1876 07f1 D3020000 		.4byte	.LASF137
 1877 07f5 00       		.sleb128 0
 1878 07f6 14       		.uleb128 0x14
 1879 07f7 C7030000 		.4byte	.LASF138
 1880 07fb 01       		.sleb128 1
 1881 07fc 14       		.uleb128 0x14
 1882 07fd B1010000 		.4byte	.LASF139
 1883 0801 02       		.sleb128 2
 1884 0802 14       		.uleb128 0x14
 1885 0803 11040000 		.4byte	.LASF140
 1886 0807 03       		.sleb128 3
 1887 0808 14       		.uleb128 0x14
 1888 0809 04020000 		.4byte	.LASF141
 1889 080d 04       		.sleb128 4
 1890 080e 00       		.byte	0
 1891 080f 03       		.uleb128 0x3
 1892 0810 9F080000 		.4byte	.LASF142
 1893 0814 15       		.byte	0x15
 1894 0815 83       		.byte	0x83
 1895 0816 1A080000 		.4byte	0x81a
 1896 081a 09       		.uleb128 0x9
 1897 081b 04       		.byte	0x4
 1898 081c 20080000 		.4byte	0x820
 1899 0820 0D       		.uleb128 0xd
 1900 0821 35080000 		.4byte	0x835
 1901 0825 0E       		.uleb128 0xe
 1902 0826 35080000 		.4byte	0x835
 1903 082a 0E       		.uleb128 0xe
 1904 082b E4070000 		.4byte	0x7e4
 1905 082f 0E       		.uleb128 0xe
 1906 0830 A6040000 		.4byte	0x4a6
 1907 0834 00       		.byte	0
 1908 0835 09       		.uleb128 0x9
 1909 0836 04       		.byte	0x4
 1910 0837 3B080000 		.4byte	0x83b
 1911 083b 05       		.uleb128 0x5
 1912 083c 4C0A0000 		.4byte	.LASF143
 1913 0840 2C       		.byte	0x2c
 1914 0841 15       		.byte	0x15
 1915 0842 86       		.byte	0x86
 1916 0843 D8080000 		.4byte	0x8d8
 1917 0847 06       		.uleb128 0x6
 1918 0848 CA080000 		.4byte	.LASF104
 1919 084c 15       		.byte	0x15
 1920 084d 88       		.byte	0x88
 1921 084e 87070000 		.4byte	0x787
 1922 0852 00       		.byte	0
 1923 0853 06       		.uleb128 0x6
 1924 0854 80090000 		.4byte	.LASF114
ARM GAS  /tmp/ccKKV81m.s 			page 35


 1925 0858 15       		.byte	0x15
 1926 0859 8A       		.byte	0x8a
 1927 085a B9070000 		.4byte	0x7b9
 1928 085e 01       		.byte	0x1
 1929 085f 07       		.uleb128 0x7
 1930 0860 70636200 		.ascii	"pcb\000"
 1931 0864 15       		.byte	0x15
 1932 0865 91       		.byte	0x91
 1933 0866 D8080000 		.4byte	0x8d8
 1934 086a 04       		.byte	0x4
 1935 086b 06       		.uleb128 0x6
 1936 086c 71030000 		.4byte	.LASF144
 1937 0870 15       		.byte	0x15
 1938 0871 93       		.byte	0x93
 1939 0872 BC040000 		.4byte	0x4bc
 1940 0876 08       		.byte	0x8
 1941 0877 06       		.uleb128 0x6
 1942 0878 350A0000 		.4byte	.LASF145
 1943 087c 15       		.byte	0x15
 1944 087d 95       		.byte	0x95
 1945 087e C7040000 		.4byte	0x4c7
 1946 0882 0C       		.byte	0xc
 1947 0883 06       		.uleb128 0x6
 1948 0884 E3000000 		.4byte	.LASF146
 1949 0888 15       		.byte	0x15
 1950 0889 98       		.byte	0x98
 1951 088a D8040000 		.4byte	0x4d8
 1952 088e 10       		.byte	0x10
 1953 088f 06       		.uleb128 0x6
 1954 0890 8E040000 		.4byte	.LASF147
 1955 0894 15       		.byte	0x15
 1956 0895 9C       		.byte	0x9c
 1957 0896 D8040000 		.4byte	0x4d8
 1958 089a 14       		.byte	0x14
 1959 089b 06       		.uleb128 0x6
 1960 089c 19070000 		.4byte	.LASF148
 1961 08a0 15       		.byte	0x15
 1962 08a1 A0       		.byte	0xa0
 1963 08a2 25000000 		.4byte	0x25
 1964 08a6 18       		.byte	0x18
 1965 08a7 06       		.uleb128 0x6
 1966 08a8 C3000000 		.4byte	.LASF105
 1967 08ac 15       		.byte	0x15
 1968 08ad B6       		.byte	0xb6
 1969 08ae 90040000 		.4byte	0x490
 1970 08b2 1C       		.byte	0x1c
 1971 08b3 06       		.uleb128 0x6
 1972 08b4 64090000 		.4byte	.LASF149
 1973 08b8 15       		.byte	0x15
 1974 08b9 BA       		.byte	0xba
 1975 08ba 2C000000 		.4byte	0x2c
 1976 08be 20       		.byte	0x20
 1977 08bf 06       		.uleb128 0x6
 1978 08c0 C5060000 		.4byte	.LASF150
 1979 08c4 15       		.byte	0x15
 1980 08c5 BE       		.byte	0xbe
 1981 08c6 AD090000 		.4byte	0x9ad
ARM GAS  /tmp/ccKKV81m.s 			page 36


 1982 08ca 24       		.byte	0x24
 1983 08cb 06       		.uleb128 0x6
 1984 08cc 86090000 		.4byte	.LASF151
 1985 08d0 15       		.byte	0x15
 1986 08d1 C1       		.byte	0xc1
 1987 08d2 0F080000 		.4byte	0x80f
 1988 08d6 28       		.byte	0x28
 1989 08d7 00       		.byte	0
 1990 08d8 10       		.uleb128 0x10
 1991 08d9 04       		.byte	0x4
 1992 08da 15       		.byte	0x15
 1993 08db 8C       		.byte	0x8c
 1994 08dc 0C090000 		.4byte	0x90c
 1995 08e0 19       		.uleb128 0x19
 1996 08e1 697000   		.ascii	"ip\000"
 1997 08e4 15       		.byte	0x15
 1998 08e5 8D       		.byte	0x8d
 1999 08e6 55090000 		.4byte	0x955
 2000 08ea 19       		.uleb128 0x19
 2001 08eb 74637000 		.ascii	"tcp\000"
 2002 08ef 15       		.byte	0x15
 2003 08f0 8E       		.byte	0x8e
 2004 08f1 60090000 		.4byte	0x960
 2005 08f5 19       		.uleb128 0x19
 2006 08f6 75647000 		.ascii	"udp\000"
 2007 08fa 15       		.byte	0x15
 2008 08fb 8F       		.byte	0x8f
 2009 08fc 6B090000 		.4byte	0x96b
 2010 0900 19       		.uleb128 0x19
 2011 0901 72617700 		.ascii	"raw\000"
 2012 0905 15       		.byte	0x15
 2013 0906 90       		.byte	0x90
 2014 0907 76090000 		.4byte	0x976
 2015 090b 00       		.byte	0
 2016 090c 05       		.uleb128 0x5
 2017 090d 05090000 		.4byte	.LASF152
 2018 0911 0C       		.byte	0xc
 2019 0912 16       		.byte	0x16
 2020 0913 59       		.byte	0x59
 2021 0914 55090000 		.4byte	0x955
 2022 0918 06       		.uleb128 0x6
 2023 0919 F3060000 		.4byte	.LASF153
 2024 091d 16       		.byte	0x16
 2025 091e 5B       		.byte	0x5b
 2026 091f ED050000 		.4byte	0x5ed
 2027 0923 00       		.byte	0
 2028 0924 06       		.uleb128 0x6
 2029 0925 180A0000 		.4byte	.LASF154
 2030 0929 16       		.byte	0x16
 2031 092a 5B       		.byte	0x5b
 2032 092b ED050000 		.4byte	0x5ed
 2033 092f 04       		.byte	0x4
 2034 0930 06       		.uleb128 0x6
 2035 0931 44000000 		.4byte	.LASF155
 2036 0935 16       		.byte	0x16
 2037 0936 5B       		.byte	0x5b
 2038 0937 90040000 		.4byte	0x490
ARM GAS  /tmp/ccKKV81m.s 			page 37


 2039 093b 08       		.byte	0x8
 2040 093c 07       		.uleb128 0x7
 2041 093d 746F7300 		.ascii	"tos\000"
 2042 0941 16       		.byte	0x16
 2043 0942 5B       		.byte	0x5b
 2044 0943 90040000 		.4byte	0x490
 2045 0947 09       		.byte	0x9
 2046 0948 07       		.uleb128 0x7
 2047 0949 74746C00 		.ascii	"ttl\000"
 2048 094d 16       		.byte	0x16
 2049 094e 5B       		.byte	0x5b
 2050 094f 90040000 		.4byte	0x490
 2051 0953 0A       		.byte	0xa
 2052 0954 00       		.byte	0
 2053 0955 09       		.uleb128 0x9
 2054 0956 04       		.byte	0x4
 2055 0957 0C090000 		.4byte	0x90c
 2056 095b 1A       		.uleb128 0x1a
 2057 095c E1090000 		.4byte	.LASF156
 2058 0960 09       		.uleb128 0x9
 2059 0961 04       		.byte	0x4
 2060 0962 5B090000 		.4byte	0x95b
 2061 0966 1A       		.uleb128 0x1a
 2062 0967 16000000 		.4byte	.LASF157
 2063 096b 09       		.uleb128 0x9
 2064 096c 04       		.byte	0x4
 2065 096d 66090000 		.4byte	0x966
 2066 0971 1A       		.uleb128 0x1a
 2067 0972 EC000000 		.4byte	.LASF158
 2068 0976 09       		.uleb128 0x9
 2069 0977 04       		.byte	0x4
 2070 0978 71090000 		.4byte	0x971
 2071 097c 05       		.uleb128 0x5
 2072 097d BB030000 		.4byte	.LASF159
 2073 0981 14       		.byte	0x14
 2074 0982 17       		.byte	0x17
 2075 0983 3E       		.byte	0x3e
 2076 0984 AD090000 		.4byte	0x9ad
 2077 0988 06       		.uleb128 0x6
 2078 0989 55030000 		.4byte	.LASF160
 2079 098d 17       		.byte	0x17
 2080 098e 41       		.byte	0x41
 2081 098f 35080000 		.4byte	0x835
 2082 0993 00       		.byte	0
 2083 0994 07       		.uleb128 0x7
 2084 0995 65727200 		.ascii	"err\000"
 2085 0999 17       		.byte	0x17
 2086 099a 43       		.byte	0x43
 2087 099b BC040000 		.4byte	0x4bc
 2088 099f 04       		.byte	0x4
 2089 09a0 07       		.uleb128 0x7
 2090 09a1 6D736700 		.ascii	"msg\000"
 2091 09a5 17       		.byte	0x17
 2092 09a6 75       		.byte	0x75
 2093 09a7 7A0A0000 		.4byte	0xa7a
 2094 09ab 08       		.byte	0x8
 2095 09ac 00       		.byte	0
ARM GAS  /tmp/ccKKV81m.s 			page 38


 2096 09ad 09       		.uleb128 0x9
 2097 09ae 04       		.byte	0x4
 2098 09af 7C090000 		.4byte	0x97c
 2099 09b3 08       		.uleb128 0x8
 2100 09b4 01       		.byte	0x1
 2101 09b5 17       		.byte	0x17
 2102 09b6 49       		.byte	0x49
 2103 09b7 C8090000 		.4byte	0x9c8
 2104 09bb 06       		.uleb128 0x6
 2105 09bc 4A040000 		.4byte	.LASF161
 2106 09c0 17       		.byte	0x17
 2107 09c1 4A       		.byte	0x4a
 2108 09c2 90040000 		.4byte	0x490
 2109 09c6 00       		.byte	0
 2110 09c7 00       		.byte	0
 2111 09c8 08       		.uleb128 0x8
 2112 09c9 08       		.byte	0x8
 2113 09ca 17       		.byte	0x17
 2114 09cb 4D       		.byte	0x4d
 2115 09cc E9090000 		.4byte	0x9e9
 2116 09d0 06       		.uleb128 0x6
 2117 09d1 22030000 		.4byte	.LASF162
 2118 09d5 17       		.byte	0x17
 2119 09d6 4E       		.byte	0x4e
 2120 09d7 01070000 		.4byte	0x701
 2121 09db 00       		.byte	0
 2122 09dc 06       		.uleb128 0x6
 2123 09dd 88080000 		.4byte	.LASF122
 2124 09e1 17       		.byte	0x17
 2125 09e2 4F       		.byte	0x4f
 2126 09e3 A6040000 		.4byte	0x4a6
 2127 09e7 04       		.byte	0x4
 2128 09e8 00       		.byte	0
 2129 09e9 08       		.uleb128 0x8
 2130 09ea 0C       		.byte	0xc
 2131 09eb 17       		.byte	0x17
 2132 09ec 52       		.byte	0x52
 2133 09ed 160A0000 		.4byte	0xa16
 2134 09f1 06       		.uleb128 0x6
 2135 09f2 22030000 		.4byte	.LASF162
 2136 09f6 17       		.byte	0x17
 2137 09f7 53       		.byte	0x53
 2138 09f8 01070000 		.4byte	0x701
 2139 09fc 00       		.byte	0
 2140 09fd 06       		.uleb128 0x6
 2141 09fe 88080000 		.4byte	.LASF122
 2142 0a02 17       		.byte	0x17
 2143 0a03 54       		.byte	0x54
 2144 0a04 160A0000 		.4byte	0xa16
 2145 0a08 04       		.byte	0x4
 2146 0a09 06       		.uleb128 0x6
 2147 0a0a 47010000 		.4byte	.LASF163
 2148 0a0e 17       		.byte	0x17
 2149 0a0f 55       		.byte	0x55
 2150 0a10 90040000 		.4byte	0x490
 2151 0a14 08       		.byte	0x8
 2152 0a15 00       		.byte	0
ARM GAS  /tmp/ccKKV81m.s 			page 39


 2153 0a16 09       		.uleb128 0x9
 2154 0a17 04       		.byte	0x4
 2155 0a18 A6040000 		.4byte	0x4a6
 2156 0a1c 08       		.uleb128 0x8
 2157 0a1d 0C       		.byte	0xc
 2158 0a1e 17       		.byte	0x17
 2159 0a1f 58       		.byte	0x58
 2160 0a20 490A0000 		.4byte	0xa49
 2161 0a24 06       		.uleb128 0x6
 2162 0a25 9E050000 		.4byte	.LASF164
 2163 0a29 17       		.byte	0x17
 2164 0a2a 59       		.byte	0x59
 2165 0a2b 490A0000 		.4byte	0xa49
 2166 0a2f 00       		.byte	0
 2167 0a30 07       		.uleb128 0x7
 2168 0a31 6C656E00 		.ascii	"len\000"
 2169 0a35 17       		.byte	0x17
 2170 0a36 5A       		.byte	0x5a
 2171 0a37 2C000000 		.4byte	0x2c
 2172 0a3b 04       		.byte	0x4
 2173 0a3c 06       		.uleb128 0x6
 2174 0a3d 60060000 		.4byte	.LASF165
 2175 0a41 17       		.byte	0x17
 2176 0a42 5B       		.byte	0x5b
 2177 0a43 90040000 		.4byte	0x490
 2178 0a47 08       		.byte	0x8
 2179 0a48 00       		.byte	0
 2180 0a49 09       		.uleb128 0x9
 2181 0a4a 04       		.byte	0x4
 2182 0a4b 4F0A0000 		.4byte	0xa4f
 2183 0a4f 1B       		.uleb128 0x1b
 2184 0a50 08       		.uleb128 0x8
 2185 0a51 04       		.byte	0x4
 2186 0a52 17       		.byte	0x17
 2187 0a53 61       		.byte	0x61
 2188 0a54 650A0000 		.4byte	0xa65
 2189 0a58 07       		.uleb128 0x7
 2190 0a59 6C656E00 		.ascii	"len\000"
 2191 0a5d 17       		.byte	0x17
 2192 0a5e 62       		.byte	0x62
 2193 0a5f B1040000 		.4byte	0x4b1
 2194 0a63 00       		.byte	0
 2195 0a64 00       		.byte	0
 2196 0a65 08       		.uleb128 0x8
 2197 0a66 01       		.byte	0x1
 2198 0a67 17       		.byte	0x17
 2199 0a68 65       		.byte	0x65
 2200 0a69 7A0A0000 		.4byte	0xa7a
 2201 0a6d 06       		.uleb128 0x6
 2202 0a6e 1D090000 		.4byte	.LASF166
 2203 0a72 17       		.byte	0x17
 2204 0a73 66       		.byte	0x66
 2205 0a74 90040000 		.4byte	0x490
 2206 0a78 00       		.byte	0
 2207 0a79 00       		.byte	0
 2208 0a7a 10       		.uleb128 0x10
 2209 0a7b 0C       		.byte	0xc
ARM GAS  /tmp/ccKKV81m.s 			page 40


 2210 0a7c 17       		.byte	0x17
 2211 0a7d 45       		.byte	0x45
 2212 0a7e C50A0000 		.4byte	0xac5
 2213 0a82 19       		.uleb128 0x19
 2214 0a83 6200     		.ascii	"b\000"
 2215 0a85 17       		.byte	0x17
 2216 0a86 47       		.byte	0x47
 2217 0a87 C50A0000 		.4byte	0xac5
 2218 0a8b 19       		.uleb128 0x19
 2219 0a8c 6E00     		.ascii	"n\000"
 2220 0a8e 17       		.byte	0x17
 2221 0a8f 4B       		.byte	0x4b
 2222 0a90 B3090000 		.4byte	0x9b3
 2223 0a94 19       		.uleb128 0x19
 2224 0a95 626300   		.ascii	"bc\000"
 2225 0a98 17       		.byte	0x17
 2226 0a99 50       		.byte	0x50
 2227 0a9a C8090000 		.4byte	0x9c8
 2228 0a9e 19       		.uleb128 0x19
 2229 0a9f 616400   		.ascii	"ad\000"
 2230 0aa2 17       		.byte	0x17
 2231 0aa3 56       		.byte	0x56
 2232 0aa4 E9090000 		.4byte	0x9e9
 2233 0aa8 19       		.uleb128 0x19
 2234 0aa9 7700     		.ascii	"w\000"
 2235 0aab 17       		.byte	0x17
 2236 0aac 5F       		.byte	0x5f
 2237 0aad 1C0A0000 		.4byte	0xa1c
 2238 0ab1 19       		.uleb128 0x19
 2239 0ab2 7200     		.ascii	"r\000"
 2240 0ab4 17       		.byte	0x17
 2241 0ab5 63       		.byte	0x63
 2242 0ab6 500A0000 		.4byte	0xa50
 2243 0aba 19       		.uleb128 0x19
 2244 0abb 736400   		.ascii	"sd\000"
 2245 0abe 17       		.byte	0x17
 2246 0abf 67       		.byte	0x67
 2247 0ac0 650A0000 		.4byte	0xa65
 2248 0ac4 00       		.byte	0
 2249 0ac5 09       		.uleb128 0x9
 2250 0ac6 04       		.byte	0x4
 2251 0ac7 4C070000 		.4byte	0x74c
 2252 0acb 05       		.uleb128 0x5
 2253 0acc BF040000 		.4byte	.LASF167
 2254 0ad0 18       		.byte	0x18
 2255 0ad1 17       		.byte	0x17
 2256 0ad2 7B       		.byte	0x7b
 2257 0ad3 F00A0000 		.4byte	0xaf0
 2258 0ad7 06       		.uleb128 0x6
 2259 0ad8 E8080000 		.4byte	.LASF168
 2260 0adc 17       		.byte	0x17
 2261 0add 7D       		.byte	0x7d
 2262 0ade FB0A0000 		.4byte	0xafb
 2263 0ae2 00       		.byte	0
 2264 0ae3 07       		.uleb128 0x7
 2265 0ae4 6D736700 		.ascii	"msg\000"
 2266 0ae8 17       		.byte	0x17
ARM GAS  /tmp/ccKKV81m.s 			page 41


 2267 0ae9 7F       		.byte	0x7f
 2268 0aea 7C090000 		.4byte	0x97c
 2269 0aee 04       		.byte	0x4
 2270 0aef 00       		.byte	0
 2271 0af0 0D       		.uleb128 0xd
 2272 0af1 FB0A0000 		.4byte	0xafb
 2273 0af5 0E       		.uleb128 0xe
 2274 0af6 AD090000 		.4byte	0x9ad
 2275 0afa 00       		.byte	0
 2276 0afb 09       		.uleb128 0x9
 2277 0afc 04       		.byte	0x4
 2278 0afd F00A0000 		.4byte	0xaf0
 2279 0b01 03       		.uleb128 0x3
 2280 0b02 9D000000 		.4byte	.LASF169
 2281 0b06 18       		.byte	0x18
 2282 0b07 41       		.byte	0x41
 2283 0b08 59030000 		.4byte	0x359
 2284 0b0c 03       		.uleb128 0x3
 2285 0b0d 6C050000 		.4byte	.LASF170
 2286 0b11 19       		.byte	0x19
 2287 0b12 4C       		.byte	0x4c
 2288 0b13 59030000 		.4byte	0x359
 2289 0b17 03       		.uleb128 0x3
 2290 0b18 B3060000 		.4byte	.LASF171
 2291 0b1c 19       		.byte	0x19
 2292 0b1d 4E       		.byte	0x4e
 2293 0b1e 59030000 		.4byte	0x359
 2294 0b22 18       		.uleb128 0x18
 2295 0b23 D3040000 		.4byte	.LASF172
 2296 0b27 01       		.byte	0x1
 2297 0b28 19       		.byte	0x19
 2298 0b29 75       		.byte	0x75
 2299 0b2a 530B0000 		.4byte	0xb53
 2300 0b2e 14       		.uleb128 0x14
 2301 0b2f D1060000 		.4byte	.LASF173
 2302 0b33 00       		.sleb128 0
 2303 0b34 14       		.uleb128 0x14
 2304 0b35 16020000 		.4byte	.LASF174
 2305 0b39 01       		.sleb128 1
 2306 0b3a 14       		.uleb128 0x14
 2307 0b3b 32050000 		.4byte	.LASF175
 2308 0b3f 02       		.sleb128 2
 2309 0b40 14       		.uleb128 0x14
 2310 0b41 5B0A0000 		.4byte	.LASF176
 2311 0b45 03       		.sleb128 3
 2312 0b46 14       		.uleb128 0x14
 2313 0b47 AC040000 		.4byte	.LASF177
 2314 0b4b 04       		.sleb128 4
 2315 0b4c 14       		.uleb128 0x14
 2316 0b4d B0080000 		.4byte	.LASF178
 2317 0b51 05       		.sleb128 5
 2318 0b52 00       		.byte	0
 2319 0b53 08       		.uleb128 0x8
 2320 0b54 08       		.byte	0x8
 2321 0b55 19       		.byte	0x19
 2322 0b56 8F       		.byte	0x8f
 2323 0b57 720B0000 		.4byte	0xb72
ARM GAS  /tmp/ccKKV81m.s 			page 42


 2324 0b5b 07       		.uleb128 0x7
 2325 0b5c 7000     		.ascii	"p\000"
 2326 0b5e 19       		.byte	0x19
 2327 0b5f 90       		.byte	0x90
 2328 0b60 CE050000 		.4byte	0x5ce
 2329 0b64 00       		.byte	0
 2330 0b65 06       		.uleb128 0x6
 2331 0b66 8F090000 		.4byte	.LASF109
 2332 0b6a 19       		.byte	0x19
 2333 0b6b 91       		.byte	0x91
 2334 0b6c F8050000 		.4byte	0x5f8
 2335 0b70 04       		.byte	0x4
 2336 0b71 00       		.byte	0
 2337 0b72 08       		.uleb128 0x8
 2338 0b73 08       		.byte	0x8
 2339 0b74 19       		.byte	0x19
 2340 0b75 93       		.byte	0x93
 2341 0b76 930B0000 		.4byte	0xb93
 2342 0b7a 06       		.uleb128 0x6
 2343 0b7b E8080000 		.4byte	.LASF168
 2344 0b7f 19       		.byte	0x19
 2345 0b80 94       		.byte	0x94
 2346 0b81 170B0000 		.4byte	0xb17
 2347 0b85 00       		.byte	0
 2348 0b86 07       		.uleb128 0x7
 2349 0b87 63747800 		.ascii	"ctx\000"
 2350 0b8b 19       		.byte	0x19
 2351 0b8c 95       		.byte	0x95
 2352 0b8d B3020000 		.4byte	0x2b3
 2353 0b91 04       		.byte	0x4
 2354 0b92 00       		.byte	0
 2355 0b93 08       		.uleb128 0x8
 2356 0b94 0C       		.byte	0xc
 2357 0b95 19       		.byte	0x19
 2358 0b96 98       		.byte	0x98
 2359 0b97 BE0B0000 		.4byte	0xbbe
 2360 0b9b 06       		.uleb128 0x6
 2361 0b9c 880A0000 		.4byte	.LASF179
 2362 0ba0 19       		.byte	0x19
 2363 0ba1 99       		.byte	0x99
 2364 0ba2 B1040000 		.4byte	0x4b1
 2365 0ba6 00       		.byte	0
 2366 0ba7 07       		.uleb128 0x7
 2367 0ba8 6800     		.ascii	"h\000"
 2368 0baa 19       		.byte	0x19
 2369 0bab 9A       		.byte	0x9a
 2370 0bac 010B0000 		.4byte	0xb01
 2371 0bb0 04       		.byte	0x4
 2372 0bb1 07       		.uleb128 0x7
 2373 0bb2 61726700 		.ascii	"arg\000"
 2374 0bb6 19       		.byte	0x19
 2375 0bb7 9B       		.byte	0x9b
 2376 0bb8 B3020000 		.4byte	0x2b3
 2377 0bbc 08       		.byte	0x8
 2378 0bbd 00       		.byte	0
 2379 0bbe 10       		.uleb128 0x10
 2380 0bbf 0C       		.byte	0xc
ARM GAS  /tmp/ccKKV81m.s 			page 43


 2381 0bc0 19       		.byte	0x19
 2382 0bc1 88       		.byte	0x88
 2383 0bc2 F20B0000 		.4byte	0xbf2
 2384 0bc6 11       		.uleb128 0x11
 2385 0bc7 85060000 		.4byte	.LASF180
 2386 0bcb 19       		.byte	0x19
 2387 0bcc 8A       		.byte	0x8a
 2388 0bcd F20B0000 		.4byte	0xbf2
 2389 0bd1 19       		.uleb128 0x19
 2390 0bd2 696E7000 		.ascii	"inp\000"
 2391 0bd6 19       		.byte	0x19
 2392 0bd7 92       		.byte	0x92
 2393 0bd8 530B0000 		.4byte	0xb53
 2394 0bdc 19       		.uleb128 0x19
 2395 0bdd 636200   		.ascii	"cb\000"
 2396 0be0 19       		.byte	0x19
 2397 0be1 96       		.byte	0x96
 2398 0be2 720B0000 		.4byte	0xb72
 2399 0be6 19       		.uleb128 0x19
 2400 0be7 746D6F00 		.ascii	"tmo\000"
 2401 0beb 19       		.byte	0x19
 2402 0bec 9C       		.byte	0x9c
 2403 0bed 930B0000 		.4byte	0xb93
 2404 0bf1 00       		.byte	0
 2405 0bf2 09       		.uleb128 0x9
 2406 0bf3 04       		.byte	0x4
 2407 0bf4 CB0A0000 		.4byte	0xacb
 2408 0bf8 05       		.uleb128 0x5
 2409 0bf9 6F0A0000 		.4byte	.LASF181
 2410 0bfd 14       		.byte	0x14
 2411 0bfe 19       		.byte	0x19
 2412 0bff 85       		.byte	0x85
 2413 0c00 290C0000 		.4byte	0xc29
 2414 0c04 06       		.uleb128 0x6
 2415 0c05 CA080000 		.4byte	.LASF104
 2416 0c09 19       		.byte	0x19
 2417 0c0a 86       		.byte	0x86
 2418 0c0b 220B0000 		.4byte	0xb22
 2419 0c0f 00       		.byte	0
 2420 0c10 07       		.uleb128 0x7
 2421 0c11 73656D00 		.ascii	"sem\000"
 2422 0c15 19       		.byte	0x19
 2423 0c16 87       		.byte	0x87
 2424 0c17 290C0000 		.4byte	0xc29
 2425 0c1b 04       		.byte	0x4
 2426 0c1c 07       		.uleb128 0x7
 2427 0c1d 6D736700 		.ascii	"msg\000"
 2428 0c21 19       		.byte	0x19
 2429 0c22 9E       		.byte	0x9e
 2430 0c23 BE0B0000 		.4byte	0xbbe
 2431 0c27 08       		.byte	0x8
 2432 0c28 00       		.byte	0
 2433 0c29 09       		.uleb128 0x9
 2434 0c2a 04       		.byte	0x4
 2435 0c2b C7040000 		.4byte	0x4c7
 2436 0c2f 1C       		.uleb128 0x1c
 2437 0c30 5A030000 		.4byte	.LASF182
ARM GAS  /tmp/ccKKV81m.s 			page 44


 2438 0c34 01       		.byte	0x1
 2439 0c35 4A       		.byte	0x4a
 2440 0c36 00000000 		.4byte	.LFB7
 2441 0c3a AC000000 		.4byte	.LFE7-.LFB7
 2442 0c3e 01       		.uleb128 0x1
 2443 0c3f 9C       		.byte	0x9c
 2444 0c40 F80C0000 		.4byte	0xcf8
 2445 0c44 1D       		.uleb128 0x1d
 2446 0c45 61726700 		.ascii	"arg\000"
 2447 0c49 01       		.byte	0x1
 2448 0c4a 4A       		.byte	0x4a
 2449 0c4b B3020000 		.4byte	0x2b3
 2450 0c4f 00000000 		.4byte	.LLST0
 2451 0c53 1E       		.uleb128 0x1e
 2452 0c54 6D736700 		.ascii	"msg\000"
 2453 0c58 01       		.byte	0x1
 2454 0c59 4C       		.byte	0x4c
 2455 0c5a F80C0000 		.4byte	0xcf8
 2456 0c5e 02       		.uleb128 0x2
 2457 0c5f 91       		.byte	0x91
 2458 0c60 74       		.sleb128 -12
 2459 0c61 1F       		.uleb128 0x1f
 2460 0c62 2A000000 		.4byte	.LVL3
 2461 0c66 90120000 		.4byte	0x1290
 2462 0c6a 7E0C0000 		.4byte	0xc7e
 2463 0c6e 20       		.uleb128 0x20
 2464 0c6f 01       		.uleb128 0x1
 2465 0c70 51       		.byte	0x51
 2466 0c71 02       		.uleb128 0x2
 2467 0c72 91       		.byte	0x91
 2468 0c73 74       		.sleb128 -12
 2469 0c74 20       		.uleb128 0x20
 2470 0c75 01       		.uleb128 0x1
 2471 0c76 50       		.byte	0x50
 2472 0c77 05       		.uleb128 0x5
 2473 0c78 03       		.byte	0x3
 2474 0c79 00000000 		.4byte	.LANCHOR2
 2475 0c7d 00       		.byte	0
 2476 0c7e 1F       		.uleb128 0x1f
 2477 0c7f 52000000 		.4byte	.LVL6
 2478 0c83 B2120000 		.4byte	0x12b2
 2479 0c87 910C0000 		.4byte	0xc91
 2480 0c8b 20       		.uleb128 0x20
 2481 0c8c 01       		.uleb128 0x1
 2482 0c8d 50       		.byte	0x50
 2483 0c8e 01       		.uleb128 0x1
 2484 0c8f 39       		.byte	0x39
 2485 0c90 00       		.byte	0
 2486 0c91 21       		.uleb128 0x21
 2487 0c92 5C000000 		.4byte	.LVL7
 2488 0c96 C8120000 		.4byte	0x12c8
 2489 0c9a 1F       		.uleb128 0x1f
 2490 0c9b 64000000 		.4byte	.LVL8
 2491 0c9f B2120000 		.4byte	0x12b2
 2492 0ca3 AD0C0000 		.4byte	0xcad
 2493 0ca7 20       		.uleb128 0x20
 2494 0ca8 01       		.uleb128 0x1
ARM GAS  /tmp/ccKKV81m.s 			page 45


 2495 0ca9 50       		.byte	0x50
 2496 0caa 01       		.uleb128 0x1
 2497 0cab 39       		.byte	0x39
 2498 0cac 00       		.byte	0
 2499 0cad 21       		.uleb128 0x21
 2500 0cae 70000000 		.4byte	.LVL9
 2501 0cb2 DE120000 		.4byte	0x12de
 2502 0cb6 1F       		.uleb128 0x1f
 2503 0cb7 78000000 		.4byte	.LVL10
 2504 0cbb B2120000 		.4byte	0x12b2
 2505 0cbf C90C0000 		.4byte	0xcc9
 2506 0cc3 20       		.uleb128 0x20
 2507 0cc4 01       		.uleb128 0x1
 2508 0cc5 50       		.byte	0x50
 2509 0cc6 01       		.uleb128 0x1
 2510 0cc7 39       		.byte	0x39
 2511 0cc8 00       		.byte	0
 2512 0cc9 21       		.uleb128 0x21
 2513 0cca 8C000000 		.4byte	.LVL11
 2514 0cce F9120000 		.4byte	0x12f9
 2515 0cd2 1F       		.uleb128 0x1f
 2516 0cd3 94000000 		.4byte	.LVL12
 2517 0cd7 B2120000 		.4byte	0x12b2
 2518 0cdb E50C0000 		.4byte	0xce5
 2519 0cdf 20       		.uleb128 0x20
 2520 0ce0 01       		.uleb128 0x1
 2521 0ce1 50       		.byte	0x50
 2522 0ce2 01       		.uleb128 0x1
 2523 0ce3 3A       		.byte	0x3a
 2524 0ce4 00       		.byte	0
 2525 0ce5 21       		.uleb128 0x21
 2526 0ce6 A4000000 		.4byte	.LVL14
 2527 0cea 13130000 		.4byte	0x1313
 2528 0cee 21       		.uleb128 0x21
 2529 0cef AA000000 		.4byte	.LVL15
 2530 0cf3 1B130000 		.4byte	0x131b
 2531 0cf7 00       		.byte	0
 2532 0cf8 09       		.uleb128 0x9
 2533 0cf9 04       		.byte	0x4
 2534 0cfa F80B0000 		.4byte	0xbf8
 2535 0cfe 22       		.uleb128 0x22
 2536 0cff AE050000 		.4byte	.LASF183
 2537 0d03 01       		.byte	0x1
 2538 0d04 E001     		.2byte	0x1e0
 2539 0d06 00000000 		.4byte	.LFB17
 2540 0d0a 04000000 		.4byte	.LFE17-.LFB17
 2541 0d0e 01       		.uleb128 0x1
 2542 0d0f 9C       		.byte	0x9c
 2543 0d10 420D0000 		.4byte	0xd42
 2544 0d14 23       		.uleb128 0x23
 2545 0d15 7000     		.ascii	"p\000"
 2546 0d17 01       		.byte	0x1
 2547 0d18 E001     		.2byte	0x1e0
 2548 0d1a B3020000 		.4byte	0x2b3
 2549 0d1e 21000000 		.4byte	.LLST1
 2550 0d22 24       		.uleb128 0x24
 2551 0d23 7100     		.ascii	"q\000"
ARM GAS  /tmp/ccKKV81m.s 			page 46


 2552 0d25 01       		.byte	0x1
 2553 0d26 E201     		.2byte	0x1e2
 2554 0d28 CE050000 		.4byte	0x5ce
 2555 0d2c 21000000 		.4byte	.LLST1
 2556 0d30 25       		.uleb128 0x25
 2557 0d31 04000000 		.4byte	.LVL17
 2558 0d35 35130000 		.4byte	0x1335
 2559 0d39 20       		.uleb128 0x20
 2560 0d3a 01       		.uleb128 0x1
 2561 0d3b 50       		.byte	0x50
 2562 0d3c 03       		.uleb128 0x3
 2563 0d3d F3       		.byte	0xf3
 2564 0d3e 01       		.uleb128 0x1
 2565 0d3f 50       		.byte	0x50
 2566 0d40 00       		.byte	0
 2567 0d41 00       		.byte	0
 2568 0d42 26       		.uleb128 0x26
 2569 0d43 04050000 		.4byte	.LASF184
 2570 0d47 01       		.byte	0x1
 2571 0d48 A1       		.byte	0xa1
 2572 0d49 BC040000 		.4byte	0x4bc
 2573 0d4d 00000000 		.4byte	.LFB8
 2574 0d51 4E000000 		.4byte	.LFE8-.LFB8
 2575 0d55 01       		.uleb128 0x1
 2576 0d56 9C       		.byte	0x9c
 2577 0d57 E30D0000 		.4byte	0xde3
 2578 0d5b 1D       		.uleb128 0x1d
 2579 0d5c 7000     		.ascii	"p\000"
 2580 0d5e 01       		.byte	0x1
 2581 0d5f A1       		.byte	0xa1
 2582 0d60 CE050000 		.4byte	0x5ce
 2583 0d64 42000000 		.4byte	.LLST3
 2584 0d68 1D       		.uleb128 0x1d
 2585 0d69 696E7000 		.ascii	"inp\000"
 2586 0d6d 01       		.byte	0x1
 2587 0d6e A1       		.byte	0xa1
 2588 0d6f F8050000 		.4byte	0x5f8
 2589 0d73 60000000 		.4byte	.LLST4
 2590 0d77 27       		.uleb128 0x27
 2591 0d78 6D736700 		.ascii	"msg\000"
 2592 0d7c 01       		.byte	0x1
 2593 0d7d B2       		.byte	0xb2
 2594 0d7e F80C0000 		.4byte	0xcf8
 2595 0d82 7E000000 		.4byte	.LLST5
 2596 0d86 1F       		.uleb128 0x1f
 2597 0d87 12000000 		.4byte	.LVL20
 2598 0d8b 4A130000 		.4byte	0x134a
 2599 0d8f 9D0D0000 		.4byte	0xd9d
 2600 0d93 20       		.uleb128 0x20
 2601 0d94 01       		.uleb128 0x1
 2602 0d95 50       		.byte	0x50
 2603 0d96 05       		.uleb128 0x5
 2604 0d97 03       		.byte	0x3
 2605 0d98 00000000 		.4byte	.LANCHOR2
 2606 0d9c 00       		.byte	0
 2607 0d9d 1F       		.uleb128 0x1f
 2608 0d9e 1A000000 		.4byte	.LVL21
ARM GAS  /tmp/ccKKV81m.s 			page 47


 2609 0da2 5F130000 		.4byte	0x135f
 2610 0da6 B00D0000 		.4byte	0xdb0
 2611 0daa 20       		.uleb128 0x20
 2612 0dab 01       		.uleb128 0x1
 2613 0dac 50       		.byte	0x50
 2614 0dad 01       		.uleb128 0x1
 2615 0dae 3A       		.byte	0x3a
 2616 0daf 00       		.byte	0
 2617 0db0 1F       		.uleb128 0x1f
 2618 0db1 34000000 		.4byte	.LVL23
 2619 0db5 74130000 		.4byte	0x1374
 2620 0db9 CD0D0000 		.4byte	0xdcd
 2621 0dbd 20       		.uleb128 0x20
 2622 0dbe 01       		.uleb128 0x1
 2623 0dbf 51       		.byte	0x51
 2624 0dc0 02       		.uleb128 0x2
 2625 0dc1 74       		.byte	0x74
 2626 0dc2 00       		.sleb128 0
 2627 0dc3 20       		.uleb128 0x20
 2628 0dc4 01       		.uleb128 0x1
 2629 0dc5 50       		.byte	0x50
 2630 0dc6 05       		.uleb128 0x5
 2631 0dc7 03       		.byte	0x3
 2632 0dc8 00000000 		.4byte	.LANCHOR2
 2633 0dcc 00       		.byte	0
 2634 0dcd 28       		.uleb128 0x28
 2635 0dce 4A000000 		.4byte	.LVL28
 2636 0dd2 B2120000 		.4byte	0x12b2
 2637 0dd6 20       		.uleb128 0x20
 2638 0dd7 01       		.uleb128 0x1
 2639 0dd8 51       		.byte	0x51
 2640 0dd9 02       		.uleb128 0x2
 2641 0dda 74       		.byte	0x74
 2642 0ddb 00       		.sleb128 0
 2643 0ddc 20       		.uleb128 0x20
 2644 0ddd 01       		.uleb128 0x1
 2645 0dde 50       		.byte	0x50
 2646 0ddf 01       		.uleb128 0x1
 2647 0de0 3A       		.byte	0x3a
 2648 0de1 00       		.byte	0
 2649 0de2 00       		.byte	0
 2650 0de3 26       		.uleb128 0x26
 2651 0de4 20070000 		.4byte	.LASF185
 2652 0de8 01       		.byte	0x1
 2653 0de9 D3       		.byte	0xd3
 2654 0dea BC040000 		.4byte	0x4bc
 2655 0dee 00000000 		.4byte	.LFB9
 2656 0df2 62000000 		.4byte	.LFE9-.LFB9
 2657 0df6 01       		.uleb128 0x1
 2658 0df7 9C       		.byte	0x9c
 2659 0df8 B20E0000 		.4byte	0xeb2
 2660 0dfc 29       		.uleb128 0x29
 2661 0dfd E8080000 		.4byte	.LASF168
 2662 0e01 01       		.byte	0x1
 2663 0e02 D3       		.byte	0xd3
 2664 0e03 170B0000 		.4byte	0xb17
 2665 0e07 B2000000 		.4byte	.LLST6
ARM GAS  /tmp/ccKKV81m.s 			page 48


 2666 0e0b 1D       		.uleb128 0x1d
 2667 0e0c 63747800 		.ascii	"ctx\000"
 2668 0e10 01       		.byte	0x1
 2669 0e11 D3       		.byte	0xd3
 2670 0e12 B3020000 		.4byte	0x2b3
 2671 0e16 D0000000 		.4byte	.LLST7
 2672 0e1a 29       		.uleb128 0x29
 2673 0e1b AB010000 		.4byte	.LASF186
 2674 0e1f 01       		.byte	0x1
 2675 0e20 D3       		.byte	0xd3
 2676 0e21 90040000 		.4byte	0x490
 2677 0e25 EE000000 		.4byte	.LLST8
 2678 0e29 27       		.uleb128 0x27
 2679 0e2a 6D736700 		.ascii	"msg\000"
 2680 0e2e 01       		.byte	0x1
 2681 0e2f D5       		.byte	0xd5
 2682 0e30 F80C0000 		.4byte	0xcf8
 2683 0e34 0F010000 		.4byte	.LLST9
 2684 0e38 1F       		.uleb128 0x1f
 2685 0e39 14000000 		.4byte	.LVL31
 2686 0e3d 4A130000 		.4byte	0x134a
 2687 0e41 4F0E0000 		.4byte	0xe4f
 2688 0e45 20       		.uleb128 0x20
 2689 0e46 01       		.uleb128 0x1
 2690 0e47 50       		.byte	0x50
 2691 0e48 05       		.uleb128 0x5
 2692 0e49 03       		.byte	0x3
 2693 0e4a 00000000 		.4byte	.LANCHOR2
 2694 0e4e 00       		.byte	0
 2695 0e4f 1F       		.uleb128 0x1f
 2696 0e50 1C000000 		.4byte	.LVL32
 2697 0e54 5F130000 		.4byte	0x135f
 2698 0e58 620E0000 		.4byte	0xe62
 2699 0e5c 20       		.uleb128 0x20
 2700 0e5d 01       		.uleb128 0x1
 2701 0e5e 50       		.byte	0x50
 2702 0e5f 01       		.uleb128 0x1
 2703 0e60 39       		.byte	0x39
 2704 0e61 00       		.byte	0
 2705 0e62 1F       		.uleb128 0x1f
 2706 0e63 38000000 		.4byte	.LVL34
 2707 0e67 74130000 		.4byte	0x1374
 2708 0e6b 7F0E0000 		.4byte	0xe7f
 2709 0e6f 20       		.uleb128 0x20
 2710 0e70 01       		.uleb128 0x1
 2711 0e71 51       		.byte	0x51
 2712 0e72 02       		.uleb128 0x2
 2713 0e73 74       		.byte	0x74
 2714 0e74 00       		.sleb128 0
 2715 0e75 20       		.uleb128 0x20
 2716 0e76 01       		.uleb128 0x1
 2717 0e77 50       		.byte	0x50
 2718 0e78 05       		.uleb128 0x5
 2719 0e79 03       		.byte	0x3
 2720 0e7a 00000000 		.4byte	.LANCHOR2
 2721 0e7e 00       		.byte	0
 2722 0e7f 1F       		.uleb128 0x1f
ARM GAS  /tmp/ccKKV81m.s 			page 49


 2723 0e80 48000000 		.4byte	.LVL37
 2724 0e84 8E130000 		.4byte	0x138e
 2725 0e88 9C0E0000 		.4byte	0xe9c
 2726 0e8c 20       		.uleb128 0x20
 2727 0e8d 01       		.uleb128 0x1
 2728 0e8e 51       		.byte	0x51
 2729 0e8f 02       		.uleb128 0x2
 2730 0e90 74       		.byte	0x74
 2731 0e91 00       		.sleb128 0
 2732 0e92 20       		.uleb128 0x20
 2733 0e93 01       		.uleb128 0x1
 2734 0e94 50       		.byte	0x50
 2735 0e95 05       		.uleb128 0x5
 2736 0e96 03       		.byte	0x3
 2737 0e97 00000000 		.4byte	.LANCHOR2
 2738 0e9b 00       		.byte	0
 2739 0e9c 28       		.uleb128 0x28
 2740 0e9d 5A000000 		.4byte	.LVL40
 2741 0ea1 B2120000 		.4byte	0x12b2
 2742 0ea5 20       		.uleb128 0x20
 2743 0ea6 01       		.uleb128 0x1
 2744 0ea7 51       		.byte	0x51
 2745 0ea8 02       		.uleb128 0x2
 2746 0ea9 74       		.byte	0x74
 2747 0eaa 00       		.sleb128 0
 2748 0eab 20       		.uleb128 0x20
 2749 0eac 01       		.uleb128 0x1
 2750 0ead 50       		.byte	0x50
 2751 0eae 01       		.uleb128 0x1
 2752 0eaf 39       		.byte	0x39
 2753 0eb0 00       		.byte	0
 2754 0eb1 00       		.byte	0
 2755 0eb2 26       		.uleb128 0x26
 2756 0eb3 B2090000 		.4byte	.LASF187
 2757 0eb7 01       		.byte	0x1
 2758 0eb8 F7       		.byte	0xf7
 2759 0eb9 BC040000 		.4byte	0x4bc
 2760 0ebd 00000000 		.4byte	.LFB10
 2761 0ec1 44000000 		.4byte	.LFE10-.LFB10
 2762 0ec5 01       		.uleb128 0x1
 2763 0ec6 9C       		.byte	0x9c
 2764 0ec7 430F0000 		.4byte	0xf43
 2765 0ecb 29       		.uleb128 0x29
 2766 0ecc 880A0000 		.4byte	.LASF179
 2767 0ed0 01       		.byte	0x1
 2768 0ed1 F7       		.byte	0xf7
 2769 0ed2 B1040000 		.4byte	0x4b1
 2770 0ed6 59010000 		.4byte	.LLST10
 2771 0eda 1D       		.uleb128 0x1d
 2772 0edb 6800     		.ascii	"h\000"
 2773 0edd 01       		.byte	0x1
 2774 0ede F7       		.byte	0xf7
 2775 0edf 010B0000 		.4byte	0xb01
 2776 0ee3 77010000 		.4byte	.LLST11
 2777 0ee7 1D       		.uleb128 0x1d
 2778 0ee8 61726700 		.ascii	"arg\000"
 2779 0eec 01       		.byte	0x1
ARM GAS  /tmp/ccKKV81m.s 			page 50


 2780 0eed F7       		.byte	0xf7
 2781 0eee B3020000 		.4byte	0x2b3
 2782 0ef2 95010000 		.4byte	.LLST12
 2783 0ef6 27       		.uleb128 0x27
 2784 0ef7 6D736700 		.ascii	"msg\000"
 2785 0efb 01       		.byte	0x1
 2786 0efc F9       		.byte	0xf9
 2787 0efd F80C0000 		.4byte	0xcf8
 2788 0f01 B3010000 		.4byte	.LLST13
 2789 0f05 1F       		.uleb128 0x1f
 2790 0f06 14000000 		.4byte	.LVL45
 2791 0f0a 4A130000 		.4byte	0x134a
 2792 0f0e 1C0F0000 		.4byte	0xf1c
 2793 0f12 20       		.uleb128 0x20
 2794 0f13 01       		.uleb128 0x1
 2795 0f14 50       		.byte	0x50
 2796 0f15 05       		.uleb128 0x5
 2797 0f16 03       		.byte	0x3
 2798 0f17 00000000 		.4byte	.LANCHOR2
 2799 0f1b 00       		.byte	0
 2800 0f1c 1F       		.uleb128 0x1f
 2801 0f1d 1C000000 		.4byte	.LVL46
 2802 0f21 5F130000 		.4byte	0x135f
 2803 0f25 2F0F0000 		.4byte	0xf2f
 2804 0f29 20       		.uleb128 0x20
 2805 0f2a 01       		.uleb128 0x1
 2806 0f2b 50       		.byte	0x50
 2807 0f2c 01       		.uleb128 0x1
 2808 0f2d 39       		.byte	0x39
 2809 0f2e 00       		.byte	0
 2810 0f2f 28       		.uleb128 0x28
 2811 0f30 36000000 		.4byte	.LVL48
 2812 0f34 8E130000 		.4byte	0x138e
 2813 0f38 20       		.uleb128 0x20
 2814 0f39 01       		.uleb128 0x1
 2815 0f3a 50       		.byte	0x50
 2816 0f3b 05       		.uleb128 0x5
 2817 0f3c 03       		.byte	0x3
 2818 0f3d 00000000 		.4byte	.LANCHOR2
 2819 0f41 00       		.byte	0
 2820 0f42 00       		.byte	0
 2821 0f43 2A       		.uleb128 0x2a
 2822 0f44 7F050000 		.4byte	.LASF188
 2823 0f48 01       		.byte	0x1
 2824 0f49 1401     		.2byte	0x114
 2825 0f4b BC040000 		.4byte	0x4bc
 2826 0f4f 00000000 		.4byte	.LFB11
 2827 0f53 40000000 		.4byte	.LFE11-.LFB11
 2828 0f57 01       		.uleb128 0x1
 2829 0f58 9C       		.byte	0x9c
 2830 0f59 C90F0000 		.4byte	0xfc9
 2831 0f5d 23       		.uleb128 0x23
 2832 0f5e 6800     		.ascii	"h\000"
 2833 0f60 01       		.byte	0x1
 2834 0f61 1401     		.2byte	0x114
 2835 0f63 010B0000 		.4byte	0xb01
 2836 0f67 E7010000 		.4byte	.LLST14
ARM GAS  /tmp/ccKKV81m.s 			page 51


 2837 0f6b 23       		.uleb128 0x23
 2838 0f6c 61726700 		.ascii	"arg\000"
 2839 0f70 01       		.byte	0x1
 2840 0f71 1401     		.2byte	0x114
 2841 0f73 B3020000 		.4byte	0x2b3
 2842 0f77 05020000 		.4byte	.LLST15
 2843 0f7b 24       		.uleb128 0x24
 2844 0f7c 6D736700 		.ascii	"msg\000"
 2845 0f80 01       		.byte	0x1
 2846 0f81 1601     		.2byte	0x116
 2847 0f83 F80C0000 		.4byte	0xcf8
 2848 0f87 23020000 		.4byte	.LLST16
 2849 0f8b 1F       		.uleb128 0x1f
 2850 0f8c 12000000 		.4byte	.LVL54
 2851 0f90 4A130000 		.4byte	0x134a
 2852 0f94 A20F0000 		.4byte	0xfa2
 2853 0f98 20       		.uleb128 0x20
 2854 0f99 01       		.uleb128 0x1
 2855 0f9a 50       		.byte	0x50
 2856 0f9b 05       		.uleb128 0x5
 2857 0f9c 03       		.byte	0x3
 2858 0f9d 00000000 		.4byte	.LANCHOR2
 2859 0fa1 00       		.byte	0
 2860 0fa2 1F       		.uleb128 0x1f
 2861 0fa3 1A000000 		.4byte	.LVL55
 2862 0fa7 5F130000 		.4byte	0x135f
 2863 0fab B50F0000 		.4byte	0xfb5
 2864 0faf 20       		.uleb128 0x20
 2865 0fb0 01       		.uleb128 0x1
 2866 0fb1 50       		.byte	0x50
 2867 0fb2 01       		.uleb128 0x1
 2868 0fb3 39       		.byte	0x39
 2869 0fb4 00       		.byte	0
 2870 0fb5 28       		.uleb128 0x28
 2871 0fb6 32000000 		.4byte	.LVL57
 2872 0fba 8E130000 		.4byte	0x138e
 2873 0fbe 20       		.uleb128 0x20
 2874 0fbf 01       		.uleb128 0x1
 2875 0fc0 50       		.byte	0x50
 2876 0fc1 05       		.uleb128 0x5
 2877 0fc2 03       		.byte	0x3
 2878 0fc3 00000000 		.4byte	.LANCHOR2
 2879 0fc7 00       		.byte	0
 2880 0fc8 00       		.byte	0
 2881 0fc9 2A       		.uleb128 0x2a
 2882 0fca 2E020000 		.4byte	.LASF189
 2883 0fce 01       		.byte	0x1
 2884 0fcf 3201     		.2byte	0x132
 2885 0fd1 BC040000 		.4byte	0x4bc
 2886 0fd5 00000000 		.4byte	.LFB12
 2887 0fd9 40000000 		.4byte	.LFE12-.LFB12
 2888 0fdd 01       		.uleb128 0x1
 2889 0fde 9C       		.byte	0x9c
 2890 0fdf 47100000 		.4byte	0x1047
 2891 0fe3 2B       		.uleb128 0x2b
 2892 0fe4 85060000 		.4byte	.LASF180
 2893 0fe8 01       		.byte	0x1
ARM GAS  /tmp/ccKKV81m.s 			page 52


 2894 0fe9 3201     		.2byte	0x132
 2895 0feb F20B0000 		.4byte	0xbf2
 2896 0fef 57020000 		.4byte	.LLST17
 2897 0ff3 2C       		.uleb128 0x2c
 2898 0ff4 6D736700 		.ascii	"msg\000"
 2899 0ff8 01       		.byte	0x1
 2900 0ff9 3401     		.2byte	0x134
 2901 0ffb F80B0000 		.4byte	0xbf8
 2902 0fff 02       		.uleb128 0x2
 2903 1000 91       		.byte	0x91
 2904 1001 5C       		.sleb128 -36
 2905 1002 1F       		.uleb128 0x1f
 2906 1003 12000000 		.4byte	.LVL63
 2907 1007 4A130000 		.4byte	0x134a
 2908 100b 19100000 		.4byte	0x1019
 2909 100f 20       		.uleb128 0x20
 2910 1010 01       		.uleb128 0x1
 2911 1011 50       		.byte	0x50
 2912 1012 05       		.uleb128 0x5
 2913 1013 03       		.byte	0x3
 2914 1014 00000000 		.4byte	.LANCHOR2
 2915 1018 00       		.byte	0
 2916 1019 1F       		.uleb128 0x1f
 2917 101a 2A000000 		.4byte	.LVL64
 2918 101e 8E130000 		.4byte	0x138e
 2919 1022 36100000 		.4byte	0x1036
 2920 1026 20       		.uleb128 0x20
 2921 1027 01       		.uleb128 0x1
 2922 1028 51       		.byte	0x51
 2923 1029 02       		.uleb128 0x2
 2924 102a 91       		.byte	0x91
 2925 102b 5C       		.sleb128 -36
 2926 102c 20       		.uleb128 0x20
 2927 102d 01       		.uleb128 0x1
 2928 102e 50       		.byte	0x50
 2929 102f 05       		.uleb128 0x5
 2930 1030 03       		.byte	0x3
 2931 1031 00000000 		.4byte	.LANCHOR2
 2932 1035 00       		.byte	0
 2933 1036 28       		.uleb128 0x28
 2934 1037 34000000 		.4byte	.LVL65
 2935 103b A4130000 		.4byte	0x13a4
 2936 103f 20       		.uleb128 0x20
 2937 1040 01       		.uleb128 0x1
 2938 1041 51       		.byte	0x51
 2939 1042 02       		.uleb128 0x2
 2940 1043 75       		.byte	0x75
 2941 1044 00       		.sleb128 0
 2942 1045 00       		.byte	0
 2943 1046 00       		.byte	0
 2944 1047 1A       		.uleb128 0x1a
 2945 1048 220A0000 		.4byte	.LASF190
 2946 104c 2A       		.uleb128 0x2a
 2947 104d 8C060000 		.4byte	.LASF191
 2948 1051 01       		.byte	0x1
 2949 1052 9801     		.2byte	0x198
 2950 1054 A4100000 		.4byte	0x10a4
ARM GAS  /tmp/ccKKV81m.s 			page 53


 2951 1058 00000000 		.4byte	.LFB13
 2952 105c 18000000 		.4byte	.LFE13-.LFB13
 2953 1060 01       		.uleb128 0x1
 2954 1061 9C       		.byte	0x9c
 2955 1062 A4100000 		.4byte	0x10a4
 2956 1066 2B       		.uleb128 0x2b
 2957 1067 E8080000 		.4byte	.LASF168
 2958 106b 01       		.byte	0x1
 2959 106c 9801     		.2byte	0x198
 2960 106e 170B0000 		.4byte	0xb17
 2961 1072 75020000 		.4byte	.LLST18
 2962 1076 23       		.uleb128 0x23
 2963 1077 63747800 		.ascii	"ctx\000"
 2964 107b 01       		.byte	0x1
 2965 107c 9801     		.2byte	0x198
 2966 107e B3020000 		.4byte	0x2b3
 2967 1082 93020000 		.4byte	.LLST19
 2968 1086 2C       		.uleb128 0x2c
 2969 1087 6D736700 		.ascii	"msg\000"
 2970 108b 01       		.byte	0x1
 2971 108c 9A01     		.2byte	0x19a
 2972 108e F80C0000 		.4byte	0xcf8
 2973 1092 01       		.uleb128 0x1
 2974 1093 50       		.byte	0x50
 2975 1094 28       		.uleb128 0x28
 2976 1095 0C000000 		.4byte	.LVL69
 2977 1099 5F130000 		.4byte	0x135f
 2978 109d 20       		.uleb128 0x20
 2979 109e 01       		.uleb128 0x1
 2980 109f 50       		.byte	0x50
 2981 10a0 01       		.uleb128 0x1
 2982 10a1 39       		.byte	0x39
 2983 10a2 00       		.byte	0
 2984 10a3 00       		.byte	0
 2985 10a4 09       		.uleb128 0x9
 2986 10a5 04       		.byte	0x4
 2987 10a6 47100000 		.4byte	0x1047
 2988 10aa 2D       		.uleb128 0x2d
 2989 10ab BC050000 		.4byte	.LASF193
 2990 10af 01       		.byte	0x1
 2991 10b0 A901     		.2byte	0x1a9
 2992 10b2 00000000 		.4byte	.LFB14
 2993 10b6 08000000 		.4byte	.LFE14-.LFB14
 2994 10ba 01       		.uleb128 0x1
 2995 10bb 9C       		.byte	0x9c
 2996 10bc E7100000 		.4byte	0x10e7
 2997 10c0 23       		.uleb128 0x23
 2998 10c1 6D736700 		.ascii	"msg\000"
 2999 10c5 01       		.byte	0x1
 3000 10c6 A901     		.2byte	0x1a9
 3001 10c8 A4100000 		.4byte	0x10a4
 3002 10cc B1020000 		.4byte	.LLST20
 3003 10d0 25       		.uleb128 0x25
 3004 10d1 08000000 		.4byte	.LVL72
 3005 10d5 B2120000 		.4byte	0x12b2
 3006 10d9 20       		.uleb128 0x20
 3007 10da 01       		.uleb128 0x1
ARM GAS  /tmp/ccKKV81m.s 			page 54


 3008 10db 51       		.byte	0x51
 3009 10dc 03       		.uleb128 0x3
 3010 10dd F3       		.byte	0xf3
 3011 10de 01       		.uleb128 0x1
 3012 10df 50       		.byte	0x50
 3013 10e0 20       		.uleb128 0x20
 3014 10e1 01       		.uleb128 0x1
 3015 10e2 50       		.byte	0x50
 3016 10e3 01       		.uleb128 0x1
 3017 10e4 39       		.byte	0x39
 3018 10e5 00       		.byte	0
 3019 10e6 00       		.byte	0
 3020 10e7 2A       		.uleb128 0x2a
 3021 10e8 B1000000 		.4byte	.LASF192
 3022 10ec 01       		.byte	0x1
 3023 10ed B601     		.2byte	0x1b6
 3024 10ef BC040000 		.4byte	0x4bc
 3025 10f3 00000000 		.4byte	.LFB15
 3026 10f7 2A000000 		.4byte	.LFE15-.LFB15
 3027 10fb 01       		.uleb128 0x1
 3028 10fc 9C       		.byte	0x9c
 3029 10fd 43110000 		.4byte	0x1143
 3030 1101 23       		.uleb128 0x23
 3031 1102 6D736700 		.ascii	"msg\000"
 3032 1106 01       		.byte	0x1
 3033 1107 B601     		.2byte	0x1b6
 3034 1109 A4100000 		.4byte	0x10a4
 3035 110d DD020000 		.4byte	.LLST21
 3036 1111 1F       		.uleb128 0x1f
 3037 1112 10000000 		.4byte	.LVL75
 3038 1116 4A130000 		.4byte	0x134a
 3039 111a 28110000 		.4byte	0x1128
 3040 111e 20       		.uleb128 0x20
 3041 111f 01       		.uleb128 0x1
 3042 1120 50       		.byte	0x50
 3043 1121 05       		.uleb128 0x5
 3044 1122 03       		.byte	0x3
 3045 1123 00000000 		.4byte	.LANCHOR2
 3046 1127 00       		.byte	0
 3047 1128 25       		.uleb128 0x25
 3048 1129 24000000 		.4byte	.LVL77
 3049 112d 74130000 		.4byte	0x1374
 3050 1131 20       		.uleb128 0x20
 3051 1132 01       		.uleb128 0x1
 3052 1133 51       		.byte	0x51
 3053 1134 03       		.uleb128 0x3
 3054 1135 F3       		.byte	0xf3
 3055 1136 01       		.uleb128 0x1
 3056 1137 50       		.byte	0x50
 3057 1138 20       		.uleb128 0x20
 3058 1139 01       		.uleb128 0x1
 3059 113a 50       		.byte	0x50
 3060 113b 05       		.uleb128 0x5
 3061 113c 03       		.byte	0x3
 3062 113d 00000000 		.4byte	.LANCHOR2
 3063 1141 00       		.byte	0
 3064 1142 00       		.byte	0
ARM GAS  /tmp/ccKKV81m.s 			page 55


 3065 1143 2D       		.uleb128 0x2d
 3066 1144 A9020000 		.4byte	.LASF194
 3067 1148 01       		.byte	0x1
 3068 1149 C701     		.2byte	0x1c7
 3069 114b 00000000 		.4byte	.LFB16
 3070 114f 56000000 		.4byte	.LFE16-.LFB16
 3071 1153 01       		.uleb128 0x1
 3072 1154 9C       		.byte	0x9c
 3073 1155 D6110000 		.4byte	0x11d6
 3074 1159 2B       		.uleb128 0x2b
 3075 115a 68010000 		.4byte	.LASF195
 3076 115e 01       		.byte	0x1
 3077 115f C701     		.2byte	0x1c7
 3078 1161 0C0B0000 		.4byte	0xb0c
 3079 1165 1F030000 		.4byte	.LLST22
 3080 1169 23       		.uleb128 0x23
 3081 116a 61726700 		.ascii	"arg\000"
 3082 116e 01       		.byte	0x1
 3083 116f C701     		.2byte	0x1c7
 3084 1171 B3020000 		.4byte	0x2b3
 3085 1175 3D030000 		.4byte	.LLST23
 3086 1179 21       		.uleb128 0x21
 3087 117a 0C000000 		.4byte	.LVL79
 3088 117e BE130000 		.4byte	0x13be
 3089 1182 1F       		.uleb128 0x1f
 3090 1183 2E000000 		.4byte	.LVL80
 3091 1187 C5130000 		.4byte	0x13c5
 3092 118b 9E110000 		.4byte	0x119e
 3093 118f 20       		.uleb128 0x20
 3094 1190 01       		.uleb128 0x1
 3095 1191 51       		.byte	0x51
 3096 1192 01       		.uleb128 0x1
 3097 1193 40       		.byte	0x40
 3098 1194 20       		.uleb128 0x20
 3099 1195 01       		.uleb128 0x1
 3100 1196 50       		.byte	0x50
 3101 1197 05       		.uleb128 0x5
 3102 1198 03       		.byte	0x3
 3103 1199 00000000 		.4byte	.LANCHOR2
 3104 119d 00       		.byte	0
 3105 119e 21       		.uleb128 0x21
 3106 119f 34000000 		.4byte	.LVL81
 3107 11a3 13130000 		.4byte	0x1313
 3108 11a7 28       		.uleb128 0x28
 3109 11a8 52000000 		.4byte	.LVL82
 3110 11ac DF130000 		.4byte	0x13df
 3111 11b0 20       		.uleb128 0x20
 3112 11b1 01       		.uleb128 0x1
 3113 11b2 53       		.byte	0x53
 3114 11b3 03       		.uleb128 0x3
 3115 11b4 0A       		.byte	0xa
 3116 11b5 0004     		.2byte	0x400
 3117 11b7 20       		.uleb128 0x20
 3118 11b8 01       		.uleb128 0x1
 3119 11b9 52       		.byte	0x52
 3120 11ba 01       		.uleb128 0x1
 3121 11bb 30       		.byte	0x30
ARM GAS  /tmp/ccKKV81m.s 			page 56


 3122 11bc 20       		.uleb128 0x20
 3123 11bd 01       		.uleb128 0x1
 3124 11be 51       		.byte	0x51
 3125 11bf 05       		.uleb128 0x5
 3126 11c0 03       		.byte	0x3
 3127 11c1 00000000 		.4byte	tcpip_thread
 3128 11c5 20       		.uleb128 0x20
 3129 11c6 01       		.uleb128 0x1
 3130 11c7 50       		.byte	0x50
 3131 11c8 05       		.uleb128 0x5
 3132 11c9 03       		.byte	0x3
 3133 11ca 00000000 		.4byte	.LC0
 3134 11ce 20       		.uleb128 0x20
 3135 11cf 02       		.uleb128 0x2
 3136 11d0 7D       		.byte	0x7d
 3137 11d1 00       		.sleb128 0
 3138 11d2 01       		.uleb128 0x1
 3139 11d3 33       		.byte	0x33
 3140 11d4 00       		.byte	0
 3141 11d5 00       		.byte	0
 3142 11d6 2A       		.uleb128 0x2a
 3143 11d7 30040000 		.4byte	.LASF196
 3144 11db 01       		.byte	0x1
 3145 11dc ED01     		.2byte	0x1ed
 3146 11de BC040000 		.4byte	0x4bc
 3147 11e2 00000000 		.4byte	.LFB18
 3148 11e6 10000000 		.4byte	.LFE18-.LFB18
 3149 11ea 01       		.uleb128 0x1
 3150 11eb 9C       		.byte	0x9c
 3151 11ec 1E120000 		.4byte	0x121e
 3152 11f0 23       		.uleb128 0x23
 3153 11f1 7000     		.ascii	"p\000"
 3154 11f3 01       		.byte	0x1
 3155 11f4 ED01     		.2byte	0x1ed
 3156 11f6 CE050000 		.4byte	0x5ce
 3157 11fa 5B030000 		.4byte	.LLST24
 3158 11fe 25       		.uleb128 0x25
 3159 11ff 10000000 		.4byte	.LVL85
 3160 1203 E30D0000 		.4byte	0xde3
 3161 1207 20       		.uleb128 0x20
 3162 1208 01       		.uleb128 0x1
 3163 1209 52       		.byte	0x52
 3164 120a 01       		.uleb128 0x1
 3165 120b 30       		.byte	0x30
 3166 120c 20       		.uleb128 0x20
 3167 120d 01       		.uleb128 0x1
 3168 120e 51       		.byte	0x51
 3169 120f 03       		.uleb128 0x3
 3170 1210 F3       		.byte	0xf3
 3171 1211 01       		.uleb128 0x1
 3172 1212 50       		.byte	0x50
 3173 1213 20       		.uleb128 0x20
 3174 1214 01       		.uleb128 0x1
 3175 1215 50       		.byte	0x50
 3176 1216 05       		.uleb128 0x5
 3177 1217 03       		.byte	0x3
 3178 1218 00000000 		.4byte	pbuf_free_int
ARM GAS  /tmp/ccKKV81m.s 			page 57


 3179 121c 00       		.byte	0
 3180 121d 00       		.byte	0
 3181 121e 2A       		.uleb128 0x2a
 3182 121f FF030000 		.4byte	.LASF197
 3183 1223 01       		.byte	0x1
 3184 1224 FA01     		.2byte	0x1fa
 3185 1226 BC040000 		.4byte	0x4bc
 3186 122a 00000000 		.4byte	.LFB19
 3187 122e 10000000 		.4byte	.LFE19-.LFB19
 3188 1232 01       		.uleb128 0x1
 3189 1233 9C       		.byte	0x9c
 3190 1234 5D120000 		.4byte	0x125d
 3191 1238 23       		.uleb128 0x23
 3192 1239 6D00     		.ascii	"m\000"
 3193 123b 01       		.byte	0x1
 3194 123c FA01     		.2byte	0x1fa
 3195 123e B3020000 		.4byte	0x2b3
 3196 1242 87030000 		.4byte	.LLST25
 3197 1246 25       		.uleb128 0x25
 3198 1247 10000000 		.4byte	.LVL88
 3199 124b E30D0000 		.4byte	0xde3
 3200 124f 20       		.uleb128 0x20
 3201 1250 01       		.uleb128 0x1
 3202 1251 52       		.byte	0x52
 3203 1252 01       		.uleb128 0x1
 3204 1253 30       		.byte	0x30
 3205 1254 20       		.uleb128 0x20
 3206 1255 01       		.uleb128 0x1
 3207 1256 51       		.byte	0x51
 3208 1257 03       		.uleb128 0x3
 3209 1258 F3       		.byte	0xf3
 3210 1259 01       		.uleb128 0x1
 3211 125a 50       		.byte	0x50
 3212 125b 00       		.byte	0
 3213 125c 00       		.byte	0
 3214 125d 2E       		.uleb128 0x2e
 3215 125e 95090000 		.4byte	.LASF198
 3216 1262 01       		.byte	0x1
 3217 1263 35       		.byte	0x35
 3218 1264 0C0B0000 		.4byte	0xb0c
 3219 1268 05       		.uleb128 0x5
 3220 1269 03       		.byte	0x3
 3221 126a 00000000 		.4byte	tcpip_init_done
 3222 126e 2E       		.uleb128 0x2e
 3223 126f 83030000 		.4byte	.LASF199
 3224 1273 01       		.byte	0x1
 3225 1274 36       		.byte	0x36
 3226 1275 B3020000 		.4byte	0x2b3
 3227 1279 05       		.uleb128 0x5
 3228 127a 03       		.byte	0x3
 3229 127b 00000000 		.4byte	tcpip_init_done_arg
 3230 127f 2E       		.uleb128 0x2e
 3231 1280 02070000 		.4byte	.LASF200
 3232 1284 01       		.byte	0x1
 3233 1285 37       		.byte	0x37
 3234 1286 D8040000 		.4byte	0x4d8
 3235 128a 05       		.uleb128 0x5
ARM GAS  /tmp/ccKKV81m.s 			page 58


 3236 128b 03       		.byte	0x3
 3237 128c 00000000 		.4byte	mbox
 3238 1290 2F       		.uleb128 0x2f
 3239 1291 02030000 		.4byte	.LASF201
 3240 1295 18       		.byte	0x18
 3241 1296 5B       		.byte	0x5b
 3242 1297 A6120000 		.4byte	0x12a6
 3243 129b 0E       		.uleb128 0xe
 3244 129c A6120000 		.4byte	0x12a6
 3245 12a0 0E       		.uleb128 0xe
 3246 12a1 AC120000 		.4byte	0x12ac
 3247 12a5 00       		.byte	0
 3248 12a6 09       		.uleb128 0x9
 3249 12a7 04       		.byte	0x4
 3250 12a8 D8040000 		.4byte	0x4d8
 3251 12ac 09       		.uleb128 0x9
 3252 12ad 04       		.byte	0x4
 3253 12ae B3020000 		.4byte	0x2b3
 3254 12b2 2F       		.uleb128 0x2f
 3255 12b3 C9020000 		.4byte	.LASF202
 3256 12b7 10       		.byte	0x10
 3257 12b8 6C       		.byte	0x6c
 3258 12b9 C8120000 		.4byte	0x12c8
 3259 12bd 0E       		.uleb128 0xe
 3260 12be 62050000 		.4byte	0x562
 3261 12c2 0E       		.uleb128 0xe
 3262 12c3 B3020000 		.4byte	0x2b3
 3263 12c7 00       		.byte	0
 3264 12c8 2F       		.uleb128 0x2f
 3265 12c9 1F010000 		.4byte	.LASF203
 3266 12cd 18       		.byte	0x18
 3267 12ce 56       		.byte	0x56
 3268 12cf DE120000 		.4byte	0x12de
 3269 12d3 0E       		.uleb128 0xe
 3270 12d4 010B0000 		.4byte	0xb01
 3271 12d8 0E       		.uleb128 0xe
 3272 12d9 B3020000 		.4byte	0x2b3
 3273 12dd 00       		.byte	0
 3274 12de 2F       		.uleb128 0x2f
 3275 12df 74080000 		.4byte	.LASF204
 3276 12e3 18       		.byte	0x18
 3277 12e4 53       		.byte	0x53
 3278 12e5 F9120000 		.4byte	0x12f9
 3279 12e9 0E       		.uleb128 0xe
 3280 12ea B1040000 		.4byte	0x4b1
 3281 12ee 0E       		.uleb128 0xe
 3282 12ef 010B0000 		.4byte	0xb01
 3283 12f3 0E       		.uleb128 0xe
 3284 12f4 B3020000 		.4byte	0x2b3
 3285 12f8 00       		.byte	0
 3286 12f9 30       		.uleb128 0x30
 3287 12fa 790A0000 		.4byte	.LASF205
 3288 12fe 1A       		.byte	0x1a
 3289 12ff D2       		.byte	0xd2
 3290 1300 BC040000 		.4byte	0x4bc
 3291 1304 13130000 		.4byte	0x1313
 3292 1308 0E       		.uleb128 0xe
ARM GAS  /tmp/ccKKV81m.s 			page 59


 3293 1309 CE050000 		.4byte	0x5ce
 3294 130d 0E       		.uleb128 0xe
 3295 130e F8050000 		.4byte	0x5f8
 3296 1312 00       		.byte	0
 3297 1313 31       		.uleb128 0x31
 3298 1314 50090000 		.4byte	.LASF213
 3299 1318 08       		.byte	0x8
 3300 1319 0102     		.2byte	0x201
 3301 131b 30       		.uleb128 0x30
 3302 131c 27040000 		.4byte	.LASF206
 3303 1320 16       		.byte	0x16
 3304 1321 B0       		.byte	0xb0
 3305 1322 BC040000 		.4byte	0x4bc
 3306 1326 35130000 		.4byte	0x1335
 3307 132a 0E       		.uleb128 0xe
 3308 132b CE050000 		.4byte	0x5ce
 3309 132f 0E       		.uleb128 0xe
 3310 1330 F8050000 		.4byte	0x5f8
 3311 1334 00       		.byte	0
 3312 1335 30       		.uleb128 0x30
 3313 1336 99040000 		.4byte	.LASF207
 3314 133a 11       		.byte	0x11
 3315 133b 9B       		.byte	0x9b
 3316 133c 90040000 		.4byte	0x490
 3317 1340 4A130000 		.4byte	0x134a
 3318 1344 0E       		.uleb128 0xe
 3319 1345 CE050000 		.4byte	0x5ce
 3320 1349 00       		.byte	0
 3321 134a 30       		.uleb128 0x30
 3322 134b F3020000 		.4byte	.LASF208
 3323 134f 0F       		.byte	0xf
 3324 1350 D5       		.byte	0xd5
 3325 1351 25000000 		.4byte	0x25
 3326 1355 5F130000 		.4byte	0x135f
 3327 1359 0E       		.uleb128 0xe
 3328 135a A6120000 		.4byte	0x12a6
 3329 135e 00       		.byte	0
 3330 135f 30       		.uleb128 0x30
 3331 1360 C7040000 		.4byte	.LASF209
 3332 1364 10       		.byte	0x10
 3333 1365 6A       		.byte	0x6a
 3334 1366 B3020000 		.4byte	0x2b3
 3335 136a 74130000 		.4byte	0x1374
 3336 136e 0E       		.uleb128 0xe
 3337 136f 62050000 		.4byte	0x562
 3338 1373 00       		.byte	0
 3339 1374 30       		.uleb128 0x30
 3340 1375 D5050000 		.4byte	.LASF210
 3341 1379 0F       		.byte	0xf
 3342 137a BA       		.byte	0xba
 3343 137b BC040000 		.4byte	0x4bc
 3344 137f 8E130000 		.4byte	0x138e
 3345 1383 0E       		.uleb128 0xe
 3346 1384 A6120000 		.4byte	0x12a6
 3347 1388 0E       		.uleb128 0xe
 3348 1389 B3020000 		.4byte	0x2b3
 3349 138d 00       		.byte	0
ARM GAS  /tmp/ccKKV81m.s 			page 60


 3350 138e 2F       		.uleb128 0x2f
 3351 138f 53070000 		.4byte	.LASF211
 3352 1393 0F       		.byte	0xf
 3353 1394 B6       		.byte	0xb6
 3354 1395 A4130000 		.4byte	0x13a4
 3355 1399 0E       		.uleb128 0xe
 3356 139a A6120000 		.4byte	0x12a6
 3357 139e 0E       		.uleb128 0xe
 3358 139f B3020000 		.4byte	0x2b3
 3359 13a3 00       		.byte	0
 3360 13a4 30       		.uleb128 0x30
 3361 13a5 07070000 		.4byte	.LASF212
 3362 13a9 0F       		.byte	0xf
 3363 13aa 97       		.byte	0x97
 3364 13ab B1040000 		.4byte	0x4b1
 3365 13af BE130000 		.4byte	0x13be
 3366 13b3 0E       		.uleb128 0xe
 3367 13b4 290C0000 		.4byte	0xc29
 3368 13b8 0E       		.uleb128 0xe
 3369 13b9 B1040000 		.4byte	0x4b1
 3370 13bd 00       		.byte	0
 3371 13be 32       		.uleb128 0x32
 3372 13bf 76090000 		.4byte	.LASF214
 3373 13c3 1B       		.byte	0x1b
 3374 13c4 42       		.byte	0x42
 3375 13c5 30       		.uleb128 0x30
 3376 13c6 A5090000 		.4byte	.LASF215
 3377 13ca 0F       		.byte	0xf
 3378 13cb B1       		.byte	0xb1
 3379 13cc BC040000 		.4byte	0x4bc
 3380 13d0 DF130000 		.4byte	0x13df
 3381 13d4 0E       		.uleb128 0xe
 3382 13d5 A6120000 		.4byte	0x12a6
 3383 13d9 0E       		.uleb128 0xe
 3384 13da 25000000 		.4byte	0x25
 3385 13de 00       		.byte	0
 3386 13df 33       		.uleb128 0x33
 3387 13e0 03060000 		.4byte	.LASF216
 3388 13e4 0F       		.byte	0xf
 3389 13e5 E3       		.byte	0xe3
 3390 13e6 E9040000 		.4byte	0x4e9
 3391 13ea 0E       		.uleb128 0xe
 3392 13eb 78040000 		.4byte	0x478
 3393 13ef 0E       		.uleb128 0xe
 3394 13f0 F4040000 		.4byte	0x4f4
 3395 13f4 0E       		.uleb128 0xe
 3396 13f5 B3020000 		.4byte	0x2b3
 3397 13f9 0E       		.uleb128 0xe
 3398 13fa 25000000 		.4byte	0x25
 3399 13fe 0E       		.uleb128 0xe
 3400 13ff 25000000 		.4byte	0x25
 3401 1403 00       		.byte	0
 3402 1404 00       		.byte	0
 3403              		.section	.debug_abbrev,"",%progbits
 3404              	.Ldebug_abbrev0:
 3405 0000 01       		.uleb128 0x1
 3406 0001 11       		.uleb128 0x11
ARM GAS  /tmp/ccKKV81m.s 			page 61


 3407 0002 01       		.byte	0x1
 3408 0003 25       		.uleb128 0x25
 3409 0004 0E       		.uleb128 0xe
 3410 0005 13       		.uleb128 0x13
 3411 0006 0B       		.uleb128 0xb
 3412 0007 03       		.uleb128 0x3
 3413 0008 0E       		.uleb128 0xe
 3414 0009 1B       		.uleb128 0x1b
 3415 000a 0E       		.uleb128 0xe
 3416 000b 55       		.uleb128 0x55
 3417 000c 17       		.uleb128 0x17
 3418 000d 11       		.uleb128 0x11
 3419 000e 01       		.uleb128 0x1
 3420 000f 10       		.uleb128 0x10
 3421 0010 17       		.uleb128 0x17
 3422 0011 00       		.byte	0
 3423 0012 00       		.byte	0
 3424 0013 02       		.uleb128 0x2
 3425 0014 24       		.uleb128 0x24
 3426 0015 00       		.byte	0
 3427 0016 0B       		.uleb128 0xb
 3428 0017 0B       		.uleb128 0xb
 3429 0018 3E       		.uleb128 0x3e
 3430 0019 0B       		.uleb128 0xb
 3431 001a 03       		.uleb128 0x3
 3432 001b 08       		.uleb128 0x8
 3433 001c 00       		.byte	0
 3434 001d 00       		.byte	0
 3435 001e 03       		.uleb128 0x3
 3436 001f 16       		.uleb128 0x16
 3437 0020 00       		.byte	0
 3438 0021 03       		.uleb128 0x3
 3439 0022 0E       		.uleb128 0xe
 3440 0023 3A       		.uleb128 0x3a
 3441 0024 0B       		.uleb128 0xb
 3442 0025 3B       		.uleb128 0x3b
 3443 0026 0B       		.uleb128 0xb
 3444 0027 49       		.uleb128 0x49
 3445 0028 13       		.uleb128 0x13
 3446 0029 00       		.byte	0
 3447 002a 00       		.byte	0
 3448 002b 04       		.uleb128 0x4
 3449 002c 24       		.uleb128 0x24
 3450 002d 00       		.byte	0
 3451 002e 0B       		.uleb128 0xb
 3452 002f 0B       		.uleb128 0xb
 3453 0030 3E       		.uleb128 0x3e
 3454 0031 0B       		.uleb128 0xb
 3455 0032 03       		.uleb128 0x3
 3456 0033 0E       		.uleb128 0xe
 3457 0034 00       		.byte	0
 3458 0035 00       		.byte	0
 3459 0036 05       		.uleb128 0x5
 3460 0037 13       		.uleb128 0x13
 3461 0038 01       		.byte	0x1
 3462 0039 03       		.uleb128 0x3
 3463 003a 0E       		.uleb128 0xe
ARM GAS  /tmp/ccKKV81m.s 			page 62


 3464 003b 0B       		.uleb128 0xb
 3465 003c 0B       		.uleb128 0xb
 3466 003d 3A       		.uleb128 0x3a
 3467 003e 0B       		.uleb128 0xb
 3468 003f 3B       		.uleb128 0x3b
 3469 0040 0B       		.uleb128 0xb
 3470 0041 01       		.uleb128 0x1
 3471 0042 13       		.uleb128 0x13
 3472 0043 00       		.byte	0
 3473 0044 00       		.byte	0
 3474 0045 06       		.uleb128 0x6
 3475 0046 0D       		.uleb128 0xd
 3476 0047 00       		.byte	0
 3477 0048 03       		.uleb128 0x3
 3478 0049 0E       		.uleb128 0xe
 3479 004a 3A       		.uleb128 0x3a
 3480 004b 0B       		.uleb128 0xb
 3481 004c 3B       		.uleb128 0x3b
 3482 004d 0B       		.uleb128 0xb
 3483 004e 49       		.uleb128 0x49
 3484 004f 13       		.uleb128 0x13
 3485 0050 38       		.uleb128 0x38
 3486 0051 0B       		.uleb128 0xb
 3487 0052 00       		.byte	0
 3488 0053 00       		.byte	0
 3489 0054 07       		.uleb128 0x7
 3490 0055 0D       		.uleb128 0xd
 3491 0056 00       		.byte	0
 3492 0057 03       		.uleb128 0x3
 3493 0058 08       		.uleb128 0x8
 3494 0059 3A       		.uleb128 0x3a
 3495 005a 0B       		.uleb128 0xb
 3496 005b 3B       		.uleb128 0x3b
 3497 005c 0B       		.uleb128 0xb
 3498 005d 49       		.uleb128 0x49
 3499 005e 13       		.uleb128 0x13
 3500 005f 38       		.uleb128 0x38
 3501 0060 0B       		.uleb128 0xb
 3502 0061 00       		.byte	0
 3503 0062 00       		.byte	0
 3504 0063 08       		.uleb128 0x8
 3505 0064 13       		.uleb128 0x13
 3506 0065 01       		.byte	0x1
 3507 0066 0B       		.uleb128 0xb
 3508 0067 0B       		.uleb128 0xb
 3509 0068 3A       		.uleb128 0x3a
 3510 0069 0B       		.uleb128 0xb
 3511 006a 3B       		.uleb128 0x3b
 3512 006b 0B       		.uleb128 0xb
 3513 006c 01       		.uleb128 0x1
 3514 006d 13       		.uleb128 0x13
 3515 006e 00       		.byte	0
 3516 006f 00       		.byte	0
 3517 0070 09       		.uleb128 0x9
 3518 0071 0F       		.uleb128 0xf
 3519 0072 00       		.byte	0
 3520 0073 0B       		.uleb128 0xb
ARM GAS  /tmp/ccKKV81m.s 			page 63


 3521 0074 0B       		.uleb128 0xb
 3522 0075 49       		.uleb128 0x49
 3523 0076 13       		.uleb128 0x13
 3524 0077 00       		.byte	0
 3525 0078 00       		.byte	0
 3526 0079 0A       		.uleb128 0xa
 3527 007a 0F       		.uleb128 0xf
 3528 007b 00       		.byte	0
 3529 007c 0B       		.uleb128 0xb
 3530 007d 0B       		.uleb128 0xb
 3531 007e 00       		.byte	0
 3532 007f 00       		.byte	0
 3533 0080 0B       		.uleb128 0xb
 3534 0081 13       		.uleb128 0x13
 3535 0082 01       		.byte	0x1
 3536 0083 03       		.uleb128 0x3
 3537 0084 0E       		.uleb128 0xe
 3538 0085 0B       		.uleb128 0xb
 3539 0086 0B       		.uleb128 0xb
 3540 0087 3A       		.uleb128 0x3a
 3541 0088 0B       		.uleb128 0xb
 3542 0089 3B       		.uleb128 0x3b
 3543 008a 05       		.uleb128 0x5
 3544 008b 01       		.uleb128 0x1
 3545 008c 13       		.uleb128 0x13
 3546 008d 00       		.byte	0
 3547 008e 00       		.byte	0
 3548 008f 0C       		.uleb128 0xc
 3549 0090 0D       		.uleb128 0xd
 3550 0091 00       		.byte	0
 3551 0092 03       		.uleb128 0x3
 3552 0093 08       		.uleb128 0x8
 3553 0094 3A       		.uleb128 0x3a
 3554 0095 0B       		.uleb128 0xb
 3555 0096 3B       		.uleb128 0x3b
 3556 0097 05       		.uleb128 0x5
 3557 0098 49       		.uleb128 0x49
 3558 0099 13       		.uleb128 0x13
 3559 009a 38       		.uleb128 0x38
 3560 009b 0B       		.uleb128 0xb
 3561 009c 00       		.byte	0
 3562 009d 00       		.byte	0
 3563 009e 0D       		.uleb128 0xd
 3564 009f 15       		.uleb128 0x15
 3565 00a0 01       		.byte	0x1
 3566 00a1 27       		.uleb128 0x27
 3567 00a2 19       		.uleb128 0x19
 3568 00a3 01       		.uleb128 0x1
 3569 00a4 13       		.uleb128 0x13
 3570 00a5 00       		.byte	0
 3571 00a6 00       		.byte	0
 3572 00a7 0E       		.uleb128 0xe
 3573 00a8 05       		.uleb128 0x5
 3574 00a9 00       		.byte	0
 3575 00aa 49       		.uleb128 0x49
 3576 00ab 13       		.uleb128 0x13
 3577 00ac 00       		.byte	0
ARM GAS  /tmp/ccKKV81m.s 			page 64


 3578 00ad 00       		.byte	0
 3579 00ae 0F       		.uleb128 0xf
 3580 00af 35       		.uleb128 0x35
 3581 00b0 00       		.byte	0
 3582 00b1 49       		.uleb128 0x49
 3583 00b2 13       		.uleb128 0x13
 3584 00b3 00       		.byte	0
 3585 00b4 00       		.byte	0
 3586 00b5 10       		.uleb128 0x10
 3587 00b6 17       		.uleb128 0x17
 3588 00b7 01       		.byte	0x1
 3589 00b8 0B       		.uleb128 0xb
 3590 00b9 0B       		.uleb128 0xb
 3591 00ba 3A       		.uleb128 0x3a
 3592 00bb 0B       		.uleb128 0xb
 3593 00bc 3B       		.uleb128 0x3b
 3594 00bd 0B       		.uleb128 0xb
 3595 00be 01       		.uleb128 0x1
 3596 00bf 13       		.uleb128 0x13
 3597 00c0 00       		.byte	0
 3598 00c1 00       		.byte	0
 3599 00c2 11       		.uleb128 0x11
 3600 00c3 0D       		.uleb128 0xd
 3601 00c4 00       		.byte	0
 3602 00c5 03       		.uleb128 0x3
 3603 00c6 0E       		.uleb128 0xe
 3604 00c7 3A       		.uleb128 0x3a
 3605 00c8 0B       		.uleb128 0xb
 3606 00c9 3B       		.uleb128 0x3b
 3607 00ca 0B       		.uleb128 0xb
 3608 00cb 49       		.uleb128 0x49
 3609 00cc 13       		.uleb128 0x13
 3610 00cd 00       		.byte	0
 3611 00ce 00       		.byte	0
 3612 00cf 12       		.uleb128 0x12
 3613 00d0 26       		.uleb128 0x26
 3614 00d1 00       		.byte	0
 3615 00d2 49       		.uleb128 0x49
 3616 00d3 13       		.uleb128 0x13
 3617 00d4 00       		.byte	0
 3618 00d5 00       		.byte	0
 3619 00d6 13       		.uleb128 0x13
 3620 00d7 04       		.uleb128 0x4
 3621 00d8 01       		.byte	0x1
 3622 00d9 0B       		.uleb128 0xb
 3623 00da 0B       		.uleb128 0xb
 3624 00db 3A       		.uleb128 0x3a
 3625 00dc 0B       		.uleb128 0xb
 3626 00dd 3B       		.uleb128 0x3b
 3627 00de 0B       		.uleb128 0xb
 3628 00df 01       		.uleb128 0x1
 3629 00e0 13       		.uleb128 0x13
 3630 00e1 00       		.byte	0
 3631 00e2 00       		.byte	0
 3632 00e3 14       		.uleb128 0x14
 3633 00e4 28       		.uleb128 0x28
 3634 00e5 00       		.byte	0
ARM GAS  /tmp/ccKKV81m.s 			page 65


 3635 00e6 03       		.uleb128 0x3
 3636 00e7 0E       		.uleb128 0xe
 3637 00e8 1C       		.uleb128 0x1c
 3638 00e9 0D       		.uleb128 0xd
 3639 00ea 00       		.byte	0
 3640 00eb 00       		.byte	0
 3641 00ec 15       		.uleb128 0x15
 3642 00ed 15       		.uleb128 0x15
 3643 00ee 01       		.byte	0x1
 3644 00ef 27       		.uleb128 0x27
 3645 00f0 19       		.uleb128 0x19
 3646 00f1 49       		.uleb128 0x49
 3647 00f2 13       		.uleb128 0x13
 3648 00f3 01       		.uleb128 0x1
 3649 00f4 13       		.uleb128 0x13
 3650 00f5 00       		.byte	0
 3651 00f6 00       		.byte	0
 3652 00f7 16       		.uleb128 0x16
 3653 00f8 01       		.uleb128 0x1
 3654 00f9 01       		.byte	0x1
 3655 00fa 49       		.uleb128 0x49
 3656 00fb 13       		.uleb128 0x13
 3657 00fc 01       		.uleb128 0x1
 3658 00fd 13       		.uleb128 0x13
 3659 00fe 00       		.byte	0
 3660 00ff 00       		.byte	0
 3661 0100 17       		.uleb128 0x17
 3662 0101 21       		.uleb128 0x21
 3663 0102 00       		.byte	0
 3664 0103 49       		.uleb128 0x49
 3665 0104 13       		.uleb128 0x13
 3666 0105 2F       		.uleb128 0x2f
 3667 0106 0B       		.uleb128 0xb
 3668 0107 00       		.byte	0
 3669 0108 00       		.byte	0
 3670 0109 18       		.uleb128 0x18
 3671 010a 04       		.uleb128 0x4
 3672 010b 01       		.byte	0x1
 3673 010c 03       		.uleb128 0x3
 3674 010d 0E       		.uleb128 0xe
 3675 010e 0B       		.uleb128 0xb
 3676 010f 0B       		.uleb128 0xb
 3677 0110 3A       		.uleb128 0x3a
 3678 0111 0B       		.uleb128 0xb
 3679 0112 3B       		.uleb128 0x3b
 3680 0113 0B       		.uleb128 0xb
 3681 0114 01       		.uleb128 0x1
 3682 0115 13       		.uleb128 0x13
 3683 0116 00       		.byte	0
 3684 0117 00       		.byte	0
 3685 0118 19       		.uleb128 0x19
 3686 0119 0D       		.uleb128 0xd
 3687 011a 00       		.byte	0
 3688 011b 03       		.uleb128 0x3
 3689 011c 08       		.uleb128 0x8
 3690 011d 3A       		.uleb128 0x3a
 3691 011e 0B       		.uleb128 0xb
ARM GAS  /tmp/ccKKV81m.s 			page 66


 3692 011f 3B       		.uleb128 0x3b
 3693 0120 0B       		.uleb128 0xb
 3694 0121 49       		.uleb128 0x49
 3695 0122 13       		.uleb128 0x13
 3696 0123 00       		.byte	0
 3697 0124 00       		.byte	0
 3698 0125 1A       		.uleb128 0x1a
 3699 0126 13       		.uleb128 0x13
 3700 0127 00       		.byte	0
 3701 0128 03       		.uleb128 0x3
 3702 0129 0E       		.uleb128 0xe
 3703 012a 3C       		.uleb128 0x3c
 3704 012b 19       		.uleb128 0x19
 3705 012c 00       		.byte	0
 3706 012d 00       		.byte	0
 3707 012e 1B       		.uleb128 0x1b
 3708 012f 26       		.uleb128 0x26
 3709 0130 00       		.byte	0
 3710 0131 00       		.byte	0
 3711 0132 00       		.byte	0
 3712 0133 1C       		.uleb128 0x1c
 3713 0134 2E       		.uleb128 0x2e
 3714 0135 01       		.byte	0x1
 3715 0136 03       		.uleb128 0x3
 3716 0137 0E       		.uleb128 0xe
 3717 0138 3A       		.uleb128 0x3a
 3718 0139 0B       		.uleb128 0xb
 3719 013a 3B       		.uleb128 0x3b
 3720 013b 0B       		.uleb128 0xb
 3721 013c 27       		.uleb128 0x27
 3722 013d 19       		.uleb128 0x19
 3723 013e 11       		.uleb128 0x11
 3724 013f 01       		.uleb128 0x1
 3725 0140 12       		.uleb128 0x12
 3726 0141 06       		.uleb128 0x6
 3727 0142 40       		.uleb128 0x40
 3728 0143 18       		.uleb128 0x18
 3729 0144 9642     		.uleb128 0x2116
 3730 0146 19       		.uleb128 0x19
 3731 0147 01       		.uleb128 0x1
 3732 0148 13       		.uleb128 0x13
 3733 0149 00       		.byte	0
 3734 014a 00       		.byte	0
 3735 014b 1D       		.uleb128 0x1d
 3736 014c 05       		.uleb128 0x5
 3737 014d 00       		.byte	0
 3738 014e 03       		.uleb128 0x3
 3739 014f 08       		.uleb128 0x8
 3740 0150 3A       		.uleb128 0x3a
 3741 0151 0B       		.uleb128 0xb
 3742 0152 3B       		.uleb128 0x3b
 3743 0153 0B       		.uleb128 0xb
 3744 0154 49       		.uleb128 0x49
 3745 0155 13       		.uleb128 0x13
 3746 0156 02       		.uleb128 0x2
 3747 0157 17       		.uleb128 0x17
 3748 0158 00       		.byte	0
ARM GAS  /tmp/ccKKV81m.s 			page 67


 3749 0159 00       		.byte	0
 3750 015a 1E       		.uleb128 0x1e
 3751 015b 34       		.uleb128 0x34
 3752 015c 00       		.byte	0
 3753 015d 03       		.uleb128 0x3
 3754 015e 08       		.uleb128 0x8
 3755 015f 3A       		.uleb128 0x3a
 3756 0160 0B       		.uleb128 0xb
 3757 0161 3B       		.uleb128 0x3b
 3758 0162 0B       		.uleb128 0xb
 3759 0163 49       		.uleb128 0x49
 3760 0164 13       		.uleb128 0x13
 3761 0165 02       		.uleb128 0x2
 3762 0166 18       		.uleb128 0x18
 3763 0167 00       		.byte	0
 3764 0168 00       		.byte	0
 3765 0169 1F       		.uleb128 0x1f
 3766 016a 898201   		.uleb128 0x4109
 3767 016d 01       		.byte	0x1
 3768 016e 11       		.uleb128 0x11
 3769 016f 01       		.uleb128 0x1
 3770 0170 31       		.uleb128 0x31
 3771 0171 13       		.uleb128 0x13
 3772 0172 01       		.uleb128 0x1
 3773 0173 13       		.uleb128 0x13
 3774 0174 00       		.byte	0
 3775 0175 00       		.byte	0
 3776 0176 20       		.uleb128 0x20
 3777 0177 8A8201   		.uleb128 0x410a
 3778 017a 00       		.byte	0
 3779 017b 02       		.uleb128 0x2
 3780 017c 18       		.uleb128 0x18
 3781 017d 9142     		.uleb128 0x2111
 3782 017f 18       		.uleb128 0x18
 3783 0180 00       		.byte	0
 3784 0181 00       		.byte	0
 3785 0182 21       		.uleb128 0x21
 3786 0183 898201   		.uleb128 0x4109
 3787 0186 00       		.byte	0
 3788 0187 11       		.uleb128 0x11
 3789 0188 01       		.uleb128 0x1
 3790 0189 31       		.uleb128 0x31
 3791 018a 13       		.uleb128 0x13
 3792 018b 00       		.byte	0
 3793 018c 00       		.byte	0
 3794 018d 22       		.uleb128 0x22
 3795 018e 2E       		.uleb128 0x2e
 3796 018f 01       		.byte	0x1
 3797 0190 03       		.uleb128 0x3
 3798 0191 0E       		.uleb128 0xe
 3799 0192 3A       		.uleb128 0x3a
 3800 0193 0B       		.uleb128 0xb
 3801 0194 3B       		.uleb128 0x3b
 3802 0195 05       		.uleb128 0x5
 3803 0196 27       		.uleb128 0x27
 3804 0197 19       		.uleb128 0x19
 3805 0198 11       		.uleb128 0x11
ARM GAS  /tmp/ccKKV81m.s 			page 68


 3806 0199 01       		.uleb128 0x1
 3807 019a 12       		.uleb128 0x12
 3808 019b 06       		.uleb128 0x6
 3809 019c 40       		.uleb128 0x40
 3810 019d 18       		.uleb128 0x18
 3811 019e 9742     		.uleb128 0x2117
 3812 01a0 19       		.uleb128 0x19
 3813 01a1 01       		.uleb128 0x1
 3814 01a2 13       		.uleb128 0x13
 3815 01a3 00       		.byte	0
 3816 01a4 00       		.byte	0
 3817 01a5 23       		.uleb128 0x23
 3818 01a6 05       		.uleb128 0x5
 3819 01a7 00       		.byte	0
 3820 01a8 03       		.uleb128 0x3
 3821 01a9 08       		.uleb128 0x8
 3822 01aa 3A       		.uleb128 0x3a
 3823 01ab 0B       		.uleb128 0xb
 3824 01ac 3B       		.uleb128 0x3b
 3825 01ad 05       		.uleb128 0x5
 3826 01ae 49       		.uleb128 0x49
 3827 01af 13       		.uleb128 0x13
 3828 01b0 02       		.uleb128 0x2
 3829 01b1 17       		.uleb128 0x17
 3830 01b2 00       		.byte	0
 3831 01b3 00       		.byte	0
 3832 01b4 24       		.uleb128 0x24
 3833 01b5 34       		.uleb128 0x34
 3834 01b6 00       		.byte	0
 3835 01b7 03       		.uleb128 0x3
 3836 01b8 08       		.uleb128 0x8
 3837 01b9 3A       		.uleb128 0x3a
 3838 01ba 0B       		.uleb128 0xb
 3839 01bb 3B       		.uleb128 0x3b
 3840 01bc 05       		.uleb128 0x5
 3841 01bd 49       		.uleb128 0x49
 3842 01be 13       		.uleb128 0x13
 3843 01bf 02       		.uleb128 0x2
 3844 01c0 17       		.uleb128 0x17
 3845 01c1 00       		.byte	0
 3846 01c2 00       		.byte	0
 3847 01c3 25       		.uleb128 0x25
 3848 01c4 898201   		.uleb128 0x4109
 3849 01c7 01       		.byte	0x1
 3850 01c8 11       		.uleb128 0x11
 3851 01c9 01       		.uleb128 0x1
 3852 01ca 9542     		.uleb128 0x2115
 3853 01cc 19       		.uleb128 0x19
 3854 01cd 31       		.uleb128 0x31
 3855 01ce 13       		.uleb128 0x13
 3856 01cf 00       		.byte	0
 3857 01d0 00       		.byte	0
 3858 01d1 26       		.uleb128 0x26
 3859 01d2 2E       		.uleb128 0x2e
 3860 01d3 01       		.byte	0x1
 3861 01d4 3F       		.uleb128 0x3f
 3862 01d5 19       		.uleb128 0x19
ARM GAS  /tmp/ccKKV81m.s 			page 69


 3863 01d6 03       		.uleb128 0x3
 3864 01d7 0E       		.uleb128 0xe
 3865 01d8 3A       		.uleb128 0x3a
 3866 01d9 0B       		.uleb128 0xb
 3867 01da 3B       		.uleb128 0x3b
 3868 01db 0B       		.uleb128 0xb
 3869 01dc 27       		.uleb128 0x27
 3870 01dd 19       		.uleb128 0x19
 3871 01de 49       		.uleb128 0x49
 3872 01df 13       		.uleb128 0x13
 3873 01e0 11       		.uleb128 0x11
 3874 01e1 01       		.uleb128 0x1
 3875 01e2 12       		.uleb128 0x12
 3876 01e3 06       		.uleb128 0x6
 3877 01e4 40       		.uleb128 0x40
 3878 01e5 18       		.uleb128 0x18
 3879 01e6 9742     		.uleb128 0x2117
 3880 01e8 19       		.uleb128 0x19
 3881 01e9 01       		.uleb128 0x1
 3882 01ea 13       		.uleb128 0x13
 3883 01eb 00       		.byte	0
 3884 01ec 00       		.byte	0
 3885 01ed 27       		.uleb128 0x27
 3886 01ee 34       		.uleb128 0x34
 3887 01ef 00       		.byte	0
 3888 01f0 03       		.uleb128 0x3
 3889 01f1 08       		.uleb128 0x8
 3890 01f2 3A       		.uleb128 0x3a
 3891 01f3 0B       		.uleb128 0xb
 3892 01f4 3B       		.uleb128 0x3b
 3893 01f5 0B       		.uleb128 0xb
 3894 01f6 49       		.uleb128 0x49
 3895 01f7 13       		.uleb128 0x13
 3896 01f8 02       		.uleb128 0x2
 3897 01f9 17       		.uleb128 0x17
 3898 01fa 00       		.byte	0
 3899 01fb 00       		.byte	0
 3900 01fc 28       		.uleb128 0x28
 3901 01fd 898201   		.uleb128 0x4109
 3902 0200 01       		.byte	0x1
 3903 0201 11       		.uleb128 0x11
 3904 0202 01       		.uleb128 0x1
 3905 0203 31       		.uleb128 0x31
 3906 0204 13       		.uleb128 0x13
 3907 0205 00       		.byte	0
 3908 0206 00       		.byte	0
 3909 0207 29       		.uleb128 0x29
 3910 0208 05       		.uleb128 0x5
 3911 0209 00       		.byte	0
 3912 020a 03       		.uleb128 0x3
 3913 020b 0E       		.uleb128 0xe
 3914 020c 3A       		.uleb128 0x3a
 3915 020d 0B       		.uleb128 0xb
 3916 020e 3B       		.uleb128 0x3b
 3917 020f 0B       		.uleb128 0xb
 3918 0210 49       		.uleb128 0x49
 3919 0211 13       		.uleb128 0x13
ARM GAS  /tmp/ccKKV81m.s 			page 70


 3920 0212 02       		.uleb128 0x2
 3921 0213 17       		.uleb128 0x17
 3922 0214 00       		.byte	0
 3923 0215 00       		.byte	0
 3924 0216 2A       		.uleb128 0x2a
 3925 0217 2E       		.uleb128 0x2e
 3926 0218 01       		.byte	0x1
 3927 0219 3F       		.uleb128 0x3f
 3928 021a 19       		.uleb128 0x19
 3929 021b 03       		.uleb128 0x3
 3930 021c 0E       		.uleb128 0xe
 3931 021d 3A       		.uleb128 0x3a
 3932 021e 0B       		.uleb128 0xb
 3933 021f 3B       		.uleb128 0x3b
 3934 0220 05       		.uleb128 0x5
 3935 0221 27       		.uleb128 0x27
 3936 0222 19       		.uleb128 0x19
 3937 0223 49       		.uleb128 0x49
 3938 0224 13       		.uleb128 0x13
 3939 0225 11       		.uleb128 0x11
 3940 0226 01       		.uleb128 0x1
 3941 0227 12       		.uleb128 0x12
 3942 0228 06       		.uleb128 0x6
 3943 0229 40       		.uleb128 0x40
 3944 022a 18       		.uleb128 0x18
 3945 022b 9742     		.uleb128 0x2117
 3946 022d 19       		.uleb128 0x19
 3947 022e 01       		.uleb128 0x1
 3948 022f 13       		.uleb128 0x13
 3949 0230 00       		.byte	0
 3950 0231 00       		.byte	0
 3951 0232 2B       		.uleb128 0x2b
 3952 0233 05       		.uleb128 0x5
 3953 0234 00       		.byte	0
 3954 0235 03       		.uleb128 0x3
 3955 0236 0E       		.uleb128 0xe
 3956 0237 3A       		.uleb128 0x3a
 3957 0238 0B       		.uleb128 0xb
 3958 0239 3B       		.uleb128 0x3b
 3959 023a 05       		.uleb128 0x5
 3960 023b 49       		.uleb128 0x49
 3961 023c 13       		.uleb128 0x13
 3962 023d 02       		.uleb128 0x2
 3963 023e 17       		.uleb128 0x17
 3964 023f 00       		.byte	0
 3965 0240 00       		.byte	0
 3966 0241 2C       		.uleb128 0x2c
 3967 0242 34       		.uleb128 0x34
 3968 0243 00       		.byte	0
 3969 0244 03       		.uleb128 0x3
 3970 0245 08       		.uleb128 0x8
 3971 0246 3A       		.uleb128 0x3a
 3972 0247 0B       		.uleb128 0xb
 3973 0248 3B       		.uleb128 0x3b
 3974 0249 05       		.uleb128 0x5
 3975 024a 49       		.uleb128 0x49
 3976 024b 13       		.uleb128 0x13
ARM GAS  /tmp/ccKKV81m.s 			page 71


 3977 024c 02       		.uleb128 0x2
 3978 024d 18       		.uleb128 0x18
 3979 024e 00       		.byte	0
 3980 024f 00       		.byte	0
 3981 0250 2D       		.uleb128 0x2d
 3982 0251 2E       		.uleb128 0x2e
 3983 0252 01       		.byte	0x1
 3984 0253 3F       		.uleb128 0x3f
 3985 0254 19       		.uleb128 0x19
 3986 0255 03       		.uleb128 0x3
 3987 0256 0E       		.uleb128 0xe
 3988 0257 3A       		.uleb128 0x3a
 3989 0258 0B       		.uleb128 0xb
 3990 0259 3B       		.uleb128 0x3b
 3991 025a 05       		.uleb128 0x5
 3992 025b 27       		.uleb128 0x27
 3993 025c 19       		.uleb128 0x19
 3994 025d 11       		.uleb128 0x11
 3995 025e 01       		.uleb128 0x1
 3996 025f 12       		.uleb128 0x12
 3997 0260 06       		.uleb128 0x6
 3998 0261 40       		.uleb128 0x40
 3999 0262 18       		.uleb128 0x18
 4000 0263 9742     		.uleb128 0x2117
 4001 0265 19       		.uleb128 0x19
 4002 0266 01       		.uleb128 0x1
 4003 0267 13       		.uleb128 0x13
 4004 0268 00       		.byte	0
 4005 0269 00       		.byte	0
 4006 026a 2E       		.uleb128 0x2e
 4007 026b 34       		.uleb128 0x34
 4008 026c 00       		.byte	0
 4009 026d 03       		.uleb128 0x3
 4010 026e 0E       		.uleb128 0xe
 4011 026f 3A       		.uleb128 0x3a
 4012 0270 0B       		.uleb128 0xb
 4013 0271 3B       		.uleb128 0x3b
 4014 0272 0B       		.uleb128 0xb
 4015 0273 49       		.uleb128 0x49
 4016 0274 13       		.uleb128 0x13
 4017 0275 02       		.uleb128 0x2
 4018 0276 18       		.uleb128 0x18
 4019 0277 00       		.byte	0
 4020 0278 00       		.byte	0
 4021 0279 2F       		.uleb128 0x2f
 4022 027a 2E       		.uleb128 0x2e
 4023 027b 01       		.byte	0x1
 4024 027c 3F       		.uleb128 0x3f
 4025 027d 19       		.uleb128 0x19
 4026 027e 03       		.uleb128 0x3
 4027 027f 0E       		.uleb128 0xe
 4028 0280 3A       		.uleb128 0x3a
 4029 0281 0B       		.uleb128 0xb
 4030 0282 3B       		.uleb128 0x3b
 4031 0283 0B       		.uleb128 0xb
 4032 0284 27       		.uleb128 0x27
 4033 0285 19       		.uleb128 0x19
ARM GAS  /tmp/ccKKV81m.s 			page 72


 4034 0286 3C       		.uleb128 0x3c
 4035 0287 19       		.uleb128 0x19
 4036 0288 01       		.uleb128 0x1
 4037 0289 13       		.uleb128 0x13
 4038 028a 00       		.byte	0
 4039 028b 00       		.byte	0
 4040 028c 30       		.uleb128 0x30
 4041 028d 2E       		.uleb128 0x2e
 4042 028e 01       		.byte	0x1
 4043 028f 3F       		.uleb128 0x3f
 4044 0290 19       		.uleb128 0x19
 4045 0291 03       		.uleb128 0x3
 4046 0292 0E       		.uleb128 0xe
 4047 0293 3A       		.uleb128 0x3a
 4048 0294 0B       		.uleb128 0xb
 4049 0295 3B       		.uleb128 0x3b
 4050 0296 0B       		.uleb128 0xb
 4051 0297 27       		.uleb128 0x27
 4052 0298 19       		.uleb128 0x19
 4053 0299 49       		.uleb128 0x49
 4054 029a 13       		.uleb128 0x13
 4055 029b 3C       		.uleb128 0x3c
 4056 029c 19       		.uleb128 0x19
 4057 029d 01       		.uleb128 0x1
 4058 029e 13       		.uleb128 0x13
 4059 029f 00       		.byte	0
 4060 02a0 00       		.byte	0
 4061 02a1 31       		.uleb128 0x31
 4062 02a2 2E       		.uleb128 0x2e
 4063 02a3 00       		.byte	0
 4064 02a4 3F       		.uleb128 0x3f
 4065 02a5 19       		.uleb128 0x19
 4066 02a6 03       		.uleb128 0x3
 4067 02a7 0E       		.uleb128 0xe
 4068 02a8 3A       		.uleb128 0x3a
 4069 02a9 0B       		.uleb128 0xb
 4070 02aa 3B       		.uleb128 0x3b
 4071 02ab 05       		.uleb128 0x5
 4072 02ac 27       		.uleb128 0x27
 4073 02ad 19       		.uleb128 0x19
 4074 02ae 3C       		.uleb128 0x3c
 4075 02af 19       		.uleb128 0x19
 4076 02b0 00       		.byte	0
 4077 02b1 00       		.byte	0
 4078 02b2 32       		.uleb128 0x32
 4079 02b3 2E       		.uleb128 0x2e
 4080 02b4 00       		.byte	0
 4081 02b5 3F       		.uleb128 0x3f
 4082 02b6 19       		.uleb128 0x19
 4083 02b7 03       		.uleb128 0x3
 4084 02b8 0E       		.uleb128 0xe
 4085 02b9 3A       		.uleb128 0x3a
 4086 02ba 0B       		.uleb128 0xb
 4087 02bb 3B       		.uleb128 0x3b
 4088 02bc 0B       		.uleb128 0xb
 4089 02bd 27       		.uleb128 0x27
 4090 02be 19       		.uleb128 0x19
ARM GAS  /tmp/ccKKV81m.s 			page 73


 4091 02bf 3C       		.uleb128 0x3c
 4092 02c0 19       		.uleb128 0x19
 4093 02c1 00       		.byte	0
 4094 02c2 00       		.byte	0
 4095 02c3 33       		.uleb128 0x33
 4096 02c4 2E       		.uleb128 0x2e
 4097 02c5 01       		.byte	0x1
 4098 02c6 3F       		.uleb128 0x3f
 4099 02c7 19       		.uleb128 0x19
 4100 02c8 03       		.uleb128 0x3
 4101 02c9 0E       		.uleb128 0xe
 4102 02ca 3A       		.uleb128 0x3a
 4103 02cb 0B       		.uleb128 0xb
 4104 02cc 3B       		.uleb128 0x3b
 4105 02cd 0B       		.uleb128 0xb
 4106 02ce 27       		.uleb128 0x27
 4107 02cf 19       		.uleb128 0x19
 4108 02d0 49       		.uleb128 0x49
 4109 02d1 13       		.uleb128 0x13
 4110 02d2 3C       		.uleb128 0x3c
 4111 02d3 19       		.uleb128 0x19
 4112 02d4 00       		.byte	0
 4113 02d5 00       		.byte	0
 4114 02d6 00       		.byte	0
 4115              		.section	.debug_loc,"",%progbits
 4116              	.Ldebug_loc0:
 4117              	.LLST0:
 4118 0000 00000000 		.4byte	.LVL0
 4119 0004 1A000000 		.4byte	.LVL1
 4120 0008 0100     		.2byte	0x1
 4121 000a 50       		.byte	0x50
 4122 000b 1A000000 		.4byte	.LVL1
 4123 000f AC000000 		.4byte	.LFE7
 4124 0013 0400     		.2byte	0x4
 4125 0015 F3       		.byte	0xf3
 4126 0016 01       		.uleb128 0x1
 4127 0017 50       		.byte	0x50
 4128 0018 9F       		.byte	0x9f
 4129 0019 00000000 		.4byte	0
 4130 001d 00000000 		.4byte	0
 4131              	.LLST1:
 4132 0021 00000000 		.4byte	.LVL16
 4133 0025 03000000 		.4byte	.LVL17-1
 4134 0029 0100     		.2byte	0x1
 4135 002b 50       		.byte	0x50
 4136 002c 03000000 		.4byte	.LVL17-1
 4137 0030 04000000 		.4byte	.LFE17
 4138 0034 0400     		.2byte	0x4
 4139 0036 F3       		.byte	0xf3
 4140 0037 01       		.uleb128 0x1
 4141 0038 50       		.byte	0x50
 4142 0039 9F       		.byte	0x9f
 4143 003a 00000000 		.4byte	0
 4144 003e 00000000 		.4byte	0
 4145              	.LLST3:
 4146 0042 00000000 		.4byte	.LVL18
 4147 0046 08000000 		.4byte	.LVL19
ARM GAS  /tmp/ccKKV81m.s 			page 74


 4148 004a 0100     		.2byte	0x1
 4149 004c 50       		.byte	0x50
 4150 004d 08000000 		.4byte	.LVL19
 4151 0051 4E000000 		.4byte	.LFE8
 4152 0055 0100     		.2byte	0x1
 4153 0057 56       		.byte	0x56
 4154 0058 00000000 		.4byte	0
 4155 005c 00000000 		.4byte	0
 4156              	.LLST4:
 4157 0060 00000000 		.4byte	.LVL18
 4158 0064 11000000 		.4byte	.LVL20-1
 4159 0068 0100     		.2byte	0x1
 4160 006a 51       		.byte	0x51
 4161 006b 11000000 		.4byte	.LVL20-1
 4162 006f 4E000000 		.4byte	.LFE8
 4163 0073 0100     		.2byte	0x1
 4164 0075 55       		.byte	0x55
 4165 0076 00000000 		.4byte	0
 4166 007a 00000000 		.4byte	0
 4167              	.LLST5:
 4168 007e 1A000000 		.4byte	.LVL21
 4169 0082 24000000 		.4byte	.LVL22
 4170 0086 0100     		.2byte	0x1
 4171 0088 50       		.byte	0x50
 4172 0089 24000000 		.4byte	.LVL22
 4173 008d 36000000 		.4byte	.LVL24
 4174 0091 0100     		.2byte	0x1
 4175 0093 54       		.byte	0x54
 4176 0094 3E000000 		.4byte	.LVL26
 4177 0098 40000000 		.4byte	.LVL27
 4178 009c 0100     		.2byte	0x1
 4179 009e 50       		.byte	0x50
 4180 009f 40000000 		.4byte	.LVL27
 4181 00a3 4E000000 		.4byte	.LFE8
 4182 00a7 0100     		.2byte	0x1
 4183 00a9 54       		.byte	0x54
 4184 00aa 00000000 		.4byte	0
 4185 00ae 00000000 		.4byte	0
 4186              	.LLST6:
 4187 00b2 00000000 		.4byte	.LVL29
 4188 00b6 08000000 		.4byte	.LVL30
 4189 00ba 0100     		.2byte	0x1
 4190 00bc 50       		.byte	0x50
 4191 00bd 08000000 		.4byte	.LVL30
 4192 00c1 62000000 		.4byte	.LFE9
 4193 00c5 0100     		.2byte	0x1
 4194 00c7 57       		.byte	0x57
 4195 00c8 00000000 		.4byte	0
 4196 00cc 00000000 		.4byte	0
 4197              	.LLST7:
 4198 00d0 00000000 		.4byte	.LVL29
 4199 00d4 13000000 		.4byte	.LVL31-1
 4200 00d8 0100     		.2byte	0x1
 4201 00da 51       		.byte	0x51
 4202 00db 13000000 		.4byte	.LVL31-1
 4203 00df 62000000 		.4byte	.LFE9
 4204 00e3 0100     		.2byte	0x1
ARM GAS  /tmp/ccKKV81m.s 			page 75


 4205 00e5 56       		.byte	0x56
 4206 00e6 00000000 		.4byte	0
 4207 00ea 00000000 		.4byte	0
 4208              	.LLST8:
 4209 00ee 00000000 		.4byte	.LVL29
 4210 00f2 13000000 		.4byte	.LVL31-1
 4211 00f6 0100     		.2byte	0x1
 4212 00f8 52       		.byte	0x52
 4213 00f9 13000000 		.4byte	.LVL31-1
 4214 00fd 62000000 		.4byte	.LFE9
 4215 0101 0400     		.2byte	0x4
 4216 0103 F3       		.byte	0xf3
 4217 0104 01       		.uleb128 0x1
 4218 0105 52       		.byte	0x52
 4219 0106 9F       		.byte	0x9f
 4220 0107 00000000 		.4byte	0
 4221 010b 00000000 		.4byte	0
 4222              	.LLST9:
 4223 010f 1C000000 		.4byte	.LVL32
 4224 0113 2C000000 		.4byte	.LVL33
 4225 0117 0100     		.2byte	0x1
 4226 0119 50       		.byte	0x50
 4227 011a 2C000000 		.4byte	.LVL33
 4228 011e 3A000000 		.4byte	.LVL35
 4229 0122 0100     		.2byte	0x1
 4230 0124 54       		.byte	0x54
 4231 0125 3E000000 		.4byte	.LVL36
 4232 0129 4E000000 		.4byte	.LVL38
 4233 012d 0100     		.2byte	0x1
 4234 012f 54       		.byte	0x54
 4235 0130 52000000 		.4byte	.LVL39
 4236 0134 5E000000 		.4byte	.LVL41
 4237 0138 0100     		.2byte	0x1
 4238 013a 54       		.byte	0x54
 4239 013b 5E000000 		.4byte	.LVL41
 4240 013f 60000000 		.4byte	.LVL42
 4241 0143 0100     		.2byte	0x1
 4242 0145 50       		.byte	0x50
 4243 0146 60000000 		.4byte	.LVL42
 4244 014a 62000000 		.4byte	.LFE9
 4245 014e 0100     		.2byte	0x1
 4246 0150 54       		.byte	0x54
 4247 0151 00000000 		.4byte	0
 4248 0155 00000000 		.4byte	0
 4249              	.LLST10:
 4250 0159 00000000 		.4byte	.LVL43
 4251 015d 08000000 		.4byte	.LVL44
 4252 0161 0100     		.2byte	0x1
 4253 0163 50       		.byte	0x50
 4254 0164 08000000 		.4byte	.LVL44
 4255 0168 44000000 		.4byte	.LFE10
 4256 016c 0100     		.2byte	0x1
 4257 016e 56       		.byte	0x56
 4258 016f 00000000 		.4byte	0
 4259 0173 00000000 		.4byte	0
 4260              	.LLST11:
 4261 0177 00000000 		.4byte	.LVL43
ARM GAS  /tmp/ccKKV81m.s 			page 76


 4262 017b 13000000 		.4byte	.LVL45-1
 4263 017f 0100     		.2byte	0x1
 4264 0181 51       		.byte	0x51
 4265 0182 13000000 		.4byte	.LVL45-1
 4266 0186 44000000 		.4byte	.LFE10
 4267 018a 0100     		.2byte	0x1
 4268 018c 55       		.byte	0x55
 4269 018d 00000000 		.4byte	0
 4270 0191 00000000 		.4byte	0
 4271              	.LLST12:
 4272 0195 00000000 		.4byte	.LVL43
 4273 0199 13000000 		.4byte	.LVL45-1
 4274 019d 0100     		.2byte	0x1
 4275 019f 52       		.byte	0x52
 4276 01a0 13000000 		.4byte	.LVL45-1
 4277 01a4 44000000 		.4byte	.LFE10
 4278 01a8 0100     		.2byte	0x1
 4279 01aa 54       		.byte	0x54
 4280 01ab 00000000 		.4byte	0
 4281 01af 00000000 		.4byte	0
 4282              	.LLST13:
 4283 01b3 1C000000 		.4byte	.LVL46
 4284 01b7 26000000 		.4byte	.LVL47
 4285 01bb 0100     		.2byte	0x1
 4286 01bd 50       		.byte	0x50
 4287 01be 26000000 		.4byte	.LVL47
 4288 01c2 35000000 		.4byte	.LVL48-1
 4289 01c6 0100     		.2byte	0x1
 4290 01c8 51       		.byte	0x51
 4291 01c9 40000000 		.4byte	.LVL50
 4292 01cd 42000000 		.4byte	.LVL51
 4293 01d1 0100     		.2byte	0x1
 4294 01d3 50       		.byte	0x50
 4295 01d4 42000000 		.4byte	.LVL51
 4296 01d8 44000000 		.4byte	.LFE10
 4297 01dc 0100     		.2byte	0x1
 4298 01de 51       		.byte	0x51
 4299 01df 00000000 		.4byte	0
 4300 01e3 00000000 		.4byte	0
 4301              	.LLST14:
 4302 01e7 00000000 		.4byte	.LVL52
 4303 01eb 08000000 		.4byte	.LVL53
 4304 01ef 0100     		.2byte	0x1
 4305 01f1 50       		.byte	0x50
 4306 01f2 08000000 		.4byte	.LVL53
 4307 01f6 40000000 		.4byte	.LFE11
 4308 01fa 0100     		.2byte	0x1
 4309 01fc 55       		.byte	0x55
 4310 01fd 00000000 		.4byte	0
 4311 0201 00000000 		.4byte	0
 4312              	.LLST15:
 4313 0205 00000000 		.4byte	.LVL52
 4314 0209 11000000 		.4byte	.LVL54-1
 4315 020d 0100     		.2byte	0x1
 4316 020f 51       		.byte	0x51
 4317 0210 11000000 		.4byte	.LVL54-1
 4318 0214 40000000 		.4byte	.LFE11
ARM GAS  /tmp/ccKKV81m.s 			page 77


 4319 0218 0100     		.2byte	0x1
 4320 021a 54       		.byte	0x54
 4321 021b 00000000 		.4byte	0
 4322 021f 00000000 		.4byte	0
 4323              	.LLST16:
 4324 0223 1A000000 		.4byte	.LVL55
 4325 0227 24000000 		.4byte	.LVL56
 4326 022b 0100     		.2byte	0x1
 4327 022d 50       		.byte	0x50
 4328 022e 24000000 		.4byte	.LVL56
 4329 0232 31000000 		.4byte	.LVL57-1
 4330 0236 0100     		.2byte	0x1
 4331 0238 51       		.byte	0x51
 4332 0239 3C000000 		.4byte	.LVL59
 4333 023d 3E000000 		.4byte	.LVL60
 4334 0241 0100     		.2byte	0x1
 4335 0243 50       		.byte	0x50
 4336 0244 3E000000 		.4byte	.LVL60
 4337 0248 40000000 		.4byte	.LFE11
 4338 024c 0100     		.2byte	0x1
 4339 024e 51       		.byte	0x51
 4340 024f 00000000 		.4byte	0
 4341 0253 00000000 		.4byte	0
 4342              	.LLST17:
 4343 0257 00000000 		.4byte	.LVL61
 4344 025b 08000000 		.4byte	.LVL62
 4345 025f 0100     		.2byte	0x1
 4346 0261 50       		.byte	0x50
 4347 0262 08000000 		.4byte	.LVL62
 4348 0266 40000000 		.4byte	.LFE12
 4349 026a 0100     		.2byte	0x1
 4350 026c 54       		.byte	0x54
 4351 026d 00000000 		.4byte	0
 4352 0271 00000000 		.4byte	0
 4353              	.LLST18:
 4354 0275 00000000 		.4byte	.LVL67
 4355 0279 06000000 		.4byte	.LVL68
 4356 027d 0100     		.2byte	0x1
 4357 027f 50       		.byte	0x50
 4358 0280 06000000 		.4byte	.LVL68
 4359 0284 18000000 		.4byte	.LFE13
 4360 0288 0100     		.2byte	0x1
 4361 028a 54       		.byte	0x54
 4362 028b 00000000 		.4byte	0
 4363 028f 00000000 		.4byte	0
 4364              	.LLST19:
 4365 0293 00000000 		.4byte	.LVL67
 4366 0297 0B000000 		.4byte	.LVL69-1
 4367 029b 0100     		.2byte	0x1
 4368 029d 51       		.byte	0x51
 4369 029e 0B000000 		.4byte	.LVL69-1
 4370 02a2 18000000 		.4byte	.LFE13
 4371 02a6 0100     		.2byte	0x1
 4372 02a8 55       		.byte	0x55
 4373 02a9 00000000 		.4byte	0
 4374 02ad 00000000 		.4byte	0
 4375              	.LLST20:
ARM GAS  /tmp/ccKKV81m.s 			page 78


 4376 02b1 00000000 		.4byte	.LVL70
 4377 02b5 04000000 		.4byte	.LVL71
 4378 02b9 0100     		.2byte	0x1
 4379 02bb 50       		.byte	0x50
 4380 02bc 04000000 		.4byte	.LVL71
 4381 02c0 07000000 		.4byte	.LVL72-1
 4382 02c4 0100     		.2byte	0x1
 4383 02c6 51       		.byte	0x51
 4384 02c7 07000000 		.4byte	.LVL72-1
 4385 02cb 08000000 		.4byte	.LFE14
 4386 02cf 0400     		.2byte	0x4
 4387 02d1 F3       		.byte	0xf3
 4388 02d2 01       		.uleb128 0x1
 4389 02d3 50       		.byte	0x50
 4390 02d4 9F       		.byte	0x9f
 4391 02d5 00000000 		.4byte	0
 4392 02d9 00000000 		.4byte	0
 4393              	.LLST21:
 4394 02dd 00000000 		.4byte	.LVL73
 4395 02e1 08000000 		.4byte	.LVL74
 4396 02e5 0100     		.2byte	0x1
 4397 02e7 50       		.byte	0x50
 4398 02e8 08000000 		.4byte	.LVL74
 4399 02ec 20000000 		.4byte	.LVL76
 4400 02f0 0100     		.2byte	0x1
 4401 02f2 54       		.byte	0x54
 4402 02f3 20000000 		.4byte	.LVL76
 4403 02f7 23000000 		.4byte	.LVL77-1
 4404 02fb 0100     		.2byte	0x1
 4405 02fd 51       		.byte	0x51
 4406 02fe 23000000 		.4byte	.LVL77-1
 4407 0302 24000000 		.4byte	.LVL77
 4408 0306 0400     		.2byte	0x4
 4409 0308 F3       		.byte	0xf3
 4410 0309 01       		.uleb128 0x1
 4411 030a 50       		.byte	0x50
 4412 030b 9F       		.byte	0x9f
 4413 030c 24000000 		.4byte	.LVL77
 4414 0310 2A000000 		.4byte	.LFE15
 4415 0314 0100     		.2byte	0x1
 4416 0316 54       		.byte	0x54
 4417 0317 00000000 		.4byte	0
 4418 031b 00000000 		.4byte	0
 4419              	.LLST22:
 4420 031f 00000000 		.4byte	.LVL78
 4421 0323 0B000000 		.4byte	.LVL79-1
 4422 0327 0100     		.2byte	0x1
 4423 0329 50       		.byte	0x50
 4424 032a 0B000000 		.4byte	.LVL79-1
 4425 032e 56000000 		.4byte	.LFE16
 4426 0332 0100     		.2byte	0x1
 4427 0334 55       		.byte	0x55
 4428 0335 00000000 		.4byte	0
 4429 0339 00000000 		.4byte	0
 4430              	.LLST23:
 4431 033d 00000000 		.4byte	.LVL78
 4432 0341 0B000000 		.4byte	.LVL79-1
ARM GAS  /tmp/ccKKV81m.s 			page 79


 4433 0345 0100     		.2byte	0x1
 4434 0347 51       		.byte	0x51
 4435 0348 0B000000 		.4byte	.LVL79-1
 4436 034c 56000000 		.4byte	.LFE16
 4437 0350 0100     		.2byte	0x1
 4438 0352 54       		.byte	0x54
 4439 0353 00000000 		.4byte	0
 4440 0357 00000000 		.4byte	0
 4441              	.LLST24:
 4442 035b 00000000 		.4byte	.LVL83
 4443 035f 06000000 		.4byte	.LVL84
 4444 0363 0100     		.2byte	0x1
 4445 0365 50       		.byte	0x50
 4446 0366 06000000 		.4byte	.LVL84
 4447 036a 0F000000 		.4byte	.LVL85-1
 4448 036e 0100     		.2byte	0x1
 4449 0370 51       		.byte	0x51
 4450 0371 0F000000 		.4byte	.LVL85-1
 4451 0375 10000000 		.4byte	.LFE18
 4452 0379 0400     		.2byte	0x4
 4453 037b F3       		.byte	0xf3
 4454 037c 01       		.uleb128 0x1
 4455 037d 50       		.byte	0x50
 4456 037e 9F       		.byte	0x9f
 4457 037f 00000000 		.4byte	0
 4458 0383 00000000 		.4byte	0
 4459              	.LLST25:
 4460 0387 00000000 		.4byte	.LVL86
 4461 038b 06000000 		.4byte	.LVL87
 4462 038f 0100     		.2byte	0x1
 4463 0391 50       		.byte	0x50
 4464 0392 06000000 		.4byte	.LVL87
 4465 0396 0F000000 		.4byte	.LVL88-1
 4466 039a 0100     		.2byte	0x1
 4467 039c 51       		.byte	0x51
 4468 039d 0F000000 		.4byte	.LVL88-1
 4469 03a1 10000000 		.4byte	.LFE19
 4470 03a5 0400     		.2byte	0x4
 4471 03a7 F3       		.byte	0xf3
 4472 03a8 01       		.uleb128 0x1
 4473 03a9 50       		.byte	0x50
 4474 03aa 9F       		.byte	0x9f
 4475 03ab 00000000 		.4byte	0
 4476 03af 00000000 		.4byte	0
 4477              		.section	.debug_aranges,"",%progbits
 4478 0000 7C000000 		.4byte	0x7c
 4479 0004 0200     		.2byte	0x2
 4480 0006 00000000 		.4byte	.Ldebug_info0
 4481 000a 04       		.byte	0x4
 4482 000b 00       		.byte	0
 4483 000c 0000     		.2byte	0
 4484 000e 0000     		.2byte	0
 4485 0010 00000000 		.4byte	.LFB7
 4486 0014 AC000000 		.4byte	.LFE7-.LFB7
 4487 0018 00000000 		.4byte	.LFB17
 4488 001c 04000000 		.4byte	.LFE17-.LFB17
 4489 0020 00000000 		.4byte	.LFB8
ARM GAS  /tmp/ccKKV81m.s 			page 80


 4490 0024 4E000000 		.4byte	.LFE8-.LFB8
 4491 0028 00000000 		.4byte	.LFB9
 4492 002c 62000000 		.4byte	.LFE9-.LFB9
 4493 0030 00000000 		.4byte	.LFB10
 4494 0034 44000000 		.4byte	.LFE10-.LFB10
 4495 0038 00000000 		.4byte	.LFB11
 4496 003c 40000000 		.4byte	.LFE11-.LFB11
 4497 0040 00000000 		.4byte	.LFB12
 4498 0044 40000000 		.4byte	.LFE12-.LFB12
 4499 0048 00000000 		.4byte	.LFB13
 4500 004c 18000000 		.4byte	.LFE13-.LFB13
 4501 0050 00000000 		.4byte	.LFB14
 4502 0054 08000000 		.4byte	.LFE14-.LFB14
 4503 0058 00000000 		.4byte	.LFB15
 4504 005c 2A000000 		.4byte	.LFE15-.LFB15
 4505 0060 00000000 		.4byte	.LFB16
 4506 0064 56000000 		.4byte	.LFE16-.LFB16
 4507 0068 00000000 		.4byte	.LFB18
 4508 006c 10000000 		.4byte	.LFE18-.LFB18
 4509 0070 00000000 		.4byte	.LFB19
 4510 0074 10000000 		.4byte	.LFE19-.LFB19
 4511 0078 00000000 		.4byte	0
 4512 007c 00000000 		.4byte	0
 4513              		.section	.debug_ranges,"",%progbits
 4514              	.Ldebug_ranges0:
 4515 0000 00000000 		.4byte	.LFB7
 4516 0004 AC000000 		.4byte	.LFE7
 4517 0008 00000000 		.4byte	.LFB17
 4518 000c 04000000 		.4byte	.LFE17
 4519 0010 00000000 		.4byte	.LFB8
 4520 0014 4E000000 		.4byte	.LFE8
 4521 0018 00000000 		.4byte	.LFB9
 4522 001c 62000000 		.4byte	.LFE9
 4523 0020 00000000 		.4byte	.LFB10
 4524 0024 44000000 		.4byte	.LFE10
 4525 0028 00000000 		.4byte	.LFB11
 4526 002c 40000000 		.4byte	.LFE11
 4527 0030 00000000 		.4byte	.LFB12
 4528 0034 40000000 		.4byte	.LFE12
 4529 0038 00000000 		.4byte	.LFB13
 4530 003c 18000000 		.4byte	.LFE13
 4531 0040 00000000 		.4byte	.LFB14
 4532 0044 08000000 		.4byte	.LFE14
 4533 0048 00000000 		.4byte	.LFB15
 4534 004c 2A000000 		.4byte	.LFE15
 4535 0050 00000000 		.4byte	.LFB16
 4536 0054 56000000 		.4byte	.LFE16
 4537 0058 00000000 		.4byte	.LFB18
 4538 005c 10000000 		.4byte	.LFE18
 4539 0060 00000000 		.4byte	.LFB19
 4540 0064 10000000 		.4byte	.LFE19
 4541 0068 00000000 		.4byte	0
 4542 006c 00000000 		.4byte	0
 4543              		.section	.debug_line,"",%progbits
 4544              	.Ldebug_line0:
 4545 0000 18040000 		.section	.debug_str,"MS",%progbits,1
 4545      02007E02 
ARM GAS  /tmp/ccKKV81m.s 			page 81


 4545      00000201 
 4545      FB0E0D00 
 4545      01010101 
 4546              	.LASF51:
 4547 0000 54687265 		.ascii	"ThreadsList\000"
 4547      6164734C 
 4547      69737400 
 4548              	.LASF43:
 4549 000c 705F7761 		.ascii	"p_waiting\000"
 4549      6974696E 
 4549      6700
 4550              	.LASF157:
 4551 0016 7564705F 		.ascii	"udp_pcb\000"
 4551      70636200 
 4552              	.LASF81:
 4553 001e 7379735F 		.ascii	"sys_mbox_t\000"
 4553      6D626F78 
 4553      5F7400
 4554              	.LASF87:
 4555 0029 4D454D50 		.ascii	"MEMP_TCP_PCB_LISTEN\000"
 4555      5F544350 
 4555      5F504342 
 4555      5F4C4953 
 4555      54454E00 
 4556              	.LASF42:
 4557 003d 705F7469 		.ascii	"p_time\000"
 4557      6D6500
 4558              	.LASF155:
 4559 0044 736F5F6F 		.ascii	"so_options\000"
 4559      7074696F 
 4559      6E7300
 4560              	.LASF219:
 4561 004f 2F686F6D 		.ascii	"/home/caroline/Documents/PAF/ChibiOS_2.6.4/demos/AR"
 4561      652F6361 
 4561      726F6C69 
 4561      6E652F44 
 4561      6F63756D 
 4562 0082 4D434D34 		.ascii	"MCM4-STM32F407-LWIP\000"
 4562      2D53544D 
 4562      33324634 
 4562      30372D4C 
 4562      57495000 
 4563              	.LASF33:
 4564 0096 705F7072 		.ascii	"p_prio\000"
 4564      696F00
 4565              	.LASF169:
 4566 009d 7379735F 		.ascii	"sys_timeout_handler\000"
 4566      74696D65 
 4566      6F75745F 
 4566      68616E64 
 4566      6C657200 
 4567              	.LASF192:
 4568 00b1 74637069 		.ascii	"tcpip_trycallback\000"
 4568      705F7472 
 4568      7963616C 
 4568      6C626163 
 4568      6B00
ARM GAS  /tmp/ccKKV81m.s 			page 82


 4569              	.LASF105:
 4570 00c3 666C6167 		.ascii	"flags\000"
 4570      7300
 4571              	.LASF28:
 4572 00c9 73797374 		.ascii	"systime_t\000"
 4572      696D655F 
 4572      7400
 4573              	.LASF61:
 4574 00d3 6D5F6F77 		.ascii	"m_owner\000"
 4574      6E657200 
 4575              	.LASF57:
 4576 00db 735F7175 		.ascii	"s_queue\000"
 4576      65756500 
 4577              	.LASF146:
 4578 00e3 72656376 		.ascii	"recvmbox\000"
 4578      6D626F78 
 4578      00
 4579              	.LASF158:
 4580 00ec 7261775F 		.ascii	"raw_pcb\000"
 4580      70636200 
 4581              	.LASF44:
 4582 00f4 705F6D73 		.ascii	"p_msgqueue\000"
 4582      67717565 
 4582      756500
 4583              	.LASF0:
 4584 00ff 756E7369 		.ascii	"unsigned int\000"
 4584      676E6564 
 4584      20696E74 
 4584      00
 4585              	.LASF132:
 4586 010c 4E455443 		.ascii	"NETCONN_WRITE\000"
 4586      4F4E4E5F 
 4586      57524954 
 4586      4500
 4587              	.LASF101:
 4588 011a 6E657874 		.ascii	"next\000"
 4588      00
 4589              	.LASF203:
 4590 011f 7379735F 		.ascii	"sys_untimeout\000"
 4590      756E7469 
 4590      6D656F75 
 4590      7400
 4591              	.LASF127:
 4592 012d 4E455443 		.ascii	"NETCONN_UDPNOCHKSUM\000"
 4592      4F4E4E5F 
 4592      5544504E 
 4592      4F43484B 
 4592      53554D00 
 4593              	.LASF79:
 4594 0141 6572725F 		.ascii	"err_t\000"
 4594      7400
 4595              	.LASF163:
 4596 0147 6C6F6361 		.ascii	"local\000"
 4596      6C00
 4597              	.LASF113:
 4598 014d 6C696E6B 		.ascii	"linkoutput\000"
 4598      6F757470 
ARM GAS  /tmp/ccKKV81m.s 			page 83


 4598      757400
 4599              	.LASF9:
 4600 0158 5F5F696E 		.ascii	"__int32_t\000"
 4600      7433325F 
 4600      7400
 4601              	.LASF77:
 4602 0162 7531365F 		.ascii	"u16_t\000"
 4602      7400
 4603              	.LASF195:
 4604 0168 696E6974 		.ascii	"initfunc\000"
 4604      66756E63 
 4604      00
 4605              	.LASF72:
 4606 0171 77746F62 		.ascii	"wtobjp\000"
 4606      6A7000
 4607              	.LASF73:
 4608 0178 65776D61 		.ascii	"ewmask\000"
 4608      736B00
 4609              	.LASF119:
 4610 017f 6E657469 		.ascii	"netif_output_fn\000"
 4610      665F6F75 
 4610      74707574 
 4610      5F666E00 
 4611              	.LASF69:
 4612 018f 4D61696C 		.ascii	"Mailbox\000"
 4612      626F7800 
 4613              	.LASF130:
 4614 0197 6E657463 		.ascii	"netconn_state\000"
 4614      6F6E6E5F 
 4614      73746174 
 4614      6500
 4615              	.LASF58:
 4616 01a5 735F636E 		.ascii	"s_cnt\000"
 4616      7400
 4617              	.LASF186:
 4618 01ab 626C6F63 		.ascii	"block\000"
 4618      6B00
 4619              	.LASF139:
 4620 01b1 4E455443 		.ascii	"NETCONN_EVT_SENDPLUS\000"
 4620      4F4E4E5F 
 4620      4556545F 
 4620      53454E44 
 4620      504C5553 
 4621              	.LASF118:
 4622 01c6 6E657469 		.ascii	"netif_input_fn\000"
 4622      665F696E 
 4622      7075745F 
 4622      666E00
 4623              	.LASF19:
 4624 01d5 75696E74 		.ascii	"uint32_t\000"
 4624      33325F74 
 4624      00
 4625              	.LASF15:
 4626 01de 696E7438 		.ascii	"int8_t\000"
 4626      5F7400
 4627              	.LASF27:
 4628 01e5 6576656E 		.ascii	"eventmask_t\000"
ARM GAS  /tmp/ccKKV81m.s 			page 84


 4628      746D6173 
 4628      6B5F7400 
 4629              	.LASF93:
 4630 01f1 4D454D50 		.ascii	"MEMP_TCPIP_MSG_API\000"
 4630      5F544350 
 4630      49505F4D 
 4630      53475F41 
 4630      504900
 4631              	.LASF141:
 4632 0204 4E455443 		.ascii	"NETCONN_EVT_ERROR\000"
 4632      4F4E4E5F 
 4632      4556545F 
 4632      4552524F 
 4632      5200
 4633              	.LASF174:
 4634 0216 54435049 		.ascii	"TCPIP_MSG_INPKT\000"
 4634      505F4D53 
 4634      475F494E 
 4634      504B5400 
 4635              	.LASF25:
 4636 0226 74707269 		.ascii	"tprio_t\000"
 4636      6F5F7400 
 4637              	.LASF189:
 4638 022e 74637069 		.ascii	"tcpip_apimsg\000"
 4638      705F6170 
 4638      696D7367 
 4638      00
 4639              	.LASF82:
 4640 023b 7379735F 		.ascii	"sys_thread_t\000"
 4640      74687265 
 4640      61645F74 
 4640      00
 4641              	.LASF116:
 4642 0248 68776164 		.ascii	"hwaddr\000"
 4642      647200
 4643              	.LASF14:
 4644 024f 6C6F6E67 		.ascii	"long long unsigned int\000"
 4644      206C6F6E 
 4644      6720756E 
 4644      7369676E 
 4644      65642069 
 4645              	.LASF123:
 4646 0266 4E455443 		.ascii	"NETCONN_INVALID\000"
 4646      4F4E4E5F 
 4646      494E5641 
 4646      4C494400 
 4647              	.LASF7:
 4648 0276 5F5F7569 		.ascii	"__uint16_t\000"
 4648      6E743136 
 4648      5F7400
 4649              	.LASF29:
 4650 0281 636E745F 		.ascii	"cnt_t\000"
 4650      7400
 4651              	.LASF115:
 4652 0287 68776164 		.ascii	"hwaddr_len\000"
 4652      64725F6C 
 4652      656E00
ARM GAS  /tmp/ccKKV81m.s 			page 85


 4653              	.LASF83:
 4654 0292 6C776970 		.ascii	"lwip_thread_fn\000"
 4654      5F746872 
 4654      6561645F 
 4654      666E00
 4655              	.LASF35:
 4656 02a1 705F6E65 		.ascii	"p_newer\000"
 4656      77657200 
 4657              	.LASF194:
 4658 02a9 74637069 		.ascii	"tcpip_init\000"
 4658      705F696E 
 4658      697400
 4659              	.LASF94:
 4660 02b4 4D454D50 		.ascii	"MEMP_TCPIP_MSG_INPKT\000"
 4660      5F544350 
 4660      49505F4D 
 4660      53475F49 
 4660      4E504B54 
 4661              	.LASF202:
 4662 02c9 6D656D70 		.ascii	"memp_free\000"
 4662      5F667265 
 4662      6500
 4663              	.LASF137:
 4664 02d3 4E455443 		.ascii	"NETCONN_EVT_RCVPLUS\000"
 4664      4F4E4E5F 
 4664      4556545F 
 4664      52435650 
 4664      4C555300 
 4665              	.LASF125:
 4666 02e7 4E455443 		.ascii	"NETCONN_UDP\000"
 4666      4F4E4E5F 
 4666      55445000 
 4667              	.LASF208:
 4668 02f3 7379735F 		.ascii	"sys_mbox_valid\000"
 4668      6D626F78 
 4668      5F76616C 
 4668      696400
 4669              	.LASF201:
 4670 0302 7379735F 		.ascii	"sys_timeouts_mbox_fetch\000"
 4670      74696D65 
 4670      6F757473 
 4670      5F6D626F 
 4670      785F6665 
 4671              	.LASF103:
 4672 031a 746F745F 		.ascii	"tot_len\000"
 4672      6C656E00 
 4673              	.LASF162:
 4674 0322 69706164 		.ascii	"ipaddr\000"
 4674      647200
 4675              	.LASF1:
 4676 0329 73697A65 		.ascii	"size_t\000"
 4676      5F7400
 4677              	.LASF70:
 4678 0330 7264796D 		.ascii	"rdymsg\000"
 4678      736700
 4679              	.LASF102:
 4680 0337 7061796C 		.ascii	"payload\000"
ARM GAS  /tmp/ccKKV81m.s 			page 86


 4680      6F616400 
 4681              	.LASF112:
 4682 033f 6F757470 		.ascii	"output\000"
 4682      757400
 4683              	.LASF20:
 4684 0346 5F426F6F 		.ascii	"_Bool\000"
 4684      6C00
 4685              	.LASF66:
 4686 034c 6D625F72 		.ascii	"mb_rdptr\000"
 4686      64707472 
 4686      00
 4687              	.LASF160:
 4688 0355 636F6E6E 		.ascii	"conn\000"
 4688      00
 4689              	.LASF182:
 4690 035a 74637069 		.ascii	"tcpip_thread\000"
 4690      705F7468 
 4690      72656164 
 4690      00
 4691              	.LASF80:
 4692 0367 7379735F 		.ascii	"sys_sem_t\000"
 4692      73656D5F 
 4692      7400
 4693              	.LASF144:
 4694 0371 6C617374 		.ascii	"last_err\000"
 4694      5F657272 
 4694      00
 4695              	.LASF98:
 4696 037a 4D454D50 		.ascii	"MEMP_MAX\000"
 4696      5F4D4158 
 4696      00
 4697              	.LASF199:
 4698 0383 74637069 		.ascii	"tcpip_init_done_arg\000"
 4698      705F696E 
 4698      69745F64 
 4698      6F6E655F 
 4698      61726700 
 4699              	.LASF76:
 4700 0397 73385F74 		.ascii	"s8_t\000"
 4700      00
 4701              	.LASF59:
 4702 039c 4D757465 		.ascii	"Mutex\000"
 4702      7800
 4703              	.LASF68:
 4704 03a2 6D625F65 		.ascii	"mb_emptysem\000"
 4704      6D707479 
 4704      73656D00 
 4705              	.LASF92:
 4706 03ae 4D454D50 		.ascii	"MEMP_NETCONN\000"
 4706      5F4E4554 
 4706      434F4E4E 
 4706      00
 4707              	.LASF159:
 4708 03bb 6170695F 		.ascii	"api_msg_msg\000"
 4708      6D73675F 
 4708      6D736700 
 4709              	.LASF138:
ARM GAS  /tmp/ccKKV81m.s 			page 87


 4710 03c7 4E455443 		.ascii	"NETCONN_EVT_RCVMINUS\000"
 4710      4F4E4E5F 
 4710      4556545F 
 4710      5243564D 
 4710      494E5553 
 4711              	.LASF37:
 4712 03dc 705F6E61 		.ascii	"p_name\000"
 4712      6D6500
 4713              	.LASF96:
 4714 03e3 4D454D50 		.ascii	"MEMP_PBUF\000"
 4714      5F504255 
 4714      4600
 4715              	.LASF50:
 4716 03ed 54687265 		.ascii	"ThreadsQueue\000"
 4716      61647351 
 4716      75657565 
 4716      00
 4717              	.LASF74:
 4718 03fa 63686172 		.ascii	"char\000"
 4718      00
 4719              	.LASF197:
 4720 03ff 6D656D5F 		.ascii	"mem_free_callback\000"
 4720      66726565 
 4720      5F63616C 
 4720      6C626163 
 4720      6B00
 4721              	.LASF140:
 4722 0411 4E455443 		.ascii	"NETCONN_EVT_SENDMINUS\000"
 4722      4F4E4E5F 
 4722      4556545F 
 4722      53454E44 
 4722      4D494E55 
 4723              	.LASF206:
 4724 0427 69705F69 		.ascii	"ip_input\000"
 4724      6E707574 
 4724      00
 4725              	.LASF196:
 4726 0430 70627566 		.ascii	"pbuf_free_callback\000"
 4726      5F667265 
 4726      655F6361 
 4726      6C6C6261 
 4726      636B00
 4727              	.LASF30:
 4728 0443 54687265 		.ascii	"Thread\000"
 4728      616400
 4729              	.LASF161:
 4730 044a 70726F74 		.ascii	"proto\000"
 4730      6F00
 4731              	.LASF22:
 4732 0450 74737461 		.ascii	"tstate_t\000"
 4732      74655F74 
 4732      00
 4733              	.LASF36:
 4734 0459 705F6F6C 		.ascii	"p_older\000"
 4734      64657200 
 4735              	.LASF38:
 4736 0461 705F7374 		.ascii	"p_state\000"
ARM GAS  /tmp/ccKKV81m.s 			page 88


 4736      61746500 
 4737              	.LASF16:
 4738 0469 75696E74 		.ascii	"uint8_t\000"
 4738      385F7400 
 4739              	.LASF67:
 4740 0471 6D625F66 		.ascii	"mb_fullsem\000"
 4740      756C6C73 
 4740      656D00
 4741              	.LASF49:
 4742 047c 705F6D70 		.ascii	"p_mpool\000"
 4742      6F6F6C00 
 4743              	.LASF47:
 4744 0484 705F6D74 		.ascii	"p_mtxlist\000"
 4744      786C6973 
 4744      7400
 4745              	.LASF147:
 4746 048e 61636365 		.ascii	"acceptmbox\000"
 4746      70746D62 
 4746      6F7800
 4747              	.LASF207:
 4748 0499 70627566 		.ascii	"pbuf_free\000"
 4748      5F667265 
 4748      6500
 4749              	.LASF52:
 4750 04a3 72656761 		.ascii	"regarm_t\000"
 4750      726D5F74 
 4750      00
 4751              	.LASF177:
 4752 04ac 54435049 		.ascii	"TCPIP_MSG_CALLBACK\000"
 4752      505F4D53 
 4752      475F4341 
 4752      4C4C4241 
 4752      434B00
 4753              	.LASF167:
 4754 04bf 6170695F 		.ascii	"api_msg\000"
 4754      6D736700 
 4755              	.LASF209:
 4756 04c7 6D656D70 		.ascii	"memp_malloc\000"
 4756      5F6D616C 
 4756      6C6F6300 
 4757              	.LASF172:
 4758 04d3 74637069 		.ascii	"tcpip_msg_type\000"
 4758      705F6D73 
 4758      675F7479 
 4758      706500
 4759              	.LASF91:
 4760 04e2 4D454D50 		.ascii	"MEMP_NETBUF\000"
 4760      5F4E4554 
 4760      42554600 
 4761              	.LASF110:
 4762 04ee 6E65746D 		.ascii	"netmask\000"
 4762      61736B00 
 4763              	.LASF13:
 4764 04f6 6C6F6E67 		.ascii	"long long int\000"
 4764      206C6F6E 
 4764      6720696E 
 4764      7400
ARM GAS  /tmp/ccKKV81m.s 			page 89


 4765              	.LASF184:
 4766 0504 74637069 		.ascii	"tcpip_input\000"
 4766      705F696E 
 4766      70757400 
 4767              	.LASF26:
 4768 0510 6D73675F 		.ascii	"msg_t\000"
 4768      7400
 4769              	.LASF54:
 4770 0516 636F6E74 		.ascii	"context\000"
 4770      65787400 
 4771              	.LASF75:
 4772 051e 75385F74 		.ascii	"u8_t\000"
 4772      00
 4773              	.LASF39:
 4774 0523 705F666C 		.ascii	"p_flags\000"
 4774      61677300 
 4775              	.LASF64:
 4776 052b 6D625F74 		.ascii	"mb_top\000"
 4776      6F7000
 4777              	.LASF175:
 4778 0532 54435049 		.ascii	"TCPIP_MSG_TIMEOUT\000"
 4778      505F4D53 
 4778      475F5449 
 4778      4D454F55 
 4778      5400
 4779              	.LASF24:
 4780 0544 74736C69 		.ascii	"tslices_t\000"
 4780      6365735F 
 4780      7400
 4781              	.LASF89:
 4782 054e 4D454D50 		.ascii	"MEMP_REASSDATA\000"
 4782      5F524541 
 4782      53534441 
 4782      544100
 4783              	.LASF97:
 4784 055d 4D454D50 		.ascii	"MEMP_PBUF_POOL\000"
 4784      5F504255 
 4784      465F504F 
 4784      4F4C00
 4785              	.LASF170:
 4786 056c 74637069 		.ascii	"tcpip_init_done_fn\000"
 4786      705F696E 
 4786      69745F64 
 4786      6F6E655F 
 4786      666E00
 4787              	.LASF188:
 4788 057f 74637069 		.ascii	"tcpip_untimeout\000"
 4788      705F756E 
 4788      74696D65 
 4788      6F757400 
 4789              	.LASF45:
 4790 058f 705F6D73 		.ascii	"p_msg\000"
 4790      6700
 4791              	.LASF2:
 4792 0595 5F5F696E 		.ascii	"__int8_t\000"
 4792      74385F74 
 4792      00
ARM GAS  /tmp/ccKKV81m.s 			page 90


 4793              	.LASF164:
 4794 059e 64617461 		.ascii	"dataptr\000"
 4794      70747200 
 4795              	.LASF21:
 4796 05a6 746D6F64 		.ascii	"tmode_t\000"
 4796      655F7400 
 4797              	.LASF183:
 4798 05ae 70627566 		.ascii	"pbuf_free_int\000"
 4798      5F667265 
 4798      655F696E 
 4798      7400
 4799              	.LASF193:
 4800 05bc 74637069 		.ascii	"tcpip_callbackmsg_delete\000"
 4800      705F6361 
 4800      6C6C6261 
 4800      636B6D73 
 4800      675F6465 
 4801              	.LASF210:
 4802 05d5 7379735F 		.ascii	"sys_mbox_trypost\000"
 4802      6D626F78 
 4802      5F747279 
 4802      706F7374 
 4802      00
 4803              	.LASF17:
 4804 05e6 75696E74 		.ascii	"uint16_t\000"
 4804      31365F74 
 4804      00
 4805              	.LASF131:
 4806 05ef 4E455443 		.ascii	"NETCONN_NONE\000"
 4806      4F4E4E5F 
 4806      4E4F4E45 
 4806      00
 4807              	.LASF53:
 4808 05fc 696E7463 		.ascii	"intctx\000"
 4808      747800
 4809              	.LASF216:
 4810 0603 7379735F 		.ascii	"sys_thread_new\000"
 4810      74687265 
 4810      61645F6E 
 4810      657700
 4811              	.LASF129:
 4812 0612 6E657463 		.ascii	"netconn_type\000"
 4812      6F6E6E5F 
 4812      74797065 
 4812      00
 4813              	.LASF134:
 4814 061f 4E455443 		.ascii	"NETCONN_CONNECT\000"
 4814      4F4E4E5F 
 4814      434F4E4E 
 4814      45435400 
 4815              	.LASF86:
 4816 062f 4D454D50 		.ascii	"MEMP_TCP_PCB\000"
 4816      5F544350 
 4816      5F504342 
 4816      00
 4817              	.LASF48:
 4818 063c 705F7265 		.ascii	"p_realprio\000"
ARM GAS  /tmp/ccKKV81m.s 			page 91


 4818      616C7072 
 4818      696F00
 4819              	.LASF78:
 4820 0647 7533325F 		.ascii	"u32_t\000"
 4820      7400
 4821              	.LASF6:
 4822 064d 73686F72 		.ascii	"short int\000"
 4822      7420696E 
 4822      7400
 4823              	.LASF65:
 4824 0657 6D625F77 		.ascii	"mb_wrptr\000"
 4824      72707472 
 4824      00
 4825              	.LASF165:
 4826 0660 61706966 		.ascii	"apiflags\000"
 4826      6C616773 
 4826      00
 4827              	.LASF46:
 4828 0669 705F6570 		.ascii	"p_epending\000"
 4828      656E6469 
 4828      6E6700
 4829              	.LASF60:
 4830 0674 6D5F7175 		.ascii	"m_queue\000"
 4830      65756500 
 4831              	.LASF10:
 4832 067c 6C6F6E67 		.ascii	"long int\000"
 4832      20696E74 
 4832      00
 4833              	.LASF180:
 4834 0685 6170696D 		.ascii	"apimsg\000"
 4834      736700
 4835              	.LASF191:
 4836 068c 74637069 		.ascii	"tcpip_callbackmsg_new\000"
 4836      705F6361 
 4836      6C6C6261 
 4836      636B6D73 
 4836      675F6E65 
 4837              	.LASF95:
 4838 06a2 4D454D50 		.ascii	"MEMP_SYS_TIMEOUT\000"
 4838      5F535953 
 4838      5F54494D 
 4838      454F5554 
 4838      00
 4839              	.LASF171:
 4840 06b3 74637069 		.ascii	"tcpip_callback_fn\000"
 4840      705F6361 
 4840      6C6C6261 
 4840      636B5F66 
 4840      6E00
 4841              	.LASF150:
 4842 06c5 63757272 		.ascii	"current_msg\000"
 4842      656E745F 
 4842      6D736700 
 4843              	.LASF173:
 4844 06d1 54435049 		.ascii	"TCPIP_MSG_API\000"
 4844      505F4D53 
 4844      475F4150 
ARM GAS  /tmp/ccKKV81m.s 			page 92


 4844      4900
 4845              	.LASF31:
 4846 06df 705F6E65 		.ascii	"p_next\000"
 4846      787400
 4847              	.LASF85:
 4848 06e6 4D454D50 		.ascii	"MEMP_UDP_PCB\000"
 4848      5F554450 
 4848      5F504342 
 4848      00
 4849              	.LASF153:
 4850 06f3 6C6F6361 		.ascii	"local_ip\000"
 4850      6C5F6970 
 4850      00
 4851              	.LASF34:
 4852 06fc 705F6374 		.ascii	"p_ctx\000"
 4852      7800
 4853              	.LASF200:
 4854 0702 6D626F78 		.ascii	"mbox\000"
 4854      00
 4855              	.LASF212:
 4856 0707 7379735F 		.ascii	"sys_arch_sem_wait\000"
 4856      61726368 
 4856      5F73656D 
 4856      5F776169 
 4856      7400
 4857              	.LASF148:
 4858 0719 736F636B 		.ascii	"socket\000"
 4858      657400
 4859              	.LASF185:
 4860 0720 74637069 		.ascii	"tcpip_callback_with_block\000"
 4860      705F6361 
 4860      6C6C6261 
 4860      636B5F77 
 4860      6974685F 
 4861              	.LASF4:
 4862 073a 5F5F7569 		.ascii	"__uint8_t\000"
 4862      6E74385F 
 4862      7400
 4863              	.LASF56:
 4864 0744 53656D61 		.ascii	"Semaphore\000"
 4864      70686F72 
 4864      6500
 4865              	.LASF117:
 4866 074e 6E616D65 		.ascii	"name\000"
 4866      00
 4867              	.LASF211:
 4868 0753 7379735F 		.ascii	"sys_mbox_post\000"
 4868      6D626F78 
 4868      5F706F73 
 4868      7400
 4869              	.LASF121:
 4870 0761 6E657462 		.ascii	"netbuf\000"
 4870      756600
 4871              	.LASF120:
 4872 0768 6E657469 		.ascii	"netif_linkoutput_fn\000"
 4872      665F6C69 
 4872      6E6B6F75 
ARM GAS  /tmp/ccKKV81m.s 			page 93


 4872      74707574 
 4872      5F666E00 
 4873              	.LASF90:
 4874 077c 4D454D50 		.ascii	"MEMP_FRAG_PBUF\000"
 4874      5F465241 
 4874      475F5042 
 4874      554600
 4875              	.LASF84:
 4876 078b 4D454D50 		.ascii	"MEMP_RAW_PCB\000"
 4876      5F524157 
 4876      5F504342 
 4876      00
 4877              	.LASF32:
 4878 0798 705F7072 		.ascii	"p_prev\000"
 4878      657600
 4879              	.LASF55:
 4880 079f 73697A65 		.ascii	"sizetype\000"
 4880      74797065 
 4880      00
 4881              	.LASF23:
 4882 07a8 74726566 		.ascii	"trefs_t\000"
 4882      735F7400 
 4883              	.LASF12:
 4884 07b0 6C6F6E67 		.ascii	"long unsigned int\000"
 4884      20756E73 
 4884      69676E65 
 4884      6420696E 
 4884      7400
 4885              	.LASF217:
 4886 07c2 474E5520 		.ascii	"GNU C 4.8.2 -mcpu=cortex-m4 -mno-thumb-interwork -m"
 4886      4320342E 
 4886      382E3220 
 4886      2D6D6370 
 4886      753D636F 
 4887 07f5 7468756D 		.ascii	"thumb -ggdb -O2 -std=gnu99 -fomit-frame-pointer -fa"
 4887      62202D67 
 4887      67646220 
 4887      2D4F3220 
 4887      2D737464 
 4888 0828 6C69676E 		.ascii	"lign-functions=16 -ffunction-sections -fdata-sectio"
 4888      2D66756E 
 4888      6374696F 
 4888      6E733D31 
 4888      36202D66 
 4889 085b 6E73202D 		.ascii	"ns -fno-common\000"
 4889      666E6F2D 
 4889      636F6D6D 
 4889      6F6E00
 4890              	.LASF63:
 4891 086a 6D625F62 		.ascii	"mb_buffer\000"
 4891      75666665 
 4891      7200
 4892              	.LASF204:
 4893 0874 7379735F 		.ascii	"sys_timeout\000"
 4893      74696D65 
 4893      6F757400 
 4894              	.LASF18:
ARM GAS  /tmp/ccKKV81m.s 			page 94


 4895 0880 696E7433 		.ascii	"int32_t\000"
 4895      325F7400 
 4896              	.LASF122:
 4897 0888 706F7274 		.ascii	"port\000"
 4897      00
 4898              	.LASF111:
 4899 088d 696E7075 		.ascii	"input\000"
 4899      7400
 4900              	.LASF136:
 4901 0893 6E657463 		.ascii	"netconn_evt\000"
 4901      6F6E6E5F 
 4901      65767400 
 4902              	.LASF142:
 4903 089f 6E657463 		.ascii	"netconn_callback\000"
 4903      6F6E6E5F 
 4903      63616C6C 
 4903      6261636B 
 4903      00
 4904              	.LASF178:
 4905 08b0 54435049 		.ascii	"TCPIP_MSG_CALLBACK_STATIC\000"
 4905      505F4D53 
 4905      475F4341 
 4905      4C4C4241 
 4905      434B5F53 
 4906              	.LASF104:
 4907 08ca 74797065 		.ascii	"type\000"
 4907      00
 4908              	.LASF5:
 4909 08cf 756E7369 		.ascii	"unsigned char\000"
 4909      676E6564 
 4909      20636861 
 4909      7200
 4910              	.LASF11:
 4911 08dd 5F5F7569 		.ascii	"__uint32_t\000"
 4911      6E743332 
 4911      5F7400
 4912              	.LASF168:
 4913 08e8 66756E63 		.ascii	"function\000"
 4913      74696F6E 
 4913      00
 4914              	.LASF40:
 4915 08f1 705F7265 		.ascii	"p_refs\000"
 4915      667300
 4916              	.LASF88:
 4917 08f8 4D454D50 		.ascii	"MEMP_TCP_SEG\000"
 4917      5F544350 
 4917      5F534547 
 4917      00
 4918              	.LASF152:
 4919 0905 69705F70 		.ascii	"ip_pcb\000"
 4919      636200
 4920              	.LASF124:
 4921 090c 4E455443 		.ascii	"NETCONN_TCP\000"
 4921      4F4E4E5F 
 4921      54435000 
 4922              	.LASF100:
 4923 0918 70627566 		.ascii	"pbuf\000"
ARM GAS  /tmp/ccKKV81m.s 			page 95


 4923      00
 4924              	.LASF166:
 4925 091d 73687574 		.ascii	"shut\000"
 4925      00
 4926              	.LASF133:
 4927 0922 4E455443 		.ascii	"NETCONN_LISTEN\000"
 4927      4F4E4E5F 
 4927      4C495354 
 4927      454E00
 4928              	.LASF218:
 4929 0931 2E2E2F2E 		.ascii	"../../ext/lwip/src/api/tcpip.c\000"
 4929      2E2F6578 
 4929      742F6C77 
 4929      69702F73 
 4929      72632F61 
 4930              	.LASF213:
 4931 0950 706F7274 		.ascii	"port_halt\000"
 4931      5F68616C 
 4931      7400
 4932              	.LASF41:
 4933 095a 705F7072 		.ascii	"p_preempt\000"
 4933      65656D70 
 4933      7400
 4934              	.LASF149:
 4935 0964 77726974 		.ascii	"write_offset\000"
 4935      655F6F66 
 4935      66736574 
 4935      00
 4936              	.LASF107:
 4937 0971 61646472 		.ascii	"addr\000"
 4937      00
 4938              	.LASF214:
 4939 0976 6C776970 		.ascii	"lwip_init\000"
 4939      5F696E69 
 4939      7400
 4940              	.LASF114:
 4941 0980 73746174 		.ascii	"state\000"
 4941      6500
 4942              	.LASF151:
 4943 0986 63616C6C 		.ascii	"callback\000"
 4943      6261636B 
 4943      00
 4944              	.LASF109:
 4945 098f 6E657469 		.ascii	"netif\000"
 4945      6600
 4946              	.LASF198:
 4947 0995 74637069 		.ascii	"tcpip_init_done\000"
 4947      705F696E 
 4947      69745F64 
 4947      6F6E6500 
 4948              	.LASF215:
 4949 09a5 7379735F 		.ascii	"sys_mbox_new\000"
 4949      6D626F78 
 4949      5F6E6577 
 4949      00
 4950              	.LASF187:
 4951 09b2 74637069 		.ascii	"tcpip_timeout\000"
ARM GAS  /tmp/ccKKV81m.s 			page 96


 4951      705F7469 
 4951      6D656F75 
 4951      7400
 4952              	.LASF135:
 4953 09c0 4E455443 		.ascii	"NETCONN_CLOSE\000"
 4953      4F4E4E5F 
 4953      434C4F53 
 4953      4500
 4954              	.LASF62:
 4955 09ce 6D5F6E65 		.ascii	"m_next\000"
 4955      787400
 4956              	.LASF3:
 4957 09d5 7369676E 		.ascii	"signed char\000"
 4957      65642063 
 4957      68617200 
 4958              	.LASF156:
 4959 09e1 7463705F 		.ascii	"tcp_pcb\000"
 4959      70636200 
 4960              	.LASF8:
 4961 09e9 73686F72 		.ascii	"short unsigned int\000"
 4961      7420756E 
 4961      7369676E 
 4961      65642069 
 4961      6E7400
 4962              	.LASF128:
 4963 09fc 4E455443 		.ascii	"NETCONN_RAW\000"
 4963      4F4E4E5F 
 4963      52415700 
 4964              	.LASF126:
 4965 0a08 4E455443 		.ascii	"NETCONN_UDPLITE\000"
 4965      4F4E4E5F 
 4965      5544504C 
 4965      49544500 
 4966              	.LASF154:
 4967 0a18 72656D6F 		.ascii	"remote_ip\000"
 4967      74655F69 
 4967      7000
 4968              	.LASF190:
 4969 0a22 74637069 		.ascii	"tcpip_callback_msg\000"
 4969      705F6361 
 4969      6C6C6261 
 4969      636B5F6D 
 4969      736700
 4970              	.LASF145:
 4971 0a35 6F705F63 		.ascii	"op_completed\000"
 4971      6F6D706C 
 4971      65746564 
 4971      00
 4972              	.LASF108:
 4973 0a42 69705F61 		.ascii	"ip_addr_t\000"
 4973      6464725F 
 4973      7400
 4974              	.LASF143:
 4975 0a4c 6E657463 		.ascii	"netconn\000"
 4975      6F6E6E00 
 4976              	.LASF99:
 4977 0a54 6D656D70 		.ascii	"memp_t\000"
ARM GAS  /tmp/ccKKV81m.s 			page 97


 4977      5F7400
 4978              	.LASF176:
 4979 0a5b 54435049 		.ascii	"TCPIP_MSG_UNTIMEOUT\000"
 4979      505F4D53 
 4979      475F554E 
 4979      54494D45 
 4979      4F555400 
 4980              	.LASF181:
 4981 0a6f 74637069 		.ascii	"tcpip_msg\000"
 4981      705F6D73 
 4981      6700
 4982              	.LASF205:
 4983 0a79 65746865 		.ascii	"ethernet_input\000"
 4983      726E6574 
 4983      5F696E70 
 4983      757400
 4984              	.LASF179:
 4985 0a88 6D736563 		.ascii	"msecs\000"
 4985      7300
 4986              	.LASF71:
 4987 0a8e 65786974 		.ascii	"exitcode\000"
 4987      636F6465 
 4987      00
 4988              	.LASF106:
 4989 0a97 69705F61 		.ascii	"ip_addr\000"
 4989      64647200 
 4990              		.ident	"GCC: (4.8.2-14ubuntu1+6) 4.8.2"
ARM GAS  /tmp/ccKKV81m.s 			page 98


DEFINED SYMBOLS
                            *ABS*:0000000000000000 tcpip.c
     /tmp/ccKKV81m.s:19     .text.tcpip_thread:0000000000000000 $t
     /tmp/ccKKV81m.s:24     .text.tcpip_thread:0000000000000000 tcpip_thread
     /tmp/ccKKV81m.s:844    .bss.tcpip_init_done:0000000000000000 .LANCHOR0
     /tmp/ccKKV81m.s:837    .bss.tcpip_init_done_arg:0000000000000000 .LANCHOR1
     /tmp/ccKKV81m.s:830    .bss.mbox:0000000000000000 .LANCHOR2
     /tmp/ccKKV81m.s:65     .text.tcpip_thread:0000000000000036 $d
     /tmp/ccKKV81m.s:71     .text.tcpip_thread:000000000000003c $t
     /tmp/ccKKV81m.s:163    .text.pbuf_free_int:0000000000000000 $t
     /tmp/ccKKV81m.s:168    .text.pbuf_free_int:0000000000000000 pbuf_free_int
     /tmp/ccKKV81m.s:183    .text.tcpip_input:0000000000000000 $t
     /tmp/ccKKV81m.s:189    .text.tcpip_input:0000000000000000 tcpip_input
     /tmp/ccKKV81m.s:267    .text.tcpip_callback_with_block:0000000000000000 $t
     /tmp/ccKKV81m.s:273    .text.tcpip_callback_with_block:0000000000000000 tcpip_callback_with_block
     /tmp/ccKKV81m.s:369    .text.tcpip_timeout:0000000000000000 $t
     /tmp/ccKKV81m.s:375    .text.tcpip_timeout:0000000000000000 tcpip_timeout
     /tmp/ccKKV81m.s:446    .text.tcpip_untimeout:0000000000000000 $t
     /tmp/ccKKV81m.s:452    .text.tcpip_untimeout:0000000000000000 tcpip_untimeout
     /tmp/ccKKV81m.s:520    .text.tcpip_apimsg:0000000000000000 $t
     /tmp/ccKKV81m.s:526    .text.tcpip_apimsg:0000000000000000 tcpip_apimsg
     /tmp/ccKKV81m.s:587    .text.tcpip_callbackmsg_new:0000000000000000 $t
     /tmp/ccKKV81m.s:593    .text.tcpip_callbackmsg_new:0000000000000000 tcpip_callbackmsg_new
     /tmp/ccKKV81m.s:633    .text.tcpip_callbackmsg_delete:0000000000000000 $t
     /tmp/ccKKV81m.s:639    .text.tcpip_callbackmsg_delete:0000000000000000 tcpip_callbackmsg_delete
     /tmp/ccKKV81m.s:658    .text.tcpip_trycallback:0000000000000000 $t
     /tmp/ccKKV81m.s:664    .text.tcpip_trycallback:0000000000000000 tcpip_trycallback
     /tmp/ccKKV81m.s:702    .text.tcpip_init:0000000000000000 $t
     /tmp/ccKKV81m.s:708    .text.tcpip_init:0000000000000000 tcpip_init
     /tmp/ccKKV81m.s:826    .rodata.str1.4:0000000000000000 .LC0
     /tmp/ccKKV81m.s:771    .text.pbuf_free_callback:0000000000000000 $t
     /tmp/ccKKV81m.s:777    .text.pbuf_free_callback:0000000000000000 pbuf_free_callback
     /tmp/ccKKV81m.s:798    .text.mem_free_callback:0000000000000000 $t
     /tmp/ccKKV81m.s:804    .text.mem_free_callback:0000000000000000 mem_free_callback
     /tmp/ccKKV81m.s:825    .rodata.str1.4:0000000000000000 $d
     /tmp/ccKKV81m.s:829    .bss.mbox:0000000000000000 $d
     /tmp/ccKKV81m.s:833    .bss.mbox:0000000000000000 mbox
     /tmp/ccKKV81m.s:836    .bss.tcpip_init_done_arg:0000000000000000 $d
     /tmp/ccKKV81m.s:840    .bss.tcpip_init_done_arg:0000000000000000 tcpip_init_done_arg
     /tmp/ccKKV81m.s:843    .bss.tcpip_init_done:0000000000000000 $d
     /tmp/ccKKV81m.s:847    .bss.tcpip_init_done:0000000000000000 tcpip_init_done
                     .debug_frame:0000000000000010 $d

UNDEFINED SYMBOLS
sys_timeouts_mbox_fetch
memp_free
sys_untimeout
sys_timeout
ethernet_input
port_halt
ip_input
pbuf_free
sys_mbox_valid
memp_malloc
sys_mbox_trypost
sys_mbox_post
sys_arch_sem_wait
ARM GAS  /tmp/ccKKV81m.s 			page 99


lwip_init
sys_mbox_new
sys_thread_new
mem_free
