ARM GAS  /tmp/cc8g7J8V.s 			page 1


   1              		.syntax unified
   2              		.cpu cortex-m4
   3              		.fpu softvfp
   4              		.eabi_attribute 20, 1
   5              		.eabi_attribute 21, 1
   6              		.eabi_attribute 23, 3
   7              		.eabi_attribute 24, 1
   8              		.eabi_attribute 25, 1
   9              		.eabi_attribute 26, 1
  10              		.eabi_attribute 30, 2
  11              		.eabi_attribute 34, 1
  12              		.eabi_attribute 18, 4
  13              		.thumb
  14              		.file	"timers.c"
  15              		.text
  16              	.Ltext0:
  17              		.cfi_sections	.debug_frame
  18              		.section	.text.sys_timeout,"ax",%progbits
  19              		.align	2
  20              		.p2align 4,,15
  21              		.global	sys_timeout
  22              		.thumb
  23              		.thumb_func
  24              		.type	sys_timeout, %function
  25              	sys_timeout:
  26              	.LFB12:
  27              		.file 1 "../../ext/lwip/src/core/timers.c"
  28              		.loc 1 268 0
  29              		.cfi_startproc
  30              		@ args = 0, pretend = 0, frame = 0
  31              		@ frame_needed = 0, uses_anonymous_args = 0
  32              	.LVL0:
  33 0000 F8B5     		push	{r3, r4, r5, r6, r7, lr}
  34              		.cfi_def_cfa_offset 24
  35              		.cfi_offset 3, -24
  36              		.cfi_offset 4, -20
  37              		.cfi_offset 5, -16
  38              		.cfi_offset 6, -12
  39              		.cfi_offset 7, -8
  40              		.cfi_offset 14, -4
  41              		.loc 1 268 0
  42 0002 0646     		mov	r6, r0
  43              		.loc 1 271 0
  44 0004 0B20     		movs	r0, #11
  45              	.LVL1:
  46              		.loc 1 268 0
  47 0006 0D46     		mov	r5, r1
  48 0008 1746     		mov	r7, r2
  49              		.loc 1 271 0
  50 000a FFF7FEFF 		bl	memp_malloc
  51              	.LVL2:
  52              		.loc 1 272 0
  53 000e 38B3     		cbz	r0, .L15
  54              		.loc 1 286 0
  55 0010 40F20003 		movw	r3, #:lower16:.LANCHOR0
  56 0014 C0F20003 		movt	r3, #:upper16:.LANCHOR0
  57              		.loc 1 276 0
ARM GAS  /tmp/cc8g7J8V.s 			page 2


  58 0018 0022     		movs	r2, #0
  59              		.loc 1 286 0
  60 001a 1C68     		ldr	r4, [r3]
  61              		.loc 1 277 0
  62 001c 8560     		str	r5, [r0, #8]
  63              		.loc 1 278 0
  64 001e C760     		str	r7, [r0, #12]
  65              		.loc 1 276 0
  66 0020 80E84400 		stmia	r0, {r2, r6}
  67              		.loc 1 286 0
  68 0024 D4B1     		cbz	r4, .L16
  69              		.loc 1 291 0
  70 0026 6168     		ldr	r1, [r4, #4]
  71 0028 8E42     		cmp	r6, r1
  72 002a 28BF     		it	cs
  73 002c 3246     		movcs	r2, r6
  74 002e 08D2     		bcs	.L7
  75              		.loc 1 292 0
  76 0030 891B     		subs	r1, r1, r6
  77 0032 6160     		str	r1, [r4, #4]
  78              		.loc 1 294 0
  79 0034 1860     		str	r0, [r3]
  80              		.loc 1 293 0
  81 0036 0460     		str	r4, [r0]
  82 0038 F8BD     		pop	{r3, r4, r5, r6, r7, pc}
  83              	.LVL3:
  84              	.L13:
  85              		.loc 1 298 0 discriminator 1
  86 003a 5968     		ldr	r1, [r3, #4]
  87 003c 8A42     		cmp	r2, r1
  88 003e 08D3     		bcc	.L6
  89 0040 1C46     		mov	r4, r3
  90              	.LVL4:
  91              	.L7:
  92 0042 2368     		ldr	r3, [r4]
  93              		.loc 1 297 0 discriminator 1
  94 0044 521A     		subs	r2, r2, r1
  95 0046 4260     		str	r2, [r0, #4]
  96              		.loc 1 298 0 discriminator 1
  97 0048 002B     		cmp	r3, #0
  98 004a F6D1     		bne	.L13
  99              		.loc 1 302 0
 100 004c 0360     		str	r3, [r0]
 101              		.loc 1 303 0
 102 004e 2060     		str	r0, [r4]
 103              		.loc 1 304 0
 104 0050 F8BD     		pop	{r3, r4, r5, r6, r7, pc}
 105              	.LVL5:
 106              	.L6:
 107              		.loc 1 300 0
 108 0052 8A1A     		subs	r2, r1, r2
 109 0054 5A60     		str	r2, [r3, #4]
 110              		.loc 1 302 0
 111 0056 0360     		str	r3, [r0]
 112              		.loc 1 303 0
 113 0058 2060     		str	r0, [r4]
 114              		.loc 1 304 0
ARM GAS  /tmp/cc8g7J8V.s 			page 3


 115 005a F8BD     		pop	{r3, r4, r5, r6, r7, pc}
 116              	.LVL6:
 117              	.L16:
 118              		.loc 1 287 0
 119 005c 1860     		str	r0, [r3]
 120              		.loc 1 288 0
 121 005e F8BD     		pop	{r3, r4, r5, r6, r7, pc}
 122              	.LVL7:
 123              	.L15:
 124              		.loc 1 308 0 discriminator 1
 125 0060 BDE8F840 		pop	{r3, r4, r5, r6, r7, lr}
 126              	.LVL8:
 127              		.loc 1 273 0 discriminator 1
 128 0064 FFF7FEBF 		b	port_halt
 129              	.LVL9:
 130              		.cfi_endproc
 131              	.LFE12:
 132              		.size	sys_timeout, .-sys_timeout
 133 0068 AFF30080 		.section	.text.tcp_timer_needed,"ax",%progbits
 133      AFF30080 
 134              		.align	2
 135              		.p2align 4,,15
 136              		.global	tcp_timer_needed
 137              		.thumb
 138              		.thumb_func
 139              		.type	tcp_timer_needed, %function
 140              	tcp_timer_needed:
 141              	.LFB8:
 142              		.loc 1 102 0
 143              		.cfi_startproc
 144              		@ args = 0, pretend = 0, frame = 0
 145              		@ frame_needed = 0, uses_anonymous_args = 0
 146              		@ link register save eliminated.
 147              		.loc 1 104 0
 148 0000 40F20003 		movw	r3, #:lower16:.LANCHOR1
 149 0004 C0F20003 		movt	r3, #:upper16:.LANCHOR1
 150              		.loc 1 102 0
 151 0008 10B4     		push	{r4}
 152              		.cfi_def_cfa_offset 4
 153              		.cfi_offset 4, -4
 154              		.loc 1 104 0
 155 000a 1A68     		ldr	r2, [r3]
 156 000c C2B9     		cbnz	r2, .L17
 157              		.loc 1 104 0 is_stmt 0 discriminator 1
 158 000e 40F20002 		movw	r2, #:lower16:tcp_active_pcbs
 159 0012 C0F20002 		movt	r2, #:upper16:tcp_active_pcbs
 160 0016 1268     		ldr	r2, [r2]
 161 0018 5AB1     		cbz	r2, .L23
 162              	.L19:
 163              		.loc 1 106 0 is_stmt 1
 164 001a 0124     		movs	r4, #1
 165              		.loc 1 107 0
 166 001c 40F20001 		movw	r1, #:lower16:tcpip_tcp_timer
 167              		.loc 1 106 0
 168 0020 1C60     		str	r4, [r3]
 169              		.loc 1 107 0
 170 0022 C0F20001 		movt	r1, #:upper16:tcpip_tcp_timer
ARM GAS  /tmp/cc8g7J8V.s 			page 4


 171 0026 FA20     		movs	r0, #250
 172 0028 0022     		movs	r2, #0
 173              		.loc 1 109 0
 174 002a 5DF8044B 		ldr	r4, [sp], #4
 175              		.loc 1 107 0
 176 002e FFF7FEBF 		b	sys_timeout
 177              	.LVL10:
 178              	.L23:
 179              		.loc 1 104 0 discriminator 1
 180 0032 40F20002 		movw	r2, #:lower16:tcp_tw_pcbs
 181 0036 C0F20002 		movt	r2, #:upper16:tcp_tw_pcbs
 182 003a 1268     		ldr	r2, [r2]
 183 003c 002A     		cmp	r2, #0
 184 003e ECD1     		bne	.L19
 185              	.L17:
 186              		.loc 1 109 0
 187 0040 5DF8044B 		ldr	r4, [sp], #4
 188 0044 7047     		bx	lr
 189              		.cfi_endproc
 190              	.LFE8:
 191              		.size	tcp_timer_needed, .-tcp_timer_needed
 192 0046 00BFAFF3 		.section	.text.tcpip_tcp_timer,"ax",%progbits
 192      0080AFF3 
 192      0080
 193              		.align	2
 194              		.p2align 4,,15
 195              		.thumb
 196              		.thumb_func
 197              		.type	tcpip_tcp_timer, %function
 198              	tcpip_tcp_timer:
 199              	.LFB7:
 200              		.loc 1 80 0
 201              		.cfi_startproc
 202              		@ args = 0, pretend = 0, frame = 0
 203              		@ frame_needed = 0, uses_anonymous_args = 0
 204              	.LVL11:
 205 0000 08B5     		push	{r3, lr}
 206              		.cfi_def_cfa_offset 8
 207              		.cfi_offset 3, -8
 208              		.cfi_offset 14, -4
 209              		.loc 1 84 0
 210 0002 FFF7FEFF 		bl	tcp_tmr
 211              	.LVL12:
 212              		.loc 1 86 0
 213 0006 40F20003 		movw	r3, #:lower16:tcp_active_pcbs
 214 000a C0F20003 		movt	r3, #:upper16:tcp_active_pcbs
 215 000e 1B68     		ldr	r3, [r3]
 216 0010 4BB1     		cbz	r3, .L27
 217              	.L25:
 218              		.loc 1 88 0
 219 0012 40F20001 		movw	r1, #:lower16:tcpip_tcp_timer
 220 0016 C0F20001 		movt	r1, #:upper16:tcpip_tcp_timer
 221 001a FA20     		movs	r0, #250
 222 001c 0022     		movs	r2, #0
 223              		.loc 1 93 0
 224 001e BDE80840 		pop	{r3, lr}
 225              		.loc 1 88 0
ARM GAS  /tmp/cc8g7J8V.s 			page 5


 226 0022 FFF7FEBF 		b	sys_timeout
 227              	.LVL13:
 228              	.L27:
 229              		.loc 1 86 0 discriminator 1
 230 0026 40F20003 		movw	r3, #:lower16:tcp_tw_pcbs
 231 002a C0F20003 		movt	r3, #:upper16:tcp_tw_pcbs
 232 002e 1B68     		ldr	r3, [r3]
 233 0030 002B     		cmp	r3, #0
 234 0032 EED1     		bne	.L25
 235              		.loc 1 91 0
 236 0034 40F20002 		movw	r2, #:lower16:.LANCHOR1
 237 0038 C0F20002 		movt	r2, #:upper16:.LANCHOR1
 238 003c 1360     		str	r3, [r2]
 239 003e 08BD     		pop	{r3, pc}
 240              		.cfi_endproc
 241              	.LFE7:
 242              		.size	tcpip_tcp_timer, .-tcpip_tcp_timer
 243              		.section	.text.sys_timeouts_init,"ax",%progbits
 244              		.align	2
 245              		.p2align 4,,15
 246              		.global	sys_timeouts_init
 247              		.thumb
 248              		.thumb_func
 249              		.type	sys_timeouts_init, %function
 250              	sys_timeouts_init:
 251              	.LFB11:
 252              		.loc 1 224 0
 253              		.cfi_startproc
 254              		@ args = 0, pretend = 0, frame = 0
 255              		@ frame_needed = 0, uses_anonymous_args = 0
 256 0000 08B5     		push	{r3, lr}
 257              		.cfi_def_cfa_offset 8
 258              		.cfi_offset 3, -8
 259              		.cfi_offset 14, -4
 260              		.loc 1 226 0
 261 0002 40F20001 		movw	r1, #:lower16:ip_reass_timer
 262 0006 C0F20001 		movt	r1, #:upper16:ip_reass_timer
 263 000a 4FF47A70 		mov	r0, #1000
 264 000e 0022     		movs	r2, #0
 265 0010 FFF7FEFF 		bl	sys_timeout
 266              	.LVL14:
 267              		.loc 1 229 0
 268 0014 40F20001 		movw	r1, #:lower16:arp_timer
 269 0018 C0F20001 		movt	r1, #:upper16:arp_timer
 270 001c 41F28830 		movw	r0, #5000
 271 0020 0022     		movs	r2, #0
 272              		.loc 1 249 0
 273 0022 BDE80840 		pop	{r3, lr}
 274              		.loc 1 229 0
 275 0026 FFF7FEBF 		b	sys_timeout
 276              	.LVL15:
 277              		.cfi_endproc
 278              	.LFE11:
 279              		.size	sys_timeouts_init, .-sys_timeouts_init
 280 002a 00BFAFF3 		.section	.text.arp_timer,"ax",%progbits
 280      0080
 281              		.align	2
ARM GAS  /tmp/cc8g7J8V.s 			page 6


 282              		.p2align 4,,15
 283              		.thumb
 284              		.thumb_func
 285              		.type	arp_timer, %function
 286              	arp_timer:
 287              	.LFB10:
 288              		.loc 1 136 0
 289              		.cfi_startproc
 290              		@ args = 0, pretend = 0, frame = 0
 291              		@ frame_needed = 0, uses_anonymous_args = 0
 292              	.LVL16:
 293 0000 08B5     		push	{r3, lr}
 294              		.cfi_def_cfa_offset 8
 295              		.cfi_offset 3, -8
 296              		.cfi_offset 14, -4
 297              		.loc 1 139 0
 298 0002 FFF7FEFF 		bl	etharp_tmr
 299              	.LVL17:
 300              		.loc 1 140 0
 301 0006 40F20001 		movw	r1, #:lower16:arp_timer
 302 000a C0F20001 		movt	r1, #:upper16:arp_timer
 303 000e 41F28830 		movw	r0, #5000
 304 0012 0022     		movs	r2, #0
 305              		.loc 1 141 0
 306 0014 BDE80840 		pop	{r3, lr}
 307              		.loc 1 140 0
 308 0018 FFF7FEBF 		b	sys_timeout
 309              	.LVL18:
 310              		.cfi_endproc
 311              	.LFE10:
 312              		.size	arp_timer, .-arp_timer
 313 001c AFF30080 		.section	.text.ip_reass_timer,"ax",%progbits
 314              		.align	2
 315              		.p2align 4,,15
 316              		.thumb
 317              		.thumb_func
 318              		.type	ip_reass_timer, %function
 319              	ip_reass_timer:
 320              	.LFB9:
 321              		.loc 1 120 0
 322              		.cfi_startproc
 323              		@ args = 0, pretend = 0, frame = 0
 324              		@ frame_needed = 0, uses_anonymous_args = 0
 325              	.LVL19:
 326 0000 08B5     		push	{r3, lr}
 327              		.cfi_def_cfa_offset 8
 328              		.cfi_offset 3, -8
 329              		.cfi_offset 14, -4
 330              		.loc 1 123 0
 331 0002 FFF7FEFF 		bl	ip_reass_tmr
 332              	.LVL20:
 333              		.loc 1 124 0
 334 0006 40F20001 		movw	r1, #:lower16:ip_reass_timer
 335 000a C0F20001 		movt	r1, #:upper16:ip_reass_timer
 336 000e 4FF47A70 		mov	r0, #1000
 337 0012 0022     		movs	r2, #0
 338              		.loc 1 125 0
ARM GAS  /tmp/cc8g7J8V.s 			page 7


 339 0014 BDE80840 		pop	{r3, lr}
 340              		.loc 1 124 0
 341 0018 FFF7FEBF 		b	sys_timeout
 342              	.LVL21:
 343              		.cfi_endproc
 344              	.LFE9:
 345              		.size	ip_reass_timer, .-ip_reass_timer
 346 001c AFF30080 		.section	.text.sys_untimeout,"ax",%progbits
 347              		.align	2
 348              		.p2align 4,,15
 349              		.global	sys_untimeout
 350              		.thumb
 351              		.thumb_func
 352              		.type	sys_untimeout, %function
 353              	sys_untimeout:
 354              	.LFB13:
 355              		.loc 1 322 0
 356              		.cfi_startproc
 357              		@ args = 0, pretend = 0, frame = 0
 358              		@ frame_needed = 0, uses_anonymous_args = 0
 359              		@ link register save eliminated.
 360              	.LVL22:
 361 0000 30B4     		push	{r4, r5}
 362              		.cfi_def_cfa_offset 8
 363              		.cfi_offset 4, -8
 364              		.cfi_offset 5, -4
 365              		.loc 1 325 0
 366 0002 40F20005 		movw	r5, #:lower16:.LANCHOR0
 367 0006 C0F20005 		movt	r5, #:upper16:.LANCHOR0
 368 000a 2B68     		ldr	r3, [r5]
 369 000c CBB1     		cbz	r3, .L31
 370 000e 0024     		movs	r4, #0
 371 0010 03E0     		b	.L37
 372              	.LVL23:
 373              	.L33:
 374              		.loc 1 329 0
 375 0012 1A68     		ldr	r2, [r3]
 376              	.LVL24:
 377 0014 AAB1     		cbz	r2, .L31
 378 0016 1C46     		mov	r4, r3
 379 0018 1346     		mov	r3, r2
 380              	.LVL25:
 381              	.L37:
 382              		.loc 1 330 0
 383 001a 9A68     		ldr	r2, [r3, #8]
 384 001c 8242     		cmp	r2, r0
 385 001e F8D1     		bne	.L33
 386              		.loc 1 330 0 is_stmt 0 discriminator 1
 387 0020 DA68     		ldr	r2, [r3, #12]
 388 0022 8A42     		cmp	r2, r1
 389 0024 F5D1     		bne	.L33
 390              		.loc 1 334 0 is_stmt 1
 391 0026 1A68     		ldr	r2, [r3]
 392              		.loc 1 333 0
 393 0028 6CB1     		cbz	r4, .L47
 394              		.loc 1 336 0
 395 002a 2260     		str	r2, [r4]
ARM GAS  /tmp/cc8g7J8V.s 			page 8


 396 002c 1A68     		ldr	r2, [r3]
 397              	.L35:
 398              		.loc 1 339 0
 399 002e 1AB1     		cbz	r2, .L36
 400              		.loc 1 340 0
 401 0030 5068     		ldr	r0, [r2, #4]
 402              	.LVL26:
 403 0032 5968     		ldr	r1, [r3, #4]
 404              	.LVL27:
 405 0034 0144     		add	r1, r1, r0
 406 0036 5160     		str	r1, [r2, #4]
 407              	.L36:
 408              		.loc 1 342 0
 409 0038 1946     		mov	r1, r3
 410 003a 0B20     		movs	r0, #11
 411              		.loc 1 347 0
 412 003c 30BC     		pop	{r4, r5}
 413              		.loc 1 342 0
 414 003e FFF7FEBF 		b	memp_free
 415              	.LVL28:
 416              	.L31:
 417              		.loc 1 347 0
 418 0042 30BC     		pop	{r4, r5}
 419 0044 7047     		bx	lr
 420              	.LVL29:
 421              	.L47:
 422              		.loc 1 334 0
 423 0046 2A60     		str	r2, [r5]
 424 0048 F1E7     		b	.L35
 425              		.cfi_endproc
 426              	.LFE13:
 427              		.size	sys_untimeout, .-sys_untimeout
 428 004a 00BFAFF3 		.section	.text.sys_timeouts_mbox_fetch,"ax",%progbits
 428      0080
 429              		.align	2
 430              		.p2align 4,,15
 431              		.global	sys_timeouts_mbox_fetch
 432              		.thumb
 433              		.thumb_func
 434              		.type	sys_timeouts_mbox_fetch, %function
 435              	sys_timeouts_mbox_fetch:
 436              	.LFB14:
 437              		.loc 1 424 0
 438              		.cfi_startproc
 439              		@ args = 0, pretend = 0, frame = 0
 440              		@ frame_needed = 0, uses_anonymous_args = 0
 441              	.LVL30:
 442 0000 2DE9F843 		push	{r3, r4, r5, r6, r7, r8, r9, lr}
 443              		.cfi_def_cfa_offset 32
 444              		.cfi_offset 3, -32
 445              		.cfi_offset 4, -28
 446              		.cfi_offset 5, -24
 447              		.cfi_offset 6, -20
 448              		.cfi_offset 7, -16
 449              		.cfi_offset 8, -12
 450              		.cfi_offset 9, -8
 451              		.cfi_offset 14, -4
ARM GAS  /tmp/cc8g7J8V.s 			page 9


 452 0004 40F20005 		movw	r5, #:lower16:.LANCHOR0
 453 0008 C0F20005 		movt	r5, #:upper16:.LANCHOR0
 454              		.loc 1 424 0
 455 000c 0746     		mov	r7, r0
 456 000e 0E46     		mov	r6, r1
 457              		.loc 1 431 0
 458 0010 A846     		mov	r8, r5
 459 0012 09E0     		b	.L53
 460              	.LVL31:
 461              	.L50:
 462              		.loc 1 445 0
 463 0014 1368     		ldr	r3, [r2]
 464              		.loc 1 446 0
 465 0016 9468     		ldr	r4, [r2, #8]
 466              	.LVL32:
 467              		.loc 1 445 0
 468 0018 2B60     		str	r3, [r5]
 469              		.loc 1 454 0
 470 001a 0B20     		movs	r0, #11
 471 001c 1146     		mov	r1, r2
 472              		.loc 1 447 0
 473 001e D2F80C90 		ldr	r9, [r2, #12]
 474              	.LVL33:
 475              		.loc 1 454 0
 476 0022 FFF7FEFF 		bl	memp_free
 477              	.LVL34:
 478              		.loc 1 455 0
 479 0026 14BB     		cbnz	r4, .L58
 480              	.LVL35:
 481              	.L53:
 482              		.loc 1 431 0
 483 0028 2A68     		ldr	r2, [r5]
 484 002a 40F20004 		movw	r4, #:lower16:.LANCHOR0
 485 002e C0F20004 		movt	r4, #:upper16:.LANCHOR0
 486 0032 62B1     		cbz	r2, .L59
 487              		.loc 1 434 0
 488 0034 5368     		ldr	r3, [r2, #4]
 489 0036 002B     		cmp	r3, #0
 490 0038 ECD0     		beq	.L50
 491              		.loc 1 435 0
 492 003a 1A46     		mov	r2, r3
 493 003c 3846     		mov	r0, r7
 494 003e 3146     		mov	r1, r6
 495 0040 FFF7FEFF 		bl	sys_arch_mbox_fetch
 496              	.LVL36:
 497              		.loc 1 440 0
 498 0044 431C     		adds	r3, r0, #1
 499 0046 08D1     		bne	.L51
 500 0048 D8F80020 		ldr	r2, [r8]
 501 004c E2E7     		b	.L50
 502              	.LVL37:
 503              	.L59:
 504              		.loc 1 432 0
 505 004e 3846     		mov	r0, r7
 506 0050 3146     		mov	r1, r6
 507              		.loc 1 477 0
 508 0052 BDE8F843 		pop	{r3, r4, r5, r6, r7, r8, r9, lr}
ARM GAS  /tmp/cc8g7J8V.s 			page 10


 509              	.LVL38:
 510              		.loc 1 432 0
 511 0056 FFF7FEBF 		b	sys_arch_mbox_fetch
 512              	.LVL39:
 513              	.L51:
 514              		.loc 1 470 0
 515 005a 2368     		ldr	r3, [r4]
 516 005c 5A68     		ldr	r2, [r3, #4]
 517 005e 8242     		cmp	r2, r0
 518              		.loc 1 471 0
 519 0060 8CBF     		ite	hi
 520 0062 C0EB0202 		rsbhi	r2, r0, r2
 521              		.loc 1 473 0
 522 0066 0022     		movls	r2, #0
 523 0068 5A60     		str	r2, [r3, #4]
 524 006a BDE8F883 		pop	{r3, r4, r5, r6, r7, r8, r9, pc}
 525              	.LVL40:
 526              	.L58:
 527              		.loc 1 459 0
 528 006e 4846     		mov	r0, r9
 529 0070 A047     		blx	r4
 530              	.LVL41:
 531 0072 D9E7     		b	.L53
 532              		.cfi_endproc
 533              	.LFE14:
 534              		.size	sys_timeouts_mbox_fetch, .-sys_timeouts_mbox_fetch
 535 0074 AFF30080 		.section	.bss.tcpip_tcp_timer_active,"aw",%nobits
 535      AFF30080 
 535      AFF30080 
 536              		.align	2
 537              		.set	.LANCHOR1,. + 0
 538              		.type	tcpip_tcp_timer_active, %object
 539              		.size	tcpip_tcp_timer_active, 4
 540              	tcpip_tcp_timer_active:
 541 0000 00000000 		.space	4
 542              		.section	.bss.next_timeout,"aw",%nobits
 543              		.align	2
 544              		.set	.LANCHOR0,. + 0
 545              		.type	next_timeout, %object
 546              		.size	next_timeout, 4
 547              	next_timeout:
 548 0000 00000000 		.space	4
 549              		.text
 550              	.Letext0:
 551              		.file 2 "/usr/include/newlib/machine/_default_types.h"
 552              		.file 3 "/usr/include/newlib/stdint.h"
 553              		.file 4 "../../os/ports/GCC/ARMCMx/chtypes.h"
 554              		.file 5 "../../os/kernel/include/chlists.h"
 555              		.file 6 "../../os/kernel/include/chthreads.h"
 556              		.file 7 "../../os/ports/GCC/ARMCMx/chcore_v7m.h"
 557              		.file 8 "../../os/kernel/include/chsem.h"
 558              		.file 9 "../../os/kernel/include/chmtx.h"
 559              		.file 10 "../../os/kernel/include/chmboxes.h"
 560              		.file 11 "../../os/various/lwip_bindings/arch/cc.h"
 561              		.file 12 "../../ext/lwip/src/include/lwip/err.h"
 562              		.file 13 "../../os/various/lwip_bindings/arch/sys_arch.h"
 563              		.file 14 "../../ext/lwip/src/include/lwip/timers.h"
ARM GAS  /tmp/cc8g7J8V.s 			page 11


 564              		.file 15 "../../ext/lwip/src/include/lwip/pbuf.h"
 565              		.file 16 "../../ext/lwip/src/include/ipv4/lwip/ip_addr.h"
 566              		.file 17 "../../ext/lwip/src/include/lwip/tcp.h"
 567              		.file 18 "../../ext/lwip/src/include/lwip/tcp_impl.h"
 568              		.file 19 "../../ext/lwip/src/include/lwip/memp.h"
 569              		.file 20 "../../ext/lwip/src/include/netif/etharp.h"
 570              		.file 21 "../../ext/lwip/src/include/ipv4/lwip/ip_frag.h"
 571              		.file 22 "../../ext/lwip/src/include/lwip/sys.h"