ARM GAS  /tmp/cc8g7J8V.s 			page 1


   1              		.syntax unified
   2              		.cpu cortex-m4
   3              		.fpu softvfp
   4              		.eabi_attribute 20, 1
   5              		.eabi_attribute 21, 1
   6              		.eabi_attribute 23, 3
   7              		.eabi_attribute 24, 1
   8              		.eabi_attribute 25, 1
   9              		.eabi_attribute 26, 1
  10              		.eabi_attribute 30, 2
  11              		.eabi_attribute 34, 1
  12              		.eabi_attribute 18, 4
  13              		.thumb
  14              		.file	"timers.c"
  15              		.text
  16              	.Ltext0:
  17              		.cfi_sections	.debug_frame
  18              		.section	.text.sys_timeout,"ax",%progbits
  19              		.align	2
  20              		.p2align 4,,15
  21              		.global	sys_timeout
  22              		.thumb
  23              		.thumb_func
  24              		.type	sys_timeout, %function
  25              	sys_timeout:
  26              	.LFB12:
  27              		.file 1 "../../ext/lwip/src/core/timers.c"
  28              		.loc 1 268 0
  29              		.cfi_startproc
  30              		@ args = 0, pretend = 0, frame = 0
  31              		@ frame_needed = 0, uses_anonymous_args = 0
  32              	.LVL0:
  33 0000 F8B5     		push	{r3, r4, r5, r6, r7, lr}
  34              		.cfi_def_cfa_offset 24
  35              		.cfi_offset 3, -24
  36              		.cfi_offset 4, -20
  37              		.cfi_offset 5, -16
  38              		.cfi_offset 6, -12
  39              		.cfi_offset 7, -8
  40              		.cfi_offset 14, -4
  41              		.loc 1 268 0
  42 0002 0646     		mov	r6, r0
  43              		.loc 1 271 0
  44 0004 0B20     		movs	r0, #11
  45              	.LVL1:
  46              		.loc 1 268 0
  47 0006 0D46     		mov	r5, r1
  48 0008 1746     		mov	r7, r2
  49              		.loc 1 271 0
  50 000a FFF7FEFF 		bl	memp_malloc
  51              	.LVL2:
  52              		.loc 1 272 0
  53 000e 38B3     		cbz	r0, .L15
  54              		.loc 1 286 0
  55 0010 40F20003 		movw	r3, #:lower16:.LANCHOR0
  56 0014 C0F20003 		movt	r3, #:upper16:.LANCHOR0
  57              		.loc 1 276 0
ARM GAS  /tmp/cc8g7J8V.s 			page 2


  58 0018 0022     		movs	r2, #0
  59              		.loc 1 286 0
  60 001a 1C68     		ldr	r4, [r3]
  61              		.loc 1 277 0
  62 001c 8560     		str	r5, [r0, #8]
  63              		.loc 1 278 0
  64 001e C760     		str	r7, [r0, #12]
  65              		.loc 1 276 0
  66 0020 80E84400 		stmia	r0, {r2, r6}
  67              		.loc 1 286 0
  68 0024 D4B1     		cbz	r4, .L16
  69              		.loc 1 291 0
  70 0026 6168     		ldr	r1, [r4, #4]
  71 0028 8E42     		cmp	r6, r1
  72 002a 28BF     		it	cs
  73 002c 3246     		movcs	r2, r6
  74 002e 08D2     		bcs	.L7
  75              		.loc 1 292 0
  76 0030 891B     		subs	r1, r1, r6
  77 0032 6160     		str	r1, [r4, #4]
  78              		.loc 1 294 0
  79 0034 1860     		str	r0, [r3]
  80              		.loc 1 293 0
  81 0036 0460     		str	r4, [r0]
  82 0038 F8BD     		pop	{r3, r4, r5, r6, r7, pc}
  83              	.LVL3:
  84              	.L13:
  85              		.loc 1 298 0 discriminator 1
  86 003a 5968     		ldr	r1, [r3, #4]
  87 003c 8A42     		cmp	r2, r1
  88 003e 08D3     		bcc	.L6
  89 0040 1C46     		mov	r4, r3
  90              	.LVL4:
  91              	.L7:
  92 0042 2368     		ldr	r3, [r4]
  93              		.loc 1 297 0 discriminator 1
  94 0044 521A     		subs	r2, r2, r1
  95 0046 4260     		str	r2, [r0, #4]
  96              		.loc 1 298 0 discriminator 1
  97 0048 002B     		cmp	r3, #0
  98 004a F6D1     		bne	.L13
  99              		.loc 1 302 0
 100 004c 0360     		str	r3, [r0]
 101              		.loc 1 303 0
 102 004e 2060     		str	r0, [r4]
 103              		.loc 1 304 0
 104 0050 F8BD     		pop	{r3, r4, r5, r6, r7, pc}
 105              	.LVL5:
 106              	.L6:
 107              		.loc 1 300 0
 108 0052 8A1A     		subs	r2, r1, r2
 109 0054 5A60     		str	r2, [r3, #4]
 110              		.loc 1 302 0
 111 0056 0360     		str	r3, [r0]
 112              		.loc 1 303 0
 113 0058 2060     		str	r0, [r4]
 114              		.loc 1 304 0
ARM GAS  /tmp/cc8g7J8V.s 			page 3


 115 005a F8BD     		pop	{r3, r4, r5, r6, r7, pc}
 116              	.LVL6:
 117              	.L16:
 118              		.loc 1 287 0
 119 005c 1860     		str	r0, [r3]
 120              		.loc 1 288 0
 121 005e F8BD     		pop	{r3, r4, r5, r6, r7, pc}
 122              	.LVL7:
 123              	.L15:
 124              		.loc 1 308 0 discriminator 1
 125 0060 BDE8F840 		pop	{r3, r4, r5, r6, r7, lr}
 126              	.LVL8:
 127              		.loc 1 273 0 discriminator 1
 128 0064 FFF7FEBF 		b	port_halt
 129              	.LVL9:
 130              		.cfi_endproc
 131              	.LFE12:
 132              		.size	sys_timeout, .-sys_timeout
 133 0068 AFF30080 		.section	.text.tcp_timer_needed,"ax",%progbits
 133      AFF30080 
 134              		.align	2
 135              		.p2align 4,,15
 136              		.global	tcp_timer_needed
 137              		.thumb
 138              		.thumb_func
 139              		.type	tcp_timer_needed, %function
 140              	tcp_timer_needed:
 141              	.LFB8:
 142              		.loc 1 102 0
 143              		.cfi_startproc
 144              		@ args = 0, pretend = 0, frame = 0
 145              		@ frame_needed = 0, uses_anonymous_args = 0
 146              		@ link register save eliminated.
 147              		.loc 1 104 0
 148 0000 40F20003 		movw	r3, #:lower16:.LANCHOR1
 149 0004 C0F20003 		movt	r3, #:upper16:.LANCHOR1
 150              		.loc 1 102 0
 151 0008 10B4     		push	{r4}
 152              		.cfi_def_cfa_offset 4
 153              		.cfi_offset 4, -4
 154              		.loc 1 104 0
 155 000a 1A68     		ldr	r2, [r3]
 156 000c C2B9     		cbnz	r2, .L17
 157              		.loc 1 104 0 is_stmt 0 discriminator 1
 158 000e 40F20002 		movw	r2, #:lower16:tcp_active_pcbs
 159 0012 C0F20002 		movt	r2, #:upper16:tcp_active_pcbs
 160 0016 1268     		ldr	r2, [r2]
 161 0018 5AB1     		cbz	r2, .L23
 162              	.L19:
 163              		.loc 1 106 0 is_stmt 1
 164 001a 0124     		movs	r4, #1
 165              		.loc 1 107 0
 166 001c 40F20001 		movw	r1, #:lower16:tcpip_tcp_timer
 167              		.loc 1 106 0
 168 0020 1C60     		str	r4, [r3]
 169              		.loc 1 107 0
 170 0022 C0F20001 		movt	r1, #:upper16:tcpip_tcp_timer
ARM GAS  /tmp/cc8g7J8V.s 			page 4


 171 0026 FA20     		movs	r0, #250
 172 0028 0022     		movs	r2, #0
 173              		.loc 1 109 0
 174 002a 5DF8044B 		ldr	r4, [sp], #4
 175              		.loc 1 107 0
 176 002e FFF7FEBF 		b	sys_timeout
 177              	.LVL10:
 178              	.L23:
 179              		.loc 1 104 0 discriminator 1
 180 0032 40F20002 		movw	r2, #:lower16:tcp_tw_pcbs
 181 0036 C0F20002 		movt	r2, #:upper16:tcp_tw_pcbs
 182 003a 1268     		ldr	r2, [r2]
 183 003c 002A     		cmp	r2, #0
 184 003e ECD1     		bne	.L19
 185              	.L17:
 186              		.loc 1 109 0
 187 0040 5DF8044B 		ldr	r4, [sp], #4
 188 0044 7047     		bx	lr
 189              		.cfi_endproc
 190              	.LFE8:
 191              		.size	tcp_timer_needed, .-tcp_timer_needed
 192 0046 00BFAFF3 		.section	.text.tcpip_tcp_timer,"ax",%progbits
 192      0080AFF3 
 192      0080
 193              		.align	2
 194              		.p2align 4,,15
 195              		.thumb
 196              		.thumb_func
 197              		.type	tcpip_tcp_timer, %function
 198              	tcpip_tcp_timer:
 199              	.LFB7:
 200              		.loc 1 80 0
 201              		.cfi_startproc
 202              		@ args = 0, pretend = 0, frame = 0
 203              		@ frame_needed = 0, uses_anonymous_args = 0
 204              	.LVL11:
 205 0000 08B5     		push	{r3, lr}
 206              		.cfi_def_cfa_offset 8
 207              		.cfi_offset 3, -8
 208              		.cfi_offset 14, -4
 209              		.loc 1 84 0
 210 0002 FFF7FEFF 		bl	tcp_tmr
 211              	.LVL12:
 212              		.loc 1 86 0
 213 0006 40F20003 		movw	r3, #:lower16:tcp_active_pcbs
 214 000a C0F20003 		movt	r3, #:upper16:tcp_active_pcbs
 215 000e 1B68     		ldr	r3, [r3]
 216 0010 4BB1     		cbz	r3, .L27
 217              	.L25:
 218              		.loc 1 88 0
 219 0012 40F20001 		movw	r1, #:lower16:tcpip_tcp_timer
 220 0016 C0F20001 		movt	r1, #:upper16:tcpip_tcp_timer
 221 001a FA20     		movs	r0, #250
 222 001c 0022     		movs	r2, #0
 223              		.loc 1 93 0
 224 001e BDE80840 		pop	{r3, lr}
 225              		.loc 1 88 0
ARM GAS  /tmp/cc8g7J8V.s 			page 5


 226 0022 FFF7FEBF 		b	sys_timeout
 227              	.LVL13:
 228              	.L27:
 229              		.loc 1 86 0 discriminator 1
 230 0026 40F20003 		movw	r3, #:lower16:tcp_tw_pcbs
 231 002a C0F20003 		movt	r3, #:upper16:tcp_tw_pcbs
 232 002e 1B68     		ldr	r3, [r3]
 233 0030 002B     		cmp	r3, #0
 234 0032 EED1     		bne	.L25
 235              		.loc 1 91 0
 236 0034 40F20002 		movw	r2, #:lower16:.LANCHOR1
 237 0038 C0F20002 		movt	r2, #:upper16:.LANCHOR1
 238 003c 1360     		str	r3, [r2]
 239 003e 08BD     		pop	{r3, pc}
 240              		.cfi_endproc
 241              	.LFE7:
 242              		.size	tcpip_tcp_timer, .-tcpip_tcp_timer
 243              		.section	.text.sys_timeouts_init,"ax",%progbits
 244              		.align	2
 245              		.p2align 4,,15
 246              		.global	sys_timeouts_init
 247              		.thumb
 248              		.thumb_func
 249              		.type	sys_timeouts_init, %function
 250              	sys_timeouts_init:
 251              	.LFB11:
 252              		.loc 1 224 0
 253              		.cfi_startproc
 254              		@ args = 0, pretend = 0, frame = 0
 255              		@ frame_needed = 0, uses_anonymous_args = 0
 256 0000 08B5     		push	{r3, lr}
 257              		.cfi_def_cfa_offset 8
 258              		.cfi_offset 3, -8
 259              		.cfi_offset 14, -4
 260              		.loc 1 226 0
 261 0002 40F20001 		movw	r1, #:lower16:ip_reass_timer
 262 0006 C0F20001 		movt	r1, #:upper16:ip_reass_timer
 263 000a 4FF47A70 		mov	r0, #1000
 264 000e 0022     		movs	r2, #0
 265 0010 FFF7FEFF 		bl	sys_timeout
 266              	.LVL14:
 267              		.loc 1 229 0
 268 0014 40F20001 		movw	r1, #:lower16:arp_timer
 269 0018 C0F20001 		movt	r1, #:upper16:arp_timer
 270 001c 41F28830 		movw	r0, #5000
 271 0020 0022     		movs	r2, #0
 272              		.loc 1 249 0
 273 0022 BDE80840 		pop	{r3, lr}
 274              		.loc 1 229 0
 275 0026 FFF7FEBF 		b	sys_timeout
 276              	.LVL15:
 277              		.cfi_endproc
 278              	.LFE11:
 279              		.size	sys_timeouts_init, .-sys_timeouts_init
 280 002a 00BFAFF3 		.section	.text.arp_timer,"ax",%progbits
 280      0080
 281              		.align	2
ARM GAS  /tmp/cc8g7J8V.s 			page 6


 282              		.p2align 4,,15
 283              		.thumb
 284              		.thumb_func
 285              		.type	arp_timer, %function
 286              	arp_timer:
 287              	.LFB10:
 288              		.loc 1 136 0
 289              		.cfi_startproc
 290              		@ args = 0, pretend = 0, frame = 0
 291              		@ frame_needed = 0, uses_anonymous_args = 0
 292              	.LVL16:
 293 0000 08B5     		push	{r3, lr}
 294              		.cfi_def_cfa_offset 8
 295              		.cfi_offset 3, -8
 296              		.cfi_offset 14, -4
 297              		.loc 1 139 0
 298 0002 FFF7FEFF 		bl	etharp_tmr
 299              	.LVL17:
 300              		.loc 1 140 0
 301 0006 40F20001 		movw	r1, #:lower16:arp_timer
 302 000a C0F20001 		movt	r1, #:upper16:arp_timer
 303 000e 41F28830 		movw	r0, #5000
 304 0012 0022     		movs	r2, #0
 305              		.loc 1 141 0
 306 0014 BDE80840 		pop	{r3, lr}
 307              		.loc 1 140 0
 308 0018 FFF7FEBF 		b	sys_timeout
 309              	.LVL18:
 310              		.cfi_endproc
 311              	.LFE10:
 312              		.size	arp_timer, .-arp_timer
 313 001c AFF30080 		.section	.text.ip_reass_timer,"ax",%progbits
 314              		.align	2
 315              		.p2align 4,,15
 316              		.thumb
 317              		.thumb_func
 318              		.type	ip_reass_timer, %function
 319              	ip_reass_timer:
 320              	.LFB9:
 321              		.loc 1 120 0
 322              		.cfi_startproc
 323              		@ args = 0, pretend = 0, frame = 0
 324              		@ frame_needed = 0, uses_anonymous_args = 0
 325              	.LVL19:
 326 0000 08B5     		push	{r3, lr}
 327              		.cfi_def_cfa_offset 8
 328              		.cfi_offset 3, -8
 329              		.cfi_offset 14, -4
 330              		.loc 1 123 0
 331 0002 FFF7FEFF 		bl	ip_reass_tmr
 332              	.LVL20:
 333              		.loc 1 124 0
 334 0006 40F20001 		movw	r1, #:lower16:ip_reass_timer
 335 000a C0F20001 		movt	r1, #:upper16:ip_reass_timer
 336 000e 4FF47A70 		mov	r0, #1000
 337 0012 0022     		movs	r2, #0
 338              		.loc 1 125 0
ARM GAS  /tmp/cc8g7J8V.s 			page 7


 339 0014 BDE80840 		pop	{r3, lr}
 340              		.loc 1 124 0
 341 0018 FFF7FEBF 		b	sys_timeout
 342              	.LVL21:
 343              		.cfi_endproc
 344              	.LFE9:
 345              		.size	ip_reass_timer, .-ip_reass_timer
 346 001c AFF30080 		.section	.text.sys_untimeout,"ax",%progbits
 347              		.align	2
 348              		.p2align 4,,15
 349              		.global	sys_untimeout
 350              		.thumb
 351              		.thumb_func
 352              		.type	sys_untimeout, %function
 353              	sys_untimeout:
 354              	.LFB13:
 355              		.loc 1 322 0
 356              		.cfi_startproc
 357              		@ args = 0, pretend = 0, frame = 0
 358              		@ frame_needed = 0, uses_anonymous_args = 0
 359              		@ link register save eliminated.
 360              	.LVL22:
 361 0000 30B4     		push	{r4, r5}
 362              		.cfi_def_cfa_offset 8
 363              		.cfi_offset 4, -8
 364              		.cfi_offset 5, -4
 365              		.loc 1 325 0
 366 0002 40F20005 		movw	r5, #:lower16:.LANCHOR0
 367 0006 C0F20005 		movt	r5, #:upper16:.LANCHOR0
 368 000a 2B68     		ldr	r3, [r5]
 369 000c CBB1     		cbz	r3, .L31
 370 000e 0024     		movs	r4, #0
 371 0010 03E0     		b	.L37
 372              	.LVL23:
 373              	.L33:
 374              		.loc 1 329 0
 375 0012 1A68     		ldr	r2, [r3]
 376              	.LVL24:
 377 0014 AAB1     		cbz	r2, .L31
 378 0016 1C46     		mov	r4, r3
 379 0018 1346     		mov	r3, r2
 380              	.LVL25:
 381              	.L37:
 382              		.loc 1 330 0
 383 001a 9A68     		ldr	r2, [r3, #8]
 384 001c 8242     		cmp	r2, r0
 385 001e F8D1     		bne	.L33
 386              		.loc 1 330 0 is_stmt 0 discriminator 1
 387 0020 DA68     		ldr	r2, [r3, #12]
 388 0022 8A42     		cmp	r2, r1
 389 0024 F5D1     		bne	.L33
 390              		.loc 1 334 0 is_stmt 1
 391 0026 1A68     		ldr	r2, [r3]
 392              		.loc 1 333 0
 393 0028 6CB1     		cbz	r4, .L47
 394              		.loc 1 336 0
 395 002a 2260     		str	r2, [r4]
ARM GAS  /tmp/cc8g7J8V.s 			page 8


 396 002c 1A68     		ldr	r2, [r3]
 397              	.L35:
 398              		.loc 1 339 0
 399 002e 1AB1     		cbz	r2, .L36
 400              		.loc 1 340 0
 401 0030 5068     		ldr	r0, [r2, #4]
 402              	.LVL26:
 403 0032 5968     		ldr	r1, [r3, #4]
 404              	.LVL27:
 405 0034 0144     		add	r1, r1, r0
 406 0036 5160     		str	r1, [r2, #4]
 407              	.L36:
 408              		.loc 1 342 0
 409 0038 1946     		mov	r1, r3
 410 003a 0B20     		movs	r0, #11
 411              		.loc 1 347 0
 412 003c 30BC     		pop	{r4, r5}
 413              		.loc 1 342 0
 414 003e FFF7FEBF 		b	memp_free
 415              	.LVL28:
 416              	.L31:
 417              		.loc 1 347 0
 418 0042 30BC     		pop	{r4, r5}
 419 0044 7047     		bx	lr
 420              	.LVL29:
 421              	.L47:
 422              		.loc 1 334 0
 423 0046 2A60     		str	r2, [r5]
 424 0048 F1E7     		b	.L35
 425              		.cfi_endproc
 426              	.LFE13:
 427              		.size	sys_untimeout, .-sys_untimeout
 428 004a 00BFAFF3 		.section	.text.sys_timeouts_mbox_fetch,"ax",%progbits
 428      0080
 429              		.align	2
 430              		.p2align 4,,15
 431              		.global	sys_timeouts_mbox_fetch
 432              		.thumb
 433              		.thumb_func
 434              		.type	sys_timeouts_mbox_fetch, %function
 435              	sys_timeouts_mbox_fetch:
 436              	.LFB14:
 437              		.loc 1 424 0
 438              		.cfi_startproc
 439              		@ args = 0, pretend = 0, frame = 0
 440              		@ frame_needed = 0, uses_anonymous_args = 0
 441              	.LVL30:
 442 0000 2DE9F843 		push	{r3, r4, r5, r6, r7, r8, r9, lr}
 443              		.cfi_def_cfa_offset 32
 444              		.cfi_offset 3, -32
 445              		.cfi_offset 4, -28
 446              		.cfi_offset 5, -24
 447              		.cfi_offset 6, -20
 448              		.cfi_offset 7, -16
 449              		.cfi_offset 8, -12
 450              		.cfi_offset 9, -8
 451              		.cfi_offset 14, -4
ARM GAS  /tmp/cc8g7J8V.s 			page 9


 452 0004 40F20005 		movw	r5, #:lower16:.LANCHOR0
 453 0008 C0F20005 		movt	r5, #:upper16:.LANCHOR0
 454              		.loc 1 424 0
 455 000c 0746     		mov	r7, r0
 456 000e 0E46     		mov	r6, r1
 457              		.loc 1 431 0
 458 0010 A846     		mov	r8, r5
 459 0012 09E0     		b	.L53
 460              	.LVL31:
 461              	.L50:
 462              		.loc 1 445 0
 463 0014 1368     		ldr	r3, [r2]
 464              		.loc 1 446 0
 465 0016 9468     		ldr	r4, [r2, #8]
 466              	.LVL32:
 467              		.loc 1 445 0
 468 0018 2B60     		str	r3, [r5]
 469              		.loc 1 454 0
 470 001a 0B20     		movs	r0, #11
 471 001c 1146     		mov	r1, r2
 472              		.loc 1 447 0
 473 001e D2F80C90 		ldr	r9, [r2, #12]
 474              	.LVL33:
 475              		.loc 1 454 0
 476 0022 FFF7FEFF 		bl	memp_free
 477              	.LVL34:
 478              		.loc 1 455 0
 479 0026 14BB     		cbnz	r4, .L58
 480              	.LVL35:
 481              	.L53:
 482              		.loc 1 431 0
 483 0028 2A68     		ldr	r2, [r5]
 484 002a 40F20004 		movw	r4, #:lower16:.LANCHOR0
 485 002e C0F20004 		movt	r4, #:upper16:.LANCHOR0
 486 0032 62B1     		cbz	r2, .L59
 487              		.loc 1 434 0
 488 0034 5368     		ldr	r3, [r2, #4]
 489 0036 002B     		cmp	r3, #0
 490 0038 ECD0     		beq	.L50
 491              		.loc 1 435 0
 492 003a 1A46     		mov	r2, r3
 493 003c 3846     		mov	r0, r7
 494 003e 3146     		mov	r1, r6
 495 0040 FFF7FEFF 		bl	sys_arch_mbox_fetch
 496              	.LVL36:
 497              		.loc 1 440 0
 498 0044 431C     		adds	r3, r0, #1
 499 0046 08D1     		bne	.L51
 500 0048 D8F80020 		ldr	r2, [r8]
 501 004c E2E7     		b	.L50
 502              	.LVL37:
 503              	.L59:
 504              		.loc 1 432 0
 505 004e 3846     		mov	r0, r7
 506 0050 3146     		mov	r1, r6
 507              		.loc 1 477 0
 508 0052 BDE8F843 		pop	{r3, r4, r5, r6, r7, r8, r9, lr}
ARM GAS  /tmp/cc8g7J8V.s 			page 10


 509              	.LVL38:
 510              		.loc 1 432 0
 511 0056 FFF7FEBF 		b	sys_arch_mbox_fetch
 512              	.LVL39:
 513              	.L51:
 514              		.loc 1 470 0
 515 005a 2368     		ldr	r3, [r4]
 516 005c 5A68     		ldr	r2, [r3, #4]
 517 005e 8242     		cmp	r2, r0
 518              		.loc 1 471 0
 519 0060 8CBF     		ite	hi
 520 0062 C0EB0202 		rsbhi	r2, r0, r2
 521              		.loc 1 473 0
 522 0066 0022     		movls	r2, #0
 523 0068 5A60     		str	r2, [r3, #4]
 524 006a BDE8F883 		pop	{r3, r4, r5, r6, r7, r8, r9, pc}
 525              	.LVL40:
 526              	.L58:
 527              		.loc 1 459 0
 528 006e 4846     		mov	r0, r9
 529 0070 A047     		blx	r4
 530              	.LVL41:
 531 0072 D9E7     		b	.L53
 532              		.cfi_endproc
 533              	.LFE14:
 534              		.size	sys_timeouts_mbox_fetch, .-sys_timeouts_mbox_fetch
 535 0074 AFF30080 		.section	.bss.tcpip_tcp_timer_active,"aw",%nobits
 535      AFF30080 
 535      AFF30080 
 536              		.align	2
 537              		.set	.LANCHOR1,. + 0
 538              		.type	tcpip_tcp_timer_active, %object
 539              		.size	tcpip_tcp_timer_active, 4
 540              	tcpip_tcp_timer_active:
 541 0000 00000000 		.space	4
 542              		.section	.bss.next_timeout,"aw",%nobits
 543              		.align	2
 544              		.set	.LANCHOR0,. + 0
 545              		.type	next_timeout, %object
 546              		.size	next_timeout, 4
 547              	next_timeout:
 548 0000 00000000 		.space	4
 549              		.text
 550              	.Letext0:
 551              		.file 2 "/usr/include/newlib/machine/_default_types.h"
 552              		.file 3 "/usr/include/newlib/stdint.h"
 553              		.file 4 "../../os/ports/GCC/ARMCMx/chtypes.h"
 554              		.file 5 "../../os/kernel/include/chlists.h"
 555              		.file 6 "../../os/kernel/include/chthreads.h"
 556              		.file 7 "../../os/ports/GCC/ARMCMx/chcore_v7m.h"
 557              		.file 8 "../../os/kernel/include/chsem.h"
 558              		.file 9 "../../os/kernel/include/chmtx.h"
 559              		.file 10 "../../os/kernel/include/chmboxes.h"
 560              		.file 11 "../../os/various/lwip_bindings/arch/cc.h"
 561              		.file 12 "../../ext/lwip/src/include/lwip/err.h"
 562              		.file 13 "../../os/various/lwip_bindings/arch/sys_arch.h"
 563              		.file 14 "../../ext/lwip/src/include/lwip/timers.h"
ARM GAS  /tmp/cc8g7J8V.s 			page 11


 564              		.file 15 "../../ext/lwip/src/include/lwip/pbuf.h"
 565              		.file 16 "../../ext/lwip/src/include/ipv4/lwip/ip_addr.h"
 566              		.file 17 "../../ext/lwip/src/include/lwip/tcp.h"
 567              		.file 18 "../../ext/lwip/src/include/lwip/tcp_impl.h"
 568              		.file 19 "../../ext/lwip/src/include/lwip/memp.h"
 569              		.file 20 "../../ext/lwip/src/include/netif/etharp.h"
 570              		.file 21 "../../ext/lwip/src/include/ipv4/lwip/ip_frag.h"
 571              		.file 22 "../../ext/lwip/src/include/lwip/sys.h"
 572              		.section	.debug_info,"",%progbits
 573              	.Ldebug_info0:
 574 0000 A50E0000 		.4byte	0xea5
 575 0004 0400     		.2byte	0x4
 576 0006 00000000 		.4byte	.Ldebug_abbrev0
 577 000a 04       		.byte	0x4
 578 000b 01       		.uleb128 0x1
 579 000c E8060000 		.4byte	.LASF210
 580 0010 01       		.byte	0x1
 581 0011 0C030000 		.4byte	.LASF211
 582 0015 59000000 		.4byte	.LASF212
 583 0019 00000000 		.4byte	.Ldebug_ranges0+0
 584 001d 00000000 		.4byte	0
 585 0021 00000000 		.4byte	.Ldebug_line0
 586 0025 02       		.uleb128 0x2
 587 0026 04       		.byte	0x4
 588 0027 05       		.byte	0x5
 589 0028 696E7400 		.ascii	"int\000"
 590 002c 03       		.uleb128 0x3
 591 002d 04       		.byte	0x4
 592 002e 07       		.byte	0x7
 593 002f 07010000 		.4byte	.LASF0
 594 0033 04       		.uleb128 0x4
 595 0034 36050000 		.4byte	.LASF2
 596 0038 02       		.byte	0x2
 597 0039 1B       		.byte	0x1b
 598 003a 3E000000 		.4byte	0x3e
 599 003e 03       		.uleb128 0x3
 600 003f 01       		.byte	0x1
 601 0040 06       		.byte	0x6
 602 0041 98080000 		.4byte	.LASF1
 603 0045 04       		.uleb128 0x4
 604 0046 45060000 		.4byte	.LASF3
 605 004a 02       		.byte	0x2
 606 004b 1C       		.byte	0x1c
 607 004c 50000000 		.4byte	0x50
 608 0050 03       		.uleb128 0x3
 609 0051 01       		.byte	0x1
 610 0052 08       		.byte	0x8
 611 0053 D6070000 		.4byte	.LASF4
 612 0057 04       		.uleb128 0x4
 613 0058 C2040000 		.4byte	.LASF5
 614 005c 02       		.byte	0x2
 615 005d 25       		.byte	0x25
 616 005e 62000000 		.4byte	0x62
 617 0062 03       		.uleb128 0x3
 618 0063 02       		.byte	0x2
 619 0064 05       		.byte	0x5
 620 0065 96050000 		.4byte	.LASF6
ARM GAS  /tmp/cc8g7J8V.s 			page 12


 621 0069 04       		.uleb128 0x4
 622 006a 3E020000 		.4byte	.LASF7
 623 006e 02       		.byte	0x2
 624 006f 26       		.byte	0x26
 625 0070 74000000 		.4byte	0x74
 626 0074 03       		.uleb128 0x3
 627 0075 02       		.byte	0x2
 628 0076 07       		.byte	0x7
 629 0077 AC080000 		.4byte	.LASF8
 630 007b 04       		.uleb128 0x4
 631 007c 55010000 		.4byte	.LASF9
 632 0080 02       		.byte	0x2
 633 0081 37       		.byte	0x37
 634 0082 86000000 		.4byte	0x86
 635 0086 03       		.uleb128 0x3
 636 0087 04       		.byte	0x4
 637 0088 05       		.byte	0x5
 638 0089 BC050000 		.4byte	.LASF10
 639 008d 04       		.uleb128 0x4
 640 008e E4070000 		.4byte	.LASF11
 641 0092 02       		.byte	0x2
 642 0093 38       		.byte	0x38
 643 0094 98000000 		.4byte	0x98
 644 0098 03       		.uleb128 0x3
 645 0099 04       		.byte	0x4
 646 009a 07       		.byte	0x7
 647 009b D6060000 		.4byte	.LASF12
 648 009f 03       		.uleb128 0x3
 649 00a0 08       		.byte	0x8
 650 00a1 05       		.byte	0x5
 651 00a2 65040000 		.4byte	.LASF13
 652 00a6 03       		.uleb128 0x3
 653 00a7 08       		.byte	0x8
 654 00a8 07       		.byte	0x7
 655 00a9 27020000 		.4byte	.LASF14
 656 00ad 04       		.uleb128 0x4
 657 00ae D9010000 		.4byte	.LASF15
 658 00b2 03       		.byte	0x3
 659 00b3 29       		.byte	0x29
 660 00b4 33000000 		.4byte	0x33
 661 00b8 04       		.uleb128 0x4
 662 00b9 FC030000 		.4byte	.LASF16
 663 00bd 03       		.byte	0x3
 664 00be 2A       		.byte	0x2a
 665 00bf 45000000 		.4byte	0x45
 666 00c3 04       		.uleb128 0x4
 667 00c4 17020000 		.4byte	.LASF17
 668 00c8 03       		.byte	0x3
 669 00c9 35       		.byte	0x35
 670 00ca 57000000 		.4byte	0x57
 671 00ce 04       		.uleb128 0x4
 672 00cf 53050000 		.4byte	.LASF18
 673 00d3 03       		.byte	0x3
 674 00d4 36       		.byte	0x36
 675 00d5 69000000 		.4byte	0x69
 676 00d9 04       		.uleb128 0x4
 677 00da B4070000 		.4byte	.LASF19
ARM GAS  /tmp/cc8g7J8V.s 			page 13


 678 00de 03       		.byte	0x3
 679 00df 41       		.byte	0x41
 680 00e0 7B000000 		.4byte	0x7b
 681 00e4 04       		.uleb128 0x4
 682 00e5 D0010000 		.4byte	.LASF20
 683 00e9 03       		.byte	0x3
 684 00ea 42       		.byte	0x42
 685 00eb 8D000000 		.4byte	0x8d
 686 00ef 03       		.uleb128 0x3
 687 00f0 01       		.byte	0x1
 688 00f1 02       		.byte	0x2
 689 00f2 F5020000 		.4byte	.LASF21
 690 00f6 04       		.uleb128 0x4
 691 00f7 3F050000 		.4byte	.LASF22
 692 00fb 04       		.byte	0x4
 693 00fc 2C       		.byte	0x2c
 694 00fd B8000000 		.4byte	0xb8
 695 0101 04       		.uleb128 0x4
 696 0102 DE030000 		.4byte	.LASF23
 697 0106 04       		.byte	0x4
 698 0107 2D       		.byte	0x2d
 699 0108 B8000000 		.4byte	0xb8
 700 010c 04       		.uleb128 0x4
 701 010d CE060000 		.4byte	.LASF24
 702 0111 04       		.byte	0x4
 703 0112 2E       		.byte	0x2e
 704 0113 B8000000 		.4byte	0xb8
 705 0117 04       		.uleb128 0x4
 706 0118 FC040000 		.4byte	.LASF25
 707 011c 04       		.byte	0x4
 708 011d 2F       		.byte	0x2f
 709 011e B8000000 		.4byte	0xb8
 710 0122 04       		.uleb128 0x4
 711 0123 0F020000 		.4byte	.LASF26
 712 0127 04       		.byte	0x4
 713 0128 30       		.byte	0x30
 714 0129 E4000000 		.4byte	0xe4
 715 012d 04       		.uleb128 0x4
 716 012e 9D040000 		.4byte	.LASF27
 717 0132 04       		.byte	0x4
 718 0133 31       		.byte	0x31
 719 0134 D9000000 		.4byte	0xd9
 720 0138 04       		.uleb128 0x4
 721 0139 E5010000 		.4byte	.LASF28
 722 013d 04       		.byte	0x4
 723 013e 33       		.byte	0x33
 724 013f E4000000 		.4byte	0xe4
 725 0143 04       		.uleb128 0x4
 726 0144 E2000000 		.4byte	.LASF29
 727 0148 04       		.byte	0x4
 728 0149 35       		.byte	0x35
 729 014a E4000000 		.4byte	0xe4
 730 014e 04       		.uleb128 0x4
 731 014f 49020000 		.4byte	.LASF30
 732 0153 04       		.byte	0x4
 733 0154 36       		.byte	0x36
 734 0155 D9000000 		.4byte	0xd9
ARM GAS  /tmp/cc8g7J8V.s 			page 14


 735 0159 04       		.uleb128 0x4
 736 015a D7030000 		.4byte	.LASF31
 737 015e 05       		.byte	0x5
 738 015f 2A       		.byte	0x2a
 739 0160 64010000 		.4byte	0x164
 740 0164 05       		.uleb128 0x5
 741 0165 D7030000 		.4byte	.LASF31
 742 0169 48       		.byte	0x48
 743 016a 06       		.byte	0x6
 744 016b 5E       		.byte	0x5e
 745 016c 61020000 		.4byte	0x261
 746 0170 06       		.uleb128 0x6
 747 0171 F6050000 		.4byte	.LASF32
 748 0175 06       		.byte	0x6
 749 0176 5F       		.byte	0x5f
 750 0177 82020000 		.4byte	0x282
 751 017b 00       		.byte	0
 752 017c 06       		.uleb128 0x6
 753 017d BE060000 		.4byte	.LASF33
 754 0181 06       		.byte	0x6
 755 0182 61       		.byte	0x61
 756 0183 82020000 		.4byte	0x282
 757 0187 04       		.byte	0x4
 758 0188 06       		.uleb128 0x6
 759 0189 A0000000 		.4byte	.LASF34
 760 018d 06       		.byte	0x6
 761 018e 63       		.byte	0x63
 762 018f 22010000 		.4byte	0x122
 763 0193 08       		.byte	0x8
 764 0194 06       		.uleb128 0x6
 765 0195 13060000 		.4byte	.LASF35
 766 0199 06       		.byte	0x6
 767 019a 64       		.byte	0x64
 768 019b 3C030000 		.4byte	0x33c
 769 019f 0C       		.byte	0xc
 770 01a0 06       		.uleb128 0x6
 771 01a1 5A020000 		.4byte	.LASF36
 772 01a5 06       		.byte	0x6
 773 01a6 66       		.byte	0x66
 774 01a7 82020000 		.4byte	0x282
 775 01ab 10       		.byte	0x10
 776 01ac 06       		.uleb128 0x6
 777 01ad E7030000 		.4byte	.LASF37
 778 01b1 06       		.byte	0x6
 779 01b2 67       		.byte	0x67
 780 01b3 82020000 		.4byte	0x282
 781 01b7 14       		.byte	0x14
 782 01b8 06       		.uleb128 0x6
 783 01b9 73030000 		.4byte	.LASF38
 784 01bd 06       		.byte	0x6
 785 01be 6E       		.byte	0x6e
 786 01bf 83040000 		.4byte	0x483
 787 01c3 18       		.byte	0x18
 788 01c4 06       		.uleb128 0x6
 789 01c5 EF030000 		.4byte	.LASF39
 790 01c9 06       		.byte	0x6
 791 01ca 79       		.byte	0x79
ARM GAS  /tmp/cc8g7J8V.s 			page 15


 792 01cb 01010000 		.4byte	0x101
 793 01cf 1C       		.byte	0x1c
 794 01d0 06       		.uleb128 0x6
 795 01d1 BA040000 		.4byte	.LASF40
 796 01d5 06       		.byte	0x6
 797 01d6 7D       		.byte	0x7d
 798 01d7 F6000000 		.4byte	0xf6
 799 01db 1D       		.byte	0x1d
 800 01dc 06       		.uleb128 0x6
 801 01dd FA070000 		.4byte	.LASF41
 802 01e1 06       		.byte	0x6
 803 01e2 82       		.byte	0x82
 804 01e3 0C010000 		.4byte	0x10c
 805 01e7 1E       		.byte	0x1e
 806 01e8 06       		.uleb128 0x6
 807 01e9 44080000 		.4byte	.LASF42
 808 01ed 06       		.byte	0x6
 809 01ee 88       		.byte	0x88
 810 01ef 17010000 		.4byte	0x117
 811 01f3 1F       		.byte	0x1f
 812 01f4 06       		.uleb128 0x6
 813 01f5 47000000 		.4byte	.LASF43
 814 01f9 06       		.byte	0x6
 815 01fa 8F       		.byte	0x8f
 816 01fb 75030000 		.4byte	0x375
 817 01ff 20       		.byte	0x20
 818 0200 07       		.uleb128 0x7
 819 0201 705F7500 		.ascii	"p_u\000"
 820 0205 06       		.byte	0x6
 821 0206 B4       		.byte	0xb4
 822 0207 4E040000 		.4byte	0x44e
 823 020b 24       		.byte	0x24
 824 020c 06       		.uleb128 0x6
 825 020d 1E000000 		.4byte	.LASF44
 826 0211 06       		.byte	0x6
 827 0212 B9       		.byte	0xb9
 828 0213 A8020000 		.4byte	0x2a8
 829 0217 28       		.byte	0x28
 830 0218 06       		.uleb128 0x6
 831 0219 FC000000 		.4byte	.LASF45
 832 021d 06       		.byte	0x6
 833 021e BF       		.byte	0xbf
 834 021f 88020000 		.4byte	0x288
 835 0223 2C       		.byte	0x2c
 836 0224 06       		.uleb128 0x6
 837 0225 30050000 		.4byte	.LASF46
 838 0229 06       		.byte	0x6
 839 022a C3       		.byte	0xc3
 840 022b 2D010000 		.4byte	0x12d
 841 022f 34       		.byte	0x34
 842 0230 06       		.uleb128 0x6
 843 0231 A9050000 		.4byte	.LASF47
 844 0235 06       		.byte	0x6
 845 0236 C9       		.byte	0xc9
 846 0237 38010000 		.4byte	0x138
 847 023b 38       		.byte	0x38
 848 023c 06       		.uleb128 0x6
ARM GAS  /tmp/cc8g7J8V.s 			page 16


 849 023d 27040000 		.4byte	.LASF48
 850 0241 06       		.byte	0x6
 851 0242 D0       		.byte	0xd0
 852 0243 95040000 		.4byte	0x495
 853 0247 3C       		.byte	0x3c
 854 0248 06       		.uleb128 0x6
 855 0249 7E050000 		.4byte	.LASF49
 856 024d 06       		.byte	0x6
 857 024e D4       		.byte	0xd4
 858 024f 22010000 		.4byte	0x122
 859 0253 40       		.byte	0x40
 860 0254 06       		.uleb128 0x6
 861 0255 1F040000 		.4byte	.LASF50
 862 0259 06       		.byte	0x6
 863 025a DA       		.byte	0xda
 864 025b BE020000 		.4byte	0x2be
 865 025f 44       		.byte	0x44
 866 0260 00       		.byte	0
 867 0261 08       		.uleb128 0x8
 868 0262 08       		.byte	0x8
 869 0263 05       		.byte	0x5
 870 0264 61       		.byte	0x61
 871 0265 82020000 		.4byte	0x282
 872 0269 06       		.uleb128 0x6
 873 026a F6050000 		.4byte	.LASF32
 874 026e 05       		.byte	0x5
 875 026f 62       		.byte	0x62
 876 0270 82020000 		.4byte	0x282
 877 0274 00       		.byte	0
 878 0275 06       		.uleb128 0x6
 879 0276 BE060000 		.4byte	.LASF33
 880 027a 05       		.byte	0x5
 881 027b 64       		.byte	0x64
 882 027c 82020000 		.4byte	0x282
 883 0280 04       		.byte	0x4
 884 0281 00       		.byte	0
 885 0282 09       		.uleb128 0x9
 886 0283 04       		.byte	0x4
 887 0284 59010000 		.4byte	0x159
 888 0288 04       		.uleb128 0x4
 889 0289 A8030000 		.4byte	.LASF51
 890 028d 05       		.byte	0x5
 891 028e 66       		.byte	0x66
 892 028f 61020000 		.4byte	0x261
 893 0293 08       		.uleb128 0x8
 894 0294 04       		.byte	0x4
 895 0295 05       		.byte	0x5
 896 0296 6B       		.byte	0x6b
 897 0297 A8020000 		.4byte	0x2a8
 898 029b 06       		.uleb128 0x6
 899 029c F6050000 		.4byte	.LASF32
 900 02a0 05       		.byte	0x5
 901 02a1 6D       		.byte	0x6d
 902 02a2 82020000 		.4byte	0x282
 903 02a6 00       		.byte	0
 904 02a7 00       		.byte	0
 905 02a8 04       		.uleb128 0x4
ARM GAS  /tmp/cc8g7J8V.s 			page 17


 906 02a9 12000000 		.4byte	.LASF52
 907 02ad 05       		.byte	0x5
 908 02ae 70       		.byte	0x70
 909 02af 93020000 		.4byte	0x293
 910 02b3 04       		.uleb128 0x4
 911 02b4 3C040000 		.4byte	.LASF53
 912 02b8 07       		.byte	0x7
 913 02b9 E5       		.byte	0xe5
 914 02ba BE020000 		.4byte	0x2be
 915 02be 0A       		.uleb128 0xa
 916 02bf 04       		.byte	0x4
 917 02c0 0B       		.uleb128 0xb
 918 02c1 61050000 		.4byte	.LASF54
 919 02c5 24       		.byte	0x24
 920 02c6 07       		.byte	0x7
 921 02c7 0C01     		.2byte	0x10c
 922 02c9 3C030000 		.4byte	0x33c
 923 02cd 0C       		.uleb128 0xc
 924 02ce 723400   		.ascii	"r4\000"
 925 02d1 07       		.byte	0x7
 926 02d2 1F01     		.2byte	0x11f
 927 02d4 B3020000 		.4byte	0x2b3
 928 02d8 00       		.byte	0
 929 02d9 0C       		.uleb128 0xc
 930 02da 723500   		.ascii	"r5\000"
 931 02dd 07       		.byte	0x7
 932 02de 2001     		.2byte	0x120
 933 02e0 B3020000 		.4byte	0x2b3
 934 02e4 04       		.byte	0x4
 935 02e5 0C       		.uleb128 0xc
 936 02e6 723600   		.ascii	"r6\000"
 937 02e9 07       		.byte	0x7
 938 02ea 2101     		.2byte	0x121
 939 02ec B3020000 		.4byte	0x2b3
 940 02f0 08       		.byte	0x8
 941 02f1 0C       		.uleb128 0xc
 942 02f2 723700   		.ascii	"r7\000"
 943 02f5 07       		.byte	0x7
 944 02f6 2201     		.2byte	0x122
 945 02f8 B3020000 		.4byte	0x2b3
 946 02fc 0C       		.byte	0xc
 947 02fd 0C       		.uleb128 0xc
 948 02fe 723800   		.ascii	"r8\000"
 949 0301 07       		.byte	0x7
 950 0302 2301     		.2byte	0x123
 951 0304 B3020000 		.4byte	0x2b3
 952 0308 10       		.byte	0x10
 953 0309 0C       		.uleb128 0xc
 954 030a 723900   		.ascii	"r9\000"
 955 030d 07       		.byte	0x7
 956 030e 2401     		.2byte	0x124
 957 0310 B3020000 		.4byte	0x2b3
 958 0314 14       		.byte	0x14
 959 0315 0C       		.uleb128 0xc
 960 0316 72313000 		.ascii	"r10\000"
 961 031a 07       		.byte	0x7
 962 031b 2501     		.2byte	0x125
ARM GAS  /tmp/cc8g7J8V.s 			page 18


 963 031d B3020000 		.4byte	0x2b3
 964 0321 18       		.byte	0x18
 965 0322 0C       		.uleb128 0xc
 966 0323 72313100 		.ascii	"r11\000"
 967 0327 07       		.byte	0x7
 968 0328 2601     		.2byte	0x126
 969 032a B3020000 		.4byte	0x2b3
 970 032e 1C       		.byte	0x1c
 971 032f 0C       		.uleb128 0xc
 972 0330 6C7200   		.ascii	"lr\000"
 973 0333 07       		.byte	0x7
 974 0334 2701     		.2byte	0x127
 975 0336 B3020000 		.4byte	0x2b3
 976 033a 20       		.byte	0x20
 977 033b 00       		.byte	0
 978 033c 0B       		.uleb128 0xb
 979 033d AD040000 		.4byte	.LASF55
 980 0341 04       		.byte	0x4
 981 0342 07       		.byte	0x7
 982 0343 3101     		.2byte	0x131
 983 0345 57030000 		.4byte	0x357
 984 0349 0C       		.uleb128 0xc
 985 034a 72313300 		.ascii	"r13\000"
 986 034e 07       		.byte	0x7
 987 034f 3201     		.2byte	0x132
 988 0351 57030000 		.4byte	0x357
 989 0355 00       		.byte	0
 990 0356 00       		.byte	0
 991 0357 09       		.uleb128 0x9
 992 0358 04       		.byte	0x4
 993 0359 C0020000 		.4byte	0x2c0
 994 035d 03       		.uleb128 0x3
 995 035e 04       		.byte	0x4
 996 035f 07       		.byte	0x7
 997 0360 C5060000 		.4byte	.LASF56
 998 0364 09       		.uleb128 0x9
 999 0365 04       		.byte	0x4
 1000 0366 6A030000 		.4byte	0x36a
 1001 036a 0D       		.uleb128 0xd
 1002 036b 75030000 		.4byte	0x375
 1003 036f 0E       		.uleb128 0xe
 1004 0370 BE020000 		.4byte	0x2be
 1005 0374 00       		.byte	0
 1006 0375 0F       		.uleb128 0xf
 1007 0376 43010000 		.4byte	0x143
 1008 037a 05       		.uleb128 0x5
 1009 037b 5B060000 		.4byte	.LASF57
 1010 037f 0C       		.byte	0xc
 1011 0380 08       		.byte	0x8
 1012 0381 2C       		.byte	0x2c
 1013 0382 9F030000 		.4byte	0x39f
 1014 0386 06       		.uleb128 0x6
 1015 0387 F4000000 		.4byte	.LASF58
 1016 038b 08       		.byte	0x8
 1017 038c 2D       		.byte	0x2d
 1018 038d 88020000 		.4byte	0x288
 1019 0391 00       		.byte	0
ARM GAS  /tmp/cc8g7J8V.s 			page 19


 1020 0392 06       		.uleb128 0x6
 1021 0393 BC010000 		.4byte	.LASF59
 1022 0397 08       		.byte	0x8
 1023 0398 2F       		.byte	0x2f
 1024 0399 4E010000 		.4byte	0x14e
 1025 039d 08       		.byte	0x8
 1026 039e 00       		.byte	0
 1027 039f 04       		.uleb128 0x4
 1028 03a0 5B060000 		.4byte	.LASF57
 1029 03a4 08       		.byte	0x8
 1030 03a5 30       		.byte	0x30
 1031 03a6 7A030000 		.4byte	0x37a
 1032 03aa 05       		.uleb128 0x5
 1033 03ab 4E030000 		.4byte	.LASF60
 1034 03af 10       		.byte	0x10
 1035 03b0 09       		.byte	0x9
 1036 03b1 2C       		.byte	0x2c
 1037 03b2 DB030000 		.4byte	0x3db
 1038 03b6 06       		.uleb128 0x6
 1039 03b7 B4050000 		.4byte	.LASF61
 1040 03bb 09       		.byte	0x9
 1041 03bc 2D       		.byte	0x2d
 1042 03bd 88020000 		.4byte	0x288
 1043 03c1 00       		.byte	0
 1044 03c2 06       		.uleb128 0x6
 1045 03c3 EC000000 		.4byte	.LASF62
 1046 03c7 09       		.byte	0x9
 1047 03c8 2F       		.byte	0x2f
 1048 03c9 82020000 		.4byte	0x282
 1049 03cd 08       		.byte	0x8
 1050 03ce 06       		.uleb128 0x6
 1051 03cf 91080000 		.4byte	.LASF63
 1052 03d3 09       		.byte	0x9
 1053 03d4 31       		.byte	0x31
 1054 03d5 DB030000 		.4byte	0x3db
 1055 03d9 0C       		.byte	0xc
 1056 03da 00       		.byte	0
 1057 03db 09       		.uleb128 0x9
 1058 03dc 04       		.byte	0x4
 1059 03dd AA030000 		.4byte	0x3aa
 1060 03e1 04       		.uleb128 0x4
 1061 03e2 4E030000 		.4byte	.LASF60
 1062 03e6 09       		.byte	0x9
 1063 03e7 33       		.byte	0x33
 1064 03e8 AA030000 		.4byte	0x3aa
 1065 03ec 08       		.uleb128 0x8
 1066 03ed 28       		.byte	0x28
 1067 03ee 0A       		.byte	0xa
 1068 03ef 33       		.byte	0x33
 1069 03f0 3D040000 		.4byte	0x43d
 1070 03f4 06       		.uleb128 0x6
 1071 03f5 90070000 		.4byte	.LASF64
 1072 03f9 0A       		.byte	0xa
 1073 03fa 34       		.byte	0x34
 1074 03fb 3D040000 		.4byte	0x43d
 1075 03ff 00       		.byte	0
 1076 0400 06       		.uleb128 0x6
ARM GAS  /tmp/cc8g7J8V.s 			page 20


 1077 0401 E9040000 		.4byte	.LASF65
 1078 0405 0A       		.byte	0xa
 1079 0406 36       		.byte	0x36
 1080 0407 3D040000 		.4byte	0x43d
 1081 040b 04       		.byte	0x4
 1082 040c 06       		.uleb128 0x6
 1083 040d A0050000 		.4byte	.LASF66
 1084 0411 0A       		.byte	0xa
 1085 0412 38       		.byte	0x38
 1086 0413 3D040000 		.4byte	0x43d
 1087 0417 08       		.byte	0x8
 1088 0418 06       		.uleb128 0x6
 1089 0419 FB020000 		.4byte	.LASF67
 1090 041d 0A       		.byte	0xa
 1091 041e 39       		.byte	0x39
 1092 041f 3D040000 		.4byte	0x43d
 1093 0423 0C       		.byte	0xc
 1094 0424 06       		.uleb128 0x6
 1095 0425 04040000 		.4byte	.LASF68
 1096 0429 0A       		.byte	0xa
 1097 042a 3A       		.byte	0x3a
 1098 042b 9F030000 		.4byte	0x39f
 1099 042f 10       		.byte	0x10
 1100 0430 06       		.uleb128 0x6
 1101 0431 54030000 		.4byte	.LASF69
 1102 0435 0A       		.byte	0xa
 1103 0436 3C       		.byte	0x3c
 1104 0437 9F030000 		.4byte	0x39f
 1105 043b 1C       		.byte	0x1c
 1106 043c 00       		.byte	0
 1107 043d 09       		.uleb128 0x9
 1108 043e 04       		.byte	0x4
 1109 043f 2D010000 		.4byte	0x12d
 1110 0443 04       		.uleb128 0x4
 1111 0444 A8010000 		.4byte	.LASF70
 1112 0448 0A       		.byte	0xa
 1113 0449 3E       		.byte	0x3e
 1114 044a EC030000 		.4byte	0x3ec
 1115 044e 10       		.uleb128 0x10
 1116 044f 04       		.byte	0x4
 1117 0450 06       		.byte	0x6
 1118 0451 96       		.byte	0x96
 1119 0452 83040000 		.4byte	0x483
 1120 0456 11       		.uleb128 0x11
 1121 0457 C5020000 		.4byte	.LASF71
 1122 045b 06       		.byte	0x6
 1123 045c 9D       		.byte	0x9d
 1124 045d 2D010000 		.4byte	0x12d
 1125 0461 11       		.uleb128 0x11
 1126 0462 1C090000 		.4byte	.LASF72
 1127 0466 06       		.byte	0x6
 1128 0467 A4       		.byte	0xa4
 1129 0468 2D010000 		.4byte	0x12d
 1130 046c 11       		.uleb128 0x11
 1131 046d 71010000 		.4byte	.LASF73
 1132 0471 06       		.byte	0x6
 1133 0472 AB       		.byte	0xab
ARM GAS  /tmp/cc8g7J8V.s 			page 21


 1134 0473 BE020000 		.4byte	0x2be
 1135 0477 11       		.uleb128 0x11
 1136 0478 93010000 		.4byte	.LASF74
 1137 047c 06       		.byte	0x6
 1138 047d B2       		.byte	0xb2
 1139 047e 38010000 		.4byte	0x138
 1140 0482 00       		.byte	0
 1141 0483 09       		.uleb128 0x9
 1142 0484 04       		.byte	0x4
 1143 0485 89040000 		.4byte	0x489
 1144 0489 12       		.uleb128 0x12
 1145 048a 8E040000 		.4byte	0x48e
 1146 048e 03       		.uleb128 0x3
 1147 048f 01       		.byte	0x1
 1148 0490 08       		.byte	0x8
 1149 0491 B5030000 		.4byte	.LASF75
 1150 0495 09       		.uleb128 0x9
 1151 0496 04       		.byte	0x4
 1152 0497 E1030000 		.4byte	0x3e1
 1153 049b 04       		.uleb128 0x4
 1154 049c B5040000 		.4byte	.LASF76
 1155 04a0 0B       		.byte	0xb
 1156 04a1 38       		.byte	0x38
 1157 04a2 B8000000 		.4byte	0xb8
 1158 04a6 04       		.uleb128 0x4
 1159 04a7 3E030000 		.4byte	.LASF77
 1160 04ab 0B       		.byte	0xb
 1161 04ac 39       		.byte	0x39
 1162 04ad AD000000 		.4byte	0xad
 1163 04b1 04       		.uleb128 0x4
 1164 04b2 5F010000 		.4byte	.LASF78
 1165 04b6 0B       		.byte	0xb
 1166 04b7 3A       		.byte	0x3a
 1167 04b8 CE000000 		.4byte	0xce
 1168 04bc 04       		.uleb128 0x4
 1169 04bd AE070000 		.4byte	.LASF79
 1170 04c1 0B       		.byte	0xb
 1171 04c2 3B       		.byte	0x3b
 1172 04c3 C3000000 		.4byte	0xc3
 1173 04c7 04       		.uleb128 0x4
 1174 04c8 90050000 		.4byte	.LASF80
 1175 04cc 0B       		.byte	0xb
 1176 04cd 3C       		.byte	0x3c
 1177 04ce E4000000 		.4byte	0xe4
 1178 04d2 04       		.uleb128 0x4
 1179 04d3 38010000 		.4byte	.LASF81
 1180 04d7 0C       		.byte	0xc
 1181 04d8 2F       		.byte	0x2f
 1182 04d9 A6040000 		.4byte	0x4a6
 1183 04dd 04       		.uleb128 0x4
 1184 04de 28000000 		.4byte	.LASF82
 1185 04e2 0D       		.byte	0xd
 1186 04e3 39       		.byte	0x39
 1187 04e4 E8040000 		.4byte	0x4e8
 1188 04e8 09       		.uleb128 0x9
 1189 04e9 04       		.byte	0x4
 1190 04ea 43040000 		.4byte	0x443
ARM GAS  /tmp/cc8g7J8V.s 			page 22


 1191 04ee 04       		.uleb128 0x4
 1192 04ef AD000000 		.4byte	.LASF83
 1193 04f3 0E       		.byte	0xe
 1194 04f4 41       		.byte	0x41
 1195 04f5 64030000 		.4byte	0x364
 1196 04f9 05       		.uleb128 0x5
 1197 04fa DB050000 		.4byte	.LASF84
 1198 04fe 10       		.byte	0x10
 1199 04ff 0E       		.byte	0xe
 1200 0500 43       		.byte	0x43
 1201 0501 34050000 		.4byte	0x534
 1202 0505 06       		.uleb128 0x6
 1203 0506 25010000 		.4byte	.LASF85
 1204 050a 0E       		.byte	0xe
 1205 050b 44       		.byte	0x44
 1206 050c 34050000 		.4byte	0x534
 1207 0510 00       		.byte	0
 1208 0511 06       		.uleb128 0x6
 1209 0512 55020000 		.4byte	.LASF86
 1210 0516 0E       		.byte	0xe
 1211 0517 45       		.byte	0x45
 1212 0518 C7040000 		.4byte	0x4c7
 1213 051c 04       		.byte	0x4
 1214 051d 07       		.uleb128 0x7
 1215 051e 6800     		.ascii	"h\000"
 1216 0520 0E       		.byte	0xe
 1217 0521 46       		.byte	0x46
 1218 0522 EE040000 		.4byte	0x4ee
 1219 0526 08       		.byte	0x8
 1220 0527 07       		.uleb128 0x7
 1221 0528 61726700 		.ascii	"arg\000"
 1222 052c 0E       		.byte	0xe
 1223 052d 47       		.byte	0x47
 1224 052e BE020000 		.4byte	0x2be
 1225 0532 0C       		.byte	0xc
 1226 0533 00       		.byte	0
 1227 0534 09       		.uleb128 0x9
 1228 0535 04       		.byte	0x4
 1229 0536 F9040000 		.4byte	0x4f9
 1230 053a 05       		.uleb128 0x5
 1231 053b 17080000 		.4byte	.LASF87
 1232 053f 10       		.byte	0x10
 1233 0540 0F       		.byte	0xf
 1234 0541 4F       		.byte	0x4f
 1235 0542 9B050000 		.4byte	0x59b
 1236 0546 06       		.uleb128 0x6
 1237 0547 25010000 		.4byte	.LASF85
 1238 054b 0F       		.byte	0xf
 1239 054c 51       		.byte	0x51
 1240 054d 9B050000 		.4byte	0x59b
 1241 0551 00       		.byte	0
 1242 0552 06       		.uleb128 0x6
 1243 0553 CC020000 		.4byte	.LASF88
 1244 0557 0F       		.byte	0xf
 1245 0558 54       		.byte	0x54
 1246 0559 BE020000 		.4byte	0x2be
 1247 055d 04       		.byte	0x4
ARM GAS  /tmp/cc8g7J8V.s 			page 23


 1248 055e 06       		.uleb128 0x6
 1249 055f BD020000 		.4byte	.LASF89
 1250 0563 0F       		.byte	0xf
 1251 0564 5D       		.byte	0x5d
 1252 0565 B1040000 		.4byte	0x4b1
 1253 0569 08       		.byte	0x8
 1254 056a 07       		.uleb128 0x7
 1255 056b 6C656E00 		.ascii	"len\000"
 1256 056f 0F       		.byte	0xf
 1257 0570 60       		.byte	0x60
 1258 0571 B1040000 		.4byte	0x4b1
 1259 0575 0A       		.byte	0xa
 1260 0576 06       		.uleb128 0x6
 1261 0577 D1070000 		.4byte	.LASF90
 1262 057b 0F       		.byte	0xf
 1263 057c 63       		.byte	0x63
 1264 057d 9B040000 		.4byte	0x49b
 1265 0581 0C       		.byte	0xc
 1266 0582 06       		.uleb128 0x6
 1267 0583 DC000000 		.4byte	.LASF91
 1268 0587 0F       		.byte	0xf
 1269 0588 66       		.byte	0x66
 1270 0589 9B040000 		.4byte	0x49b
 1271 058d 0D       		.byte	0xd
 1272 058e 07       		.uleb128 0x7
 1273 058f 72656600 		.ascii	"ref\000"
 1274 0593 0F       		.byte	0xf
 1275 0594 6D       		.byte	0x6d
 1276 0595 B1040000 		.4byte	0x4b1
 1277 0599 0E       		.byte	0xe
 1278 059a 00       		.byte	0
 1279 059b 09       		.uleb128 0x9
 1280 059c 04       		.byte	0x4
 1281 059d 3A050000 		.4byte	0x53a
 1282 05a1 05       		.uleb128 0x5
 1283 05a2 2E090000 		.4byte	.LASF92
 1284 05a6 04       		.byte	0x4
 1285 05a7 10       		.byte	0x10
 1286 05a8 2C       		.byte	0x2c
 1287 05a9 BA050000 		.4byte	0x5ba
 1288 05ad 06       		.uleb128 0x6
 1289 05ae 4E080000 		.4byte	.LASF93
 1290 05b2 10       		.byte	0x10
 1291 05b3 2D       		.byte	0x2d
 1292 05b4 C7040000 		.4byte	0x4c7
 1293 05b8 00       		.byte	0
 1294 05b9 00       		.byte	0
 1295 05ba 04       		.uleb128 0x4
 1296 05bb E1080000 		.4byte	.LASF94
 1297 05bf 10       		.byte	0x10
 1298 05c0 40       		.byte	0x40
 1299 05c1 A1050000 		.4byte	0x5a1
 1300 05c5 04       		.uleb128 0x4
 1301 05c6 CE000000 		.4byte	.LASF95
 1302 05ca 11       		.byte	0x11
 1303 05cb 3C       		.byte	0x3c
 1304 05cc D0050000 		.4byte	0x5d0
ARM GAS  /tmp/cc8g7J8V.s 			page 24


 1305 05d0 09       		.uleb128 0x9
 1306 05d1 04       		.byte	0x4
 1307 05d2 D6050000 		.4byte	0x5d6
 1308 05d6 13       		.uleb128 0x13
 1309 05d7 D2040000 		.4byte	0x4d2
 1310 05db EF050000 		.4byte	0x5ef
 1311 05df 0E       		.uleb128 0xe
 1312 05e0 BE020000 		.4byte	0x2be
 1313 05e4 0E       		.uleb128 0xe
 1314 05e5 EF050000 		.4byte	0x5ef
 1315 05e9 0E       		.uleb128 0xe
 1316 05ea D2040000 		.4byte	0x4d2
 1317 05ee 00       		.byte	0
 1318 05ef 09       		.uleb128 0x9
 1319 05f0 04       		.byte	0x4
 1320 05f1 F5050000 		.4byte	0x5f5
 1321 05f5 05       		.uleb128 0x5
 1322 05f6 A4080000 		.4byte	.LASF96
 1323 05fa 98       		.byte	0x98
 1324 05fb 11       		.byte	0x11
 1325 05fc A8       		.byte	0xa8
 1326 05fd A7080000 		.4byte	0x8a7
 1327 0601 06       		.uleb128 0x6
 1328 0602 0A060000 		.4byte	.LASF97
 1329 0606 11       		.byte	0x11
 1330 0607 AA       		.byte	0xaa
 1331 0608 BA050000 		.4byte	0x5ba
 1332 060c 00       		.byte	0
 1333 060d 06       		.uleb128 0x6
 1334 060e CB080000 		.4byte	.LASF98
 1335 0612 11       		.byte	0x11
 1336 0613 AA       		.byte	0xaa
 1337 0614 BA050000 		.4byte	0x5ba
 1338 0618 04       		.byte	0x4
 1339 0619 06       		.uleb128 0x6
 1340 061a 4E000000 		.4byte	.LASF99
 1341 061e 11       		.byte	0x11
 1342 061f AA       		.byte	0xaa
 1343 0620 9B040000 		.4byte	0x49b
 1344 0624 08       		.byte	0x8
 1345 0625 07       		.uleb128 0x7
 1346 0626 746F7300 		.ascii	"tos\000"
 1347 062a 11       		.byte	0x11
 1348 062b AA       		.byte	0xaa
 1349 062c 9B040000 		.4byte	0x49b
 1350 0630 09       		.byte	0x9
 1351 0631 07       		.uleb128 0x7
 1352 0632 74746C00 		.ascii	"ttl\000"
 1353 0636 11       		.byte	0x11
 1354 0637 AA       		.byte	0xaa
 1355 0638 9B040000 		.4byte	0x49b
 1356 063c 0A       		.byte	0xa
 1357 063d 06       		.uleb128 0x6
 1358 063e 25010000 		.4byte	.LASF85
 1359 0642 11       		.byte	0x11
 1360 0643 AC       		.byte	0xac
 1361 0644 EF050000 		.4byte	0x5ef
ARM GAS  /tmp/cc8g7J8V.s 			page 25


 1362 0648 0C       		.byte	0xc
 1363 0649 06       		.uleb128 0x6
 1364 064a 26080000 		.4byte	.LASF100
 1365 064e 11       		.byte	0x11
 1366 064f AC       		.byte	0xac
 1367 0650 BE020000 		.4byte	0x2be
 1368 0654 10       		.byte	0x10
 1369 0655 06       		.uleb128 0x6
 1370 0656 92030000 		.4byte	.LASF101
 1371 065a 11       		.byte	0x11
 1372 065b AC       		.byte	0xac
 1373 065c C5050000 		.4byte	0x5c5
 1374 0660 14       		.byte	0x14
 1375 0661 06       		.uleb128 0x6
 1376 0662 65080000 		.4byte	.LASF102
 1377 0666 11       		.byte	0x11
 1378 0667 AC       		.byte	0xac
 1379 0668 51090000 		.4byte	0x951
 1380 066c 18       		.byte	0x18
 1381 066d 06       		.uleb128 0x6
 1382 066e 8D030000 		.4byte	.LASF103
 1383 0672 11       		.byte	0x11
 1384 0673 AC       		.byte	0xac
 1385 0674 9B040000 		.4byte	0x49b
 1386 0678 19       		.byte	0x19
 1387 0679 06       		.uleb128 0x6
 1388 067a 04020000 		.4byte	.LASF104
 1389 067e 11       		.byte	0x11
 1390 067f AC       		.byte	0xac
 1391 0680 B1040000 		.4byte	0x4b1
 1392 0684 1A       		.byte	0x1a
 1393 0685 06       		.uleb128 0x6
 1394 0686 DD040000 		.4byte	.LASF105
 1395 068a 11       		.byte	0x11
 1396 068b AF       		.byte	0xaf
 1397 068c B1040000 		.4byte	0x4b1
 1398 0690 1C       		.byte	0x1c
 1399 0691 06       		.uleb128 0x6
 1400 0692 DC000000 		.4byte	.LASF91
 1401 0696 11       		.byte	0x11
 1402 0697 B1       		.byte	0xb1
 1403 0698 9B040000 		.4byte	0x49b
 1404 069c 1E       		.byte	0x1e
 1405 069d 06       		.uleb128 0x6
 1406 069e C6000000 		.4byte	.LASF106
 1407 06a2 11       		.byte	0x11
 1408 06a3 BF       		.byte	0xbf
 1409 06a4 9B040000 		.4byte	0x49b
 1410 06a8 1F       		.byte	0x1f
 1411 06a9 06       		.uleb128 0x6
 1412 06aa 91060000 		.4byte	.LASF107
 1413 06ae 11       		.byte	0x11
 1414 06af BF       		.byte	0xbf
 1415 06b0 9B040000 		.4byte	0x49b
 1416 06b4 20       		.byte	0x20
 1417 06b5 06       		.uleb128 0x6
 1418 06b6 82030000 		.4byte	.LASF108
ARM GAS  /tmp/cc8g7J8V.s 			page 26


 1419 06ba 11       		.byte	0x11
 1420 06bb C0       		.byte	0xc0
 1421 06bc 9B040000 		.4byte	0x49b
 1422 06c0 21       		.byte	0x21
 1423 06c1 07       		.uleb128 0x7
 1424 06c2 746D7200 		.ascii	"tmr\000"
 1425 06c6 11       		.byte	0x11
 1426 06c7 C1       		.byte	0xc1
 1427 06c8 C7040000 		.4byte	0x4c7
 1428 06cc 24       		.byte	0x24
 1429 06cd 06       		.uleb128 0x6
 1430 06ce 62020000 		.4byte	.LASF109
 1431 06d2 11       		.byte	0x11
 1432 06d3 C4       		.byte	0xc4
 1433 06d4 C7040000 		.4byte	0x4c7
 1434 06d8 28       		.byte	0x28
 1435 06d9 06       		.uleb128 0x6
 1436 06da CC050000 		.4byte	.LASF110
 1437 06de 11       		.byte	0x11
 1438 06df C5       		.byte	0xc5
 1439 06e0 B1040000 		.4byte	0x4b1
 1440 06e4 2C       		.byte	0x2c
 1441 06e5 06       		.uleb128 0x6
 1442 06e6 F0040000 		.4byte	.LASF111
 1443 06ea 11       		.byte	0x11
 1444 06eb C6       		.byte	0xc6
 1445 06ec B1040000 		.4byte	0x4b1
 1446 06f0 2E       		.byte	0x2e
 1447 06f1 06       		.uleb128 0x6
 1448 06f2 80010000 		.4byte	.LASF112
 1449 06f6 11       		.byte	0x11
 1450 06f7 C7       		.byte	0xc7
 1451 06f8 C7040000 		.4byte	0x4c7
 1452 06fc 30       		.byte	0x30
 1453 06fd 06       		.uleb128 0x6
 1454 06fe 4F020000 		.4byte	.LASF113
 1455 0702 11       		.byte	0x11
 1456 0703 CA       		.byte	0xca
 1457 0704 BC040000 		.4byte	0x4bc
 1458 0708 34       		.byte	0x34
 1459 0709 07       		.uleb128 0x7
 1460 070a 6D737300 		.ascii	"mss\000"
 1461 070e 11       		.byte	0x11
 1462 070f CC       		.byte	0xcc
 1463 0710 B1040000 		.4byte	0x4b1
 1464 0714 36       		.byte	0x36
 1465 0715 06       		.uleb128 0x6
 1466 0716 D4050000 		.4byte	.LASF114
 1467 071a 11       		.byte	0x11
 1468 071b CF       		.byte	0xcf
 1469 071c C7040000 		.4byte	0x4c7
 1470 0720 38       		.byte	0x38
 1471 0721 06       		.uleb128 0x6
 1472 0722 6D030000 		.4byte	.LASF115
 1473 0726 11       		.byte	0x11
 1474 0727 D0       		.byte	0xd0
 1475 0728 C7040000 		.4byte	0x4c7
ARM GAS  /tmp/cc8g7J8V.s 			page 27


 1476 072c 3C       		.byte	0x3c
 1477 072d 07       		.uleb128 0x7
 1478 072e 736100   		.ascii	"sa\000"
 1479 0731 11       		.byte	0x11
 1480 0732 D1       		.byte	0xd1
 1481 0733 BC040000 		.4byte	0x4bc
 1482 0737 40       		.byte	0x40
 1483 0738 07       		.uleb128 0x7
 1484 0739 737600   		.ascii	"sv\000"
 1485 073c 11       		.byte	0x11
 1486 073d D1       		.byte	0xd1
 1487 073e BC040000 		.4byte	0x4bc
 1488 0742 42       		.byte	0x42
 1489 0743 07       		.uleb128 0x7
 1490 0744 72746F00 		.ascii	"rto\000"
 1491 0748 11       		.byte	0x11
 1492 0749 D3       		.byte	0xd3
 1493 074a BC040000 		.4byte	0x4bc
 1494 074e 44       		.byte	0x44
 1495 074f 06       		.uleb128 0x6
 1496 0750 0C090000 		.4byte	.LASF116
 1497 0754 11       		.byte	0x11
 1498 0755 D4       		.byte	0xd4
 1499 0756 9B040000 		.4byte	0x49b
 1500 075a 46       		.byte	0x46
 1501 075b 06       		.uleb128 0x6
 1502 075c 7A030000 		.4byte	.LASF117
 1503 0760 11       		.byte	0x11
 1504 0761 D7       		.byte	0xd7
 1505 0762 9B040000 		.4byte	0x49b
 1506 0766 47       		.byte	0x47
 1507 0767 06       		.uleb128 0x6
 1508 0768 2D030000 		.4byte	.LASF118
 1509 076c 11       		.byte	0x11
 1510 076d D8       		.byte	0xd8
 1511 076e C7040000 		.4byte	0x4c7
 1512 0772 48       		.byte	0x48
 1513 0773 06       		.uleb128 0x6
 1514 0774 E0010000 		.4byte	.LASF119
 1515 0778 11       		.byte	0x11
 1516 0779 DB       		.byte	0xdb
 1517 077a B1040000 		.4byte	0x4b1
 1518 077e 4C       		.byte	0x4c
 1519 077f 06       		.uleb128 0x6
 1520 0780 80060000 		.4byte	.LASF120
 1521 0784 11       		.byte	0x11
 1522 0785 DC       		.byte	0xdc
 1523 0786 B1040000 		.4byte	0x4b1
 1524 078a 4E       		.byte	0x4e
 1525 078b 06       		.uleb128 0x6
 1526 078c 3D060000 		.4byte	.LASF121
 1527 0790 11       		.byte	0x11
 1528 0791 DF       		.byte	0xdf
 1529 0792 C7040000 		.4byte	0x4c7
 1530 0796 50       		.byte	0x50
 1531 0797 06       		.uleb128 0x6
 1532 0798 0F040000 		.4byte	.LASF122
ARM GAS  /tmp/cc8g7J8V.s 			page 28


 1533 079c 11       		.byte	0x11
 1534 079d E0       		.byte	0xe0
 1535 079e C7040000 		.4byte	0x4c7
 1536 07a2 54       		.byte	0x54
 1537 07a3 06       		.uleb128 0x6
 1538 07a4 17040000 		.4byte	.LASF123
 1539 07a8 11       		.byte	0x11
 1540 07a9 E0       		.byte	0xe0
 1541 07aa C7040000 		.4byte	0x4c7
 1542 07ae 58       		.byte	0x58
 1543 07af 06       		.uleb128 0x6
 1544 07b0 45040000 		.4byte	.LASF124
 1545 07b4 11       		.byte	0x11
 1546 07b5 E2       		.byte	0xe2
 1547 07b6 C7040000 		.4byte	0x4c7
 1548 07ba 5C       		.byte	0x5c
 1549 07bb 06       		.uleb128 0x6
 1550 07bc 68050000 		.4byte	.LASF125
 1551 07c0 11       		.byte	0x11
 1552 07c1 E3       		.byte	0xe3
 1553 07c2 B1040000 		.4byte	0x4b1
 1554 07c6 60       		.byte	0x60
 1555 07c7 06       		.uleb128 0x6
 1556 07c8 65060000 		.4byte	.LASF126
 1557 07cc 11       		.byte	0x11
 1558 07cd E4       		.byte	0xe4
 1559 07ce B1040000 		.4byte	0x4b1
 1560 07d2 62       		.byte	0x62
 1561 07d3 06       		.uleb128 0x6
 1562 07d4 C6030000 		.4byte	.LASF127
 1563 07d8 11       		.byte	0x11
 1564 07d9 E6       		.byte	0xe6
 1565 07da B1040000 		.4byte	0x4b1
 1566 07de 64       		.byte	0x64
 1567 07df 06       		.uleb128 0x6
 1568 07e0 89060000 		.4byte	.LASF128
 1569 07e4 11       		.byte	0x11
 1570 07e5 E8       		.byte	0xe8
 1571 07e6 B1040000 		.4byte	0x4b1
 1572 07ea 66       		.byte	0x66
 1573 07eb 06       		.uleb128 0x6
 1574 07ec 78080000 		.4byte	.LASF129
 1575 07f0 11       		.byte	0x11
 1576 07f1 EA       		.byte	0xea
 1577 07f2 B1040000 		.4byte	0x4b1
 1578 07f6 68       		.byte	0x68
 1579 07f7 06       		.uleb128 0x6
 1580 07f8 1E060000 		.4byte	.LASF130
 1581 07fc 11       		.byte	0x11
 1582 07fd EE       		.byte	0xee
 1583 07fe B1040000 		.4byte	0x4b1
 1584 0802 6A       		.byte	0x6a
 1585 0803 06       		.uleb128 0x6
 1586 0804 C5050000 		.4byte	.LASF131
 1587 0808 11       		.byte	0x11
 1588 0809 F2       		.byte	0xf2
 1589 080a ED090000 		.4byte	0x9ed
ARM GAS  /tmp/cc8g7J8V.s 			page 29


 1590 080e 6C       		.byte	0x6c
 1591 080f 06       		.uleb128 0x6
 1592 0810 89020000 		.4byte	.LASF132
 1593 0814 11       		.byte	0x11
 1594 0815 F3       		.byte	0xf3
 1595 0816 ED090000 		.4byte	0x9ed
 1596 081a 70       		.byte	0x70
 1597 081b 06       		.uleb128 0x6
 1598 081c 78050000 		.4byte	.LASF133
 1599 0820 11       		.byte	0x11
 1600 0821 F5       		.byte	0xf5
 1601 0822 ED090000 		.4byte	0x9ed
 1602 0826 74       		.byte	0x74
 1603 0827 06       		.uleb128 0x6
 1604 0828 BC070000 		.4byte	.LASF134
 1605 082c 11       		.byte	0x11
 1606 082d F8       		.byte	0xf8
 1607 082e 9B050000 		.4byte	0x59b
 1608 0832 78       		.byte	0x78
 1609 0833 06       		.uleb128 0x6
 1610 0834 F7030000 		.4byte	.LASF135
 1611 0838 11       		.byte	0x11
 1612 0839 FC       		.byte	0xfc
 1613 083a D6080000 		.4byte	0x8d6
 1614 083e 7C       		.byte	0x7c
 1615 083f 06       		.uleb128 0x6
 1616 0840 8C080000 		.4byte	.LASF136
 1617 0844 11       		.byte	0x11
 1618 0845 FE       		.byte	0xfe
 1619 0846 A7080000 		.4byte	0x8a7
 1620 084a 80       		.byte	0x80
 1621 084b 14       		.uleb128 0x14
 1622 084c EB020000 		.4byte	.LASF137
 1623 0850 11       		.byte	0x11
 1624 0851 0001     		.2byte	0x100
 1625 0853 46090000 		.4byte	0x946
 1626 0857 84       		.byte	0x84
 1627 0858 14       		.uleb128 0x14
 1628 0859 A3030000 		.4byte	.LASF138
 1629 085d 11       		.byte	0x11
 1630 085e 0201     		.2byte	0x102
 1631 0860 00090000 		.4byte	0x900
 1632 0864 88       		.byte	0x88
 1633 0865 14       		.uleb128 0x14
 1634 0866 5C050000 		.4byte	.LASF139
 1635 086a 11       		.byte	0x11
 1636 086b 0401     		.2byte	0x104
 1637 086d 25090000 		.4byte	0x925
 1638 0871 8C       		.byte	0x8c
 1639 0872 14       		.uleb128 0x14
 1640 0873 1C080000 		.4byte	.LASF140
 1641 0877 11       		.byte	0x11
 1642 0878 0D01     		.2byte	0x10d
 1643 087a C7040000 		.4byte	0x4c7
 1644 087e 90       		.byte	0x90
 1645 087f 14       		.uleb128 0x14
 1646 0880 BF080000 		.4byte	.LASF141
ARM GAS  /tmp/cc8g7J8V.s 			page 30


 1647 0884 11       		.byte	0x11
 1648 0885 1401     		.2byte	0x114
 1649 0887 9B040000 		.4byte	0x49b
 1650 088b 94       		.byte	0x94
 1651 088c 14       		.uleb128 0x14
 1652 088d 8D040000 		.4byte	.LASF142
 1653 0891 11       		.byte	0x11
 1654 0892 1601     		.2byte	0x116
 1655 0894 9B040000 		.4byte	0x49b
 1656 0898 95       		.byte	0x95
 1657 0899 14       		.uleb128 0x14
 1658 089a 9A010000 		.4byte	.LASF143
 1659 089e 11       		.byte	0x11
 1660 089f 1901     		.2byte	0x119
 1661 08a1 9B040000 		.4byte	0x49b
 1662 08a5 96       		.byte	0x96
 1663 08a6 00       		.byte	0
 1664 08a7 04       		.uleb128 0x4
 1665 08a8 24050000 		.4byte	.LASF144
 1666 08ac 11       		.byte	0x11
 1667 08ad 48       		.byte	0x48
 1668 08ae B2080000 		.4byte	0x8b2
 1669 08b2 09       		.uleb128 0x9
 1670 08b3 04       		.byte	0x4
 1671 08b4 B8080000 		.4byte	0x8b8
 1672 08b8 13       		.uleb128 0x13
 1673 08b9 D2040000 		.4byte	0x4d2
 1674 08bd D6080000 		.4byte	0x8d6
 1675 08c1 0E       		.uleb128 0xe
 1676 08c2 BE020000 		.4byte	0x2be
 1677 08c6 0E       		.uleb128 0xe
 1678 08c7 EF050000 		.4byte	0x5ef
 1679 08cb 0E       		.uleb128 0xe
 1680 08cc 9B050000 		.4byte	0x59b
 1681 08d0 0E       		.uleb128 0xe
 1682 08d1 D2040000 		.4byte	0x4d2
 1683 08d5 00       		.byte	0
 1684 08d6 04       		.uleb128 0x4
 1685 08d7 B0010000 		.4byte	.LASF145
 1686 08db 11       		.byte	0x11
 1687 08dc 56       		.byte	0x56
 1688 08dd E1080000 		.4byte	0x8e1
 1689 08e1 09       		.uleb128 0x9
 1690 08e2 04       		.byte	0x4
 1691 08e3 E7080000 		.4byte	0x8e7
 1692 08e7 13       		.uleb128 0x13
 1693 08e8 D2040000 		.4byte	0x4d2
 1694 08ec 00090000 		.4byte	0x900
 1695 08f0 0E       		.uleb128 0xe
 1696 08f1 BE020000 		.4byte	0x2be
 1697 08f5 0E       		.uleb128 0xe
 1698 08f6 EF050000 		.4byte	0x5ef
 1699 08fa 0E       		.uleb128 0xe
 1700 08fb B1040000 		.4byte	0x4b1
 1701 08ff 00       		.byte	0
 1702 0900 04       		.uleb128 0x4
 1703 0901 47050000 		.4byte	.LASF146
ARM GAS  /tmp/cc8g7J8V.s 			page 31


 1704 0905 11       		.byte	0x11
 1705 0906 62       		.byte	0x62
 1706 0907 0B090000 		.4byte	0x90b
 1707 090b 09       		.uleb128 0x9
 1708 090c 04       		.byte	0x4
 1709 090d 11090000 		.4byte	0x911
 1710 0911 13       		.uleb128 0x13
 1711 0912 D2040000 		.4byte	0x4d2
 1712 0916 25090000 		.4byte	0x925
 1713 091a 0E       		.uleb128 0xe
 1714 091b BE020000 		.4byte	0x2be
 1715 091f 0E       		.uleb128 0xe
 1716 0920 EF050000 		.4byte	0x5ef
 1717 0924 00       		.byte	0
 1718 0925 04       		.uleb128 0x4
 1719 0926 31040000 		.4byte	.LASF147
 1720 092a 11       		.byte	0x11
 1721 092b 6E       		.byte	0x6e
 1722 092c 30090000 		.4byte	0x930
 1723 0930 09       		.uleb128 0x9
 1724 0931 04       		.byte	0x4
 1725 0932 36090000 		.4byte	0x936
 1726 0936 0D       		.uleb128 0xd
 1727 0937 46090000 		.4byte	0x946
 1728 093b 0E       		.uleb128 0xe
 1729 093c BE020000 		.4byte	0x2be
 1730 0940 0E       		.uleb128 0xe
 1731 0941 D2040000 		.4byte	0x4d2
 1732 0945 00       		.byte	0
 1733 0946 04       		.uleb128 0x4
 1734 0947 14010000 		.4byte	.LASF148
 1735 094b 11       		.byte	0x11
 1736 094c 7C       		.byte	0x7c
 1737 094d D0050000 		.4byte	0x5d0
 1738 0951 15       		.uleb128 0x15
 1739 0952 EB080000 		.4byte	.LASF213
 1740 0956 01       		.byte	0x1
 1741 0957 11       		.byte	0x11
 1742 0958 7E       		.byte	0x7e
 1743 0959 A0090000 		.4byte	0x9a0
 1744 095d 16       		.uleb128 0x16
 1745 095e 89050000 		.4byte	.LASF149
 1746 0962 00       		.sleb128 0
 1747 0963 16       		.uleb128 0x16
 1748 0964 3D080000 		.4byte	.LASF150
 1749 0968 01       		.sleb128 1
 1750 0969 16       		.uleb128 0x16
 1751 096a 0E080000 		.4byte	.LASF151
 1752 096e 02       		.sleb128 2
 1753 096f 16       		.uleb128 0x16
 1754 0970 25090000 		.4byte	.LASF152
 1755 0974 03       		.sleb128 3
 1756 0975 16       		.uleb128 0x16
 1757 0976 4F060000 		.4byte	.LASF153
 1758 097a 04       		.sleb128 4
 1759 097b 16       		.uleb128 0x16
 1760 097c 91020000 		.4byte	.LASF154
ARM GAS  /tmp/cc8g7J8V.s 			page 32


 1761 0980 05       		.sleb128 5
 1762 0981 16       		.uleb128 0x16
 1763 0982 EF070000 		.4byte	.LASF155
 1764 0986 06       		.sleb128 6
 1765 0987 16       		.uleb128 0x16
 1766 0988 CC030000 		.4byte	.LASF156
 1767 098c 07       		.sleb128 7
 1768 098d 16       		.uleb128 0x16
 1769 098e 04030000 		.4byte	.LASF157
 1770 0992 08       		.sleb128 8
 1771 0993 16       		.uleb128 0x16
 1772 0994 B4020000 		.4byte	.LASF158
 1773 0998 09       		.sleb128 9
 1774 0999 16       		.uleb128 0x16
 1775 099a A3040000 		.4byte	.LASF159
 1776 099e 0A       		.sleb128 10
 1777 099f 00       		.byte	0
 1778 09a0 0B       		.uleb128 0xb
 1779 09a1 1F020000 		.4byte	.LASF160
 1780 09a5 10       		.byte	0x10
 1781 09a6 12       		.byte	0x12
 1782 09a7 1501     		.2byte	0x115
 1783 09a9 ED090000 		.4byte	0x9ed
 1784 09ad 14       		.uleb128 0x14
 1785 09ae 25010000 		.4byte	.LASF85
 1786 09b2 12       		.byte	0x12
 1787 09b3 1601     		.2byte	0x116
 1788 09b5 ED090000 		.4byte	0x9ed
 1789 09b9 00       		.byte	0
 1790 09ba 0C       		.uleb128 0xc
 1791 09bb 7000     		.ascii	"p\000"
 1792 09bd 12       		.byte	0x12
 1793 09be 1701     		.2byte	0x117
 1794 09c0 9B050000 		.4byte	0x59b
 1795 09c4 04       		.byte	0x4
 1796 09c5 0C       		.uleb128 0xc
 1797 09c6 6C656E00 		.ascii	"len\000"
 1798 09ca 12       		.byte	0x12
 1799 09cb 1801     		.2byte	0x118
 1800 09cd B1040000 		.4byte	0x4b1
 1801 09d1 08       		.byte	0x8
 1802 09d2 14       		.uleb128 0x14
 1803 09d3 DC000000 		.4byte	.LASF91
 1804 09d7 12       		.byte	0x12
 1805 09d8 2201     		.2byte	0x122
 1806 09da 9B040000 		.4byte	0x49b
 1807 09de 0A       		.byte	0xa
 1808 09df 14       		.uleb128 0x14
 1809 09e0 A7070000 		.4byte	.LASF161
 1810 09e4 12       		.byte	0x12
 1811 09e5 2701     		.2byte	0x127
 1812 09e7 600A0000 		.4byte	0xa60
 1813 09eb 0C       		.byte	0xc
 1814 09ec 00       		.byte	0
 1815 09ed 09       		.uleb128 0x9
 1816 09ee 04       		.byte	0x4
 1817 09ef A0090000 		.4byte	0x9a0
ARM GAS  /tmp/cc8g7J8V.s 			page 33


 1818 09f3 05       		.uleb128 0x5
 1819 09f4 C9070000 		.4byte	.LASF162
 1820 09f8 14       		.byte	0x14
 1821 09f9 12       		.byte	0x12
 1822 09fa 9F       		.byte	0x9f
 1823 09fb 600A0000 		.4byte	0xa60
 1824 09ff 07       		.uleb128 0x7
 1825 0a00 73726300 		.ascii	"src\000"
 1826 0a04 12       		.byte	0x12
 1827 0a05 A0       		.byte	0xa0
 1828 0a06 B1040000 		.4byte	0x4b1
 1829 0a0a 00       		.byte	0
 1830 0a0b 06       		.uleb128 0x6
 1831 0a0c 17090000 		.4byte	.LASF163
 1832 0a10 12       		.byte	0x12
 1833 0a11 A1       		.byte	0xa1
 1834 0a12 B1040000 		.4byte	0x4b1
 1835 0a16 02       		.byte	0x2
 1836 0a17 06       		.uleb128 0x6
 1837 0a18 CA010000 		.4byte	.LASF164
 1838 0a1c 12       		.byte	0x12
 1839 0a1d A2       		.byte	0xa2
 1840 0a1e C7040000 		.4byte	0x4c7
 1841 0a22 04       		.byte	0x4
 1842 0a23 06       		.uleb128 0x6
 1843 0a24 87040000 		.4byte	.LASF165
 1844 0a28 12       		.byte	0x12
 1845 0a29 A3       		.byte	0xa3
 1846 0a2a C7040000 		.4byte	0x4c7
 1847 0a2e 08       		.byte	0x8
 1848 0a2f 06       		.uleb128 0x6
 1849 0a30 AB060000 		.4byte	.LASF166
 1850 0a34 12       		.byte	0x12
 1851 0a35 A4       		.byte	0xa4
 1852 0a36 B1040000 		.4byte	0x4b1
 1853 0a3a 0C       		.byte	0xc
 1854 0a3b 07       		.uleb128 0x7
 1855 0a3c 776E6400 		.ascii	"wnd\000"
 1856 0a40 12       		.byte	0x12
 1857 0a41 A5       		.byte	0xa5
 1858 0a42 B1040000 		.4byte	0x4b1
 1859 0a46 0E       		.byte	0xe
 1860 0a47 06       		.uleb128 0x6
 1861 0a48 85080000 		.4byte	.LASF167
 1862 0a4c 12       		.byte	0x12
 1863 0a4d A6       		.byte	0xa6
 1864 0a4e B1040000 		.4byte	0x4b1
 1865 0a52 10       		.byte	0x10
 1866 0a53 06       		.uleb128 0x6
 1867 0a54 C1000000 		.4byte	.LASF168
 1868 0a58 12       		.byte	0x12
 1869 0a59 A7       		.byte	0xa7
 1870 0a5a B1040000 		.4byte	0x4b1
 1871 0a5e 12       		.byte	0x12
 1872 0a5f 00       		.byte	0
 1873 0a60 09       		.uleb128 0x9
 1874 0a61 04       		.byte	0x4
ARM GAS  /tmp/cc8g7J8V.s 			page 34


 1875 0a62 F3090000 		.4byte	0x9f3
 1876 0a66 17       		.uleb128 0x17
 1877 0a67 01       		.byte	0x1
 1878 0a68 13       		.byte	0x13
 1879 0a69 2B       		.byte	0x2b
 1880 0a6a C90A0000 		.4byte	0xac9
 1881 0a6e 16       		.uleb128 0x16
 1882 0a6f 9E060000 		.4byte	.LASF169
 1883 0a73 00       		.sleb128 0
 1884 0a74 16       		.uleb128 0x16
 1885 0a75 FD050000 		.4byte	.LASF170
 1886 0a79 01       		.sleb128 1
 1887 0a7a 16       		.uleb128 0x16
 1888 0a7b 9A070000 		.4byte	.LASF171
 1889 0a7f 02       		.sleb128 2
 1890 0a80 16       		.uleb128 0x16
 1891 0a81 33000000 		.4byte	.LASF172
 1892 0a85 03       		.sleb128 3
 1893 0a86 16       		.uleb128 0x16
 1894 0a87 01080000 		.4byte	.LASF173
 1895 0a8b 04       		.sleb128 4
 1896 0a8c 16       		.uleb128 0x16
 1897 0a8d 06050000 		.4byte	.LASF174
 1898 0a91 05       		.sleb128 5
 1899 0a92 16       		.uleb128 0x16
 1900 0a93 71060000 		.4byte	.LASF175
 1901 0a97 06       		.sleb128 6
 1902 0a98 16       		.uleb128 0x16
 1903 0a99 59040000 		.4byte	.LASF176
 1904 0a9d 07       		.sleb128 7
 1905 0a9e 16       		.uleb128 0x16
 1906 0a9f 60030000 		.4byte	.LASF177
 1907 0aa3 08       		.sleb128 8
 1908 0aa4 16       		.uleb128 0x16
 1909 0aa5 F1010000 		.4byte	.LASF178
 1910 0aa9 09       		.sleb128 9
 1911 0aaa 16       		.uleb128 0x16
 1912 0aab 6A020000 		.4byte	.LASF179
 1913 0aaf 0A       		.sleb128 10
 1914 0ab0 16       		.uleb128 0x16
 1915 0ab1 E5050000 		.4byte	.LASF180
 1916 0ab5 0B       		.sleb128 11
 1917 0ab6 16       		.uleb128 0x16
 1918 0ab7 99030000 		.4byte	.LASF181
 1919 0abb 0C       		.sleb128 12
 1920 0abc 16       		.uleb128 0x16
 1921 0abd 15050000 		.4byte	.LASF182
 1922 0ac1 0D       		.sleb128 13
 1923 0ac2 16       		.uleb128 0x16
 1924 0ac3 35030000 		.4byte	.LASF183
 1925 0ac7 0E       		.sleb128 14
 1926 0ac8 00       		.byte	0
 1927 0ac9 04       		.uleb128 0x4
 1928 0aca F5080000 		.4byte	.LASF184
 1929 0ace 13       		.byte	0x13
 1930 0acf 2F       		.byte	0x2f
 1931 0ad0 660A0000 		.4byte	0xa66
ARM GAS  /tmp/cc8g7J8V.s 			page 35


 1932 0ad4 18       		.uleb128 0x18
 1933 0ad5 BA030000 		.4byte	.LASF188
 1934 0ad9 01       		.byte	0x1
 1935 0ada 0A01     		.2byte	0x10a
 1936 0adc 00000000 		.4byte	.LFB12
 1937 0ae0 68000000 		.4byte	.LFE12-.LFB12
 1938 0ae4 01       		.uleb128 0x1
 1939 0ae5 9C       		.byte	0x9c
 1940 0ae6 550B0000 		.4byte	0xb55
 1941 0aea 19       		.uleb128 0x19
 1942 0aeb 11090000 		.4byte	.LASF185
 1943 0aef 01       		.byte	0x1
 1944 0af0 0A01     		.2byte	0x10a
 1945 0af2 C7040000 		.4byte	0x4c7
 1946 0af6 00000000 		.4byte	.LLST0
 1947 0afa 19       		.uleb128 0x19
 1948 0afb 78010000 		.4byte	.LASF186
 1949 0aff 01       		.byte	0x1
 1950 0b00 0A01     		.2byte	0x10a
 1951 0b02 EE040000 		.4byte	0x4ee
 1952 0b06 2C000000 		.4byte	.LLST1
 1953 0b0a 1A       		.uleb128 0x1a
 1954 0b0b 61726700 		.ascii	"arg\000"
 1955 0b0f 01       		.byte	0x1
 1956 0b10 0A01     		.2byte	0x10a
 1957 0b12 BE020000 		.4byte	0x2be
 1958 0b16 58000000 		.4byte	.LLST2
 1959 0b1a 1B       		.uleb128 0x1b
 1960 0b1b 70050000 		.4byte	.LASF187
 1961 0b1f 01       		.byte	0x1
 1962 0b20 0D01     		.2byte	0x10d
 1963 0b22 34050000 		.4byte	0x534
 1964 0b26 84000000 		.4byte	.LLST3
 1965 0b2a 1C       		.uleb128 0x1c
 1966 0b2b 7400     		.ascii	"t\000"
 1967 0b2d 01       		.byte	0x1
 1968 0b2e 0D01     		.2byte	0x10d
 1969 0b30 34050000 		.4byte	0x534
 1970 0b34 97000000 		.4byte	.LLST4
 1971 0b38 1D       		.uleb128 0x1d
 1972 0b39 0E000000 		.4byte	.LVL2
 1973 0b3d 450E0000 		.4byte	0xe45
 1974 0b41 4B0B0000 		.4byte	0xb4b
 1975 0b45 1E       		.uleb128 0x1e
 1976 0b46 01       		.uleb128 0x1
 1977 0b47 50       		.byte	0x50
 1978 0b48 01       		.uleb128 0x1
 1979 0b49 3B       		.byte	0x3b
 1980 0b4a 00       		.byte	0
 1981 0b4b 1F       		.uleb128 0x1f
 1982 0b4c 68000000 		.4byte	.LVL9
 1983 0b50 5A0E0000 		.4byte	0xe5a
 1984 0b54 00       		.byte	0
 1985 0b55 20       		.uleb128 0x20
 1986 0b56 CC040000 		.4byte	.LASF189
 1987 0b5a 01       		.byte	0x1
 1988 0b5b 65       		.byte	0x65
ARM GAS  /tmp/cc8g7J8V.s 			page 36


 1989 0b5c 00000000 		.4byte	.LFB8
 1990 0b60 46000000 		.4byte	.LFE8-.LFB8
 1991 0b64 01       		.uleb128 0x1
 1992 0b65 9C       		.byte	0x9c
 1993 0b66 890B0000 		.4byte	0xb89
 1994 0b6a 21       		.uleb128 0x21
 1995 0b6b 32000000 		.4byte	.LVL10
 1996 0b6f D40A0000 		.4byte	0xad4
 1997 0b73 1E       		.uleb128 0x1e
 1998 0b74 01       		.uleb128 0x1
 1999 0b75 52       		.byte	0x52
 2000 0b76 01       		.uleb128 0x1
 2001 0b77 30       		.byte	0x30
 2002 0b78 1E       		.uleb128 0x1e
 2003 0b79 01       		.uleb128 0x1
 2004 0b7a 51       		.byte	0x51
 2005 0b7b 05       		.uleb128 0x5
 2006 0b7c 03       		.byte	0x3
 2007 0b7d 00000000 		.4byte	tcpip_tcp_timer
 2008 0b81 1E       		.uleb128 0x1e
 2009 0b82 01       		.uleb128 0x1
 2010 0b83 50       		.byte	0x50
 2011 0b84 02       		.uleb128 0x2
 2012 0b85 08       		.byte	0x8
 2013 0b86 FA       		.byte	0xfa
 2014 0b87 00       		.byte	0
 2015 0b88 00       		.byte	0
 2016 0b89 22       		.uleb128 0x22
 2017 0b8a 36090000 		.4byte	.LASF191
 2018 0b8e 01       		.byte	0x1
 2019 0b8f 4F       		.byte	0x4f
 2020 0b90 00000000 		.4byte	.LFB7
 2021 0b94 40000000 		.4byte	.LFE7-.LFB7
 2022 0b98 01       		.uleb128 0x1
 2023 0b99 9C       		.byte	0x9c
 2024 0b9a D50B0000 		.4byte	0xbd5
 2025 0b9e 23       		.uleb128 0x23
 2026 0b9f 61726700 		.ascii	"arg\000"
 2027 0ba3 01       		.byte	0x1
 2028 0ba4 4F       		.byte	0x4f
 2029 0ba5 BE020000 		.4byte	0x2be
 2030 0ba9 AA000000 		.4byte	.LLST5
 2031 0bad 24       		.uleb128 0x24
 2032 0bae 06000000 		.4byte	.LVL12
 2033 0bb2 620E0000 		.4byte	0xe62
 2034 0bb6 21       		.uleb128 0x21
 2035 0bb7 26000000 		.4byte	.LVL13
 2036 0bbb D40A0000 		.4byte	0xad4
 2037 0bbf 1E       		.uleb128 0x1e
 2038 0bc0 01       		.uleb128 0x1
 2039 0bc1 52       		.byte	0x52
 2040 0bc2 01       		.uleb128 0x1
 2041 0bc3 30       		.byte	0x30
 2042 0bc4 1E       		.uleb128 0x1e
 2043 0bc5 01       		.uleb128 0x1
 2044 0bc6 51       		.byte	0x51
 2045 0bc7 05       		.uleb128 0x5
ARM GAS  /tmp/cc8g7J8V.s 			page 37


 2046 0bc8 03       		.byte	0x3
 2047 0bc9 00000000 		.4byte	tcpip_tcp_timer
 2048 0bcd 1E       		.uleb128 0x1e
 2049 0bce 01       		.uleb128 0x1
 2050 0bcf 50       		.byte	0x50
 2051 0bd0 02       		.uleb128 0x2
 2052 0bd1 08       		.byte	0x8
 2053 0bd2 FA       		.byte	0xfa
 2054 0bd3 00       		.byte	0
 2055 0bd4 00       		.byte	0
 2056 0bd5 20       		.uleb128 0x20
 2057 0bd6 53080000 		.4byte	.LASF190
 2058 0bda 01       		.byte	0x1
 2059 0bdb DF       		.byte	0xdf
 2060 0bdc 00000000 		.4byte	.LFB11
 2061 0be0 2A000000 		.4byte	.LFE11-.LFB11
 2062 0be4 01       		.uleb128 0x1
 2063 0be5 9C       		.byte	0x9c
 2064 0be6 2D0C0000 		.4byte	0xc2d
 2065 0bea 1D       		.uleb128 0x1d
 2066 0beb 14000000 		.4byte	.LVL14
 2067 0bef D40A0000 		.4byte	0xad4
 2068 0bf3 0D0C0000 		.4byte	0xc0d
 2069 0bf7 1E       		.uleb128 0x1e
 2070 0bf8 01       		.uleb128 0x1
 2071 0bf9 52       		.byte	0x52
 2072 0bfa 01       		.uleb128 0x1
 2073 0bfb 30       		.byte	0x30
 2074 0bfc 1E       		.uleb128 0x1e
 2075 0bfd 01       		.uleb128 0x1
 2076 0bfe 51       		.byte	0x51
 2077 0bff 05       		.uleb128 0x5
 2078 0c00 03       		.byte	0x3
 2079 0c01 00000000 		.4byte	ip_reass_timer
 2080 0c05 1E       		.uleb128 0x1e
 2081 0c06 01       		.uleb128 0x1
 2082 0c07 50       		.byte	0x50
 2083 0c08 03       		.uleb128 0x3
 2084 0c09 0A       		.byte	0xa
 2085 0c0a E803     		.2byte	0x3e8
 2086 0c0c 00       		.byte	0
 2087 0c0d 21       		.uleb128 0x21
 2088 0c0e 2A000000 		.4byte	.LVL15
 2089 0c12 D40A0000 		.4byte	0xad4
 2090 0c16 1E       		.uleb128 0x1e
 2091 0c17 01       		.uleb128 0x1
 2092 0c18 52       		.byte	0x52
 2093 0c19 01       		.uleb128 0x1
 2094 0c1a 30       		.byte	0x30
 2095 0c1b 1E       		.uleb128 0x1e
 2096 0c1c 01       		.uleb128 0x1
 2097 0c1d 51       		.byte	0x51
 2098 0c1e 05       		.uleb128 0x5
 2099 0c1f 03       		.byte	0x3
 2100 0c20 00000000 		.4byte	arp_timer
 2101 0c24 1E       		.uleb128 0x1e
 2102 0c25 01       		.uleb128 0x1
ARM GAS  /tmp/cc8g7J8V.s 			page 38


 2103 0c26 50       		.byte	0x50
 2104 0c27 03       		.uleb128 0x3
 2105 0c28 0A       		.byte	0xa
 2106 0c29 8813     		.2byte	0x1388
 2107 0c2b 00       		.byte	0
 2108 0c2c 00       		.byte	0
 2109 0c2d 22       		.uleb128 0x22
 2110 0c2e D4020000 		.4byte	.LASF192
 2111 0c32 01       		.byte	0x1
 2112 0c33 87       		.byte	0x87
 2113 0c34 00000000 		.4byte	.LFB10
 2114 0c38 1C000000 		.4byte	.LFE10-.LFB10
 2115 0c3c 01       		.uleb128 0x1
 2116 0c3d 9C       		.byte	0x9c
 2117 0c3e 7A0C0000 		.4byte	0xc7a
 2118 0c42 23       		.uleb128 0x23
 2119 0c43 61726700 		.ascii	"arg\000"
 2120 0c47 01       		.byte	0x1
 2121 0c48 87       		.byte	0x87
 2122 0c49 BE020000 		.4byte	0x2be
 2123 0c4d CB000000 		.4byte	.LLST6
 2124 0c51 24       		.uleb128 0x24
 2125 0c52 06000000 		.4byte	.LVL17
 2126 0c56 690E0000 		.4byte	0xe69
 2127 0c5a 21       		.uleb128 0x21
 2128 0c5b 1C000000 		.4byte	.LVL18
 2129 0c5f D40A0000 		.4byte	0xad4
 2130 0c63 1E       		.uleb128 0x1e
 2131 0c64 01       		.uleb128 0x1
 2132 0c65 52       		.byte	0x52
 2133 0c66 01       		.uleb128 0x1
 2134 0c67 30       		.byte	0x30
 2135 0c68 1E       		.uleb128 0x1e
 2136 0c69 01       		.uleb128 0x1
 2137 0c6a 51       		.byte	0x51
 2138 0c6b 05       		.uleb128 0x5
 2139 0c6c 03       		.byte	0x3
 2140 0c6d 00000000 		.4byte	arp_timer
 2141 0c71 1E       		.uleb128 0x1e
 2142 0c72 01       		.uleb128 0x1
 2143 0c73 50       		.byte	0x50
 2144 0c74 03       		.uleb128 0x3
 2145 0c75 0A       		.byte	0xa
 2146 0c76 8813     		.2byte	0x1388
 2147 0c78 00       		.byte	0
 2148 0c79 00       		.byte	0
 2149 0c7a 22       		.uleb128 0x22
 2150 0c7b 2E060000 		.4byte	.LASF193
 2151 0c7f 01       		.byte	0x1
 2152 0c80 77       		.byte	0x77
 2153 0c81 00000000 		.4byte	.LFB9
 2154 0c85 1C000000 		.4byte	.LFE9-.LFB9
 2155 0c89 01       		.uleb128 0x1
 2156 0c8a 9C       		.byte	0x9c
 2157 0c8b C70C0000 		.4byte	0xcc7
 2158 0c8f 23       		.uleb128 0x23
 2159 0c90 61726700 		.ascii	"arg\000"
ARM GAS  /tmp/cc8g7J8V.s 			page 39


 2160 0c94 01       		.byte	0x1
 2161 0c95 77       		.byte	0x77
 2162 0c96 BE020000 		.4byte	0x2be
 2163 0c9a EC000000 		.4byte	.LLST7
 2164 0c9e 24       		.uleb128 0x24
 2165 0c9f 06000000 		.4byte	.LVL20
 2166 0ca3 700E0000 		.4byte	0xe70
 2167 0ca7 21       		.uleb128 0x21
 2168 0ca8 1C000000 		.4byte	.LVL21
 2169 0cac D40A0000 		.4byte	0xad4
 2170 0cb0 1E       		.uleb128 0x1e
 2171 0cb1 01       		.uleb128 0x1
 2172 0cb2 52       		.byte	0x52
 2173 0cb3 01       		.uleb128 0x1
 2174 0cb4 30       		.byte	0x30
 2175 0cb5 1E       		.uleb128 0x1e
 2176 0cb6 01       		.uleb128 0x1
 2177 0cb7 51       		.byte	0x51
 2178 0cb8 05       		.uleb128 0x5
 2179 0cb9 03       		.byte	0x3
 2180 0cba 00000000 		.4byte	ip_reass_timer
 2181 0cbe 1E       		.uleb128 0x1e
 2182 0cbf 01       		.uleb128 0x1
 2183 0cc0 50       		.byte	0x50
 2184 0cc1 03       		.uleb128 0x3
 2185 0cc2 0A       		.byte	0xa
 2186 0cc3 E803     		.2byte	0x3e8
 2187 0cc5 00       		.byte	0
 2188 0cc6 00       		.byte	0
 2189 0cc7 18       		.uleb128 0x18
 2190 0cc8 2A010000 		.4byte	.LASF194
 2191 0ccc 01       		.byte	0x1
 2192 0ccd 4101     		.2byte	0x141
 2193 0ccf 00000000 		.4byte	.LFB13
 2194 0cd3 4A000000 		.4byte	.LFE13-.LFB13
 2195 0cd7 01       		.uleb128 0x1
 2196 0cd8 9C       		.byte	0x9c
 2197 0cd9 2B0D0000 		.4byte	0xd2b
 2198 0cdd 19       		.uleb128 0x19
 2199 0cde 78010000 		.4byte	.LASF186
 2200 0ce2 01       		.byte	0x1
 2201 0ce3 4101     		.2byte	0x141
 2202 0ce5 EE040000 		.4byte	0x4ee
 2203 0ce9 0D010000 		.4byte	.LLST8
 2204 0ced 1A       		.uleb128 0x1a
 2205 0cee 61726700 		.ascii	"arg\000"
 2206 0cf2 01       		.byte	0x1
 2207 0cf3 4101     		.2byte	0x141
 2208 0cf5 BE020000 		.4byte	0x2be
 2209 0cf9 39010000 		.4byte	.LLST9
 2210 0cfd 1B       		.uleb128 0x1b
 2211 0cfe 00000000 		.4byte	.LASF195
 2212 0d02 01       		.byte	0x1
 2213 0d03 4301     		.2byte	0x143
 2214 0d05 34050000 		.4byte	0x534
 2215 0d09 65010000 		.4byte	.LLST10
 2216 0d0d 1C       		.uleb128 0x1c
ARM GAS  /tmp/cc8g7J8V.s 			page 40


 2217 0d0e 7400     		.ascii	"t\000"
 2218 0d10 01       		.byte	0x1
 2219 0d11 4301     		.2byte	0x143
 2220 0d13 34050000 		.4byte	0x534
 2221 0d17 83010000 		.4byte	.LLST11
 2222 0d1b 21       		.uleb128 0x21
 2223 0d1c 42000000 		.4byte	.LVL28
 2224 0d20 770E0000 		.4byte	0xe77
 2225 0d24 1E       		.uleb128 0x1e
 2226 0d25 01       		.uleb128 0x1
 2227 0d26 50       		.byte	0x50
 2228 0d27 01       		.uleb128 0x1
 2229 0d28 3B       		.byte	0x3b
 2230 0d29 00       		.byte	0
 2231 0d2a 00       		.byte	0
 2232 0d2b 18       		.uleb128 0x18
 2233 0d2c 9C020000 		.4byte	.LASF196
 2234 0d30 01       		.byte	0x1
 2235 0d31 A701     		.2byte	0x1a7
 2236 0d33 00000000 		.4byte	.LFB14
 2237 0d37 74000000 		.4byte	.LFE14-.LFB14
 2238 0d3b 01       		.uleb128 0x1
 2239 0d3c 9C       		.byte	0x9c
 2240 0d3d FF0D0000 		.4byte	0xdff
 2241 0d41 19       		.uleb128 0x19
 2242 0d42 19060000 		.4byte	.LASF197
 2243 0d46 01       		.byte	0x1
 2244 0d47 A701     		.2byte	0x1a7
 2245 0d49 FF0D0000 		.4byte	0xdff
 2246 0d4d B7010000 		.4byte	.LLST12
 2247 0d51 1A       		.uleb128 0x1a
 2248 0d52 6D736700 		.ascii	"msg\000"
 2249 0d56 01       		.byte	0x1
 2250 0d57 A701     		.2byte	0x1a7
 2251 0d59 050E0000 		.4byte	0xe05
 2252 0d5d F9010000 		.4byte	.LLST13
 2253 0d61 1B       		.uleb128 0x1b
 2254 0d62 65010000 		.4byte	.LASF198
 2255 0d66 01       		.byte	0x1
 2256 0d67 A901     		.2byte	0x1a9
 2257 0d69 C7040000 		.4byte	0x4c7
 2258 0d6d 3B020000 		.4byte	.LLST14
 2259 0d71 1B       		.uleb128 0x1b
 2260 0d72 07000000 		.4byte	.LASF199
 2261 0d76 01       		.byte	0x1
 2262 0d77 AA01     		.2byte	0x1aa
 2263 0d79 34050000 		.4byte	0x534
 2264 0d7d 59020000 		.4byte	.LLST15
 2265 0d81 1B       		.uleb128 0x1b
 2266 0d82 78010000 		.4byte	.LASF186
 2267 0d86 01       		.byte	0x1
 2268 0d87 AB01     		.2byte	0x1ab
 2269 0d89 EE040000 		.4byte	0x4ee
 2270 0d8d 6C020000 		.4byte	.LLST16
 2271 0d91 1C       		.uleb128 0x1c
 2272 0d92 61726700 		.ascii	"arg\000"
 2273 0d96 01       		.byte	0x1
ARM GAS  /tmp/cc8g7J8V.s 			page 41


 2274 0d97 AC01     		.2byte	0x1ac
 2275 0d99 BE020000 		.4byte	0x2be
 2276 0d9d 8A020000 		.4byte	.LLST17
 2277 0da1 25       		.uleb128 0x25
 2278 0da2 A7000000 		.4byte	.LASF214
 2279 0da6 01       		.byte	0x1
 2280 0da7 AE01     		.2byte	0x1ae
 2281 0da9 1D       		.uleb128 0x1d
 2282 0daa 26000000 		.4byte	.LVL34
 2283 0dae 770E0000 		.4byte	0xe77
 2284 0db2 BC0D0000 		.4byte	0xdbc
 2285 0db6 1E       		.uleb128 0x1e
 2286 0db7 01       		.uleb128 0x1
 2287 0db8 50       		.byte	0x50
 2288 0db9 01       		.uleb128 0x1
 2289 0dba 3B       		.byte	0x3b
 2290 0dbb 00       		.byte	0
 2291 0dbc 1D       		.uleb128 0x1d
 2292 0dbd 44000000 		.4byte	.LVL36
 2293 0dc1 8D0E0000 		.4byte	0xe8d
 2294 0dc5 D60D0000 		.4byte	0xdd6
 2295 0dc9 1E       		.uleb128 0x1e
 2296 0dca 01       		.uleb128 0x1
 2297 0dcb 51       		.byte	0x51
 2298 0dcc 02       		.uleb128 0x2
 2299 0dcd 76       		.byte	0x76
 2300 0dce 00       		.sleb128 0
 2301 0dcf 1E       		.uleb128 0x1e
 2302 0dd0 01       		.uleb128 0x1
 2303 0dd1 50       		.byte	0x50
 2304 0dd2 02       		.uleb128 0x2
 2305 0dd3 77       		.byte	0x77
 2306 0dd4 00       		.sleb128 0
 2307 0dd5 00       		.byte	0
 2308 0dd6 26       		.uleb128 0x26
 2309 0dd7 5A000000 		.4byte	.LVL39
 2310 0ddb 8D0E0000 		.4byte	0xe8d
 2311 0ddf F20D0000 		.4byte	0xdf2
 2312 0de3 1E       		.uleb128 0x1e
 2313 0de4 01       		.uleb128 0x1
 2314 0de5 51       		.byte	0x51
 2315 0de6 03       		.uleb128 0x3
 2316 0de7 F3       		.byte	0xf3
 2317 0de8 01       		.uleb128 0x1
 2318 0de9 51       		.byte	0x51
 2319 0dea 1E       		.uleb128 0x1e
 2320 0deb 01       		.uleb128 0x1
 2321 0dec 50       		.byte	0x50
 2322 0ded 03       		.uleb128 0x3
 2323 0dee F3       		.byte	0xf3
 2324 0def 01       		.uleb128 0x1
 2325 0df0 50       		.byte	0x50
 2326 0df1 00       		.byte	0
 2327 0df2 27       		.uleb128 0x27
 2328 0df3 72000000 		.4byte	.LVL41
 2329 0df7 1E       		.uleb128 0x1e
 2330 0df8 01       		.uleb128 0x1
ARM GAS  /tmp/cc8g7J8V.s 			page 42


 2331 0df9 50       		.byte	0x50
 2332 0dfa 02       		.uleb128 0x2
 2333 0dfb 79       		.byte	0x79
 2334 0dfc 00       		.sleb128 0
 2335 0dfd 00       		.byte	0
 2336 0dfe 00       		.byte	0
 2337 0dff 09       		.uleb128 0x9
 2338 0e00 04       		.byte	0x4
 2339 0e01 DD040000 		.4byte	0x4dd
 2340 0e05 09       		.uleb128 0x9
 2341 0e06 04       		.byte	0x4
 2342 0e07 BE020000 		.4byte	0x2be
 2343 0e0b 28       		.uleb128 0x28
 2344 0e0c 6B080000 		.4byte	.LASF200
 2345 0e10 01       		.byte	0x1
 2346 0e11 40       		.byte	0x40
 2347 0e12 34050000 		.4byte	0x534
 2348 0e16 05       		.uleb128 0x5
 2349 0e17 03       		.byte	0x3
 2350 0e18 00000000 		.4byte	next_timeout
 2351 0e1c 28       		.uleb128 0x28
 2352 0e1d 3E010000 		.4byte	.LASF201
 2353 0e21 01       		.byte	0x1
 2354 0e22 47       		.byte	0x47
 2355 0e23 25000000 		.4byte	0x25
 2356 0e27 05       		.uleb128 0x5
 2357 0e28 03       		.byte	0x3
 2358 0e29 00000000 		.4byte	tcpip_tcp_timer_active
 2359 0e2d 29       		.uleb128 0x29
 2360 0e2e FC080000 		.4byte	.LASF202
 2361 0e32 12       		.byte	0x12
 2362 0e33 3D01     		.2byte	0x13d
 2363 0e35 EF050000 		.4byte	0x5ef
 2364 0e39 29       		.uleb128 0x29
 2365 0e3a D5080000 		.4byte	.LASF203
 2366 0e3e 12       		.byte	0x12
 2367 0e3f 4001     		.2byte	0x140
 2368 0e41 EF050000 		.4byte	0x5ef
 2369 0e45 2A       		.uleb128 0x2a
 2370 0e46 4D040000 		.4byte	.LASF215
 2371 0e4a 13       		.byte	0x13
 2372 0e4b 6A       		.byte	0x6a
 2373 0e4c BE020000 		.4byte	0x2be
 2374 0e50 5A0E0000 		.4byte	0xe5a
 2375 0e54 0E       		.uleb128 0xe
 2376 0e55 C90A0000 		.4byte	0xac9
 2377 0e59 00       		.byte	0
 2378 0e5a 2B       		.uleb128 0x2b
 2379 0e5b 33080000 		.4byte	.LASF204
 2380 0e5f 07       		.byte	0x7
 2381 0e60 0102     		.2byte	0x201
 2382 0e62 2C       		.uleb128 0x2c
 2383 0e63 C2010000 		.4byte	.LASF205
 2384 0e67 12       		.byte	0x12
 2385 0e68 36       		.byte	0x36
 2386 0e69 2C       		.uleb128 0x2c
 2387 0e6a 43030000 		.4byte	.LASF206
ARM GAS  /tmp/cc8g7J8V.s 			page 43


 2388 0e6e 14       		.byte	0x14
 2389 0e6f B6       		.byte	0xb6
 2390 0e70 2C       		.uleb128 0x2c
 2391 0e71 DE020000 		.4byte	.LASF207
 2392 0e75 15       		.byte	0x15
 2393 0e76 40       		.byte	0x40
 2394 0e77 2D       		.uleb128 0x2d
 2395 0e78 7F020000 		.4byte	.LASF208
 2396 0e7c 13       		.byte	0x13
 2397 0e7d 6C       		.byte	0x6c
 2398 0e7e 8D0E0000 		.4byte	0xe8d
 2399 0e82 0E       		.uleb128 0xe
 2400 0e83 C90A0000 		.4byte	0xac9
 2401 0e87 0E       		.uleb128 0xe
 2402 0e88 BE020000 		.4byte	0x2be
 2403 0e8c 00       		.byte	0
 2404 0e8d 2E       		.uleb128 0x2e
 2405 0e8e 73040000 		.4byte	.LASF209
 2406 0e92 16       		.byte	0x16
 2407 0e93 C2       		.byte	0xc2
 2408 0e94 C7040000 		.4byte	0x4c7
 2409 0e98 0E       		.uleb128 0xe
 2410 0e99 FF0D0000 		.4byte	0xdff
 2411 0e9d 0E       		.uleb128 0xe
 2412 0e9e 050E0000 		.4byte	0xe05
 2413 0ea2 0E       		.uleb128 0xe
 2414 0ea3 C7040000 		.4byte	0x4c7
 2415 0ea7 00       		.byte	0
 2416 0ea8 00       		.byte	0
 2417              		.section	.debug_abbrev,"",%progbits
 2418              	.Ldebug_abbrev0:
 2419 0000 01       		.uleb128 0x1
 2420 0001 11       		.uleb128 0x11
 2421 0002 01       		.byte	0x1
 2422 0003 25       		.uleb128 0x25
 2423 0004 0E       		.uleb128 0xe
 2424 0005 13       		.uleb128 0x13
 2425 0006 0B       		.uleb128 0xb
 2426 0007 03       		.uleb128 0x3
 2427 0008 0E       		.uleb128 0xe
 2428 0009 1B       		.uleb128 0x1b
 2429 000a 0E       		.uleb128 0xe
 2430 000b 55       		.uleb128 0x55
 2431 000c 17       		.uleb128 0x17
 2432 000d 11       		.uleb128 0x11
 2433 000e 01       		.uleb128 0x1
 2434 000f 10       		.uleb128 0x10
 2435 0010 17       		.uleb128 0x17
 2436 0011 00       		.byte	0
 2437 0012 00       		.byte	0
 2438 0013 02       		.uleb128 0x2
 2439 0014 24       		.uleb128 0x24
 2440 0015 00       		.byte	0
 2441 0016 0B       		.uleb128 0xb
 2442 0017 0B       		.uleb128 0xb
 2443 0018 3E       		.uleb128 0x3e
 2444 0019 0B       		.uleb128 0xb
ARM GAS  /tmp/cc8g7J8V.s 			page 44


 2445 001a 03       		.uleb128 0x3
 2446 001b 08       		.uleb128 0x8
 2447 001c 00       		.byte	0
 2448 001d 00       		.byte	0
 2449 001e 03       		.uleb128 0x3
 2450 001f 24       		.uleb128 0x24
 2451 0020 00       		.byte	0
 2452 0021 0B       		.uleb128 0xb
 2453 0022 0B       		.uleb128 0xb
 2454 0023 3E       		.uleb128 0x3e
 2455 0024 0B       		.uleb128 0xb
 2456 0025 03       		.uleb128 0x3
 2457 0026 0E       		.uleb128 0xe
 2458 0027 00       		.byte	0
 2459 0028 00       		.byte	0
 2460 0029 04       		.uleb128 0x4
 2461 002a 16       		.uleb128 0x16
 2462 002b 00       		.byte	0
 2463 002c 03       		.uleb128 0x3
 2464 002d 0E       		.uleb128 0xe
 2465 002e 3A       		.uleb128 0x3a
 2466 002f 0B       		.uleb128 0xb
 2467 0030 3B       		.uleb128 0x3b
 2468 0031 0B       		.uleb128 0xb
 2469 0032 49       		.uleb128 0x49
 2470 0033 13       		.uleb128 0x13
 2471 0034 00       		.byte	0
 2472 0035 00       		.byte	0
 2473 0036 05       		.uleb128 0x5
 2474 0037 13       		.uleb128 0x13
 2475 0038 01       		.byte	0x1
 2476 0039 03       		.uleb128 0x3
 2477 003a 0E       		.uleb128 0xe
 2478 003b 0B       		.uleb128 0xb
 2479 003c 0B       		.uleb128 0xb
 2480 003d 3A       		.uleb128 0x3a
 2481 003e 0B       		.uleb128 0xb
 2482 003f 3B       		.uleb128 0x3b
 2483 0040 0B       		.uleb128 0xb
 2484 0041 01       		.uleb128 0x1
 2485 0042 13       		.uleb128 0x13
 2486 0043 00       		.byte	0
 2487 0044 00       		.byte	0
 2488 0045 06       		.uleb128 0x6
 2489 0046 0D       		.uleb128 0xd
 2490 0047 00       		.byte	0
 2491 0048 03       		.uleb128 0x3
 2492 0049 0E       		.uleb128 0xe
 2493 004a 3A       		.uleb128 0x3a
 2494 004b 0B       		.uleb128 0xb
 2495 004c 3B       		.uleb128 0x3b
 2496 004d 0B       		.uleb128 0xb
 2497 004e 49       		.uleb128 0x49
 2498 004f 13       		.uleb128 0x13
 2499 0050 38       		.uleb128 0x38
 2500 0051 0B       		.uleb128 0xb
 2501 0052 00       		.byte	0
ARM GAS  /tmp/cc8g7J8V.s 			page 45


 2502 0053 00       		.byte	0
 2503 0054 07       		.uleb128 0x7
 2504 0055 0D       		.uleb128 0xd
 2505 0056 00       		.byte	0
 2506 0057 03       		.uleb128 0x3
 2507 0058 08       		.uleb128 0x8
 2508 0059 3A       		.uleb128 0x3a
 2509 005a 0B       		.uleb128 0xb
 2510 005b 3B       		.uleb128 0x3b
 2511 005c 0B       		.uleb128 0xb
 2512 005d 49       		.uleb128 0x49
 2513 005e 13       		.uleb128 0x13
 2514 005f 38       		.uleb128 0x38
 2515 0060 0B       		.uleb128 0xb
 2516 0061 00       		.byte	0
 2517 0062 00       		.byte	0
 2518 0063 08       		.uleb128 0x8
 2519 0064 13       		.uleb128 0x13
 2520 0065 01       		.byte	0x1
 2521 0066 0B       		.uleb128 0xb
 2522 0067 0B       		.uleb128 0xb
 2523 0068 3A       		.uleb128 0x3a
 2524 0069 0B       		.uleb128 0xb
 2525 006a 3B       		.uleb128 0x3b
 2526 006b 0B       		.uleb128 0xb
 2527 006c 01       		.uleb128 0x1
 2528 006d 13       		.uleb128 0x13
 2529 006e 00       		.byte	0
 2530 006f 00       		.byte	0
 2531 0070 09       		.uleb128 0x9
 2532 0071 0F       		.uleb128 0xf
 2533 0072 00       		.byte	0
 2534 0073 0B       		.uleb128 0xb
 2535 0074 0B       		.uleb128 0xb
 2536 0075 49       		.uleb128 0x49
 2537 0076 13       		.uleb128 0x13
 2538 0077 00       		.byte	0
 2539 0078 00       		.byte	0
 2540 0079 0A       		.uleb128 0xa
 2541 007a 0F       		.uleb128 0xf
 2542 007b 00       		.byte	0
 2543 007c 0B       		.uleb128 0xb
 2544 007d 0B       		.uleb128 0xb
 2545 007e 00       		.byte	0
 2546 007f 00       		.byte	0
 2547 0080 0B       		.uleb128 0xb
 2548 0081 13       		.uleb128 0x13
 2549 0082 01       		.byte	0x1
 2550 0083 03       		.uleb128 0x3
 2551 0084 0E       		.uleb128 0xe
 2552 0085 0B       		.uleb128 0xb
 2553 0086 0B       		.uleb128 0xb
 2554 0087 3A       		.uleb128 0x3a
 2555 0088 0B       		.uleb128 0xb
 2556 0089 3B       		.uleb128 0x3b
 2557 008a 05       		.uleb128 0x5
 2558 008b 01       		.uleb128 0x1
ARM GAS  /tmp/cc8g7J8V.s 			page 46


 2559 008c 13       		.uleb128 0x13
 2560 008d 00       		.byte	0
 2561 008e 00       		.byte	0
 2562 008f 0C       		.uleb128 0xc
 2563 0090 0D       		.uleb128 0xd
 2564 0091 00       		.byte	0
 2565 0092 03       		.uleb128 0x3
 2566 0093 08       		.uleb128 0x8
 2567 0094 3A       		.uleb128 0x3a
 2568 0095 0B       		.uleb128 0xb
 2569 0096 3B       		.uleb128 0x3b
 2570 0097 05       		.uleb128 0x5
 2571 0098 49       		.uleb128 0x49
 2572 0099 13       		.uleb128 0x13
 2573 009a 38       		.uleb128 0x38
 2574 009b 0B       		.uleb128 0xb
 2575 009c 00       		.byte	0
 2576 009d 00       		.byte	0
 2577 009e 0D       		.uleb128 0xd
 2578 009f 15       		.uleb128 0x15
 2579 00a0 01       		.byte	0x1
 2580 00a1 27       		.uleb128 0x27
 2581 00a2 19       		.uleb128 0x19
 2582 00a3 01       		.uleb128 0x1
 2583 00a4 13       		.uleb128 0x13
 2584 00a5 00       		.byte	0
 2585 00a6 00       		.byte	0
 2586 00a7 0E       		.uleb128 0xe
 2587 00a8 05       		.uleb128 0x5
 2588 00a9 00       		.byte	0
 2589 00aa 49       		.uleb128 0x49
 2590 00ab 13       		.uleb128 0x13
 2591 00ac 00       		.byte	0
 2592 00ad 00       		.byte	0
 2593 00ae 0F       		.uleb128 0xf
 2594 00af 35       		.uleb128 0x35
 2595 00b0 00       		.byte	0
 2596 00b1 49       		.uleb128 0x49
 2597 00b2 13       		.uleb128 0x13
 2598 00b3 00       		.byte	0
 2599 00b4 00       		.byte	0
 2600 00b5 10       		.uleb128 0x10
 2601 00b6 17       		.uleb128 0x17
 2602 00b7 01       		.byte	0x1
 2603 00b8 0B       		.uleb128 0xb
 2604 00b9 0B       		.uleb128 0xb
 2605 00ba 3A       		.uleb128 0x3a
 2606 00bb 0B       		.uleb128 0xb
 2607 00bc 3B       		.uleb128 0x3b
 2608 00bd 0B       		.uleb128 0xb
 2609 00be 01       		.uleb128 0x1
 2610 00bf 13       		.uleb128 0x13
 2611 00c0 00       		.byte	0
 2612 00c1 00       		.byte	0
 2613 00c2 11       		.uleb128 0x11
 2614 00c3 0D       		.uleb128 0xd
 2615 00c4 00       		.byte	0
ARM GAS  /tmp/cc8g7J8V.s 			page 47


 2616 00c5 03       		.uleb128 0x3
 2617 00c6 0E       		.uleb128 0xe
 2618 00c7 3A       		.uleb128 0x3a
 2619 00c8 0B       		.uleb128 0xb
 2620 00c9 3B       		.uleb128 0x3b
 2621 00ca 0B       		.uleb128 0xb
 2622 00cb 49       		.uleb128 0x49
 2623 00cc 13       		.uleb128 0x13
 2624 00cd 00       		.byte	0
 2625 00ce 00       		.byte	0
 2626 00cf 12       		.uleb128 0x12
 2627 00d0 26       		.uleb128 0x26
 2628 00d1 00       		.byte	0
 2629 00d2 49       		.uleb128 0x49
 2630 00d3 13       		.uleb128 0x13
 2631 00d4 00       		.byte	0
 2632 00d5 00       		.byte	0
 2633 00d6 13       		.uleb128 0x13
 2634 00d7 15       		.uleb128 0x15
 2635 00d8 01       		.byte	0x1
 2636 00d9 27       		.uleb128 0x27
 2637 00da 19       		.uleb128 0x19
 2638 00db 49       		.uleb128 0x49
 2639 00dc 13       		.uleb128 0x13
 2640 00dd 01       		.uleb128 0x1
 2641 00de 13       		.uleb128 0x13
 2642 00df 00       		.byte	0
 2643 00e0 00       		.byte	0
 2644 00e1 14       		.uleb128 0x14
 2645 00e2 0D       		.uleb128 0xd
 2646 00e3 00       		.byte	0
 2647 00e4 03       		.uleb128 0x3
 2648 00e5 0E       		.uleb128 0xe
 2649 00e6 3A       		.uleb128 0x3a
 2650 00e7 0B       		.uleb128 0xb
 2651 00e8 3B       		.uleb128 0x3b
 2652 00e9 05       		.uleb128 0x5
 2653 00ea 49       		.uleb128 0x49
 2654 00eb 13       		.uleb128 0x13
 2655 00ec 38       		.uleb128 0x38
 2656 00ed 0B       		.uleb128 0xb
 2657 00ee 00       		.byte	0
 2658 00ef 00       		.byte	0
 2659 00f0 15       		.uleb128 0x15
 2660 00f1 04       		.uleb128 0x4
 2661 00f2 01       		.byte	0x1
 2662 00f3 03       		.uleb128 0x3
 2663 00f4 0E       		.uleb128 0xe
 2664 00f5 0B       		.uleb128 0xb
 2665 00f6 0B       		.uleb128 0xb
 2666 00f7 3A       		.uleb128 0x3a
 2667 00f8 0B       		.uleb128 0xb
 2668 00f9 3B       		.uleb128 0x3b
 2669 00fa 0B       		.uleb128 0xb
 2670 00fb 01       		.uleb128 0x1
 2671 00fc 13       		.uleb128 0x13
 2672 00fd 00       		.byte	0
ARM GAS  /tmp/cc8g7J8V.s 			page 48


 2673 00fe 00       		.byte	0
 2674 00ff 16       		.uleb128 0x16
 2675 0100 28       		.uleb128 0x28
 2676 0101 00       		.byte	0
 2677 0102 03       		.uleb128 0x3
 2678 0103 0E       		.uleb128 0xe
 2679 0104 1C       		.uleb128 0x1c
 2680 0105 0D       		.uleb128 0xd
 2681 0106 00       		.byte	0
 2682 0107 00       		.byte	0
 2683 0108 17       		.uleb128 0x17
 2684 0109 04       		.uleb128 0x4
 2685 010a 01       		.byte	0x1
 2686 010b 0B       		.uleb128 0xb
 2687 010c 0B       		.uleb128 0xb
 2688 010d 3A       		.uleb128 0x3a
 2689 010e 0B       		.uleb128 0xb
 2690 010f 3B       		.uleb128 0x3b
 2691 0110 0B       		.uleb128 0xb
 2692 0111 01       		.uleb128 0x1
 2693 0112 13       		.uleb128 0x13
 2694 0113 00       		.byte	0
 2695 0114 00       		.byte	0
 2696 0115 18       		.uleb128 0x18
 2697 0116 2E       		.uleb128 0x2e
 2698 0117 01       		.byte	0x1
 2699 0118 3F       		.uleb128 0x3f
 2700 0119 19       		.uleb128 0x19
 2701 011a 03       		.uleb128 0x3
 2702 011b 0E       		.uleb128 0xe
 2703 011c 3A       		.uleb128 0x3a
 2704 011d 0B       		.uleb128 0xb
 2705 011e 3B       		.uleb128 0x3b
 2706 011f 05       		.uleb128 0x5
 2707 0120 27       		.uleb128 0x27
 2708 0121 19       		.uleb128 0x19
 2709 0122 11       		.uleb128 0x11
 2710 0123 01       		.uleb128 0x1
 2711 0124 12       		.uleb128 0x12
 2712 0125 06       		.uleb128 0x6
 2713 0126 40       		.uleb128 0x40
 2714 0127 18       		.uleb128 0x18
 2715 0128 9742     		.uleb128 0x2117
 2716 012a 19       		.uleb128 0x19
 2717 012b 01       		.uleb128 0x1
 2718 012c 13       		.uleb128 0x13
 2719 012d 00       		.byte	0
 2720 012e 00       		.byte	0
 2721 012f 19       		.uleb128 0x19
 2722 0130 05       		.uleb128 0x5
 2723 0131 00       		.byte	0
 2724 0132 03       		.uleb128 0x3
 2725 0133 0E       		.uleb128 0xe
 2726 0134 3A       		.uleb128 0x3a
 2727 0135 0B       		.uleb128 0xb
 2728 0136 3B       		.uleb128 0x3b
 2729 0137 05       		.uleb128 0x5
ARM GAS  /tmp/cc8g7J8V.s 			page 49


 2730 0138 49       		.uleb128 0x49
 2731 0139 13       		.uleb128 0x13
 2732 013a 02       		.uleb128 0x2
 2733 013b 17       		.uleb128 0x17
 2734 013c 00       		.byte	0
 2735 013d 00       		.byte	0
 2736 013e 1A       		.uleb128 0x1a
 2737 013f 05       		.uleb128 0x5
 2738 0140 00       		.byte	0
 2739 0141 03       		.uleb128 0x3
 2740 0142 08       		.uleb128 0x8
 2741 0143 3A       		.uleb128 0x3a
 2742 0144 0B       		.uleb128 0xb
 2743 0145 3B       		.uleb128 0x3b
 2744 0146 05       		.uleb128 0x5
 2745 0147 49       		.uleb128 0x49
 2746 0148 13       		.uleb128 0x13
 2747 0149 02       		.uleb128 0x2
 2748 014a 17       		.uleb128 0x17
 2749 014b 00       		.byte	0
 2750 014c 00       		.byte	0
 2751 014d 1B       		.uleb128 0x1b
 2752 014e 34       		.uleb128 0x34
 2753 014f 00       		.byte	0
 2754 0150 03       		.uleb128 0x3
 2755 0151 0E       		.uleb128 0xe
 2756 0152 3A       		.uleb128 0x3a
 2757 0153 0B       		.uleb128 0xb
 2758 0154 3B       		.uleb128 0x3b
 2759 0155 05       		.uleb128 0x5
 2760 0156 49       		.uleb128 0x49
 2761 0157 13       		.uleb128 0x13
 2762 0158 02       		.uleb128 0x2
 2763 0159 17       		.uleb128 0x17
 2764 015a 00       		.byte	0
 2765 015b 00       		.byte	0
 2766 015c 1C       		.uleb128 0x1c
 2767 015d 34       		.uleb128 0x34
 2768 015e 00       		.byte	0
 2769 015f 03       		.uleb128 0x3
 2770 0160 08       		.uleb128 0x8
 2771 0161 3A       		.uleb128 0x3a
 2772 0162 0B       		.uleb128 0xb
 2773 0163 3B       		.uleb128 0x3b
 2774 0164 05       		.uleb128 0x5
 2775 0165 49       		.uleb128 0x49
 2776 0166 13       		.uleb128 0x13
 2777 0167 02       		.uleb128 0x2
 2778 0168 17       		.uleb128 0x17
 2779 0169 00       		.byte	0
 2780 016a 00       		.byte	0
 2781 016b 1D       		.uleb128 0x1d
 2782 016c 898201   		.uleb128 0x4109
 2783 016f 01       		.byte	0x1
 2784 0170 11       		.uleb128 0x11
 2785 0171 01       		.uleb128 0x1
 2786 0172 31       		.uleb128 0x31
ARM GAS  /tmp/cc8g7J8V.s 			page 50


 2787 0173 13       		.uleb128 0x13
 2788 0174 01       		.uleb128 0x1
 2789 0175 13       		.uleb128 0x13
 2790 0176 00       		.byte	0
 2791 0177 00       		.byte	0
 2792 0178 1E       		.uleb128 0x1e
 2793 0179 8A8201   		.uleb128 0x410a
 2794 017c 00       		.byte	0
 2795 017d 02       		.uleb128 0x2
 2796 017e 18       		.uleb128 0x18
 2797 017f 9142     		.uleb128 0x2111
 2798 0181 18       		.uleb128 0x18
 2799 0182 00       		.byte	0
 2800 0183 00       		.byte	0
 2801 0184 1F       		.uleb128 0x1f
 2802 0185 898201   		.uleb128 0x4109
 2803 0188 00       		.byte	0
 2804 0189 11       		.uleb128 0x11
 2805 018a 01       		.uleb128 0x1
 2806 018b 9542     		.uleb128 0x2115
 2807 018d 19       		.uleb128 0x19
 2808 018e 31       		.uleb128 0x31
 2809 018f 13       		.uleb128 0x13
 2810 0190 00       		.byte	0
 2811 0191 00       		.byte	0
 2812 0192 20       		.uleb128 0x20
 2813 0193 2E       		.uleb128 0x2e
 2814 0194 01       		.byte	0x1
 2815 0195 3F       		.uleb128 0x3f
 2816 0196 19       		.uleb128 0x19
 2817 0197 03       		.uleb128 0x3
 2818 0198 0E       		.uleb128 0xe
 2819 0199 3A       		.uleb128 0x3a
 2820 019a 0B       		.uleb128 0xb
 2821 019b 3B       		.uleb128 0x3b
 2822 019c 0B       		.uleb128 0xb
 2823 019d 27       		.uleb128 0x27
 2824 019e 19       		.uleb128 0x19
 2825 019f 11       		.uleb128 0x11
 2826 01a0 01       		.uleb128 0x1
 2827 01a1 12       		.uleb128 0x12
 2828 01a2 06       		.uleb128 0x6
 2829 01a3 40       		.uleb128 0x40
 2830 01a4 18       		.uleb128 0x18
 2831 01a5 9742     		.uleb128 0x2117
 2832 01a7 19       		.uleb128 0x19
 2833 01a8 01       		.uleb128 0x1
 2834 01a9 13       		.uleb128 0x13
 2835 01aa 00       		.byte	0
 2836 01ab 00       		.byte	0
 2837 01ac 21       		.uleb128 0x21
 2838 01ad 898201   		.uleb128 0x4109
 2839 01b0 01       		.byte	0x1
 2840 01b1 11       		.uleb128 0x11
 2841 01b2 01       		.uleb128 0x1
 2842 01b3 9542     		.uleb128 0x2115
 2843 01b5 19       		.uleb128 0x19
ARM GAS  /tmp/cc8g7J8V.s 			page 51


 2844 01b6 31       		.uleb128 0x31
 2845 01b7 13       		.uleb128 0x13
 2846 01b8 00       		.byte	0
 2847 01b9 00       		.byte	0
 2848 01ba 22       		.uleb128 0x22
 2849 01bb 2E       		.uleb128 0x2e
 2850 01bc 01       		.byte	0x1
 2851 01bd 03       		.uleb128 0x3
 2852 01be 0E       		.uleb128 0xe
 2853 01bf 3A       		.uleb128 0x3a
 2854 01c0 0B       		.uleb128 0xb
 2855 01c1 3B       		.uleb128 0x3b
 2856 01c2 0B       		.uleb128 0xb
 2857 01c3 27       		.uleb128 0x27
 2858 01c4 19       		.uleb128 0x19
 2859 01c5 11       		.uleb128 0x11
 2860 01c6 01       		.uleb128 0x1
 2861 01c7 12       		.uleb128 0x12
 2862 01c8 06       		.uleb128 0x6
 2863 01c9 40       		.uleb128 0x40
 2864 01ca 18       		.uleb128 0x18
 2865 01cb 9742     		.uleb128 0x2117
 2866 01cd 19       		.uleb128 0x19
 2867 01ce 01       		.uleb128 0x1
 2868 01cf 13       		.uleb128 0x13
 2869 01d0 00       		.byte	0
 2870 01d1 00       		.byte	0
 2871 01d2 23       		.uleb128 0x23
 2872 01d3 05       		.uleb128 0x5
 2873 01d4 00       		.byte	0
 2874 01d5 03       		.uleb128 0x3
 2875 01d6 08       		.uleb128 0x8
 2876 01d7 3A       		.uleb128 0x3a
 2877 01d8 0B       		.uleb128 0xb
 2878 01d9 3B       		.uleb128 0x3b
 2879 01da 0B       		.uleb128 0xb
 2880 01db 49       		.uleb128 0x49
 2881 01dc 13       		.uleb128 0x13
 2882 01dd 02       		.uleb128 0x2
 2883 01de 17       		.uleb128 0x17
 2884 01df 00       		.byte	0
 2885 01e0 00       		.byte	0
 2886 01e1 24       		.uleb128 0x24
 2887 01e2 898201   		.uleb128 0x4109
 2888 01e5 00       		.byte	0
 2889 01e6 11       		.uleb128 0x11
 2890 01e7 01       		.uleb128 0x1
 2891 01e8 31       		.uleb128 0x31
 2892 01e9 13       		.uleb128 0x13
 2893 01ea 00       		.byte	0
 2894 01eb 00       		.byte	0
 2895 01ec 25       		.uleb128 0x25
 2896 01ed 0A       		.uleb128 0xa
 2897 01ee 00       		.byte	0
 2898 01ef 03       		.uleb128 0x3
 2899 01f0 0E       		.uleb128 0xe
 2900 01f1 3A       		.uleb128 0x3a
ARM GAS  /tmp/cc8g7J8V.s 			page 52


 2901 01f2 0B       		.uleb128 0xb
 2902 01f3 3B       		.uleb128 0x3b
 2903 01f4 05       		.uleb128 0x5
 2904 01f5 00       		.byte	0
 2905 01f6 00       		.byte	0
 2906 01f7 26       		.uleb128 0x26
 2907 01f8 898201   		.uleb128 0x4109
 2908 01fb 01       		.byte	0x1
 2909 01fc 11       		.uleb128 0x11
 2910 01fd 01       		.uleb128 0x1
 2911 01fe 9542     		.uleb128 0x2115
 2912 0200 19       		.uleb128 0x19
 2913 0201 31       		.uleb128 0x31
 2914 0202 13       		.uleb128 0x13
 2915 0203 01       		.uleb128 0x1
 2916 0204 13       		.uleb128 0x13
 2917 0205 00       		.byte	0
 2918 0206 00       		.byte	0
 2919 0207 27       		.uleb128 0x27
 2920 0208 898201   		.uleb128 0x4109
 2921 020b 01       		.byte	0x1
 2922 020c 11       		.uleb128 0x11
 2923 020d 01       		.uleb128 0x1
 2924 020e 00       		.byte	0
 2925 020f 00       		.byte	0
 2926 0210 28       		.uleb128 0x28
 2927 0211 34       		.uleb128 0x34
 2928 0212 00       		.byte	0
 2929 0213 03       		.uleb128 0x3
 2930 0214 0E       		.uleb128 0xe
 2931 0215 3A       		.uleb128 0x3a
 2932 0216 0B       		.uleb128 0xb
 2933 0217 3B       		.uleb128 0x3b
 2934 0218 0B       		.uleb128 0xb
 2935 0219 49       		.uleb128 0x49
 2936 021a 13       		.uleb128 0x13
 2937 021b 02       		.uleb128 0x2
 2938 021c 18       		.uleb128 0x18
 2939 021d 00       		.byte	0
 2940 021e 00       		.byte	0
 2941 021f 29       		.uleb128 0x29
 2942 0220 34       		.uleb128 0x34
 2943 0221 00       		.byte	0
 2944 0222 03       		.uleb128 0x3
 2945 0223 0E       		.uleb128 0xe
 2946 0224 3A       		.uleb128 0x3a
 2947 0225 0B       		.uleb128 0xb
 2948 0226 3B       		.uleb128 0x3b
 2949 0227 05       		.uleb128 0x5
 2950 0228 49       		.uleb128 0x49
 2951 0229 13       		.uleb128 0x13
 2952 022a 3F       		.uleb128 0x3f
 2953 022b 19       		.uleb128 0x19
 2954 022c 3C       		.uleb128 0x3c
 2955 022d 19       		.uleb128 0x19
 2956 022e 00       		.byte	0
 2957 022f 00       		.byte	0
ARM GAS  /tmp/cc8g7J8V.s 			page 53


 2958 0230 2A       		.uleb128 0x2a
 2959 0231 2E       		.uleb128 0x2e
 2960 0232 01       		.byte	0x1
 2961 0233 3F       		.uleb128 0x3f
 2962 0234 19       		.uleb128 0x19
 2963 0235 03       		.uleb128 0x3
 2964 0236 0E       		.uleb128 0xe
 2965 0237 3A       		.uleb128 0x3a
 2966 0238 0B       		.uleb128 0xb
 2967 0239 3B       		.uleb128 0x3b
 2968 023a 0B       		.uleb128 0xb
 2969 023b 27       		.uleb128 0x27
 2970 023c 19       		.uleb128 0x19
 2971 023d 49       		.uleb128 0x49
 2972 023e 13       		.uleb128 0x13
 2973 023f 3C       		.uleb128 0x3c
 2974 0240 19       		.uleb128 0x19
 2975 0241 01       		.uleb128 0x1
 2976 0242 13       		.uleb128 0x13
 2977 0243 00       		.byte	0
 2978 0244 00       		.byte	0
 2979 0245 2B       		.uleb128 0x2b
 2980 0246 2E       		.uleb128 0x2e
 2981 0247 00       		.byte	0
 2982 0248 3F       		.uleb128 0x3f
 2983 0249 19       		.uleb128 0x19
 2984 024a 03       		.uleb128 0x3
 2985 024b 0E       		.uleb128 0xe
 2986 024c 3A       		.uleb128 0x3a
 2987 024d 0B       		.uleb128 0xb
 2988 024e 3B       		.uleb128 0x3b
 2989 024f 05       		.uleb128 0x5
 2990 0250 27       		.uleb128 0x27
 2991 0251 19       		.uleb128 0x19
 2992 0252 3C       		.uleb128 0x3c
 2993 0253 19       		.uleb128 0x19
 2994 0254 00       		.byte	0
 2995 0255 00       		.byte	0
 2996 0256 2C       		.uleb128 0x2c
 2997 0257 2E       		.uleb128 0x2e
 2998 0258 00       		.byte	0
 2999 0259 3F       		.uleb128 0x3f
 3000 025a 19       		.uleb128 0x19
 3001 025b 03       		.uleb128 0x3
 3002 025c 0E       		.uleb128 0xe
 3003 025d 3A       		.uleb128 0x3a
 3004 025e 0B       		.uleb128 0xb
 3005 025f 3B       		.uleb128 0x3b
 3006 0260 0B       		.uleb128 0xb
 3007 0261 27       		.uleb128 0x27
 3008 0262 19       		.uleb128 0x19
 3009 0263 3C       		.uleb128 0x3c
 3010 0264 19       		.uleb128 0x19
 3011 0265 00       		.byte	0
 3012 0266 00       		.byte	0
 3013 0267 2D       		.uleb128 0x2d
 3014 0268 2E       		.uleb128 0x2e
ARM GAS  /tmp/cc8g7J8V.s 			page 54


 3015 0269 01       		.byte	0x1
 3016 026a 3F       		.uleb128 0x3f
 3017 026b 19       		.uleb128 0x19
 3018 026c 03       		.uleb128 0x3
 3019 026d 0E       		.uleb128 0xe
 3020 026e 3A       		.uleb128 0x3a
 3021 026f 0B       		.uleb128 0xb
 3022 0270 3B       		.uleb128 0x3b
 3023 0271 0B       		.uleb128 0xb
 3024 0272 27       		.uleb128 0x27
 3025 0273 19       		.uleb128 0x19
 3026 0274 3C       		.uleb128 0x3c
 3027 0275 19       		.uleb128 0x19
 3028 0276 01       		.uleb128 0x1
 3029 0277 13       		.uleb128 0x13
 3030 0278 00       		.byte	0
 3031 0279 00       		.byte	0
 3032 027a 2E       		.uleb128 0x2e
 3033 027b 2E       		.uleb128 0x2e
 3034 027c 01       		.byte	0x1
 3035 027d 3F       		.uleb128 0x3f
 3036 027e 19       		.uleb128 0x19
 3037 027f 03       		.uleb128 0x3
 3038 0280 0E       		.uleb128 0xe
 3039 0281 3A       		.uleb128 0x3a
 3040 0282 0B       		.uleb128 0xb
 3041 0283 3B       		.uleb128 0x3b
 3042 0284 0B       		.uleb128 0xb
 3043 0285 27       		.uleb128 0x27
 3044 0286 19       		.uleb128 0x19
 3045 0287 49       		.uleb128 0x49
 3046 0288 13       		.uleb128 0x13
 3047 0289 3C       		.uleb128 0x3c
 3048 028a 19       		.uleb128 0x19
 3049 028b 00       		.byte	0
 3050 028c 00       		.byte	0
 3051 028d 00       		.byte	0
 3052              		.section	.debug_loc,"",%progbits
 3053              	.Ldebug_loc0:
 3054              	.LLST0:
 3055 0000 00000000 		.4byte	.LVL0
 3056 0004 06000000 		.4byte	.LVL1
 3057 0008 0100     		.2byte	0x1
 3058 000a 50       		.byte	0x50
 3059 000b 06000000 		.4byte	.LVL1
 3060 000f 64000000 		.4byte	.LVL8
 3061 0013 0100     		.2byte	0x1
 3062 0015 56       		.byte	0x56
 3063 0016 64000000 		.4byte	.LVL8
 3064 001a 68000000 		.4byte	.LFE12
 3065 001e 0400     		.2byte	0x4
 3066 0020 F3       		.byte	0xf3
 3067 0021 01       		.uleb128 0x1
 3068 0022 50       		.byte	0x50
 3069 0023 9F       		.byte	0x9f
 3070 0024 00000000 		.4byte	0
 3071 0028 00000000 		.4byte	0
ARM GAS  /tmp/cc8g7J8V.s 			page 55


 3072              	.LLST1:
 3073 002c 00000000 		.4byte	.LVL0
 3074 0030 0D000000 		.4byte	.LVL2-1
 3075 0034 0100     		.2byte	0x1
 3076 0036 51       		.byte	0x51
 3077 0037 0D000000 		.4byte	.LVL2-1
 3078 003b 64000000 		.4byte	.LVL8
 3079 003f 0100     		.2byte	0x1
 3080 0041 55       		.byte	0x55
 3081 0042 64000000 		.4byte	.LVL8
 3082 0046 68000000 		.4byte	.LFE12
 3083 004a 0400     		.2byte	0x4
 3084 004c F3       		.byte	0xf3
 3085 004d 01       		.uleb128 0x1
 3086 004e 51       		.byte	0x51
 3087 004f 9F       		.byte	0x9f
 3088 0050 00000000 		.4byte	0
 3089 0054 00000000 		.4byte	0
 3090              	.LLST2:
 3091 0058 00000000 		.4byte	.LVL0
 3092 005c 0D000000 		.4byte	.LVL2-1
 3093 0060 0100     		.2byte	0x1
 3094 0062 52       		.byte	0x52
 3095 0063 0D000000 		.4byte	.LVL2-1
 3096 0067 64000000 		.4byte	.LVL8
 3097 006b 0100     		.2byte	0x1
 3098 006d 57       		.byte	0x57
 3099 006e 64000000 		.4byte	.LVL8
 3100 0072 68000000 		.4byte	.LFE12
 3101 0076 0400     		.2byte	0x4
 3102 0078 F3       		.byte	0xf3
 3103 0079 01       		.uleb128 0x1
 3104 007a 52       		.byte	0x52
 3105 007b 9F       		.byte	0x9f
 3106 007c 00000000 		.4byte	0
 3107 0080 00000000 		.4byte	0
 3108              	.LLST3:
 3109 0084 0E000000 		.4byte	.LVL2
 3110 0088 67000000 		.4byte	.LVL9-1
 3111 008c 0100     		.2byte	0x1
 3112 008e 50       		.byte	0x50
 3113 008f 00000000 		.4byte	0
 3114 0093 00000000 		.4byte	0
 3115              	.LLST4:
 3116 0097 3A000000 		.4byte	.LVL3
 3117 009b 5C000000 		.4byte	.LVL6
 3118 009f 0100     		.2byte	0x1
 3119 00a1 54       		.byte	0x54
 3120 00a2 00000000 		.4byte	0
 3121 00a6 00000000 		.4byte	0
 3122              	.LLST5:
 3123 00aa 00000000 		.4byte	.LVL11
 3124 00ae 05000000 		.4byte	.LVL12-1
 3125 00b2 0100     		.2byte	0x1
 3126 00b4 50       		.byte	0x50
 3127 00b5 05000000 		.4byte	.LVL12-1
 3128 00b9 40000000 		.4byte	.LFE7
ARM GAS  /tmp/cc8g7J8V.s 			page 56


 3129 00bd 0400     		.2byte	0x4
 3130 00bf F3       		.byte	0xf3
 3131 00c0 01       		.uleb128 0x1
 3132 00c1 50       		.byte	0x50
 3133 00c2 9F       		.byte	0x9f
 3134 00c3 00000000 		.4byte	0
 3135 00c7 00000000 		.4byte	0
 3136              	.LLST6:
 3137 00cb 00000000 		.4byte	.LVL16
 3138 00cf 05000000 		.4byte	.LVL17-1
 3139 00d3 0100     		.2byte	0x1
 3140 00d5 50       		.byte	0x50
 3141 00d6 05000000 		.4byte	.LVL17-1
 3142 00da 1C000000 		.4byte	.LFE10
 3143 00de 0400     		.2byte	0x4
 3144 00e0 F3       		.byte	0xf3
 3145 00e1 01       		.uleb128 0x1
 3146 00e2 50       		.byte	0x50
 3147 00e3 9F       		.byte	0x9f
 3148 00e4 00000000 		.4byte	0
 3149 00e8 00000000 		.4byte	0
 3150              	.LLST7:
 3151 00ec 00000000 		.4byte	.LVL19
 3152 00f0 05000000 		.4byte	.LVL20-1
 3153 00f4 0100     		.2byte	0x1
 3154 00f6 50       		.byte	0x50
 3155 00f7 05000000 		.4byte	.LVL20-1
 3156 00fb 1C000000 		.4byte	.LFE9
 3157 00ff 0400     		.2byte	0x4
 3158 0101 F3       		.byte	0xf3
 3159 0102 01       		.uleb128 0x1
 3160 0103 50       		.byte	0x50
 3161 0104 9F       		.byte	0x9f
 3162 0105 00000000 		.4byte	0
 3163 0109 00000000 		.4byte	0
 3164              	.LLST8:
 3165 010d 00000000 		.4byte	.LVL22
 3166 0111 32000000 		.4byte	.LVL26
 3167 0115 0100     		.2byte	0x1
 3168 0117 50       		.byte	0x50
 3169 0118 32000000 		.4byte	.LVL26
 3170 011c 42000000 		.4byte	.LVL28
 3171 0120 0400     		.2byte	0x4
 3172 0122 F3       		.byte	0xf3
 3173 0123 01       		.uleb128 0x1
 3174 0124 50       		.byte	0x50
 3175 0125 9F       		.byte	0x9f
 3176 0126 42000000 		.4byte	.LVL28
 3177 012a 4A000000 		.4byte	.LFE13
 3178 012e 0100     		.2byte	0x1
 3179 0130 50       		.byte	0x50
 3180 0131 00000000 		.4byte	0
 3181 0135 00000000 		.4byte	0
 3182              	.LLST9:
 3183 0139 00000000 		.4byte	.LVL22
 3184 013d 34000000 		.4byte	.LVL27
 3185 0141 0100     		.2byte	0x1
ARM GAS  /tmp/cc8g7J8V.s 			page 57


 3186 0143 51       		.byte	0x51
 3187 0144 34000000 		.4byte	.LVL27
 3188 0148 42000000 		.4byte	.LVL28
 3189 014c 0400     		.2byte	0x4
 3190 014e F3       		.byte	0xf3
 3191 014f 01       		.uleb128 0x1
 3192 0150 51       		.byte	0x51
 3193 0151 9F       		.byte	0x9f
 3194 0152 42000000 		.4byte	.LVL28
 3195 0156 4A000000 		.4byte	.LFE13
 3196 015a 0100     		.2byte	0x1
 3197 015c 51       		.byte	0x51
 3198 015d 00000000 		.4byte	0
 3199 0161 00000000 		.4byte	0
 3200              	.LLST10:
 3201 0165 12000000 		.4byte	.LVL23
 3202 0169 41000000 		.4byte	.LVL28-1
 3203 016d 0100     		.2byte	0x1
 3204 016f 53       		.byte	0x53
 3205 0170 46000000 		.4byte	.LVL29
 3206 0174 4A000000 		.4byte	.LFE13
 3207 0178 0100     		.2byte	0x1
 3208 017a 53       		.byte	0x53
 3209 017b 00000000 		.4byte	0
 3210 017f 00000000 		.4byte	0
 3211              	.LLST11:
 3212 0183 12000000 		.4byte	.LVL23
 3213 0187 14000000 		.4byte	.LVL24
 3214 018b 0100     		.2byte	0x1
 3215 018d 53       		.byte	0x53
 3216 018e 14000000 		.4byte	.LVL24
 3217 0192 1A000000 		.4byte	.LVL25
 3218 0196 0100     		.2byte	0x1
 3219 0198 52       		.byte	0x52
 3220 0199 1A000000 		.4byte	.LVL25
 3221 019d 41000000 		.4byte	.LVL28-1
 3222 01a1 0100     		.2byte	0x1
 3223 01a3 53       		.byte	0x53
 3224 01a4 46000000 		.4byte	.LVL29
 3225 01a8 4A000000 		.4byte	.LFE13
 3226 01ac 0100     		.2byte	0x1
 3227 01ae 53       		.byte	0x53
 3228 01af 00000000 		.4byte	0
 3229 01b3 00000000 		.4byte	0
 3230              	.LLST12:
 3231 01b7 00000000 		.4byte	.LVL30
 3232 01bb 14000000 		.4byte	.LVL31
 3233 01bf 0100     		.2byte	0x1
 3234 01c1 50       		.byte	0x50
 3235 01c2 14000000 		.4byte	.LVL31
 3236 01c6 56000000 		.4byte	.LVL38
 3237 01ca 0100     		.2byte	0x1
 3238 01cc 57       		.byte	0x57
 3239 01cd 56000000 		.4byte	.LVL38
 3240 01d1 59000000 		.4byte	.LVL39-1
 3241 01d5 0100     		.2byte	0x1
 3242 01d7 50       		.byte	0x50
ARM GAS  /tmp/cc8g7J8V.s 			page 58


 3243 01d8 59000000 		.4byte	.LVL39-1
 3244 01dc 5A000000 		.4byte	.LVL39
 3245 01e0 0400     		.2byte	0x4
 3246 01e2 F3       		.byte	0xf3
 3247 01e3 01       		.uleb128 0x1
 3248 01e4 50       		.byte	0x50
 3249 01e5 9F       		.byte	0x9f
 3250 01e6 5A000000 		.4byte	.LVL39
 3251 01ea 74000000 		.4byte	.LFE14
 3252 01ee 0100     		.2byte	0x1
 3253 01f0 57       		.byte	0x57
 3254 01f1 00000000 		.4byte	0
 3255 01f5 00000000 		.4byte	0
 3256              	.LLST13:
 3257 01f9 00000000 		.4byte	.LVL30
 3258 01fd 14000000 		.4byte	.LVL31
 3259 0201 0100     		.2byte	0x1
 3260 0203 51       		.byte	0x51
 3261 0204 14000000 		.4byte	.LVL31
 3262 0208 56000000 		.4byte	.LVL38
 3263 020c 0100     		.2byte	0x1
 3264 020e 56       		.byte	0x56
 3265 020f 56000000 		.4byte	.LVL38
 3266 0213 59000000 		.4byte	.LVL39-1
 3267 0217 0100     		.2byte	0x1
 3268 0219 51       		.byte	0x51
 3269 021a 59000000 		.4byte	.LVL39-1
 3270 021e 5A000000 		.4byte	.LVL39
 3271 0222 0400     		.2byte	0x4
 3272 0224 F3       		.byte	0xf3
 3273 0225 01       		.uleb128 0x1
 3274 0226 51       		.byte	0x51
 3275 0227 9F       		.byte	0x9f
 3276 0228 5A000000 		.4byte	.LVL39
 3277 022c 74000000 		.4byte	.LFE14
 3278 0230 0100     		.2byte	0x1
 3279 0232 56       		.byte	0x56
 3280 0233 00000000 		.4byte	0
 3281 0237 00000000 		.4byte	0
 3282              	.LLST14:
 3283 023b 44000000 		.4byte	.LVL36
 3284 023f 4E000000 		.4byte	.LVL37
 3285 0243 0100     		.2byte	0x1
 3286 0245 50       		.byte	0x50
 3287 0246 5A000000 		.4byte	.LVL39
 3288 024a 6E000000 		.4byte	.LVL40
 3289 024e 0100     		.2byte	0x1
 3290 0250 50       		.byte	0x50
 3291 0251 00000000 		.4byte	0
 3292 0255 00000000 		.4byte	0
 3293              	.LLST15:
 3294 0259 14000000 		.4byte	.LVL31
 3295 025d 25000000 		.4byte	.LVL34-1
 3296 0261 0100     		.2byte	0x1
 3297 0263 52       		.byte	0x52
 3298 0264 00000000 		.4byte	0
 3299 0268 00000000 		.4byte	0
ARM GAS  /tmp/cc8g7J8V.s 			page 59


 3300              	.LLST16:
 3301 026c 18000000 		.4byte	.LVL32
 3302 0270 28000000 		.4byte	.LVL35
 3303 0274 0100     		.2byte	0x1
 3304 0276 54       		.byte	0x54
 3305 0277 6E000000 		.4byte	.LVL40
 3306 027b 74000000 		.4byte	.LFE14
 3307 027f 0100     		.2byte	0x1
 3308 0281 54       		.byte	0x54
 3309 0282 00000000 		.4byte	0
 3310 0286 00000000 		.4byte	0
 3311              	.LLST17:
 3312 028a 22000000 		.4byte	.LVL33
 3313 028e 28000000 		.4byte	.LVL35
 3314 0292 0100     		.2byte	0x1
 3315 0294 59       		.byte	0x59
 3316 0295 6E000000 		.4byte	.LVL40
 3317 0299 74000000 		.4byte	.LFE14
 3318 029d 0100     		.2byte	0x1
 3319 029f 59       		.byte	0x59
 3320 02a0 00000000 		.4byte	0
 3321 02a4 00000000 		.4byte	0
 3322              		.section	.debug_aranges,"",%progbits
 3323 0000 54000000 		.4byte	0x54
 3324 0004 0200     		.2byte	0x2
 3325 0006 00000000 		.4byte	.Ldebug_info0
 3326 000a 04       		.byte	0x4
 3327 000b 00       		.byte	0
 3328 000c 0000     		.2byte	0
 3329 000e 0000     		.2byte	0
 3330 0010 00000000 		.4byte	.LFB12
 3331 0014 68000000 		.4byte	.LFE12-.LFB12
 3332 0018 00000000 		.4byte	.LFB8
 3333 001c 46000000 		.4byte	.LFE8-.LFB8
 3334 0020 00000000 		.4byte	.LFB7
 3335 0024 40000000 		.4byte	.LFE7-.LFB7
 3336 0028 00000000 		.4byte	.LFB11
 3337 002c 2A000000 		.4byte	.LFE11-.LFB11
 3338 0030 00000000 		.4byte	.LFB10
 3339 0034 1C000000 		.4byte	.LFE10-.LFB10
 3340 0038 00000000 		.4byte	.LFB9
 3341 003c 1C000000 		.4byte	.LFE9-.LFB9
 3342 0040 00000000 		.4byte	.LFB13
 3343 0044 4A000000 		.4byte	.LFE13-.LFB13
 3344 0048 00000000 		.4byte	.LFB14
 3345 004c 74000000 		.4byte	.LFE14-.LFB14
 3346 0050 00000000 		.4byte	0
 3347 0054 00000000 		.4byte	0
 3348              		.section	.debug_ranges,"",%progbits
 3349              	.Ldebug_ranges0:
 3350 0000 00000000 		.4byte	.LFB12
 3351 0004 68000000 		.4byte	.LFE12
 3352 0008 00000000 		.4byte	.LFB8
 3353 000c 46000000 		.4byte	.LFE8
 3354 0010 00000000 		.4byte	.LFB7
 3355 0014 40000000 		.4byte	.LFE7
 3356 0018 00000000 		.4byte	.LFB11
ARM GAS  /tmp/cc8g7J8V.s 			page 60


 3357 001c 2A000000 		.4byte	.LFE11
 3358 0020 00000000 		.4byte	.LFB10
 3359 0024 1C000000 		.4byte	.LFE10
 3360 0028 00000000 		.4byte	.LFB9
 3361 002c 1C000000 		.4byte	.LFE9
 3362 0030 00000000 		.4byte	.LFB13
 3363 0034 4A000000 		.4byte	.LFE13
 3364 0038 00000000 		.4byte	.LFB14
 3365 003c 74000000 		.4byte	.LFE14
 3366 0040 00000000 		.4byte	0
 3367 0044 00000000 		.4byte	0
 3368              		.section	.debug_line,"",%progbits
 3369              	.Ldebug_line0:
 3370 0000 5A030000 		.section	.debug_str,"MS",%progbits,1
 3370      02002502 
 3370      00000201 
 3370      FB0E0D00 
 3370      01010101 
 3371              	.LASF195:
 3372 0000 70726576 		.ascii	"prev_t\000"
 3372      5F7400
 3373              	.LASF199:
 3374 0007 746D7074 		.ascii	"tmptimeout\000"
 3374      696D656F 
 3374      757400
 3375              	.LASF52:
 3376 0012 54687265 		.ascii	"ThreadsList\000"
 3376      6164734C 
 3376      69737400 
 3377              	.LASF44:
 3378 001e 705F7761 		.ascii	"p_waiting\000"
 3378      6974696E 
 3378      6700
 3379              	.LASF82:
 3380 0028 7379735F 		.ascii	"sys_mbox_t\000"
 3380      6D626F78 
 3380      5F7400
 3381              	.LASF172:
 3382 0033 4D454D50 		.ascii	"MEMP_TCP_PCB_LISTEN\000"
 3382      5F544350 
 3382      5F504342 
 3382      5F4C4953 
 3382      54454E00 
 3383              	.LASF43:
 3384 0047 705F7469 		.ascii	"p_time\000"
 3384      6D6500
 3385              	.LASF99:
 3386 004e 736F5F6F 		.ascii	"so_options\000"
 3386      7074696F 
 3386      6E7300
 3387              	.LASF212:
 3388 0059 2F686F6D 		.ascii	"/home/caroline/Documents/PAF/ChibiOS_2.6.4/demos/AR"
 3388      652F6361 
 3388      726F6C69 
 3388      6E652F44 
 3388      6F63756D 
 3389 008c 4D434D34 		.ascii	"MCM4-STM32F407-LWIP\000"
ARM GAS  /tmp/cc8g7J8V.s 			page 61


 3389      2D53544D 
 3389      33324634 
 3389      30372D4C 
 3389      57495000 
 3390              	.LASF34:
 3391 00a0 705F7072 		.ascii	"p_prio\000"
 3391      696F00
 3392              	.LASF214:
 3393 00a7 61676169 		.ascii	"again\000"
 3393      6E00
 3394              	.LASF83:
 3395 00ad 7379735F 		.ascii	"sys_timeout_handler\000"
 3395      74696D65 
 3395      6F75745F 
 3395      68616E64 
 3395      6C657200 
 3396              	.LASF168:
 3397 00c1 75726770 		.ascii	"urgp\000"
 3397      00
 3398              	.LASF106:
 3399 00c6 706F6C6C 		.ascii	"polltmr\000"
 3399      746D7200 
 3400              	.LASF95:
 3401 00ce 7463705F 		.ascii	"tcp_accept_fn\000"
 3401      61636365 
 3401      70745F66 
 3401      6E00
 3402              	.LASF91:
 3403 00dc 666C6167 		.ascii	"flags\000"
 3403      7300
 3404              	.LASF29:
 3405 00e2 73797374 		.ascii	"systime_t\000"
 3405      696D655F 
 3405      7400
 3406              	.LASF62:
 3407 00ec 6D5F6F77 		.ascii	"m_owner\000"
 3407      6E657200 
 3408              	.LASF58:
 3409 00f4 735F7175 		.ascii	"s_queue\000"
 3409      65756500 
 3410              	.LASF45:
 3411 00fc 705F6D73 		.ascii	"p_msgqueue\000"
 3411      67717565 
 3411      756500
 3412              	.LASF0:
 3413 0107 756E7369 		.ascii	"unsigned int\000"
 3413      676E6564 
 3413      20696E74 
 3413      00
 3414              	.LASF148:
 3415 0114 7463705F 		.ascii	"tcp_connected_fn\000"
 3415      636F6E6E 
 3415      65637465 
 3415      645F666E 
 3415      00
 3416              	.LASF85:
 3417 0125 6E657874 		.ascii	"next\000"
ARM GAS  /tmp/cc8g7J8V.s 			page 62


 3417      00
 3418              	.LASF194:
 3419 012a 7379735F 		.ascii	"sys_untimeout\000"
 3419      756E7469 
 3419      6D656F75 
 3419      7400
 3420              	.LASF81:
 3421 0138 6572725F 		.ascii	"err_t\000"
 3421      7400
 3422              	.LASF201:
 3423 013e 74637069 		.ascii	"tcpip_tcp_timer_active\000"
 3423      705F7463 
 3423      705F7469 
 3423      6D65725F 
 3423      61637469 
 3424              	.LASF9:
 3425 0155 5F5F696E 		.ascii	"__int32_t\000"
 3425      7433325F 
 3425      7400
 3426              	.LASF78:
 3427 015f 7531365F 		.ascii	"u16_t\000"
 3427      7400
 3428              	.LASF198:
 3429 0165 74696D65 		.ascii	"time_needed\000"
 3429      5F6E6565 
 3429      64656400 
 3430              	.LASF73:
 3431 0171 77746F62 		.ascii	"wtobjp\000"
 3431      6A7000
 3432              	.LASF186:
 3433 0178 68616E64 		.ascii	"handler\000"
 3433      6C657200 
 3434              	.LASF112:
 3435 0180 7263765F 		.ascii	"rcv_ann_right_edge\000"
 3435      616E6E5F 
 3435      72696768 
 3435      745F6564 
 3435      676500
 3436              	.LASF74:
 3437 0193 65776D61 		.ascii	"ewmask\000"
 3437      736B00
 3438              	.LASF143:
 3439 019a 6B656570 		.ascii	"keep_cnt_sent\000"
 3439      5F636E74 
 3439      5F73656E 
 3439      7400
 3440              	.LASF70:
 3441 01a8 4D61696C 		.ascii	"Mailbox\000"
 3441      626F7800 
 3442              	.LASF145:
 3443 01b0 7463705F 		.ascii	"tcp_sent_fn\000"
 3443      73656E74 
 3443      5F666E00 
 3444              	.LASF59:
 3445 01bc 735F636E 		.ascii	"s_cnt\000"
 3445      7400
 3446              	.LASF205:
ARM GAS  /tmp/cc8g7J8V.s 			page 63


 3447 01c2 7463705F 		.ascii	"tcp_tmr\000"
 3447      746D7200 
 3448              	.LASF164:
 3449 01ca 7365716E 		.ascii	"seqno\000"
 3449      6F00
 3450              	.LASF20:
 3451 01d0 75696E74 		.ascii	"uint32_t\000"
 3451      33325F74 
 3451      00
 3452              	.LASF15:
 3453 01d9 696E7438 		.ascii	"int8_t\000"
 3453      5F7400
 3454              	.LASF119:
 3455 01e0 63776E64 		.ascii	"cwnd\000"
 3455      00
 3456              	.LASF28:
 3457 01e5 6576656E 		.ascii	"eventmask_t\000"
 3457      746D6173 
 3457      6B5F7400 
 3458              	.LASF178:
 3459 01f1 4D454D50 		.ascii	"MEMP_TCPIP_MSG_API\000"
 3459      5F544350 
 3459      49505F4D 
 3459      53475F41 
 3459      504900
 3460              	.LASF104:
 3461 0204 6C6F6361 		.ascii	"local_port\000"
 3461      6C5F706F 
 3461      727400
 3462              	.LASF26:
 3463 020f 74707269 		.ascii	"tprio_t\000"
 3463      6F5F7400 
 3464              	.LASF17:
 3465 0217 696E7431 		.ascii	"int16_t\000"
 3465      365F7400 
 3466              	.LASF160:
 3467 021f 7463705F 		.ascii	"tcp_seg\000"
 3467      73656700 
 3468              	.LASF14:
 3469 0227 6C6F6E67 		.ascii	"long long unsigned int\000"
 3469      206C6F6E 
 3469      6720756E 
 3469      7369676E 
 3469      65642069 
 3470              	.LASF7:
 3471 023e 5F5F7569 		.ascii	"__uint16_t\000"
 3471      6E743136 
 3471      5F7400
 3472              	.LASF30:
 3473 0249 636E745F 		.ascii	"cnt_t\000"
 3473      7400
 3474              	.LASF113:
 3475 024f 7274696D 		.ascii	"rtime\000"
 3475      6500
 3476              	.LASF86:
 3477 0255 74696D65 		.ascii	"time\000"
 3477      00
ARM GAS  /tmp/cc8g7J8V.s 			page 64


 3478              	.LASF36:
 3479 025a 705F6E65 		.ascii	"p_newer\000"
 3479      77657200 
 3480              	.LASF109:
 3481 0262 7263765F 		.ascii	"rcv_nxt\000"
 3481      6E787400 
 3482              	.LASF179:
 3483 026a 4D454D50 		.ascii	"MEMP_TCPIP_MSG_INPKT\000"
 3483      5F544350 
 3483      49505F4D 
 3483      53475F49 
 3483      4E504B54 
 3484              	.LASF208:
 3485 027f 6D656D70 		.ascii	"memp_free\000"
 3485      5F667265 
 3485      6500
 3486              	.LASF132:
 3487 0289 756E6163 		.ascii	"unacked\000"
 3487      6B656400 
 3488              	.LASF154:
 3489 0291 46494E5F 		.ascii	"FIN_WAIT_1\000"
 3489      57414954 
 3489      5F3100
 3490              	.LASF196:
 3491 029c 7379735F 		.ascii	"sys_timeouts_mbox_fetch\000"
 3491      74696D65 
 3491      6F757473 
 3491      5F6D626F 
 3491      785F6665 
 3492              	.LASF158:
 3493 02b4 4C415354 		.ascii	"LAST_ACK\000"
 3493      5F41434B 
 3493      00
 3494              	.LASF89:
 3495 02bd 746F745F 		.ascii	"tot_len\000"
 3495      6C656E00 
 3496              	.LASF71:
 3497 02c5 7264796D 		.ascii	"rdymsg\000"
 3497      736700
 3498              	.LASF88:
 3499 02cc 7061796C 		.ascii	"payload\000"
 3499      6F616400 
 3500              	.LASF192:
 3501 02d4 6172705F 		.ascii	"arp_timer\000"
 3501      74696D65 
 3501      7200
 3502              	.LASF207:
 3503 02de 69705F72 		.ascii	"ip_reass_tmr\000"
 3503      65617373 
 3503      5F746D72 
 3503      00
 3504              	.LASF137:
 3505 02eb 636F6E6E 		.ascii	"connected\000"
 3505      65637465 
 3505      6400
 3506              	.LASF21:
 3507 02f5 5F426F6F 		.ascii	"_Bool\000"
ARM GAS  /tmp/cc8g7J8V.s 			page 65


 3507      6C00
 3508              	.LASF67:
 3509 02fb 6D625F72 		.ascii	"mb_rdptr\000"
 3509      64707472 
 3509      00
 3510              	.LASF157:
 3511 0304 434C4F53 		.ascii	"CLOSING\000"
 3511      494E4700 
 3512              	.LASF211:
 3513 030c 2E2E2F2E 		.ascii	"../../ext/lwip/src/core/timers.c\000"
 3513      2E2F6578 
 3513      742F6C77 
 3513      69702F73 
 3513      72632F63 
 3514              	.LASF118:
 3515 032d 6C617374 		.ascii	"lastack\000"
 3515      61636B00 
 3516              	.LASF183:
 3517 0335 4D454D50 		.ascii	"MEMP_MAX\000"
 3517      5F4D4158 
 3517      00
 3518              	.LASF77:
 3519 033e 73385F74 		.ascii	"s8_t\000"
 3519      00
 3520              	.LASF206:
 3521 0343 65746861 		.ascii	"etharp_tmr\000"
 3521      72705F74 
 3521      6D7200
 3522              	.LASF60:
 3523 034e 4D757465 		.ascii	"Mutex\000"
 3523      7800
 3524              	.LASF69:
 3525 0354 6D625F65 		.ascii	"mb_emptysem\000"
 3525      6D707479 
 3525      73656D00 
 3526              	.LASF177:
 3527 0360 4D454D50 		.ascii	"MEMP_NETCONN\000"
 3527      5F4E4554 
 3527      434F4E4E 
 3527      00
 3528              	.LASF115:
 3529 036d 72747365 		.ascii	"rtseq\000"
 3529      7100
 3530              	.LASF38:
 3531 0373 705F6E61 		.ascii	"p_name\000"
 3531      6D6500
 3532              	.LASF117:
 3533 037a 64757061 		.ascii	"dupacks\000"
 3533      636B7300 
 3534              	.LASF108:
 3535 0382 6C617374 		.ascii	"last_timer\000"
 3535      5F74696D 
 3535      657200
 3536              	.LASF103:
 3537 038d 7072696F 		.ascii	"prio\000"
 3537      00
 3538              	.LASF101:
ARM GAS  /tmp/cc8g7J8V.s 			page 66


 3539 0392 61636365 		.ascii	"accept\000"
 3539      707400
 3540              	.LASF181:
 3541 0399 4D454D50 		.ascii	"MEMP_PBUF\000"
 3541      5F504255 
 3541      4600
 3542              	.LASF138:
 3543 03a3 706F6C6C 		.ascii	"poll\000"
 3543      00
 3544              	.LASF51:
 3545 03a8 54687265 		.ascii	"ThreadsQueue\000"
 3545      61647351 
 3545      75657565 
 3545      00
 3546              	.LASF75:
 3547 03b5 63686172 		.ascii	"char\000"
 3547      00
 3548              	.LASF188:
 3549 03ba 7379735F 		.ascii	"sys_timeout\000"
 3549      74696D65 
 3549      6F757400 
 3550              	.LASF127:
 3551 03c6 61636B65 		.ascii	"acked\000"
 3551      6400
 3552              	.LASF156:
 3553 03cc 434C4F53 		.ascii	"CLOSE_WAIT\000"
 3553      455F5741 
 3553      495400
 3554              	.LASF31:
 3555 03d7 54687265 		.ascii	"Thread\000"
 3555      616400
 3556              	.LASF23:
 3557 03de 74737461 		.ascii	"tstate_t\000"
 3557      74655F74 
 3557      00
 3558              	.LASF37:
 3559 03e7 705F6F6C 		.ascii	"p_older\000"
 3559      64657200 
 3560              	.LASF39:
 3561 03ef 705F7374 		.ascii	"p_state\000"
 3561      61746500 
 3562              	.LASF135:
 3563 03f7 73656E74 		.ascii	"sent\000"
 3563      00
 3564              	.LASF16:
 3565 03fc 75696E74 		.ascii	"uint8_t\000"
 3565      385F7400 
 3566              	.LASF68:
 3567 0404 6D625F66 		.ascii	"mb_fullsem\000"
 3567      756C6C73 
 3567      656D00
 3568              	.LASF122:
 3569 040f 736E645F 		.ascii	"snd_wl1\000"
 3569      776C3100 
 3570              	.LASF123:
 3571 0417 736E645F 		.ascii	"snd_wl2\000"
 3571      776C3200 
ARM GAS  /tmp/cc8g7J8V.s 			page 67


 3572              	.LASF50:
 3573 041f 705F6D70 		.ascii	"p_mpool\000"
 3573      6F6F6C00 
 3574              	.LASF48:
 3575 0427 705F6D74 		.ascii	"p_mtxlist\000"
 3575      786C6973 
 3575      7400
 3576              	.LASF147:
 3577 0431 7463705F 		.ascii	"tcp_err_fn\000"
 3577      6572725F 
 3577      666E00
 3578              	.LASF53:
 3579 043c 72656761 		.ascii	"regarm_t\000"
 3579      726D5F74 
 3579      00
 3580              	.LASF124:
 3581 0445 736E645F 		.ascii	"snd_lbb\000"
 3581      6C626200 
 3582              	.LASF215:
 3583 044d 6D656D70 		.ascii	"memp_malloc\000"
 3583      5F6D616C 
 3583      6C6F6300 
 3584              	.LASF176:
 3585 0459 4D454D50 		.ascii	"MEMP_NETBUF\000"
 3585      5F4E4554 
 3585      42554600 
 3586              	.LASF13:
 3587 0465 6C6F6E67 		.ascii	"long long int\000"
 3587      206C6F6E 
 3587      6720696E 
 3587      7400
 3588              	.LASF209:
 3589 0473 7379735F 		.ascii	"sys_arch_mbox_fetch\000"
 3589      61726368 
 3589      5F6D626F 
 3589      785F6665 
 3589      74636800 
 3590              	.LASF165:
 3591 0487 61636B6E 		.ascii	"ackno\000"
 3591      6F00
 3592              	.LASF142:
 3593 048d 70657273 		.ascii	"persist_backoff\000"
 3593      6973745F 
 3593      6261636B 
 3593      6F666600 
 3594              	.LASF27:
 3595 049d 6D73675F 		.ascii	"msg_t\000"
 3595      7400
 3596              	.LASF159:
 3597 04a3 54494D45 		.ascii	"TIME_WAIT\000"
 3597      5F574149 
 3597      5400
 3598              	.LASF55:
 3599 04ad 636F6E74 		.ascii	"context\000"
 3599      65787400 
 3600              	.LASF76:
 3601 04b5 75385F74 		.ascii	"u8_t\000"
ARM GAS  /tmp/cc8g7J8V.s 			page 68


 3601      00
 3602              	.LASF40:
 3603 04ba 705F666C 		.ascii	"p_flags\000"
 3603      61677300 
 3604              	.LASF5:
 3605 04c2 5F5F696E 		.ascii	"__int16_t\000"
 3605      7431365F 
 3605      7400
 3606              	.LASF189:
 3607 04cc 7463705F 		.ascii	"tcp_timer_needed\000"
 3607      74696D65 
 3607      725F6E65 
 3607      65646564 
 3607      00
 3608              	.LASF105:
 3609 04dd 72656D6F 		.ascii	"remote_port\000"
 3609      74655F70 
 3609      6F727400 
 3610              	.LASF65:
 3611 04e9 6D625F74 		.ascii	"mb_top\000"
 3611      6F7000
 3612              	.LASF111:
 3613 04f0 7263765F 		.ascii	"rcv_ann_wnd\000"
 3613      616E6E5F 
 3613      776E6400 
 3614              	.LASF25:
 3615 04fc 74736C69 		.ascii	"tslices_t\000"
 3615      6365735F 
 3615      7400
 3616              	.LASF174:
 3617 0506 4D454D50 		.ascii	"MEMP_REASSDATA\000"
 3617      5F524541 
 3617      53534441 
 3617      544100
 3618              	.LASF182:
 3619 0515 4D454D50 		.ascii	"MEMP_PBUF_POOL\000"
 3619      5F504255 
 3619      465F504F 
 3619      4F4C00
 3620              	.LASF144:
 3621 0524 7463705F 		.ascii	"tcp_recv_fn\000"
 3621      72656376 
 3621      5F666E00 
 3622              	.LASF46:
 3623 0530 705F6D73 		.ascii	"p_msg\000"
 3623      6700
 3624              	.LASF2:
 3625 0536 5F5F696E 		.ascii	"__int8_t\000"
 3625      74385F74 
 3625      00
 3626              	.LASF22:
 3627 053f 746D6F64 		.ascii	"tmode_t\000"
 3627      655F7400 
 3628              	.LASF146:
 3629 0547 7463705F 		.ascii	"tcp_poll_fn\000"
 3629      706F6C6C 
 3629      5F666E00 
ARM GAS  /tmp/cc8g7J8V.s 			page 69


 3630              	.LASF18:
 3631 0553 75696E74 		.ascii	"uint16_t\000"
 3631      31365F74 
 3631      00
 3632              	.LASF139:
 3633 055c 65727266 		.ascii	"errf\000"
 3633      00
 3634              	.LASF54:
 3635 0561 696E7463 		.ascii	"intctx\000"
 3635      747800
 3636              	.LASF125:
 3637 0568 736E645F 		.ascii	"snd_wnd\000"
 3637      776E6400 
 3638              	.LASF187:
 3639 0570 74696D65 		.ascii	"timeout\000"
 3639      6F757400 
 3640              	.LASF133:
 3641 0578 6F6F7365 		.ascii	"ooseq\000"
 3641      7100
 3642              	.LASF49:
 3643 057e 705F7265 		.ascii	"p_realprio\000"
 3643      616C7072 
 3643      696F00
 3644              	.LASF149:
 3645 0589 434C4F53 		.ascii	"CLOSED\000"
 3645      454400
 3646              	.LASF80:
 3647 0590 7533325F 		.ascii	"u32_t\000"
 3647      7400
 3648              	.LASF6:
 3649 0596 73686F72 		.ascii	"short int\000"
 3649      7420696E 
 3649      7400
 3650              	.LASF66:
 3651 05a0 6D625F77 		.ascii	"mb_wrptr\000"
 3651      72707472 
 3651      00
 3652              	.LASF47:
 3653 05a9 705F6570 		.ascii	"p_epending\000"
 3653      656E6469 
 3653      6E6700
 3654              	.LASF61:
 3655 05b4 6D5F7175 		.ascii	"m_queue\000"
 3655      65756500 
 3656              	.LASF10:
 3657 05bc 6C6F6E67 		.ascii	"long int\000"
 3657      20696E74 
 3657      00
 3658              	.LASF131:
 3659 05c5 756E7365 		.ascii	"unsent\000"
 3659      6E7400
 3660              	.LASF110:
 3661 05cc 7263765F 		.ascii	"rcv_wnd\000"
 3661      776E6400 
 3662              	.LASF114:
 3663 05d4 72747465 		.ascii	"rttest\000"
 3663      737400
ARM GAS  /tmp/cc8g7J8V.s 			page 70


 3664              	.LASF84:
 3665 05db 7379735F 		.ascii	"sys_timeo\000"
 3665      74696D65 
 3665      6F00
 3666              	.LASF180:
 3667 05e5 4D454D50 		.ascii	"MEMP_SYS_TIMEOUT\000"
 3667      5F535953 
 3667      5F54494D 
 3667      454F5554 
 3667      00
 3668              	.LASF32:
 3669 05f6 705F6E65 		.ascii	"p_next\000"
 3669      787400
 3670              	.LASF170:
 3671 05fd 4D454D50 		.ascii	"MEMP_UDP_PCB\000"
 3671      5F554450 
 3671      5F504342 
 3671      00
 3672              	.LASF97:
 3673 060a 6C6F6361 		.ascii	"local_ip\000"
 3673      6C5F6970 
 3673      00
 3674              	.LASF35:
 3675 0613 705F6374 		.ascii	"p_ctx\000"
 3675      7800
 3676              	.LASF197:
 3677 0619 6D626F78 		.ascii	"mbox\000"
 3677      00
 3678              	.LASF130:
 3679 061e 756E7365 		.ascii	"unsent_oversize\000"
 3679      6E745F6F 
 3679      76657273 
 3679      697A6500 
 3680              	.LASF193:
 3681 062e 69705F72 		.ascii	"ip_reass_timer\000"
 3681      65617373 
 3681      5F74696D 
 3681      657200
 3682              	.LASF121:
 3683 063d 736E645F 		.ascii	"snd_nxt\000"
 3683      6E787400 
 3684              	.LASF3:
 3685 0645 5F5F7569 		.ascii	"__uint8_t\000"
 3685      6E74385F 
 3685      7400
 3686              	.LASF153:
 3687 064f 45535441 		.ascii	"ESTABLISHED\000"
 3687      424C4953 
 3687      48454400 
 3688              	.LASF57:
 3689 065b 53656D61 		.ascii	"Semaphore\000"
 3689      70686F72 
 3689      6500
 3690              	.LASF126:
 3691 0665 736E645F 		.ascii	"snd_wnd_max\000"
 3691      776E645F 
 3691      6D617800 
ARM GAS  /tmp/cc8g7J8V.s 			page 71


 3692              	.LASF175:
 3693 0671 4D454D50 		.ascii	"MEMP_FRAG_PBUF\000"
 3693      5F465241 
 3693      475F5042 
 3693      554600
 3694              	.LASF120:
 3695 0680 73737468 		.ascii	"ssthresh\000"
 3695      72657368 
 3695      00
 3696              	.LASF128:
 3697 0689 736E645F 		.ascii	"snd_buf\000"
 3697      62756600 
 3698              	.LASF107:
 3699 0691 706F6C6C 		.ascii	"pollinterval\000"
 3699      696E7465 
 3699      7276616C 
 3699      00
 3700              	.LASF169:
 3701 069e 4D454D50 		.ascii	"MEMP_RAW_PCB\000"
 3701      5F524157 
 3701      5F504342 
 3701      00
 3702              	.LASF166:
 3703 06ab 5F686472 		.ascii	"_hdrlen_rsvd_flags\000"
 3703      6C656E5F 
 3703      72737664 
 3703      5F666C61 
 3703      677300
 3704              	.LASF33:
 3705 06be 705F7072 		.ascii	"p_prev\000"
 3705      657600
 3706              	.LASF56:
 3707 06c5 73697A65 		.ascii	"sizetype\000"
 3707      74797065 
 3707      00
 3708              	.LASF24:
 3709 06ce 74726566 		.ascii	"trefs_t\000"
 3709      735F7400 
 3710              	.LASF12:
 3711 06d6 6C6F6E67 		.ascii	"long unsigned int\000"
 3711      20756E73 
 3711      69676E65 
 3711      6420696E 
 3711      7400
 3712              	.LASF210:
 3713 06e8 474E5520 		.ascii	"GNU C 4.8.2 -mcpu=cortex-m4 -mno-thumb-interwork -m"
 3713      4320342E 
 3713      382E3220 
 3713      2D6D6370 
 3713      753D636F 
 3714 071b 7468756D 		.ascii	"thumb -ggdb -O2 -std=gnu99 -fomit-frame-pointer -fa"
 3714      62202D67 
 3714      67646220 
 3714      2D4F3220 
 3714      2D737464 
 3715 074e 6C69676E 		.ascii	"lign-functions=16 -ffunction-sections -fdata-sectio"
 3715      2D66756E 
ARM GAS  /tmp/cc8g7J8V.s 			page 72


 3715      6374696F 
 3715      6E733D31 
 3715      36202D66 
 3716 0781 6E73202D 		.ascii	"ns -fno-common\000"
 3716      666E6F2D 
 3716      636F6D6D 
 3716      6F6E00
 3717              	.LASF64:
 3718 0790 6D625F62 		.ascii	"mb_buffer\000"
 3718      75666665 
 3718      7200
 3719              	.LASF171:
 3720 079a 4D454D50 		.ascii	"MEMP_TCP_PCB\000"
 3720      5F544350 
 3720      5F504342 
 3720      00
 3721              	.LASF161:
 3722 07a7 74637068 		.ascii	"tcphdr\000"
 3722      647200
 3723              	.LASF79:
 3724 07ae 7331365F 		.ascii	"s16_t\000"
 3724      7400
 3725              	.LASF19:
 3726 07b4 696E7433 		.ascii	"int32_t\000"
 3726      325F7400 
 3727              	.LASF134:
 3728 07bc 72656675 		.ascii	"refused_data\000"
 3728      7365645F 
 3728      64617461 
 3728      00
 3729              	.LASF162:
 3730 07c9 7463705F 		.ascii	"tcp_hdr\000"
 3730      68647200 
 3731              	.LASF90:
 3732 07d1 74797065 		.ascii	"type\000"
 3732      00
 3733              	.LASF4:
 3734 07d6 756E7369 		.ascii	"unsigned char\000"
 3734      676E6564 
 3734      20636861 
 3734      7200
 3735              	.LASF11:
 3736 07e4 5F5F7569 		.ascii	"__uint32_t\000"
 3736      6E743332 
 3736      5F7400
 3737              	.LASF155:
 3738 07ef 46494E5F 		.ascii	"FIN_WAIT_2\000"
 3738      57414954 
 3738      5F3200
 3739              	.LASF41:
 3740 07fa 705F7265 		.ascii	"p_refs\000"
 3740      667300
 3741              	.LASF173:
 3742 0801 4D454D50 		.ascii	"MEMP_TCP_SEG\000"
 3742      5F544350 
 3742      5F534547 
 3742      00
ARM GAS  /tmp/cc8g7J8V.s 			page 73


 3743              	.LASF151:
 3744 080e 53594E5F 		.ascii	"SYN_SENT\000"
 3744      53454E54 
 3744      00
 3745              	.LASF87:
 3746 0817 70627566 		.ascii	"pbuf\000"
 3746      00
 3747              	.LASF140:
 3748 081c 6B656570 		.ascii	"keep_idle\000"
 3748      5F69646C 
 3748      6500
 3749              	.LASF100:
 3750 0826 63616C6C 		.ascii	"callback_arg\000"
 3750      6261636B 
 3750      5F617267 
 3750      00
 3751              	.LASF204:
 3752 0833 706F7274 		.ascii	"port_halt\000"
 3752      5F68616C 
 3752      7400
 3753              	.LASF150:
 3754 083d 4C495354 		.ascii	"LISTEN\000"
 3754      454E00
 3755              	.LASF42:
 3756 0844 705F7072 		.ascii	"p_preempt\000"
 3756      65656D70 
 3756      7400
 3757              	.LASF93:
 3758 084e 61646472 		.ascii	"addr\000"
 3758      00
 3759              	.LASF190:
 3760 0853 7379735F 		.ascii	"sys_timeouts_init\000"
 3760      74696D65 
 3760      6F757473 
 3760      5F696E69 
 3760      7400
 3761              	.LASF102:
 3762 0865 73746174 		.ascii	"state\000"
 3762      6500
 3763              	.LASF200:
 3764 086b 6E657874 		.ascii	"next_timeout\000"
 3764      5F74696D 
 3764      656F7574 
 3764      00
 3765              	.LASF129:
 3766 0878 736E645F 		.ascii	"snd_queuelen\000"
 3766      71756575 
 3766      656C656E 
 3766      00
 3767              	.LASF167:
 3768 0885 63686B73 		.ascii	"chksum\000"
 3768      756D00
 3769              	.LASF136:
 3770 088c 72656376 		.ascii	"recv\000"
 3770      00
 3771              	.LASF63:
 3772 0891 6D5F6E65 		.ascii	"m_next\000"
ARM GAS  /tmp/cc8g7J8V.s 			page 74


 3772      787400
 3773              	.LASF1:
 3774 0898 7369676E 		.ascii	"signed char\000"
 3774      65642063 
 3774      68617200 
 3775              	.LASF96:
 3776 08a4 7463705F 		.ascii	"tcp_pcb\000"
 3776      70636200 
 3777              	.LASF8:
 3778 08ac 73686F72 		.ascii	"short unsigned int\000"
 3778      7420756E 
 3778      7369676E 
 3778      65642069 
 3778      6E7400
 3779              	.LASF141:
 3780 08bf 70657273 		.ascii	"persist_cnt\000"
 3780      6973745F 
 3780      636E7400 
 3781              	.LASF98:
 3782 08cb 72656D6F 		.ascii	"remote_ip\000"
 3782      74655F69 
 3782      7000
 3783              	.LASF203:
 3784 08d5 7463705F 		.ascii	"tcp_tw_pcbs\000"
 3784      74775F70 
 3784      63627300 
 3785              	.LASF94:
 3786 08e1 69705F61 		.ascii	"ip_addr_t\000"
 3786      6464725F 
 3786      7400
 3787              	.LASF213:
 3788 08eb 7463705F 		.ascii	"tcp_state\000"
 3788      73746174 
 3788      6500
 3789              	.LASF184:
 3790 08f5 6D656D70 		.ascii	"memp_t\000"
 3790      5F7400
 3791              	.LASF202:
 3792 08fc 7463705F 		.ascii	"tcp_active_pcbs\000"
 3792      61637469 
 3792      76655F70 
 3792      63627300 
 3793              	.LASF116:
 3794 090c 6E727478 		.ascii	"nrtx\000"
 3794      00
 3795              	.LASF185:
 3796 0911 6D736563 		.ascii	"msecs\000"
 3796      7300
 3797              	.LASF163:
 3798 0917 64657374 		.ascii	"dest\000"
 3798      00
 3799              	.LASF72:
 3800 091c 65786974 		.ascii	"exitcode\000"
 3800      636F6465 
 3800      00
 3801              	.LASF152:
 3802 0925 53594E5F 		.ascii	"SYN_RCVD\000"
ARM GAS  /tmp/cc8g7J8V.s 			page 75


 3802      52435644 
 3802      00
 3803              	.LASF92:
 3804 092e 69705F61 		.ascii	"ip_addr\000"
 3804      64647200 
 3805              	.LASF191:
 3806 0936 74637069 		.ascii	"tcpip_tcp_timer\000"
 3806      705F7463 
 3806      705F7469 
 3806      6D657200 
 3807              		.ident	"GCC: (4.8.2-14ubuntu1+6) 4.8.2"
ARM GAS  /tmp/cc8g7J8V.s 			page 76


DEFINED SYMBOLS
                            *ABS*:0000000000000000 timers.c
     /tmp/cc8g7J8V.s:19     .text.sys_timeout:0000000000000000 $t
     /tmp/cc8g7J8V.s:25     .text.sys_timeout:0000000000000000 sys_timeout
     /tmp/cc8g7J8V.s:544    .bss.next_timeout:0000000000000000 .LANCHOR0
     /tmp/cc8g7J8V.s:134    .text.tcp_timer_needed:0000000000000000 $t
     /tmp/cc8g7J8V.s:140    .text.tcp_timer_needed:0000000000000000 tcp_timer_needed
     /tmp/cc8g7J8V.s:537    .bss.tcpip_tcp_timer_active:0000000000000000 .LANCHOR1
     /tmp/cc8g7J8V.s:198    .text.tcpip_tcp_timer:0000000000000000 tcpip_tcp_timer
     /tmp/cc8g7J8V.s:193    .text.tcpip_tcp_timer:0000000000000000 $t
     /tmp/cc8g7J8V.s:244    .text.sys_timeouts_init:0000000000000000 $t
     /tmp/cc8g7J8V.s:250    .text.sys_timeouts_init:0000000000000000 sys_timeouts_init
     /tmp/cc8g7J8V.s:319    .text.ip_reass_timer:0000000000000000 ip_reass_timer
     /tmp/cc8g7J8V.s:286    .text.arp_timer:0000000000000000 arp_timer
     /tmp/cc8g7J8V.s:281    .text.arp_timer:0000000000000000 $t
     /tmp/cc8g7J8V.s:314    .text.ip_reass_timer:0000000000000000 $t
     /tmp/cc8g7J8V.s:347    .text.sys_untimeout:0000000000000000 $t
     /tmp/cc8g7J8V.s:353    .text.sys_untimeout:0000000000000000 sys_untimeout
     /tmp/cc8g7J8V.s:429    .text.sys_timeouts_mbox_fetch:0000000000000000 $t
     /tmp/cc8g7J8V.s:435    .text.sys_timeouts_mbox_fetch:0000000000000000 sys_timeouts_mbox_fetch
     /tmp/cc8g7J8V.s:536    .bss.tcpip_tcp_timer_active:0000000000000000 $d
     /tmp/cc8g7J8V.s:540    .bss.tcpip_tcp_timer_active:0000000000000000 tcpip_tcp_timer_active
     /tmp/cc8g7J8V.s:543    .bss.next_timeout:0000000000000000 $d
     /tmp/cc8g7J8V.s:547    .bss.next_timeout:0000000000000000 next_timeout
                     .debug_frame:0000000000000010 $d

UNDEFINED SYMBOLS
memp_malloc
port_halt
tcp_active_pcbs
tcp_tw_pcbs
tcp_tmr
etharp_tmr
ip_reass_tmr
memp_free
sys_arch_mbox_fetch
