ARM GAS  /tmp/ccgRCZiQ.s 			page 1


   1              		.syntax unified
   2              		.cpu cortex-m4
   3              		.fpu softvfp
   4              		.eabi_attribute 20, 1
   5              		.eabi_attribute 21, 1
   6              		.eabi_attribute 23, 3
   7              		.eabi_attribute 24, 1
   8              		.eabi_attribute 25, 1
   9              		.eabi_attribute 26, 1
  10              		.eabi_attribute 30, 2
  11              		.eabi_attribute 34, 1
  12              		.eabi_attribute 18, 4
  13              		.thumb
  14              		.file	"udp.c"
  15              		.text
  16              	.Ltext0:
  17              		.cfi_sections	.debug_frame
  18              		.section	.text.udp_init,"ax",%progbits
  19              		.align	2
  20              		.p2align 4,,15
  21              		.global	udp_init
  22              		.thumb
  23              		.thumb_func
  24              		.type	udp_init, %function
  25              	udp_init:
  26              	.LFB7:
  27              		.file 1 "../../ext/lwip/src/core/udp.c"
  28              		.loc 1 87 0
  29              		.cfi_startproc
  30              		@ args = 0, pretend = 0, frame = 0
  31              		@ frame_needed = 0, uses_anonymous_args = 0
  32              		@ link register save eliminated.
  33 0000 7047     		bx	lr
  34              		.cfi_endproc
  35              	.LFE7:
  36              		.size	udp_init, .-udp_init
  37 0002 00BFAFF3 		.section	.text.udp_input,"ax",%progbits
  37      0080AFF3 
  37      0080AFF3 
  37      0080
  38              		.align	2
  39              		.p2align 4,,15
  40              		.global	udp_input
  41              		.thumb
  42              		.thumb_func
  43              		.type	udp_input, %function
  44              	udp_input:
  45              	.LFB9:
  46              		.loc 1 152 0
  47              		.cfi_startproc
  48              		@ args = 0, pretend = 0, frame = 24
  49              		@ frame_needed = 0, uses_anonymous_args = 0
  50              	.LVL0:
  51              		.loc 1 152 0
  52 0000 2DE9F04F 		push	{r4, r5, r6, r7, r8, r9, r10, fp, lr}
  53              		.cfi_def_cfa_offset 36
  54              		.cfi_offset 4, -36
ARM GAS  /tmp/ccgRCZiQ.s 			page 2


  55              		.cfi_offset 5, -32
  56              		.cfi_offset 6, -28
  57              		.cfi_offset 7, -24
  58              		.cfi_offset 8, -20
  59              		.cfi_offset 9, -16
  60              		.cfi_offset 10, -12
  61              		.cfi_offset 11, -8
  62              		.cfi_offset 14, -4
  63              		.loc 1 163 0
  64 0004 40F20005 		movw	r5, #:lower16:lwip_stats
  65 0008 C0F20005 		movt	r5, #:upper16:lwip_stats
  66              		.loc 1 165 0
  67 000c D0F80490 		ldr	r9, [r0, #4]
  68              	.LVL1:
  69              		.loc 1 163 0
  70 0010 B5F87A30 		ldrh	r3, [r5, #122]
  71              		.loc 1 169 0
  72 0014 0489     		ldrh	r4, [r0, #8]
  73              		.loc 1 163 0
  74 0016 0133     		adds	r3, r3, #1
  75 0018 A5F87A30 		strh	r3, [r5, #122]	@ movhi
  76              		.loc 1 169 0
  77 001c 99F80030 		ldrb	r3, [r9]	@ zero_extendqisi2
  78 0020 03F00F03 		and	r3, r3, #15
  79 0024 9E1C     		adds	r6, r3, #2
  80 0026 B4EB860F 		cmp	r4, r6, lsl #2
  81              		.loc 1 152 0
  82 002a 89B0     		sub	sp, sp, #36
  83              		.cfi_def_cfa_offset 72
  84              		.loc 1 152 0
  85 002c 0746     		mov	r7, r0
  86 002e 8B46     		mov	fp, r1
  87              		.loc 1 169 0
  88 0030 05DB     		blt	.L4
  89              		.loc 1 169 0 is_stmt 0 discriminator 1
  90 0032 9900     		lsls	r1, r3, #2
  91              	.LVL2:
  92 0034 4942     		negs	r1, r1
  93 0036 FFF7FEFF 		bl	pbuf_header
  94              	.LVL3:
  95 003a 0446     		mov	r4, r0
  96 003c 78B1     		cbz	r0, .L60
  97              	.L4:
  98              		.loc 1 173 0 is_stmt 1
  99 003e B5F88220 		ldrh	r2, [r5, #130]
 100              		.loc 1 174 0
 101 0042 B5F87E30 		ldrh	r3, [r5, #126]
 102              		.loc 1 173 0
 103 0046 0132     		adds	r2, r2, #1
 104              		.loc 1 176 0
 105 0048 3846     		mov	r0, r7
 106              		.loc 1 174 0
 107 004a 0133     		adds	r3, r3, #1
 108              		.loc 1 173 0
 109 004c A5F88220 		strh	r2, [r5, #130]	@ movhi
 110              	.LVL4:
 111              	.L57:
ARM GAS  /tmp/ccgRCZiQ.s 			page 3


 112              		.loc 1 424 0
 113 0050 A5F87E30 		strh	r3, [r5, #126]	@ movhi
 114              	.L58:
 115              		.loc 1 433 0
 116 0054 09B0     		add	sp, sp, #36
 117              		@ sp needed
 118 0056 BDE8F04F 		pop	{r4, r5, r6, r7, r8, r9, r10, fp, lr}
 119              	.LVL5:
 120              		.loc 1 426 0
 121 005a FFF7FEBF 		b	pbuf_free
 122              	.LVL6:
 123              	.L60:
 124              		.loc 1 183 0
 125 005e 40F20001 		movw	r1, #:lower16:current_iphdr_dest
 126 0062 C0F20001 		movt	r1, #:upper16:current_iphdr_dest
 127              		.loc 1 180 0
 128 0066 7A68     		ldr	r2, [r7, #4]
 129              		.loc 1 183 0
 130 0068 0491     		str	r1, [sp, #16]
 131 006a 0868     		ldr	r0, [r1]
 132              		.loc 1 180 0
 133 006c 0692     		str	r2, [sp, #24]
 134              	.LVL7:
 135              		.loc 1 183 0
 136 006e 5946     		mov	r1, fp
 137 0070 FFF7FEFF 		bl	ip4_addr_isbroadcast
 138              	.LVL8:
 139              		.loc 1 188 0
 140 0074 069B     		ldr	r3, [sp, #24]
 141              		.loc 1 183 0
 142 0076 8046     		mov	r8, r0
 143              	.LVL9:
 144              		.loc 1 188 0
 145 0078 1888     		ldrh	r0, [r3]	@ unaligned
 146              	.LVL10:
 147 007a FFF7FEFF 		bl	lwip_ntohs
 148              	.LVL11:
 149              		.loc 1 189 0
 150 007e 069A     		ldr	r2, [sp, #24]
 151              		.loc 1 188 0
 152 0080 8246     		mov	r10, r0
 153              	.LVL12:
 154              		.loc 1 189 0
 155 0082 5088     		ldrh	r0, [r2, #2]	@ unaligned
 156              	.LVL13:
 157 0084 FFF7FEFF 		bl	lwip_ntohs
 158              	.LVL14:
 159              		.loc 1 229 0
 160 0088 40F20001 		movw	r1, #:lower16:.LANCHOR0
 161 008c C0F20001 		movt	r1, #:upper16:.LANCHOR0
 162              		.loc 1 189 0
 163 0090 0346     		mov	r3, r0
 164              	.LVL15:
 165              		.loc 1 229 0
 166 0092 0A68     		ldr	r2, [r1]
 167 0094 0591     		str	r1, [sp, #20]
 168 0096 0792     		str	r2, [sp, #28]
ARM GAS  /tmp/ccgRCZiQ.s 			page 4


 169              	.LVL16:
 170 0098 002A     		cmp	r2, #0
 171 009a 73D0     		beq	.L5
 172              		.loc 1 269 0
 173 009c 40F20001 		movw	r1, #:lower16:current_iphdr_src
 174 00a0 C0F20001 		movt	r1, #:upper16:current_iphdr_src
 175              		.loc 1 224 0
 176 00a4 2046     		mov	r0, r4
 177              	.LVL17:
 178              		.loc 1 269 0
 179 00a6 0A68     		ldr	r2, [r1]
 180              	.LVL18:
 181              		.loc 1 244 0
 182 00a8 0499     		ldr	r1, [sp, #16]
 183              		.loc 1 269 0
 184 00aa 0397     		str	r7, [sp, #12]
 185              		.loc 1 244 0
 186 00ac D1F800C0 		ldr	ip, [r1]
 187              		.loc 1 222 0
 188 00b0 2646     		mov	r6, r4
 189              		.loc 1 269 0
 190 00b2 4146     		mov	r1, r8
 191 00b4 079C     		ldr	r4, [sp, #28]
 192 00b6 E046     		mov	r8, ip
 193              	.LVL19:
 194 00b8 AC46     		mov	ip, r5
 195 00ba 04E0     		b	.L17
 196              	.LVL20:
 197              	.L6:
 198              		.loc 1 229 0
 199 00bc E568     		ldr	r5, [r4, #12]
 200              	.LVL21:
 201 00be 002D     		cmp	r5, #0
 202 00c0 5BD0     		beq	.L16
 203 00c2 2646     		mov	r6, r4
 204 00c4 2C46     		mov	r4, r5
 205              	.LVL22:
 206              	.L17:
 207              		.loc 1 241 0
 208 00c6 658A     		ldrh	r5, [r4, #18]
 209 00c8 9D42     		cmp	r5, r3
 210 00ca F7D1     		bne	.L6
 211              		.loc 1 243 0
 212 00cc 2568     		ldr	r5, [r4]
 213              		.loc 1 242 0
 214 00ce 0029     		cmp	r1, #0
 215 00d0 48D0     		beq	.L61
 216              		.loc 1 243 0
 217 00d2 4545     		cmp	r5, r8
 218 00d4 06D0     		beq	.L8
 219              		.loc 1 254 0
 220 00d6 2DB1     		cbz	r5, .L8
 221              		.loc 1 254 0 is_stmt 0 discriminator 1
 222 00d8 DBF80870 		ldr	r7, [fp, #8]
 223              		.loc 1 255 0 is_stmt 1 discriminator 1
 224 00dc 85EA0805 		eor	r5, r5, r8
 225              		.loc 1 254 0 discriminator 1
ARM GAS  /tmp/ccgRCZiQ.s 			page 5


 226 00e0 3D42     		tst	r5, r7
 227 00e2 EBD1     		bne	.L6
 228              	.L8:
 229              	.LVL23:
 230              		.loc 1 258 0
 231 00e4 0028     		cmp	r0, #0
 232 00e6 42D0     		beq	.L62
 233              	.L22:
 234              	.LVL24:
 235              	.L10:
 236              		.loc 1 266 0
 237 00e8 A58A     		ldrh	r5, [r4, #20]
 238 00ea 5545     		cmp	r5, r10
 239 00ec E6D1     		bne	.L6
 240              		.loc 1 268 0
 241 00ee 6568     		ldr	r5, [r4, #4]
 242 00f0 0DB1     		cbz	r5, .L56
 243              		.loc 1 268 0 is_stmt 0 discriminator 1
 244 00f2 9542     		cmp	r5, r2
 245 00f4 E2D1     		bne	.L6
 246              	.L56:
 247 00f6 8846     		mov	r8, r1
 248 00f8 039F     		ldr	r7, [sp, #12]
 249 00fa 6546     		mov	r5, ip
 250              		.loc 1 271 0 is_stmt 1
 251 00fc 002E     		cmp	r6, #0
 252 00fe 00F08180 		beq	.L63
 253              		.loc 1 274 0
 254 0102 E368     		ldr	r3, [r4, #12]
 255              	.LVL25:
 256              		.loc 1 276 0
 257 0104 0599     		ldr	r1, [sp, #20]
 258              	.LVL26:
 259              		.loc 1 275 0
 260 0106 079A     		ldr	r2, [sp, #28]
 261              		.loc 1 274 0
 262 0108 F360     		str	r3, [r6, #12]
 263              		.loc 1 276 0
 264 010a 0C60     		str	r4, [r1]
 265              		.loc 1 275 0
 266 010c E260     		str	r2, [r4, #12]
 267              	.LVL27:
 268              	.L26:
 269              		.loc 1 328 0
 270 010e 069A     		ldr	r2, [sp, #24]
 271 0110 D388     		ldrh	r3, [r2, #6]	@ unaligned
 272 0112 7BB1     		cbz	r3, .L19
 273              		.loc 1 329 0
 274 0114 3B89     		ldrh	r3, [r7, #8]
 275 0116 40F20001 		movw	r1, #:lower16:current_iphdr_src
 276 011a 40F20002 		movw	r2, #:lower16:current_iphdr_dest
 277 011e 0093     		str	r3, [sp]
 278 0120 C0F20001 		movt	r1, #:upper16:current_iphdr_src
 279 0124 C0F20002 		movt	r2, #:upper16:current_iphdr_dest
 280 0128 3846     		mov	r0, r7
 281 012a 1123     		movs	r3, #17
 282 012c FFF7FEFF 		bl	inet_chksum_pseudo
ARM GAS  /tmp/ccgRCZiQ.s 			page 6


 283              	.LVL28:
 284 0130 0028     		cmp	r0, #0
 285 0132 5DD1     		bne	.L64
 286              	.L19:
 287              		.loc 1 342 0
 288 0134 3846     		mov	r0, r7
 289 0136 6FF00701 		mvn	r1, #7
 290 013a FFF7FEFF 		bl	pbuf_header
 291              	.LVL29:
 292 013e 0028     		cmp	r0, #0
 293 0140 2AD1     		bne	.L65
 294              		.loc 1 350 0
 295 0142 002C     		cmp	r4, #0
 296 0144 2FD0     		beq	.L21
 297              		.loc 1 401 0
 298 0146 A569     		ldr	r5, [r4, #24]
 299 0148 25B3     		cbz	r5, .L18
 300              		.loc 1 403 0
 301 014a 40F20003 		movw	r3, #:lower16:current_iphdr_src
 302 014e E069     		ldr	r0, [r4, #28]
 303 0150 CDF800A0 		str	r10, [sp]
 304 0154 3A46     		mov	r2, r7
 305 0156 2146     		mov	r1, r4
 306 0158 C0F20003 		movt	r3, #:upper16:current_iphdr_src
 307 015c A847     		blx	r5
 308              	.LVL30:
 309              		.loc 1 433 0
 310 015e 09B0     		add	sp, sp, #36
 311              		@ sp needed
 312 0160 BDE8F08F 		pop	{r4, r5, r6, r7, r8, r9, r10, fp, pc}
 313              	.LVL31:
 314              	.L61:
 315              		.loc 1 243 0
 316 0164 002D     		cmp	r5, #0
 317 0166 BDD0     		beq	.L8
 318 0168 4545     		cmp	r5, r8
 319 016a A7D1     		bne	.L6
 320 016c BAE7     		b	.L8
 321              	.LVL32:
 322              	.L62:
 323              		.loc 1 259 0 discriminator 1
 324 016e 257C     		ldrb	r5, [r4, #16]	@ zero_extendqisi2
 325 0170 15F0040F 		tst	r5, #4
 326 0174 08BF     		it	eq
 327 0176 2046     		moveq	r0, r4
 328              	.LVL33:
 329 0178 B6E7     		b	.L10
 330              	.LVL34:
 331              	.L16:
 332 017a 8846     		mov	r8, r1
 333 017c 039F     		ldr	r7, [sp, #12]
 334 017e 6546     		mov	r5, ip
 335              		.loc 1 291 0
 336 0180 0028     		cmp	r0, #0
 337 0182 45D1     		bne	.L66
 338              	.LVL35:
 339              	.L5:
ARM GAS  /tmp/ccgRCZiQ.s 			page 7


 340              		.loc 1 291 0 is_stmt 0 discriminator 1
 341 0184 0499     		ldr	r1, [sp, #16]
 342 0186 DBF80420 		ldr	r2, [fp, #4]
 343 018a 0B68     		ldr	r3, [r1]
 344              	.LVL36:
 345 018c 9A42     		cmp	r2, r3
 346 018e 08BF     		it	eq
 347 0190 0024     		moveq	r4, #0
 348 0192 BCD0     		beq	.L26
 349              	.L18:
 350              		.loc 1 406 0 is_stmt 1
 351 0194 3846     		mov	r0, r7
 352 0196 5DE7     		b	.L58
 353              	.L65:
 354              		.loc 1 344 0 discriminator 1
 355 0198 FFF7FEFF 		bl	port_halt
 356              	.LVL37:
 357              		.loc 1 345 0 discriminator 1
 358 019c B5F87E30 		ldrh	r3, [r5, #126]
 359              		.loc 1 347 0 discriminator 1
 360 01a0 3846     		mov	r0, r7
 361              		.loc 1 345 0 discriminator 1
 362 01a2 0133     		adds	r3, r3, #1
 363 01a4 54E7     		b	.L57
 364              	.L21:
 365              		.loc 1 415 0
 366 01a6 B8F1000F 		cmp	r8, #0
 367 01aa 17D1     		bne	.L23
 368              		.loc 1 416 0 discriminator 1
 369 01ac 0499     		ldr	r1, [sp, #16]
 370 01ae 0B68     		ldr	r3, [r1]
 371 01b0 03F0F003 		and	r3, r3, #240
 372              		.loc 1 415 0 discriminator 1
 373 01b4 E02B     		cmp	r3, #224
 374 01b6 11D0     		beq	.L23
 375              		.loc 1 418 0
 376 01b8 99F80010 		ldrb	r1, [r9]	@ zero_extendqisi2
 377 01bc 01F00F01 		and	r1, r1, #15
 378 01c0 0231     		adds	r1, r1, #2
 379 01c2 8900     		lsls	r1, r1, #2
 380 01c4 3846     		mov	r0, r7
 381 01c6 FFF7FEFF 		bl	pbuf_header
 382              	.LVL38:
 383              		.loc 1 419 0
 384 01ca 7B68     		ldr	r3, [r7, #4]
 385 01cc 4B45     		cmp	r3, r9
 386 01ce 01D0     		beq	.L24
 387              		.loc 1 419 0 is_stmt 0 discriminator 1
 388 01d0 FFF7FEFF 		bl	port_halt
 389              	.LVL39:
 390              	.L24:
 391              		.loc 1 420 0 is_stmt 1
 392 01d4 3846     		mov	r0, r7
 393 01d6 0321     		movs	r1, #3
 394 01d8 FFF7FEFF 		bl	icmp_dest_unreach
 395              	.LVL40:
 396              	.L23:
ARM GAS  /tmp/ccgRCZiQ.s 			page 8


 397              		.loc 1 423 0
 398 01dc B5F88820 		ldrh	r2, [r5, #136]
 399              		.loc 1 424 0
 400 01e0 B5F87E30 		ldrh	r3, [r5, #126]
 401              		.loc 1 423 0
 402 01e4 0132     		adds	r2, r2, #1
 403              		.loc 1 426 0
 404 01e6 3846     		mov	r0, r7
 405              		.loc 1 424 0
 406 01e8 0133     		adds	r3, r3, #1
 407              		.loc 1 423 0
 408 01ea A5F88820 		strh	r2, [r5, #136]	@ movhi
 409 01ee 2FE7     		b	.L57
 410              	.L64:
 411              		.loc 1 333 0
 412 01f0 B5F88020 		ldrh	r2, [r5, #128]
 413              		.loc 1 334 0
 414 01f4 B5F87E30 		ldrh	r3, [r5, #126]
 415              		.loc 1 333 0
 416 01f8 0132     		adds	r2, r2, #1
 417              		.loc 1 336 0
 418 01fa 3846     		mov	r0, r7
 419              		.loc 1 334 0
 420 01fc 0133     		adds	r3, r3, #1
 421              		.loc 1 333 0
 422 01fe A5F88020 		strh	r2, [r5, #128]	@ movhi
 423 0202 25E7     		b	.L57
 424              	.LVL41:
 425              	.L63:
 426              		.loc 1 278 0
 427 0204 BCF88E30 		ldrh	r3, [ip, #142]
 428              	.LVL42:
 429 0208 0133     		adds	r3, r3, #1
 430 020a ACF88E30 		strh	r3, [ip, #142]	@ movhi
 431 020e 7EE7     		b	.L26
 432              	.LVL43:
 433              	.L66:
 434 0210 0446     		mov	r4, r0
 435              	.LVL44:
 436 0212 7CE7     		b	.L26
 437              		.cfi_endproc
 438              	.LFE9:
 439              		.size	udp_input, .-udp_input
 440 0214 AFF30080 		.section	.text.udp_bind,"ax",%progbits
 440      AFF30080 
 440      AFF30080 
 441              		.align	2
 442              		.p2align 4,,15
 443              		.global	udp_bind
 444              		.thumb
 445              		.thumb_func
 446              		.type	udp_bind, %function
 447              	udp_bind:
 448              	.LFB13:
 449              		.loc 1 767 0
 450              		.cfi_startproc
 451              		@ args = 0, pretend = 0, frame = 0
ARM GAS  /tmp/ccgRCZiQ.s 			page 9


 452              		@ frame_needed = 0, uses_anonymous_args = 0
 453              	.LVL45:
 454 0000 2DE9F041 		push	{r4, r5, r6, r7, r8, lr}
 455              		.cfi_def_cfa_offset 24
 456              		.cfi_offset 4, -24
 457              		.cfi_offset 5, -20
 458              		.cfi_offset 6, -16
 459              		.cfi_offset 7, -12
 460              		.cfi_offset 8, -8
 461              		.cfi_offset 14, -4
 462              		.loc 1 777 0
 463 0004 40F20008 		movw	r8, #:lower16:.LANCHOR0
 464 0008 C0F20008 		movt	r8, #:upper16:.LANCHOR0
 465              		.loc 1 767 0
 466 000c 0546     		mov	r5, r0
 467              		.loc 1 777 0
 468 000e D8F80040 		ldr	r4, [r8]
 469              	.LVL46:
 470              		.loc 1 767 0
 471 0012 0F46     		mov	r7, r1
 472 0014 1646     		mov	r6, r2
 473              		.loc 1 777 0
 474 0016 002C     		cmp	r4, #0
 475 0018 53D0     		beq	.L86
 476              		.loc 1 775 0
 477 001a 0021     		movs	r1, #0
 478              	.LVL47:
 479 001c 01E0     		b	.L74
 480              	.LVL48:
 481              	.L70:
 482              		.loc 1 777 0
 483 001e E468     		ldr	r4, [r4, #12]
 484              	.LVL49:
 485 0020 A4B1     		cbz	r4, .L68
 486              	.LVL50:
 487              	.L74:
 488              		.loc 1 779 0
 489 0022 A542     		cmp	r5, r4
 490 0024 0DD0     		beq	.L102
 491              		.loc 1 796 0
 492 0026 638A     		ldrh	r3, [r4, #18]
 493 0028 B342     		cmp	r3, r6
 494 002a F8D1     		bne	.L70
 495              		.loc 1 798 0 discriminator 1
 496 002c 2368     		ldr	r3, [r4]
 497 002e 23B1     		cbz	r3, .L73
 498 0030 1FB1     		cbz	r7, .L73
 499              		.loc 1 799 0
 500 0032 3A68     		ldr	r2, [r7]
 501 0034 0AB1     		cbz	r2, .L73
 502              		.loc 1 799 0 is_stmt 0 discriminator 1
 503 0036 9342     		cmp	r3, r2
 504 0038 F1D1     		bne	.L70
 505              	.LVL51:
 506              	.L73:
 507              		.loc 1 804 0 is_stmt 1
 508 003a F820     		movs	r0, #248
ARM GAS  /tmp/ccgRCZiQ.s 			page 10


 509              	.LVL52:
 510              	.L72:
 511              		.loc 1 834 0
 512 003c 40B2     		sxtb	r0, r0
 513 003e BDE8F081 		pop	{r4, r5, r6, r7, r8, pc}
 514              	.LVL53:
 515              	.L102:
 516              		.loc 1 781 0
 517 0042 A1B9     		cbnz	r1, .L103
 518              		.loc 1 777 0
 519 0044 E468     		ldr	r4, [r4, #12]
 520              	.LVL54:
 521              		.loc 1 783 0
 522 0046 0121     		movs	r1, #1
 523              	.LVL55:
 524              		.loc 1 777 0
 525 0048 002C     		cmp	r4, #0
 526 004a EAD1     		bne	.L74
 527              	.LVL56:
 528              	.L68:
 529              		.loc 1 809 0
 530 004c 07B1     		cbz	r7, .L75
 531              		.loc 1 809 0 is_stmt 0 discriminator 1
 532 004e 3F68     		ldr	r7, [r7]
 533              	.LVL57:
 534              	.L75:
 535              		.loc 1 809 0 discriminator 3
 536 0050 2F60     		str	r7, [r5]
 537              		.loc 1 812 0 is_stmt 1 discriminator 3
 538 0052 86B1     		cbz	r6, .L104
 539              	.LVL58:
 540              	.L76:
 541              		.loc 1 820 0
 542 0054 6E82     		strh	r6, [r5, #18]	@ movhi
 543              		.loc 1 833 0
 544 0056 0020     		movs	r0, #0
 545              		.loc 1 823 0
 546 0058 0029     		cmp	r1, #0
 547 005a EFD1     		bne	.L72
 548              		.loc 1 825 0
 549 005c D8F80030 		ldr	r3, [r8]
 550              		.loc 1 826 0
 551 0060 C8F80050 		str	r5, [r8]
 552              		.loc 1 833 0
 553 0064 0846     		mov	r0, r1
 554              		.loc 1 825 0
 555 0066 EB60     		str	r3, [r5, #12]
 556              		.loc 1 834 0
 557 0068 40B2     		sxtb	r0, r0
 558 006a BDE8F081 		pop	{r4, r5, r6, r7, r8, pc}
 559              	.LVL59:
 560              	.L103:
 561              		.loc 1 781 0 discriminator 1
 562 006e FFF7FEFF 		bl	port_halt
 563              	.LVL60:
 564              		.loc 1 783 0 discriminator 1
 565 0072 0121     		movs	r1, #1
ARM GAS  /tmp/ccgRCZiQ.s 			page 11


 566 0074 D3E7     		b	.L70
 567              	.LVL61:
 568              	.L104:
 569 0076 40F20004 		movw	r4, #:lower16:.LANCHOR1
 570              	.LVL62:
 571 007a C0F20004 		movt	r4, #:upper16:.LANCHOR1
 572 007e D8F80000 		ldr	r0, [r8]
 573 0082 2688     		ldrh	r6, [r4]
 574              		.loc 1 812 0
 575 0084 4FF48047 		mov	r7, #16384
 576              	.LBB4:
 577              	.LBB5:
 578              		.loc 1 105 0
 579 0088 4FF6FF7C 		movw	ip, #65535
 580              	.L84:
 581              	.LVL63:
 582 008c 6645     		cmp	r6, ip
 583 008e 1ABF     		itte	ne
 584 0090 0136     		addne	r6, r6, #1
 585 0092 B6B2     		uxthne	r6, r6
 586 0094 4FF44046 		moveq	r6, #49152
 587              		.loc 1 109 0
 588 0098 58B1     		cbz	r0, .L101
 589              		.loc 1 110 0
 590 009a 438A     		ldrh	r3, [r0, #18]
 591 009c B342     		cmp	r3, r6
 592 009e 18BF     		it	ne
 593 00a0 0346     		movne	r3, r0
 594 00a2 03D1     		bne	.L82
 595 00a4 07E0     		b	.L80
 596              	.LVL64:
 597              	.L85:
 598 00a6 5A8A     		ldrh	r2, [r3, #18]
 599 00a8 B242     		cmp	r2, r6
 600 00aa 04D0     		beq	.L80
 601              	.LVL65:
 602              	.L82:
 603              		.loc 1 109 0
 604 00ac DB68     		ldr	r3, [r3, #12]
 605              	.LVL66:
 606 00ae 002B     		cmp	r3, #0
 607 00b0 F9D1     		bne	.L85
 608              	.LVL67:
 609              	.L101:
 610 00b2 2680     		strh	r6, [r4]	@ movhi
 611 00b4 CEE7     		b	.L76
 612              	.L80:
 613              	.LVL68:
 614 00b6 013F     		subs	r7, r7, #1
 615              	.LVL69:
 616 00b8 BFB2     		uxth	r7, r7
 617              	.LVL70:
 618              		.loc 1 111 0
 619 00ba 002F     		cmp	r7, #0
 620 00bc E6D1     		bne	.L84
 621 00be 2680     		strh	r6, [r4]	@ movhi
 622 00c0 BBE7     		b	.L73
ARM GAS  /tmp/ccgRCZiQ.s 			page 12


 623              	.LVL71:
 624              	.L86:
 625              	.LBE5:
 626              	.LBE4:
 627              		.loc 1 775 0
 628 00c2 2146     		mov	r1, r4
 629              	.LVL72:
 630 00c4 C2E7     		b	.L68
 631              		.cfi_endproc
 632              	.LFE13:
 633              		.size	udp_bind, .-udp_bind
 634 00c6 00BFAFF3 		.section	.text.udp_sendto_if,"ax",%progbits
 634      0080AFF3 
 634      0080
 635              		.align	2
 636              		.p2align 4,,15
 637              		.global	udp_sendto_if
 638              		.thumb
 639              		.thumb_func
 640              		.type	udp_sendto_if, %function
 641              	udp_sendto_if:
 642              	.LFB12:
 643              		.loc 1 551 0
 644              		.cfi_startproc
 645              		@ args = 4, pretend = 0, frame = 0
 646              		@ frame_needed = 0, uses_anonymous_args = 0
 647              	.LVL73:
 648 0000 2DE9F047 		push	{r4, r5, r6, r7, r8, r9, r10, lr}
 649              		.cfi_def_cfa_offset 32
 650              		.cfi_offset 4, -32
 651              		.cfi_offset 5, -28
 652              		.cfi_offset 6, -24
 653              		.cfi_offset 7, -20
 654              		.cfi_offset 8, -16
 655              		.cfi_offset 9, -12
 656              		.cfi_offset 10, -8
 657              		.cfi_offset 14, -4
 658 0004 0F46     		mov	r7, r1
 659 0006 84B0     		sub	sp, sp, #16
 660              		.cfi_def_cfa_offset 48
 661              		.loc 1 578 0
 662 0008 418A     		ldrh	r1, [r0, #18]
 663              	.LVL74:
 664              		.loc 1 551 0
 665 000a DDF83080 		ldr	r8, [sp, #48]
 666 000e 0446     		mov	r4, r0
 667 0010 9146     		mov	r9, r2
 668 0012 9A46     		mov	r10, r3
 669              		.loc 1 578 0
 670 0014 21B9     		cbnz	r1, .L110
 671              		.loc 1 580 0
 672 0016 0A46     		mov	r2, r1
 673              	.LVL75:
 674 0018 0146     		mov	r1, r0
 675 001a FFF7FEFF 		bl	udp_bind
 676              	.LVL76:
 677              		.loc 1 581 0
ARM GAS  /tmp/ccgRCZiQ.s 			page 13


 678 001e 28BB     		cbnz	r0, .L109
 679              	.LVL77:
 680              	.L110:
 681              		.loc 1 588 0
 682 0020 3846     		mov	r0, r7
 683 0022 0821     		movs	r1, #8
 684 0024 FFF7FEFF 		bl	pbuf_header
 685              	.LVL78:
 686 0028 3D46     		mov	r5, r7
 687 002a 0028     		cmp	r0, #0
 688 002c 4AD1     		bne	.L125
 689              	.L108:
 690              	.LVL79:
 691              		.loc 1 609 0
 692 002e 6B89     		ldrh	r3, [r5, #10]
 693 0030 072B     		cmp	r3, #7
 694 0032 55D9     		bls	.L126
 695              	.L111:
 696              		.loc 1 613 0
 697 0034 608A     		ldrh	r0, [r4, #18]
 698              		.loc 1 612 0
 699 0036 6E68     		ldr	r6, [r5, #4]
 700              	.LVL80:
 701              		.loc 1 613 0
 702 0038 FFF7FEFF 		bl	lwip_htons
 703              	.LVL81:
 704 003c 3080     		strh	r0, [r6]	@ unaligned
 705              		.loc 1 614 0
 706 003e 5046     		mov	r0, r10
 707 0040 FFF7FEFF 		bl	lwip_htons
 708              	.LVL82:
 709              		.loc 1 627 0
 710 0044 2268     		ldr	r2, [r4]
 711              		.loc 1 614 0
 712 0046 7080     		strh	r0, [r6, #2]	@ unaligned
 713              		.loc 1 616 0
 714 0048 0023     		movs	r3, #0
 715 004a B371     		strb	r3, [r6, #6]
 716 004c F371     		strb	r3, [r6, #7]
 717              		.loc 1 629 0
 718 004e 08F1040A 		add	r10, r8, #4
 719              		.loc 1 627 0
 720 0052 82B1     		cbz	r2, .L113
 721              		.loc 1 633 0
 722 0054 D8F80430 		ldr	r3, [r8, #4]
 723 0058 9A42     		cmp	r2, r3
 724 005a 0BD0     		beq	.L114
 725              		.loc 1 635 0
 726 005c BD42     		cmp	r5, r7
 727              		.loc 1 641 0
 728 005e 08BF     		it	eq
 729 0060 FA20     		moveq	r0, #250
 730              		.loc 1 635 0
 731 0062 03D0     		beq	.L109
 732              		.loc 1 637 0
 733 0064 2846     		mov	r0, r5
 734 0066 FFF7FEFF 		bl	pbuf_free
ARM GAS  /tmp/ccgRCZiQ.s 			page 14


 735              	.LVL83:
 736              		.loc 1 641 0
 737 006a FA20     		movs	r0, #250
 738              	.LVL84:
 739              	.L109:
 740              		.loc 1 744 0
 741 006c 40B2     		sxtb	r0, r0
 742 006e 04B0     		add	sp, sp, #16
 743              		@ sp needed
 744 0070 BDE8F087 		pop	{r4, r5, r6, r7, r8, r9, r10, pc}
 745              	.LVL85:
 746              	.L114:
 747              		.loc 1 627 0
 748 0074 A246     		mov	r10, r4
 749              	.L113:
 750              	.LVL86:
 751              		.loc 1 699 0
 752 0076 2889     		ldrh	r0, [r5, #8]
 753 0078 FFF7FEFF 		bl	lwip_htons
 754              	.LVL87:
 755 007c B080     		strh	r0, [r6, #4]	@ unaligned
 756              		.loc 1 702 0
 757 007e 237C     		ldrb	r3, [r4, #16]	@ zero_extendqisi2
 758 0080 DB07     		lsls	r3, r3, #31
 759 0082 30D5     		bpl	.L127
 760              	.L115:
 761              		.loc 1 728 0
 762 0084 A37A     		ldrb	r3, [r4, #10]	@ zero_extendqisi2
 763 0086 647A     		ldrb	r4, [r4, #9]	@ zero_extendqisi2
 764              	.LVL88:
 765 0088 CDF80880 		str	r8, [sp, #8]
 766 008c 1120     		movs	r0, #17
 767 008e 0094     		str	r4, [sp]
 768 0090 0190     		str	r0, [sp, #4]
 769 0092 5146     		mov	r1, r10
 770 0094 4A46     		mov	r2, r9
 771 0096 2846     		mov	r0, r5
 772 0098 FFF7FEFF 		bl	ip_output_if
 773              	.LVL89:
 774              		.loc 1 735 0
 775 009c BD42     		cmp	r5, r7
 776              		.loc 1 728 0
 777 009e 0446     		mov	r4, r0
 778              	.LVL90:
 779              		.loc 1 735 0
 780 00a0 02D0     		beq	.L117
 781              		.loc 1 737 0
 782 00a2 2846     		mov	r0, r5
 783              	.LVL91:
 784 00a4 FFF7FEFF 		bl	pbuf_free
 785              	.LVL92:
 786              	.L117:
 787              		.loc 1 742 0
 788 00a8 40F20003 		movw	r3, #:lower16:lwip_stats
 789 00ac C0F20003 		movt	r3, #:upper16:lwip_stats
 790              		.loc 1 743 0
 791 00b0 2046     		mov	r0, r4
ARM GAS  /tmp/ccgRCZiQ.s 			page 15


 792              		.loc 1 742 0
 793 00b2 B3F87820 		ldrh	r2, [r3, #120]
 794              		.loc 1 744 0
 795 00b6 40B2     		sxtb	r0, r0
 796              		.loc 1 742 0
 797 00b8 0132     		adds	r2, r2, #1
 798 00ba A3F87820 		strh	r2, [r3, #120]	@ movhi
 799              		.loc 1 744 0
 800 00be 04B0     		add	sp, sp, #16
 801              		@ sp needed
 802 00c0 BDE8F087 		pop	{r4, r5, r6, r7, r8, r9, r10, pc}
 803              	.LVL93:
 804              	.L125:
 805              		.loc 1 590 0
 806 00c4 0120     		movs	r0, #1
 807 00c6 0821     		movs	r1, #8
 808 00c8 0022     		movs	r2, #0
 809 00ca FFF7FEFF 		bl	pbuf_alloc
 810              	.LVL94:
 811              		.loc 1 592 0
 812 00ce 0546     		mov	r5, r0
 813              	.LVL95:
 814 00d0 C0B1     		cbz	r0, .L119
 815              		.loc 1 596 0
 816 00d2 3B89     		ldrh	r3, [r7, #8]
 817 00d4 002B     		cmp	r3, #0
 818 00d6 AAD0     		beq	.L108
 819              		.loc 1 598 0
 820 00d8 3946     		mov	r1, r7
 821 00da FFF7FEFF 		bl	pbuf_chain
 822              	.LVL96:
 823 00de A6E7     		b	.L108
 824              	.L126:
 825              		.loc 1 609 0 discriminator 1
 826 00e0 FFF7FEFF 		bl	port_halt
 827              	.LVL97:
 828 00e4 A6E7     		b	.L111
 829              	.LVL98:
 830              	.L127:
 831              	.LBB6:
 832              		.loc 1 714 0
 833 00e6 2B89     		ldrh	r3, [r5, #8]
 834 00e8 2846     		mov	r0, r5
 835 00ea 0093     		str	r3, [sp]
 836 00ec 5146     		mov	r1, r10
 837 00ee 1123     		movs	r3, #17
 838 00f0 4A46     		mov	r2, r9
 839 00f2 FFF7FEFF 		bl	inet_chksum_pseudo
 840              	.LVL99:
 841              		.loc 1 719 0
 842 00f6 4FF6FF73 		movw	r3, #65535
 843              	.LVL100:
 844              		.loc 1 721 0
 845 00fa 0028     		cmp	r0, #0
 846 00fc 08BF     		it	eq
 847 00fe 1846     		moveq	r0, r3
 848              	.LVL101:
ARM GAS  /tmp/ccgRCZiQ.s 			page 16


 849 0100 F080     		strh	r0, [r6, #6]	@ unaligned
 850 0102 BFE7     		b	.L115
 851              	.LVL102:
 852              	.L119:
 853              	.LBE6:
 854              		.loc 1 594 0
 855 0104 FF20     		movs	r0, #255
 856              	.LVL103:
 857 0106 B1E7     		b	.L109
 858              		.cfi_endproc
 859              	.LFE12:
 860              		.size	udp_sendto_if, .-udp_sendto_if
 861 0108 AFF30080 		.section	.text.udp_sendto,"ax",%progbits
 861      AFF30080 
 862              		.align	2
 863              		.p2align 4,,15
 864              		.global	udp_sendto
 865              		.thumb
 866              		.thumb_func
 867              		.type	udp_sendto, %function
 868              	udp_sendto:
 869              	.LFB11:
 870              		.loc 1 493 0
 871              		.cfi_startproc
 872              		@ args = 0, pretend = 0, frame = 0
 873              		@ frame_needed = 0, uses_anonymous_args = 0
 874              	.LVL104:
 875 0000 F0B5     		push	{r4, r5, r6, r7, lr}
 876              		.cfi_def_cfa_offset 20
 877              		.cfi_offset 4, -20
 878              		.cfi_offset 5, -16
 879              		.cfi_offset 6, -12
 880              		.cfi_offset 7, -8
 881              		.cfi_offset 14, -4
 882 0002 0546     		mov	r5, r0
 883 0004 83B0     		sub	sp, sp, #12
 884              		.cfi_def_cfa_offset 32
 885              		.loc 1 512 0
 886 0006 1046     		mov	r0, r2
 887              	.LVL105:
 888              		.loc 1 493 0
 889 0008 1446     		mov	r4, r2
 890 000a 0F46     		mov	r7, r1
 891 000c 1E46     		mov	r6, r3
 892              		.loc 1 512 0
 893 000e FFF7FEFF 		bl	ip_route
 894              	.LVL106:
 895              		.loc 1 516 0
 896 0012 48B1     		cbz	r0, .L131
 897              		.loc 1 525 0
 898 0014 0090     		str	r0, [sp]
 899 0016 3946     		mov	r1, r7
 900 0018 2846     		mov	r0, r5
 901              	.LVL107:
 902 001a 2246     		mov	r2, r4
 903 001c 3346     		mov	r3, r6
 904 001e FFF7FEFF 		bl	udp_sendto_if
ARM GAS  /tmp/ccgRCZiQ.s 			page 17


 905              	.LVL108:
 906              	.L130:
 907              		.loc 1 527 0
 908 0022 40B2     		sxtb	r0, r0
 909 0024 03B0     		add	sp, sp, #12
 910              		@ sp needed
 911 0026 F0BD     		pop	{r4, r5, r6, r7, pc}
 912              	.LVL109:
 913              	.L131:
 914              		.loc 1 519 0
 915 0028 40F20003 		movw	r3, #:lower16:lwip_stats
 916 002c C0F20003 		movt	r3, #:upper16:lwip_stats
 917              		.loc 1 520 0
 918 0030 FC20     		movs	r0, #252
 919              	.LVL110:
 920              		.loc 1 519 0
 921 0032 B3F88620 		ldrh	r2, [r3, #134]
 922 0036 0132     		adds	r2, r2, #1
 923 0038 A3F88620 		strh	r2, [r3, #134]	@ movhi
 924              		.loc 1 520 0
 925 003c F1E7     		b	.L130
 926              		.cfi_endproc
 927              	.LFE11:
 928              		.size	udp_sendto, .-udp_sendto
 929 003e 00BF     		.section	.text.udp_send,"ax",%progbits
 930              		.align	2
 931              		.p2align 4,,15
 932              		.global	udp_send
 933              		.thumb
 934              		.thumb_func
 935              		.type	udp_send, %function
 936              	udp_send:
 937              	.LFB10:
 938              		.loc 1 455 0
 939              		.cfi_startproc
 940              		@ args = 0, pretend = 0, frame = 0
 941              		@ frame_needed = 0, uses_anonymous_args = 0
 942              		@ link register save eliminated.
 943              	.LVL111:
 944              		.loc 1 457 0
 945 0000 021D     		adds	r2, r0, #4
 946 0002 838A     		ldrh	r3, [r0, #20]
 947 0004 FFF7FEBF 		b	udp_sendto
 948              	.LVL112:
 949              		.cfi_endproc
 950              	.LFE10:
 951              		.size	udp_send, .-udp_send
 952 0008 AFF30080 		.section	.text.udp_connect,"ax",%progbits
 952      AFF30080 
 953              		.align	2
 954              		.p2align 4,,15
 955              		.global	udp_connect
 956              		.thumb
 957              		.thumb_func
 958              		.type	udp_connect, %function
 959              	udp_connect:
 960              	.LFB14:
ARM GAS  /tmp/ccgRCZiQ.s 			page 18


 961              		.loc 1 854 0
 962              		.cfi_startproc
 963              		@ args = 0, pretend = 0, frame = 0
 964              		@ frame_needed = 0, uses_anonymous_args = 0
 965              	.LVL113:
 966              		.loc 1 857 0
 967 0000 438A     		ldrh	r3, [r0, #18]
 968              		.loc 1 854 0
 969 0002 70B5     		push	{r4, r5, r6, lr}
 970              		.cfi_def_cfa_offset 16
 971              		.cfi_offset 4, -16
 972              		.cfi_offset 5, -12
 973              		.cfi_offset 6, -8
 974              		.cfi_offset 14, -4
 975              		.loc 1 854 0
 976 0004 0446     		mov	r4, r0
 977 0006 0D46     		mov	r5, r1
 978 0008 1646     		mov	r6, r2
 979              		.loc 1 857 0
 980 000a FBB1     		cbz	r3, .L134
 981              	.LVL114:
 982              	.L138:
 983              		.loc 1 864 0
 984 000c 2A46     		mov	r2, r5
 985 000e 05B1     		cbz	r5, .L136
 986              	.LVL115:
 987              		.loc 1 864 0 is_stmt 0 discriminator 1
 988 0010 2A68     		ldr	r2, [r5]
 989              	.LVL116:
 990              	.L136:
 991              		.loc 1 893 0 is_stmt 1 discriminator 3
 992 0012 40F20000 		movw	r0, #:lower16:.LANCHOR0
 993 0016 C0F20000 		movt	r0, #:upper16:.LANCHOR0
 994              		.loc 1 866 0 discriminator 3
 995 001a 237C     		ldrb	r3, [r4, #16]	@ zero_extendqisi2
 996              		.loc 1 893 0 discriminator 3
 997 001c 0568     		ldr	r5, [r0]
 998              	.LVL117:
 999              		.loc 1 864 0 discriminator 3
 1000 001e 6260     		str	r2, [r4, #4]
 1001              		.loc 1 866 0 discriminator 3
 1002 0020 43F00403 		orr	r3, r3, #4
 1003              		.loc 1 865 0 discriminator 3
 1004 0024 A682     		strh	r6, [r4, #20]	@ movhi
 1005              		.loc 1 866 0 discriminator 3
 1006 0026 2374     		strb	r3, [r4, #16]
 1007              		.loc 1 893 0 discriminator 3
 1008 0028 45B1     		cbz	r5, .L139
 1009              		.loc 1 894 0
 1010 002a AC42     		cmp	r4, r5
 1011 002c 0BD0     		beq	.L144
 1012 002e 2B46     		mov	r3, r5
 1013 0030 01E0     		b	.L140
 1014              	.LVL118:
 1015              	.L141:
 1016 0032 9C42     		cmp	r4, r3
 1017 0034 07D0     		beq	.L144
ARM GAS  /tmp/ccgRCZiQ.s 			page 19


 1018              	.L140:
 1019              		.loc 1 893 0
 1020 0036 DB68     		ldr	r3, [r3, #12]
 1021              	.LVL119:
 1022 0038 002B     		cmp	r3, #0
 1023 003a FAD1     		bne	.L141
 1024              	.LVL120:
 1025              	.L139:
 1026              		.loc 1 901 0
 1027 003c 0460     		str	r4, [r0]
 1028              		.loc 1 902 0
 1029 003e 0020     		movs	r0, #0
 1030              		.loc 1 900 0
 1031 0040 E560     		str	r5, [r4, #12]
 1032              		.loc 1 903 0
 1033 0042 40B2     		sxtb	r0, r0
 1034 0044 70BD     		pop	{r4, r5, r6, pc}
 1035              	.LVL121:
 1036              	.L144:
 1037              		.loc 1 896 0
 1038 0046 0020     		movs	r0, #0
 1039              		.loc 1 903 0
 1040 0048 40B2     		sxtb	r0, r0
 1041 004a 70BD     		pop	{r4, r5, r6, pc}
 1042              	.LVL122:
 1043              	.L134:
 1044              	.LBB7:
 1045              		.loc 1 858 0
 1046 004c 1A46     		mov	r2, r3
 1047              	.LVL123:
 1048 004e 0146     		mov	r1, r0
 1049              	.LVL124:
 1050 0050 FFF7FEFF 		bl	udp_bind
 1051              	.LVL125:
 1052              		.loc 1 859 0
 1053 0054 0028     		cmp	r0, #0
 1054 0056 D9D0     		beq	.L138
 1055              	.LBE7:
 1056              		.loc 1 903 0
 1057 0058 40B2     		sxtb	r0, r0
 1058 005a 70BD     		pop	{r4, r5, r6, pc}
 1059              		.cfi_endproc
 1060              	.LFE14:
 1061              		.size	udp_connect, .-udp_connect
 1062 005c AFF30080 		.section	.text.udp_disconnect,"ax",%progbits
 1063              		.align	2
 1064              		.p2align 4,,15
 1065              		.global	udp_disconnect
 1066              		.thumb
 1067              		.thumb_func
 1068              		.type	udp_disconnect, %function
 1069              	udp_disconnect:
 1070              	.LFB15:
 1071              		.loc 1 912 0
 1072              		.cfi_startproc
 1073              		@ args = 0, pretend = 0, frame = 0
 1074              		@ frame_needed = 0, uses_anonymous_args = 0
ARM GAS  /tmp/ccgRCZiQ.s 			page 20


 1075              		@ link register save eliminated.
 1076              	.LVL126:
 1077              		.loc 1 917 0
 1078 0000 027C     		ldrb	r2, [r0, #16]	@ zero_extendqisi2
 1079              		.loc 1 914 0
 1080 0002 0023     		movs	r3, #0
 1081              		.loc 1 917 0
 1082 0004 22F00402 		bic	r2, r2, #4
 1083              		.loc 1 914 0
 1084 0008 4360     		str	r3, [r0, #4]
 1085              		.loc 1 917 0
 1086 000a 0274     		strb	r2, [r0, #16]
 1087              		.loc 1 915 0
 1088 000c 8382     		strh	r3, [r0, #20]	@ movhi
 1089 000e 7047     		bx	lr
 1090              		.cfi_endproc
 1091              	.LFE15:
 1092              		.size	udp_disconnect, .-udp_disconnect
 1093              		.section	.text.udp_recv,"ax",%progbits
 1094              		.align	2
 1095              		.p2align 4,,15
 1096              		.global	udp_recv
 1097              		.thumb
 1098              		.thumb_func
 1099              		.type	udp_recv, %function
 1100              	udp_recv:
 1101              	.LFB16:
 1102              		.loc 1 931 0
 1103              		.cfi_startproc
 1104              		@ args = 0, pretend = 0, frame = 0
 1105              		@ frame_needed = 0, uses_anonymous_args = 0
 1106              		@ link register save eliminated.
 1107              	.LVL127:
 1108              		.loc 1 933 0
 1109 0000 8161     		str	r1, [r0, #24]
 1110              		.loc 1 934 0
 1111 0002 C261     		str	r2, [r0, #28]
 1112 0004 7047     		bx	lr
 1113              		.cfi_endproc
 1114              	.LFE16:
 1115              		.size	udp_recv, .-udp_recv
 1116 0006 00BFAFF3 		.section	.text.udp_remove,"ax",%progbits
 1116      0080AFF3 
 1116      0080
 1117              		.align	2
 1118              		.p2align 4,,15
 1119              		.global	udp_remove
 1120              		.thumb
 1121              		.thumb_func
 1122              		.type	udp_remove, %function
 1123              	udp_remove:
 1124              	.LFB17:
 1125              		.loc 1 947 0
 1126              		.cfi_startproc
 1127              		@ args = 0, pretend = 0, frame = 0
 1128              		@ frame_needed = 0, uses_anonymous_args = 0
 1129              		@ link register save eliminated.
ARM GAS  /tmp/ccgRCZiQ.s 			page 21


 1130              	.LVL128:
 1131              		.loc 1 952 0
 1132 0000 40F20003 		movw	r3, #:lower16:.LANCHOR0
 1133 0004 C0F20003 		movt	r3, #:upper16:.LANCHOR0
 1134              		.loc 1 947 0
 1135 0008 0146     		mov	r1, r0
 1136              		.loc 1 952 0
 1137 000a 1A68     		ldr	r2, [r3]
 1138 000c 8242     		cmp	r2, r0
 1139 000e 0FD0     		beq	.L151
 1140              	.LVL129:
 1141              		.loc 1 957 0 discriminator 1
 1142 0010 1AB9     		cbnz	r2, .L154
 1143 0012 05E0     		b	.L153
 1144              	.L161:
 1145              		.loc 1 959 0 discriminator 1
 1146 0014 9942     		cmp	r1, r3
 1147 0016 06D0     		beq	.L160
 1148              	.LVL130:
 1149              	.L156:
 1150              		.loc 1 947 0
 1151 0018 1A46     		mov	r2, r3
 1152              	.L154:
 1153              	.LVL131:
 1154              		.loc 1 959 0
 1155 001a D368     		ldr	r3, [r2, #12]
 1156 001c 002B     		cmp	r3, #0
 1157 001e F9D1     		bne	.L161
 1158              	.LVL132:
 1159              	.L153:
 1160              		.loc 1 965 0
 1161 0020 0120     		movs	r0, #1
 1162              	.LVL133:
 1163 0022 FFF7FEBF 		b	memp_free
 1164              	.LVL134:
 1165              	.L160:
 1166              		.loc 1 961 0
 1167 0026 CB68     		ldr	r3, [r1, #12]
 1168 0028 D360     		str	r3, [r2, #12]
 1169              	.LVL135:
 1170              		.loc 1 957 0
 1171 002a 002B     		cmp	r3, #0
 1172 002c F4D1     		bne	.L156
 1173 002e F7E7     		b	.L153
 1174              	.LVL136:
 1175              	.L151:
 1176              		.loc 1 954 0
 1177 0030 C268     		ldr	r2, [r0, #12]
 1178              		.loc 1 965 0
 1179 0032 0120     		movs	r0, #1
 1180              	.LVL137:
 1181              		.loc 1 954 0
 1182 0034 1A60     		str	r2, [r3]
 1183              		.loc 1 965 0
 1184 0036 FFF7FEBF 		b	memp_free
 1185              	.LVL138:
 1186              		.cfi_endproc
ARM GAS  /tmp/ccgRCZiQ.s 			page 22


 1187              	.LFE17:
 1188              		.size	udp_remove, .-udp_remove
 1189 003a 00BFAFF3 		.section	.text.udp_new,"ax",%progbits
 1189      0080
 1190              		.align	2
 1191              		.p2align 4,,15
 1192              		.global	udp_new
 1193              		.thumb
 1194              		.thumb_func
 1195              		.type	udp_new, %function
 1196              	udp_new:
 1197              	.LFB18:
 1198              		.loc 1 978 0
 1199              		.cfi_startproc
 1200              		@ args = 0, pretend = 0, frame = 0
 1201              		@ frame_needed = 0, uses_anonymous_args = 0
 1202 0000 10B5     		push	{r4, lr}
 1203              		.cfi_def_cfa_offset 8
 1204              		.cfi_offset 4, -8
 1205              		.cfi_offset 14, -4
 1206              		.loc 1 980 0
 1207 0002 0120     		movs	r0, #1
 1208 0004 FFF7FEFF 		bl	memp_malloc
 1209              	.LVL139:
 1210              		.loc 1 982 0
 1211 0008 0446     		mov	r4, r0
 1212 000a 28B1     		cbz	r0, .L163
 1213              		.loc 1 987 0
 1214 000c 0021     		movs	r1, #0
 1215 000e 2022     		movs	r2, #32
 1216 0010 FFF7FEFF 		bl	memset
 1217              	.LVL140:
 1218              		.loc 1 988 0
 1219 0014 FF23     		movs	r3, #255
 1220 0016 A372     		strb	r3, [r4, #10]
 1221              	.L163:
 1222              		.loc 1 991 0
 1223 0018 2046     		mov	r0, r4
 1224 001a 10BD     		pop	{r4, pc}
 1225              		.cfi_endproc
 1226              	.LFE18:
 1227              		.size	udp_new, .-udp_new
 1228              		.global	udp_pcbs
 1229 001c AFF30080 		.section	.bss.udp_pcbs,"aw",%nobits
 1230              		.align	2
 1231              		.set	.LANCHOR0,. + 0
 1232              		.type	udp_pcbs, %object
 1233              		.size	udp_pcbs, 4
 1234              	udp_pcbs:
 1235 0000 00000000 		.space	4
 1236              		.section	.data.udp_port,"aw",%progbits
 1237              		.align	1
 1238              		.set	.LANCHOR1,. + 0
 1239              		.type	udp_port, %object
 1240              		.size	udp_port, 2
 1241              	udp_port:
 1242 0000 00C0     		.short	-16384
ARM GAS  /tmp/ccgRCZiQ.s 			page 23


 1243              		.text
 1244              	.Letext0:
 1245              		.file 2 "/usr/include/newlib/machine/_default_types.h"
 1246              		.file 3 "/usr/include/newlib/stdint.h"
 1247              		.file 4 "../../os/various/lwip_bindings/arch/cc.h"
 1248              		.file 5 "../../ext/lwip/src/include/lwip/err.h"
 1249              		.file 6 "../../ext/lwip/src/include/lwip/pbuf.h"
 1250              		.file 7 "../../ext/lwip/src/include/ipv4/lwip/ip_addr.h"
 1251              		.file 8 "../../ext/lwip/src/include/lwip/netif.h"
 1252              		.file 9 "../../ext/lwip/src/include/ipv4/lwip/ip.h"
 1253              		.file 10 "../../ext/lwip/src/include/lwip/udp.h"
 1254              		.file 11 "../../ext/lwip/src/include/lwip/memp.h"
 1255              		.file 12 "../../ext/lwip/src/include/lwip/mem.h"
 1256              		.file 13 "../../ext/lwip/src/include/lwip/stats.h"
 1257              		.file 14 "../../ext/lwip/src/include/lwip/def.h"
 1258              		.file 15 "../../ext/lwip/src/include/ipv4/lwip/inet_chksum.h"
 1259              		.file 16 "../../ext/lwip/src/include/ipv4/lwip/icmp.h"
 1260              		.file 17 "../../os/ports/GCC/ARMCMx/chcore_v7m.h"