ARM GAS  /tmp/ccTKskkB.s 			page 1


   1              		.syntax unified
   2              		.cpu cortex-m4
   3              		.fpu softvfp
   4              		.eabi_attribute 20, 1
   5              		.eabi_attribute 21, 1
   6              		.eabi_attribute 23, 3
   7              		.eabi_attribute 24, 1
   8              		.eabi_attribute 25, 1
   9              		.eabi_attribute 26, 1
  10              		.eabi_attribute 30, 2
  11              		.eabi_attribute 34, 1
  12              		.eabi_attribute 18, 4
  13              		.thumb
  14              		.file	"web.c"
  15              		.text
  16              	.Ltext0:
  17              		.cfi_sections	.debug_frame
  18              		.section	.text.http_server,"ax",%progbits
  19              		.align	2
  20              		.p2align 4,,15
  21              		.global	http_server
  22              		.thumb
  23              		.thumb_func
  24              		.type	http_server, %function
  25              	http_server:
  26              	.LFB8:
  27              		.file 1 "web/web.c"
  28              		.loc 1 90 0
  29              		.cfi_startproc
  30              		@ args = 0, pretend = 0, frame = 16
  31              		@ frame_needed = 0, uses_anonymous_args = 0
  32              	.LVL0:
  33 0000 70B5     		push	{r4, r5, r6, lr}
  34              		.cfi_def_cfa_offset 16
  35              		.cfi_offset 4, -16
  36              		.cfi_offset 5, -12
  37              		.cfi_offset 6, -8
  38              		.cfi_offset 14, -4
  39              		.loc 1 97 0
  40 0002 0021     		movs	r1, #0
  41              		.loc 1 90 0
  42 0004 86B0     		sub	sp, sp, #24
  43              		.cfi_def_cfa_offset 40
  44              		.loc 1 97 0
  45 0006 0A46     		mov	r2, r1
  46 0008 1020     		movs	r0, #16
  47              	.LVL1:
  48 000a FFF7FEFF 		bl	netconn_new_with_proto_and_callback
  49              	.LVL2:
  50              		.loc 1 98 0
  51 000e 0446     		mov	r4, r0
  52 0010 0028     		cmp	r0, #0
  53 0012 50D0     		beq	.L10
  54              		.loc 1 101 0
  55 0014 0021     		movs	r1, #0
  56 0016 5022     		movs	r2, #80
  57 0018 FFF7FEFF 		bl	netconn_bind
ARM GAS  /tmp/ccTKskkB.s 			page 2


  58              	.LVL3:
  59              		.loc 1 104 0
  60 001c 2046     		mov	r0, r4
  61 001e FF21     		movs	r1, #255
  62 0020 FFF7FEFF 		bl	netconn_listen_with_backlog
  63              	.LVL4:
  64              		.loc 1 107 0
  65 0024 0420     		movs	r0, #4
  66 0026 FFF7FEFF 		bl	chThdSetPriority
  67              	.LVL5:
  68              	.L4:
  69              		.loc 1 110 0
  70 002a 2046     		mov	r0, r4
  71 002c 03A9     		add	r1, sp, #12
  72 002e FFF7FEFF 		bl	netconn_accept
  73              	.LVL6:
  74              		.loc 1 111 0
  75 0032 0028     		cmp	r0, #0
  76 0034 F9D1     		bne	.L4
  77              		.loc 1 113 0
  78 0036 039D     		ldr	r5, [sp, #12]
  79              	.LVL7:
  80              	.LBB4:
  81              	.LBB5:
  82              		.loc 1 50 0
  83 0038 04A9     		add	r1, sp, #16
  84 003a 2846     		mov	r0, r5
  85              	.LVL8:
  86 003c FFF7FEFF 		bl	netconn_recv
  87              	.LVL9:
  88              		.loc 1 52 0
  89 0040 0646     		mov	r6, r0
  90 0042 48B1     		cbz	r0, .L12
  91              	.LVL10:
  92              	.L6:
  93              		.loc 1 75 0
  94 0044 2846     		mov	r0, r5
  95 0046 FFF7FEFF 		bl	netconn_close
  96              	.LVL11:
  97              		.loc 1 79 0
  98 004a 0498     		ldr	r0, [sp, #16]
  99 004c FFF7FEFF 		bl	netbuf_delete
 100              	.LVL12:
 101              	.LBE5:
 102              	.LBE4:
 103              		.loc 1 114 0
 104 0050 0398     		ldr	r0, [sp, #12]
 105 0052 FFF7FEFF 		bl	netconn_delete
 106              	.LVL13:
 107 0056 E8E7     		b	.L4
 108              	.LVL14:
 109              	.L12:
 110              	.LBB7:
 111              	.LBB6:
 112              		.loc 1 53 0
 113 0058 0498     		ldr	r0, [sp, #16]
 114              	.LVL15:
ARM GAS  /tmp/ccTKskkB.s 			page 3


 115 005a 05A9     		add	r1, sp, #20
 116 005c 0DF10A02 		add	r2, sp, #10
 117 0060 FFF7FEFF 		bl	netbuf_data
 118              	.LVL16:
 119              		.loc 1 57 0
 120 0064 BDF80A30 		ldrh	r3, [sp, #10]
 121 0068 042B     		cmp	r3, #4
 122 006a EBD9     		bls	.L6
 123              		.loc 1 58 0
 124 006c 059B     		ldr	r3, [sp, #20]
 125              		.loc 1 57 0
 126 006e 1A78     		ldrb	r2, [r3]	@ zero_extendqisi2
 127 0070 472A     		cmp	r2, #71
 128 0072 E7D1     		bne	.L6
 129              		.loc 1 58 0
 130 0074 5A78     		ldrb	r2, [r3, #1]	@ zero_extendqisi2
 131 0076 452A     		cmp	r2, #69
 132 0078 E4D1     		bne	.L6
 133              		.loc 1 59 0
 134 007a 9A78     		ldrb	r2, [r3, #2]	@ zero_extendqisi2
 135 007c 542A     		cmp	r2, #84
 136 007e E1D1     		bne	.L6
 137              		.loc 1 60 0
 138 0080 DA78     		ldrb	r2, [r3, #3]	@ zero_extendqisi2
 139 0082 202A     		cmp	r2, #32
 140 0084 DED1     		bne	.L6
 141              		.loc 1 61 0
 142 0086 1B79     		ldrb	r3, [r3, #4]	@ zero_extendqisi2
 143 0088 2F2B     		cmp	r3, #47
 144 008a DBD1     		bne	.L6
 145              		.loc 1 68 0
 146 008c 40F20001 		movw	r1, #:lower16:.LANCHOR0
 147 0090 3346     		mov	r3, r6
 148 0092 0096     		str	r6, [sp]
 149 0094 C0F20001 		movt	r1, #:upper16:.LANCHOR0
 150 0098 2846     		mov	r0, r5
 151 009a 2C22     		movs	r2, #44
 152 009c FFF7FEFF 		bl	netconn_write_partly
 153              	.LVL17:
 154              		.loc 1 71 0
 155 00a0 40F20001 		movw	r1, #:lower16:.LANCHOR1
 156 00a4 0096     		str	r6, [sp]
 157 00a6 3346     		mov	r3, r6
 158 00a8 C0F20001 		movt	r1, #:upper16:.LANCHOR1
 159 00ac 2846     		mov	r0, r5
 160 00ae 8522     		movs	r2, #133
 161 00b0 FFF7FEFF 		bl	netconn_write_partly
 162              	.LVL18:
 163 00b4 C6E7     		b	.L6
 164              	.LVL19:
 165              	.L10:
 166              	.LBE6:
 167              	.LBE7:
 168              		.loc 1 98 0 discriminator 1
 169 00b6 FFF7FEFF 		bl	port_halt
 170              	.LVL20:
 171              		.loc 1 117 0 discriminator 1
ARM GAS  /tmp/ccTKskkB.s 			page 4


 172 00ba 6FF00100 		mvn	r0, #1
 173 00be 06B0     		add	sp, sp, #24
 174              		@ sp needed
 175 00c0 70BD     		pop	{r4, r5, r6, pc}
 176              		.cfi_endproc
 177              	.LFE8:
 178              		.size	http_server, .-http_server
 179              		.global	wa_http_server
 180 00c2 00BFAFF3 		.section	.rodata.http_index_html,"a",%progbits
 180      0080AFF3 
 180      0080AFF3 
 180      0080
 181              		.align	2
 182              		.set	.LANCHOR1,. + 0
 183              		.type	http_index_html, %object
 184              		.size	http_index_html, 134
 185              	http_index_html:
 186 0000 3C68746D 		.ascii	"<html><head><title>Congrats!</title></head><body><h"
 186      6C3E3C68 
 186      6561643E 
 186      3C746974 
 186      6C653E43 
 187 0033 313E5765 		.ascii	"1>Welcome to our lwIP HTTP server!</h1><p>This is a"
 187      6C636F6D 
 187      6520746F 
 187      206F7572 
 187      206C7749 
 188 0066 20736D61 		.ascii	" small test page.</body></html>\000"
 188      6C6C2074 
 188      65737420 
 188      70616765 
 188      2E3C2F62 
 189 0086 0000     		.section	.bss.wa_http_server,"aw",%nobits
 190              		.align	3
 191              		.type	wa_http_server, %object
 192              		.size	wa_http_server, 1232
 193              	wa_http_server:
 194 0000 00000000 		.space	1232
 194      00000000 
 194      00000000 
 194      00000000 
 194      00000000 
 195              		.section	.rodata.http_html_hdr,"a",%progbits
 196              		.align	2
 197              		.set	.LANCHOR0,. + 0
 198              		.type	http_html_hdr, %object
 199              		.size	http_html_hdr, 45
 200              	http_html_hdr:
 201 0000 48545450 		.ascii	"HTTP/1.1 200 OK\015\012Content-type: text/html\015\012"
 201      2F312E31 
 201      20323030 
 201      204F4B0D 
 201      0A436F6E 
 202 002a 0D0A00   		.ascii	"\015\012\000"
 203 002d 000000   		.text
 204              	.Letext0:
 205              		.file 2 "/usr/lib/gcc/arm-none-eabi/4.8.2/include/stddef.h"
ARM GAS  /tmp/ccTKskkB.s 			page 5


 206              		.file 3 "/usr/include/newlib/machine/_default_types.h"
 207              		.file 4 "/usr/include/newlib/stdint.h"
 208              		.file 5 "../../os/ports/GCC/ARMCMx/chtypes.h"
 209              		.file 6 "../../os/kernel/include/chlists.h"
 210              		.file 7 "../../os/kernel/include/chthreads.h"
 211              		.file 8 "../../os/ports/GCC/ARMCMx/chcore_v7m.h"
 212              		.file 9 "../../os/kernel/include/chsem.h"
 213              		.file 10 "../../os/kernel/include/chmtx.h"
 214              		.file 11 "../../os/kernel/include/chmboxes.h"
 215              		.file 12 "../../os/various/lwip_bindings/arch/cc.h"
 216              		.file 13 "../../ext/lwip/src/include/lwip/err.h"
 217              		.file 14 "../../ext/lwip/src/include/lwip/pbuf.h"
 218              		.file 15 "../../ext/lwip/src/include/ipv4/lwip/ip_addr.h"
 219              		.file 16 "../../ext/lwip/src/include/lwip/netbuf.h"
 220              		.file 17 "../../os/various/lwip_bindings/arch/sys_arch.h"
 221              		.file 18 "../../ext/lwip/src/include/lwip/api.h"
 222              		.section	.debug_info,"",%progbits
 223              	.Ldebug_info0:
 224 0000 660B0000 		.4byte	0xb66
 225 0004 0400     		.2byte	0x4
 226 0006 00000000 		.4byte	.Ldebug_abbrev0
 227 000a 04       		.byte	0x4
 228 000b 01       		.uleb128 0x1
 229 000c 07050000 		.4byte	.LASF147
 230 0010 01       		.byte	0x1
 231 0011 C6040000 		.4byte	.LASF148
 232 0015 30000000 		.4byte	.LASF149
 233 0019 18000000 		.4byte	.Ldebug_ranges0+0x18
 234 001d 00000000 		.4byte	0
 235 0021 00000000 		.4byte	.Ldebug_line0
 236 0025 02       		.uleb128 0x2
 237 0026 04       		.byte	0x4
 238 0027 05       		.byte	0x5
 239 0028 696E7400 		.ascii	"int\000"
 240 002c 03       		.uleb128 0x3
 241 002d 0D020000 		.4byte	.LASF1
 242 0031 02       		.byte	0x2
 243 0032 D4       		.byte	0xd4
 244 0033 37000000 		.4byte	0x37
 245 0037 04       		.uleb128 0x4
 246 0038 04       		.byte	0x4
 247 0039 07       		.byte	0x7
 248 003a BA000000 		.4byte	.LASF0
 249 003e 03       		.uleb128 0x3
 250 003f A3030000 		.4byte	.LASF2
 251 0043 03       		.byte	0x3
 252 0044 1B       		.byte	0x1b
 253 0045 49000000 		.4byte	0x49
 254 0049 04       		.uleb128 0x4
 255 004a 01       		.byte	0x1
 256 004b 06       		.byte	0x6
 257 004c B3060000 		.4byte	.LASF3
 258 0050 03       		.uleb128 0x3
 259 0051 9B040000 		.4byte	.LASF4
 260 0055 03       		.byte	0x3
 261 0056 1C       		.byte	0x1c
 262 0057 5B000000 		.4byte	0x5b
ARM GAS  /tmp/ccTKskkB.s 			page 6


 263 005b 04       		.uleb128 0x4
 264 005c 01       		.byte	0x1
 265 005d 08       		.byte	0x8
 266 005e 04060000 		.4byte	.LASF5
 267 0062 04       		.uleb128 0x4
 268 0063 02       		.byte	0x2
 269 0064 05       		.byte	0x5
 270 0065 27040000 		.4byte	.LASF6
 271 0069 03       		.uleb128 0x3
 272 006a CC010000 		.4byte	.LASF7
 273 006e 03       		.byte	0x3
 274 006f 26       		.byte	0x26
 275 0070 74000000 		.4byte	0x74
 276 0074 04       		.uleb128 0x4
 277 0075 02       		.byte	0x2
 278 0076 07       		.byte	0x7
 279 0077 C7060000 		.4byte	.LASF8
 280 007b 03       		.uleb128 0x3
 281 007c F4000000 		.4byte	.LASF9
 282 0080 03       		.byte	0x3
 283 0081 37       		.byte	0x37
 284 0082 86000000 		.4byte	0x86
 285 0086 04       		.uleb128 0x4
 286 0087 04       		.byte	0x4
 287 0088 05       		.byte	0x5
 288 0089 4D040000 		.4byte	.LASF10
 289 008d 03       		.uleb128 0x3
 290 008e 12060000 		.4byte	.LASF11
 291 0092 03       		.byte	0x3
 292 0093 38       		.byte	0x38
 293 0094 98000000 		.4byte	0x98
 294 0098 04       		.uleb128 0x4
 295 0099 04       		.byte	0x4
 296 009a 07       		.byte	0x7
 297 009b F5040000 		.4byte	.LASF12
 298 009f 04       		.uleb128 0x4
 299 00a0 08       		.byte	0x8
 300 00a1 05       		.byte	0x5
 301 00a2 63030000 		.4byte	.LASF13
 302 00a6 03       		.uleb128 0x3
 303 00a7 4A020000 		.4byte	.LASF14
 304 00ab 03       		.byte	0x3
 305 00ac 4E       		.byte	0x4e
 306 00ad B1000000 		.4byte	0xb1
 307 00b1 04       		.uleb128 0x4
 308 00b2 08       		.byte	0x8
 309 00b3 07       		.byte	0x7
 310 00b4 A5010000 		.4byte	.LASF15
 311 00b8 03       		.uleb128 0x3
 312 00b9 6A010000 		.4byte	.LASF16
 313 00bd 04       		.byte	0x4
 314 00be 29       		.byte	0x29
 315 00bf 3E000000 		.4byte	0x3e
 316 00c3 03       		.uleb128 0x3
 317 00c4 15030000 		.4byte	.LASF17
 318 00c8 04       		.byte	0x4
 319 00c9 2A       		.byte	0x2a
ARM GAS  /tmp/ccTKskkB.s 			page 7


 320 00ca 50000000 		.4byte	0x50
 321 00ce 03       		.uleb128 0x3
 322 00cf C2030000 		.4byte	.LASF18
 323 00d3 04       		.byte	0x4
 324 00d4 36       		.byte	0x36
 325 00d5 69000000 		.4byte	0x69
 326 00d9 03       		.uleb128 0x3
 327 00da B9050000 		.4byte	.LASF19
 328 00de 04       		.byte	0x4
 329 00df 41       		.byte	0x41
 330 00e0 7B000000 		.4byte	0x7b
 331 00e4 03       		.uleb128 0x3
 332 00e5 61010000 		.4byte	.LASF20
 333 00e9 04       		.byte	0x4
 334 00ea 42       		.byte	0x42
 335 00eb 8D000000 		.4byte	0x8d
 336 00ef 03       		.uleb128 0x3
 337 00f0 85040000 		.4byte	.LASF21
 338 00f4 04       		.byte	0x4
 339 00f5 4E       		.byte	0x4e
 340 00f6 A6000000 		.4byte	0xa6
 341 00fa 04       		.uleb128 0x4
 342 00fb 01       		.byte	0x1
 343 00fc 02       		.byte	0x2
 344 00fd 23020000 		.4byte	.LASF22
 345 0101 03       		.uleb128 0x3
 346 0102 AC030000 		.4byte	.LASF23
 347 0106 05       		.byte	0x5
 348 0107 2C       		.byte	0x2c
 349 0108 C3000000 		.4byte	0xc3
 350 010c 03       		.uleb128 0x3
 351 010d E0020000 		.4byte	.LASF24
 352 0111 05       		.byte	0x5
 353 0112 2D       		.byte	0x2d
 354 0113 C3000000 		.4byte	0xc3
 355 0117 03       		.uleb128 0x3
 356 0118 ED040000 		.4byte	.LASF25
 357 011c 05       		.byte	0x5
 358 011d 2E       		.byte	0x2e
 359 011e C3000000 		.4byte	0xc3
 360 0122 03       		.uleb128 0x3
 361 0123 93030000 		.4byte	.LASF26
 362 0127 05       		.byte	0x5
 363 0128 2F       		.byte	0x2f
 364 0129 C3000000 		.4byte	0xc3
 365 012d 03       		.uleb128 0x3
 366 012e 8F010000 		.4byte	.LASF27
 367 0132 05       		.byte	0x5
 368 0133 30       		.byte	0x30
 369 0134 E4000000 		.4byte	0xe4
 370 0138 03       		.uleb128 0x3
 371 0139 71030000 		.4byte	.LASF28
 372 013d 05       		.byte	0x5
 373 013e 31       		.byte	0x31
 374 013f D9000000 		.4byte	0xd9
 375 0143 03       		.uleb128 0x3
 376 0144 71010000 		.4byte	.LASF29
ARM GAS  /tmp/ccTKskkB.s 			page 8


 377 0148 05       		.byte	0x5
 378 0149 33       		.byte	0x33
 379 014a E4000000 		.4byte	0xe4
 380 014e 03       		.uleb128 0x3
 381 014f 84000000 		.4byte	.LASF30
 382 0153 05       		.byte	0x5
 383 0154 35       		.byte	0x35
 384 0155 E4000000 		.4byte	0xe4
 385 0159 03       		.uleb128 0x3
 386 015a D7010000 		.4byte	.LASF31
 387 015e 05       		.byte	0x5
 388 015f 36       		.byte	0x36
 389 0160 D9000000 		.4byte	0xd9
 390 0164 03       		.uleb128 0x3
 391 0165 D9020000 		.4byte	.LASF32
 392 0169 06       		.byte	0x6
 393 016a 2A       		.byte	0x2a
 394 016b 6F010000 		.4byte	0x16f
 395 016f 05       		.uleb128 0x5
 396 0170 D9020000 		.4byte	.LASF32
 397 0174 48       		.byte	0x48
 398 0175 07       		.byte	0x7
 399 0176 5E       		.byte	0x5e
 400 0177 6C020000 		.4byte	0x26c
 401 017b 06       		.uleb128 0x6
 402 017c 71040000 		.4byte	.LASF33
 403 0180 07       		.byte	0x7
 404 0181 5F       		.byte	0x5f
 405 0182 8D020000 		.4byte	0x28d
 406 0186 00       		.byte	0
 407 0187 06       		.uleb128 0x6
 408 0188 DD040000 		.4byte	.LASF34
 409 018c 07       		.byte	0x7
 410 018d 61       		.byte	0x61
 411 018e 8D020000 		.4byte	0x28d
 412 0192 04       		.byte	0x4
 413 0193 06       		.uleb128 0x6
 414 0194 77000000 		.4byte	.LASF35
 415 0198 07       		.byte	0x7
 416 0199 63       		.byte	0x63
 417 019a 2D010000 		.4byte	0x12d
 418 019e 08       		.byte	0x8
 419 019f 06       		.uleb128 0x6
 420 01a0 8E040000 		.4byte	.LASF36
 421 01a4 07       		.byte	0x7
 422 01a5 64       		.byte	0x64
 423 01a6 52030000 		.4byte	0x352
 424 01aa 0C       		.byte	0xc
 425 01ab 06       		.uleb128 0x6
 426 01ac DD010000 		.4byte	.LASF37
 427 01b0 07       		.byte	0x7
 428 01b1 66       		.byte	0x66
 429 01b2 8D020000 		.4byte	0x28d
 430 01b6 10       		.byte	0x10
 431 01b7 06       		.uleb128 0x6
 432 01b8 05030000 		.4byte	.LASF38
 433 01bc 07       		.byte	0x7
ARM GAS  /tmp/ccTKskkB.s 			page 9


 434 01bd 67       		.byte	0x67
 435 01be 8D020000 		.4byte	0x28d
 436 01c2 14       		.byte	0x14
 437 01c3 06       		.uleb128 0x6
 438 01c4 B4020000 		.4byte	.LASF39
 439 01c8 07       		.byte	0x7
 440 01c9 6E       		.byte	0x6e
 441 01ca 88040000 		.4byte	0x488
 442 01ce 18       		.byte	0x18
 443 01cf 06       		.uleb128 0x6
 444 01d0 0D030000 		.4byte	.LASF40
 445 01d4 07       		.byte	0x7
 446 01d5 79       		.byte	0x79
 447 01d6 0C010000 		.4byte	0x10c
 448 01da 1C       		.byte	0x1c
 449 01db 06       		.uleb128 0x6
 450 01dc 84030000 		.4byte	.LASF41
 451 01e0 07       		.byte	0x7
 452 01e1 7D       		.byte	0x7d
 453 01e2 01010000 		.4byte	0x101
 454 01e6 1D       		.byte	0x1d
 455 01e7 06       		.uleb128 0x6
 456 01e8 1D060000 		.4byte	.LASF42
 457 01ec 07       		.byte	0x7
 458 01ed 82       		.byte	0x82
 459 01ee 17010000 		.4byte	0x117
 460 01f2 1E       		.byte	0x1e
 461 01f3 06       		.uleb128 0x6
 462 01f4 6B060000 		.4byte	.LASF43
 463 01f8 07       		.byte	0x7
 464 01f9 88       		.byte	0x88
 465 01fa 22010000 		.4byte	0x122
 466 01fe 1F       		.byte	0x1f
 467 01ff 06       		.uleb128 0x6
 468 0200 29000000 		.4byte	.LASF44
 469 0204 07       		.byte	0x7
 470 0205 8F       		.byte	0x8f
 471 0206 7A030000 		.4byte	0x37a
 472 020a 20       		.byte	0x20
 473 020b 07       		.uleb128 0x7
 474 020c 705F7500 		.ascii	"p_u\000"
 475 0210 07       		.byte	0x7
 476 0211 B4       		.byte	0xb4
 477 0212 53040000 		.4byte	0x453
 478 0216 24       		.byte	0x24
 479 0217 06       		.uleb128 0x6
 480 0218 0C000000 		.4byte	.LASF45
 481 021c 07       		.byte	0x7
 482 021d B9       		.byte	0xb9
 483 021e B3020000 		.4byte	0x2b3
 484 0222 28       		.byte	0x28
 485 0223 06       		.uleb128 0x6
 486 0224 AF000000 		.4byte	.LASF46
 487 0228 07       		.byte	0x7
 488 0229 BF       		.byte	0xbf
 489 022a 93020000 		.4byte	0x293
 490 022e 2C       		.byte	0x2c
ARM GAS  /tmp/ccTKskkB.s 			page 10


 491 022f 06       		.uleb128 0x6
 492 0230 9D030000 		.4byte	.LASF47
 493 0234 07       		.byte	0x7
 494 0235 C3       		.byte	0xc3
 495 0236 38010000 		.4byte	0x138
 496 023a 34       		.byte	0x34
 497 023b 06       		.uleb128 0x6
 498 023c 3A040000 		.4byte	.LASF48
 499 0240 07       		.byte	0x7
 500 0241 C9       		.byte	0xc9
 501 0242 43010000 		.4byte	0x143
 502 0246 38       		.byte	0x38
 503 0247 06       		.uleb128 0x6
 504 0248 36030000 		.4byte	.LASF49
 505 024c 07       		.byte	0x7
 506 024d D0       		.byte	0xd0
 507 024e 9A040000 		.4byte	0x49a
 508 0252 3C       		.byte	0x3c
 509 0253 06       		.uleb128 0x6
 510 0254 16040000 		.4byte	.LASF50
 511 0258 07       		.byte	0x7
 512 0259 D4       		.byte	0xd4
 513 025a 2D010000 		.4byte	0x12d
 514 025e 40       		.byte	0x40
 515 025f 06       		.uleb128 0x6
 516 0260 28030000 		.4byte	.LASF51
 517 0264 07       		.byte	0x7
 518 0265 DA       		.byte	0xda
 519 0266 C9020000 		.4byte	0x2c9
 520 026a 44       		.byte	0x44
 521 026b 00       		.byte	0
 522 026c 08       		.uleb128 0x8
 523 026d 08       		.byte	0x8
 524 026e 06       		.byte	0x6
 525 026f 61       		.byte	0x61
 526 0270 8D020000 		.4byte	0x28d
 527 0274 06       		.uleb128 0x6
 528 0275 71040000 		.4byte	.LASF33
 529 0279 06       		.byte	0x6
 530 027a 62       		.byte	0x62
 531 027b 8D020000 		.4byte	0x28d
 532 027f 00       		.byte	0
 533 0280 06       		.uleb128 0x6
 534 0281 DD040000 		.4byte	.LASF34
 535 0285 06       		.byte	0x6
 536 0286 64       		.byte	0x64
 537 0287 8D020000 		.4byte	0x28d
 538 028b 04       		.byte	0x4
 539 028c 00       		.byte	0
 540 028d 09       		.uleb128 0x9
 541 028e 04       		.byte	0x4
 542 028f 64010000 		.4byte	0x164
 543 0293 03       		.uleb128 0x3
 544 0294 BB020000 		.4byte	.LASF52
 545 0298 06       		.byte	0x6
 546 0299 66       		.byte	0x66
 547 029a 6C020000 		.4byte	0x26c
ARM GAS  /tmp/ccTKskkB.s 			page 11


 548 029e 08       		.uleb128 0x8
 549 029f 04       		.byte	0x4
 550 02a0 06       		.byte	0x6
 551 02a1 6B       		.byte	0x6b
 552 02a2 B3020000 		.4byte	0x2b3
 553 02a6 06       		.uleb128 0x6
 554 02a7 71040000 		.4byte	.LASF33
 555 02ab 06       		.byte	0x6
 556 02ac 6D       		.byte	0x6d
 557 02ad 8D020000 		.4byte	0x28d
 558 02b1 00       		.byte	0
 559 02b2 00       		.byte	0
 560 02b3 03       		.uleb128 0x3
 561 02b4 00000000 		.4byte	.LASF53
 562 02b8 06       		.byte	0x6
 563 02b9 70       		.byte	0x70
 564 02ba 9E020000 		.4byte	0x29e
 565 02be 03       		.uleb128 0x3
 566 02bf 5A030000 		.4byte	.LASF54
 567 02c3 08       		.byte	0x8
 568 02c4 E5       		.byte	0xe5
 569 02c5 C9020000 		.4byte	0x2c9
 570 02c9 0A       		.uleb128 0xa
 571 02ca 04       		.byte	0x4
 572 02cb 03       		.uleb128 0x3
 573 02cc DA060000 		.4byte	.LASF55
 574 02d0 08       		.byte	0x8
 575 02d1 EB       		.byte	0xeb
 576 02d2 EF000000 		.4byte	0xef
 577 02d6 0B       		.uleb128 0xb
 578 02d7 E6030000 		.4byte	.LASF56
 579 02db 24       		.byte	0x24
 580 02dc 08       		.byte	0x8
 581 02dd 0C01     		.2byte	0x10c
 582 02df 52030000 		.4byte	0x352
 583 02e3 0C       		.uleb128 0xc
 584 02e4 723400   		.ascii	"r4\000"
 585 02e7 08       		.byte	0x8
 586 02e8 1F01     		.2byte	0x11f
 587 02ea BE020000 		.4byte	0x2be
 588 02ee 00       		.byte	0
 589 02ef 0C       		.uleb128 0xc
 590 02f0 723500   		.ascii	"r5\000"
 591 02f3 08       		.byte	0x8
 592 02f4 2001     		.2byte	0x120
 593 02f6 BE020000 		.4byte	0x2be
 594 02fa 04       		.byte	0x4
 595 02fb 0C       		.uleb128 0xc
 596 02fc 723600   		.ascii	"r6\000"
 597 02ff 08       		.byte	0x8
 598 0300 2101     		.2byte	0x121
 599 0302 BE020000 		.4byte	0x2be
 600 0306 08       		.byte	0x8
 601 0307 0C       		.uleb128 0xc
 602 0308 723700   		.ascii	"r7\000"
 603 030b 08       		.byte	0x8
 604 030c 2201     		.2byte	0x122
ARM GAS  /tmp/ccTKskkB.s 			page 12


 605 030e BE020000 		.4byte	0x2be
 606 0312 0C       		.byte	0xc
 607 0313 0C       		.uleb128 0xc
 608 0314 723800   		.ascii	"r8\000"
 609 0317 08       		.byte	0x8
 610 0318 2301     		.2byte	0x123
 611 031a BE020000 		.4byte	0x2be
 612 031e 10       		.byte	0x10
 613 031f 0C       		.uleb128 0xc
 614 0320 723900   		.ascii	"r9\000"
 615 0323 08       		.byte	0x8
 616 0324 2401     		.2byte	0x124
 617 0326 BE020000 		.4byte	0x2be
 618 032a 14       		.byte	0x14
 619 032b 0C       		.uleb128 0xc
 620 032c 72313000 		.ascii	"r10\000"
 621 0330 08       		.byte	0x8
 622 0331 2501     		.2byte	0x125
 623 0333 BE020000 		.4byte	0x2be
 624 0337 18       		.byte	0x18
 625 0338 0C       		.uleb128 0xc
 626 0339 72313100 		.ascii	"r11\000"
 627 033d 08       		.byte	0x8
 628 033e 2601     		.2byte	0x126
 629 0340 BE020000 		.4byte	0x2be
 630 0344 1C       		.byte	0x1c
 631 0345 0C       		.uleb128 0xc
 632 0346 6C7200   		.ascii	"lr\000"
 633 0349 08       		.byte	0x8
 634 034a 2701     		.2byte	0x127
 635 034c BE020000 		.4byte	0x2be
 636 0350 20       		.byte	0x20
 637 0351 00       		.byte	0
 638 0352 0B       		.uleb128 0xb
 639 0353 77030000 		.4byte	.LASF57
 640 0357 04       		.byte	0x4
 641 0358 08       		.byte	0x8
 642 0359 3101     		.2byte	0x131
 643 035b 6D030000 		.4byte	0x36d
 644 035f 0C       		.uleb128 0xc
 645 0360 72313300 		.ascii	"r13\000"
 646 0364 08       		.byte	0x8
 647 0365 3201     		.2byte	0x132
 648 0367 6D030000 		.4byte	0x36d
 649 036b 00       		.byte	0
 650 036c 00       		.byte	0
 651 036d 09       		.uleb128 0x9
 652 036e 04       		.byte	0x4
 653 036f D6020000 		.4byte	0x2d6
 654 0373 04       		.uleb128 0x4
 655 0374 04       		.byte	0x4
 656 0375 07       		.byte	0x7
 657 0376 E4040000 		.4byte	.LASF58
 658 037a 0D       		.uleb128 0xd
 659 037b 4E010000 		.4byte	0x14e
 660 037f 05       		.uleb128 0x5
 661 0380 B5040000 		.4byte	.LASF59
ARM GAS  /tmp/ccTKskkB.s 			page 13


 662 0384 0C       		.byte	0xc
 663 0385 09       		.byte	0x9
 664 0386 2C       		.byte	0x2c
 665 0387 A4030000 		.4byte	0x3a4
 666 038b 06       		.uleb128 0x6
 667 038c 96000000 		.4byte	.LASF60
 668 0390 09       		.byte	0x9
 669 0391 2D       		.byte	0x2d
 670 0392 93020000 		.4byte	0x293
 671 0396 00       		.byte	0
 672 0397 06       		.uleb128 0x6
 673 0398 5B010000 		.4byte	.LASF61
 674 039c 09       		.byte	0x9
 675 039d 2F       		.byte	0x2f
 676 039e 59010000 		.4byte	0x159
 677 03a2 08       		.byte	0x8
 678 03a3 00       		.byte	0
 679 03a4 03       		.uleb128 0x3
 680 03a5 B5040000 		.4byte	.LASF59
 681 03a9 09       		.byte	0x9
 682 03aa 30       		.byte	0x30
 683 03ab 7F030000 		.4byte	0x37f
 684 03af 05       		.uleb128 0x5
 685 03b0 5A020000 		.4byte	.LASF62
 686 03b4 10       		.byte	0x10
 687 03b5 0A       		.byte	0xa
 688 03b6 2C       		.byte	0x2c
 689 03b7 E0030000 		.4byte	0x3e0
 690 03bb 06       		.uleb128 0x6
 691 03bc 45040000 		.4byte	.LASF63
 692 03c0 0A       		.byte	0xa
 693 03c1 2D       		.byte	0x2d
 694 03c2 93020000 		.4byte	0x293
 695 03c6 00       		.byte	0
 696 03c7 06       		.uleb128 0x6
 697 03c8 8E000000 		.4byte	.LASF64
 698 03cc 0A       		.byte	0xa
 699 03cd 2F       		.byte	0x2f
 700 03ce 8D020000 		.4byte	0x28d
 701 03d2 08       		.byte	0x8
 702 03d3 06       		.uleb128 0x6
 703 03d4 A4060000 		.4byte	.LASF65
 704 03d8 0A       		.byte	0xa
 705 03d9 31       		.byte	0x31
 706 03da E0030000 		.4byte	0x3e0
 707 03de 0C       		.byte	0xc
 708 03df 00       		.byte	0
 709 03e0 09       		.uleb128 0x9
 710 03e1 04       		.byte	0x4
 711 03e2 AF030000 		.4byte	0x3af
 712 03e6 03       		.uleb128 0x3
 713 03e7 5A020000 		.4byte	.LASF62
 714 03eb 0A       		.byte	0xa
 715 03ec 33       		.byte	0x33
 716 03ed AF030000 		.4byte	0x3af
 717 03f1 08       		.uleb128 0x8
 718 03f2 28       		.byte	0x28
ARM GAS  /tmp/ccTKskkB.s 			page 14


 719 03f3 0B       		.byte	0xb
 720 03f4 33       		.byte	0x33
 721 03f5 42040000 		.4byte	0x442
 722 03f9 06       		.uleb128 0x6
 723 03fa AF050000 		.4byte	.LASF66
 724 03fe 0B       		.byte	0xb
 725 03ff 34       		.byte	0x34
 726 0400 42040000 		.4byte	0x442
 727 0404 00       		.byte	0
 728 0405 06       		.uleb128 0x6
 729 0406 8C030000 		.4byte	.LASF67
 730 040a 0B       		.byte	0xb
 731 040b 36       		.byte	0x36
 732 040c 42040000 		.4byte	0x442
 733 0410 04       		.byte	0x4
 734 0411 06       		.uleb128 0x6
 735 0412 31040000 		.4byte	.LASF68
 736 0416 0B       		.byte	0xb
 737 0417 38       		.byte	0x38
 738 0418 42040000 		.4byte	0x442
 739 041c 08       		.byte	0x8
 740 041d 06       		.uleb128 0x6
 741 041e 29020000 		.4byte	.LASF69
 742 0422 0B       		.byte	0xb
 743 0423 39       		.byte	0x39
 744 0424 42040000 		.4byte	0x442
 745 0428 0C       		.byte	0xc
 746 0429 06       		.uleb128 0x6
 747 042a 1D030000 		.4byte	.LASF70
 748 042e 0B       		.byte	0xb
 749 042f 3A       		.byte	0x3a
 750 0430 A4030000 		.4byte	0x3a4
 751 0434 10       		.byte	0x10
 752 0435 06       		.uleb128 0x6
 753 0436 60020000 		.4byte	.LASF71
 754 043a 0B       		.byte	0xb
 755 043b 3C       		.byte	0x3c
 756 043c A4030000 		.4byte	0x3a4
 757 0440 1C       		.byte	0x1c
 758 0441 00       		.byte	0
 759 0442 09       		.uleb128 0x9
 760 0443 04       		.byte	0x4
 761 0444 38010000 		.4byte	0x138
 762 0448 03       		.uleb128 0x3
 763 0449 45010000 		.4byte	.LASF72
 764 044d 0B       		.byte	0xb
 765 044e 3E       		.byte	0x3e
 766 044f F1030000 		.4byte	0x3f1
 767 0453 0E       		.uleb128 0xe
 768 0454 04       		.byte	0x4
 769 0455 07       		.byte	0x7
 770 0456 96       		.byte	0x96
 771 0457 88040000 		.4byte	0x488
 772 045b 0F       		.uleb128 0xf
 773 045c 14020000 		.4byte	.LASF73
 774 0460 07       		.byte	0x7
 775 0461 9D       		.byte	0x9d
ARM GAS  /tmp/ccTKskkB.s 			page 15


 776 0462 38010000 		.4byte	0x138
 777 0466 0F       		.uleb128 0xf
 778 0467 31070000 		.4byte	.LASF74
 779 046b 07       		.byte	0x7
 780 046c A4       		.byte	0xa4
 781 046d 38010000 		.4byte	0x138
 782 0471 0F       		.uleb128 0xf
 783 0472 04010000 		.4byte	.LASF75
 784 0476 07       		.byte	0x7
 785 0477 AB       		.byte	0xab
 786 0478 C9020000 		.4byte	0x2c9
 787 047c 0F       		.uleb128 0xf
 788 047d 3E010000 		.4byte	.LASF76
 789 0481 07       		.byte	0x7
 790 0482 B2       		.byte	0xb2
 791 0483 43010000 		.4byte	0x143
 792 0487 00       		.byte	0
 793 0488 09       		.uleb128 0x9
 794 0489 04       		.byte	0x4
 795 048a 8E040000 		.4byte	0x48e
 796 048e 10       		.uleb128 0x10
 797 048f 93040000 		.4byte	0x493
 798 0493 04       		.uleb128 0x4
 799 0494 01       		.byte	0x1
 800 0495 08       		.byte	0x8
 801 0496 D4020000 		.4byte	.LASF77
 802 049a 09       		.uleb128 0x9
 803 049b 04       		.byte	0x4
 804 049c E6030000 		.4byte	0x3e6
 805 04a0 03       		.uleb128 0x3
 806 04a1 7F030000 		.4byte	.LASF78
 807 04a5 0C       		.byte	0xc
 808 04a6 38       		.byte	0x38
 809 04a7 C3000000 		.4byte	0xc3
 810 04ab 03       		.uleb128 0x3
 811 04ac 55020000 		.4byte	.LASF79
 812 04b0 0C       		.byte	0xc
 813 04b1 39       		.byte	0x39
 814 04b2 B8000000 		.4byte	0xb8
 815 04b6 03       		.uleb128 0x3
 816 04b7 FE000000 		.4byte	.LASF80
 817 04bb 0C       		.byte	0xc
 818 04bc 3A       		.byte	0x3a
 819 04bd CE000000 		.4byte	0xce
 820 04c1 03       		.uleb128 0x3
 821 04c2 21040000 		.4byte	.LASF81
 822 04c6 0C       		.byte	0xc
 823 04c7 3C       		.byte	0x3c
 824 04c8 E4000000 		.4byte	0xe4
 825 04cc 03       		.uleb128 0x3
 826 04cd EE000000 		.4byte	.LASF82
 827 04d1 0D       		.byte	0xd
 828 04d2 2F       		.byte	0x2f
 829 04d3 AB040000 		.4byte	0x4ab
 830 04d7 05       		.uleb128 0x5
 831 04d8 4D060000 		.4byte	.LASF83
 832 04dc 10       		.byte	0x10
ARM GAS  /tmp/ccTKskkB.s 			page 16


 833 04dd 0E       		.byte	0xe
 834 04de 4F       		.byte	0x4f
 835 04df 38050000 		.4byte	0x538
 836 04e3 06       		.uleb128 0x6
 837 04e4 D5000000 		.4byte	.LASF84
 838 04e8 0E       		.byte	0xe
 839 04e9 51       		.byte	0x51
 840 04ea 38050000 		.4byte	0x538
 841 04ee 00       		.byte	0
 842 04ef 06       		.uleb128 0x6
 843 04f0 1B020000 		.4byte	.LASF85
 844 04f4 0E       		.byte	0xe
 845 04f5 54       		.byte	0x54
 846 04f6 C9020000 		.4byte	0x2c9
 847 04fa 04       		.byte	0x4
 848 04fb 06       		.uleb128 0x6
 849 04fc 05020000 		.4byte	.LASF86
 850 0500 0E       		.byte	0xe
 851 0501 5D       		.byte	0x5d
 852 0502 B6040000 		.4byte	0x4b6
 853 0506 08       		.byte	0x8
 854 0507 07       		.uleb128 0x7
 855 0508 6C656E00 		.ascii	"len\000"
 856 050c 0E       		.byte	0xe
 857 050d 60       		.byte	0x60
 858 050e B6040000 		.4byte	0x4b6
 859 0512 0A       		.byte	0xa
 860 0513 06       		.uleb128 0x6
 861 0514 FF050000 		.4byte	.LASF87
 862 0518 0E       		.byte	0xe
 863 0519 63       		.byte	0x63
 864 051a A0040000 		.4byte	0x4a0
 865 051e 0C       		.byte	0xc
 866 051f 06       		.uleb128 0x6
 867 0520 7E000000 		.4byte	.LASF88
 868 0524 0E       		.byte	0xe
 869 0525 66       		.byte	0x66
 870 0526 A0040000 		.4byte	0x4a0
 871 052a 0D       		.byte	0xd
 872 052b 07       		.uleb128 0x7
 873 052c 72656600 		.ascii	"ref\000"
 874 0530 0E       		.byte	0xe
 875 0531 6D       		.byte	0x6d
 876 0532 B6040000 		.4byte	0x4b6
 877 0536 0E       		.byte	0xe
 878 0537 00       		.byte	0
 879 0538 09       		.uleb128 0x9
 880 0539 04       		.byte	0x4
 881 053a D7040000 		.4byte	0x4d7
 882 053e 05       		.uleb128 0x5
 883 053f 3A070000 		.4byte	.LASF89
 884 0543 04       		.byte	0x4
 885 0544 0F       		.byte	0xf
 886 0545 2C       		.byte	0x2c
 887 0546 57050000 		.4byte	0x557
 888 054a 06       		.uleb128 0x6
 889 054b 82060000 		.4byte	.LASF90
ARM GAS  /tmp/ccTKskkB.s 			page 17


 890 054f 0F       		.byte	0xf
 891 0550 2D       		.byte	0x2d
 892 0551 C1040000 		.4byte	0x4c1
 893 0555 00       		.byte	0
 894 0556 00       		.byte	0
 895 0557 03       		.uleb128 0x3
 896 0558 1F070000 		.4byte	.LASF91
 897 055c 0F       		.byte	0xf
 898 055d 40       		.byte	0x40
 899 055e 3E050000 		.4byte	0x53e
 900 0562 05       		.uleb128 0x5
 901 0563 BF040000 		.4byte	.LASF92
 902 0567 10       		.byte	0x10
 903 0568 10       		.byte	0x10
 904 0569 30       		.byte	0x30
 905 056a 9D050000 		.4byte	0x59d
 906 056e 07       		.uleb128 0x7
 907 056f 7000     		.ascii	"p\000"
 908 0571 10       		.byte	0x10
 909 0572 31       		.byte	0x31
 910 0573 38050000 		.4byte	0x538
 911 0577 00       		.byte	0
 912 0578 07       		.uleb128 0x7
 913 0579 70747200 		.ascii	"ptr\000"
 914 057d 10       		.byte	0x10
 915 057e 31       		.byte	0x31
 916 057f 38050000 		.4byte	0x538
 917 0583 04       		.byte	0x4
 918 0584 06       		.uleb128 0x6
 919 0585 82060000 		.4byte	.LASF90
 920 0589 10       		.byte	0x10
 921 058a 32       		.byte	0x32
 922 058b 57050000 		.4byte	0x557
 923 058f 08       		.byte	0x8
 924 0590 06       		.uleb128 0x6
 925 0591 C1050000 		.4byte	.LASF93
 926 0595 10       		.byte	0x10
 927 0596 33       		.byte	0x33
 928 0597 B6040000 		.4byte	0x4b6
 929 059b 0C       		.byte	0xc
 930 059c 00       		.byte	0
 931 059d 03       		.uleb128 0x3
 932 059e 37020000 		.4byte	.LASF94
 933 05a2 11       		.byte	0x11
 934 05a3 38       		.byte	0x38
 935 05a4 A8050000 		.4byte	0x5a8
 936 05a8 09       		.uleb128 0x9
 937 05a9 04       		.byte	0x4
 938 05aa A4030000 		.4byte	0x3a4
 939 05ae 03       		.uleb128 0x3
 940 05af 1E000000 		.4byte	.LASF95
 941 05b3 11       		.byte	0x11
 942 05b4 39       		.byte	0x39
 943 05b5 B9050000 		.4byte	0x5b9
 944 05b9 09       		.uleb128 0x9
 945 05ba 04       		.byte	0x4
 946 05bb 48040000 		.4byte	0x448
ARM GAS  /tmp/ccTKskkB.s 			page 18


 947 05bf 11       		.uleb128 0x11
 948 05c0 ED030000 		.4byte	.LASF102
 949 05c4 01       		.byte	0x1
 950 05c5 12       		.byte	0x12
 951 05c6 53       		.byte	0x53
 952 05c7 F1050000 		.4byte	0x5f1
 953 05cb 12       		.uleb128 0x12
 954 05cc BC010000 		.4byte	.LASF96
 955 05d0 00       		.sleb128 0
 956 05d1 12       		.uleb128 0x12
 957 05d2 41060000 		.4byte	.LASF97
 958 05d6 10       		.sleb128 16
 959 05d7 12       		.uleb128 0x12
 960 05d8 F9010000 		.4byte	.LASF98
 961 05dc 20       		.sleb128 32
 962 05dd 12       		.uleb128 0x12
 963 05de F1060000 		.4byte	.LASF99
 964 05e2 21       		.sleb128 33
 965 05e3 12       		.uleb128 0x12
 966 05e4 DA000000 		.4byte	.LASF100
 967 05e8 22       		.sleb128 34
 968 05e9 12       		.uleb128 0x12
 969 05ea E5060000 		.4byte	.LASF101
 970 05ee C000     		.sleb128 64
 971 05f0 00       		.byte	0
 972 05f1 11       		.uleb128 0x11
 973 05f2 4D010000 		.4byte	.LASF103
 974 05f6 01       		.byte	0x1
 975 05f7 12       		.byte	0x12
 976 05f8 61       		.byte	0x61
 977 05f9 1C060000 		.4byte	0x61c
 978 05fd 12       		.uleb128 0x12
 979 05fe D9030000 		.4byte	.LASF104
 980 0602 00       		.sleb128 0
 981 0603 12       		.uleb128 0x12
 982 0604 C7000000 		.4byte	.LASF105
 983 0608 01       		.sleb128 1
 984 0609 12       		.uleb128 0x12
 985 060a 52060000 		.4byte	.LASF106
 986 060e 02       		.sleb128 2
 987 060f 12       		.uleb128 0x12
 988 0610 FA030000 		.4byte	.LASF107
 989 0614 03       		.sleb128 3
 990 0615 12       		.uleb128 0x12
 991 0616 96060000 		.4byte	.LASF108
 992 061a 04       		.sleb128 4
 993 061b 00       		.byte	0
 994 061c 11       		.uleb128 0x11
 995 061d C6050000 		.4byte	.LASF109
 996 0621 01       		.byte	0x1
 997 0622 12       		.byte	0x12
 998 0623 6A       		.byte	0x6a
 999 0624 47060000 		.4byte	0x647
 1000 0628 12       		.uleb128 0x12
 1001 0629 E5010000 		.4byte	.LASF110
 1002 062d 00       		.sleb128 0
 1003 062e 12       		.uleb128 0x12
ARM GAS  /tmp/ccTKskkB.s 			page 19


 1004 062f 9F020000 		.4byte	.LASF111
 1005 0633 01       		.sleb128 1
 1006 0634 12       		.uleb128 0x12
 1007 0635 6C020000 		.4byte	.LASF112
 1008 0639 02       		.sleb128 2
 1009 063a 12       		.uleb128 0x12
 1010 063b 24060000 		.4byte	.LASF113
 1011 063f 03       		.sleb128 3
 1012 0640 12       		.uleb128 0x12
 1013 0641 7D010000 		.4byte	.LASF114
 1014 0645 04       		.sleb128 4
 1015 0646 00       		.byte	0
 1016 0647 03       		.uleb128 0x3
 1017 0648 D2050000 		.4byte	.LASF115
 1018 064c 12       		.byte	0x12
 1019 064d 83       		.byte	0x83
 1020 064e 52060000 		.4byte	0x652
 1021 0652 09       		.uleb128 0x9
 1022 0653 04       		.byte	0x4
 1023 0654 58060000 		.4byte	0x658
 1024 0658 13       		.uleb128 0x13
 1025 0659 6D060000 		.4byte	0x66d
 1026 065d 14       		.uleb128 0x14
 1027 065e 6D060000 		.4byte	0x66d
 1028 0662 14       		.uleb128 0x14
 1029 0663 1C060000 		.4byte	0x61c
 1030 0667 14       		.uleb128 0x14
 1031 0668 B6040000 		.4byte	0x4b6
 1032 066c 00       		.byte	0
 1033 066d 09       		.uleb128 0x9
 1034 066e 04       		.byte	0x4
 1035 066f 73060000 		.4byte	0x673
 1036 0673 05       		.uleb128 0x5
 1037 0674 29070000 		.4byte	.LASF116
 1038 0678 2C       		.byte	0x2c
 1039 0679 12       		.byte	0x12
 1040 067a 86       		.byte	0x86
 1041 067b 10070000 		.4byte	0x710
 1042 067f 06       		.uleb128 0x6
 1043 0680 FF050000 		.4byte	.LASF87
 1044 0684 12       		.byte	0x12
 1045 0685 88       		.byte	0x88
 1046 0686 BF050000 		.4byte	0x5bf
 1047 068a 00       		.byte	0
 1048 068b 06       		.uleb128 0x6
 1049 068c 87060000 		.4byte	.LASF117
 1050 0690 12       		.byte	0x12
 1051 0691 8A       		.byte	0x8a
 1052 0692 F1050000 		.4byte	0x5f1
 1053 0696 01       		.byte	0x1
 1054 0697 07       		.uleb128 0x7
 1055 0698 70636200 		.ascii	"pcb\000"
 1056 069c 12       		.byte	0x12
 1057 069d 91       		.byte	0x91
 1058 069e 10070000 		.4byte	0x710
 1059 06a2 04       		.byte	0x4
 1060 06a3 06       		.uleb128 0x6
ARM GAS  /tmp/ccTKskkB.s 			page 20


 1061 06a4 41020000 		.4byte	.LASF118
 1062 06a8 12       		.byte	0x12
 1063 06a9 93       		.byte	0x93
 1064 06aa CC040000 		.4byte	0x4cc
 1065 06ae 08       		.byte	0x8
 1066 06af 06       		.uleb128 0x6
 1067 06b0 12070000 		.4byte	.LASF119
 1068 06b4 12       		.byte	0x12
 1069 06b5 95       		.byte	0x95
 1070 06b6 9D050000 		.4byte	0x59d
 1071 06ba 0C       		.byte	0xc
 1072 06bb 06       		.uleb128 0x6
 1073 06bc 9E000000 		.4byte	.LASF120
 1074 06c0 12       		.byte	0x12
 1075 06c1 98       		.byte	0x98
 1076 06c2 AE050000 		.4byte	0x5ae
 1077 06c6 10       		.byte	0x10
 1078 06c7 06       		.uleb128 0x6
 1079 06c8 40030000 		.4byte	.LASF121
 1080 06cc 12       		.byte	0x12
 1081 06cd 9C       		.byte	0x9c
 1082 06ce AE050000 		.4byte	0x5ae
 1083 06d2 14       		.byte	0x14
 1084 06d3 06       		.uleb128 0x6
 1085 06d4 94040000 		.4byte	.LASF122
 1086 06d8 12       		.byte	0x12
 1087 06d9 A0       		.byte	0xa0
 1088 06da 25000000 		.4byte	0x25
 1089 06de 18       		.byte	0x18
 1090 06df 06       		.uleb128 0x6
 1091 06e0 7E000000 		.4byte	.LASF88
 1092 06e4 12       		.byte	0x12
 1093 06e5 B6       		.byte	0xb6
 1094 06e6 A0040000 		.4byte	0x4a0
 1095 06ea 1C       		.byte	0x1c
 1096 06eb 06       		.uleb128 0x6
 1097 06ec 75060000 		.4byte	.LASF123
 1098 06f0 12       		.byte	0x12
 1099 06f1 BA       		.byte	0xba
 1100 06f2 2C000000 		.4byte	0x2c
 1101 06f6 20       		.byte	0x20
 1102 06f7 06       		.uleb128 0x6
 1103 06f8 65040000 		.4byte	.LASF124
 1104 06fc 12       		.byte	0x12
 1105 06fd BE       		.byte	0xbe
 1106 06fe 75070000 		.4byte	0x775
 1107 0702 24       		.byte	0x24
 1108 0703 06       		.uleb128 0x6
 1109 0704 8D060000 		.4byte	.LASF125
 1110 0708 12       		.byte	0x12
 1111 0709 C1       		.byte	0xc1
 1112 070a 47060000 		.4byte	0x647
 1113 070e 28       		.byte	0x28
 1114 070f 00       		.byte	0
 1115 0710 0E       		.uleb128 0xe
 1116 0711 04       		.byte	0x4
 1117 0712 12       		.byte	0x12
ARM GAS  /tmp/ccTKskkB.s 			page 21


 1118 0713 8C       		.byte	0x8c
 1119 0714 44070000 		.4byte	0x744
 1120 0718 15       		.uleb128 0x15
 1121 0719 697000   		.ascii	"ip\000"
 1122 071c 12       		.byte	0x12
 1123 071d 8D       		.byte	0x8d
 1124 071e 49070000 		.4byte	0x749
 1125 0722 15       		.uleb128 0x15
 1126 0723 74637000 		.ascii	"tcp\000"
 1127 0727 12       		.byte	0x12
 1128 0728 8E       		.byte	0x8e
 1129 0729 54070000 		.4byte	0x754
 1130 072d 15       		.uleb128 0x15
 1131 072e 75647000 		.ascii	"udp\000"
 1132 0732 12       		.byte	0x12
 1133 0733 8F       		.byte	0x8f
 1134 0734 5F070000 		.4byte	0x75f
 1135 0738 15       		.uleb128 0x15
 1136 0739 72617700 		.ascii	"raw\000"
 1137 073d 12       		.byte	0x12
 1138 073e 90       		.byte	0x90
 1139 073f 6A070000 		.4byte	0x76a
 1140 0743 00       		.byte	0
 1141 0744 16       		.uleb128 0x16
 1142 0745 3A060000 		.4byte	.LASF126
 1143 0749 09       		.uleb128 0x9
 1144 074a 04       		.byte	0x4
 1145 074b 44070000 		.4byte	0x744
 1146 074f 16       		.uleb128 0x16
 1147 0750 BF060000 		.4byte	.LASF127
 1148 0754 09       		.uleb128 0x9
 1149 0755 04       		.byte	0x4
 1150 0756 4F070000 		.4byte	0x74f
 1151 075a 16       		.uleb128 0x16
 1152 075b 16000000 		.4byte	.LASF128
 1153 075f 09       		.uleb128 0x9
 1154 0760 04       		.byte	0x4
 1155 0761 5A070000 		.4byte	0x75a
 1156 0765 16       		.uleb128 0x16
 1157 0766 A7000000 		.4byte	.LASF129
 1158 076a 09       		.uleb128 0x9
 1159 076b 04       		.byte	0x4
 1160 076c 65070000 		.4byte	0x765
 1161 0770 16       		.uleb128 0x16
 1162 0771 81020000 		.4byte	.LASF130
 1163 0775 09       		.uleb128 0x9
 1164 0776 04       		.byte	0x4
 1165 0777 70070000 		.4byte	0x770
 1166 077b 17       		.uleb128 0x17
 1167 077c 8D020000 		.4byte	.LASF150
 1168 0780 01       		.byte	0x1
 1169 0781 2A       		.byte	0x2a
 1170 0782 01       		.byte	0x1
 1171 0783 BF070000 		.4byte	0x7bf
 1172 0787 18       		.uleb128 0x18
 1173 0788 32020000 		.4byte	.LASF133
 1174 078c 01       		.byte	0x1
ARM GAS  /tmp/ccTKskkB.s 			page 22


 1175 078d 2A       		.byte	0x2a
 1176 078e 6D060000 		.4byte	0x66d
 1177 0792 19       		.uleb128 0x19
 1178 0793 30030000 		.4byte	.LASF131
 1179 0797 01       		.byte	0x1
 1180 0798 2B       		.byte	0x2b
 1181 0799 BF070000 		.4byte	0x7bf
 1182 079d 1A       		.uleb128 0x1a
 1183 079e 62756600 		.ascii	"buf\000"
 1184 07a2 01       		.byte	0x1
 1185 07a3 2C       		.byte	0x2c
 1186 07a4 C5070000 		.4byte	0x7c5
 1187 07a8 19       		.uleb128 0x19
 1188 07a9 E9020000 		.4byte	.LASF132
 1189 07ad 01       		.byte	0x1
 1190 07ae 2D       		.byte	0x2d
 1191 07af B6040000 		.4byte	0x4b6
 1192 07b3 1A       		.uleb128 0x1a
 1193 07b4 65727200 		.ascii	"err\000"
 1194 07b8 01       		.byte	0x1
 1195 07b9 2E       		.byte	0x2e
 1196 07ba CC040000 		.4byte	0x4cc
 1197 07be 00       		.byte	0
 1198 07bf 09       		.uleb128 0x9
 1199 07c0 04       		.byte	0x4
 1200 07c1 62050000 		.4byte	0x562
 1201 07c5 09       		.uleb128 0x9
 1202 07c6 04       		.byte	0x4
 1203 07c7 93040000 		.4byte	0x493
 1204 07cb 1B       		.uleb128 0x1b
 1205 07cc 0A040000 		.4byte	.LASF151
 1206 07d0 01       		.byte	0x1
 1207 07d1 5A       		.byte	0x5a
 1208 07d2 38010000 		.4byte	0x138
 1209 07d6 00000000 		.4byte	.LFB8
 1210 07da C2000000 		.4byte	.LFE8-.LFB8
 1211 07de 01       		.uleb128 0x1
 1212 07df 9C       		.byte	0x9c
 1213 07e0 A4090000 		.4byte	0x9a4
 1214 07e4 1C       		.uleb128 0x1c
 1215 07e5 7000     		.ascii	"p\000"
 1216 07e7 01       		.byte	0x1
 1217 07e8 5A       		.byte	0x5a
 1218 07e9 C9020000 		.4byte	0x2c9
 1219 07ed 00000000 		.4byte	.LLST0
 1220 07f1 1D       		.uleb128 0x1d
 1221 07f2 32020000 		.4byte	.LASF133
 1222 07f6 01       		.byte	0x1
 1223 07f7 5B       		.byte	0x5b
 1224 07f8 6D060000 		.4byte	0x66d
 1225 07fc 21000000 		.4byte	.LLST1
 1226 0800 1E       		.uleb128 0x1e
 1227 0801 AB060000 		.4byte	.LASF134
 1228 0805 01       		.byte	0x1
 1229 0806 5B       		.byte	0x5b
 1230 0807 6D060000 		.4byte	0x66d
 1231 080b 02       		.uleb128 0x2
ARM GAS  /tmp/ccTKskkB.s 			page 23


 1232 080c 91       		.byte	0x91
 1233 080d 64       		.sleb128 -28
 1234 080e 1F       		.uleb128 0x1f
 1235 080f 65727200 		.ascii	"err\000"
 1236 0813 01       		.byte	0x1
 1237 0814 5C       		.byte	0x5c
 1238 0815 CC040000 		.4byte	0x4cc
 1239 0819 55000000 		.4byte	.LLST2
 1240 081d 20       		.uleb128 0x20
 1241 081e 7B070000 		.4byte	0x77b
 1242 0822 38000000 		.4byte	.LBB4
 1243 0826 00000000 		.4byte	.Ldebug_ranges0+0
 1244 082a 01       		.byte	0x1
 1245 082b 71       		.byte	0x71
 1246 082c 0E090000 		.4byte	0x90e
 1247 0830 21       		.uleb128 0x21
 1248 0831 87070000 		.4byte	0x787
 1249 0835 68000000 		.4byte	.LLST3
 1250 0839 22       		.uleb128 0x22
 1251 083a 00000000 		.4byte	.Ldebug_ranges0+0
 1252 083e 23       		.uleb128 0x23
 1253 083f 92070000 		.4byte	0x792
 1254 0843 02       		.uleb128 0x2
 1255 0844 91       		.byte	0x91
 1256 0845 68       		.sleb128 -24
 1257 0846 23       		.uleb128 0x23
 1258 0847 9D070000 		.4byte	0x79d
 1259 084b 02       		.uleb128 0x2
 1260 084c 91       		.byte	0x91
 1261 084d 6C       		.sleb128 -20
 1262 084e 23       		.uleb128 0x23
 1263 084f A8070000 		.4byte	0x7a8
 1264 0853 02       		.uleb128 0x2
 1265 0854 91       		.byte	0x91
 1266 0855 62       		.sleb128 -30
 1267 0856 24       		.uleb128 0x24
 1268 0857 B3070000 		.4byte	0x7b3
 1269 085b 7B000000 		.4byte	.LLST4
 1270 085f 25       		.uleb128 0x25
 1271 0860 40000000 		.4byte	.LVL9
 1272 0864 110A0000 		.4byte	0xa11
 1273 0868 79080000 		.4byte	0x879
 1274 086c 26       		.uleb128 0x26
 1275 086d 01       		.uleb128 0x1
 1276 086e 51       		.byte	0x51
 1277 086f 02       		.uleb128 0x2
 1278 0870 91       		.byte	0x91
 1279 0871 68       		.sleb128 -24
 1280 0872 26       		.uleb128 0x26
 1281 0873 01       		.uleb128 0x1
 1282 0874 50       		.byte	0x50
 1283 0875 02       		.uleb128 0x2
 1284 0876 75       		.byte	0x75
 1285 0877 00       		.sleb128 0
 1286 0878 00       		.byte	0
 1287 0879 25       		.uleb128 0x25
 1288 087a 4A000000 		.4byte	.LVL11
ARM GAS  /tmp/ccTKskkB.s 			page 24


 1289 087e 310A0000 		.4byte	0xa31
 1290 0882 8D080000 		.4byte	0x88d
 1291 0886 26       		.uleb128 0x26
 1292 0887 01       		.uleb128 0x1
 1293 0888 50       		.byte	0x50
 1294 0889 02       		.uleb128 0x2
 1295 088a 75       		.byte	0x75
 1296 088b 00       		.sleb128 0
 1297 088c 00       		.byte	0
 1298 088d 27       		.uleb128 0x27
 1299 088e 50000000 		.4byte	.LVL12
 1300 0892 460A0000 		.4byte	0xa46
 1301 0896 25       		.uleb128 0x25
 1302 0897 64000000 		.4byte	.LVL16
 1303 089b 570A0000 		.4byte	0xa57
 1304 089f B0080000 		.4byte	0x8b0
 1305 08a3 26       		.uleb128 0x26
 1306 08a4 01       		.uleb128 0x1
 1307 08a5 52       		.byte	0x52
 1308 08a6 02       		.uleb128 0x2
 1309 08a7 91       		.byte	0x91
 1310 08a8 62       		.sleb128 -30
 1311 08a9 26       		.uleb128 0x26
 1312 08aa 01       		.uleb128 0x1
 1313 08ab 51       		.byte	0x51
 1314 08ac 02       		.uleb128 0x2
 1315 08ad 91       		.byte	0x91
 1316 08ae 6C       		.sleb128 -20
 1317 08af 00       		.byte	0
 1318 08b0 25       		.uleb128 0x25
 1319 08b1 A0000000 		.4byte	.LVL17
 1320 08b5 820A0000 		.4byte	0xa82
 1321 08b9 E0080000 		.4byte	0x8e0
 1322 08bd 26       		.uleb128 0x26
 1323 08be 01       		.uleb128 0x1
 1324 08bf 53       		.byte	0x53
 1325 08c0 02       		.uleb128 0x2
 1326 08c1 76       		.byte	0x76
 1327 08c2 00       		.sleb128 0
 1328 08c3 26       		.uleb128 0x26
 1329 08c4 01       		.uleb128 0x1
 1330 08c5 52       		.byte	0x52
 1331 08c6 02       		.uleb128 0x2
 1332 08c7 08       		.byte	0x8
 1333 08c8 2C       		.byte	0x2c
 1334 08c9 26       		.uleb128 0x26
 1335 08ca 01       		.uleb128 0x1
 1336 08cb 51       		.byte	0x51
 1337 08cc 05       		.uleb128 0x5
 1338 08cd 03       		.byte	0x3
 1339 08ce 00000000 		.4byte	.LANCHOR0
 1340 08d2 26       		.uleb128 0x26
 1341 08d3 01       		.uleb128 0x1
 1342 08d4 50       		.byte	0x50
 1343 08d5 02       		.uleb128 0x2
 1344 08d6 75       		.byte	0x75
 1345 08d7 00       		.sleb128 0
ARM GAS  /tmp/ccTKskkB.s 			page 25


 1346 08d8 26       		.uleb128 0x26
 1347 08d9 02       		.uleb128 0x2
 1348 08da 7D       		.byte	0x7d
 1349 08db 00       		.sleb128 0
 1350 08dc 02       		.uleb128 0x2
 1351 08dd 76       		.byte	0x76
 1352 08de 00       		.sleb128 0
 1353 08df 00       		.byte	0
 1354 08e0 28       		.uleb128 0x28
 1355 08e1 B4000000 		.4byte	.LVL18
 1356 08e5 820A0000 		.4byte	0xa82
 1357 08e9 26       		.uleb128 0x26
 1358 08ea 01       		.uleb128 0x1
 1359 08eb 53       		.byte	0x53
 1360 08ec 02       		.uleb128 0x2
 1361 08ed 76       		.byte	0x76
 1362 08ee 00       		.sleb128 0
 1363 08ef 26       		.uleb128 0x26
 1364 08f0 01       		.uleb128 0x1
 1365 08f1 52       		.byte	0x52
 1366 08f2 02       		.uleb128 0x2
 1367 08f3 08       		.byte	0x8
 1368 08f4 85       		.byte	0x85
 1369 08f5 26       		.uleb128 0x26
 1370 08f6 01       		.uleb128 0x1
 1371 08f7 51       		.byte	0x51
 1372 08f8 05       		.uleb128 0x5
 1373 08f9 03       		.byte	0x3
 1374 08fa 00000000 		.4byte	.LANCHOR1
 1375 08fe 26       		.uleb128 0x26
 1376 08ff 01       		.uleb128 0x1
 1377 0900 50       		.byte	0x50
 1378 0901 02       		.uleb128 0x2
 1379 0902 75       		.byte	0x75
 1380 0903 00       		.sleb128 0
 1381 0904 26       		.uleb128 0x26
 1382 0905 02       		.uleb128 0x2
 1383 0906 7D       		.byte	0x7d
 1384 0907 00       		.sleb128 0
 1385 0908 02       		.uleb128 0x2
 1386 0909 76       		.byte	0x76
 1387 090a 00       		.sleb128 0
 1388 090b 00       		.byte	0
 1389 090c 00       		.byte	0
 1390 090d 00       		.byte	0
 1391 090e 25       		.uleb128 0x25
 1392 090f 0E000000 		.4byte	.LVL2
 1393 0913 B80A0000 		.4byte	0xab8
 1394 0917 2B090000 		.4byte	0x92b
 1395 091b 26       		.uleb128 0x26
 1396 091c 01       		.uleb128 0x1
 1397 091d 52       		.byte	0x52
 1398 091e 01       		.uleb128 0x1
 1399 091f 30       		.byte	0x30
 1400 0920 26       		.uleb128 0x26
 1401 0921 01       		.uleb128 0x1
 1402 0922 51       		.byte	0x51
ARM GAS  /tmp/ccTKskkB.s 			page 26


 1403 0923 01       		.uleb128 0x1
 1404 0924 30       		.byte	0x30
 1405 0925 26       		.uleb128 0x26
 1406 0926 01       		.uleb128 0x1
 1407 0927 50       		.byte	0x50
 1408 0928 01       		.uleb128 0x1
 1409 0929 40       		.byte	0x40
 1410 092a 00       		.byte	0
 1411 092b 25       		.uleb128 0x25
 1412 092c 1C000000 		.4byte	.LVL3
 1413 0930 D70A0000 		.4byte	0xad7
 1414 0934 4A090000 		.4byte	0x94a
 1415 0938 26       		.uleb128 0x26
 1416 0939 01       		.uleb128 0x1
 1417 093a 52       		.byte	0x52
 1418 093b 02       		.uleb128 0x2
 1419 093c 08       		.byte	0x8
 1420 093d 50       		.byte	0x50
 1421 093e 26       		.uleb128 0x26
 1422 093f 01       		.uleb128 0x1
 1423 0940 51       		.byte	0x51
 1424 0941 01       		.uleb128 0x1
 1425 0942 30       		.byte	0x30
 1426 0943 26       		.uleb128 0x26
 1427 0944 01       		.uleb128 0x1
 1428 0945 50       		.byte	0x50
 1429 0946 02       		.uleb128 0x2
 1430 0947 74       		.byte	0x74
 1431 0948 00       		.sleb128 0
 1432 0949 00       		.byte	0
 1433 094a 25       		.uleb128 0x25
 1434 094b 24000000 		.4byte	.LVL4
 1435 094f FC0A0000 		.4byte	0xafc
 1436 0953 64090000 		.4byte	0x964
 1437 0957 26       		.uleb128 0x26
 1438 0958 01       		.uleb128 0x1
 1439 0959 51       		.byte	0x51
 1440 095a 02       		.uleb128 0x2
 1441 095b 09       		.byte	0x9
 1442 095c FF       		.byte	0xff
 1443 095d 26       		.uleb128 0x26
 1444 095e 01       		.uleb128 0x1
 1445 095f 50       		.byte	0x50
 1446 0960 02       		.uleb128 0x2
 1447 0961 74       		.byte	0x74
 1448 0962 00       		.sleb128 0
 1449 0963 00       		.byte	0
 1450 0964 25       		.uleb128 0x25
 1451 0965 2A000000 		.4byte	.LVL5
 1452 0969 160B0000 		.4byte	0xb16
 1453 096d 77090000 		.4byte	0x977
 1454 0971 26       		.uleb128 0x26
 1455 0972 01       		.uleb128 0x1
 1456 0973 50       		.byte	0x50
 1457 0974 01       		.uleb128 0x1
 1458 0975 34       		.byte	0x34
 1459 0976 00       		.byte	0
ARM GAS  /tmp/ccTKskkB.s 			page 27


 1460 0977 25       		.uleb128 0x25
 1461 0978 32000000 		.4byte	.LVL6
 1462 097c 2C0B0000 		.4byte	0xb2c
 1463 0980 91090000 		.4byte	0x991
 1464 0984 26       		.uleb128 0x26
 1465 0985 01       		.uleb128 0x1
 1466 0986 51       		.byte	0x51
 1467 0987 02       		.uleb128 0x2
 1468 0988 91       		.byte	0x91
 1469 0989 64       		.sleb128 -28
 1470 098a 26       		.uleb128 0x26
 1471 098b 01       		.uleb128 0x1
 1472 098c 50       		.byte	0x50
 1473 098d 02       		.uleb128 0x2
 1474 098e 74       		.byte	0x74
 1475 098f 00       		.sleb128 0
 1476 0990 00       		.byte	0
 1477 0991 27       		.uleb128 0x27
 1478 0992 56000000 		.4byte	.LVL13
 1479 0996 4C0B0000 		.4byte	0xb4c
 1480 099a 27       		.uleb128 0x27
 1481 099b BA000000 		.4byte	.LVL20
 1482 099f 610B0000 		.4byte	0xb61
 1483 09a3 00       		.byte	0
 1484 09a4 29       		.uleb128 0x29
 1485 09a5 93040000 		.4byte	0x493
 1486 09a9 B4090000 		.4byte	0x9b4
 1487 09ad 2A       		.uleb128 0x2a
 1488 09ae 73030000 		.4byte	0x373
 1489 09b2 2C       		.byte	0x2c
 1490 09b3 00       		.byte	0
 1491 09b4 1E       		.uleb128 0x1e
 1492 09b5 CB030000 		.4byte	.LASF135
 1493 09b9 01       		.byte	0x1
 1494 09ba 27       		.byte	0x27
 1495 09bb C5090000 		.4byte	0x9c5
 1496 09bf 05       		.uleb128 0x5
 1497 09c0 03       		.byte	0x3
 1498 09c1 00000000 		.4byte	http_html_hdr
 1499 09c5 10       		.uleb128 0x10
 1500 09c6 A4090000 		.4byte	0x9a4
 1501 09ca 29       		.uleb128 0x29
 1502 09cb 93040000 		.4byte	0x493
 1503 09cf DA090000 		.4byte	0x9da
 1504 09d3 2A       		.uleb128 0x2a
 1505 09d4 73030000 		.4byte	0x373
 1506 09d8 85       		.byte	0x85
 1507 09d9 00       		.byte	0
 1508 09da 1E       		.uleb128 0x1e
 1509 09db A5040000 		.4byte	.LASF136
 1510 09df 01       		.byte	0x1
 1511 09e0 28       		.byte	0x28
 1512 09e1 EB090000 		.4byte	0x9eb
 1513 09e5 05       		.uleb128 0x5
 1514 09e6 03       		.byte	0x3
 1515 09e7 00000000 		.4byte	http_index_html
 1516 09eb 10       		.uleb128 0x10
ARM GAS  /tmp/ccTKskkB.s 			page 28


 1517 09ec CA090000 		.4byte	0x9ca
 1518 09f0 29       		.uleb128 0x29
 1519 09f1 CB020000 		.4byte	0x2cb
 1520 09f5 000A0000 		.4byte	0xa00
 1521 09f9 2A       		.uleb128 0x2a
 1522 09fa 73030000 		.4byte	0x373
 1523 09fe 99       		.byte	0x99
 1524 09ff 00       		.byte	0
 1525 0a00 2B       		.uleb128 0x2b
 1526 0a01 56040000 		.4byte	.LASF152
 1527 0a05 01       		.byte	0x1
 1528 0a06 55       		.byte	0x55
 1529 0a07 F0090000 		.4byte	0x9f0
 1530 0a0b 05       		.uleb128 0x5
 1531 0a0c 03       		.byte	0x3
 1532 0a0d 00000000 		.4byte	wa_http_server
 1533 0a11 2C       		.uleb128 0x2c
 1534 0a12 78040000 		.4byte	.LASF137
 1535 0a16 12       		.byte	0x12
 1536 0a17 E8       		.byte	0xe8
 1537 0a18 CC040000 		.4byte	0x4cc
 1538 0a1c 2B0A0000 		.4byte	0xa2b
 1539 0a20 14       		.uleb128 0x14
 1540 0a21 6D060000 		.4byte	0x66d
 1541 0a25 14       		.uleb128 0x14
 1542 0a26 2B0A0000 		.4byte	0xa2b
 1543 0a2a 00       		.byte	0
 1544 0a2b 09       		.uleb128 0x9
 1545 0a2c 04       		.byte	0x4
 1546 0a2d BF070000 		.4byte	0x7bf
 1547 0a31 2C       		.uleb128 0x2c
 1548 0a32 B4030000 		.4byte	.LASF138
 1549 0a36 12       		.byte	0x12
 1550 0a37 F2       		.byte	0xf2
 1551 0a38 CC040000 		.4byte	0x4cc
 1552 0a3c 460A0000 		.4byte	0xa46
 1553 0a40 14       		.uleb128 0x14
 1554 0a41 6D060000 		.4byte	0x66d
 1555 0a45 00       		.byte	0
 1556 0a46 2D       		.uleb128 0x2d
 1557 0a47 97010000 		.4byte	.LASF153
 1558 0a4b 10       		.byte	0x10
 1559 0a4c 41       		.byte	0x41
 1560 0a4d 570A0000 		.4byte	0xa57
 1561 0a51 14       		.uleb128 0x14
 1562 0a52 BF070000 		.4byte	0x7bf
 1563 0a56 00       		.byte	0
 1564 0a57 2C       		.uleb128 0x2c
 1565 0a58 C8020000 		.4byte	.LASF139
 1566 0a5c 10       		.byte	0x10
 1567 0a5d 49       		.byte	0x49
 1568 0a5e CC040000 		.4byte	0x4cc
 1569 0a62 760A0000 		.4byte	0xa76
 1570 0a66 14       		.uleb128 0x14
 1571 0a67 BF070000 		.4byte	0x7bf
 1572 0a6b 14       		.uleb128 0x14
 1573 0a6c 760A0000 		.4byte	0xa76
ARM GAS  /tmp/ccTKskkB.s 			page 29


 1574 0a70 14       		.uleb128 0x14
 1575 0a71 7C0A0000 		.4byte	0xa7c
 1576 0a75 00       		.byte	0
 1577 0a76 09       		.uleb128 0x9
 1578 0a77 04       		.byte	0x4
 1579 0a78 C9020000 		.4byte	0x2c9
 1580 0a7c 09       		.uleb128 0x9
 1581 0a7d 04       		.byte	0x4
 1582 0a7e B6040000 		.4byte	0x4b6
 1583 0a82 2C       		.uleb128 0x2c
 1584 0a83 F0020000 		.4byte	.LASF140
 1585 0a87 12       		.byte	0x12
 1586 0a88 EE       		.byte	0xee
 1587 0a89 CC040000 		.4byte	0x4cc
 1588 0a8d AB0A0000 		.4byte	0xaab
 1589 0a91 14       		.uleb128 0x14
 1590 0a92 6D060000 		.4byte	0x66d
 1591 0a96 14       		.uleb128 0x14
 1592 0a97 AB0A0000 		.4byte	0xaab
 1593 0a9b 14       		.uleb128 0x14
 1594 0a9c 2C000000 		.4byte	0x2c
 1595 0aa0 14       		.uleb128 0x14
 1596 0aa1 A0040000 		.4byte	0x4a0
 1597 0aa5 14       		.uleb128 0x14
 1598 0aa6 B20A0000 		.4byte	0xab2
 1599 0aaa 00       		.byte	0
 1600 0aab 09       		.uleb128 0x9
 1601 0aac 04       		.byte	0x4
 1602 0aad B10A0000 		.4byte	0xab1
 1603 0ab1 2E       		.uleb128 0x2e
 1604 0ab2 09       		.uleb128 0x9
 1605 0ab3 04       		.byte	0x4
 1606 0ab4 2C000000 		.4byte	0x2c
 1607 0ab8 2C       		.uleb128 0x2c
 1608 0ab9 1A010000 		.4byte	.LASF141
 1609 0abd 12       		.byte	0x12
 1610 0abe D7       		.byte	0xd7
 1611 0abf 6D060000 		.4byte	0x66d
 1612 0ac3 D70A0000 		.4byte	0xad7
 1613 0ac7 14       		.uleb128 0x14
 1614 0ac8 BF050000 		.4byte	0x5bf
 1615 0acc 14       		.uleb128 0x14
 1616 0acd A0040000 		.4byte	0x4a0
 1617 0ad1 14       		.uleb128 0x14
 1618 0ad2 47060000 		.4byte	0x647
 1619 0ad6 00       		.byte	0
 1620 0ad7 2C       		.uleb128 0x2c
 1621 0ad8 D0040000 		.4byte	.LASF142
 1622 0adc 12       		.byte	0x12
 1623 0add E2       		.byte	0xe2
 1624 0ade CC040000 		.4byte	0x4cc
 1625 0ae2 F60A0000 		.4byte	0xaf6
 1626 0ae6 14       		.uleb128 0x14
 1627 0ae7 6D060000 		.4byte	0x66d
 1628 0aeb 14       		.uleb128 0x14
 1629 0aec F60A0000 		.4byte	0xaf6
 1630 0af0 14       		.uleb128 0x14
ARM GAS  /tmp/ccTKskkB.s 			page 30


 1631 0af1 B6040000 		.4byte	0x4b6
 1632 0af5 00       		.byte	0
 1633 0af6 09       		.uleb128 0x9
 1634 0af7 04       		.byte	0x4
 1635 0af8 57050000 		.4byte	0x557
 1636 0afc 2C       		.uleb128 0x2c
 1637 0afd E3050000 		.4byte	.LASF143
 1638 0b01 12       		.byte	0x12
 1639 0b02 E5       		.byte	0xe5
 1640 0b03 CC040000 		.4byte	0x4cc
 1641 0b07 160B0000 		.4byte	0xb16
 1642 0b0b 14       		.uleb128 0x14
 1643 0b0c 6D060000 		.4byte	0x66d
 1644 0b10 14       		.uleb128 0x14
 1645 0b11 A0040000 		.4byte	0x4a0
 1646 0b15 00       		.byte	0
 1647 0b16 2F       		.uleb128 0x2f
 1648 0b17 01070000 		.4byte	.LASF144
 1649 0b1b 07       		.byte	0x7
 1650 0b1c 7201     		.2byte	0x172
 1651 0b1e 2D010000 		.4byte	0x12d
 1652 0b22 2C0B0000 		.4byte	0xb2c
 1653 0b26 14       		.uleb128 0x14
 1654 0b27 2D010000 		.4byte	0x12d
 1655 0b2b 00       		.byte	0
 1656 0b2c 2C       		.uleb128 0x2c
 1657 0b2d 4B030000 		.4byte	.LASF145
 1658 0b31 12       		.byte	0x12
 1659 0b32 E7       		.byte	0xe7
 1660 0b33 CC040000 		.4byte	0x4cc
 1661 0b37 460B0000 		.4byte	0xb46
 1662 0b3b 14       		.uleb128 0x14
 1663 0b3c 6D060000 		.4byte	0x66d
 1664 0b40 14       		.uleb128 0x14
 1665 0b41 460B0000 		.4byte	0xb46
 1666 0b45 00       		.byte	0
 1667 0b46 09       		.uleb128 0x9
 1668 0b47 04       		.byte	0x4
 1669 0b48 6D060000 		.4byte	0x66d
 1670 0b4c 2C       		.uleb128 0x2c
 1671 0b4d 0B010000 		.4byte	.LASF146
 1672 0b51 12       		.byte	0x12
 1673 0b52 D9       		.byte	0xd9
 1674 0b53 CC040000 		.4byte	0x4cc
 1675 0b57 610B0000 		.4byte	0xb61
 1676 0b5b 14       		.uleb128 0x14
 1677 0b5c 6D060000 		.4byte	0x66d
 1678 0b60 00       		.byte	0
 1679 0b61 30       		.uleb128 0x30
 1680 0b62 61060000 		.4byte	.LASF154
 1681 0b66 08       		.byte	0x8
 1682 0b67 0102     		.2byte	0x201
 1683 0b69 00       		.byte	0
 1684              		.section	.debug_abbrev,"",%progbits
 1685              	.Ldebug_abbrev0:
 1686 0000 01       		.uleb128 0x1
 1687 0001 11       		.uleb128 0x11
ARM GAS  /tmp/ccTKskkB.s 			page 31


 1688 0002 01       		.byte	0x1
 1689 0003 25       		.uleb128 0x25
 1690 0004 0E       		.uleb128 0xe
 1691 0005 13       		.uleb128 0x13
 1692 0006 0B       		.uleb128 0xb
 1693 0007 03       		.uleb128 0x3
 1694 0008 0E       		.uleb128 0xe
 1695 0009 1B       		.uleb128 0x1b
 1696 000a 0E       		.uleb128 0xe
 1697 000b 55       		.uleb128 0x55
 1698 000c 17       		.uleb128 0x17
 1699 000d 11       		.uleb128 0x11
 1700 000e 01       		.uleb128 0x1
 1701 000f 10       		.uleb128 0x10
 1702 0010 17       		.uleb128 0x17
 1703 0011 00       		.byte	0
 1704 0012 00       		.byte	0
 1705 0013 02       		.uleb128 0x2
 1706 0014 24       		.uleb128 0x24
 1707 0015 00       		.byte	0
 1708 0016 0B       		.uleb128 0xb
 1709 0017 0B       		.uleb128 0xb
 1710 0018 3E       		.uleb128 0x3e
 1711 0019 0B       		.uleb128 0xb
 1712 001a 03       		.uleb128 0x3
 1713 001b 08       		.uleb128 0x8
 1714 001c 00       		.byte	0
 1715 001d 00       		.byte	0
 1716 001e 03       		.uleb128 0x3
 1717 001f 16       		.uleb128 0x16
 1718 0020 00       		.byte	0
 1719 0021 03       		.uleb128 0x3
 1720 0022 0E       		.uleb128 0xe
 1721 0023 3A       		.uleb128 0x3a
 1722 0024 0B       		.uleb128 0xb
 1723 0025 3B       		.uleb128 0x3b
 1724 0026 0B       		.uleb128 0xb
 1725 0027 49       		.uleb128 0x49
 1726 0028 13       		.uleb128 0x13
 1727 0029 00       		.byte	0
 1728 002a 00       		.byte	0
 1729 002b 04       		.uleb128 0x4
 1730 002c 24       		.uleb128 0x24
 1731 002d 00       		.byte	0
 1732 002e 0B       		.uleb128 0xb
 1733 002f 0B       		.uleb128 0xb
 1734 0030 3E       		.uleb128 0x3e
 1735 0031 0B       		.uleb128 0xb
 1736 0032 03       		.uleb128 0x3
 1737 0033 0E       		.uleb128 0xe
 1738 0034 00       		.byte	0
 1739 0035 00       		.byte	0
 1740 0036 05       		.uleb128 0x5
 1741 0037 13       		.uleb128 0x13
 1742 0038 01       		.byte	0x1
 1743 0039 03       		.uleb128 0x3
 1744 003a 0E       		.uleb128 0xe
ARM GAS  /tmp/ccTKskkB.s 			page 32


 1745 003b 0B       		.uleb128 0xb
 1746 003c 0B       		.uleb128 0xb
 1747 003d 3A       		.uleb128 0x3a
 1748 003e 0B       		.uleb128 0xb
 1749 003f 3B       		.uleb128 0x3b
 1750 0040 0B       		.uleb128 0xb
 1751 0041 01       		.uleb128 0x1
 1752 0042 13       		.uleb128 0x13
 1753 0043 00       		.byte	0
 1754 0044 00       		.byte	0
 1755 0045 06       		.uleb128 0x6
 1756 0046 0D       		.uleb128 0xd
 1757 0047 00       		.byte	0
 1758 0048 03       		.uleb128 0x3
 1759 0049 0E       		.uleb128 0xe
 1760 004a 3A       		.uleb128 0x3a
 1761 004b 0B       		.uleb128 0xb
 1762 004c 3B       		.uleb128 0x3b
 1763 004d 0B       		.uleb128 0xb
 1764 004e 49       		.uleb128 0x49
 1765 004f 13       		.uleb128 0x13
 1766 0050 38       		.uleb128 0x38
 1767 0051 0B       		.uleb128 0xb
 1768 0052 00       		.byte	0
 1769 0053 00       		.byte	0
 1770 0054 07       		.uleb128 0x7
 1771 0055 0D       		.uleb128 0xd
 1772 0056 00       		.byte	0
 1773 0057 03       		.uleb128 0x3
 1774 0058 08       		.uleb128 0x8
 1775 0059 3A       		.uleb128 0x3a
 1776 005a 0B       		.uleb128 0xb
 1777 005b 3B       		.uleb128 0x3b
 1778 005c 0B       		.uleb128 0xb
 1779 005d 49       		.uleb128 0x49
 1780 005e 13       		.uleb128 0x13
 1781 005f 38       		.uleb128 0x38
 1782 0060 0B       		.uleb128 0xb
 1783 0061 00       		.byte	0
 1784 0062 00       		.byte	0
 1785 0063 08       		.uleb128 0x8
 1786 0064 13       		.uleb128 0x13
 1787 0065 01       		.byte	0x1
 1788 0066 0B       		.uleb128 0xb
 1789 0067 0B       		.uleb128 0xb
 1790 0068 3A       		.uleb128 0x3a
 1791 0069 0B       		.uleb128 0xb
 1792 006a 3B       		.uleb128 0x3b
 1793 006b 0B       		.uleb128 0xb
 1794 006c 01       		.uleb128 0x1
 1795 006d 13       		.uleb128 0x13
 1796 006e 00       		.byte	0
 1797 006f 00       		.byte	0
 1798 0070 09       		.uleb128 0x9
 1799 0071 0F       		.uleb128 0xf
 1800 0072 00       		.byte	0
 1801 0073 0B       		.uleb128 0xb
ARM GAS  /tmp/ccTKskkB.s 			page 33


 1802 0074 0B       		.uleb128 0xb
 1803 0075 49       		.uleb128 0x49
 1804 0076 13       		.uleb128 0x13
 1805 0077 00       		.byte	0
 1806 0078 00       		.byte	0
 1807 0079 0A       		.uleb128 0xa
 1808 007a 0F       		.uleb128 0xf
 1809 007b 00       		.byte	0
 1810 007c 0B       		.uleb128 0xb
 1811 007d 0B       		.uleb128 0xb
 1812 007e 00       		.byte	0
 1813 007f 00       		.byte	0
 1814 0080 0B       		.uleb128 0xb
 1815 0081 13       		.uleb128 0x13
 1816 0082 01       		.byte	0x1
 1817 0083 03       		.uleb128 0x3
 1818 0084 0E       		.uleb128 0xe
 1819 0085 0B       		.uleb128 0xb
 1820 0086 0B       		.uleb128 0xb
 1821 0087 3A       		.uleb128 0x3a
 1822 0088 0B       		.uleb128 0xb
 1823 0089 3B       		.uleb128 0x3b
 1824 008a 05       		.uleb128 0x5
 1825 008b 01       		.uleb128 0x1
 1826 008c 13       		.uleb128 0x13
 1827 008d 00       		.byte	0
 1828 008e 00       		.byte	0
 1829 008f 0C       		.uleb128 0xc
 1830 0090 0D       		.uleb128 0xd
 1831 0091 00       		.byte	0
 1832 0092 03       		.uleb128 0x3
 1833 0093 08       		.uleb128 0x8
 1834 0094 3A       		.uleb128 0x3a
 1835 0095 0B       		.uleb128 0xb
 1836 0096 3B       		.uleb128 0x3b
 1837 0097 05       		.uleb128 0x5
 1838 0098 49       		.uleb128 0x49
 1839 0099 13       		.uleb128 0x13
 1840 009a 38       		.uleb128 0x38
 1841 009b 0B       		.uleb128 0xb
 1842 009c 00       		.byte	0
 1843 009d 00       		.byte	0
 1844 009e 0D       		.uleb128 0xd
 1845 009f 35       		.uleb128 0x35
 1846 00a0 00       		.byte	0
 1847 00a1 49       		.uleb128 0x49
 1848 00a2 13       		.uleb128 0x13
 1849 00a3 00       		.byte	0
 1850 00a4 00       		.byte	0
 1851 00a5 0E       		.uleb128 0xe
 1852 00a6 17       		.uleb128 0x17
 1853 00a7 01       		.byte	0x1
 1854 00a8 0B       		.uleb128 0xb
 1855 00a9 0B       		.uleb128 0xb
 1856 00aa 3A       		.uleb128 0x3a
 1857 00ab 0B       		.uleb128 0xb
 1858 00ac 3B       		.uleb128 0x3b
ARM GAS  /tmp/ccTKskkB.s 			page 34


 1859 00ad 0B       		.uleb128 0xb
 1860 00ae 01       		.uleb128 0x1
 1861 00af 13       		.uleb128 0x13
 1862 00b0 00       		.byte	0
 1863 00b1 00       		.byte	0
 1864 00b2 0F       		.uleb128 0xf
 1865 00b3 0D       		.uleb128 0xd
 1866 00b4 00       		.byte	0
 1867 00b5 03       		.uleb128 0x3
 1868 00b6 0E       		.uleb128 0xe
 1869 00b7 3A       		.uleb128 0x3a
 1870 00b8 0B       		.uleb128 0xb
 1871 00b9 3B       		.uleb128 0x3b
 1872 00ba 0B       		.uleb128 0xb
 1873 00bb 49       		.uleb128 0x49
 1874 00bc 13       		.uleb128 0x13
 1875 00bd 00       		.byte	0
 1876 00be 00       		.byte	0
 1877 00bf 10       		.uleb128 0x10
 1878 00c0 26       		.uleb128 0x26
 1879 00c1 00       		.byte	0
 1880 00c2 49       		.uleb128 0x49
 1881 00c3 13       		.uleb128 0x13
 1882 00c4 00       		.byte	0
 1883 00c5 00       		.byte	0
 1884 00c6 11       		.uleb128 0x11
 1885 00c7 04       		.uleb128 0x4
 1886 00c8 01       		.byte	0x1
 1887 00c9 03       		.uleb128 0x3
 1888 00ca 0E       		.uleb128 0xe
 1889 00cb 0B       		.uleb128 0xb
 1890 00cc 0B       		.uleb128 0xb
 1891 00cd 3A       		.uleb128 0x3a
 1892 00ce 0B       		.uleb128 0xb
 1893 00cf 3B       		.uleb128 0x3b
 1894 00d0 0B       		.uleb128 0xb
 1895 00d1 01       		.uleb128 0x1
 1896 00d2 13       		.uleb128 0x13
 1897 00d3 00       		.byte	0
 1898 00d4 00       		.byte	0
 1899 00d5 12       		.uleb128 0x12
 1900 00d6 28       		.uleb128 0x28
 1901 00d7 00       		.byte	0
 1902 00d8 03       		.uleb128 0x3
 1903 00d9 0E       		.uleb128 0xe
 1904 00da 1C       		.uleb128 0x1c
 1905 00db 0D       		.uleb128 0xd
 1906 00dc 00       		.byte	0
 1907 00dd 00       		.byte	0
 1908 00de 13       		.uleb128 0x13
 1909 00df 15       		.uleb128 0x15
 1910 00e0 01       		.byte	0x1
 1911 00e1 27       		.uleb128 0x27
 1912 00e2 19       		.uleb128 0x19
 1913 00e3 01       		.uleb128 0x1
 1914 00e4 13       		.uleb128 0x13
 1915 00e5 00       		.byte	0
ARM GAS  /tmp/ccTKskkB.s 			page 35


 1916 00e6 00       		.byte	0
 1917 00e7 14       		.uleb128 0x14
 1918 00e8 05       		.uleb128 0x5
 1919 00e9 00       		.byte	0
 1920 00ea 49       		.uleb128 0x49
 1921 00eb 13       		.uleb128 0x13
 1922 00ec 00       		.byte	0
 1923 00ed 00       		.byte	0
 1924 00ee 15       		.uleb128 0x15
 1925 00ef 0D       		.uleb128 0xd
 1926 00f0 00       		.byte	0
 1927 00f1 03       		.uleb128 0x3
 1928 00f2 08       		.uleb128 0x8
 1929 00f3 3A       		.uleb128 0x3a
 1930 00f4 0B       		.uleb128 0xb
 1931 00f5 3B       		.uleb128 0x3b
 1932 00f6 0B       		.uleb128 0xb
 1933 00f7 49       		.uleb128 0x49
 1934 00f8 13       		.uleb128 0x13
 1935 00f9 00       		.byte	0
 1936 00fa 00       		.byte	0
 1937 00fb 16       		.uleb128 0x16
 1938 00fc 13       		.uleb128 0x13
 1939 00fd 00       		.byte	0
 1940 00fe 03       		.uleb128 0x3
 1941 00ff 0E       		.uleb128 0xe
 1942 0100 3C       		.uleb128 0x3c
 1943 0101 19       		.uleb128 0x19
 1944 0102 00       		.byte	0
 1945 0103 00       		.byte	0
 1946 0104 17       		.uleb128 0x17
 1947 0105 2E       		.uleb128 0x2e
 1948 0106 01       		.byte	0x1
 1949 0107 03       		.uleb128 0x3
 1950 0108 0E       		.uleb128 0xe
 1951 0109 3A       		.uleb128 0x3a
 1952 010a 0B       		.uleb128 0xb
 1953 010b 3B       		.uleb128 0x3b
 1954 010c 0B       		.uleb128 0xb
 1955 010d 27       		.uleb128 0x27
 1956 010e 19       		.uleb128 0x19
 1957 010f 20       		.uleb128 0x20
 1958 0110 0B       		.uleb128 0xb
 1959 0111 01       		.uleb128 0x1
 1960 0112 13       		.uleb128 0x13
 1961 0113 00       		.byte	0
 1962 0114 00       		.byte	0
 1963 0115 18       		.uleb128 0x18
 1964 0116 05       		.uleb128 0x5
 1965 0117 00       		.byte	0
 1966 0118 03       		.uleb128 0x3
 1967 0119 0E       		.uleb128 0xe
 1968 011a 3A       		.uleb128 0x3a
 1969 011b 0B       		.uleb128 0xb
 1970 011c 3B       		.uleb128 0x3b
 1971 011d 0B       		.uleb128 0xb
 1972 011e 49       		.uleb128 0x49
ARM GAS  /tmp/ccTKskkB.s 			page 36


 1973 011f 13       		.uleb128 0x13
 1974 0120 00       		.byte	0
 1975 0121 00       		.byte	0
 1976 0122 19       		.uleb128 0x19
 1977 0123 34       		.uleb128 0x34
 1978 0124 00       		.byte	0
 1979 0125 03       		.uleb128 0x3
 1980 0126 0E       		.uleb128 0xe
 1981 0127 3A       		.uleb128 0x3a
 1982 0128 0B       		.uleb128 0xb
 1983 0129 3B       		.uleb128 0x3b
 1984 012a 0B       		.uleb128 0xb
 1985 012b 49       		.uleb128 0x49
 1986 012c 13       		.uleb128 0x13
 1987 012d 00       		.byte	0
 1988 012e 00       		.byte	0
 1989 012f 1A       		.uleb128 0x1a
 1990 0130 34       		.uleb128 0x34
 1991 0131 00       		.byte	0
 1992 0132 03       		.uleb128 0x3
 1993 0133 08       		.uleb128 0x8
 1994 0134 3A       		.uleb128 0x3a
 1995 0135 0B       		.uleb128 0xb
 1996 0136 3B       		.uleb128 0x3b
 1997 0137 0B       		.uleb128 0xb
 1998 0138 49       		.uleb128 0x49
 1999 0139 13       		.uleb128 0x13
 2000 013a 00       		.byte	0
 2001 013b 00       		.byte	0
 2002 013c 1B       		.uleb128 0x1b
 2003 013d 2E       		.uleb128 0x2e
 2004 013e 01       		.byte	0x1
 2005 013f 3F       		.uleb128 0x3f
 2006 0140 19       		.uleb128 0x19
 2007 0141 03       		.uleb128 0x3
 2008 0142 0E       		.uleb128 0xe
 2009 0143 3A       		.uleb128 0x3a
 2010 0144 0B       		.uleb128 0xb
 2011 0145 3B       		.uleb128 0x3b
 2012 0146 0B       		.uleb128 0xb
 2013 0147 27       		.uleb128 0x27
 2014 0148 19       		.uleb128 0x19
 2015 0149 49       		.uleb128 0x49
 2016 014a 13       		.uleb128 0x13
 2017 014b 11       		.uleb128 0x11
 2018 014c 01       		.uleb128 0x1
 2019 014d 12       		.uleb128 0x12
 2020 014e 06       		.uleb128 0x6
 2021 014f 40       		.uleb128 0x40
 2022 0150 18       		.uleb128 0x18
 2023 0151 9742     		.uleb128 0x2117
 2024 0153 19       		.uleb128 0x19
 2025 0154 01       		.uleb128 0x1
 2026 0155 13       		.uleb128 0x13
 2027 0156 00       		.byte	0
 2028 0157 00       		.byte	0
 2029 0158 1C       		.uleb128 0x1c
ARM GAS  /tmp/ccTKskkB.s 			page 37


 2030 0159 05       		.uleb128 0x5
 2031 015a 00       		.byte	0
 2032 015b 03       		.uleb128 0x3
 2033 015c 08       		.uleb128 0x8
 2034 015d 3A       		.uleb128 0x3a
 2035 015e 0B       		.uleb128 0xb
 2036 015f 3B       		.uleb128 0x3b
 2037 0160 0B       		.uleb128 0xb
 2038 0161 49       		.uleb128 0x49
 2039 0162 13       		.uleb128 0x13
 2040 0163 02       		.uleb128 0x2
 2041 0164 17       		.uleb128 0x17
 2042 0165 00       		.byte	0
 2043 0166 00       		.byte	0
 2044 0167 1D       		.uleb128 0x1d
 2045 0168 34       		.uleb128 0x34
 2046 0169 00       		.byte	0
 2047 016a 03       		.uleb128 0x3
 2048 016b 0E       		.uleb128 0xe
 2049 016c 3A       		.uleb128 0x3a
 2050 016d 0B       		.uleb128 0xb
 2051 016e 3B       		.uleb128 0x3b
 2052 016f 0B       		.uleb128 0xb
 2053 0170 49       		.uleb128 0x49
 2054 0171 13       		.uleb128 0x13
 2055 0172 02       		.uleb128 0x2
 2056 0173 17       		.uleb128 0x17
 2057 0174 00       		.byte	0
 2058 0175 00       		.byte	0
 2059 0176 1E       		.uleb128 0x1e
 2060 0177 34       		.uleb128 0x34
 2061 0178 00       		.byte	0
 2062 0179 03       		.uleb128 0x3
 2063 017a 0E       		.uleb128 0xe
 2064 017b 3A       		.uleb128 0x3a
 2065 017c 0B       		.uleb128 0xb
 2066 017d 3B       		.uleb128 0x3b
 2067 017e 0B       		.uleb128 0xb
 2068 017f 49       		.uleb128 0x49
 2069 0180 13       		.uleb128 0x13
 2070 0181 02       		.uleb128 0x2
 2071 0182 18       		.uleb128 0x18
 2072 0183 00       		.byte	0
 2073 0184 00       		.byte	0
 2074 0185 1F       		.uleb128 0x1f
 2075 0186 34       		.uleb128 0x34
 2076 0187 00       		.byte	0
 2077 0188 03       		.uleb128 0x3
 2078 0189 08       		.uleb128 0x8
 2079 018a 3A       		.uleb128 0x3a
 2080 018b 0B       		.uleb128 0xb
 2081 018c 3B       		.uleb128 0x3b
 2082 018d 0B       		.uleb128 0xb
 2083 018e 49       		.uleb128 0x49
 2084 018f 13       		.uleb128 0x13
 2085 0190 02       		.uleb128 0x2
 2086 0191 17       		.uleb128 0x17
ARM GAS  /tmp/ccTKskkB.s 			page 38


 2087 0192 00       		.byte	0
 2088 0193 00       		.byte	0
 2089 0194 20       		.uleb128 0x20
 2090 0195 1D       		.uleb128 0x1d
 2091 0196 01       		.byte	0x1
 2092 0197 31       		.uleb128 0x31
 2093 0198 13       		.uleb128 0x13
 2094 0199 52       		.uleb128 0x52
 2095 019a 01       		.uleb128 0x1
 2096 019b 55       		.uleb128 0x55
 2097 019c 17       		.uleb128 0x17
 2098 019d 58       		.uleb128 0x58
 2099 019e 0B       		.uleb128 0xb
 2100 019f 59       		.uleb128 0x59
 2101 01a0 0B       		.uleb128 0xb
 2102 01a1 01       		.uleb128 0x1
 2103 01a2 13       		.uleb128 0x13
 2104 01a3 00       		.byte	0
 2105 01a4 00       		.byte	0
 2106 01a5 21       		.uleb128 0x21
 2107 01a6 05       		.uleb128 0x5
 2108 01a7 00       		.byte	0
 2109 01a8 31       		.uleb128 0x31
 2110 01a9 13       		.uleb128 0x13
 2111 01aa 02       		.uleb128 0x2
 2112 01ab 17       		.uleb128 0x17
 2113 01ac 00       		.byte	0
 2114 01ad 00       		.byte	0
 2115 01ae 22       		.uleb128 0x22
 2116 01af 0B       		.uleb128 0xb
 2117 01b0 01       		.byte	0x1
 2118 01b1 55       		.uleb128 0x55
 2119 01b2 17       		.uleb128 0x17
 2120 01b3 00       		.byte	0
 2121 01b4 00       		.byte	0
 2122 01b5 23       		.uleb128 0x23
 2123 01b6 34       		.uleb128 0x34
 2124 01b7 00       		.byte	0
 2125 01b8 31       		.uleb128 0x31
 2126 01b9 13       		.uleb128 0x13
 2127 01ba 02       		.uleb128 0x2
 2128 01bb 18       		.uleb128 0x18
 2129 01bc 00       		.byte	0
 2130 01bd 00       		.byte	0
 2131 01be 24       		.uleb128 0x24
 2132 01bf 34       		.uleb128 0x34
 2133 01c0 00       		.byte	0
 2134 01c1 31       		.uleb128 0x31
 2135 01c2 13       		.uleb128 0x13
 2136 01c3 02       		.uleb128 0x2
 2137 01c4 17       		.uleb128 0x17
 2138 01c5 00       		.byte	0
 2139 01c6 00       		.byte	0
 2140 01c7 25       		.uleb128 0x25
 2141 01c8 898201   		.uleb128 0x4109
 2142 01cb 01       		.byte	0x1
 2143 01cc 11       		.uleb128 0x11
ARM GAS  /tmp/ccTKskkB.s 			page 39


 2144 01cd 01       		.uleb128 0x1
 2145 01ce 31       		.uleb128 0x31
 2146 01cf 13       		.uleb128 0x13
 2147 01d0 01       		.uleb128 0x1
 2148 01d1 13       		.uleb128 0x13
 2149 01d2 00       		.byte	0
 2150 01d3 00       		.byte	0
 2151 01d4 26       		.uleb128 0x26
 2152 01d5 8A8201   		.uleb128 0x410a
 2153 01d8 00       		.byte	0
 2154 01d9 02       		.uleb128 0x2
 2155 01da 18       		.uleb128 0x18
 2156 01db 9142     		.uleb128 0x2111
 2157 01dd 18       		.uleb128 0x18
 2158 01de 00       		.byte	0
 2159 01df 00       		.byte	0
 2160 01e0 27       		.uleb128 0x27
 2161 01e1 898201   		.uleb128 0x4109
 2162 01e4 00       		.byte	0
 2163 01e5 11       		.uleb128 0x11
 2164 01e6 01       		.uleb128 0x1
 2165 01e7 31       		.uleb128 0x31
 2166 01e8 13       		.uleb128 0x13
 2167 01e9 00       		.byte	0
 2168 01ea 00       		.byte	0
 2169 01eb 28       		.uleb128 0x28
 2170 01ec 898201   		.uleb128 0x4109
 2171 01ef 01       		.byte	0x1
 2172 01f0 11       		.uleb128 0x11
 2173 01f1 01       		.uleb128 0x1
 2174 01f2 31       		.uleb128 0x31
 2175 01f3 13       		.uleb128 0x13
 2176 01f4 00       		.byte	0
 2177 01f5 00       		.byte	0
 2178 01f6 29       		.uleb128 0x29
 2179 01f7 01       		.uleb128 0x1
 2180 01f8 01       		.byte	0x1
 2181 01f9 49       		.uleb128 0x49
 2182 01fa 13       		.uleb128 0x13
 2183 01fb 01       		.uleb128 0x1
 2184 01fc 13       		.uleb128 0x13
 2185 01fd 00       		.byte	0
 2186 01fe 00       		.byte	0
 2187 01ff 2A       		.uleb128 0x2a
 2188 0200 21       		.uleb128 0x21
 2189 0201 00       		.byte	0
 2190 0202 49       		.uleb128 0x49
 2191 0203 13       		.uleb128 0x13
 2192 0204 2F       		.uleb128 0x2f
 2193 0205 0B       		.uleb128 0xb
 2194 0206 00       		.byte	0
 2195 0207 00       		.byte	0
 2196 0208 2B       		.uleb128 0x2b
 2197 0209 34       		.uleb128 0x34
 2198 020a 00       		.byte	0
 2199 020b 03       		.uleb128 0x3
 2200 020c 0E       		.uleb128 0xe
ARM GAS  /tmp/ccTKskkB.s 			page 40


 2201 020d 3A       		.uleb128 0x3a
 2202 020e 0B       		.uleb128 0xb
 2203 020f 3B       		.uleb128 0x3b
 2204 0210 0B       		.uleb128 0xb
 2205 0211 49       		.uleb128 0x49
 2206 0212 13       		.uleb128 0x13
 2207 0213 3F       		.uleb128 0x3f
 2208 0214 19       		.uleb128 0x19
 2209 0215 02       		.uleb128 0x2
 2210 0216 18       		.uleb128 0x18
 2211 0217 00       		.byte	0
 2212 0218 00       		.byte	0
 2213 0219 2C       		.uleb128 0x2c
 2214 021a 2E       		.uleb128 0x2e
 2215 021b 01       		.byte	0x1
 2216 021c 3F       		.uleb128 0x3f
 2217 021d 19       		.uleb128 0x19
 2218 021e 03       		.uleb128 0x3
 2219 021f 0E       		.uleb128 0xe
 2220 0220 3A       		.uleb128 0x3a
 2221 0221 0B       		.uleb128 0xb
 2222 0222 3B       		.uleb128 0x3b
 2223 0223 0B       		.uleb128 0xb
 2224 0224 27       		.uleb128 0x27
 2225 0225 19       		.uleb128 0x19
 2226 0226 49       		.uleb128 0x49
 2227 0227 13       		.uleb128 0x13
 2228 0228 3C       		.uleb128 0x3c
 2229 0229 19       		.uleb128 0x19
 2230 022a 01       		.uleb128 0x1
 2231 022b 13       		.uleb128 0x13
 2232 022c 00       		.byte	0
 2233 022d 00       		.byte	0
 2234 022e 2D       		.uleb128 0x2d
 2235 022f 2E       		.uleb128 0x2e
 2236 0230 01       		.byte	0x1
 2237 0231 3F       		.uleb128 0x3f
 2238 0232 19       		.uleb128 0x19
 2239 0233 03       		.uleb128 0x3
 2240 0234 0E       		.uleb128 0xe
 2241 0235 3A       		.uleb128 0x3a
 2242 0236 0B       		.uleb128 0xb
 2243 0237 3B       		.uleb128 0x3b
 2244 0238 0B       		.uleb128 0xb
 2245 0239 27       		.uleb128 0x27
 2246 023a 19       		.uleb128 0x19
 2247 023b 3C       		.uleb128 0x3c
 2248 023c 19       		.uleb128 0x19
 2249 023d 01       		.uleb128 0x1
 2250 023e 13       		.uleb128 0x13
 2251 023f 00       		.byte	0
 2252 0240 00       		.byte	0
 2253 0241 2E       		.uleb128 0x2e
 2254 0242 26       		.uleb128 0x26
 2255 0243 00       		.byte	0
 2256 0244 00       		.byte	0
 2257 0245 00       		.byte	0
ARM GAS  /tmp/ccTKskkB.s 			page 41


 2258 0246 2F       		.uleb128 0x2f
 2259 0247 2E       		.uleb128 0x2e
 2260 0248 01       		.byte	0x1
 2261 0249 3F       		.uleb128 0x3f
 2262 024a 19       		.uleb128 0x19
 2263 024b 03       		.uleb128 0x3
 2264 024c 0E       		.uleb128 0xe
 2265 024d 3A       		.uleb128 0x3a
 2266 024e 0B       		.uleb128 0xb
 2267 024f 3B       		.uleb128 0x3b
 2268 0250 05       		.uleb128 0x5
 2269 0251 27       		.uleb128 0x27
 2270 0252 19       		.uleb128 0x19
 2271 0253 49       		.uleb128 0x49
 2272 0254 13       		.uleb128 0x13
 2273 0255 3C       		.uleb128 0x3c
 2274 0256 19       		.uleb128 0x19
 2275 0257 01       		.uleb128 0x1
 2276 0258 13       		.uleb128 0x13
 2277 0259 00       		.byte	0
 2278 025a 00       		.byte	0
 2279 025b 30       		.uleb128 0x30
 2280 025c 2E       		.uleb128 0x2e
 2281 025d 00       		.byte	0
 2282 025e 3F       		.uleb128 0x3f
 2283 025f 19       		.uleb128 0x19
 2284 0260 03       		.uleb128 0x3
 2285 0261 0E       		.uleb128 0xe
 2286 0262 3A       		.uleb128 0x3a
 2287 0263 0B       		.uleb128 0xb
 2288 0264 3B       		.uleb128 0x3b
 2289 0265 05       		.uleb128 0x5
 2290 0266 27       		.uleb128 0x27
 2291 0267 19       		.uleb128 0x19
 2292 0268 3C       		.uleb128 0x3c
 2293 0269 19       		.uleb128 0x19
 2294 026a 00       		.byte	0
 2295 026b 00       		.byte	0
 2296 026c 00       		.byte	0
 2297              		.section	.debug_loc,"",%progbits
 2298              	.Ldebug_loc0:
 2299              	.LLST0:
 2300 0000 00000000 		.4byte	.LVL0
 2301 0004 0A000000 		.4byte	.LVL1
 2302 0008 0100     		.2byte	0x1
 2303 000a 50       		.byte	0x50
 2304 000b 0A000000 		.4byte	.LVL1
 2305 000f C2000000 		.4byte	.LFE8
 2306 0013 0400     		.2byte	0x4
 2307 0015 F3       		.byte	0xf3
 2308 0016 01       		.uleb128 0x1
 2309 0017 50       		.byte	0x50
 2310 0018 9F       		.byte	0x9f
 2311 0019 00000000 		.4byte	0
 2312 001d 00000000 		.4byte	0
 2313              	.LLST1:
 2314 0021 0E000000 		.4byte	.LVL2
ARM GAS  /tmp/ccTKskkB.s 			page 42


 2315 0025 1B000000 		.4byte	.LVL3-1
 2316 0029 0100     		.2byte	0x1
 2317 002b 50       		.byte	0x50
 2318 002c 1B000000 		.4byte	.LVL3-1
 2319 0030 B6000000 		.4byte	.LVL19
 2320 0034 0100     		.2byte	0x1
 2321 0036 54       		.byte	0x54
 2322 0037 B6000000 		.4byte	.LVL19
 2323 003b B9000000 		.4byte	.LVL20-1
 2324 003f 0100     		.2byte	0x1
 2325 0041 50       		.byte	0x50
 2326 0042 B9000000 		.4byte	.LVL20-1
 2327 0046 C2000000 		.4byte	.LFE8
 2328 004a 0100     		.2byte	0x1
 2329 004c 54       		.byte	0x54
 2330 004d 00000000 		.4byte	0
 2331 0051 00000000 		.4byte	0
 2332              	.LLST2:
 2333 0055 32000000 		.4byte	.LVL6
 2334 0059 3C000000 		.4byte	.LVL8
 2335 005d 0100     		.2byte	0x1
 2336 005f 50       		.byte	0x50
 2337 0060 00000000 		.4byte	0
 2338 0064 00000000 		.4byte	0
 2339              	.LLST3:
 2340 0068 38000000 		.4byte	.LVL7
 2341 006c B6000000 		.4byte	.LVL19
 2342 0070 0100     		.2byte	0x1
 2343 0072 55       		.byte	0x55
 2344 0073 00000000 		.4byte	0
 2345 0077 00000000 		.4byte	0
 2346              	.LLST4:
 2347 007b 40000000 		.4byte	.LVL9
 2348 007f 44000000 		.4byte	.LVL10
 2349 0083 0100     		.2byte	0x1
 2350 0085 50       		.byte	0x50
 2351 0086 58000000 		.4byte	.LVL14
 2352 008a 5A000000 		.4byte	.LVL15
 2353 008e 0100     		.2byte	0x1
 2354 0090 50       		.byte	0x50
 2355 0091 00000000 		.4byte	0
 2356 0095 00000000 		.4byte	0
 2357              		.section	.debug_aranges,"",%progbits
 2358 0000 1C000000 		.4byte	0x1c
 2359 0004 0200     		.2byte	0x2
 2360 0006 00000000 		.4byte	.Ldebug_info0
 2361 000a 04       		.byte	0x4
 2362 000b 00       		.byte	0
 2363 000c 0000     		.2byte	0
 2364 000e 0000     		.2byte	0
 2365 0010 00000000 		.4byte	.LFB8
 2366 0014 C2000000 		.4byte	.LFE8-.LFB8
 2367 0018 00000000 		.4byte	0
 2368 001c 00000000 		.4byte	0
 2369              		.section	.debug_ranges,"",%progbits
 2370              	.Ldebug_ranges0:
 2371 0000 38000000 		.4byte	.LBB4
ARM GAS  /tmp/ccTKskkB.s 			page 43


 2372 0004 50000000 		.4byte	.LBE4
 2373 0008 58000000 		.4byte	.LBB7
 2374 000c B6000000 		.4byte	.LBE7
 2375 0010 00000000 		.4byte	0
 2376 0014 00000000 		.4byte	0
 2377 0018 00000000 		.4byte	.LFB8
 2378 001c C2000000 		.4byte	.LFE8
 2379 0020 00000000 		.4byte	0
 2380 0024 00000000 		.4byte	0
 2381              		.section	.debug_line,"",%progbits
 2382              	.Ldebug_line0:
 2383 0000 2F020000 		.section	.debug_str,"MS",%progbits,1
 2383      0200E801 
 2383      00000201 
 2383      FB0E0D00 
 2383      01010101 
 2384              	.LASF53:
 2385 0000 54687265 		.ascii	"ThreadsList\000"
 2385      6164734C 
 2385      69737400 
 2386              	.LASF45:
 2387 000c 705F7761 		.ascii	"p_waiting\000"
 2387      6974696E 
 2387      6700
 2388              	.LASF128:
 2389 0016 7564705F 		.ascii	"udp_pcb\000"
 2389      70636200 
 2390              	.LASF95:
 2391 001e 7379735F 		.ascii	"sys_mbox_t\000"
 2391      6D626F78 
 2391      5F7400
 2392              	.LASF44:
 2393 0029 705F7469 		.ascii	"p_time\000"
 2393      6D6500
 2394              	.LASF149:
 2395 0030 2F686F6D 		.ascii	"/home/caroline/Documents/PAF/ChibiOS_2.6.4/demos/AR"
 2395      652F6361 
 2395      726F6C69 
 2395      6E652F44 
 2395      6F63756D 
 2396 0063 4D434D34 		.ascii	"MCM4-STM32F407-LWIP\000"
 2396      2D53544D 
 2396      33324634 
 2396      30372D4C 
 2396      57495000 
 2397              	.LASF35:
 2398 0077 705F7072 		.ascii	"p_prio\000"
 2398      696F00
 2399              	.LASF88:
 2400 007e 666C6167 		.ascii	"flags\000"
 2400      7300
 2401              	.LASF30:
 2402 0084 73797374 		.ascii	"systime_t\000"
 2402      696D655F 
 2402      7400
 2403              	.LASF64:
 2404 008e 6D5F6F77 		.ascii	"m_owner\000"
ARM GAS  /tmp/ccTKskkB.s 			page 44


 2404      6E657200 
 2405              	.LASF60:
 2406 0096 735F7175 		.ascii	"s_queue\000"
 2406      65756500 
 2407              	.LASF120:
 2408 009e 72656376 		.ascii	"recvmbox\000"
 2408      6D626F78 
 2408      00
 2409              	.LASF129:
 2410 00a7 7261775F 		.ascii	"raw_pcb\000"
 2410      70636200 
 2411              	.LASF46:
 2412 00af 705F6D73 		.ascii	"p_msgqueue\000"
 2412      67717565 
 2412      756500
 2413              	.LASF0:
 2414 00ba 756E7369 		.ascii	"unsigned int\000"
 2414      676E6564 
 2414      20696E74 
 2414      00
 2415              	.LASF105:
 2416 00c7 4E455443 		.ascii	"NETCONN_WRITE\000"
 2416      4F4E4E5F 
 2416      57524954 
 2416      4500
 2417              	.LASF84:
 2418 00d5 6E657874 		.ascii	"next\000"
 2418      00
 2419              	.LASF100:
 2420 00da 4E455443 		.ascii	"NETCONN_UDPNOCHKSUM\000"
 2420      4F4E4E5F 
 2420      5544504E 
 2420      4F43484B 
 2420      53554D00 
 2421              	.LASF82:
 2422 00ee 6572725F 		.ascii	"err_t\000"
 2422      7400
 2423              	.LASF9:
 2424 00f4 5F5F696E 		.ascii	"__int32_t\000"
 2424      7433325F 
 2424      7400
 2425              	.LASF80:
 2426 00fe 7531365F 		.ascii	"u16_t\000"
 2426      7400
 2427              	.LASF75:
 2428 0104 77746F62 		.ascii	"wtobjp\000"
 2428      6A7000
 2429              	.LASF146:
 2430 010b 6E657463 		.ascii	"netconn_delete\000"
 2430      6F6E6E5F 
 2430      64656C65 
 2430      746500
 2431              	.LASF141:
 2432 011a 6E657463 		.ascii	"netconn_new_with_proto_and_callback\000"
 2432      6F6E6E5F 
 2432      6E65775F 
 2432      77697468 
ARM GAS  /tmp/ccTKskkB.s 			page 45


 2432      5F70726F 
 2433              	.LASF76:
 2434 013e 65776D61 		.ascii	"ewmask\000"
 2434      736B00
 2435              	.LASF72:
 2436 0145 4D61696C 		.ascii	"Mailbox\000"
 2436      626F7800 
 2437              	.LASF103:
 2438 014d 6E657463 		.ascii	"netconn_state\000"
 2438      6F6E6E5F 
 2438      73746174 
 2438      6500
 2439              	.LASF61:
 2440 015b 735F636E 		.ascii	"s_cnt\000"
 2440      7400
 2441              	.LASF20:
 2442 0161 75696E74 		.ascii	"uint32_t\000"
 2442      33325F74 
 2442      00
 2443              	.LASF16:
 2444 016a 696E7438 		.ascii	"int8_t\000"
 2444      5F7400
 2445              	.LASF29:
 2446 0171 6576656E 		.ascii	"eventmask_t\000"
 2446      746D6173 
 2446      6B5F7400 
 2447              	.LASF114:
 2448 017d 4E455443 		.ascii	"NETCONN_EVT_ERROR\000"
 2448      4F4E4E5F 
 2448      4556545F 
 2448      4552524F 
 2448      5200
 2449              	.LASF27:
 2450 018f 74707269 		.ascii	"tprio_t\000"
 2450      6F5F7400 
 2451              	.LASF153:
 2452 0197 6E657462 		.ascii	"netbuf_delete\000"
 2452      75665F64 
 2452      656C6574 
 2452      6500
 2453              	.LASF15:
 2454 01a5 6C6F6E67 		.ascii	"long long unsigned int\000"
 2454      206C6F6E 
 2454      6720756E 
 2454      7369676E 
 2454      65642069 
 2455              	.LASF96:
 2456 01bc 4E455443 		.ascii	"NETCONN_INVALID\000"
 2456      4F4E4E5F 
 2456      494E5641 
 2456      4C494400 
 2457              	.LASF7:
 2458 01cc 5F5F7569 		.ascii	"__uint16_t\000"
 2458      6E743136 
 2458      5F7400
 2459              	.LASF31:
 2460 01d7 636E745F 		.ascii	"cnt_t\000"
ARM GAS  /tmp/ccTKskkB.s 			page 46


 2460      7400
 2461              	.LASF37:
 2462 01dd 705F6E65 		.ascii	"p_newer\000"
 2462      77657200 
 2463              	.LASF110:
 2464 01e5 4E455443 		.ascii	"NETCONN_EVT_RCVPLUS\000"
 2464      4F4E4E5F 
 2464      4556545F 
 2464      52435650 
 2464      4C555300 
 2465              	.LASF98:
 2466 01f9 4E455443 		.ascii	"NETCONN_UDP\000"
 2466      4F4E4E5F 
 2466      55445000 
 2467              	.LASF86:
 2468 0205 746F745F 		.ascii	"tot_len\000"
 2468      6C656E00 
 2469              	.LASF1:
 2470 020d 73697A65 		.ascii	"size_t\000"
 2470      5F7400
 2471              	.LASF73:
 2472 0214 7264796D 		.ascii	"rdymsg\000"
 2472      736700
 2473              	.LASF85:
 2474 021b 7061796C 		.ascii	"payload\000"
 2474      6F616400 
 2475              	.LASF22:
 2476 0223 5F426F6F 		.ascii	"_Bool\000"
 2476      6C00
 2477              	.LASF69:
 2478 0229 6D625F72 		.ascii	"mb_rdptr\000"
 2478      64707472 
 2478      00
 2479              	.LASF133:
 2480 0232 636F6E6E 		.ascii	"conn\000"
 2480      00
 2481              	.LASF94:
 2482 0237 7379735F 		.ascii	"sys_sem_t\000"
 2482      73656D5F 
 2482      7400
 2483              	.LASF118:
 2484 0241 6C617374 		.ascii	"last_err\000"
 2484      5F657272 
 2484      00
 2485              	.LASF14:
 2486 024a 5F5F7569 		.ascii	"__uint64_t\000"
 2486      6E743634 
 2486      5F7400
 2487              	.LASF79:
 2488 0255 73385F74 		.ascii	"s8_t\000"
 2488      00
 2489              	.LASF62:
 2490 025a 4D757465 		.ascii	"Mutex\000"
 2490      7800
 2491              	.LASF71:
 2492 0260 6D625F65 		.ascii	"mb_emptysem\000"
 2492      6D707479 
ARM GAS  /tmp/ccTKskkB.s 			page 47


 2492      73656D00 
 2493              	.LASF112:
 2494 026c 4E455443 		.ascii	"NETCONN_EVT_SENDPLUS\000"
 2494      4F4E4E5F 
 2494      4556545F 
 2494      53454E44 
 2494      504C5553 
 2495              	.LASF130:
 2496 0281 6170695F 		.ascii	"api_msg_msg\000"
 2496      6D73675F 
 2496      6D736700 
 2497              	.LASF150:
 2498 028d 68747470 		.ascii	"http_server_serve\000"
 2498      5F736572 
 2498      7665725F 
 2498      73657276 
 2498      6500
 2499              	.LASF111:
 2500 029f 4E455443 		.ascii	"NETCONN_EVT_RCVMINUS\000"
 2500      4F4E4E5F 
 2500      4556545F 
 2500      5243564D 
 2500      494E5553 
 2501              	.LASF39:
 2502 02b4 705F6E61 		.ascii	"p_name\000"
 2502      6D6500
 2503              	.LASF52:
 2504 02bb 54687265 		.ascii	"ThreadsQueue\000"
 2504      61647351 
 2504      75657565 
 2504      00
 2505              	.LASF139:
 2506 02c8 6E657462 		.ascii	"netbuf_data\000"
 2506      75665F64 
 2506      61746100 
 2507              	.LASF77:
 2508 02d4 63686172 		.ascii	"char\000"
 2508      00
 2509              	.LASF32:
 2510 02d9 54687265 		.ascii	"Thread\000"
 2510      616400
 2511              	.LASF24:
 2512 02e0 74737461 		.ascii	"tstate_t\000"
 2512      74655F74 
 2512      00
 2513              	.LASF132:
 2514 02e9 6275666C 		.ascii	"buflen\000"
 2514      656E00
 2515              	.LASF140:
 2516 02f0 6E657463 		.ascii	"netconn_write_partly\000"
 2516      6F6E6E5F 
 2516      77726974 
 2516      655F7061 
 2516      72746C79 
 2517              	.LASF38:
 2518 0305 705F6F6C 		.ascii	"p_older\000"
 2518      64657200 
ARM GAS  /tmp/ccTKskkB.s 			page 48


 2519              	.LASF40:
 2520 030d 705F7374 		.ascii	"p_state\000"
 2520      61746500 
 2521              	.LASF17:
 2522 0315 75696E74 		.ascii	"uint8_t\000"
 2522      385F7400 
 2523              	.LASF70:
 2524 031d 6D625F66 		.ascii	"mb_fullsem\000"
 2524      756C6C73 
 2524      656D00
 2525              	.LASF51:
 2526 0328 705F6D70 		.ascii	"p_mpool\000"
 2526      6F6F6C00 
 2527              	.LASF131:
 2528 0330 696E6275 		.ascii	"inbuf\000"
 2528      6600
 2529              	.LASF49:
 2530 0336 705F6D74 		.ascii	"p_mtxlist\000"
 2530      786C6973 
 2530      7400
 2531              	.LASF121:
 2532 0340 61636365 		.ascii	"acceptmbox\000"
 2532      70746D62 
 2532      6F7800
 2533              	.LASF145:
 2534 034b 6E657463 		.ascii	"netconn_accept\000"
 2534      6F6E6E5F 
 2534      61636365 
 2534      707400
 2535              	.LASF54:
 2536 035a 72656761 		.ascii	"regarm_t\000"
 2536      726D5F74 
 2536      00
 2537              	.LASF13:
 2538 0363 6C6F6E67 		.ascii	"long long int\000"
 2538      206C6F6E 
 2538      6720696E 
 2538      7400
 2539              	.LASF28:
 2540 0371 6D73675F 		.ascii	"msg_t\000"
 2540      7400
 2541              	.LASF57:
 2542 0377 636F6E74 		.ascii	"context\000"
 2542      65787400 
 2543              	.LASF78:
 2544 037f 75385F74 		.ascii	"u8_t\000"
 2544      00
 2545              	.LASF41:
 2546 0384 705F666C 		.ascii	"p_flags\000"
 2546      61677300 
 2547              	.LASF67:
 2548 038c 6D625F74 		.ascii	"mb_top\000"
 2548      6F7000
 2549              	.LASF26:
 2550 0393 74736C69 		.ascii	"tslices_t\000"
 2550      6365735F 
 2550      7400
ARM GAS  /tmp/ccTKskkB.s 			page 49


 2551              	.LASF47:
 2552 039d 705F6D73 		.ascii	"p_msg\000"
 2552      6700
 2553              	.LASF2:
 2554 03a3 5F5F696E 		.ascii	"__int8_t\000"
 2554      74385F74 
 2554      00
 2555              	.LASF23:
 2556 03ac 746D6F64 		.ascii	"tmode_t\000"
 2556      655F7400 
 2557              	.LASF138:
 2558 03b4 6E657463 		.ascii	"netconn_close\000"
 2558      6F6E6E5F 
 2558      636C6F73 
 2558      6500
 2559              	.LASF18:
 2560 03c2 75696E74 		.ascii	"uint16_t\000"
 2560      31365F74 
 2560      00
 2561              	.LASF135:
 2562 03cb 68747470 		.ascii	"http_html_hdr\000"
 2562      5F68746D 
 2562      6C5F6864 
 2562      7200
 2563              	.LASF104:
 2564 03d9 4E455443 		.ascii	"NETCONN_NONE\000"
 2564      4F4E4E5F 
 2564      4E4F4E45 
 2564      00
 2565              	.LASF56:
 2566 03e6 696E7463 		.ascii	"intctx\000"
 2566      747800
 2567              	.LASF102:
 2568 03ed 6E657463 		.ascii	"netconn_type\000"
 2568      6F6E6E5F 
 2568      74797065 
 2568      00
 2569              	.LASF107:
 2570 03fa 4E455443 		.ascii	"NETCONN_CONNECT\000"
 2570      4F4E4E5F 
 2570      434F4E4E 
 2570      45435400 
 2571              	.LASF151:
 2572 040a 68747470 		.ascii	"http_server\000"
 2572      5F736572 
 2572      76657200 
 2573              	.LASF50:
 2574 0416 705F7265 		.ascii	"p_realprio\000"
 2574      616C7072 
 2574      696F00
 2575              	.LASF81:
 2576 0421 7533325F 		.ascii	"u32_t\000"
 2576      7400
 2577              	.LASF6:
 2578 0427 73686F72 		.ascii	"short int\000"
 2578      7420696E 
 2578      7400
ARM GAS  /tmp/ccTKskkB.s 			page 50


 2579              	.LASF68:
 2580 0431 6D625F77 		.ascii	"mb_wrptr\000"
 2580      72707472 
 2580      00
 2581              	.LASF48:
 2582 043a 705F6570 		.ascii	"p_epending\000"
 2582      656E6469 
 2582      6E6700
 2583              	.LASF63:
 2584 0445 6D5F7175 		.ascii	"m_queue\000"
 2584      65756500 
 2585              	.LASF10:
 2586 044d 6C6F6E67 		.ascii	"long int\000"
 2586      20696E74 
 2586      00
 2587              	.LASF152:
 2588 0456 77615F68 		.ascii	"wa_http_server\000"
 2588      7474705F 
 2588      73657276 
 2588      657200
 2589              	.LASF124:
 2590 0465 63757272 		.ascii	"current_msg\000"
 2590      656E745F 
 2590      6D736700 
 2591              	.LASF33:
 2592 0471 705F6E65 		.ascii	"p_next\000"
 2592      787400
 2593              	.LASF137:
 2594 0478 6E657463 		.ascii	"netconn_recv\000"
 2594      6F6E6E5F 
 2594      72656376 
 2594      00
 2595              	.LASF21:
 2596 0485 75696E74 		.ascii	"uint64_t\000"
 2596      36345F74 
 2596      00
 2597              	.LASF36:
 2598 048e 705F6374 		.ascii	"p_ctx\000"
 2598      7800
 2599              	.LASF122:
 2600 0494 736F636B 		.ascii	"socket\000"
 2600      657400
 2601              	.LASF4:
 2602 049b 5F5F7569 		.ascii	"__uint8_t\000"
 2602      6E74385F 
 2602      7400
 2603              	.LASF136:
 2604 04a5 68747470 		.ascii	"http_index_html\000"
 2604      5F696E64 
 2604      65785F68 
 2604      746D6C00 
 2605              	.LASF59:
 2606 04b5 53656D61 		.ascii	"Semaphore\000"
 2606      70686F72 
 2606      6500
 2607              	.LASF92:
 2608 04bf 6E657462 		.ascii	"netbuf\000"
ARM GAS  /tmp/ccTKskkB.s 			page 51


 2608      756600
 2609              	.LASF148:
 2610 04c6 7765622F 		.ascii	"web/web.c\000"
 2610      7765622E 
 2610      6300
 2611              	.LASF142:
 2612 04d0 6E657463 		.ascii	"netconn_bind\000"
 2612      6F6E6E5F 
 2612      62696E64 
 2612      00
 2613              	.LASF34:
 2614 04dd 705F7072 		.ascii	"p_prev\000"
 2614      657600
 2615              	.LASF58:
 2616 04e4 73697A65 		.ascii	"sizetype\000"
 2616      74797065 
 2616      00
 2617              	.LASF25:
 2618 04ed 74726566 		.ascii	"trefs_t\000"
 2618      735F7400 
 2619              	.LASF12:
 2620 04f5 6C6F6E67 		.ascii	"long unsigned int\000"
 2620      20756E73 
 2620      69676E65 
 2620      6420696E 
 2620      7400
 2621              	.LASF147:
 2622 0507 474E5520 		.ascii	"GNU C 4.8.2 -mcpu=cortex-m4 -mno-thumb-interwork -m"
 2622      4320342E 
 2622      382E3220 
 2622      2D6D6370 
 2622      753D636F 
 2623 053a 7468756D 		.ascii	"thumb -ggdb -O2 -std=gnu99 -fomit-frame-pointer -fa"
 2623      62202D67 
 2623      67646220 
 2623      2D4F3220 
 2623      2D737464 
 2624 056d 6C69676E 		.ascii	"lign-functions=16 -ffunction-sections -fdata-sectio"
 2624      2D66756E 
 2624      6374696F 
 2624      6E733D31 
 2624      36202D66 
 2625 05a0 6E73202D 		.ascii	"ns -fno-common\000"
 2625      666E6F2D 
 2625      636F6D6D 
 2625      6F6E00
 2626              	.LASF66:
 2627 05af 6D625F62 		.ascii	"mb_buffer\000"
 2627      75666665 
 2627      7200
 2628              	.LASF19:
 2629 05b9 696E7433 		.ascii	"int32_t\000"
 2629      325F7400 
 2630              	.LASF93:
 2631 05c1 706F7274 		.ascii	"port\000"
 2631      00
 2632              	.LASF109:
ARM GAS  /tmp/ccTKskkB.s 			page 52


 2633 05c6 6E657463 		.ascii	"netconn_evt\000"
 2633      6F6E6E5F 
 2633      65767400 
 2634              	.LASF115:
 2635 05d2 6E657463 		.ascii	"netconn_callback\000"
 2635      6F6E6E5F 
 2635      63616C6C 
 2635      6261636B 
 2635      00
 2636              	.LASF143:
 2637 05e3 6E657463 		.ascii	"netconn_listen_with_backlog\000"
 2637      6F6E6E5F 
 2637      6C697374 
 2637      656E5F77 
 2637      6974685F 
 2638              	.LASF87:
 2639 05ff 74797065 		.ascii	"type\000"
 2639      00
 2640              	.LASF5:
 2641 0604 756E7369 		.ascii	"unsigned char\000"
 2641      676E6564 
 2641      20636861 
 2641      7200
 2642              	.LASF11:
 2643 0612 5F5F7569 		.ascii	"__uint32_t\000"
 2643      6E743332 
 2643      5F7400
 2644              	.LASF42:
 2645 061d 705F7265 		.ascii	"p_refs\000"
 2645      667300
 2646              	.LASF113:
 2647 0624 4E455443 		.ascii	"NETCONN_EVT_SENDMINUS\000"
 2647      4F4E4E5F 
 2647      4556545F 
 2647      53454E44 
 2647      4D494E55 
 2648              	.LASF126:
 2649 063a 69705F70 		.ascii	"ip_pcb\000"
 2649      636200
 2650              	.LASF97:
 2651 0641 4E455443 		.ascii	"NETCONN_TCP\000"
 2651      4F4E4E5F 
 2651      54435000 
 2652              	.LASF83:
 2653 064d 70627566 		.ascii	"pbuf\000"
 2653      00
 2654              	.LASF106:
 2655 0652 4E455443 		.ascii	"NETCONN_LISTEN\000"
 2655      4F4E4E5F 
 2655      4C495354 
 2655      454E00
 2656              	.LASF154:
 2657 0661 706F7274 		.ascii	"port_halt\000"
 2657      5F68616C 
 2657      7400
 2658              	.LASF43:
 2659 066b 705F7072 		.ascii	"p_preempt\000"
ARM GAS  /tmp/ccTKskkB.s 			page 53


 2659      65656D70 
 2659      7400
 2660              	.LASF123:
 2661 0675 77726974 		.ascii	"write_offset\000"
 2661      655F6F66 
 2661      66736574 
 2661      00
 2662              	.LASF90:
 2663 0682 61646472 		.ascii	"addr\000"
 2663      00
 2664              	.LASF117:
 2665 0687 73746174 		.ascii	"state\000"
 2665      6500
 2666              	.LASF125:
 2667 068d 63616C6C 		.ascii	"callback\000"
 2667      6261636B 
 2667      00
 2668              	.LASF108:
 2669 0696 4E455443 		.ascii	"NETCONN_CLOSE\000"
 2669      4F4E4E5F 
 2669      434C4F53 
 2669      4500
 2670              	.LASF65:
 2671 06a4 6D5F6E65 		.ascii	"m_next\000"
 2671      787400
 2672              	.LASF134:
 2673 06ab 6E657763 		.ascii	"newconn\000"
 2673      6F6E6E00 
 2674              	.LASF3:
 2675 06b3 7369676E 		.ascii	"signed char\000"
 2675      65642063 
 2675      68617200 
 2676              	.LASF127:
 2677 06bf 7463705F 		.ascii	"tcp_pcb\000"
 2677      70636200 
 2678              	.LASF8:
 2679 06c7 73686F72 		.ascii	"short unsigned int\000"
 2679      7420756E 
 2679      7369676E 
 2679      65642069 
 2679      6E7400
 2680              	.LASF55:
 2681 06da 73746B61 		.ascii	"stkalign_t\000"
 2681      6C69676E 
 2681      5F7400
 2682              	.LASF101:
 2683 06e5 4E455443 		.ascii	"NETCONN_RAW\000"
 2683      4F4E4E5F 
 2683      52415700 
 2684              	.LASF99:
 2685 06f1 4E455443 		.ascii	"NETCONN_UDPLITE\000"
 2685      4F4E4E5F 
 2685      5544504C 
 2685      49544500 
 2686              	.LASF144:
 2687 0701 63685468 		.ascii	"chThdSetPriority\000"
 2687      64536574 
ARM GAS  /tmp/ccTKskkB.s 			page 54


 2687      5072696F 
 2687      72697479 
 2687      00
 2688              	.LASF119:
 2689 0712 6F705F63 		.ascii	"op_completed\000"
 2689      6F6D706C 
 2689      65746564 
 2689      00
 2690              	.LASF91:
 2691 071f 69705F61 		.ascii	"ip_addr_t\000"
 2691      6464725F 
 2691      7400
 2692              	.LASF116:
 2693 0729 6E657463 		.ascii	"netconn\000"
 2693      6F6E6E00 
 2694              	.LASF74:
 2695 0731 65786974 		.ascii	"exitcode\000"
 2695      636F6465 
 2695      00
 2696              	.LASF89:
 2697 073a 69705F61 		.ascii	"ip_addr\000"
 2697      64647200 
 2698              		.ident	"GCC: (4.8.2-14ubuntu1+6) 4.8.2"
ARM GAS  /tmp/ccTKskkB.s 			page 55


DEFINED SYMBOLS
                            *ABS*:0000000000000000 web.c
     /tmp/ccTKskkB.s:19     .text.http_server:0000000000000000 $t
     /tmp/ccTKskkB.s:25     .text.http_server:0000000000000000 http_server
     /tmp/ccTKskkB.s:197    .rodata.http_html_hdr:0000000000000000 .LANCHOR0
     /tmp/ccTKskkB.s:182    .rodata.http_index_html:0000000000000000 .LANCHOR1
     /tmp/ccTKskkB.s:193    .bss.wa_http_server:0000000000000000 wa_http_server
     /tmp/ccTKskkB.s:181    .rodata.http_index_html:0000000000000000 $d
     /tmp/ccTKskkB.s:185    .rodata.http_index_html:0000000000000000 http_index_html
     /tmp/ccTKskkB.s:190    .bss.wa_http_server:0000000000000000 $d
     /tmp/ccTKskkB.s:196    .rodata.http_html_hdr:0000000000000000 $d
     /tmp/ccTKskkB.s:200    .rodata.http_html_hdr:0000000000000000 http_html_hdr
                     .debug_frame:0000000000000010 $d

UNDEFINED SYMBOLS
netconn_new_with_proto_and_callback
netconn_bind
netconn_listen_with_backlog
chThdSetPriority
netconn_accept
netconn_recv
netconn_close
netbuf_delete
netconn_delete
netbuf_data
netconn_write_partly
port_halt
