ARM GAS  /tmp/ccTKskkB.s 			page 1


   1              		.syntax unified
   2              		.cpu cortex-m4
   3              		.fpu softvfp
   4              		.eabi_attribute 20, 1
   5              		.eabi_attribute 21, 1
   6              		.eabi_attribute 23, 3
   7              		.eabi_attribute 24, 1
   8              		.eabi_attribute 25, 1
   9              		.eabi_attribute 26, 1
  10              		.eabi_attribute 30, 2
  11              		.eabi_attribute 34, 1
  12              		.eabi_attribute 18, 4
  13              		.thumb
  14              		.file	"web.c"
  15              		.text
  16              	.Ltext0:
  17              		.cfi_sections	.debug_frame
  18              		.section	.text.http_server,"ax",%progbits
  19              		.align	2
  20              		.p2align 4,,15
  21              		.global	http_server
  22              		.thumb
  23              		.thumb_func
  24              		.type	http_server, %function
  25              	http_server:
  26              	.LFB8:
  27              		.file 1 "web/web.c"
  28              		.loc 1 90 0
  29              		.cfi_startproc
  30              		@ args = 0, pretend = 0, frame = 16
  31              		@ frame_needed = 0, uses_anonymous_args = 0
  32              	.LVL0:
  33 0000 70B5     		push	{r4, r5, r6, lr}
  34              		.cfi_def_cfa_offset 16
  35              		.cfi_offset 4, -16
  36              		.cfi_offset 5, -12
  37              		.cfi_offset 6, -8
  38              		.cfi_offset 14, -4
  39              		.loc 1 97 0
  40 0002 0021     		movs	r1, #0
  41              		.loc 1 90 0
  42 0004 86B0     		sub	sp, sp, #24
  43              		.cfi_def_cfa_offset 40
  44              		.loc 1 97 0
  45 0006 0A46     		mov	r2, r1
  46 0008 1020     		movs	r0, #16
  47              	.LVL1:
  48 000a FFF7FEFF 		bl	netconn_new_with_proto_and_callback
  49              	.LVL2:
  50              		.loc 1 98 0
  51 000e 0446     		mov	r4, r0
  52 0010 0028     		cmp	r0, #0
  53 0012 50D0     		beq	.L10
  54              		.loc 1 101 0
  55 0014 0021     		movs	r1, #0
  56 0016 5022     		movs	r2, #80
  57 0018 FFF7FEFF 		bl	netconn_bind
ARM GAS  /tmp/ccTKskkB.s 			page 2


  58              	.LVL3:
  59              		.loc 1 104 0
  60 001c 2046     		mov	r0, r4
  61 001e FF21     		movs	r1, #255
  62 0020 FFF7FEFF 		bl	netconn_listen_with_backlog
  63              	.LVL4:
  64              		.loc 1 107 0
  65 0024 0420     		movs	r0, #4
  66 0026 FFF7FEFF 		bl	chThdSetPriority
  67              	.LVL5:
  68              	.L4:
  69              		.loc 1 110 0
  70 002a 2046     		mov	r0, r4
  71 002c 03A9     		add	r1, sp, #12
  72 002e FFF7FEFF 		bl	netconn_accept
  73              	.LVL6:
  74              		.loc 1 111 0
  75 0032 0028     		cmp	r0, #0
  76 0034 F9D1     		bne	.L4
  77              		.loc 1 113 0
  78 0036 039D     		ldr	r5, [sp, #12]
  79              	.LVL7:
  80              	.LBB4:
  81              	.LBB5:
  82              		.loc 1 50 0
  83 0038 04A9     		add	r1, sp, #16
  84 003a 2846     		mov	r0, r5
  85              	.LVL8:
  86 003c FFF7FEFF 		bl	netconn_recv
  87              	.LVL9:
  88              		.loc 1 52 0
  89 0040 0646     		mov	r6, r0
  90 0042 48B1     		cbz	r0, .L12
  91              	.LVL10:
  92              	.L6:
  93              		.loc 1 75 0
  94 0044 2846     		mov	r0, r5
  95 0046 FFF7FEFF 		bl	netconn_close
  96              	.LVL11:
  97              		.loc 1 79 0
  98 004a 0498     		ldr	r0, [sp, #16]
  99 004c FFF7FEFF 		bl	netbuf_delete
 100              	.LVL12:
 101              	.LBE5:
 102              	.LBE4:
 103              		.loc 1 114 0
 104 0050 0398     		ldr	r0, [sp, #12]
 105 0052 FFF7FEFF 		bl	netconn_delete
 106              	.LVL13:
 107 0056 E8E7     		b	.L4
 108              	.LVL14:
 109              	.L12:
 110              	.LBB7:
 111              	.LBB6:
 112              		.loc 1 53 0
 113 0058 0498     		ldr	r0, [sp, #16]
 114              	.LVL15:
ARM GAS  /tmp/ccTKskkB.s 			page 3


 115 005a 05A9     		add	r1, sp, #20
 116 005c 0DF10A02 		add	r2, sp, #10
 117 0060 FFF7FEFF 		bl	netbuf_data
 118              	.LVL16:
 119              		.loc 1 57 0
 120 0064 BDF80A30 		ldrh	r3, [sp, #10]
 121 0068 042B     		cmp	r3, #4
 122 006a EBD9     		bls	.L6
 123              		.loc 1 58 0
 124 006c 059B     		ldr	r3, [sp, #20]
 125              		.loc 1 57 0
 126 006e 1A78     		ldrb	r2, [r3]	@ zero_extendqisi2
 127 0070 472A     		cmp	r2, #71
 128 0072 E7D1     		bne	.L6
 129              		.loc 1 58 0
 130 0074 5A78     		ldrb	r2, [r3, #1]	@ zero_extendqisi2
 131 0076 452A     		cmp	r2, #69
 132 0078 E4D1     		bne	.L6
 133              		.loc 1 59 0
 134 007a 9A78     		ldrb	r2, [r3, #2]	@ zero_extendqisi2
 135 007c 542A     		cmp	r2, #84
 136 007e E1D1     		bne	.L6
 137              		.loc 1 60 0
 138 0080 DA78     		ldrb	r2, [r3, #3]	@ zero_extendqisi2
 139 0082 202A     		cmp	r2, #32
 140 0084 DED1     		bne	.L6
 141              		.loc 1 61 0
 142 0086 1B79     		ldrb	r3, [r3, #4]	@ zero_extendqisi2
 143 0088 2F2B     		cmp	r3, #47
 144 008a DBD1     		bne	.L6
 145              		.loc 1 68 0
 146 008c 40F20001 		movw	r1, #:lower16:.LANCHOR0
 147 0090 3346     		mov	r3, r6
 148 0092 0096     		str	r6, [sp]
 149 0094 C0F20001 		movt	r1, #:upper16:.LANCHOR0
 150 0098 2846     		mov	r0, r5
 151 009a 2C22     		movs	r2, #44
 152 009c FFF7FEFF 		bl	netconn_write_partly
 153              	.LVL17:
 154              		.loc 1 71 0
 155 00a0 40F20001 		movw	r1, #:lower16:.LANCHOR1
 156 00a4 0096     		str	r6, [sp]
 157 00a6 3346     		mov	r3, r6
 158 00a8 C0F20001 		movt	r1, #:upper16:.LANCHOR1
 159 00ac 2846     		mov	r0, r5
 160 00ae 8522     		movs	r2, #133
 161 00b0 FFF7FEFF 		bl	netconn_write_partly
 162              	.LVL18:
 163 00b4 C6E7     		b	.L6
 164              	.LVL19:
 165              	.L10:
 166              	.LBE6:
 167              	.LBE7:
 168              		.loc 1 98 0 discriminator 1
 169 00b6 FFF7FEFF 		bl	port_halt
 170              	.LVL20:
 171              		.loc 1 117 0 discriminator 1
ARM GAS  /tmp/ccTKskkB.s 			page 4


 172 00ba 6FF00100 		mvn	r0, #1
 173 00be 06B0     		add	sp, sp, #24
 174              		@ sp needed
 175 00c0 70BD     		pop	{r4, r5, r6, pc}
 176              		.cfi_endproc
 177              	.LFE8:
 178              		.size	http_server, .-http_server
 179              		.global	wa_http_server
 180 00c2 00BFAFF3 		.section	.rodata.http_index_html,"a",%progbits
 180      0080AFF3 
 180      0080AFF3 
 180      0080
 181              		.align	2
 182              		.set	.LANCHOR1,. + 0
 183              		.type	http_index_html, %object
 184              		.size	http_index_html, 134
 185              	http_index_html:
 186 0000 3C68746D 		.ascii	"<html><head><title>Congrats!</title></head><body><h"
 186      6C3E3C68 
 186      6561643E 
 186      3C746974 
 186      6C653E43 
 187 0033 313E5765 		.ascii	"1>Welcome to our lwIP HTTP server!</h1><p>This is a"
 187      6C636F6D 
 187      6520746F 
 187      206F7572 
 187      206C7749 
 188 0066 20736D61 		.ascii	" small test page.</body></html>\000"
 188      6C6C2074 
 188      65737420 
 188      70616765 
 188      2E3C2F62 
 189 0086 0000     		.section	.bss.wa_http_server,"aw",%nobits
 190              		.align	3
 191              		.type	wa_http_server, %object
 192              		.size	wa_http_server, 1232
 193              	wa_http_server:
 194 0000 00000000 		.space	1232
 194      00000000 
 194      00000000 
 194      00000000 
 194      00000000 
 195              		.section	.rodata.http_html_hdr,"a",%progbits
 196              		.align	2
 197              		.set	.LANCHOR0,. + 0
 198              		.type	http_html_hdr, %object
 199              		.size	http_html_hdr, 45
 200              	http_html_hdr:
 201 0000 48545450 		.ascii	"HTTP/1.1 200 OK\015\012Content-type: text/html\015\012"
 201      2F312E31 
 201      20323030 
 201      204F4B0D 
 201      0A436F6E 
 202 002a 0D0A00   		.ascii	"\015\012\000"
 203 002d 000000   		.text
 204              	.Letext0:
 205              		.file 2 "/usr/lib/gcc/arm-none-eabi/4.8.2/include/stddef.h"
ARM GAS  /tmp/ccTKskkB.s 			page 5


 206              		.file 3 "/usr/include/newlib/machine/_default_types.h"
 207              		.file 4 "/usr/include/newlib/stdint.h"
 208              		.file 5 "../../os/ports/GCC/ARMCMx/chtypes.h"
 209              		.file 6 "../../os/kernel/include/chlists.h"
 210              		.file 7 "../../os/kernel/include/chthreads.h"
 211              		.file 8 "../../os/ports/GCC/ARMCMx/chcore_v7m.h"
 212              		.file 9 "../../os/kernel/include/chsem.h"
 213              		.file 10 "../../os/kernel/include/chmtx.h"
 214              		.file 11 "../../os/kernel/include/chmboxes.h"
 215              		.file 12 "../../os/various/lwip_bindings/arch/cc.h"
 216              		.file 13 "../../ext/lwip/src/include/lwip/err.h"
 217              		.file 14 "../../ext/lwip/src/include/lwip/pbuf.h"
 218              		.file 15 "../../ext/lwip/src/include/ipv4/lwip/ip_addr.h"
 219              		.file 16 "../../ext/lwip/src/include/lwip/netbuf.h"
 220              		.file 17 "../../os/various/lwip_bindings/arch/sys_arch.h"
 221              		.file 18 "../../ext/lwip/src/include/lwip/api.h"